   1              		.file	"alcs_api.c"
   2              		.option nopic
   3              		.attribute arch, "rv32i2p0_m2p0_a2p0_f2p0_c2p0_b_p0p94"
   4              		.attribute unaligned_access, 0
   5              		.attribute stack_align, 16
   6              		.text
   7              	.Ltext0:
   8              		.cfi_sections	.debug_frame
   9              		.section	.text.add_request_to_list,"ax",@progbits
  10              		.align	1
  11              		.globl	add_request_to_list
  13              	add_request_to_list:
  14              	.LFB20:
  15              		.file 1 "C:/Users/stapi/OneDrive/Desktop/GD32VW553/V1_MQTT_OK/GD32VW55X_Wifi_BLE_SDK/GD32VW55x_REL
   1:C:/Users/stapi/OneDrive/Desktop/GD32VW553/V1_MQTT_OK/GD32VW55X_Wifi_BLE_SDK/GD32VW55x_RELEASE_V1.0.2/MSDK/cloud/alicloud/src/protocol/alcs\alcs_api.c **** /*
   2:C:/Users/stapi/OneDrive/Desktop/GD32VW553/V1_MQTT_OK/GD32VW55X_Wifi_BLE_SDK/GD32VW55x_RELEASE_V1.0.2/MSDK/cloud/alicloud/src/protocol/alcs\alcs_api.c ****  * Copyright (C) 2015-2018 Alibaba Group Holding Limited
   3:C:/Users/stapi/OneDrive/Desktop/GD32VW553/V1_MQTT_OK/GD32VW55X_Wifi_BLE_SDK/GD32VW55x_RELEASE_V1.0.2/MSDK/cloud/alicloud/src/protocol/alcs\alcs_api.c ****  */
   4:C:/Users/stapi/OneDrive/Desktop/GD32VW553/V1_MQTT_OK/GD32VW55X_Wifi_BLE_SDK/GD32VW55x_RELEASE_V1.0.2/MSDK/cloud/alicloud/src/protocol/alcs\alcs_api.c **** 
   5:C:/Users/stapi/OneDrive/Desktop/GD32VW553/V1_MQTT_OK/GD32VW55X_Wifi_BLE_SDK/GD32VW55x_RELEASE_V1.0.2/MSDK/cloud/alicloud/src/protocol/alcs\alcs_api.c **** 
   6:C:/Users/stapi/OneDrive/Desktop/GD32VW553/V1_MQTT_OK/GD32VW55X_Wifi_BLE_SDK/GD32VW55x_RELEASE_V1.0.2/MSDK/cloud/alicloud/src/protocol/alcs\alcs_api.c **** 
   7:C:/Users/stapi/OneDrive/Desktop/GD32VW553/V1_MQTT_OK/GD32VW55X_Wifi_BLE_SDK/GD32VW55x_RELEASE_V1.0.2/MSDK/cloud/alicloud/src/protocol/alcs\alcs_api.c **** #include <time.h>
   8:C:/Users/stapi/OneDrive/Desktop/GD32VW553/V1_MQTT_OK/GD32VW55X_Wifi_BLE_SDK/GD32VW55x_RELEASE_V1.0.2/MSDK/cloud/alicloud/src/protocol/alcs\alcs_api.c **** #include "alcs_api.h"
   9:C:/Users/stapi/OneDrive/Desktop/GD32VW553/V1_MQTT_OK/GD32VW55X_Wifi_BLE_SDK/GD32VW55x_RELEASE_V1.0.2/MSDK/cloud/alicloud/src/protocol/alcs\alcs_api.c **** #include "alcs_coap.h"
  10:C:/Users/stapi/OneDrive/Desktop/GD32VW553/V1_MQTT_OK/GD32VW55X_Wifi_BLE_SDK/GD32VW55x_RELEASE_V1.0.2/MSDK/cloud/alicloud/src/protocol/alcs\alcs_api.c **** #include "digest/utils_hmac.h"
  11:C:/Users/stapi/OneDrive/Desktop/GD32VW553/V1_MQTT_OK/GD32VW55X_Wifi_BLE_SDK/GD32VW55x_RELEASE_V1.0.2/MSDK/cloud/alicloud/src/protocol/alcs\alcs_api.c **** #include "json_parser.h"
  12:C:/Users/stapi/OneDrive/Desktop/GD32VW553/V1_MQTT_OK/GD32VW55X_Wifi_BLE_SDK/GD32VW55x_RELEASE_V1.0.2/MSDK/cloud/alicloud/src/protocol/alcs\alcs_api.c **** #include "alcs_api_internal.h"
  13:C:/Users/stapi/OneDrive/Desktop/GD32VW553/V1_MQTT_OK/GD32VW55X_Wifi_BLE_SDK/GD32VW55x_RELEASE_V1.0.2/MSDK/cloud/alicloud/src/protocol/alcs\alcs_api.c **** #include "CoAPPlatform.h"
  14:C:/Users/stapi/OneDrive/Desktop/GD32VW553/V1_MQTT_OK/GD32VW55X_Wifi_BLE_SDK/GD32VW55x_RELEASE_V1.0.2/MSDK/cloud/alicloud/src/protocol/alcs\alcs_api.c **** #include "CoAPObserve.h"
  15:C:/Users/stapi/OneDrive/Desktop/GD32VW553/V1_MQTT_OK/GD32VW55X_Wifi_BLE_SDK/GD32VW55x_RELEASE_V1.0.2/MSDK/cloud/alicloud/src/protocol/alcs\alcs_api.c **** 
  16:C:/Users/stapi/OneDrive/Desktop/GD32VW553/V1_MQTT_OK/GD32VW55X_Wifi_BLE_SDK/GD32VW55x_RELEASE_V1.0.2/MSDK/cloud/alicloud/src/protocol/alcs\alcs_api.c **** LIST_HEAD(secure_resource_cb_head);
  17:C:/Users/stapi/OneDrive/Desktop/GD32VW553/V1_MQTT_OK/GD32VW55X_Wifi_BLE_SDK/GD32VW55x_RELEASE_V1.0.2/MSDK/cloud/alicloud/src/protocol/alcs\alcs_api.c **** 
  18:C:/Users/stapi/OneDrive/Desktop/GD32VW553/V1_MQTT_OK/GD32VW55X_Wifi_BLE_SDK/GD32VW55x_RELEASE_V1.0.2/MSDK/cloud/alicloud/src/protocol/alcs\alcs_api.c **** static bool is_inited = 0;
  19:C:/Users/stapi/OneDrive/Desktop/GD32VW553/V1_MQTT_OK/GD32VW55X_Wifi_BLE_SDK/GD32VW55x_RELEASE_V1.0.2/MSDK/cloud/alicloud/src/protocol/alcs\alcs_api.c **** int sessionid_seed;
  20:C:/Users/stapi/OneDrive/Desktop/GD32VW553/V1_MQTT_OK/GD32VW55X_Wifi_BLE_SDK/GD32VW55x_RELEASE_V1.0.2/MSDK/cloud/alicloud/src/protocol/alcs\alcs_api.c **** device_auth_list _device;
  21:C:/Users/stapi/OneDrive/Desktop/GD32VW553/V1_MQTT_OK/GD32VW55X_Wifi_BLE_SDK/GD32VW55x_RELEASE_V1.0.2/MSDK/cloud/alicloud/src/protocol/alcs\alcs_api.c **** 
  22:C:/Users/stapi/OneDrive/Desktop/GD32VW553/V1_MQTT_OK/GD32VW55X_Wifi_BLE_SDK/GD32VW55x_RELEASE_V1.0.2/MSDK/cloud/alicloud/src/protocol/alcs\alcs_api.c **** void add_request_to_list (request_item *requst)
  23:C:/Users/stapi/OneDrive/Desktop/GD32VW553/V1_MQTT_OK/GD32VW55X_Wifi_BLE_SDK/GD32VW55x_RELEASE_V1.0.2/MSDK/cloud/alicloud/src/protocol/alcs\alcs_api.c **** {
  16              		.loc 1 23 1
  17              		.cfi_startproc
  18              	.LVL0:
  19 0000 17030000 		call	t0,__riscv_save_2
  19      E7020300 
  20              		.cfi_offset 9, -12
  21              		.cfi_offset 8, -8
  22              		.cfi_offset 1, -4
  23              		.cfi_def_cfa_offset 16
  24:C:/Users/stapi/OneDrive/Desktop/GD32VW553/V1_MQTT_OK/GD32VW55X_Wifi_BLE_SDK/GD32VW55x_RELEASE_V1.0.2/MSDK/cloud/alicloud/src/protocol/alcs\alcs_api.c ****     HAL_MutexLock(_device.list_mutex);
  24              		.loc 1 24 5
  25 0008 37040000 		lui	s0,%hi(.LANCHOR0)
  26 000c 13040400 		addi	s0,s0,%lo(.LANCHOR0)
  23:C:/Users/stapi/OneDrive/Desktop/GD32VW553/V1_MQTT_OK/GD32VW55X_Wifi_BLE_SDK/GD32VW55x_RELEASE_V1.0.2/MSDK/cloud/alicloud/src/protocol/alcs\alcs_api.c ****     HAL_MutexLock(_device.list_mutex);
  27              		.loc 1 23 1 is_stmt 0
  28 0010 AA84     		mv	s1,a0
  29              		.loc 1 24 5
  30 0012 0844     		lw	a0,8(s0)
  31              	.LVL1:
  32 0014 97000000 		call	HAL_MutexLock
  32      E7800000 
  33              	.LVL2:
  25:C:/Users/stapi/OneDrive/Desktop/GD32VW553/V1_MQTT_OK/GD32VW55X_Wifi_BLE_SDK/GD32VW55x_RELEASE_V1.0.2/MSDK/cloud/alicloud/src/protocol/alcs\alcs_api.c ****     list_add_tail(&requst->lst, &_device.lst_requests);
  34              		.loc 1 25 5 is_stmt 1
  35              	.LBB21:
  36              	.LBB22:
  37              		.file 2 "..\\..\\..\\..\\cloud\\alicloud\\src\\infra\\utils\\misc/lite-list.h"
   1:..\..\..\..\cloud\alicloud\src\infra\utils\misc/lite-list.h **** /*
   2:..\..\..\..\cloud\alicloud\src\infra\utils\misc/lite-list.h ****  * Copyright (C) 2015-2018 Alibaba Group Holding Limited
   3:..\..\..\..\cloud\alicloud\src\infra\utils\misc/lite-list.h ****  */
   4:..\..\..\..\cloud\alicloud\src\infra\utils\misc/lite-list.h **** 
   5:..\..\..\..\cloud\alicloud\src\infra\utils\misc/lite-list.h **** #ifndef AOS_LIST_H
   6:..\..\..\..\cloud\alicloud\src\infra\utils\misc/lite-list.h **** #define AOS_LIST_H
   7:..\..\..\..\cloud\alicloud\src\infra\utils\misc/lite-list.h **** 
   8:..\..\..\..\cloud\alicloud\src\infra\utils\misc/lite-list.h **** #ifdef __cplusplus
   9:..\..\..\..\cloud\alicloud\src\infra\utils\misc/lite-list.h **** extern "C" {
  10:..\..\..\..\cloud\alicloud\src\infra\utils\misc/lite-list.h **** #endif
  11:..\..\..\..\cloud\alicloud\src\infra\utils\misc/lite-list.h **** 
  12:..\..\..\..\cloud\alicloud\src\infra\utils\misc/lite-list.h **** /*
  13:..\..\..\..\cloud\alicloud\src\infra\utils\misc/lite-list.h ****  * Get offset of a member variable.
  14:..\..\..\..\cloud\alicloud\src\infra\utils\misc/lite-list.h ****  *
  15:..\..\..\..\cloud\alicloud\src\infra\utils\misc/lite-list.h ****  * @param[in]   type     the type of the struct this is embedded in.
  16:..\..\..\..\cloud\alicloud\src\infra\utils\misc/lite-list.h ****  * @param[in]   member   the name of the variable within the struct.
  17:..\..\..\..\cloud\alicloud\src\infra\utils\misc/lite-list.h ****  */
  18:..\..\..\..\cloud\alicloud\src\infra\utils\misc/lite-list.h **** #define aos_offsetof(type, member)   ((size_t)&(((type *)0)->member))
  19:..\..\..\..\cloud\alicloud\src\infra\utils\misc/lite-list.h **** 
  20:..\..\..\..\cloud\alicloud\src\infra\utils\misc/lite-list.h **** /*
  21:..\..\..\..\cloud\alicloud\src\infra\utils\misc/lite-list.h ****  * Get the struct for this entry.
  22:..\..\..\..\cloud\alicloud\src\infra\utils\misc/lite-list.h ****  *
  23:..\..\..\..\cloud\alicloud\src\infra\utils\misc/lite-list.h ****  * @param[in]   ptr     the list head to take the element from.
  24:..\..\..\..\cloud\alicloud\src\infra\utils\misc/lite-list.h ****  * @param[in]   type    the type of the struct this is embedded in.
  25:..\..\..\..\cloud\alicloud\src\infra\utils\misc/lite-list.h ****  * @param[in]   member  the name of the variable within the struct.
  26:..\..\..\..\cloud\alicloud\src\infra\utils\misc/lite-list.h ****  */
  27:..\..\..\..\cloud\alicloud\src\infra\utils\misc/lite-list.h **** #define aos_container_of(ptr, type, member) \
  28:..\..\..\..\cloud\alicloud\src\infra\utils\misc/lite-list.h ****     ((type *) ((char *) (ptr) - aos_offsetof(type, member)))
  29:..\..\..\..\cloud\alicloud\src\infra\utils\misc/lite-list.h **** 
  30:..\..\..\..\cloud\alicloud\src\infra\utils\misc/lite-list.h **** /* for double link list */
  31:..\..\..\..\cloud\alicloud\src\infra\utils\misc/lite-list.h **** typedef struct dlist_s {
  32:..\..\..\..\cloud\alicloud\src\infra\utils\misc/lite-list.h ****     struct dlist_s *prev;
  33:..\..\..\..\cloud\alicloud\src\infra\utils\misc/lite-list.h ****     struct dlist_s *next;
  34:..\..\..\..\cloud\alicloud\src\infra\utils\misc/lite-list.h **** } dlist_t;
  35:..\..\..\..\cloud\alicloud\src\infra\utils\misc/lite-list.h **** 
  36:..\..\..\..\cloud\alicloud\src\infra\utils\misc/lite-list.h **** static inline void __dlist_add(dlist_t *node, dlist_t *prev, dlist_t *next)
  37:..\..\..\..\cloud\alicloud\src\infra\utils\misc/lite-list.h **** {
  38:..\..\..\..\cloud\alicloud\src\infra\utils\misc/lite-list.h ****     node->next = next;
  39:..\..\..\..\cloud\alicloud\src\infra\utils\misc/lite-list.h ****     node->prev = prev;
  40:..\..\..\..\cloud\alicloud\src\infra\utils\misc/lite-list.h **** 
  41:..\..\..\..\cloud\alicloud\src\infra\utils\misc/lite-list.h ****     prev->next = node;
  42:..\..\..\..\cloud\alicloud\src\infra\utils\misc/lite-list.h ****     next->prev = node;
  43:..\..\..\..\cloud\alicloud\src\infra\utils\misc/lite-list.h **** }
  44:..\..\..\..\cloud\alicloud\src\infra\utils\misc/lite-list.h **** 
  45:..\..\..\..\cloud\alicloud\src\infra\utils\misc/lite-list.h **** /*
  46:..\..\..\..\cloud\alicloud\src\infra\utils\misc/lite-list.h ****  * Get the struct for this entry.
  47:..\..\..\..\cloud\alicloud\src\infra\utils\misc/lite-list.h ****  *
  48:..\..\..\..\cloud\alicloud\src\infra\utils\misc/lite-list.h ****  * @param[in]   addr    the list head to take the element from.
  49:..\..\..\..\cloud\alicloud\src\infra\utils\misc/lite-list.h ****  * @param[in]   type    the type of the struct this is embedded in.
  50:..\..\..\..\cloud\alicloud\src\infra\utils\misc/lite-list.h ****  * @param[in]   member  the name of the dlist_t within the struct.
  51:..\..\..\..\cloud\alicloud\src\infra\utils\misc/lite-list.h ****  */
  52:..\..\..\..\cloud\alicloud\src\infra\utils\misc/lite-list.h **** #define dlist_entry(addr, type, member) \
  53:..\..\..\..\cloud\alicloud\src\infra\utils\misc/lite-list.h ****     ((type *)((long)addr - aos_offsetof(type, member)))
  54:..\..\..\..\cloud\alicloud\src\infra\utils\misc/lite-list.h **** 
  55:..\..\..\..\cloud\alicloud\src\infra\utils\misc/lite-list.h **** 
  56:..\..\..\..\cloud\alicloud\src\infra\utils\misc/lite-list.h **** static inline void dlist_add(dlist_t *node, dlist_t *queue)
  57:..\..\..\..\cloud\alicloud\src\infra\utils\misc/lite-list.h **** {
  58:..\..\..\..\cloud\alicloud\src\infra\utils\misc/lite-list.h ****     __dlist_add(node, queue, queue->next);
  59:..\..\..\..\cloud\alicloud\src\infra\utils\misc/lite-list.h **** }
  60:..\..\..\..\cloud\alicloud\src\infra\utils\misc/lite-list.h **** 
  61:..\..\..\..\cloud\alicloud\src\infra\utils\misc/lite-list.h **** static inline void dlist_add_tail(dlist_t *node, dlist_t *queue)
  62:..\..\..\..\cloud\alicloud\src\infra\utils\misc/lite-list.h **** {
  63:..\..\..\..\cloud\alicloud\src\infra\utils\misc/lite-list.h ****     __dlist_add(node, queue->prev, queue);
  38              		.loc 2 63 28 is_stmt 0
  39 001c 5850     		lw	a4,36(s0)
  40              	.LBB23:
  41              	.LBB24:
  38:..\..\..\..\cloud\alicloud\src\infra\utils\misc/lite-list.h ****     node->prev = prev;
  42              		.loc 2 38 16
  43 001e 93064402 		addi	a3,s0,36
  44              	.LBE24:
  45              	.LBE23:
  46              	.LBE22:
  47              	.LBE21:
  26:C:/Users/stapi/OneDrive/Desktop/GD32VW553/V1_MQTT_OK/GD32VW55X_Wifi_BLE_SDK/GD32VW55x_RELEASE_V1.0.2/MSDK/cloud/alicloud/src/protocol/alcs\alcs_api.c ****     HAL_MutexUnlock(_device.list_mutex);
  48              		.loc 1 26 5
  49 0022 0844     		lw	a0,8(s0)
  25:C:/Users/stapi/OneDrive/Desktop/GD32VW553/V1_MQTT_OK/GD32VW55X_Wifi_BLE_SDK/GD32VW55x_RELEASE_V1.0.2/MSDK/cloud/alicloud/src/protocol/alcs\alcs_api.c ****     HAL_MutexUnlock(_device.list_mutex);
  50              		.loc 1 25 19
  51 0024 9387C402 		addi	a5,s1,44
  52              	.LVL3:
  53              	.LBB28:
  54              	.LBB27:
  55              		.loc 2 63 5 is_stmt 1
  56              	.LBB26:
  57              	.LBB25:
  38:..\..\..\..\cloud\alicloud\src\infra\utils\misc/lite-list.h ****     node->prev = prev;
  58              		.loc 2 38 5
  38:..\..\..\..\cloud\alicloud\src\infra\utils\misc/lite-list.h ****     node->prev = prev;
  59              		.loc 2 38 16 is_stmt 0
  60 0028 94D8     		sw	a3,48(s1)
  39:..\..\..\..\cloud\alicloud\src\infra\utils\misc/lite-list.h **** 
  61              		.loc 2 39 5 is_stmt 1
  39:..\..\..\..\cloud\alicloud\src\infra\utils\misc/lite-list.h **** 
  62              		.loc 2 39 16 is_stmt 0
  63 002a D8D4     		sw	a4,44(s1)
  41:..\..\..\..\cloud\alicloud\src\infra\utils\misc/lite-list.h ****     next->prev = node;
  64              		.loc 2 41 5 is_stmt 1
  41:..\..\..\..\cloud\alicloud\src\infra\utils\misc/lite-list.h ****     next->prev = node;
  65              		.loc 2 41 16 is_stmt 0
  66 002c 5CC3     		sw	a5,4(a4)
  42:..\..\..\..\cloud\alicloud\src\infra\utils\misc/lite-list.h **** }
  67              		.loc 2 42 5 is_stmt 1
  42:..\..\..\..\cloud\alicloud\src\infra\utils\misc/lite-list.h **** }
  68              		.loc 2 42 16 is_stmt 0
  69 002e 5CD0     		sw	a5,36(s0)
  70              	.LVL4:
  71              	.LBE25:
  72              	.LBE26:
  73              	.LBE27:
  74              	.LBE28:
  75              		.loc 1 26 5 is_stmt 1
  76 0030 97000000 		call	HAL_MutexUnlock
  76      E7800000 
  77              	.LVL5:
  27:C:/Users/stapi/OneDrive/Desktop/GD32VW553/V1_MQTT_OK/GD32VW55X_Wifi_BLE_SDK/GD32VW55x_RELEASE_V1.0.2/MSDK/cloud/alicloud/src/protocol/alcs\alcs_api.c **** }
  78              		.loc 1 27 1 is_stmt 0
  79 0038 17030000 		tail	__riscv_restore_2
  79      67000300 
  80              		.cfi_restore 9
  81              		.cfi_restore 8
  82              		.cfi_restore 1
  83              		.cfi_def_cfa_offset 0
  84              		.cfi_endproc
  85              	.LFE20:
  87              		.section	.text.remove_request,"ax",@progbits
  88              		.align	1
  89              		.globl	remove_request
  91              	remove_request:
  92              	.LFB21:
  28:C:/Users/stapi/OneDrive/Desktop/GD32VW553/V1_MQTT_OK/GD32VW55X_Wifi_BLE_SDK/GD32VW55x_RELEASE_V1.0.2/MSDK/cloud/alicloud/src/protocol/alcs\alcs_api.c **** 
  29:C:/Users/stapi/OneDrive/Desktop/GD32VW553/V1_MQTT_OK/GD32VW55X_Wifi_BLE_SDK/GD32VW55x_RELEASE_V1.0.2/MSDK/cloud/alicloud/src/protocol/alcs\alcs_api.c **** void remove_request (request_item *requst)
  30:C:/Users/stapi/OneDrive/Desktop/GD32VW553/V1_MQTT_OK/GD32VW55X_Wifi_BLE_SDK/GD32VW55x_RELEASE_V1.0.2/MSDK/cloud/alicloud/src/protocol/alcs\alcs_api.c **** {
  93              		.loc 1 30 1 is_stmt 1
  94              		.cfi_startproc
  95              	.LVL6:
  31:C:/Users/stapi/OneDrive/Desktop/GD32VW553/V1_MQTT_OK/GD32VW55X_Wifi_BLE_SDK/GD32VW55x_RELEASE_V1.0.2/MSDK/cloud/alicloud/src/protocol/alcs\alcs_api.c ****     if (requst) {
  96              		.loc 1 31 5
  97              		.loc 1 31 8 is_stmt 0
  98 0000 09C9     		beq	a0,zero,.L9
  99              	.LVL7:
 100              	.LBB33:
 101              	.LBB34:
  32:C:/Users/stapi/OneDrive/Desktop/GD32VW553/V1_MQTT_OK/GD32VW55X_Wifi_BLE_SDK/GD32VW55x_RELEASE_V1.0.2/MSDK/cloud/alicloud/src/protocol/alcs\alcs_api.c ****         list_del (&requst->lst);
 102              		.loc 1 32 9 is_stmt 1
 103              	.LBB35:
 104              	.LBB36:
  64:..\..\..\..\cloud\alicloud\src\infra\utils\misc/lite-list.h **** }
  65:..\..\..\..\cloud\alicloud\src\infra\utils\misc/lite-list.h **** 
  66:..\..\..\..\cloud\alicloud\src\infra\utils\misc/lite-list.h **** static inline void dlist_del(dlist_t *node)
  67:..\..\..\..\cloud\alicloud\src\infra\utils\misc/lite-list.h **** {
  68:..\..\..\..\cloud\alicloud\src\infra\utils\misc/lite-list.h ****     dlist_t *prev = node->prev;
 105              		.loc 2 68 5
 106              		.loc 2 68 14 is_stmt 0
 107 0002 5855     		lw	a4,44(a0)
 108              	.LVL8:
  69:..\..\..\..\cloud\alicloud\src\infra\utils\misc/lite-list.h ****     dlist_t *next = node->next;
 109              		.loc 2 69 5 is_stmt 1
 110              		.loc 2 69 14 is_stmt 0
 111 0004 1C59     		lw	a5,48(a0)
 112              	.LVL9:
  70:..\..\..\..\cloud\alicloud\src\infra\utils\misc/lite-list.h **** 
  71:..\..\..\..\cloud\alicloud\src\infra\utils\misc/lite-list.h ****     prev->next = next;
 113              		.loc 2 71 5 is_stmt 1
 114              		.loc 2 71 16 is_stmt 0
 115 0006 5CC3     		sw	a5,4(a4)
  72:..\..\..\..\cloud\alicloud\src\infra\utils\misc/lite-list.h ****     next->prev = prev;
 116              		.loc 2 72 5 is_stmt 1
 117              		.loc 2 72 16 is_stmt 0
 118 0008 98C3     		sw	a4,0(a5)
 119              	.LVL10:
 120              	.LBE36:
 121              	.LBE35:
  33:C:/Users/stapi/OneDrive/Desktop/GD32VW553/V1_MQTT_OK/GD32VW55X_Wifi_BLE_SDK/GD32VW55x_RELEASE_V1.0.2/MSDK/cloud/alicloud/src/protocol/alcs\alcs_api.c ****         coap_free (requst);
 122              		.loc 1 33 9 is_stmt 1
 123 000a 17030000 		tail	LITE_free_internal
 123      67000300 
 124              	.LVL11:
 125              	.L9:
 126 0012 8280     		ret
 127              	.LBE34:
 128              	.LBE33:
 129              		.cfi_endproc
 130              	.LFE21:
 132              		.section	.rodata.remove_session.str1.4,"aMS",@progbits,1
 133              		.align	2
 134              	.LC0:
 135 0000 5B696E66 		.string	"[inf] "
 135      5D2000
 136 0007 00       		.align	2
 137              	.LC1:
 138 0008 72656D6F 		.string	"remove_session"
 138      76655F73 
 138      65737369 
 138      6F6E00
 139 0017 00       		.align	2
 140              	.LC2:
 141 0018 0D0A00   		.string	"\r\n"
 142              		.section	.text.remove_session,"ax",@progbits
 143              		.align	1
 144              		.globl	remove_session
 146              	remove_session:
 147              	.LFB22:
  34:C:/Users/stapi/OneDrive/Desktop/GD32VW553/V1_MQTT_OK/GD32VW55X_Wifi_BLE_SDK/GD32VW55x_RELEASE_V1.0.2/MSDK/cloud/alicloud/src/protocol/alcs\alcs_api.c ****     }
  35:C:/Users/stapi/OneDrive/Desktop/GD32VW553/V1_MQTT_OK/GD32VW55X_Wifi_BLE_SDK/GD32VW55x_RELEASE_V1.0.2/MSDK/cloud/alicloud/src/protocol/alcs\alcs_api.c **** }
  36:C:/Users/stapi/OneDrive/Desktop/GD32VW553/V1_MQTT_OK/GD32VW55X_Wifi_BLE_SDK/GD32VW55x_RELEASE_V1.0.2/MSDK/cloud/alicloud/src/protocol/alcs\alcs_api.c **** 
  37:C:/Users/stapi/OneDrive/Desktop/GD32VW553/V1_MQTT_OK/GD32VW55X_Wifi_BLE_SDK/GD32VW55x_RELEASE_V1.0.2/MSDK/cloud/alicloud/src/protocol/alcs\alcs_api.c **** void remove_session (CoAPContext *ctx, session_item* session)
  38:C:/Users/stapi/OneDrive/Desktop/GD32VW553/V1_MQTT_OK/GD32VW55X_Wifi_BLE_SDK/GD32VW55x_RELEASE_V1.0.2/MSDK/cloud/alicloud/src/protocol/alcs\alcs_api.c **** {
 148              		.loc 1 38 1
 149              		.cfi_startproc
 150              	.LVL12:
 151 0000 17030000 		call	t0,__riscv_save_2
 151      E7020300 
 152              		.cfi_offset 9, -12
 153              		.cfi_offset 8, -8
 154              		.cfi_offset 1, -4
 155              		.cfi_def_cfa_offset 16
  39:C:/Users/stapi/OneDrive/Desktop/GD32VW553/V1_MQTT_OK/GD32VW55X_Wifi_BLE_SDK/GD32VW55x_RELEASE_V1.0.2/MSDK/cloud/alicloud/src/protocol/alcs\alcs_api.c ****     COAP_INFO("remove_session");
 156              		.loc 1 39 5
 157              		.loc 1 39 5
  38:C:/Users/stapi/OneDrive/Desktop/GD32VW553/V1_MQTT_OK/GD32VW55X_Wifi_BLE_SDK/GD32VW55x_RELEASE_V1.0.2/MSDK/cloud/alicloud/src/protocol/alcs\alcs_api.c ****     COAP_INFO("remove_session");
 158              		.loc 1 38 1 is_stmt 0
 159 0008 AA84     		mv	s1,a0
 160              		.loc 1 39 5
 161 000a 37050000 		lui	a0,%hi(.LC0)
 162              	.LVL13:
 163 000e 13050500 		addi	a0,a0,%lo(.LC0)
  38:C:/Users/stapi/OneDrive/Desktop/GD32VW553/V1_MQTT_OK/GD32VW55X_Wifi_BLE_SDK/GD32VW55x_RELEASE_V1.0.2/MSDK/cloud/alicloud/src/protocol/alcs\alcs_api.c ****     COAP_INFO("remove_session");
 164              		.loc 1 38 1
 165 0012 2E84     		mv	s0,a1
 166              		.loc 1 39 5
 167 0014 97000000 		call	HAL_Printf
 167      E7800000 
 168              	.LVL14:
 169              		.loc 1 39 5 is_stmt 1
 170 001c 37050000 		lui	a0,%hi(.LC1)
 171 0020 13050500 		addi	a0,a0,%lo(.LC1)
 172 0024 97000000 		call	HAL_Printf
 172      E7800000 
 173              	.LVL15:
 174              		.loc 1 39 5
 175 002c 37050000 		lui	a0,%hi(.LC2)
 176 0030 13050500 		addi	a0,a0,%lo(.LC2)
 177 0034 97000000 		call	HAL_Printf
 177      E7800000 
 178              	.LVL16:
 179              		.loc 1 39 5
  40:C:/Users/stapi/OneDrive/Desktop/GD32VW553/V1_MQTT_OK/GD32VW55X_Wifi_BLE_SDK/GD32VW55x_RELEASE_V1.0.2/MSDK/cloud/alicloud/src/protocol/alcs\alcs_api.c ****     if (session) {
 180              		.loc 1 40 5
 181              		.loc 1 40 8 is_stmt 0
 182 003c 1DC0     		beq	s0,zero,.L12
 183              	.LVL17:
 184              	.LBB41:
 185              	.LBB42:
  41:C:/Users/stapi/OneDrive/Desktop/GD32VW553/V1_MQTT_OK/GD32VW55X_Wifi_BLE_SDK/GD32VW55x_RELEASE_V1.0.2/MSDK/cloud/alicloud/src/protocol/alcs\alcs_api.c ****         CoapObsServerAll_delete (ctx, &session->addr);
 186              		.loc 1 41 9 is_stmt 1
 187 003e 93054405 		addi	a1,s0,84
 188 0042 2685     		mv	a0,s1
 189 0044 97000000 		call	CoapObsServerAll_delete
 189      E7800000 
 190              	.LVL18:
  42:C:/Users/stapi/OneDrive/Desktop/GD32VW553/V1_MQTT_OK/GD32VW55X_Wifi_BLE_SDK/GD32VW55x_RELEASE_V1.0.2/MSDK/cloud/alicloud/src/protocol/alcs\alcs_api.c ****         list_del (&session->lst);
 191              		.loc 1 42 9
 192              	.LBB43:
 193              	.LBB44:
  68:..\..\..\..\cloud\alicloud\src\infra\utils\misc/lite-list.h ****     dlist_t *next = node->next;
 194              		.loc 2 68 5
  68:..\..\..\..\cloud\alicloud\src\infra\utils\misc/lite-list.h ****     dlist_t *next = node->next;
 195              		.loc 2 68 14 is_stmt 0
 196 004c 0327C40B 		lw	a4,188(s0)
 197              	.LVL19:
  69:..\..\..\..\cloud\alicloud\src\infra\utils\misc/lite-list.h **** 
 198              		.loc 2 69 5 is_stmt 1
  69:..\..\..\..\cloud\alicloud\src\infra\utils\misc/lite-list.h **** 
 199              		.loc 2 69 14 is_stmt 0
 200 0050 8327040C 		lw	a5,192(s0)
 201              	.LVL20:
  71:..\..\..\..\cloud\alicloud\src\infra\utils\misc/lite-list.h ****     next->prev = prev;
 202              		.loc 2 71 5 is_stmt 1
 203              	.LBE44:
 204              	.LBE43:
  43:C:/Users/stapi/OneDrive/Desktop/GD32VW553/V1_MQTT_OK/GD32VW55X_Wifi_BLE_SDK/GD32VW55x_RELEASE_V1.0.2/MSDK/cloud/alicloud/src/protocol/alcs\alcs_api.c ****         coap_free (session);
 205              		.loc 1 43 9 is_stmt 0
 206 0054 2285     		mv	a0,s0
 207              	.LBB46:
 208              	.LBB45:
  71:..\..\..\..\cloud\alicloud\src\infra\utils\misc/lite-list.h ****     next->prev = prev;
 209              		.loc 2 71 16
 210 0056 5CC3     		sw	a5,4(a4)
 211              		.loc 2 72 5 is_stmt 1
 212              		.loc 2 72 16 is_stmt 0
 213 0058 98C3     		sw	a4,0(a5)
 214              	.LVL21:
 215              	.LBE45:
 216              	.LBE46:
 217              		.loc 1 43 9 is_stmt 1
 218 005a 97000000 		call	LITE_free_internal
 218      E7800000 
 219              	.LVL22:
 220              	.L12:
 221              	.LBE42:
 222              	.LBE41:
  44:C:/Users/stapi/OneDrive/Desktop/GD32VW553/V1_MQTT_OK/GD32VW55X_Wifi_BLE_SDK/GD32VW55x_RELEASE_V1.0.2/MSDK/cloud/alicloud/src/protocol/alcs\alcs_api.c ****     }
  45:C:/Users/stapi/OneDrive/Desktop/GD32VW553/V1_MQTT_OK/GD32VW55X_Wifi_BLE_SDK/GD32VW55x_RELEASE_V1.0.2/MSDK/cloud/alicloud/src/protocol/alcs\alcs_api.c **** }
 223              		.loc 1 45 1 is_stmt 0
 224 0062 17030000 		tail	__riscv_restore_2
 224      67000300 
 225              		.cfi_restore 9
 226              		.cfi_restore 8
 227              		.cfi_restore 1
 228              		.cfi_def_cfa_offset 0
 229              		.cfi_endproc
 230              	.LFE22:
 232              		.section	.text.gen_random_key,"ax",@progbits
 233              		.align	1
 234              		.globl	gen_random_key
 236              	gen_random_key:
 237              	.LFB31:
  46:C:/Users/stapi/OneDrive/Desktop/GD32VW553/V1_MQTT_OK/GD32VW55X_Wifi_BLE_SDK/GD32VW55x_RELEASE_V1.0.2/MSDK/cloud/alicloud/src/protocol/alcs\alcs_api.c **** 
  47:C:/Users/stapi/OneDrive/Desktop/GD32VW553/V1_MQTT_OK/GD32VW55X_Wifi_BLE_SDK/GD32VW55x_RELEASE_V1.0.2/MSDK/cloud/alicloud/src/protocol/alcs\alcs_api.c **** session_item* get_session_by_checksum (struct list_head* sessions, NetworkAddr* addr, char ck[PK_DN
  48:C:/Users/stapi/OneDrive/Desktop/GD32VW553/V1_MQTT_OK/GD32VW55X_Wifi_BLE_SDK/GD32VW55x_RELEASE_V1.0.2/MSDK/cloud/alicloud/src/protocol/alcs\alcs_api.c **** {
  49:C:/Users/stapi/OneDrive/Desktop/GD32VW553/V1_MQTT_OK/GD32VW55X_Wifi_BLE_SDK/GD32VW55x_RELEASE_V1.0.2/MSDK/cloud/alicloud/src/protocol/alcs\alcs_api.c ****     if (!sessions || !ck) {
  50:C:/Users/stapi/OneDrive/Desktop/GD32VW553/V1_MQTT_OK/GD32VW55X_Wifi_BLE_SDK/GD32VW55x_RELEASE_V1.0.2/MSDK/cloud/alicloud/src/protocol/alcs\alcs_api.c ****         return NULL;
  51:C:/Users/stapi/OneDrive/Desktop/GD32VW553/V1_MQTT_OK/GD32VW55X_Wifi_BLE_SDK/GD32VW55x_RELEASE_V1.0.2/MSDK/cloud/alicloud/src/protocol/alcs\alcs_api.c ****     }
  52:C:/Users/stapi/OneDrive/Desktop/GD32VW553/V1_MQTT_OK/GD32VW55X_Wifi_BLE_SDK/GD32VW55x_RELEASE_V1.0.2/MSDK/cloud/alicloud/src/protocol/alcs\alcs_api.c **** 
  53:C:/Users/stapi/OneDrive/Desktop/GD32VW553/V1_MQTT_OK/GD32VW55X_Wifi_BLE_SDK/GD32VW55x_RELEASE_V1.0.2/MSDK/cloud/alicloud/src/protocol/alcs\alcs_api.c ****     device_auth_list *dev_lst = get_device ();
  54:C:/Users/stapi/OneDrive/Desktop/GD32VW553/V1_MQTT_OK/GD32VW55X_Wifi_BLE_SDK/GD32VW55x_RELEASE_V1.0.2/MSDK/cloud/alicloud/src/protocol/alcs\alcs_api.c ****     HAL_MutexLock(dev_lst->list_mutex);
  55:C:/Users/stapi/OneDrive/Desktop/GD32VW553/V1_MQTT_OK/GD32VW55X_Wifi_BLE_SDK/GD32VW55x_RELEASE_V1.0.2/MSDK/cloud/alicloud/src/protocol/alcs\alcs_api.c **** 
  56:C:/Users/stapi/OneDrive/Desktop/GD32VW553/V1_MQTT_OK/GD32VW55X_Wifi_BLE_SDK/GD32VW55x_RELEASE_V1.0.2/MSDK/cloud/alicloud/src/protocol/alcs\alcs_api.c ****     session_item* node = NULL, *next = NULL;
  57:C:/Users/stapi/OneDrive/Desktop/GD32VW553/V1_MQTT_OK/GD32VW55X_Wifi_BLE_SDK/GD32VW55x_RELEASE_V1.0.2/MSDK/cloud/alicloud/src/protocol/alcs\alcs_api.c ****     list_for_each_entry_safe(node, next, sessions, lst, session_item) {
  58:C:/Users/stapi/OneDrive/Desktop/GD32VW553/V1_MQTT_OK/GD32VW55X_Wifi_BLE_SDK/GD32VW55x_RELEASE_V1.0.2/MSDK/cloud/alicloud/src/protocol/alcs\alcs_api.c ****         if (is_networkadd_same(addr, &node->addr)
  59:C:/Users/stapi/OneDrive/Desktop/GD32VW553/V1_MQTT_OK/GD32VW55X_Wifi_BLE_SDK/GD32VW55x_RELEASE_V1.0.2/MSDK/cloud/alicloud/src/protocol/alcs\alcs_api.c ****                 && strncmp(node->pk_dn, ck, PK_DN_CHECKSUM_LEN) == 0)
  60:C:/Users/stapi/OneDrive/Desktop/GD32VW553/V1_MQTT_OK/GD32VW55X_Wifi_BLE_SDK/GD32VW55x_RELEASE_V1.0.2/MSDK/cloud/alicloud/src/protocol/alcs\alcs_api.c ****         {
  61:C:/Users/stapi/OneDrive/Desktop/GD32VW553/V1_MQTT_OK/GD32VW55X_Wifi_BLE_SDK/GD32VW55x_RELEASE_V1.0.2/MSDK/cloud/alicloud/src/protocol/alcs\alcs_api.c ****             COAP_DEBUG("find node, sessionid:%d", node->sessionId);
  62:C:/Users/stapi/OneDrive/Desktop/GD32VW553/V1_MQTT_OK/GD32VW55X_Wifi_BLE_SDK/GD32VW55x_RELEASE_V1.0.2/MSDK/cloud/alicloud/src/protocol/alcs\alcs_api.c ****             HAL_MutexUnlock(dev_lst->list_mutex);
  63:C:/Users/stapi/OneDrive/Desktop/GD32VW553/V1_MQTT_OK/GD32VW55X_Wifi_BLE_SDK/GD32VW55x_RELEASE_V1.0.2/MSDK/cloud/alicloud/src/protocol/alcs\alcs_api.c ****             return node;
  64:C:/Users/stapi/OneDrive/Desktop/GD32VW553/V1_MQTT_OK/GD32VW55X_Wifi_BLE_SDK/GD32VW55x_RELEASE_V1.0.2/MSDK/cloud/alicloud/src/protocol/alcs\alcs_api.c ****         }
  65:C:/Users/stapi/OneDrive/Desktop/GD32VW553/V1_MQTT_OK/GD32VW55X_Wifi_BLE_SDK/GD32VW55x_RELEASE_V1.0.2/MSDK/cloud/alicloud/src/protocol/alcs\alcs_api.c ****     }
  66:C:/Users/stapi/OneDrive/Desktop/GD32VW553/V1_MQTT_OK/GD32VW55X_Wifi_BLE_SDK/GD32VW55x_RELEASE_V1.0.2/MSDK/cloud/alicloud/src/protocol/alcs\alcs_api.c ****     HAL_MutexUnlock(dev_lst->list_mutex);
  67:C:/Users/stapi/OneDrive/Desktop/GD32VW553/V1_MQTT_OK/GD32VW55X_Wifi_BLE_SDK/GD32VW55x_RELEASE_V1.0.2/MSDK/cloud/alicloud/src/protocol/alcs\alcs_api.c ****     return NULL;
  68:C:/Users/stapi/OneDrive/Desktop/GD32VW553/V1_MQTT_OK/GD32VW55X_Wifi_BLE_SDK/GD32VW55x_RELEASE_V1.0.2/MSDK/cloud/alicloud/src/protocol/alcs\alcs_api.c **** }
  69:C:/Users/stapi/OneDrive/Desktop/GD32VW553/V1_MQTT_OK/GD32VW55X_Wifi_BLE_SDK/GD32VW55x_RELEASE_V1.0.2/MSDK/cloud/alicloud/src/protocol/alcs\alcs_api.c **** 
  70:C:/Users/stapi/OneDrive/Desktop/GD32VW553/V1_MQTT_OK/GD32VW55X_Wifi_BLE_SDK/GD32VW55x_RELEASE_V1.0.2/MSDK/cloud/alicloud/src/protocol/alcs\alcs_api.c **** static session_item* get_session (struct list_head* sessions, AlcsDeviceKey* devKey)
  71:C:/Users/stapi/OneDrive/Desktop/GD32VW553/V1_MQTT_OK/GD32VW55X_Wifi_BLE_SDK/GD32VW55x_RELEASE_V1.0.2/MSDK/cloud/alicloud/src/protocol/alcs\alcs_api.c **** {
  72:C:/Users/stapi/OneDrive/Desktop/GD32VW553/V1_MQTT_OK/GD32VW55X_Wifi_BLE_SDK/GD32VW55x_RELEASE_V1.0.2/MSDK/cloud/alicloud/src/protocol/alcs\alcs_api.c ****     if (!sessions || !devKey || !devKey->pk || !devKey->dn) {
  73:C:/Users/stapi/OneDrive/Desktop/GD32VW553/V1_MQTT_OK/GD32VW55X_Wifi_BLE_SDK/GD32VW55x_RELEASE_V1.0.2/MSDK/cloud/alicloud/src/protocol/alcs\alcs_api.c ****         return NULL;
  74:C:/Users/stapi/OneDrive/Desktop/GD32VW553/V1_MQTT_OK/GD32VW55X_Wifi_BLE_SDK/GD32VW55x_RELEASE_V1.0.2/MSDK/cloud/alicloud/src/protocol/alcs\alcs_api.c ****     }
  75:C:/Users/stapi/OneDrive/Desktop/GD32VW553/V1_MQTT_OK/GD32VW55X_Wifi_BLE_SDK/GD32VW55x_RELEASE_V1.0.2/MSDK/cloud/alicloud/src/protocol/alcs\alcs_api.c **** 
  76:C:/Users/stapi/OneDrive/Desktop/GD32VW553/V1_MQTT_OK/GD32VW55X_Wifi_BLE_SDK/GD32VW55x_RELEASE_V1.0.2/MSDK/cloud/alicloud/src/protocol/alcs\alcs_api.c ****     char ck[PK_DN_CHECKSUM_LEN] = {0};
  77:C:/Users/stapi/OneDrive/Desktop/GD32VW553/V1_MQTT_OK/GD32VW55X_Wifi_BLE_SDK/GD32VW55x_RELEASE_V1.0.2/MSDK/cloud/alicloud/src/protocol/alcs\alcs_api.c ****     char path[100] = {0};
  78:C:/Users/stapi/OneDrive/Desktop/GD32VW553/V1_MQTT_OK/GD32VW55X_Wifi_BLE_SDK/GD32VW55x_RELEASE_V1.0.2/MSDK/cloud/alicloud/src/protocol/alcs\alcs_api.c ****     snprintf (path, sizeof(path), "%s%s", devKey->pk, devKey->dn);
  79:C:/Users/stapi/OneDrive/Desktop/GD32VW553/V1_MQTT_OK/GD32VW55X_Wifi_BLE_SDK/GD32VW55x_RELEASE_V1.0.2/MSDK/cloud/alicloud/src/protocol/alcs\alcs_api.c ****     CoAPPathMD5_sum (path, strlen(path), ck, PK_DN_CHECKSUM_LEN);
  80:C:/Users/stapi/OneDrive/Desktop/GD32VW553/V1_MQTT_OK/GD32VW55X_Wifi_BLE_SDK/GD32VW55x_RELEASE_V1.0.2/MSDK/cloud/alicloud/src/protocol/alcs\alcs_api.c **** 
  81:C:/Users/stapi/OneDrive/Desktop/GD32VW553/V1_MQTT_OK/GD32VW55X_Wifi_BLE_SDK/GD32VW55x_RELEASE_V1.0.2/MSDK/cloud/alicloud/src/protocol/alcs\alcs_api.c ****     return get_session_by_checksum (sessions, &devKey->addr, ck);
  82:C:/Users/stapi/OneDrive/Desktop/GD32VW553/V1_MQTT_OK/GD32VW55X_Wifi_BLE_SDK/GD32VW55x_RELEASE_V1.0.2/MSDK/cloud/alicloud/src/protocol/alcs\alcs_api.c **** }
  83:C:/Users/stapi/OneDrive/Desktop/GD32VW553/V1_MQTT_OK/GD32VW55X_Wifi_BLE_SDK/GD32VW55x_RELEASE_V1.0.2/MSDK/cloud/alicloud/src/protocol/alcs\alcs_api.c **** 
  84:C:/Users/stapi/OneDrive/Desktop/GD32VW553/V1_MQTT_OK/GD32VW55X_Wifi_BLE_SDK/GD32VW55x_RELEASE_V1.0.2/MSDK/cloud/alicloud/src/protocol/alcs\alcs_api.c **** void remove_session_safe (CoAPContext *ctx, struct list_head* sessions, AlcsDeviceKey* devKey)
  85:C:/Users/stapi/OneDrive/Desktop/GD32VW553/V1_MQTT_OK/GD32VW55X_Wifi_BLE_SDK/GD32VW55x_RELEASE_V1.0.2/MSDK/cloud/alicloud/src/protocol/alcs\alcs_api.c **** {
  86:C:/Users/stapi/OneDrive/Desktop/GD32VW553/V1_MQTT_OK/GD32VW55X_Wifi_BLE_SDK/GD32VW55x_RELEASE_V1.0.2/MSDK/cloud/alicloud/src/protocol/alcs\alcs_api.c ****     if (!sessions || !devKey || !devKey->pk || !devKey->dn) {
  87:C:/Users/stapi/OneDrive/Desktop/GD32VW553/V1_MQTT_OK/GD32VW55X_Wifi_BLE_SDK/GD32VW55x_RELEASE_V1.0.2/MSDK/cloud/alicloud/src/protocol/alcs\alcs_api.c ****         return;
  88:C:/Users/stapi/OneDrive/Desktop/GD32VW553/V1_MQTT_OK/GD32VW55X_Wifi_BLE_SDK/GD32VW55x_RELEASE_V1.0.2/MSDK/cloud/alicloud/src/protocol/alcs\alcs_api.c ****     }
  89:C:/Users/stapi/OneDrive/Desktop/GD32VW553/V1_MQTT_OK/GD32VW55X_Wifi_BLE_SDK/GD32VW55x_RELEASE_V1.0.2/MSDK/cloud/alicloud/src/protocol/alcs\alcs_api.c **** 
  90:C:/Users/stapi/OneDrive/Desktop/GD32VW553/V1_MQTT_OK/GD32VW55X_Wifi_BLE_SDK/GD32VW55x_RELEASE_V1.0.2/MSDK/cloud/alicloud/src/protocol/alcs\alcs_api.c ****     char ck[PK_DN_CHECKSUM_LEN] = {0};
  91:C:/Users/stapi/OneDrive/Desktop/GD32VW553/V1_MQTT_OK/GD32VW55X_Wifi_BLE_SDK/GD32VW55x_RELEASE_V1.0.2/MSDK/cloud/alicloud/src/protocol/alcs\alcs_api.c ****     char path[100] = {0};
  92:C:/Users/stapi/OneDrive/Desktop/GD32VW553/V1_MQTT_OK/GD32VW55X_Wifi_BLE_SDK/GD32VW55x_RELEASE_V1.0.2/MSDK/cloud/alicloud/src/protocol/alcs\alcs_api.c ****     snprintf (path, sizeof(path), "%s%s", devKey->pk, devKey->dn);
  93:C:/Users/stapi/OneDrive/Desktop/GD32VW553/V1_MQTT_OK/GD32VW55X_Wifi_BLE_SDK/GD32VW55x_RELEASE_V1.0.2/MSDK/cloud/alicloud/src/protocol/alcs\alcs_api.c ****     CoAPPathMD5_sum (path, strlen(path), ck, PK_DN_CHECKSUM_LEN);
  94:C:/Users/stapi/OneDrive/Desktop/GD32VW553/V1_MQTT_OK/GD32VW55X_Wifi_BLE_SDK/GD32VW55x_RELEASE_V1.0.2/MSDK/cloud/alicloud/src/protocol/alcs\alcs_api.c **** 
  95:C:/Users/stapi/OneDrive/Desktop/GD32VW553/V1_MQTT_OK/GD32VW55X_Wifi_BLE_SDK/GD32VW55x_RELEASE_V1.0.2/MSDK/cloud/alicloud/src/protocol/alcs\alcs_api.c ****     device_auth_list *dev_lst = get_device ();
  96:C:/Users/stapi/OneDrive/Desktop/GD32VW553/V1_MQTT_OK/GD32VW55X_Wifi_BLE_SDK/GD32VW55x_RELEASE_V1.0.2/MSDK/cloud/alicloud/src/protocol/alcs\alcs_api.c ****     HAL_MutexLock(dev_lst->list_mutex);
  97:C:/Users/stapi/OneDrive/Desktop/GD32VW553/V1_MQTT_OK/GD32VW55X_Wifi_BLE_SDK/GD32VW55x_RELEASE_V1.0.2/MSDK/cloud/alicloud/src/protocol/alcs\alcs_api.c **** 
  98:C:/Users/stapi/OneDrive/Desktop/GD32VW553/V1_MQTT_OK/GD32VW55X_Wifi_BLE_SDK/GD32VW55x_RELEASE_V1.0.2/MSDK/cloud/alicloud/src/protocol/alcs\alcs_api.c ****     session_item* node = NULL, *next = NULL;
  99:C:/Users/stapi/OneDrive/Desktop/GD32VW553/V1_MQTT_OK/GD32VW55X_Wifi_BLE_SDK/GD32VW55x_RELEASE_V1.0.2/MSDK/cloud/alicloud/src/protocol/alcs\alcs_api.c ****     list_for_each_entry_safe(node, next, sessions, lst, session_item) {
 100:C:/Users/stapi/OneDrive/Desktop/GD32VW553/V1_MQTT_OK/GD32VW55X_Wifi_BLE_SDK/GD32VW55x_RELEASE_V1.0.2/MSDK/cloud/alicloud/src/protocol/alcs\alcs_api.c ****         if (is_networkadd_same(&devKey->addr, &node->addr)
 101:C:/Users/stapi/OneDrive/Desktop/GD32VW553/V1_MQTT_OK/GD32VW55X_Wifi_BLE_SDK/GD32VW55x_RELEASE_V1.0.2/MSDK/cloud/alicloud/src/protocol/alcs\alcs_api.c ****                 && strncmp(node->pk_dn, ck, PK_DN_CHECKSUM_LEN) == 0)
 102:C:/Users/stapi/OneDrive/Desktop/GD32VW553/V1_MQTT_OK/GD32VW55X_Wifi_BLE_SDK/GD32VW55x_RELEASE_V1.0.2/MSDK/cloud/alicloud/src/protocol/alcs\alcs_api.c ****         {
 103:C:/Users/stapi/OneDrive/Desktop/GD32VW553/V1_MQTT_OK/GD32VW55X_Wifi_BLE_SDK/GD32VW55x_RELEASE_V1.0.2/MSDK/cloud/alicloud/src/protocol/alcs\alcs_api.c ****             remove_session (ctx, node);
 104:C:/Users/stapi/OneDrive/Desktop/GD32VW553/V1_MQTT_OK/GD32VW55X_Wifi_BLE_SDK/GD32VW55x_RELEASE_V1.0.2/MSDK/cloud/alicloud/src/protocol/alcs\alcs_api.c ****             break;
 105:C:/Users/stapi/OneDrive/Desktop/GD32VW553/V1_MQTT_OK/GD32VW55X_Wifi_BLE_SDK/GD32VW55x_RELEASE_V1.0.2/MSDK/cloud/alicloud/src/protocol/alcs\alcs_api.c ****         }
 106:C:/Users/stapi/OneDrive/Desktop/GD32VW553/V1_MQTT_OK/GD32VW55X_Wifi_BLE_SDK/GD32VW55x_RELEASE_V1.0.2/MSDK/cloud/alicloud/src/protocol/alcs\alcs_api.c ****     }
 107:C:/Users/stapi/OneDrive/Desktop/GD32VW553/V1_MQTT_OK/GD32VW55X_Wifi_BLE_SDK/GD32VW55x_RELEASE_V1.0.2/MSDK/cloud/alicloud/src/protocol/alcs\alcs_api.c ****     HAL_MutexUnlock(dev_lst->list_mutex);
 108:C:/Users/stapi/OneDrive/Desktop/GD32VW553/V1_MQTT_OK/GD32VW55X_Wifi_BLE_SDK/GD32VW55x_RELEASE_V1.0.2/MSDK/cloud/alicloud/src/protocol/alcs\alcs_api.c **** }
 109:C:/Users/stapi/OneDrive/Desktop/GD32VW553/V1_MQTT_OK/GD32VW55X_Wifi_BLE_SDK/GD32VW55x_RELEASE_V1.0.2/MSDK/cloud/alicloud/src/protocol/alcs\alcs_api.c **** 
 110:C:/Users/stapi/OneDrive/Desktop/GD32VW553/V1_MQTT_OK/GD32VW55X_Wifi_BLE_SDK/GD32VW55x_RELEASE_V1.0.2/MSDK/cloud/alicloud/src/protocol/alcs\alcs_api.c **** #ifdef ALCS_CLIENT_ENABLED
 111:C:/Users/stapi/OneDrive/Desktop/GD32VW553/V1_MQTT_OK/GD32VW55X_Wifi_BLE_SDK/GD32VW55x_RELEASE_V1.0.2/MSDK/cloud/alicloud/src/protocol/alcs\alcs_api.c **** session_item* get_ctl_session (CoAPContext *ctx, AlcsDeviceKey* devKey)
 112:C:/Users/stapi/OneDrive/Desktop/GD32VW553/V1_MQTT_OK/GD32VW55X_Wifi_BLE_SDK/GD32VW55x_RELEASE_V1.0.2/MSDK/cloud/alicloud/src/protocol/alcs\alcs_api.c **** {
 113:C:/Users/stapi/OneDrive/Desktop/GD32VW553/V1_MQTT_OK/GD32VW55X_Wifi_BLE_SDK/GD32VW55x_RELEASE_V1.0.2/MSDK/cloud/alicloud/src/protocol/alcs\alcs_api.c ****     struct list_head* sessions = get_ctl_session_list();
 114:C:/Users/stapi/OneDrive/Desktop/GD32VW553/V1_MQTT_OK/GD32VW55X_Wifi_BLE_SDK/GD32VW55x_RELEASE_V1.0.2/MSDK/cloud/alicloud/src/protocol/alcs\alcs_api.c ****     COAP_DEBUG("get_ctl_session");
 115:C:/Users/stapi/OneDrive/Desktop/GD32VW553/V1_MQTT_OK/GD32VW55X_Wifi_BLE_SDK/GD32VW55x_RELEASE_V1.0.2/MSDK/cloud/alicloud/src/protocol/alcs\alcs_api.c ****     return get_session (sessions, devKey);
 116:C:/Users/stapi/OneDrive/Desktop/GD32VW553/V1_MQTT_OK/GD32VW55X_Wifi_BLE_SDK/GD32VW55x_RELEASE_V1.0.2/MSDK/cloud/alicloud/src/protocol/alcs\alcs_api.c **** }
 117:C:/Users/stapi/OneDrive/Desktop/GD32VW553/V1_MQTT_OK/GD32VW55X_Wifi_BLE_SDK/GD32VW55x_RELEASE_V1.0.2/MSDK/cloud/alicloud/src/protocol/alcs\alcs_api.c **** 
 118:C:/Users/stapi/OneDrive/Desktop/GD32VW553/V1_MQTT_OK/GD32VW55X_Wifi_BLE_SDK/GD32VW55x_RELEASE_V1.0.2/MSDK/cloud/alicloud/src/protocol/alcs\alcs_api.c **** #endif
 119:C:/Users/stapi/OneDrive/Desktop/GD32VW553/V1_MQTT_OK/GD32VW55X_Wifi_BLE_SDK/GD32VW55x_RELEASE_V1.0.2/MSDK/cloud/alicloud/src/protocol/alcs\alcs_api.c **** 
 120:C:/Users/stapi/OneDrive/Desktop/GD32VW553/V1_MQTT_OK/GD32VW55X_Wifi_BLE_SDK/GD32VW55x_RELEASE_V1.0.2/MSDK/cloud/alicloud/src/protocol/alcs\alcs_api.c **** #ifdef ALCS_SERVER_ENABLED
 121:C:/Users/stapi/OneDrive/Desktop/GD32VW553/V1_MQTT_OK/GD32VW55X_Wifi_BLE_SDK/GD32VW55x_RELEASE_V1.0.2/MSDK/cloud/alicloud/src/protocol/alcs\alcs_api.c **** session_item* get_svr_session (AlcsDeviceKey* devKey)
 122:C:/Users/stapi/OneDrive/Desktop/GD32VW553/V1_MQTT_OK/GD32VW55X_Wifi_BLE_SDK/GD32VW55x_RELEASE_V1.0.2/MSDK/cloud/alicloud/src/protocol/alcs\alcs_api.c **** {
 123:C:/Users/stapi/OneDrive/Desktop/GD32VW553/V1_MQTT_OK/GD32VW55X_Wifi_BLE_SDK/GD32VW55x_RELEASE_V1.0.2/MSDK/cloud/alicloud/src/protocol/alcs\alcs_api.c ****     struct list_head* sessions = get_svr_session_list();
 124:C:/Users/stapi/OneDrive/Desktop/GD32VW553/V1_MQTT_OK/GD32VW55X_Wifi_BLE_SDK/GD32VW55x_RELEASE_V1.0.2/MSDK/cloud/alicloud/src/protocol/alcs\alcs_api.c ****     return get_session (sessions, devKey);
 125:C:/Users/stapi/OneDrive/Desktop/GD32VW553/V1_MQTT_OK/GD32VW55X_Wifi_BLE_SDK/GD32VW55x_RELEASE_V1.0.2/MSDK/cloud/alicloud/src/protocol/alcs\alcs_api.c **** }
 126:C:/Users/stapi/OneDrive/Desktop/GD32VW553/V1_MQTT_OK/GD32VW55X_Wifi_BLE_SDK/GD32VW55x_RELEASE_V1.0.2/MSDK/cloud/alicloud/src/protocol/alcs\alcs_api.c **** #endif
 127:C:/Users/stapi/OneDrive/Desktop/GD32VW553/V1_MQTT_OK/GD32VW55X_Wifi_BLE_SDK/GD32VW55x_RELEASE_V1.0.2/MSDK/cloud/alicloud/src/protocol/alcs\alcs_api.c **** 
 128:C:/Users/stapi/OneDrive/Desktop/GD32VW553/V1_MQTT_OK/GD32VW55X_Wifi_BLE_SDK/GD32VW55x_RELEASE_V1.0.2/MSDK/cloud/alicloud/src/protocol/alcs\alcs_api.c **** static session_item* get_auth_session (AlcsDeviceKey* devKey)
 129:C:/Users/stapi/OneDrive/Desktop/GD32VW553/V1_MQTT_OK/GD32VW55X_Wifi_BLE_SDK/GD32VW55x_RELEASE_V1.0.2/MSDK/cloud/alicloud/src/protocol/alcs\alcs_api.c **** {
 130:C:/Users/stapi/OneDrive/Desktop/GD32VW553/V1_MQTT_OK/GD32VW55X_Wifi_BLE_SDK/GD32VW55x_RELEASE_V1.0.2/MSDK/cloud/alicloud/src/protocol/alcs\alcs_api.c **** #ifdef ALCSCLIENT
 131:C:/Users/stapi/OneDrive/Desktop/GD32VW553/V1_MQTT_OK/GD32VW55X_Wifi_BLE_SDK/GD32VW55x_RELEASE_V1.0.2/MSDK/cloud/alicloud/src/protocol/alcs\alcs_api.c ****     session_item* node = get_ctl_session (devKey);
 132:C:/Users/stapi/OneDrive/Desktop/GD32VW553/V1_MQTT_OK/GD32VW55X_Wifi_BLE_SDK/GD32VW55x_RELEASE_V1.0.2/MSDK/cloud/alicloud/src/protocol/alcs\alcs_api.c ****     if (node && node->sessionId) {
 133:C:/Users/stapi/OneDrive/Desktop/GD32VW553/V1_MQTT_OK/GD32VW55X_Wifi_BLE_SDK/GD32VW55x_RELEASE_V1.0.2/MSDK/cloud/alicloud/src/protocol/alcs\alcs_api.c ****         return node;
 134:C:/Users/stapi/OneDrive/Desktop/GD32VW553/V1_MQTT_OK/GD32VW55X_Wifi_BLE_SDK/GD32VW55x_RELEASE_V1.0.2/MSDK/cloud/alicloud/src/protocol/alcs\alcs_api.c ****     }
 135:C:/Users/stapi/OneDrive/Desktop/GD32VW553/V1_MQTT_OK/GD32VW55X_Wifi_BLE_SDK/GD32VW55x_RELEASE_V1.0.2/MSDK/cloud/alicloud/src/protocol/alcs\alcs_api.c **** #endif
 136:C:/Users/stapi/OneDrive/Desktop/GD32VW553/V1_MQTT_OK/GD32VW55X_Wifi_BLE_SDK/GD32VW55x_RELEASE_V1.0.2/MSDK/cloud/alicloud/src/protocol/alcs\alcs_api.c **** #ifdef ALCSSERVER
 137:C:/Users/stapi/OneDrive/Desktop/GD32VW553/V1_MQTT_OK/GD32VW55X_Wifi_BLE_SDK/GD32VW55x_RELEASE_V1.0.2/MSDK/cloud/alicloud/src/protocol/alcs\alcs_api.c ****     session_item* node1 = get_svr_session (devKey);
 138:C:/Users/stapi/OneDrive/Desktop/GD32VW553/V1_MQTT_OK/GD32VW55X_Wifi_BLE_SDK/GD32VW55x_RELEASE_V1.0.2/MSDK/cloud/alicloud/src/protocol/alcs\alcs_api.c ****     if (node1 && node1->sessionId) {
 139:C:/Users/stapi/OneDrive/Desktop/GD32VW553/V1_MQTT_OK/GD32VW55X_Wifi_BLE_SDK/GD32VW55x_RELEASE_V1.0.2/MSDK/cloud/alicloud/src/protocol/alcs\alcs_api.c ****         return node1;
 140:C:/Users/stapi/OneDrive/Desktop/GD32VW553/V1_MQTT_OK/GD32VW55X_Wifi_BLE_SDK/GD32VW55x_RELEASE_V1.0.2/MSDK/cloud/alicloud/src/protocol/alcs\alcs_api.c ****     }
 141:C:/Users/stapi/OneDrive/Desktop/GD32VW553/V1_MQTT_OK/GD32VW55X_Wifi_BLE_SDK/GD32VW55x_RELEASE_V1.0.2/MSDK/cloud/alicloud/src/protocol/alcs\alcs_api.c **** #endif
 142:C:/Users/stapi/OneDrive/Desktop/GD32VW553/V1_MQTT_OK/GD32VW55X_Wifi_BLE_SDK/GD32VW55x_RELEASE_V1.0.2/MSDK/cloud/alicloud/src/protocol/alcs\alcs_api.c ****     return NULL;
 143:C:/Users/stapi/OneDrive/Desktop/GD32VW553/V1_MQTT_OK/GD32VW55X_Wifi_BLE_SDK/GD32VW55x_RELEASE_V1.0.2/MSDK/cloud/alicloud/src/protocol/alcs\alcs_api.c **** }
 144:C:/Users/stapi/OneDrive/Desktop/GD32VW553/V1_MQTT_OK/GD32VW55X_Wifi_BLE_SDK/GD32VW55x_RELEASE_V1.0.2/MSDK/cloud/alicloud/src/protocol/alcs\alcs_api.c **** 
 145:C:/Users/stapi/OneDrive/Desktop/GD32VW553/V1_MQTT_OK/GD32VW55X_Wifi_BLE_SDK/GD32VW55x_RELEASE_V1.0.2/MSDK/cloud/alicloud/src/protocol/alcs\alcs_api.c **** static session_item* get_session_by_id (int id)
 146:C:/Users/stapi/OneDrive/Desktop/GD32VW553/V1_MQTT_OK/GD32VW55X_Wifi_BLE_SDK/GD32VW55x_RELEASE_V1.0.2/MSDK/cloud/alicloud/src/protocol/alcs\alcs_api.c **** {
 147:C:/Users/stapi/OneDrive/Desktop/GD32VW553/V1_MQTT_OK/GD32VW55X_Wifi_BLE_SDK/GD32VW55x_RELEASE_V1.0.2/MSDK/cloud/alicloud/src/protocol/alcs\alcs_api.c ****     device_auth_list *dev_lst = get_device ();
 148:C:/Users/stapi/OneDrive/Desktop/GD32VW553/V1_MQTT_OK/GD32VW55X_Wifi_BLE_SDK/GD32VW55x_RELEASE_V1.0.2/MSDK/cloud/alicloud/src/protocol/alcs\alcs_api.c ****     HAL_MutexLock(dev_lst->list_mutex);
 149:C:/Users/stapi/OneDrive/Desktop/GD32VW553/V1_MQTT_OK/GD32VW55X_Wifi_BLE_SDK/GD32VW55x_RELEASE_V1.0.2/MSDK/cloud/alicloud/src/protocol/alcs\alcs_api.c ****     session_item *node, *next;
 150:C:/Users/stapi/OneDrive/Desktop/GD32VW553/V1_MQTT_OK/GD32VW55X_Wifi_BLE_SDK/GD32VW55x_RELEASE_V1.0.2/MSDK/cloud/alicloud/src/protocol/alcs\alcs_api.c ****     struct list_head* sessions = get_svr_session_list();
 151:C:/Users/stapi/OneDrive/Desktop/GD32VW553/V1_MQTT_OK/GD32VW55X_Wifi_BLE_SDK/GD32VW55x_RELEASE_V1.0.2/MSDK/cloud/alicloud/src/protocol/alcs\alcs_api.c ****     list_for_each_entry_safe(node, next, sessions, lst, session_item) {
 152:C:/Users/stapi/OneDrive/Desktop/GD32VW553/V1_MQTT_OK/GD32VW55X_Wifi_BLE_SDK/GD32VW55x_RELEASE_V1.0.2/MSDK/cloud/alicloud/src/protocol/alcs\alcs_api.c ****         if (node->sessionId == id) {
 153:C:/Users/stapi/OneDrive/Desktop/GD32VW553/V1_MQTT_OK/GD32VW55X_Wifi_BLE_SDK/GD32VW55x_RELEASE_V1.0.2/MSDK/cloud/alicloud/src/protocol/alcs\alcs_api.c ****             COAP_DEBUG("get_session_by_id, find");
 154:C:/Users/stapi/OneDrive/Desktop/GD32VW553/V1_MQTT_OK/GD32VW55X_Wifi_BLE_SDK/GD32VW55x_RELEASE_V1.0.2/MSDK/cloud/alicloud/src/protocol/alcs\alcs_api.c ****             HAL_MutexUnlock(dev_lst->list_mutex);
 155:C:/Users/stapi/OneDrive/Desktop/GD32VW553/V1_MQTT_OK/GD32VW55X_Wifi_BLE_SDK/GD32VW55x_RELEASE_V1.0.2/MSDK/cloud/alicloud/src/protocol/alcs\alcs_api.c ****             return node;
 156:C:/Users/stapi/OneDrive/Desktop/GD32VW553/V1_MQTT_OK/GD32VW55X_Wifi_BLE_SDK/GD32VW55x_RELEASE_V1.0.2/MSDK/cloud/alicloud/src/protocol/alcs\alcs_api.c ****         }
 157:C:/Users/stapi/OneDrive/Desktop/GD32VW553/V1_MQTT_OK/GD32VW55X_Wifi_BLE_SDK/GD32VW55x_RELEASE_V1.0.2/MSDK/cloud/alicloud/src/protocol/alcs\alcs_api.c ****     }
 158:C:/Users/stapi/OneDrive/Desktop/GD32VW553/V1_MQTT_OK/GD32VW55X_Wifi_BLE_SDK/GD32VW55x_RELEASE_V1.0.2/MSDK/cloud/alicloud/src/protocol/alcs\alcs_api.c ****     HAL_MutexUnlock(dev_lst->list_mutex);
 159:C:/Users/stapi/OneDrive/Desktop/GD32VW553/V1_MQTT_OK/GD32VW55X_Wifi_BLE_SDK/GD32VW55x_RELEASE_V1.0.2/MSDK/cloud/alicloud/src/protocol/alcs\alcs_api.c ****     
 160:C:/Users/stapi/OneDrive/Desktop/GD32VW553/V1_MQTT_OK/GD32VW55X_Wifi_BLE_SDK/GD32VW55x_RELEASE_V1.0.2/MSDK/cloud/alicloud/src/protocol/alcs\alcs_api.c ****     return NULL;
 161:C:/Users/stapi/OneDrive/Desktop/GD32VW553/V1_MQTT_OK/GD32VW55X_Wifi_BLE_SDK/GD32VW55x_RELEASE_V1.0.2/MSDK/cloud/alicloud/src/protocol/alcs\alcs_api.c **** }
 162:C:/Users/stapi/OneDrive/Desktop/GD32VW553/V1_MQTT_OK/GD32VW55X_Wifi_BLE_SDK/GD32VW55x_RELEASE_V1.0.2/MSDK/cloud/alicloud/src/protocol/alcs\alcs_api.c **** 
 163:C:/Users/stapi/OneDrive/Desktop/GD32VW553/V1_MQTT_OK/GD32VW55X_Wifi_BLE_SDK/GD32VW55x_RELEASE_V1.0.2/MSDK/cloud/alicloud/src/protocol/alcs\alcs_api.c **** static request_item* find_request_by_req (NetworkAddr* addr, unsigned char* token, int tokenlen)
 164:C:/Users/stapi/OneDrive/Desktop/GD32VW553/V1_MQTT_OK/GD32VW55X_Wifi_BLE_SDK/GD32VW55x_RELEASE_V1.0.2/MSDK/cloud/alicloud/src/protocol/alcs\alcs_api.c **** {
 165:C:/Users/stapi/OneDrive/Desktop/GD32VW553/V1_MQTT_OK/GD32VW55X_Wifi_BLE_SDK/GD32VW55x_RELEASE_V1.0.2/MSDK/cloud/alicloud/src/protocol/alcs\alcs_api.c ****     device_auth_list *dev_lst = get_device ();
 166:C:/Users/stapi/OneDrive/Desktop/GD32VW553/V1_MQTT_OK/GD32VW55X_Wifi_BLE_SDK/GD32VW55x_RELEASE_V1.0.2/MSDK/cloud/alicloud/src/protocol/alcs\alcs_api.c ****     HAL_MutexLock(dev_lst->list_mutex);
 167:C:/Users/stapi/OneDrive/Desktop/GD32VW553/V1_MQTT_OK/GD32VW55X_Wifi_BLE_SDK/GD32VW55x_RELEASE_V1.0.2/MSDK/cloud/alicloud/src/protocol/alcs\alcs_api.c **** 
 168:C:/Users/stapi/OneDrive/Desktop/GD32VW553/V1_MQTT_OK/GD32VW55X_Wifi_BLE_SDK/GD32VW55x_RELEASE_V1.0.2/MSDK/cloud/alicloud/src/protocol/alcs\alcs_api.c ****     request_item *node = NULL, *next = NULL;
 169:C:/Users/stapi/OneDrive/Desktop/GD32VW553/V1_MQTT_OK/GD32VW55X_Wifi_BLE_SDK/GD32VW55x_RELEASE_V1.0.2/MSDK/cloud/alicloud/src/protocol/alcs\alcs_api.c ****     list_for_each_entry_safe(node, next, &dev_lst->lst_requests, lst, request_item) {
 170:C:/Users/stapi/OneDrive/Desktop/GD32VW553/V1_MQTT_OK/GD32VW55X_Wifi_BLE_SDK/GD32VW55x_RELEASE_V1.0.2/MSDK/cloud/alicloud/src/protocol/alcs\alcs_api.c ****         if (is_networkadd_same(addr, &node->addr)
 171:C:/Users/stapi/OneDrive/Desktop/GD32VW553/V1_MQTT_OK/GD32VW55X_Wifi_BLE_SDK/GD32VW55x_RELEASE_V1.0.2/MSDK/cloud/alicloud/src/protocol/alcs\alcs_api.c ****                 && memcmp(node->token, token, tokenlen) == 0)
 172:C:/Users/stapi/OneDrive/Desktop/GD32VW553/V1_MQTT_OK/GD32VW55X_Wifi_BLE_SDK/GD32VW55x_RELEASE_V1.0.2/MSDK/cloud/alicloud/src/protocol/alcs\alcs_api.c ****         {
 173:C:/Users/stapi/OneDrive/Desktop/GD32VW553/V1_MQTT_OK/GD32VW55X_Wifi_BLE_SDK/GD32VW55x_RELEASE_V1.0.2/MSDK/cloud/alicloud/src/protocol/alcs\alcs_api.c ****             COAP_DEBUG("find request, id:%d, isgroup:%d", node->sessionId, node->isGroup);
 174:C:/Users/stapi/OneDrive/Desktop/GD32VW553/V1_MQTT_OK/GD32VW55X_Wifi_BLE_SDK/GD32VW55x_RELEASE_V1.0.2/MSDK/cloud/alicloud/src/protocol/alcs\alcs_api.c ****             HAL_MutexUnlock(dev_lst->list_mutex);
 175:C:/Users/stapi/OneDrive/Desktop/GD32VW553/V1_MQTT_OK/GD32VW55X_Wifi_BLE_SDK/GD32VW55x_RELEASE_V1.0.2/MSDK/cloud/alicloud/src/protocol/alcs\alcs_api.c ****             return node;
 176:C:/Users/stapi/OneDrive/Desktop/GD32VW553/V1_MQTT_OK/GD32VW55X_Wifi_BLE_SDK/GD32VW55x_RELEASE_V1.0.2/MSDK/cloud/alicloud/src/protocol/alcs\alcs_api.c ****         }
 177:C:/Users/stapi/OneDrive/Desktop/GD32VW553/V1_MQTT_OK/GD32VW55X_Wifi_BLE_SDK/GD32VW55x_RELEASE_V1.0.2/MSDK/cloud/alicloud/src/protocol/alcs\alcs_api.c ****     }
 178:C:/Users/stapi/OneDrive/Desktop/GD32VW553/V1_MQTT_OK/GD32VW55X_Wifi_BLE_SDK/GD32VW55x_RELEASE_V1.0.2/MSDK/cloud/alicloud/src/protocol/alcs\alcs_api.c ****     HAL_MutexUnlock(dev_lst->list_mutex);
 179:C:/Users/stapi/OneDrive/Desktop/GD32VW553/V1_MQTT_OK/GD32VW55X_Wifi_BLE_SDK/GD32VW55x_RELEASE_V1.0.2/MSDK/cloud/alicloud/src/protocol/alcs\alcs_api.c ****     return NULL;
 180:C:/Users/stapi/OneDrive/Desktop/GD32VW553/V1_MQTT_OK/GD32VW55X_Wifi_BLE_SDK/GD32VW55x_RELEASE_V1.0.2/MSDK/cloud/alicloud/src/protocol/alcs\alcs_api.c **** }
 181:C:/Users/stapi/OneDrive/Desktop/GD32VW553/V1_MQTT_OK/GD32VW55X_Wifi_BLE_SDK/GD32VW55x_RELEASE_V1.0.2/MSDK/cloud/alicloud/src/protocol/alcs\alcs_api.c **** 
 182:C:/Users/stapi/OneDrive/Desktop/GD32VW553/V1_MQTT_OK/GD32VW55X_Wifi_BLE_SDK/GD32VW55x_RELEASE_V1.0.2/MSDK/cloud/alicloud/src/protocol/alcs\alcs_api.c **** static session_item* get_auth_session_by_checksum (NetworkAddr* addr, char ck[])
 183:C:/Users/stapi/OneDrive/Desktop/GD32VW553/V1_MQTT_OK/GD32VW55X_Wifi_BLE_SDK/GD32VW55x_RELEASE_V1.0.2/MSDK/cloud/alicloud/src/protocol/alcs\alcs_api.c **** {
 184:C:/Users/stapi/OneDrive/Desktop/GD32VW553/V1_MQTT_OK/GD32VW55X_Wifi_BLE_SDK/GD32VW55x_RELEASE_V1.0.2/MSDK/cloud/alicloud/src/protocol/alcs\alcs_api.c **** #ifdef ALCS_CLIENT_ENABLED
 185:C:/Users/stapi/OneDrive/Desktop/GD32VW553/V1_MQTT_OK/GD32VW55X_Wifi_BLE_SDK/GD32VW55x_RELEASE_V1.0.2/MSDK/cloud/alicloud/src/protocol/alcs\alcs_api.c ****     struct list_head* sessions = get_ctl_session_list();
 186:C:/Users/stapi/OneDrive/Desktop/GD32VW553/V1_MQTT_OK/GD32VW55X_Wifi_BLE_SDK/GD32VW55x_RELEASE_V1.0.2/MSDK/cloud/alicloud/src/protocol/alcs\alcs_api.c ****     session_item* node = get_session_by_checksum (sessions, addr, ck);
 187:C:/Users/stapi/OneDrive/Desktop/GD32VW553/V1_MQTT_OK/GD32VW55X_Wifi_BLE_SDK/GD32VW55x_RELEASE_V1.0.2/MSDK/cloud/alicloud/src/protocol/alcs\alcs_api.c ****     if (node && node->sessionId) {
 188:C:/Users/stapi/OneDrive/Desktop/GD32VW553/V1_MQTT_OK/GD32VW55X_Wifi_BLE_SDK/GD32VW55x_RELEASE_V1.0.2/MSDK/cloud/alicloud/src/protocol/alcs\alcs_api.c ****         return node;
 189:C:/Users/stapi/OneDrive/Desktop/GD32VW553/V1_MQTT_OK/GD32VW55X_Wifi_BLE_SDK/GD32VW55x_RELEASE_V1.0.2/MSDK/cloud/alicloud/src/protocol/alcs\alcs_api.c ****     }
 190:C:/Users/stapi/OneDrive/Desktop/GD32VW553/V1_MQTT_OK/GD32VW55X_Wifi_BLE_SDK/GD32VW55x_RELEASE_V1.0.2/MSDK/cloud/alicloud/src/protocol/alcs\alcs_api.c **** #endif
 191:C:/Users/stapi/OneDrive/Desktop/GD32VW553/V1_MQTT_OK/GD32VW55X_Wifi_BLE_SDK/GD32VW55x_RELEASE_V1.0.2/MSDK/cloud/alicloud/src/protocol/alcs\alcs_api.c **** #ifdef ALCS_SERVER_ENABLED
 192:C:/Users/stapi/OneDrive/Desktop/GD32VW553/V1_MQTT_OK/GD32VW55X_Wifi_BLE_SDK/GD32VW55x_RELEASE_V1.0.2/MSDK/cloud/alicloud/src/protocol/alcs\alcs_api.c ****     struct list_head* sessions1 = get_svr_session_list();
 193:C:/Users/stapi/OneDrive/Desktop/GD32VW553/V1_MQTT_OK/GD32VW55X_Wifi_BLE_SDK/GD32VW55x_RELEASE_V1.0.2/MSDK/cloud/alicloud/src/protocol/alcs\alcs_api.c ****     session_item* node1 = get_session_by_checksum (sessions1, addr, ck);
 194:C:/Users/stapi/OneDrive/Desktop/GD32VW553/V1_MQTT_OK/GD32VW55X_Wifi_BLE_SDK/GD32VW55x_RELEASE_V1.0.2/MSDK/cloud/alicloud/src/protocol/alcs\alcs_api.c ****     if (node1 && node1->sessionId) {
 195:C:/Users/stapi/OneDrive/Desktop/GD32VW553/V1_MQTT_OK/GD32VW55X_Wifi_BLE_SDK/GD32VW55x_RELEASE_V1.0.2/MSDK/cloud/alicloud/src/protocol/alcs\alcs_api.c ****         return node1;
 196:C:/Users/stapi/OneDrive/Desktop/GD32VW553/V1_MQTT_OK/GD32VW55X_Wifi_BLE_SDK/GD32VW55x_RELEASE_V1.0.2/MSDK/cloud/alicloud/src/protocol/alcs\alcs_api.c ****     }
 197:C:/Users/stapi/OneDrive/Desktop/GD32VW553/V1_MQTT_OK/GD32VW55X_Wifi_BLE_SDK/GD32VW55x_RELEASE_V1.0.2/MSDK/cloud/alicloud/src/protocol/alcs\alcs_api.c **** #endif
 198:C:/Users/stapi/OneDrive/Desktop/GD32VW553/V1_MQTT_OK/GD32VW55X_Wifi_BLE_SDK/GD32VW55x_RELEASE_V1.0.2/MSDK/cloud/alicloud/src/protocol/alcs\alcs_api.c **** 
 199:C:/Users/stapi/OneDrive/Desktop/GD32VW553/V1_MQTT_OK/GD32VW55X_Wifi_BLE_SDK/GD32VW55x_RELEASE_V1.0.2/MSDK/cloud/alicloud/src/protocol/alcs\alcs_api.c ****     return NULL;
 200:C:/Users/stapi/OneDrive/Desktop/GD32VW553/V1_MQTT_OK/GD32VW55X_Wifi_BLE_SDK/GD32VW55x_RELEASE_V1.0.2/MSDK/cloud/alicloud/src/protocol/alcs\alcs_api.c **** }
 201:C:/Users/stapi/OneDrive/Desktop/GD32VW553/V1_MQTT_OK/GD32VW55X_Wifi_BLE_SDK/GD32VW55x_RELEASE_V1.0.2/MSDK/cloud/alicloud/src/protocol/alcs\alcs_api.c **** 
 202:C:/Users/stapi/OneDrive/Desktop/GD32VW553/V1_MQTT_OK/GD32VW55X_Wifi_BLE_SDK/GD32VW55x_RELEASE_V1.0.2/MSDK/cloud/alicloud/src/protocol/alcs\alcs_api.c **** void gen_random_key(unsigned char random[], int len)
 203:C:/Users/stapi/OneDrive/Desktop/GD32VW553/V1_MQTT_OK/GD32VW55X_Wifi_BLE_SDK/GD32VW55x_RELEASE_V1.0.2/MSDK/cloud/alicloud/src/protocol/alcs\alcs_api.c **** {
 238              		.loc 1 203 1 is_stmt 1
 239              		.cfi_startproc
 240              	.LVL23:
 241 0000 17030000 		call	t0,__riscv_save_9
 241      E7020300 
 242              		.cfi_offset 24, -40
 243              		.cfi_offset 23, -36
 244              		.cfi_offset 22, -32
 245              		.cfi_offset 21, -28
 246              		.cfi_offset 20, -24
 247              		.cfi_offset 19, -20
 248              		.cfi_offset 18, -16
 249              		.cfi_offset 9, -12
 250              		.cfi_offset 8, -8
 251              		.cfi_offset 1, -4
 252              		.cfi_def_cfa_offset 48
 204:C:/Users/stapi/OneDrive/Desktop/GD32VW553/V1_MQTT_OK/GD32VW55X_Wifi_BLE_SDK/GD32VW55x_RELEASE_V1.0.2/MSDK/cloud/alicloud/src/protocol/alcs\alcs_api.c ****     int i = 0, flag = 0;
 253              		.loc 1 204 5
 254              	.LVL24:
 205:C:/Users/stapi/OneDrive/Desktop/GD32VW553/V1_MQTT_OK/GD32VW55X_Wifi_BLE_SDK/GD32VW55x_RELEASE_V1.0.2/MSDK/cloud/alicloud/src/protocol/alcs\alcs_api.c **** 
 206:C:/Users/stapi/OneDrive/Desktop/GD32VW553/V1_MQTT_OK/GD32VW55X_Wifi_BLE_SDK/GD32VW55x_RELEASE_V1.0.2/MSDK/cloud/alicloud/src/protocol/alcs\alcs_api.c ****     memset(random, 0x00, len);
 255              		.loc 1 206 5
 256 0008 2E86     		mv	a2,a1
 203:C:/Users/stapi/OneDrive/Desktop/GD32VW553/V1_MQTT_OK/GD32VW55X_Wifi_BLE_SDK/GD32VW55x_RELEASE_V1.0.2/MSDK/cloud/alicloud/src/protocol/alcs\alcs_api.c ****     int i = 0, flag = 0;
 257              		.loc 1 203 1 is_stmt 0
 258 000a AE84     		mv	s1,a1
 259              		.loc 1 206 5
 260 000c 8145     		li	a1,0
 261              	.LVL25:
 203:C:/Users/stapi/OneDrive/Desktop/GD32VW553/V1_MQTT_OK/GD32VW55X_Wifi_BLE_SDK/GD32VW55x_RELEASE_V1.0.2/MSDK/cloud/alicloud/src/protocol/alcs\alcs_api.c ****     int i = 0, flag = 0;
 262              		.loc 1 203 1
 263 000e 2A89     		mv	s2,a0
 264              		.loc 1 206 5
 265 0010 97000000 		call	memset
 265      E7800000 
 266              	.LVL26:
 207:C:/Users/stapi/OneDrive/Desktop/GD32VW553/V1_MQTT_OK/GD32VW55X_Wifi_BLE_SDK/GD32VW55x_RELEASE_V1.0.2/MSDK/cloud/alicloud/src/protocol/alcs\alcs_api.c ****     srand((unsigned)time(NULL));
 267              		.loc 1 207 5 is_stmt 1
 268              		.loc 1 207 21 is_stmt 0
 269 0018 0145     		li	a0,0
 270 001a 97000000 		call	time
 270      E7800000 
 271              	.LVL27:
 272              		.loc 1 207 5
 273 0022 97000000 		call	srand
 273      E7800000 
 274              	.LVL28:
 208:C:/Users/stapi/OneDrive/Desktop/GD32VW553/V1_MQTT_OK/GD32VW55X_Wifi_BLE_SDK/GD32VW55x_RELEASE_V1.0.2/MSDK/cloud/alicloud/src/protocol/alcs\alcs_api.c **** 
 209:C:/Users/stapi/OneDrive/Desktop/GD32VW553/V1_MQTT_OK/GD32VW55X_Wifi_BLE_SDK/GD32VW55x_RELEASE_V1.0.2/MSDK/cloud/alicloud/src/protocol/alcs\alcs_api.c ****     for(i=0; i<len - 1; i++){
 275              		.loc 1 209 5 is_stmt 1
 276 002a 4A84     		mv	s0,s2
 277              		.loc 1 209 20 is_stmt 0
 278 002c FD14     		addi	s1,s1,-1
 279              	.LVL29:
 210:C:/Users/stapi/OneDrive/Desktop/GD32VW553/V1_MQTT_OK/GD32VW55X_Wifi_BLE_SDK/GD32VW55x_RELEASE_V1.0.2/MSDK/cloud/alicloud/src/protocol/alcs\alcs_api.c ****         flag = rand() % 3;
 280              		.loc 1 210 14
 281 002e 0D4A     		li	s4,3
 211:C:/Users/stapi/OneDrive/Desktop/GD32VW553/V1_MQTT_OK/GD32VW55X_Wifi_BLE_SDK/GD32VW55x_RELEASE_V1.0.2/MSDK/cloud/alicloud/src/protocol/alcs\alcs_api.c ****         switch (flag){
 282              		.loc 1 211 9
 283 0030 854A     		li	s5,1
 212:C:/Users/stapi/OneDrive/Desktop/GD32VW553/V1_MQTT_OK/GD32VW55X_Wifi_BLE_SDK/GD32VW55x_RELEASE_V1.0.2/MSDK/cloud/alicloud/src/protocol/alcs\alcs_api.c ****             case 0:
 213:C:/Users/stapi/OneDrive/Desktop/GD32VW553/V1_MQTT_OK/GD32VW55X_Wifi_BLE_SDK/GD32VW55x_RELEASE_V1.0.2/MSDK/cloud/alicloud/src/protocol/alcs\alcs_api.c ****                 random[i] = 'A' + rand() % 26;
 214:C:/Users/stapi/OneDrive/Desktop/GD32VW553/V1_MQTT_OK/GD32VW55X_Wifi_BLE_SDK/GD32VW55x_RELEASE_V1.0.2/MSDK/cloud/alicloud/src/protocol/alcs\alcs_api.c ****                 break;
 215:C:/Users/stapi/OneDrive/Desktop/GD32VW553/V1_MQTT_OK/GD32VW55X_Wifi_BLE_SDK/GD32VW55x_RELEASE_V1.0.2/MSDK/cloud/alicloud/src/protocol/alcs\alcs_api.c ****             case 1:
 216:C:/Users/stapi/OneDrive/Desktop/GD32VW553/V1_MQTT_OK/GD32VW55X_Wifi_BLE_SDK/GD32VW55x_RELEASE_V1.0.2/MSDK/cloud/alicloud/src/protocol/alcs\alcs_api.c ****                 random[i] = 'a' + rand() % 26;                break;
 284              		.loc 1 216 42
 285 0032 E949     		li	s3,26
 211:C:/Users/stapi/OneDrive/Desktop/GD32VW553/V1_MQTT_OK/GD32VW55X_Wifi_BLE_SDK/GD32VW55x_RELEASE_V1.0.2/MSDK/cloud/alicloud/src/protocol/alcs\alcs_api.c ****         switch (flag){
 286              		.loc 1 211 9
 287 0034 094B     		li	s6,2
 217:C:/Users/stapi/OneDrive/Desktop/GD32VW553/V1_MQTT_OK/GD32VW55X_Wifi_BLE_SDK/GD32VW55x_RELEASE_V1.0.2/MSDK/cloud/alicloud/src/protocol/alcs\alcs_api.c ****             case 2:
 218:C:/Users/stapi/OneDrive/Desktop/GD32VW553/V1_MQTT_OK/GD32VW55X_Wifi_BLE_SDK/GD32VW55x_RELEASE_V1.0.2/MSDK/cloud/alicloud/src/protocol/alcs\alcs_api.c ****                 random[i] = '0' + rand() % 10;
 288              		.loc 1 218 42
 289 0036 A94B     		li	s7,10
 219:C:/Users/stapi/OneDrive/Desktop/GD32VW553/V1_MQTT_OK/GD32VW55X_Wifi_BLE_SDK/GD32VW55x_RELEASE_V1.0.2/MSDK/cloud/alicloud/src/protocol/alcs\alcs_api.c ****                 break;
 220:C:/Users/stapi/OneDrive/Desktop/GD32VW553/V1_MQTT_OK/GD32VW55X_Wifi_BLE_SDK/GD32VW55x_RELEASE_V1.0.2/MSDK/cloud/alicloud/src/protocol/alcs\alcs_api.c ****             default:
 221:C:/Users/stapi/OneDrive/Desktop/GD32VW553/V1_MQTT_OK/GD32VW55X_Wifi_BLE_SDK/GD32VW55x_RELEASE_V1.0.2/MSDK/cloud/alicloud/src/protocol/alcs\alcs_api.c ****                 random[i] = 'x';
 290              		.loc 1 221 27
 291 0038 130C8007 		li	s8,120
 292              	.LVL30:
 293              	.L19:
 209:C:/Users/stapi/OneDrive/Desktop/GD32VW553/V1_MQTT_OK/GD32VW55X_Wifi_BLE_SDK/GD32VW55x_RELEASE_V1.0.2/MSDK/cloud/alicloud/src/protocol/alcs\alcs_api.c ****         flag = rand() % 3;
 294              		.loc 1 209 14 is_stmt 1 discriminator 1
 209:C:/Users/stapi/OneDrive/Desktop/GD32VW553/V1_MQTT_OK/GD32VW55X_Wifi_BLE_SDK/GD32VW55x_RELEASE_V1.0.2/MSDK/cloud/alicloud/src/protocol/alcs\alcs_api.c ****         flag = rand() % 3;
 295              		.loc 1 209 5 is_stmt 0 discriminator 1
 296 003c B3072441 		sub	a5,s0,s2
 297 0040 63C69700 		blt	a5,s1,.L24
 222:C:/Users/stapi/OneDrive/Desktop/GD32VW553/V1_MQTT_OK/GD32VW55X_Wifi_BLE_SDK/GD32VW55x_RELEASE_V1.0.2/MSDK/cloud/alicloud/src/protocol/alcs\alcs_api.c ****                 break;
 223:C:/Users/stapi/OneDrive/Desktop/GD32VW553/V1_MQTT_OK/GD32VW55X_Wifi_BLE_SDK/GD32VW55x_RELEASE_V1.0.2/MSDK/cloud/alicloud/src/protocol/alcs\alcs_api.c ****         }
 224:C:/Users/stapi/OneDrive/Desktop/GD32VW553/V1_MQTT_OK/GD32VW55X_Wifi_BLE_SDK/GD32VW55x_RELEASE_V1.0.2/MSDK/cloud/alicloud/src/protocol/alcs\alcs_api.c ****     }
 225:C:/Users/stapi/OneDrive/Desktop/GD32VW553/V1_MQTT_OK/GD32VW55X_Wifi_BLE_SDK/GD32VW55x_RELEASE_V1.0.2/MSDK/cloud/alicloud/src/protocol/alcs\alcs_api.c **** }
 298              		.loc 1 225 1
 299 0044 17030000 		tail	__riscv_restore_9
 299      67000300 
 300              		.cfi_remember_state
 301              		.cfi_restore 24
 302              		.cfi_restore 23
 303              		.cfi_restore 22
 304              		.cfi_restore 21
 305              		.cfi_restore 20
 306              		.cfi_restore 19
 307              		.cfi_restore 18
 308              		.cfi_restore 9
 309              		.cfi_restore 8
 310              		.cfi_restore 1
 311              		.cfi_def_cfa_offset 0
 312              	.L24:
 313              		.cfi_restore_state
 210:C:/Users/stapi/OneDrive/Desktop/GD32VW553/V1_MQTT_OK/GD32VW55X_Wifi_BLE_SDK/GD32VW55x_RELEASE_V1.0.2/MSDK/cloud/alicloud/src/protocol/alcs\alcs_api.c ****         switch (flag){
 314              		.loc 1 210 9 is_stmt 1
 210:C:/Users/stapi/OneDrive/Desktop/GD32VW553/V1_MQTT_OK/GD32VW55X_Wifi_BLE_SDK/GD32VW55x_RELEASE_V1.0.2/MSDK/cloud/alicloud/src/protocol/alcs\alcs_api.c ****         switch (flag){
 315              		.loc 1 210 16 is_stmt 0
 316 004c 97000000 		call	rand
 316      E7800000 
 317              	.LVL31:
 210:C:/Users/stapi/OneDrive/Desktop/GD32VW553/V1_MQTT_OK/GD32VW55X_Wifi_BLE_SDK/GD32VW55x_RELEASE_V1.0.2/MSDK/cloud/alicloud/src/protocol/alcs\alcs_api.c ****         switch (flag){
 318              		.loc 1 210 14
 319 0054 33654503 		rem	a0,a0,s4
 320              	.LVL32:
 211:C:/Users/stapi/OneDrive/Desktop/GD32VW553/V1_MQTT_OK/GD32VW55X_Wifi_BLE_SDK/GD32VW55x_RELEASE_V1.0.2/MSDK/cloud/alicloud/src/protocol/alcs\alcs_api.c ****             case 0:
 321              		.loc 1 211 9 is_stmt 1
 322 0058 63015503 		beq	a0,s5,.L20
 323 005c 63086503 		beq	a0,s6,.L21
 324 0060 29E1     		bne	a0,zero,.L22
 213:C:/Users/stapi/OneDrive/Desktop/GD32VW553/V1_MQTT_OK/GD32VW55X_Wifi_BLE_SDK/GD32VW55x_RELEASE_V1.0.2/MSDK/cloud/alicloud/src/protocol/alcs\alcs_api.c ****                 break;
 325              		.loc 1 213 17
 213:C:/Users/stapi/OneDrive/Desktop/GD32VW553/V1_MQTT_OK/GD32VW55X_Wifi_BLE_SDK/GD32VW55x_RELEASE_V1.0.2/MSDK/cloud/alicloud/src/protocol/alcs\alcs_api.c ****                 break;
 326              		.loc 1 213 35 is_stmt 0
 327 0062 97000000 		call	rand
 327      E7800000 
 328              	.LVL33:
 213:C:/Users/stapi/OneDrive/Desktop/GD32VW553/V1_MQTT_OK/GD32VW55X_Wifi_BLE_SDK/GD32VW55x_RELEASE_V1.0.2/MSDK/cloud/alicloud/src/protocol/alcs\alcs_api.c ****                 break;
 329              		.loc 1 213 42
 330 006a 33653503 		rem	a0,a0,s3
 213:C:/Users/stapi/OneDrive/Desktop/GD32VW553/V1_MQTT_OK/GD32VW55X_Wifi_BLE_SDK/GD32VW55x_RELEASE_V1.0.2/MSDK/cloud/alicloud/src/protocol/alcs\alcs_api.c ****                 break;
 331              		.loc 1 213 33
 332 006e 13051504 		addi	a0,a0,65
 333              	.L26:
 216:C:/Users/stapi/OneDrive/Desktop/GD32VW553/V1_MQTT_OK/GD32VW55X_Wifi_BLE_SDK/GD32VW55x_RELEASE_V1.0.2/MSDK/cloud/alicloud/src/protocol/alcs\alcs_api.c ****             case 2:
 334              		.loc 1 216 27
 335 0072 2300A400 		sb	a0,0(s0)
 216:C:/Users/stapi/OneDrive/Desktop/GD32VW553/V1_MQTT_OK/GD32VW55X_Wifi_BLE_SDK/GD32VW55x_RELEASE_V1.0.2/MSDK/cloud/alicloud/src/protocol/alcs\alcs_api.c ****             case 2:
 336              		.loc 1 216 63 is_stmt 1
 337              	.L23:
 209:C:/Users/stapi/OneDrive/Desktop/GD32VW553/V1_MQTT_OK/GD32VW55X_Wifi_BLE_SDK/GD32VW55x_RELEASE_V1.0.2/MSDK/cloud/alicloud/src/protocol/alcs\alcs_api.c ****         flag = rand() % 3;
 338              		.loc 1 209 25 discriminator 2
 339              	.LVL34:
 340 0076 0504     		addi	s0,s0,1
 341              	.LVL35:
 342 0078 D1B7     		j	.L19
 343              	.LVL36:
 344              	.L20:
 216:C:/Users/stapi/OneDrive/Desktop/GD32VW553/V1_MQTT_OK/GD32VW55X_Wifi_BLE_SDK/GD32VW55x_RELEASE_V1.0.2/MSDK/cloud/alicloud/src/protocol/alcs\alcs_api.c ****             case 2:
 345              		.loc 1 216 17
 216:C:/Users/stapi/OneDrive/Desktop/GD32VW553/V1_MQTT_OK/GD32VW55X_Wifi_BLE_SDK/GD32VW55x_RELEASE_V1.0.2/MSDK/cloud/alicloud/src/protocol/alcs\alcs_api.c ****             case 2:
 346              		.loc 1 216 35 is_stmt 0
 347 007a 97000000 		call	rand
 347      E7800000 
 348              	.LVL37:
 216:C:/Users/stapi/OneDrive/Desktop/GD32VW553/V1_MQTT_OK/GD32VW55X_Wifi_BLE_SDK/GD32VW55x_RELEASE_V1.0.2/MSDK/cloud/alicloud/src/protocol/alcs\alcs_api.c ****             case 2:
 349              		.loc 1 216 42
 350 0082 33653503 		rem	a0,a0,s3
 216:C:/Users/stapi/OneDrive/Desktop/GD32VW553/V1_MQTT_OK/GD32VW55X_Wifi_BLE_SDK/GD32VW55x_RELEASE_V1.0.2/MSDK/cloud/alicloud/src/protocol/alcs\alcs_api.c ****             case 2:
 351              		.loc 1 216 33
 352 0086 13051506 		addi	a0,a0,97
 353 008a E5B7     		j	.L26
 354              	.LVL38:
 355              	.L21:
 218:C:/Users/stapi/OneDrive/Desktop/GD32VW553/V1_MQTT_OK/GD32VW55X_Wifi_BLE_SDK/GD32VW55x_RELEASE_V1.0.2/MSDK/cloud/alicloud/src/protocol/alcs\alcs_api.c ****                 break;
 356              		.loc 1 218 17 is_stmt 1
 218:C:/Users/stapi/OneDrive/Desktop/GD32VW553/V1_MQTT_OK/GD32VW55X_Wifi_BLE_SDK/GD32VW55x_RELEASE_V1.0.2/MSDK/cloud/alicloud/src/protocol/alcs\alcs_api.c ****                 break;
 357              		.loc 1 218 35 is_stmt 0
 358 008c 97000000 		call	rand
 358      E7800000 
 359              	.LVL39:
 218:C:/Users/stapi/OneDrive/Desktop/GD32VW553/V1_MQTT_OK/GD32VW55X_Wifi_BLE_SDK/GD32VW55x_RELEASE_V1.0.2/MSDK/cloud/alicloud/src/protocol/alcs\alcs_api.c ****                 break;
 360              		.loc 1 218 42
 361 0094 B3677503 		rem	a5,a0,s7
 218:C:/Users/stapi/OneDrive/Desktop/GD32VW553/V1_MQTT_OK/GD32VW55X_Wifi_BLE_SDK/GD32VW55x_RELEASE_V1.0.2/MSDK/cloud/alicloud/src/protocol/alcs\alcs_api.c ****                 break;
 362              		.loc 1 218 33
 363 0098 93870703 		addi	a5,a5,48
 218:C:/Users/stapi/OneDrive/Desktop/GD32VW553/V1_MQTT_OK/GD32VW55X_Wifi_BLE_SDK/GD32VW55x_RELEASE_V1.0.2/MSDK/cloud/alicloud/src/protocol/alcs\alcs_api.c ****                 break;
 364              		.loc 1 218 27
 365 009c 2300F400 		sb	a5,0(s0)
 219:C:/Users/stapi/OneDrive/Desktop/GD32VW553/V1_MQTT_OK/GD32VW55X_Wifi_BLE_SDK/GD32VW55x_RELEASE_V1.0.2/MSDK/cloud/alicloud/src/protocol/alcs\alcs_api.c ****             default:
 366              		.loc 1 219 17 is_stmt 1
 367 00a0 D9BF     		j	.L23
 368              	.LVL40:
 369              	.L22:
 221:C:/Users/stapi/OneDrive/Desktop/GD32VW553/V1_MQTT_OK/GD32VW55X_Wifi_BLE_SDK/GD32VW55x_RELEASE_V1.0.2/MSDK/cloud/alicloud/src/protocol/alcs\alcs_api.c ****                 break;
 370              		.loc 1 221 17
 221:C:/Users/stapi/OneDrive/Desktop/GD32VW553/V1_MQTT_OK/GD32VW55X_Wifi_BLE_SDK/GD32VW55x_RELEASE_V1.0.2/MSDK/cloud/alicloud/src/protocol/alcs\alcs_api.c ****                 break;
 371              		.loc 1 221 27 is_stmt 0
 372 00a2 23008401 		sb	s8,0(s0)
 222:C:/Users/stapi/OneDrive/Desktop/GD32VW553/V1_MQTT_OK/GD32VW55X_Wifi_BLE_SDK/GD32VW55x_RELEASE_V1.0.2/MSDK/cloud/alicloud/src/protocol/alcs\alcs_api.c ****         }
 373              		.loc 1 222 17 is_stmt 1
 374 00a6 C1BF     		j	.L23
 375              		.cfi_endproc
 376              	.LFE31:
 378              		.section	.rodata.alcs_auth_init.str1.4,"aMS",@progbits,1
 379              		.align	2
 380              	.LC3:
 381 0000 2F646576 		.string	"/dev/%s/%s/core/service/auth"
 381      2F25732F 
 381      25732F63 
 381      6F72652F 
 381      73657276 
 382 001d 000000   		.align	2
 383              	.LC4:
 384 0020 2F646576 		.string	"/dev/core/service/heartBeat"
 384      2F636F72 
 384      652F7365 
 384      72766963 
 384      652F6865 
 385              		.section	.text.alcs_auth_init,"ax",@progbits
 386              		.align	1
 387              		.globl	alcs_auth_init
 389              	alcs_auth_init:
 390              	.LFB32:
 226:C:/Users/stapi/OneDrive/Desktop/GD32VW553/V1_MQTT_OK/GD32VW55X_Wifi_BLE_SDK/GD32VW55x_RELEASE_V1.0.2/MSDK/cloud/alicloud/src/protocol/alcs\alcs_api.c **** 
 227:C:/Users/stapi/OneDrive/Desktop/GD32VW553/V1_MQTT_OK/GD32VW55X_Wifi_BLE_SDK/GD32VW55x_RELEASE_V1.0.2/MSDK/cloud/alicloud/src/protocol/alcs\alcs_api.c **** #ifdef ALCS_SERVER_ENABLED
 228:C:/Users/stapi/OneDrive/Desktop/GD32VW553/V1_MQTT_OK/GD32VW55X_Wifi_BLE_SDK/GD32VW55x_RELEASE_V1.0.2/MSDK/cloud/alicloud/src/protocol/alcs\alcs_api.c **** extern void alcs_rec_auth (CoAPContext *context, const char *paths, NetworkAddr *remote, CoAPMessag
 229:C:/Users/stapi/OneDrive/Desktop/GD32VW553/V1_MQTT_OK/GD32VW55X_Wifi_BLE_SDK/GD32VW55x_RELEASE_V1.0.2/MSDK/cloud/alicloud/src/protocol/alcs\alcs_api.c **** extern void alcs_rec_heart_beat(CoAPContext *context, const char *paths, NetworkAddr *remote, CoAPM
 230:C:/Users/stapi/OneDrive/Desktop/GD32VW553/V1_MQTT_OK/GD32VW55X_Wifi_BLE_SDK/GD32VW55x_RELEASE_V1.0.2/MSDK/cloud/alicloud/src/protocol/alcs\alcs_api.c **** #endif
 231:C:/Users/stapi/OneDrive/Desktop/GD32VW553/V1_MQTT_OK/GD32VW55X_Wifi_BLE_SDK/GD32VW55x_RELEASE_V1.0.2/MSDK/cloud/alicloud/src/protocol/alcs\alcs_api.c **** 
 232:C:/Users/stapi/OneDrive/Desktop/GD32VW553/V1_MQTT_OK/GD32VW55X_Wifi_BLE_SDK/GD32VW55x_RELEASE_V1.0.2/MSDK/cloud/alicloud/src/protocol/alcs\alcs_api.c **** int alcs_auth_init(CoAPContext *ctx, const char* productKey, const char* deviceName, char role)
 233:C:/Users/stapi/OneDrive/Desktop/GD32VW553/V1_MQTT_OK/GD32VW55X_Wifi_BLE_SDK/GD32VW55x_RELEASE_V1.0.2/MSDK/cloud/alicloud/src/protocol/alcs\alcs_api.c **** {
 391              		.loc 1 233 1
 392              		.cfi_startproc
 393              	.LVL41:
 234:C:/Users/stapi/OneDrive/Desktop/GD32VW553/V1_MQTT_OK/GD32VW55X_Wifi_BLE_SDK/GD32VW55x_RELEASE_V1.0.2/MSDK/cloud/alicloud/src/protocol/alcs\alcs_api.c ****     if (is_inited) {
 394              		.loc 1 234 5
 395              		.loc 1 234 9 is_stmt 0
 396 0000 B7070000 		lui	a5,%hi(.LANCHOR1)
 397 0004 93870700 		addi	a5,a5,%lo(.LANCHOR1)
 398              		.loc 1 234 8
 399 0008 03870700 		lb	a4,0(a5)
 400 000c 63170710 		bne	a4,zero,.L34
 233:C:/Users/stapi/OneDrive/Desktop/GD32VW553/V1_MQTT_OK/GD32VW55X_Wifi_BLE_SDK/GD32VW55x_RELEASE_V1.0.2/MSDK/cloud/alicloud/src/protocol/alcs\alcs_api.c ****     if (is_inited) {
 401              		.loc 1 233 1
 402 0010 17030000 		call	t0,__riscv_save_7
 402      E7020300 
 403              		.cfi_offset 22, -32
 404              		.cfi_offset 21, -28
 405              		.cfi_offset 20, -24
 406              		.cfi_offset 19, -20
 407              		.cfi_offset 18, -16
 408              		.cfi_offset 9, -12
 409              		.cfi_offset 8, -8
 410              		.cfi_offset 1, -4
 411              		.cfi_def_cfa_offset 32
 412 0018 6D71     		addi	sp,sp,-272
 413              		.cfi_def_cfa_offset 304
 235:C:/Users/stapi/OneDrive/Desktop/GD32VW553/V1_MQTT_OK/GD32VW55X_Wifi_BLE_SDK/GD32VW55x_RELEASE_V1.0.2/MSDK/cloud/alicloud/src/protocol/alcs\alcs_api.c ****         return 0;
 236:C:/Users/stapi/OneDrive/Desktop/GD32VW553/V1_MQTT_OK/GD32VW55X_Wifi_BLE_SDK/GD32VW55x_RELEASE_V1.0.2/MSDK/cloud/alicloud/src/protocol/alcs\alcs_api.c ****     }
 237:C:/Users/stapi/OneDrive/Desktop/GD32VW553/V1_MQTT_OK/GD32VW55X_Wifi_BLE_SDK/GD32VW55x_RELEASE_V1.0.2/MSDK/cloud/alicloud/src/protocol/alcs\alcs_api.c ****     is_inited = 1;
 414              		.loc 1 237 15
 415 001a 054B     		li	s6,1
 416 001c 3689     		mv	s2,a3
 417              		.loc 1 237 5 is_stmt 1
 418 001e AA89     		mv	s3,a0
 419 0020 2E8A     		mv	s4,a1
 420 0022 B28A     		mv	s5,a2
 421              		.loc 1 237 15 is_stmt 0
 422 0024 23806701 		sb	s6,0(a5)
 238:C:/Users/stapi/OneDrive/Desktop/GD32VW553/V1_MQTT_OK/GD32VW55X_Wifi_BLE_SDK/GD32VW55x_RELEASE_V1.0.2/MSDK/cloud/alicloud/src/protocol/alcs\alcs_api.c ****     sessionid_seed = rand() % 100000;
 423              		.loc 1 238 5 is_stmt 1
 424              		.loc 1 238 22 is_stmt 0
 425 0028 97000000 		call	rand
 425      E7800000 
 426              	.LVL42:
 427              		.loc 1 238 29
 428 0030 E167     		li	a5,98304
 429 0032 9387076A 		addi	a5,a5,1696
 430 0036 3365F502 		rem	a0,a0,a5
 239:C:/Users/stapi/OneDrive/Desktop/GD32VW553/V1_MQTT_OK/GD32VW55X_Wifi_BLE_SDK/GD32VW55x_RELEASE_V1.0.2/MSDK/cloud/alicloud/src/protocol/alcs\alcs_api.c **** 
 240:C:/Users/stapi/OneDrive/Desktop/GD32VW553/V1_MQTT_OK/GD32VW55X_Wifi_BLE_SDK/GD32VW55x_RELEASE_V1.0.2/MSDK/cloud/alicloud/src/protocol/alcs\alcs_api.c ****     device_auth_list* dev = &_device;
 241:C:/Users/stapi/OneDrive/Desktop/GD32VW553/V1_MQTT_OK/GD32VW55X_Wifi_BLE_SDK/GD32VW55x_RELEASE_V1.0.2/MSDK/cloud/alicloud/src/protocol/alcs\alcs_api.c ****     memset (dev, 0, sizeof(device_auth_list));
 431              		.loc 1 241 5
 432 003a 37040000 		lui	s0,%hi(.LANCHOR0)
 433 003e 93040400 		addi	s1,s0,%lo(.LANCHOR0)
 238:C:/Users/stapi/OneDrive/Desktop/GD32VW553/V1_MQTT_OK/GD32VW55X_Wifi_BLE_SDK/GD32VW55x_RELEASE_V1.0.2/MSDK/cloud/alicloud/src/protocol/alcs\alcs_api.c ****     sessionid_seed = rand() % 100000;
 434              		.loc 1 238 20
 435 0042 B7070000 		lui	a5,%hi(.LANCHOR2)
 436              		.loc 1 241 5
 437 0046 13068002 		li	a2,40
 438 004a 8145     		li	a1,0
 439 004c 13040400 		addi	s0,s0,%lo(.LANCHOR0)
 238:C:/Users/stapi/OneDrive/Desktop/GD32VW553/V1_MQTT_OK/GD32VW55X_Wifi_BLE_SDK/GD32VW55x_RELEASE_V1.0.2/MSDK/cloud/alicloud/src/protocol/alcs\alcs_api.c ****     sessionid_seed = rand() % 100000;
 440              		.loc 1 238 20
 441 0050 23A0A700 		sw	a0,%lo(.LANCHOR2)(a5)
 240:C:/Users/stapi/OneDrive/Desktop/GD32VW553/V1_MQTT_OK/GD32VW55X_Wifi_BLE_SDK/GD32VW55x_RELEASE_V1.0.2/MSDK/cloud/alicloud/src/protocol/alcs\alcs_api.c ****     memset (dev, 0, sizeof(device_auth_list));
 442              		.loc 1 240 5 is_stmt 1
 443              	.LVL43:
 444              		.loc 1 241 5
 445 0054 13858400 		addi	a0,s1,8
 446 0058 97000000 		call	memset
 446      E7800000 
 447              	.LVL44:
 242:C:/Users/stapi/OneDrive/Desktop/GD32VW553/V1_MQTT_OK/GD32VW55X_Wifi_BLE_SDK/GD32VW55x_RELEASE_V1.0.2/MSDK/cloud/alicloud/src/protocol/alcs\alcs_api.c ****     dev->context = ctx;
 448              		.loc 1 242 5
 449              	.LBB47:
 450              	.LBB48:
  73:..\..\..\..\cloud\alicloud\src\infra\utils\misc/lite-list.h **** }
  74:..\..\..\..\cloud\alicloud\src\infra\utils\misc/lite-list.h **** 
  75:..\..\..\..\cloud\alicloud\src\infra\utils\misc/lite-list.h **** static inline void dlist_init(dlist_t *node)
  76:..\..\..\..\cloud\alicloud\src\infra\utils\misc/lite-list.h **** {
  77:..\..\..\..\cloud\alicloud\src\infra\utils\misc/lite-list.h ****     node->next = node->prev = node;
  78:..\..\..\..\cloud\alicloud\src\infra\utils\misc/lite-list.h **** }
  79:..\..\..\..\cloud\alicloud\src\infra\utils\misc/lite-list.h **** 
  80:..\..\..\..\cloud\alicloud\src\infra\utils\misc/lite-list.h **** static inline void INIT_AOS_DLIST_HEAD(dlist_t *list)
  81:..\..\..\..\cloud\alicloud\src\infra\utils\misc/lite-list.h **** {
  82:..\..\..\..\cloud\alicloud\src\infra\utils\misc/lite-list.h ****     list->next = list;
 451              		.loc 2 82 16 is_stmt 0
 452 0060 B7070000 		lui	a5,%hi(.LANCHOR3)
 453 0064 93870700 		addi	a5,a5,%lo(.LANCHOR3)
 454 0068 DCC3     		sw	a5,4(a5)
  83:..\..\..\..\cloud\alicloud\src\infra\utils\misc/lite-list.h ****     list->prev = list;
 455              		.loc 2 83 16
 456 006a 9CC3     		sw	a5,0(a5)
 457              	.LBE48:
 458              	.LBE47:
 459              	.LBB50:
 460              	.LBB51:
  82:..\..\..\..\cloud\alicloud\src\infra\utils\misc/lite-list.h ****     list->prev = list;
 461              		.loc 2 82 16
 462 006c 93874402 		addi	a5,s1,36
 463              	.LBE51:
 464              	.LBE50:
 243:C:/Users/stapi/OneDrive/Desktop/GD32VW553/V1_MQTT_OK/GD32VW55X_Wifi_BLE_SDK/GD32VW55x_RELEASE_V1.0.2/MSDK/cloud/alicloud/src/protocol/alcs\alcs_api.c ****     dev->seq = 1;
 244:C:/Users/stapi/OneDrive/Desktop/GD32VW553/V1_MQTT_OK/GD32VW55X_Wifi_BLE_SDK/GD32VW55x_RELEASE_V1.0.2/MSDK/cloud/alicloud/src/protocol/alcs\alcs_api.c ****     dev->role = role;
 465              		.loc 1 244 15
 466 0070 23862403 		sb	s2,44(s1)
 242:C:/Users/stapi/OneDrive/Desktop/GD32VW553/V1_MQTT_OK/GD32VW55X_Wifi_BLE_SDK/GD32VW55x_RELEASE_V1.0.2/MSDK/cloud/alicloud/src/protocol/alcs\alcs_api.c ****     dev->seq = 1;
 467              		.loc 1 242 18
 468 0074 23A03401 		sw	s3,0(s1)
 243:C:/Users/stapi/OneDrive/Desktop/GD32VW553/V1_MQTT_OK/GD32VW55X_Wifi_BLE_SDK/GD32VW55x_RELEASE_V1.0.2/MSDK/cloud/alicloud/src/protocol/alcs\alcs_api.c ****     dev->seq = 1;
 469              		.loc 1 243 5 is_stmt 1
 243:C:/Users/stapi/OneDrive/Desktop/GD32VW553/V1_MQTT_OK/GD32VW55X_Wifi_BLE_SDK/GD32VW55x_RELEASE_V1.0.2/MSDK/cloud/alicloud/src/protocol/alcs\alcs_api.c ****     dev->seq = 1;
 470              		.loc 1 243 14 is_stmt 0
 471 0078 23A26401 		sw	s6,4(s1)
 472              		.loc 1 244 5 is_stmt 1
 245:C:/Users/stapi/OneDrive/Desktop/GD32VW553/V1_MQTT_OK/GD32VW55X_Wifi_BLE_SDK/GD32VW55x_RELEASE_V1.0.2/MSDK/cloud/alicloud/src/protocol/alcs\alcs_api.c **** 
 246:C:/Users/stapi/OneDrive/Desktop/GD32VW553/V1_MQTT_OK/GD32VW55X_Wifi_BLE_SDK/GD32VW55x_RELEASE_V1.0.2/MSDK/cloud/alicloud/src/protocol/alcs\alcs_api.c ****     INIT_LIST_HEAD(&secure_resource_cb_head);
 473              		.loc 1 246 5
 474              	.LVL45:
 475              	.LBB53:
 476              	.LBB49:
  82:..\..\..\..\cloud\alicloud\src\infra\utils\misc/lite-list.h ****     list->prev = list;
 477              		.loc 2 82 5
 478              		.loc 2 83 5
 479              	.LBE49:
 480              	.LBE53:
 247:C:/Users/stapi/OneDrive/Desktop/GD32VW553/V1_MQTT_OK/GD32VW55X_Wifi_BLE_SDK/GD32VW55x_RELEASE_V1.0.2/MSDK/cloud/alicloud/src/protocol/alcs\alcs_api.c ****     INIT_LIST_HEAD(&dev->lst_requests);
 481              		.loc 1 247 5
 482              	.LBB54:
 483              	.LBB52:
  82:..\..\..\..\cloud\alicloud\src\infra\utils\misc/lite-list.h ****     list->prev = list;
 484              		.loc 2 82 5
  82:..\..\..\..\cloud\alicloud\src\infra\utils\misc/lite-list.h ****     list->prev = list;
 485              		.loc 2 82 16 is_stmt 0
 486 007c 9CD4     		sw	a5,40(s1)
 487              		.loc 2 83 5 is_stmt 1
 488              		.loc 2 83 16 is_stmt 0
 489 007e DCD0     		sw	a5,36(s1)
 490              	.LVL46:
 491              	.LBE52:
 492              	.LBE54:
 248:C:/Users/stapi/OneDrive/Desktop/GD32VW553/V1_MQTT_OK/GD32VW55X_Wifi_BLE_SDK/GD32VW55x_RELEASE_V1.0.2/MSDK/cloud/alicloud/src/protocol/alcs\alcs_api.c **** 
 249:C:/Users/stapi/OneDrive/Desktop/GD32VW553/V1_MQTT_OK/GD32VW55X_Wifi_BLE_SDK/GD32VW55x_RELEASE_V1.0.2/MSDK/cloud/alicloud/src/protocol/alcs\alcs_api.c ****     if (role & ROLE_SERVER) {
 493              		.loc 1 249 5 is_stmt 1
 494              		.loc 1 249 8 is_stmt 0
 495 0080 13792900 		andi	s2,s2,2
 496 0084 63000908 		beq	s2,zero,.L29
 497              	.LBB55:
 250:C:/Users/stapi/OneDrive/Desktop/GD32VW553/V1_MQTT_OK/GD32VW55X_Wifi_BLE_SDK/GD32VW55x_RELEASE_V1.0.2/MSDK/cloud/alicloud/src/protocol/alcs\alcs_api.c **** #ifdef ALCS_SERVER_ENABLED
 251:C:/Users/stapi/OneDrive/Desktop/GD32VW553/V1_MQTT_OK/GD32VW55X_Wifi_BLE_SDK/GD32VW55x_RELEASE_V1.0.2/MSDK/cloud/alicloud/src/protocol/alcs\alcs_api.c ****         INIT_LIST_HEAD(&dev->lst_svr_sessions);
 498              		.loc 1 251 9 is_stmt 1
 499              	.LVL47:
 500              	.LBB56:
 501              	.LBB57:
  82:..\..\..\..\cloud\alicloud\src\infra\utils\misc/lite-list.h ****     list->prev = list;
 502              		.loc 2 82 5
  82:..\..\..\..\cloud\alicloud\src\infra\utils\misc/lite-list.h ****     list->prev = list;
 503              		.loc 2 82 16 is_stmt 0
 504 0088 9307C401 		addi	a5,s0,28
 505              	.LBE57:
 506              	.LBE56:
 252:C:/Users/stapi/OneDrive/Desktop/GD32VW553/V1_MQTT_OK/GD32VW55X_Wifi_BLE_SDK/GD32VW55x_RELEASE_V1.0.2/MSDK/cloud/alicloud/src/protocol/alcs\alcs_api.c ****         INIT_LIST_HEAD(&dev->lst_svr);
 253:C:/Users/stapi/OneDrive/Desktop/GD32VW553/V1_MQTT_OK/GD32VW55X_Wifi_BLE_SDK/GD32VW55x_RELEASE_V1.0.2/MSDK/cloud/alicloud/src/protocol/alcs\alcs_api.c **** 
 254:C:/Users/stapi/OneDrive/Desktop/GD32VW553/V1_MQTT_OK/GD32VW55X_Wifi_BLE_SDK/GD32VW55x_RELEASE_V1.0.2/MSDK/cloud/alicloud/src/protocol/alcs\alcs_api.c ****         char path[256];
 255:C:/Users/stapi/OneDrive/Desktop/GD32VW553/V1_MQTT_OK/GD32VW55X_Wifi_BLE_SDK/GD32VW55x_RELEASE_V1.0.2/MSDK/cloud/alicloud/src/protocol/alcs\alcs_api.c ****         snprintf(path, sizeof(path), "/dev/%s/%s/core/service/auth", productKey, deviceName);
 507              		.loc 1 255 9
 508 008c 37060000 		lui	a2,%hi(.LC3)
 509              	.LBB59:
 510              	.LBB58:
  82:..\..\..\..\cloud\alicloud\src\infra\utils\misc/lite-list.h ****     list->prev = list;
 511              		.loc 2 82 16
 512 0090 1CD0     		sw	a5,32(s0)
 513              		.loc 2 83 5 is_stmt 1
 514              		.loc 2 83 16 is_stmt 0
 515 0092 5CCC     		sw	a5,28(s0)
 516              	.LVL48:
 517              	.LBE58:
 518              	.LBE59:
 252:C:/Users/stapi/OneDrive/Desktop/GD32VW553/V1_MQTT_OK/GD32VW55X_Wifi_BLE_SDK/GD32VW55x_RELEASE_V1.0.2/MSDK/cloud/alicloud/src/protocol/alcs\alcs_api.c ****         INIT_LIST_HEAD(&dev->lst_svr);
 519              		.loc 1 252 9 is_stmt 1
 520              	.LBB60:
 521              	.LBB61:
  82:..\..\..\..\cloud\alicloud\src\infra\utils\misc/lite-list.h ****     list->prev = list;
 522              		.loc 2 82 5
 523              	.LBE61:
 524              	.LBE60:
 525              		.loc 1 255 9 is_stmt 0
 526 0094 5687     		mv	a4,s5
 527              	.LBB64:
 528              	.LBB62:
  82:..\..\..\..\cloud\alicloud\src\infra\utils\misc/lite-list.h ****     list->prev = list;
 529              		.loc 2 82 16
 530 0096 9307C400 		addi	a5,s0,12
 531              	.LBE62:
 532              	.LBE64:
 533              		.loc 1 255 9
 534 009a D286     		mv	a3,s4
 535 009c 13060600 		addi	a2,a2,%lo(.LC3)
 536 00a0 93050010 		li	a1,256
 537 00a4 0808     		addi	a0,sp,16
 538              	.LBB65:
 539              	.LBB63:
  82:..\..\..\..\cloud\alicloud\src\infra\utils\misc/lite-list.h ****     list->prev = list;
 540              		.loc 2 82 16
 541 00a6 1CC8     		sw	a5,16(s0)
 542              		.loc 2 83 5 is_stmt 1
 543              		.loc 2 83 16 is_stmt 0
 544 00a8 5CC4     		sw	a5,12(s0)
 545              	.LVL49:
 546              	.LBE63:
 547              	.LBE65:
 254:C:/Users/stapi/OneDrive/Desktop/GD32VW553/V1_MQTT_OK/GD32VW55X_Wifi_BLE_SDK/GD32VW55x_RELEASE_V1.0.2/MSDK/cloud/alicloud/src/protocol/alcs\alcs_api.c ****         snprintf(path, sizeof(path), "/dev/%s/%s/core/service/auth", productKey, deviceName);
 548              		.loc 1 254 9 is_stmt 1
 549              		.loc 1 255 9
 550 00aa 97000000 		call	snprintf
 550      E7800000 
 551              	.LVL50:
 256:C:/Users/stapi/OneDrive/Desktop/GD32VW553/V1_MQTT_OK/GD32VW55X_Wifi_BLE_SDK/GD32VW55x_RELEASE_V1.0.2/MSDK/cloud/alicloud/src/protocol/alcs\alcs_api.c ****         alcs_resource_register (ctx, productKey, deviceName, path, COAP_PERM_GET, COAP_CT_APP_JSON,
 552              		.loc 1 256 9
 553 00b2 B7070000 		lui	a5,%hi(alcs_rec_auth)
 554 00b6 93870700 		addi	a5,a5,%lo(alcs_rec_auth)
 555 00ba 3EC0     		sw	a5,0(sp)
 556 00bc 8148     		li	a7,0
 557 00be 1308C003 		li	a6,60
 558 00c2 93072003 		li	a5,50
 559 00c6 0547     		li	a4,1
 560 00c8 1408     		addi	a3,sp,16
 561 00ca 5686     		mv	a2,s5
 562 00cc D285     		mv	a1,s4
 563 00ce 4E85     		mv	a0,s3
 564 00d0 97000000 		call	alcs_resource_register
 564      E7800000 
 565              	.LVL51:
 257:C:/Users/stapi/OneDrive/Desktop/GD32VW553/V1_MQTT_OK/GD32VW55X_Wifi_BLE_SDK/GD32VW55x_RELEASE_V1.0.2/MSDK/cloud/alicloud/src/protocol/alcs\alcs_api.c ****         alcs_resource_register (ctx, productKey, deviceName, "/dev/core/service/heartBeat", COAP_PE
 566              		.loc 1 257 9
 567 00d8 B7070000 		lui	a5,%hi(alcs_rec_heart_beat)
 568 00dc 93870700 		addi	a5,a5,%lo(alcs_rec_heart_beat)
 569 00e0 B7060000 		lui	a3,%hi(.LC4)
 570 00e4 3EC0     		sw	a5,0(sp)
 571 00e6 8148     		li	a7,0
 572 00e8 1308C003 		li	a6,60
 573 00ec 93072003 		li	a5,50
 574 00f0 0547     		li	a4,1
 575 00f2 93860600 		addi	a3,a3,%lo(.LC4)
 576 00f6 5686     		mv	a2,s5
 577 00f8 D285     		mv	a1,s4
 578 00fa 4E85     		mv	a0,s3
 579 00fc 97000000 		call	alcs_resource_register
 579      E7800000 
 580              	.LVL52:
 581              	.L29:
 582              	.LBE55:
 258:C:/Users/stapi/OneDrive/Desktop/GD32VW553/V1_MQTT_OK/GD32VW55X_Wifi_BLE_SDK/GD32VW55x_RELEASE_V1.0.2/MSDK/cloud/alicloud/src/protocol/alcs\alcs_api.c **** #endif
 259:C:/Users/stapi/OneDrive/Desktop/GD32VW553/V1_MQTT_OK/GD32VW55X_Wifi_BLE_SDK/GD32VW55x_RELEASE_V1.0.2/MSDK/cloud/alicloud/src/protocol/alcs\alcs_api.c ****     }
 260:C:/Users/stapi/OneDrive/Desktop/GD32VW553/V1_MQTT_OK/GD32VW55X_Wifi_BLE_SDK/GD32VW55x_RELEASE_V1.0.2/MSDK/cloud/alicloud/src/protocol/alcs\alcs_api.c **** 
 261:C:/Users/stapi/OneDrive/Desktop/GD32VW553/V1_MQTT_OK/GD32VW55X_Wifi_BLE_SDK/GD32VW55x_RELEASE_V1.0.2/MSDK/cloud/alicloud/src/protocol/alcs\alcs_api.c ****     if (role & ROLE_CLIENT) {
 583              		.loc 1 261 5
 262:C:/Users/stapi/OneDrive/Desktop/GD32VW553/V1_MQTT_OK/GD32VW55X_Wifi_BLE_SDK/GD32VW55x_RELEASE_V1.0.2/MSDK/cloud/alicloud/src/protocol/alcs\alcs_api.c **** #ifdef ALCS_CLIENT_ENABLED
 263:C:/Users/stapi/OneDrive/Desktop/GD32VW553/V1_MQTT_OK/GD32VW55X_Wifi_BLE_SDK/GD32VW55x_RELEASE_V1.0.2/MSDK/cloud/alicloud/src/protocol/alcs\alcs_api.c ****         INIT_LIST_HEAD(&dev->lst_ctl_sessions);
 264:C:/Users/stapi/OneDrive/Desktop/GD32VW553/V1_MQTT_OK/GD32VW55X_Wifi_BLE_SDK/GD32VW55x_RELEASE_V1.0.2/MSDK/cloud/alicloud/src/protocol/alcs\alcs_api.c ****         INIT_LIST_HEAD(&dev->lst_ctl);
 265:C:/Users/stapi/OneDrive/Desktop/GD32VW553/V1_MQTT_OK/GD32VW55X_Wifi_BLE_SDK/GD32VW55x_RELEASE_V1.0.2/MSDK/cloud/alicloud/src/protocol/alcs\alcs_api.c **** #endif
 266:C:/Users/stapi/OneDrive/Desktop/GD32VW553/V1_MQTT_OK/GD32VW55X_Wifi_BLE_SDK/GD32VW55x_RELEASE_V1.0.2/MSDK/cloud/alicloud/src/protocol/alcs\alcs_api.c ****     }
 584              		.loc 1 266 5
 267:C:/Users/stapi/OneDrive/Desktop/GD32VW553/V1_MQTT_OK/GD32VW55X_Wifi_BLE_SDK/GD32VW55x_RELEASE_V1.0.2/MSDK/cloud/alicloud/src/protocol/alcs\alcs_api.c **** 
 268:C:/Users/stapi/OneDrive/Desktop/GD32VW553/V1_MQTT_OK/GD32VW55X_Wifi_BLE_SDK/GD32VW55x_RELEASE_V1.0.2/MSDK/cloud/alicloud/src/protocol/alcs\alcs_api.c **** #ifdef ALCS_GROUP_COMM_ENABLE
 269:C:/Users/stapi/OneDrive/Desktop/GD32VW553/V1_MQTT_OK/GD32VW55X_Wifi_BLE_SDK/GD32VW55x_RELEASE_V1.0.2/MSDK/cloud/alicloud/src/protocol/alcs\alcs_api.c ****     INIT_LIST_HEAD(&dev->lst_svr_group);
 270:C:/Users/stapi/OneDrive/Desktop/GD32VW553/V1_MQTT_OK/GD32VW55X_Wifi_BLE_SDK/GD32VW55x_RELEASE_V1.0.2/MSDK/cloud/alicloud/src/protocol/alcs\alcs_api.c **** #endif
 271:C:/Users/stapi/OneDrive/Desktop/GD32VW553/V1_MQTT_OK/GD32VW55X_Wifi_BLE_SDK/GD32VW55x_RELEASE_V1.0.2/MSDK/cloud/alicloud/src/protocol/alcs\alcs_api.c ****     dev->list_mutex = HAL_MutexCreate();
 585              		.loc 1 271 5
 586              		.loc 1 271 23 is_stmt 0
 587 0104 97000000 		call	HAL_MutexCreate
 587      E7800000 
 588              	.LVL53:
 589              		.loc 1 271 21
 590 010c 08C4     		sw	a0,8(s0)
 272:C:/Users/stapi/OneDrive/Desktop/GD32VW553/V1_MQTT_OK/GD32VW55X_Wifi_BLE_SDK/GD32VW55x_RELEASE_V1.0.2/MSDK/cloud/alicloud/src/protocol/alcs\alcs_api.c **** 
 273:C:/Users/stapi/OneDrive/Desktop/GD32VW553/V1_MQTT_OK/GD32VW55X_Wifi_BLE_SDK/GD32VW55x_RELEASE_V1.0.2/MSDK/cloud/alicloud/src/protocol/alcs\alcs_api.c ****     return COAP_SUCCESS;
 591              		.loc 1 273 5 is_stmt 1
 274:C:/Users/stapi/OneDrive/Desktop/GD32VW553/V1_MQTT_OK/GD32VW55X_Wifi_BLE_SDK/GD32VW55x_RELEASE_V1.0.2/MSDK/cloud/alicloud/src/protocol/alcs\alcs_api.c **** }
 592              		.loc 1 274 1 is_stmt 0
 593 010e 0145     		li	a0,0
 594 0110 5161     		addi	sp,sp,272
 595              		.cfi_def_cfa_offset 0
 596 0112 17030000 		tail	__riscv_restore_7
 596      67000300 
 597              		.cfi_restore 22
 598              		.cfi_restore 21
 599              		.cfi_restore 20
 600              		.cfi_restore 19
 601              		.cfi_restore 18
 602              		.cfi_restore 9
 603              		.cfi_restore 8
 604              		.cfi_restore 1
 605              		.cfi_def_cfa_offset -32
 606              	.LVL54:
 607              	.L34:
 608              		.cfi_def_cfa_offset 0
 609 011a 0145     		li	a0,0
 610              	.LVL55:
 611 011c 8280     		ret
 612              		.cfi_endproc
 613              	.LFE32:
 615              		.section	.text.alcs_auth_subdev_init,"ax",@progbits
 616              		.align	1
 617              		.globl	alcs_auth_subdev_init
 619              	alcs_auth_subdev_init:
 620              	.LFB33:
 275:C:/Users/stapi/OneDrive/Desktop/GD32VW553/V1_MQTT_OK/GD32VW55X_Wifi_BLE_SDK/GD32VW55x_RELEASE_V1.0.2/MSDK/cloud/alicloud/src/protocol/alcs\alcs_api.c **** 
 276:C:/Users/stapi/OneDrive/Desktop/GD32VW553/V1_MQTT_OK/GD32VW55X_Wifi_BLE_SDK/GD32VW55x_RELEASE_V1.0.2/MSDK/cloud/alicloud/src/protocol/alcs\alcs_api.c **** void alcs_auth_subdev_init(CoAPContext *ctx, const char* productKey, const char* deviceName)
 277:C:/Users/stapi/OneDrive/Desktop/GD32VW553/V1_MQTT_OK/GD32VW55X_Wifi_BLE_SDK/GD32VW55x_RELEASE_V1.0.2/MSDK/cloud/alicloud/src/protocol/alcs\alcs_api.c **** {
 621              		.loc 1 277 1 is_stmt 1
 622              		.cfi_startproc
 623              	.LVL56:
 624 0000 17030000 		call	t0,__riscv_save_3
 624      E7020300 
 625              		.cfi_offset 18, -16
 626              		.cfi_offset 9, -12
 627              		.cfi_offset 8, -8
 628              		.cfi_offset 1, -4
 629              		.cfi_def_cfa_offset 16
 278:C:/Users/stapi/OneDrive/Desktop/GD32VW553/V1_MQTT_OK/GD32VW55X_Wifi_BLE_SDK/GD32VW55x_RELEASE_V1.0.2/MSDK/cloud/alicloud/src/protocol/alcs\alcs_api.c ****     char path[256];
 630              		.loc 1 278 5
 279:C:/Users/stapi/OneDrive/Desktop/GD32VW553/V1_MQTT_OK/GD32VW55X_Wifi_BLE_SDK/GD32VW55x_RELEASE_V1.0.2/MSDK/cloud/alicloud/src/protocol/alcs\alcs_api.c ****     snprintf(path, sizeof(path), "/dev/%s/%s/core/service/auth", productKey, deviceName);
 631              		.loc 1 279 5
 277:C:/Users/stapi/OneDrive/Desktop/GD32VW553/V1_MQTT_OK/GD32VW55X_Wifi_BLE_SDK/GD32VW55x_RELEASE_V1.0.2/MSDK/cloud/alicloud/src/protocol/alcs\alcs_api.c ****     char path[256];
 632              		.loc 1 277 1 is_stmt 0
 633 0008 6D71     		addi	sp,sp,-272
 634              		.cfi_def_cfa_offset 288
 277:C:/Users/stapi/OneDrive/Desktop/GD32VW553/V1_MQTT_OK/GD32VW55X_Wifi_BLE_SDK/GD32VW55x_RELEASE_V1.0.2/MSDK/cloud/alicloud/src/protocol/alcs\alcs_api.c ****     char path[256];
 635              		.loc 1 277 1
 636 000a B284     		mv	s1,a2
 637              		.loc 1 279 5
 638 000c 3287     		mv	a4,a2
 639 000e 37060000 		lui	a2,%hi(.LC3)
 640              	.LVL57:
 277:C:/Users/stapi/OneDrive/Desktop/GD32VW553/V1_MQTT_OK/GD32VW55X_Wifi_BLE_SDK/GD32VW55x_RELEASE_V1.0.2/MSDK/cloud/alicloud/src/protocol/alcs\alcs_api.c ****     char path[256];
 641              		.loc 1 277 1
 642 0012 2E84     		mv	s0,a1
 643 0014 2A89     		mv	s2,a0
 644              		.loc 1 279 5
 645 0016 AE86     		mv	a3,a1
 646 0018 13060600 		addi	a2,a2,%lo(.LC3)
 647 001c 93050010 		li	a1,256
 648              	.LVL58:
 649 0020 0808     		addi	a0,sp,16
 650              	.LVL59:
 651 0022 97000000 		call	snprintf
 651      E7800000 
 652              	.LVL60:
 280:C:/Users/stapi/OneDrive/Desktop/GD32VW553/V1_MQTT_OK/GD32VW55X_Wifi_BLE_SDK/GD32VW55x_RELEASE_V1.0.2/MSDK/cloud/alicloud/src/protocol/alcs\alcs_api.c ****     alcs_resource_register (ctx, productKey, deviceName, path, COAP_PERM_GET, COAP_CT_APP_JSON, 60,
 653              		.loc 1 280 5 is_stmt 1
 654 002a B7070000 		lui	a5,%hi(alcs_rec_auth)
 655 002e 93870700 		addi	a5,a5,%lo(alcs_rec_auth)
 656 0032 3EC0     		sw	a5,0(sp)
 657 0034 1408     		addi	a3,sp,16
 658 0036 8148     		li	a7,0
 659 0038 1308C003 		li	a6,60
 660 003c 93072003 		li	a5,50
 661 0040 0547     		li	a4,1
 662 0042 2686     		mv	a2,s1
 663 0044 A285     		mv	a1,s0
 664 0046 4A85     		mv	a0,s2
 665 0048 97000000 		call	alcs_resource_register
 665      E7800000 
 666              	.LVL61:
 281:C:/Users/stapi/OneDrive/Desktop/GD32VW553/V1_MQTT_OK/GD32VW55X_Wifi_BLE_SDK/GD32VW55x_RELEASE_V1.0.2/MSDK/cloud/alicloud/src/protocol/alcs\alcs_api.c **** }
 667              		.loc 1 281 1 is_stmt 0
 668 0050 5161     		addi	sp,sp,272
 669              		.cfi_def_cfa_offset 0
 670 0052 17030000 		tail	__riscv_restore_3
 670      67000300 
 671              		.cfi_restore 18
 672              		.cfi_restore 9
 673              		.cfi_restore 8
 674              		.cfi_restore 1
 675              		.cfi_def_cfa_offset -16
 676              		.cfi_endproc
 677              	.LFE33:
 679              		.section	.text.alcs_auth_deinit,"ax",@progbits
 680              		.align	1
 681              		.globl	alcs_auth_deinit
 683              	alcs_auth_deinit:
 684              	.LFB34:
 282:C:/Users/stapi/OneDrive/Desktop/GD32VW553/V1_MQTT_OK/GD32VW55X_Wifi_BLE_SDK/GD32VW55x_RELEASE_V1.0.2/MSDK/cloud/alicloud/src/protocol/alcs\alcs_api.c **** 
 283:C:/Users/stapi/OneDrive/Desktop/GD32VW553/V1_MQTT_OK/GD32VW55X_Wifi_BLE_SDK/GD32VW55x_RELEASE_V1.0.2/MSDK/cloud/alicloud/src/protocol/alcs\alcs_api.c **** void alcs_auth_deinit(void)
 284:C:/Users/stapi/OneDrive/Desktop/GD32VW553/V1_MQTT_OK/GD32VW55X_Wifi_BLE_SDK/GD32VW55x_RELEASE_V1.0.2/MSDK/cloud/alicloud/src/protocol/alcs\alcs_api.c **** {
 685              		.loc 1 284 1 is_stmt 1
 686              		.cfi_startproc
 285:C:/Users/stapi/OneDrive/Desktop/GD32VW553/V1_MQTT_OK/GD32VW55X_Wifi_BLE_SDK/GD32VW55x_RELEASE_V1.0.2/MSDK/cloud/alicloud/src/protocol/alcs\alcs_api.c ****     if (is_inited == 0) {
 687              		.loc 1 285 5
 688              		.loc 1 285 19 is_stmt 0
 689 0000 B7070000 		lui	a5,%hi(.LANCHOR1)
 690 0004 93870700 		addi	a5,a5,%lo(.LANCHOR1)
 691              		.loc 1 285 8
 692 0008 03870700 		lb	a4,0(a5)
 693 000c 1DCF     		beq	a4,zero,.L47
 284:C:/Users/stapi/OneDrive/Desktop/GD32VW553/V1_MQTT_OK/GD32VW55X_Wifi_BLE_SDK/GD32VW55x_RELEASE_V1.0.2/MSDK/cloud/alicloud/src/protocol/alcs\alcs_api.c ****     if (is_inited == 0) {
 694              		.loc 1 284 1
 695 000e 17030000 		call	t0,__riscv_save_1
 695      E7020300 
 696              		.cfi_offset 8, -8
 697              		.cfi_offset 1, -4
 698              		.cfi_def_cfa_offset 16
 286:C:/Users/stapi/OneDrive/Desktop/GD32VW553/V1_MQTT_OK/GD32VW55X_Wifi_BLE_SDK/GD32VW55x_RELEASE_V1.0.2/MSDK/cloud/alicloud/src/protocol/alcs\alcs_api.c ****         return;
 287:C:/Users/stapi/OneDrive/Desktop/GD32VW553/V1_MQTT_OK/GD32VW55X_Wifi_BLE_SDK/GD32VW55x_RELEASE_V1.0.2/MSDK/cloud/alicloud/src/protocol/alcs\alcs_api.c ****     }
 288:C:/Users/stapi/OneDrive/Desktop/GD32VW553/V1_MQTT_OK/GD32VW55X_Wifi_BLE_SDK/GD32VW55x_RELEASE_V1.0.2/MSDK/cloud/alicloud/src/protocol/alcs\alcs_api.c ****     is_inited = 0;
 699              		.loc 1 288 5 is_stmt 1
 289:C:/Users/stapi/OneDrive/Desktop/GD32VW553/V1_MQTT_OK/GD32VW55X_Wifi_BLE_SDK/GD32VW55x_RELEASE_V1.0.2/MSDK/cloud/alicloud/src/protocol/alcs\alcs_api.c **** 
 290:C:/Users/stapi/OneDrive/Desktop/GD32VW553/V1_MQTT_OK/GD32VW55X_Wifi_BLE_SDK/GD32VW55x_RELEASE_V1.0.2/MSDK/cloud/alicloud/src/protocol/alcs\alcs_api.c ****     alcs_resource_cb_deinit();
 291:C:/Users/stapi/OneDrive/Desktop/GD32VW553/V1_MQTT_OK/GD32VW55X_Wifi_BLE_SDK/GD32VW55x_RELEASE_V1.0.2/MSDK/cloud/alicloud/src/protocol/alcs\alcs_api.c ****     alcs_auth_list_deinit();
 292:C:/Users/stapi/OneDrive/Desktop/GD32VW553/V1_MQTT_OK/GD32VW55X_Wifi_BLE_SDK/GD32VW55x_RELEASE_V1.0.2/MSDK/cloud/alicloud/src/protocol/alcs\alcs_api.c **** 
 293:C:/Users/stapi/OneDrive/Desktop/GD32VW553/V1_MQTT_OK/GD32VW55X_Wifi_BLE_SDK/GD32VW55x_RELEASE_V1.0.2/MSDK/cloud/alicloud/src/protocol/alcs\alcs_api.c ****     if (_device.list_mutex){
 700              		.loc 1 293 16 is_stmt 0
 701 0016 37040000 		lui	s0,%hi(.LANCHOR0)
 288:C:/Users/stapi/OneDrive/Desktop/GD32VW553/V1_MQTT_OK/GD32VW55X_Wifi_BLE_SDK/GD32VW55x_RELEASE_V1.0.2/MSDK/cloud/alicloud/src/protocol/alcs\alcs_api.c **** 
 702              		.loc 1 288 15
 703 001a 23800700 		sb	zero,0(a5)
 290:C:/Users/stapi/OneDrive/Desktop/GD32VW553/V1_MQTT_OK/GD32VW55X_Wifi_BLE_SDK/GD32VW55x_RELEASE_V1.0.2/MSDK/cloud/alicloud/src/protocol/alcs\alcs_api.c ****     alcs_auth_list_deinit();
 704              		.loc 1 290 5 is_stmt 1
 705              		.loc 1 293 16 is_stmt 0
 706 001e 13040400 		addi	s0,s0,%lo(.LANCHOR0)
 290:C:/Users/stapi/OneDrive/Desktop/GD32VW553/V1_MQTT_OK/GD32VW55X_Wifi_BLE_SDK/GD32VW55x_RELEASE_V1.0.2/MSDK/cloud/alicloud/src/protocol/alcs\alcs_api.c ****     alcs_auth_list_deinit();
 707              		.loc 1 290 5
 708 0022 97000000 		call	alcs_resource_cb_deinit
 708      E7800000 
 709              	.LVL62:
 291:C:/Users/stapi/OneDrive/Desktop/GD32VW553/V1_MQTT_OK/GD32VW55X_Wifi_BLE_SDK/GD32VW55x_RELEASE_V1.0.2/MSDK/cloud/alicloud/src/protocol/alcs\alcs_api.c **** 
 710              		.loc 1 291 5 is_stmt 1
 711 002a 97000000 		call	alcs_auth_list_deinit
 711      E7800000 
 712              	.LVL63:
 713              		.loc 1 293 5
 714              		.loc 1 293 16 is_stmt 0
 715 0032 0844     		lw	a0,8(s0)
 716              		.loc 1 293 8
 717 0034 19C5     		beq	a0,zero,.L39
 294:C:/Users/stapi/OneDrive/Desktop/GD32VW553/V1_MQTT_OK/GD32VW55X_Wifi_BLE_SDK/GD32VW55x_RELEASE_V1.0.2/MSDK/cloud/alicloud/src/protocol/alcs\alcs_api.c ****         HAL_MutexDestroy(_device.list_mutex);
 718              		.loc 1 294 9 is_stmt 1
 719 0036 97000000 		call	HAL_MutexDestroy
 719      E7800000 
 720              	.LVL64:
 295:C:/Users/stapi/OneDrive/Desktop/GD32VW553/V1_MQTT_OK/GD32VW55X_Wifi_BLE_SDK/GD32VW55x_RELEASE_V1.0.2/MSDK/cloud/alicloud/src/protocol/alcs\alcs_api.c ****         _device.list_mutex = NULL;
 721              		.loc 1 295 9
 722              		.loc 1 295 28 is_stmt 0
 723 003e 23240400 		sw	zero,8(s0)
 724              	.L39:
 296:C:/Users/stapi/OneDrive/Desktop/GD32VW553/V1_MQTT_OK/GD32VW55X_Wifi_BLE_SDK/GD32VW55x_RELEASE_V1.0.2/MSDK/cloud/alicloud/src/protocol/alcs\alcs_api.c ****     }   
 297:C:/Users/stapi/OneDrive/Desktop/GD32VW553/V1_MQTT_OK/GD32VW55X_Wifi_BLE_SDK/GD32VW55x_RELEASE_V1.0.2/MSDK/cloud/alicloud/src/protocol/alcs\alcs_api.c **** }
 725              		.loc 1 297 1
 726 0042 17030000 		tail	__riscv_restore_1
 726      67000300 
 727              		.cfi_restore 8
 728              		.cfi_restore 1
 729              		.cfi_def_cfa_offset 0
 730              	.L47:
 731 004a 8280     		ret
 732              		.cfi_endproc
 733              	.LFE34:
 735              		.section	.rodata.is_networkadd_same.str1.4,"aMS",@progbits,1
 736              		.align	2
 737              	.LC5:
 738 0000 636F6D70 		.string	"compare addr1:%s,addr2:%s"
 738      61726520 
 738      61646472 
 738      313A2573 
 738      2C616464 
 739 001a 0000     		.align	2
 740              	.LC6:
 741 001c 636F6170 		.string	"coap_local"
 741      5F6C6F63 
 741      616C00
 742              		.section	.text.is_networkadd_same,"ax",@progbits
 743              		.align	1
 744              		.globl	is_networkadd_same
 746              	is_networkadd_same:
 747              	.LFB35:
 298:C:/Users/stapi/OneDrive/Desktop/GD32VW553/V1_MQTT_OK/GD32VW55X_Wifi_BLE_SDK/GD32VW55x_RELEASE_V1.0.2/MSDK/cloud/alicloud/src/protocol/alcs\alcs_api.c **** 
 299:C:/Users/stapi/OneDrive/Desktop/GD32VW553/V1_MQTT_OK/GD32VW55X_Wifi_BLE_SDK/GD32VW55x_RELEASE_V1.0.2/MSDK/cloud/alicloud/src/protocol/alcs\alcs_api.c **** bool is_networkadd_same (NetworkAddr* addr1, NetworkAddr* addr2)
 300:C:/Users/stapi/OneDrive/Desktop/GD32VW553/V1_MQTT_OK/GD32VW55X_Wifi_BLE_SDK/GD32VW55x_RELEASE_V1.0.2/MSDK/cloud/alicloud/src/protocol/alcs\alcs_api.c **** {
 748              		.loc 1 300 1 is_stmt 1
 749              		.cfi_startproc
 750              	.LVL65:
 301:C:/Users/stapi/OneDrive/Desktop/GD32VW553/V1_MQTT_OK/GD32VW55X_Wifi_BLE_SDK/GD32VW55x_RELEASE_V1.0.2/MSDK/cloud/alicloud/src/protocol/alcs\alcs_api.c ****     if (!addr1 || !addr2) {
 751              		.loc 1 301 5
 752              		.loc 1 301 8 is_stmt 0
 753 0000 2DC1     		beq	a0,zero,.L53
 300:C:/Users/stapi/OneDrive/Desktop/GD32VW553/V1_MQTT_OK/GD32VW55X_Wifi_BLE_SDK/GD32VW55x_RELEASE_V1.0.2/MSDK/cloud/alicloud/src/protocol/alcs\alcs_api.c ****     if (!addr1 || !addr2) {
 754              		.loc 1 300 1 discriminator 1
 755 0002 17030000 		call	t0,__riscv_save_2
 755      E7020300 
 756              		.cfi_offset 9, -12
 757              		.cfi_offset 8, -8
 758              		.cfi_offset 1, -4
 759              		.cfi_def_cfa_offset 16
 760 000a 2A84     		mv	s0,a0
 761 000c AE84     		mv	s1,a1
 302:C:/Users/stapi/OneDrive/Desktop/GD32VW553/V1_MQTT_OK/GD32VW55X_Wifi_BLE_SDK/GD32VW55x_RELEASE_V1.0.2/MSDK/cloud/alicloud/src/protocol/alcs\alcs_api.c ****         return 0;
 762              		.loc 1 302 16 discriminator 1
 763 000e 0145     		li	a0,0
 764              	.LVL66:
 301:C:/Users/stapi/OneDrive/Desktop/GD32VW553/V1_MQTT_OK/GD32VW55X_Wifi_BLE_SDK/GD32VW55x_RELEASE_V1.0.2/MSDK/cloud/alicloud/src/protocol/alcs\alcs_api.c ****     if (!addr1 || !addr2) {
 765              		.loc 1 301 16 discriminator 1
 766 0010 A9C5     		beq	a1,zero,.L51
 767              	.LVL67:
 768              	.LBB68:
 769              	.LBB69:
 303:C:/Users/stapi/OneDrive/Desktop/GD32VW553/V1_MQTT_OK/GD32VW55X_Wifi_BLE_SDK/GD32VW55x_RELEASE_V1.0.2/MSDK/cloud/alicloud/src/protocol/alcs\alcs_api.c ****     }
 304:C:/Users/stapi/OneDrive/Desktop/GD32VW553/V1_MQTT_OK/GD32VW55X_Wifi_BLE_SDK/GD32VW55x_RELEASE_V1.0.2/MSDK/cloud/alicloud/src/protocol/alcs\alcs_api.c ****     COAP_DEBUG("compare addr1:%s,addr2:%s", addr1->addr, addr2->addr);
 770              		.loc 1 304 5 is_stmt 1
 771 0012 2E88     		mv	a6,a1
 772 0014 37070000 		lui	a4,%hi(.LC5)
 773 0018 B7050000 		lui	a1,%hi(.LANCHOR4)
 774              	.LVL68:
 775 001c 37050000 		lui	a0,%hi(.LC6)
 776 0020 A287     		mv	a5,s0
 777 0022 13070700 		addi	a4,a4,%lo(.LC5)
 778 0026 13050500 		addi	a0,a0,%lo(.LC6)
 779 002a 9546     		li	a3,5
 780 002c 13060013 		li	a2,304
 781 0030 93850500 		addi	a1,a1,%lo(.LANCHOR4)
 782 0034 97000000 		call	LITE_syslog
 782      E7800000 
 783              	.LVL69:
 305:C:/Users/stapi/OneDrive/Desktop/GD32VW553/V1_MQTT_OK/GD32VW55X_Wifi_BLE_SDK/GD32VW55x_RELEASE_V1.0.2/MSDK/cloud/alicloud/src/protocol/alcs\alcs_api.c ****     return addr1->port == addr2->port && !strcmp((const char *)addr1->addr, (const char *)addr2->ad
 784              		.loc 1 305 5
 785              		.loc 1 305 39 is_stmt 0
 786 003c 03570401 		lhu	a4,16(s0)
 787 0040 83D70401 		lhu	a5,16(s1)
 788 0044 0145     		li	a0,0
 789 0046 631AF700 		bne	a4,a5,.L51
 790              		.loc 1 305 43
 791 004a A685     		mv	a1,s1
 792 004c 2285     		mv	a0,s0
 793 004e 97000000 		call	strcmp
 793      E7800000 
 794              	.LVL70:
 795              		.loc 1 305 39
 796 0056 13351500 		seqz	a0,a0
 797              	.LVL71:
 798              	.L51:
 799              	.LBE69:
 800              	.LBE68:
 306:C:/Users/stapi/OneDrive/Desktop/GD32VW553/V1_MQTT_OK/GD32VW55X_Wifi_BLE_SDK/GD32VW55x_RELEASE_V1.0.2/MSDK/cloud/alicloud/src/protocol/alcs\alcs_api.c **** }
 801              		.loc 1 306 1
 802 005a 17030000 		tail	__riscv_restore_2
 802      67000300 
 803              		.cfi_restore 9
 804              		.cfi_restore 8
 805              		.cfi_restore 1
 806              		.cfi_def_cfa_offset 0
 807              	.LVL72:
 808              	.L53:
 302:C:/Users/stapi/OneDrive/Desktop/GD32VW553/V1_MQTT_OK/GD32VW55X_Wifi_BLE_SDK/GD32VW55x_RELEASE_V1.0.2/MSDK/cloud/alicloud/src/protocol/alcs\alcs_api.c ****     }
 809              		.loc 1 302 16
 810 0062 0145     		li	a0,0
 811              	.LVL73:
 812              		.loc 1 306 1
 813 0064 8280     		ret
 814              		.cfi_endproc
 815              	.LFE35:
 817              		.section	.rodata.get_session_by_checksum.str1.4,"aMS",@progbits,1
 818              		.align	2
 819              	.LC7:
 820 0000 66696E64 		.string	"find node, sessionid:%d"
 820      206E6F64 
 820      652C2073 
 820      65737369 
 820      6F6E6964 
 821              		.section	.text.get_session_by_checksum,"ax",@progbits
 822              		.align	1
 823              		.globl	get_session_by_checksum
 825              	get_session_by_checksum:
 826              	.LFB23:
  48:C:/Users/stapi/OneDrive/Desktop/GD32VW553/V1_MQTT_OK/GD32VW55X_Wifi_BLE_SDK/GD32VW55x_RELEASE_V1.0.2/MSDK/cloud/alicloud/src/protocol/alcs\alcs_api.c ****     if (!sessions || !ck) {
 827              		.loc 1 48 1 is_stmt 1
 828              		.cfi_startproc
 829              	.LVL74:
 830 0000 17030000 		call	t0,__riscv_save_6
 830      E7020300 
 831              		.cfi_offset 21, -28
 832              		.cfi_offset 20, -24
 833              		.cfi_offset 19, -20
 834              		.cfi_offset 18, -16
 835              		.cfi_offset 9, -12
 836              		.cfi_offset 8, -8
 837              		.cfi_offset 1, -4
 838              		.cfi_def_cfa_offset 32
  49:C:/Users/stapi/OneDrive/Desktop/GD32VW553/V1_MQTT_OK/GD32VW55X_Wifi_BLE_SDK/GD32VW55x_RELEASE_V1.0.2/MSDK/cloud/alicloud/src/protocol/alcs\alcs_api.c ****         return NULL;
 839              		.loc 1 49 5
  48:C:/Users/stapi/OneDrive/Desktop/GD32VW553/V1_MQTT_OK/GD32VW55X_Wifi_BLE_SDK/GD32VW55x_RELEASE_V1.0.2/MSDK/cloud/alicloud/src/protocol/alcs\alcs_api.c ****     if (!sessions || !ck) {
 840              		.loc 1 48 1 is_stmt 0
 841 0008 2A84     		mv	s0,a0
  49:C:/Users/stapi/OneDrive/Desktop/GD32VW553/V1_MQTT_OK/GD32VW55X_Wifi_BLE_SDK/GD32VW55x_RELEASE_V1.0.2/MSDK/cloud/alicloud/src/protocol/alcs\alcs_api.c ****         return NULL;
 842              		.loc 1 49 8
 843 000a 51CD     		beq	a0,zero,.L61
 844 000c 328A     		mv	s4,a2
  49:C:/Users/stapi/OneDrive/Desktop/GD32VW553/V1_MQTT_OK/GD32VW55X_Wifi_BLE_SDK/GD32VW55x_RELEASE_V1.0.2/MSDK/cloud/alicloud/src/protocol/alcs\alcs_api.c ****         return NULL;
 845              		.loc 1 49 19 discriminator 1
 846 000e 15CE     		beq	a2,zero,.L65
  54:C:/Users/stapi/OneDrive/Desktop/GD32VW553/V1_MQTT_OK/GD32VW55X_Wifi_BLE_SDK/GD32VW55x_RELEASE_V1.0.2/MSDK/cloud/alicloud/src/protocol/alcs\alcs_api.c **** 
 847              		.loc 1 54 5
 848 0010 37090000 		lui	s2,%hi(.LANCHOR0)
 849 0014 93070900 		addi	a5,s2,%lo(.LANCHOR0)
 850 0018 8847     		lw	a0,8(a5)
 851              	.LVL75:
 852 001a AE8A     		mv	s5,a1
  53:C:/Users/stapi/OneDrive/Desktop/GD32VW553/V1_MQTT_OK/GD32VW55X_Wifi_BLE_SDK/GD32VW55x_RELEASE_V1.0.2/MSDK/cloud/alicloud/src/protocol/alcs\alcs_api.c ****     HAL_MutexLock(dev_lst->list_mutex);
 853              		.loc 1 53 5 is_stmt 1
 854              	.LVL76:
  54:C:/Users/stapi/OneDrive/Desktop/GD32VW553/V1_MQTT_OK/GD32VW55X_Wifi_BLE_SDK/GD32VW55x_RELEASE_V1.0.2/MSDK/cloud/alicloud/src/protocol/alcs\alcs_api.c **** 
 855              		.loc 1 54 5
 856 001c 13090900 		addi	s2,s2,%lo(.LANCHOR0)
 857 0020 97000000 		call	HAL_MutexLock
 857      E7800000 
 858              	.LVL77:
  56:C:/Users/stapi/OneDrive/Desktop/GD32VW553/V1_MQTT_OK/GD32VW55X_Wifi_BLE_SDK/GD32VW55x_RELEASE_V1.0.2/MSDK/cloud/alicloud/src/protocol/alcs\alcs_api.c ****     list_for_each_entry_safe(node, next, sessions, lst, session_item) {
 859              		.loc 1 56 5
  57:C:/Users/stapi/OneDrive/Desktop/GD32VW553/V1_MQTT_OK/GD32VW55X_Wifi_BLE_SDK/GD32VW55x_RELEASE_V1.0.2/MSDK/cloud/alicloud/src/protocol/alcs\alcs_api.c ****         if (is_networkadd_same(addr, &node->addr)
 860              		.loc 1 57 5
 861 0028 5C40     		lw	a5,4(s0)
 862 002a 83A94700 		lw	s3,4(a5)
 863 002e 938447F4 		addi	s1,a5,-188
 864              	.LVL78:
 865 0032 938949F4 		addi	s3,s3,-188
 866              	.LVL79:
 867              	.L62:
  57:C:/Users/stapi/OneDrive/Desktop/GD32VW553/V1_MQTT_OK/GD32VW55X_Wifi_BLE_SDK/GD32VW55x_RELEASE_V1.0.2/MSDK/cloud/alicloud/src/protocol/alcs\alcs_api.c ****         if (is_networkadd_same(addr, &node->addr)
 868              		.loc 1 57 5 discriminator 1
 869 0036 9387C40B 		addi	a5,s1,188
 870 003a 631AF400 		bne	s0,a5,.L64
  66:C:/Users/stapi/OneDrive/Desktop/GD32VW553/V1_MQTT_OK/GD32VW55X_Wifi_BLE_SDK/GD32VW55x_RELEASE_V1.0.2/MSDK/cloud/alicloud/src/protocol/alcs\alcs_api.c ****     return NULL;
 871              		.loc 1 66 5
 872 003e 03258900 		lw	a0,8(s2)
 873 0042 97000000 		call	HAL_MutexUnlock
 873      E7800000 
 874              	.LVL80:
  67:C:/Users/stapi/OneDrive/Desktop/GD32VW553/V1_MQTT_OK/GD32VW55X_Wifi_BLE_SDK/GD32VW55x_RELEASE_V1.0.2/MSDK/cloud/alicloud/src/protocol/alcs\alcs_api.c **** }
 875              		.loc 1 67 5
 876              	.L65:
  50:C:/Users/stapi/OneDrive/Desktop/GD32VW553/V1_MQTT_OK/GD32VW55X_Wifi_BLE_SDK/GD32VW55x_RELEASE_V1.0.2/MSDK/cloud/alicloud/src/protocol/alcs\alcs_api.c ****     }
 877              		.loc 1 50 16 is_stmt 0
 878 004a 0144     		li	s0,0
 879              	.LVL81:
 880 004c A9A8     		j	.L61
 881              	.LVL82:
 882              	.L64:
  58:C:/Users/stapi/OneDrive/Desktop/GD32VW553/V1_MQTT_OK/GD32VW55X_Wifi_BLE_SDK/GD32VW55x_RELEASE_V1.0.2/MSDK/cloud/alicloud/src/protocol/alcs\alcs_api.c ****                 && strncmp(node->pk_dn, ck, PK_DN_CHECKSUM_LEN) == 0)
 883              		.loc 1 58 9 is_stmt 1
  58:C:/Users/stapi/OneDrive/Desktop/GD32VW553/V1_MQTT_OK/GD32VW55X_Wifi_BLE_SDK/GD32VW55x_RELEASE_V1.0.2/MSDK/cloud/alicloud/src/protocol/alcs\alcs_api.c ****                 && strncmp(node->pk_dn, ck, PK_DN_CHECKSUM_LEN) == 0)
 884              		.loc 1 58 13 is_stmt 0
 885 004e 93854405 		addi	a1,s1,84
 886 0052 5685     		mv	a0,s5
 887 0054 97000000 		call	is_networkadd_same
 887      E7800000 
 888              	.LVL83:
  58:C:/Users/stapi/OneDrive/Desktop/GD32VW553/V1_MQTT_OK/GD32VW55X_Wifi_BLE_SDK/GD32VW55x_RELEASE_V1.0.2/MSDK/cloud/alicloud/src/protocol/alcs\alcs_api.c ****                 && strncmp(node->pk_dn, ck, PK_DN_CHECKSUM_LEN) == 0)
 889              		.loc 1 58 12
 890 005c 31C9     		beq	a0,zero,.L63
  59:C:/Users/stapi/OneDrive/Desktop/GD32VW553/V1_MQTT_OK/GD32VW55X_Wifi_BLE_SDK/GD32VW55x_RELEASE_V1.0.2/MSDK/cloud/alicloud/src/protocol/alcs\alcs_api.c ****         {
 891              		.loc 1 59 20
 892 005e 1946     		li	a2,6
 893 0060 D285     		mv	a1,s4
 894 0062 13855403 		addi	a0,s1,53
 895 0066 97000000 		call	strncmp
 895      E7800000 
 896              	.LVL84:
  59:C:/Users/stapi/OneDrive/Desktop/GD32VW553/V1_MQTT_OK/GD32VW55X_Wifi_BLE_SDK/GD32VW55x_RELEASE_V1.0.2/MSDK/cloud/alicloud/src/protocol/alcs\alcs_api.c ****         {
 897              		.loc 1 59 17
 898 006e 29E1     		bne	a0,zero,.L63
  61:C:/Users/stapi/OneDrive/Desktop/GD32VW553/V1_MQTT_OK/GD32VW55X_Wifi_BLE_SDK/GD32VW55x_RELEASE_V1.0.2/MSDK/cloud/alicloud/src/protocol/alcs\alcs_api.c ****             HAL_MutexUnlock(dev_lst->list_mutex);
 899              		.loc 1 61 13 is_stmt 1
 900 0070 9C40     		lw	a5,0(s1)
 901 0072 37070000 		lui	a4,%hi(.LC7)
 902 0076 B7050000 		lui	a1,%hi(.LANCHOR5)
 903 007a 37050000 		lui	a0,%hi(.LC6)
 904 007e 13070700 		addi	a4,a4,%lo(.LC7)
 905 0082 9546     		li	a3,5
 906 0084 1306D003 		li	a2,61
 907 0088 93850500 		addi	a1,a1,%lo(.LANCHOR5)
 908 008c 13050500 		addi	a0,a0,%lo(.LC6)
 909 0090 97000000 		call	LITE_syslog
 909      E7800000 
 910              	.LVL85:
  62:C:/Users/stapi/OneDrive/Desktop/GD32VW553/V1_MQTT_OK/GD32VW55X_Wifi_BLE_SDK/GD32VW55x_RELEASE_V1.0.2/MSDK/cloud/alicloud/src/protocol/alcs\alcs_api.c ****             return node;
 911              		.loc 1 62 13
 912 0098 03258900 		lw	a0,8(s2)
  63:C:/Users/stapi/OneDrive/Desktop/GD32VW553/V1_MQTT_OK/GD32VW55X_Wifi_BLE_SDK/GD32VW55x_RELEASE_V1.0.2/MSDK/cloud/alicloud/src/protocol/alcs\alcs_api.c ****         }
 913              		.loc 1 63 20 is_stmt 0
 914 009c 2684     		mv	s0,s1
 915              	.LVL86:
  62:C:/Users/stapi/OneDrive/Desktop/GD32VW553/V1_MQTT_OK/GD32VW55X_Wifi_BLE_SDK/GD32VW55x_RELEASE_V1.0.2/MSDK/cloud/alicloud/src/protocol/alcs\alcs_api.c ****             return node;
 916              		.loc 1 62 13
 917 009e 97000000 		call	HAL_MutexUnlock
 917      E7800000 
 918              	.LVL87:
  63:C:/Users/stapi/OneDrive/Desktop/GD32VW553/V1_MQTT_OK/GD32VW55X_Wifi_BLE_SDK/GD32VW55x_RELEASE_V1.0.2/MSDK/cloud/alicloud/src/protocol/alcs\alcs_api.c ****         }
 919              		.loc 1 63 13 is_stmt 1
 920              	.L61:
  68:C:/Users/stapi/OneDrive/Desktop/GD32VW553/V1_MQTT_OK/GD32VW55X_Wifi_BLE_SDK/GD32VW55x_RELEASE_V1.0.2/MSDK/cloud/alicloud/src/protocol/alcs\alcs_api.c **** 
 921              		.loc 1 68 1 is_stmt 0
 922 00a6 2285     		mv	a0,s0
 923 00a8 17030000 		tail	__riscv_restore_6
 923      67000300 
 924              		.cfi_remember_state
 925              		.cfi_restore 21
 926              		.cfi_restore 20
 927              		.cfi_restore 19
 928              		.cfi_restore 18
 929              		.cfi_restore 9
 930              		.cfi_restore 8
 931              		.cfi_restore 1
 932              		.cfi_def_cfa_offset 0
 933              	.LVL88:
 934              	.L63:
 935              		.cfi_restore_state
  57:C:/Users/stapi/OneDrive/Desktop/GD32VW553/V1_MQTT_OK/GD32VW55X_Wifi_BLE_SDK/GD32VW55x_RELEASE_V1.0.2/MSDK/cloud/alicloud/src/protocol/alcs\alcs_api.c ****         if (is_networkadd_same(addr, &node->addr)
 936              		.loc 1 57 5 is_stmt 1 discriminator 2
 937 00b0 83A7090C 		lw	a5,192(s3)
 938              	.LVL89:
 939 00b4 CE84     		mv	s1,s3
 940 00b6 938947F4 		addi	s3,a5,-188
 941              	.LVL90:
 942 00ba B5BF     		j	.L62
 943              		.cfi_endproc
 944              	.LFE23:
 946              		.section	.rodata.get_svr_session.str1.4,"aMS",@progbits,1
 947              		.align	2
 948              	.LC8:
 949 0000 25732573 		.string	"%s%s"
 949      00
 950              		.section	.text.get_svr_session,"ax",@progbits
 951              		.align	1
 952              		.globl	get_svr_session
 954              	get_svr_session:
 955              	.LFB26:
 122:C:/Users/stapi/OneDrive/Desktop/GD32VW553/V1_MQTT_OK/GD32VW55X_Wifi_BLE_SDK/GD32VW55x_RELEASE_V1.0.2/MSDK/cloud/alicloud/src/protocol/alcs\alcs_api.c ****     struct list_head* sessions = get_svr_session_list();
 956              		.loc 1 122 1
 957              		.cfi_startproc
 958              	.LVL91:
 959 0000 17030000 		call	t0,__riscv_save_2
 959      E7020300 
 960              		.cfi_offset 9, -12
 961              		.cfi_offset 8, -8
 962              		.cfi_offset 1, -4
 963              		.cfi_def_cfa_offset 16
 123:C:/Users/stapi/OneDrive/Desktop/GD32VW553/V1_MQTT_OK/GD32VW55X_Wifi_BLE_SDK/GD32VW55x_RELEASE_V1.0.2/MSDK/cloud/alicloud/src/protocol/alcs\alcs_api.c ****     return get_session (sessions, devKey);
 964              		.loc 1 123 5
 123:C:/Users/stapi/OneDrive/Desktop/GD32VW553/V1_MQTT_OK/GD32VW55X_Wifi_BLE_SDK/GD32VW55x_RELEASE_V1.0.2/MSDK/cloud/alicloud/src/protocol/alcs\alcs_api.c ****     return get_session (sessions, devKey);
 965              		.loc 1 123 34 is_stmt 0
 966 0008 B7040000 		lui	s1,%hi(.LANCHOR0)
 967 000c 93840400 		addi	s1,s1,%lo(.LANCHOR0)
 968 0010 83C7C402 		lbu	a5,44(s1)
 122:C:/Users/stapi/OneDrive/Desktop/GD32VW553/V1_MQTT_OK/GD32VW55X_Wifi_BLE_SDK/GD32VW55x_RELEASE_V1.0.2/MSDK/cloud/alicloud/src/protocol/alcs\alcs_api.c ****     struct list_head* sessions = get_svr_session_list();
 969              		.loc 1 122 1
 970 0014 1971     		addi	sp,sp,-128
 971              		.cfi_def_cfa_offset 144
 123:C:/Users/stapi/OneDrive/Desktop/GD32VW553/V1_MQTT_OK/GD32VW55X_Wifi_BLE_SDK/GD32VW55x_RELEASE_V1.0.2/MSDK/cloud/alicloud/src/protocol/alcs\alcs_api.c ****     return get_session (sessions, devKey);
 972              		.loc 1 123 34
 973 0016 898B     		andi	a5,a5,2
 974 0018 BDCF     		beq	a5,zero,.L77
 975 001a 2A84     		mv	s0,a0
 976              	.LVL92:
 124:C:/Users/stapi/OneDrive/Desktop/GD32VW553/V1_MQTT_OK/GD32VW55X_Wifi_BLE_SDK/GD32VW55x_RELEASE_V1.0.2/MSDK/cloud/alicloud/src/protocol/alcs\alcs_api.c **** }
 977              		.loc 1 124 5 is_stmt 1
 978              	.LBB72:
 979              	.LBB73:
  72:C:/Users/stapi/OneDrive/Desktop/GD32VW553/V1_MQTT_OK/GD32VW55X_Wifi_BLE_SDK/GD32VW55x_RELEASE_V1.0.2/MSDK/cloud/alicloud/src/protocol/alcs\alcs_api.c ****         return NULL;
 980              		.loc 1 72 5
  73:C:/Users/stapi/OneDrive/Desktop/GD32VW553/V1_MQTT_OK/GD32VW55X_Wifi_BLE_SDK/GD32VW55x_RELEASE_V1.0.2/MSDK/cloud/alicloud/src/protocol/alcs\alcs_api.c ****     }
 981              		.loc 1 73 16 is_stmt 0
 982 001c 8146     		li	a3,0
  72:C:/Users/stapi/OneDrive/Desktop/GD32VW553/V1_MQTT_OK/GD32VW55X_Wifi_BLE_SDK/GD32VW55x_RELEASE_V1.0.2/MSDK/cloud/alicloud/src/protocol/alcs\alcs_api.c ****         return NULL;
 983              		.loc 1 72 19
 984 001e 35C5     		beq	a0,zero,.L73
  72:C:/Users/stapi/OneDrive/Desktop/GD32VW553/V1_MQTT_OK/GD32VW55X_Wifi_BLE_SDK/GD32VW55x_RELEASE_V1.0.2/MSDK/cloud/alicloud/src/protocol/alcs\alcs_api.c ****         return NULL;
 985              		.loc 1 72 40
 986 0020 5449     		lw	a3,20(a0)
  72:C:/Users/stapi/OneDrive/Desktop/GD32VW553/V1_MQTT_OK/GD32VW55X_Wifi_BLE_SDK/GD32VW55x_RELEASE_V1.0.2/MSDK/cloud/alicloud/src/protocol/alcs\alcs_api.c ****         return NULL;
 987              		.loc 1 72 30
 988 0022 A5C6     		beq	a3,zero,.L73
  72:C:/Users/stapi/OneDrive/Desktop/GD32VW553/V1_MQTT_OK/GD32VW55X_Wifi_BLE_SDK/GD32VW55x_RELEASE_V1.0.2/MSDK/cloud/alicloud/src/protocol/alcs\alcs_api.c ****         return NULL;
 989              		.loc 1 72 55
 990 0024 184D     		lw	a4,24(a0)
 991 0026 36C6     		sw	a3,12(sp)
  72:C:/Users/stapi/OneDrive/Desktop/GD32VW553/V1_MQTT_OK/GD32VW55X_Wifi_BLE_SDK/GD32VW55x_RELEASE_V1.0.2/MSDK/cloud/alicloud/src/protocol/alcs\alcs_api.c ****         return NULL;
 992              		.loc 1 72 45
 993 0028 3AC4     		sw	a4,8(sp)
 994 002a 35C7     		beq	a4,zero,.L77
  76:C:/Users/stapi/OneDrive/Desktop/GD32VW553/V1_MQTT_OK/GD32VW55X_Wifi_BLE_SDK/GD32VW55x_RELEASE_V1.0.2/MSDK/cloud/alicloud/src/protocol/alcs\alcs_api.c ****     char path[100] = {0};
 995              		.loc 1 76 5 is_stmt 1
  77:C:/Users/stapi/OneDrive/Desktop/GD32VW553/V1_MQTT_OK/GD32VW55X_Wifi_BLE_SDK/GD32VW55x_RELEASE_V1.0.2/MSDK/cloud/alicloud/src/protocol/alcs\alcs_api.c ****     snprintf (path, sizeof(path), "%s%s", devKey->pk, devKey->dn);
 996              		.loc 1 77 10 is_stmt 0
 997 002c 13060006 		li	a2,96
 998 0030 8145     		li	a1,0
 999 0032 0810     		addi	a0,sp,32
 1000              	.LVL93:
  76:C:/Users/stapi/OneDrive/Desktop/GD32VW553/V1_MQTT_OK/GD32VW55X_Wifi_BLE_SDK/GD32VW55x_RELEASE_V1.0.2/MSDK/cloud/alicloud/src/protocol/alcs\alcs_api.c ****     char path[100] = {0};
 1001              		.loc 1 76 10
 1002 0034 02CA     		sw	zero,20(sp)
 1003 0036 231C0100 		sh	zero,24(sp)
  77:C:/Users/stapi/OneDrive/Desktop/GD32VW553/V1_MQTT_OK/GD32VW55X_Wifi_BLE_SDK/GD32VW55x_RELEASE_V1.0.2/MSDK/cloud/alicloud/src/protocol/alcs\alcs_api.c ****     snprintf (path, sizeof(path), "%s%s", devKey->pk, devKey->dn);
 1004              		.loc 1 77 5 is_stmt 1
  77:C:/Users/stapi/OneDrive/Desktop/GD32VW553/V1_MQTT_OK/GD32VW55X_Wifi_BLE_SDK/GD32VW55x_RELEASE_V1.0.2/MSDK/cloud/alicloud/src/protocol/alcs\alcs_api.c ****     snprintf (path, sizeof(path), "%s%s", devKey->pk, devKey->dn);
 1005              		.loc 1 77 10 is_stmt 0
 1006 003a 02CE     		sw	zero,28(sp)
 1007 003c 97000000 		call	memset
 1007      E7800000 
 1008              	.LVL94:
  78:C:/Users/stapi/OneDrive/Desktop/GD32VW553/V1_MQTT_OK/GD32VW55X_Wifi_BLE_SDK/GD32VW55x_RELEASE_V1.0.2/MSDK/cloud/alicloud/src/protocol/alcs\alcs_api.c ****     CoAPPathMD5_sum (path, strlen(path), ck, PK_DN_CHECKSUM_LEN);
 1009              		.loc 1 78 5 is_stmt 1
 1010 0044 2247     		lw	a4,8(sp)
 1011 0046 B246     		lw	a3,12(sp)
 1012 0048 37060000 		lui	a2,%hi(.LC8)
 1013 004c 13060600 		addi	a2,a2,%lo(.LC8)
 1014 0050 93054006 		li	a1,100
 1015 0054 6808     		addi	a0,sp,28
 1016 0056 97000000 		call	snprintf
 1016      E7800000 
 1017              	.LVL95:
  79:C:/Users/stapi/OneDrive/Desktop/GD32VW553/V1_MQTT_OK/GD32VW55X_Wifi_BLE_SDK/GD32VW55x_RELEASE_V1.0.2/MSDK/cloud/alicloud/src/protocol/alcs\alcs_api.c **** 
 1018              		.loc 1 79 5
  79:C:/Users/stapi/OneDrive/Desktop/GD32VW553/V1_MQTT_OK/GD32VW55X_Wifi_BLE_SDK/GD32VW55x_RELEASE_V1.0.2/MSDK/cloud/alicloud/src/protocol/alcs\alcs_api.c **** 
 1019              		.loc 1 79 28 is_stmt 0
 1020 005e 6808     		addi	a0,sp,28
 1021 0060 97000000 		call	strlen
 1021      E7800000 
 1022              	.LVL96:
 1023 0068 AA85     		mv	a1,a0
  79:C:/Users/stapi/OneDrive/Desktop/GD32VW553/V1_MQTT_OK/GD32VW55X_Wifi_BLE_SDK/GD32VW55x_RELEASE_V1.0.2/MSDK/cloud/alicloud/src/protocol/alcs\alcs_api.c **** 
 1024              		.loc 1 79 5
 1025 006a 9946     		li	a3,6
 1026 006c 5008     		addi	a2,sp,20
 1027 006e 6808     		addi	a0,sp,28
 1028 0070 97000000 		call	CoAPPathMD5_sum
 1028      E7800000 
 1029              	.LVL97:
  81:C:/Users/stapi/OneDrive/Desktop/GD32VW553/V1_MQTT_OK/GD32VW55X_Wifi_BLE_SDK/GD32VW55x_RELEASE_V1.0.2/MSDK/cloud/alicloud/src/protocol/alcs\alcs_api.c **** }
 1030              		.loc 1 81 5 is_stmt 1
  81:C:/Users/stapi/OneDrive/Desktop/GD32VW553/V1_MQTT_OK/GD32VW55X_Wifi_BLE_SDK/GD32VW55x_RELEASE_V1.0.2/MSDK/cloud/alicloud/src/protocol/alcs\alcs_api.c **** }
 1031              		.loc 1 81 12 is_stmt 0
 1032 0078 5008     		addi	a2,sp,20
 1033 007a A285     		mv	a1,s0
 1034 007c 1385C401 		addi	a0,s1,28
 1035 0080 97000000 		call	get_session_by_checksum
 1035      E7800000 
 1036              	.LVL98:
 1037 0088 AA86     		mv	a3,a0
 1038              	.LVL99:
 1039              	.L73:
 1040              	.LBE73:
 1041              	.LBE72:
 125:C:/Users/stapi/OneDrive/Desktop/GD32VW553/V1_MQTT_OK/GD32VW55X_Wifi_BLE_SDK/GD32VW55x_RELEASE_V1.0.2/MSDK/cloud/alicloud/src/protocol/alcs\alcs_api.c **** #endif
 1042              		.loc 1 125 1
 1043 008a 3685     		mv	a0,a3
 1044 008c 0961     		addi	sp,sp,128
 1045              		.cfi_remember_state
 1046              		.cfi_def_cfa_offset 0
 1047 008e 17030000 		tail	__riscv_restore_2
 1047      67000300 
 1048              		.cfi_restore 9
 1049              		.cfi_restore 8
 1050              		.cfi_restore 1
 1051              		.cfi_def_cfa_offset -16
 1052              	.LVL100:
 1053              	.L77:
 1054              		.cfi_restore_state
 1055              	.LBB75:
 1056              	.LBB74:
  73:C:/Users/stapi/OneDrive/Desktop/GD32VW553/V1_MQTT_OK/GD32VW55X_Wifi_BLE_SDK/GD32VW55x_RELEASE_V1.0.2/MSDK/cloud/alicloud/src/protocol/alcs\alcs_api.c ****     }
 1057              		.loc 1 73 16
 1058 0096 8146     		li	a3,0
 1059              	.LBE74:
 1060              	.LBE75:
 124:C:/Users/stapi/OneDrive/Desktop/GD32VW553/V1_MQTT_OK/GD32VW55X_Wifi_BLE_SDK/GD32VW55x_RELEASE_V1.0.2/MSDK/cloud/alicloud/src/protocol/alcs\alcs_api.c **** }
 1061              		.loc 1 124 12
 1062 0098 CDBF     		j	.L73
 1063              		.cfi_endproc
 1064              	.LFE26:
 1066              		.section	.text.remove_session_safe,"ax",@progbits
 1067              		.align	1
 1068              		.globl	remove_session_safe
 1070              	remove_session_safe:
 1071              	.LFB25:
  85:C:/Users/stapi/OneDrive/Desktop/GD32VW553/V1_MQTT_OK/GD32VW55X_Wifi_BLE_SDK/GD32VW55x_RELEASE_V1.0.2/MSDK/cloud/alicloud/src/protocol/alcs\alcs_api.c ****     if (!sessions || !devKey || !devKey->pk || !devKey->dn) {
 1072              		.loc 1 85 1 is_stmt 1
 1073              		.cfi_startproc
 1074              	.LVL101:
  86:C:/Users/stapi/OneDrive/Desktop/GD32VW553/V1_MQTT_OK/GD32VW55X_Wifi_BLE_SDK/GD32VW55x_RELEASE_V1.0.2/MSDK/cloud/alicloud/src/protocol/alcs\alcs_api.c ****         return;
 1075              		.loc 1 86 5
  86:C:/Users/stapi/OneDrive/Desktop/GD32VW553/V1_MQTT_OK/GD32VW55X_Wifi_BLE_SDK/GD32VW55x_RELEASE_V1.0.2/MSDK/cloud/alicloud/src/protocol/alcs\alcs_api.c ****         return;
 1076              		.loc 1 86 8 is_stmt 0
 1077 0000 E5C5     		beq	a1,zero,.L103
  85:C:/Users/stapi/OneDrive/Desktop/GD32VW553/V1_MQTT_OK/GD32VW55X_Wifi_BLE_SDK/GD32VW55x_RELEASE_V1.0.2/MSDK/cloud/alicloud/src/protocol/alcs\alcs_api.c ****     if (!sessions || !devKey || !devKey->pk || !devKey->dn) {
 1078              		.loc 1 85 1 discriminator 1
 1079 0002 17030000 		call	t0,__riscv_save_6
 1079      E7020300 
 1080              		.cfi_offset 21, -28
 1081              		.cfi_offset 20, -24
 1082              		.cfi_offset 19, -20
 1083              		.cfi_offset 18, -16
 1084              		.cfi_offset 9, -12
 1085              		.cfi_offset 8, -8
 1086              		.cfi_offset 1, -4
 1087              		.cfi_def_cfa_offset 32
 1088 000a 1971     		addi	sp,sp,-128
 1089              		.cfi_def_cfa_offset 160
 1090 000c 3284     		mv	s0,a2
  86:C:/Users/stapi/OneDrive/Desktop/GD32VW553/V1_MQTT_OK/GD32VW55X_Wifi_BLE_SDK/GD32VW55x_RELEASE_V1.0.2/MSDK/cloud/alicloud/src/protocol/alcs\alcs_api.c ****         return;
 1091              		.loc 1 86 19 discriminator 1
 1092 000e 71C2     		beq	a2,zero,.L82
  86:C:/Users/stapi/OneDrive/Desktop/GD32VW553/V1_MQTT_OK/GD32VW55X_Wifi_BLE_SDK/GD32VW55x_RELEASE_V1.0.2/MSDK/cloud/alicloud/src/protocol/alcs\alcs_api.c ****         return;
 1093              		.loc 1 86 40 discriminator 2
 1094 0010 544A     		lw	a3,20(a2)
  86:C:/Users/stapi/OneDrive/Desktop/GD32VW553/V1_MQTT_OK/GD32VW55X_Wifi_BLE_SDK/GD32VW55x_RELEASE_V1.0.2/MSDK/cloud/alicloud/src/protocol/alcs\alcs_api.c ****         return;
 1095              		.loc 1 86 30 discriminator 2
 1096 0012 36C6     		sw	a3,12(sp)
 1097 0014 DDCE     		beq	a3,zero,.L82
  86:C:/Users/stapi/OneDrive/Desktop/GD32VW553/V1_MQTT_OK/GD32VW55X_Wifi_BLE_SDK/GD32VW55x_RELEASE_V1.0.2/MSDK/cloud/alicloud/src/protocol/alcs\alcs_api.c ****         return;
 1098              		.loc 1 86 55 discriminator 3
 1099 0016 184E     		lw	a4,24(a2)
  86:C:/Users/stapi/OneDrive/Desktop/GD32VW553/V1_MQTT_OK/GD32VW55X_Wifi_BLE_SDK/GD32VW55x_RELEASE_V1.0.2/MSDK/cloud/alicloud/src/protocol/alcs\alcs_api.c ****         return;
 1100              		.loc 1 86 45 discriminator 3
 1101 0018 3AC4     		sw	a4,8(sp)
 1102 001a 45CF     		beq	a4,zero,.L82
 1103 001c AE84     		mv	s1,a1
  90:C:/Users/stapi/OneDrive/Desktop/GD32VW553/V1_MQTT_OK/GD32VW55X_Wifi_BLE_SDK/GD32VW55x_RELEASE_V1.0.2/MSDK/cloud/alicloud/src/protocol/alcs\alcs_api.c ****     char path[100] = {0};
 1104              		.loc 1 90 5 is_stmt 1
  91:C:/Users/stapi/OneDrive/Desktop/GD32VW553/V1_MQTT_OK/GD32VW55X_Wifi_BLE_SDK/GD32VW55x_RELEASE_V1.0.2/MSDK/cloud/alicloud/src/protocol/alcs\alcs_api.c ****     snprintf (path, sizeof(path), "%s%s", devKey->pk, devKey->dn);
 1105              		.loc 1 91 10 is_stmt 0
 1106 001e 13060006 		li	a2,96
 1107              	.LVL102:
 1108 0022 8145     		li	a1,0
 1109              	.LVL103:
 1110 0024 AA8A     		mv	s5,a0
 1111 0026 0810     		addi	a0,sp,32
 1112              	.LVL104:
  90:C:/Users/stapi/OneDrive/Desktop/GD32VW553/V1_MQTT_OK/GD32VW55X_Wifi_BLE_SDK/GD32VW55x_RELEASE_V1.0.2/MSDK/cloud/alicloud/src/protocol/alcs\alcs_api.c ****     char path[100] = {0};
 1113              		.loc 1 90 10
 1114 0028 02CA     		sw	zero,20(sp)
 1115 002a 231C0100 		sh	zero,24(sp)
  91:C:/Users/stapi/OneDrive/Desktop/GD32VW553/V1_MQTT_OK/GD32VW55X_Wifi_BLE_SDK/GD32VW55x_RELEASE_V1.0.2/MSDK/cloud/alicloud/src/protocol/alcs\alcs_api.c ****     snprintf (path, sizeof(path), "%s%s", devKey->pk, devKey->dn);
 1116              		.loc 1 91 5 is_stmt 1
  91:C:/Users/stapi/OneDrive/Desktop/GD32VW553/V1_MQTT_OK/GD32VW55X_Wifi_BLE_SDK/GD32VW55x_RELEASE_V1.0.2/MSDK/cloud/alicloud/src/protocol/alcs\alcs_api.c ****     snprintf (path, sizeof(path), "%s%s", devKey->pk, devKey->dn);
 1117              		.loc 1 91 10 is_stmt 0
 1118 002e 02CE     		sw	zero,28(sp)
 1119 0030 97000000 		call	memset
 1119      E7800000 
 1120              	.LVL105:
  92:C:/Users/stapi/OneDrive/Desktop/GD32VW553/V1_MQTT_OK/GD32VW55X_Wifi_BLE_SDK/GD32VW55x_RELEASE_V1.0.2/MSDK/cloud/alicloud/src/protocol/alcs\alcs_api.c ****     CoAPPathMD5_sum (path, strlen(path), ck, PK_DN_CHECKSUM_LEN);
 1121              		.loc 1 92 5 is_stmt 1
 1122 0038 2247     		lw	a4,8(sp)
 1123 003a B246     		lw	a3,12(sp)
 1124 003c 37060000 		lui	a2,%hi(.LC8)
 1125 0040 13060600 		addi	a2,a2,%lo(.LC8)
 1126 0044 93054006 		li	a1,100
 1127 0048 6808     		addi	a0,sp,28
 1128 004a 97000000 		call	snprintf
 1128      E7800000 
 1129              	.LVL106:
  93:C:/Users/stapi/OneDrive/Desktop/GD32VW553/V1_MQTT_OK/GD32VW55X_Wifi_BLE_SDK/GD32VW55x_RELEASE_V1.0.2/MSDK/cloud/alicloud/src/protocol/alcs\alcs_api.c **** 
 1130              		.loc 1 93 5
  93:C:/Users/stapi/OneDrive/Desktop/GD32VW553/V1_MQTT_OK/GD32VW55X_Wifi_BLE_SDK/GD32VW55x_RELEASE_V1.0.2/MSDK/cloud/alicloud/src/protocol/alcs\alcs_api.c **** 
 1131              		.loc 1 93 28 is_stmt 0
 1132 0052 6808     		addi	a0,sp,28
 1133 0054 97000000 		call	strlen
 1133      E7800000 
 1134              	.LVL107:
 1135 005c AA85     		mv	a1,a0
  93:C:/Users/stapi/OneDrive/Desktop/GD32VW553/V1_MQTT_OK/GD32VW55X_Wifi_BLE_SDK/GD32VW55x_RELEASE_V1.0.2/MSDK/cloud/alicloud/src/protocol/alcs\alcs_api.c **** 
 1136              		.loc 1 93 5
 1137 005e 9946     		li	a3,6
 1138 0060 5008     		addi	a2,sp,20
 1139 0062 6808     		addi	a0,sp,28
 1140 0064 97000000 		call	CoAPPathMD5_sum
 1140      E7800000 
 1141              	.LVL108:
  95:C:/Users/stapi/OneDrive/Desktop/GD32VW553/V1_MQTT_OK/GD32VW55X_Wifi_BLE_SDK/GD32VW55x_RELEASE_V1.0.2/MSDK/cloud/alicloud/src/protocol/alcs\alcs_api.c ****     HAL_MutexLock(dev_lst->list_mutex);
 1142              		.loc 1 95 5 is_stmt 1
  96:C:/Users/stapi/OneDrive/Desktop/GD32VW553/V1_MQTT_OK/GD32VW55X_Wifi_BLE_SDK/GD32VW55x_RELEASE_V1.0.2/MSDK/cloud/alicloud/src/protocol/alcs\alcs_api.c **** 
 1143              		.loc 1 96 5
 1144 006c 370A0000 		lui	s4,%hi(.LANCHOR0)
 1145 0070 93070A00 		addi	a5,s4,%lo(.LANCHOR0)
 1146 0074 8847     		lw	a0,8(a5)
 1147 0076 130A0A00 		addi	s4,s4,%lo(.LANCHOR0)
 1148 007a 97000000 		call	HAL_MutexLock
 1148      E7800000 
 1149              	.LVL109:
  98:C:/Users/stapi/OneDrive/Desktop/GD32VW553/V1_MQTT_OK/GD32VW55X_Wifi_BLE_SDK/GD32VW55x_RELEASE_V1.0.2/MSDK/cloud/alicloud/src/protocol/alcs\alcs_api.c ****     list_for_each_entry_safe(node, next, sessions, lst, session_item) {
 1150              		.loc 1 98 5
  99:C:/Users/stapi/OneDrive/Desktop/GD32VW553/V1_MQTT_OK/GD32VW55X_Wifi_BLE_SDK/GD32VW55x_RELEASE_V1.0.2/MSDK/cloud/alicloud/src/protocol/alcs\alcs_api.c ****         if (is_networkadd_same(&devKey->addr, &node->addr)
 1151              		.loc 1 99 5
 1152 0082 DC40     		lw	a5,4(s1)
 1153 0084 83A94700 		lw	s3,4(a5)
 1154 0088 138947F4 		addi	s2,a5,-188
 1155              	.LVL110:
 1156 008c 938949F4 		addi	s3,s3,-188
 1157              	.LVL111:
 1158              	.L86:
  99:C:/Users/stapi/OneDrive/Desktop/GD32VW553/V1_MQTT_OK/GD32VW55X_Wifi_BLE_SDK/GD32VW55x_RELEASE_V1.0.2/MSDK/cloud/alicloud/src/protocol/alcs\alcs_api.c ****         if (is_networkadd_same(&devKey->addr, &node->addr)
 1159              		.loc 1 99 5 discriminator 1
 1160 0090 9307C90B 		addi	a5,s2,188
 1161 0094 6389F402 		beq	s1,a5,.L88
 100:C:/Users/stapi/OneDrive/Desktop/GD32VW553/V1_MQTT_OK/GD32VW55X_Wifi_BLE_SDK/GD32VW55x_RELEASE_V1.0.2/MSDK/cloud/alicloud/src/protocol/alcs\alcs_api.c ****                 && strncmp(node->pk_dn, ck, PK_DN_CHECKSUM_LEN) == 0)
 1162              		.loc 1 100 9
 100:C:/Users/stapi/OneDrive/Desktop/GD32VW553/V1_MQTT_OK/GD32VW55X_Wifi_BLE_SDK/GD32VW55x_RELEASE_V1.0.2/MSDK/cloud/alicloud/src/protocol/alcs\alcs_api.c ****                 && strncmp(node->pk_dn, ck, PK_DN_CHECKSUM_LEN) == 0)
 1163              		.loc 1 100 13 is_stmt 0
 1164 0098 93054905 		addi	a1,s2,84
 1165 009c 2285     		mv	a0,s0
 1166 009e 97000000 		call	is_networkadd_same
 1166      E7800000 
 1167              	.LVL112:
 100:C:/Users/stapi/OneDrive/Desktop/GD32VW553/V1_MQTT_OK/GD32VW55X_Wifi_BLE_SDK/GD32VW55x_RELEASE_V1.0.2/MSDK/cloud/alicloud/src/protocol/alcs\alcs_api.c ****                 && strncmp(node->pk_dn, ck, PK_DN_CHECKSUM_LEN) == 0)
 1168              		.loc 1 100 12
 1169 00a6 1DC9     		beq	a0,zero,.L87
 101:C:/Users/stapi/OneDrive/Desktop/GD32VW553/V1_MQTT_OK/GD32VW55X_Wifi_BLE_SDK/GD32VW55x_RELEASE_V1.0.2/MSDK/cloud/alicloud/src/protocol/alcs\alcs_api.c ****         {
 1170              		.loc 1 101 20
 1171 00a8 1946     		li	a2,6
 1172 00aa 4C08     		addi	a1,sp,20
 1173 00ac 13055903 		addi	a0,s2,53
 1174 00b0 97000000 		call	strncmp
 1174      E7800000 
 1175              	.LVL113:
 101:C:/Users/stapi/OneDrive/Desktop/GD32VW553/V1_MQTT_OK/GD32VW55X_Wifi_BLE_SDK/GD32VW55x_RELEASE_V1.0.2/MSDK/cloud/alicloud/src/protocol/alcs\alcs_api.c ****         {
 1176              		.loc 1 101 17
 1177 00b8 15E1     		bne	a0,zero,.L87
 103:C:/Users/stapi/OneDrive/Desktop/GD32VW553/V1_MQTT_OK/GD32VW55X_Wifi_BLE_SDK/GD32VW55x_RELEASE_V1.0.2/MSDK/cloud/alicloud/src/protocol/alcs\alcs_api.c ****             break;
 1178              		.loc 1 103 13 is_stmt 1
 1179 00ba CA85     		mv	a1,s2
 1180 00bc 5685     		mv	a0,s5
 1181 00be 97000000 		call	remove_session
 1181      E7800000 
 1182              	.LVL114:
 104:C:/Users/stapi/OneDrive/Desktop/GD32VW553/V1_MQTT_OK/GD32VW55X_Wifi_BLE_SDK/GD32VW55x_RELEASE_V1.0.2/MSDK/cloud/alicloud/src/protocol/alcs\alcs_api.c ****         }
 1183              		.loc 1 104 13
 1184              	.L88:
 107:C:/Users/stapi/OneDrive/Desktop/GD32VW553/V1_MQTT_OK/GD32VW55X_Wifi_BLE_SDK/GD32VW55x_RELEASE_V1.0.2/MSDK/cloud/alicloud/src/protocol/alcs\alcs_api.c **** }
 1185              		.loc 1 107 5
 1186 00c6 03258A00 		lw	a0,8(s4)
 1187 00ca 97000000 		call	HAL_MutexUnlock
 1187      E7800000 
 1188              	.LVL115:
 1189              	.L82:
 108:C:/Users/stapi/OneDrive/Desktop/GD32VW553/V1_MQTT_OK/GD32VW55X_Wifi_BLE_SDK/GD32VW55x_RELEASE_V1.0.2/MSDK/cloud/alicloud/src/protocol/alcs\alcs_api.c **** 
 1190              		.loc 1 108 1 is_stmt 0
 1191 00d2 0961     		addi	sp,sp,128
 1192              		.cfi_remember_state
 1193              		.cfi_def_cfa_offset 0
 1194 00d4 17030000 		tail	__riscv_restore_6
 1194      67000300 
 1195              		.cfi_restore 21
 1196              		.cfi_restore 20
 1197              		.cfi_restore 19
 1198              		.cfi_restore 18
 1199              		.cfi_restore 9
 1200              		.cfi_restore 8
 1201              		.cfi_restore 1
 1202              		.cfi_def_cfa_offset -32
 1203              	.LVL116:
 1204              	.L87:
 1205              		.cfi_restore_state
  99:C:/Users/stapi/OneDrive/Desktop/GD32VW553/V1_MQTT_OK/GD32VW55X_Wifi_BLE_SDK/GD32VW55x_RELEASE_V1.0.2/MSDK/cloud/alicloud/src/protocol/alcs\alcs_api.c ****         if (is_networkadd_same(&devKey->addr, &node->addr)
 1206              		.loc 1 99 5 is_stmt 1 discriminator 2
 1207 00dc 83A7090C 		lw	a5,192(s3)
 1208              	.LVL117:
 1209 00e0 4E89     		mv	s2,s3
 1210 00e2 938947F4 		addi	s3,a5,-188
 1211              	.LVL118:
 1212 00e6 6DB7     		j	.L86
 1213              	.LVL119:
 1214              	.L103:
 1215              		.cfi_def_cfa_offset 0
 1216              		.cfi_restore 1
 1217              		.cfi_restore 8
 1218              		.cfi_restore 9
 1219              		.cfi_restore 18
 1220              		.cfi_restore 19
 1221              		.cfi_restore 20
 1222              		.cfi_restore 21
 1223 00e8 8280     		ret
 1224              		.cfi_endproc
 1225              	.LFE25:
 1227              		.section	.rodata.alcs_encrypt.str1.4,"aMS",@progbits,1
 1228              		.align	2
 1229              	.LC9:
 1230 0000 61316231 		.string	"a1b1c1d1e1f1g1h1"
 1230      63316431 
 1230      65316631 
 1230      67316831 
 1230      00
 1231 0011 000000   		.align	2
 1232              	.LC10:
 1233 0014 746F2065 		.string	"to encrypt src:%.*s, len:%d"
 1233      6E637279 
 1233      70742073 
 1233      72633A25 
 1233      2E2A732C 
 1234              		.section	.text.alcs_encrypt,"ax",@progbits
 1235              		.align	1
 1236              		.globl	alcs_encrypt
 1238              	alcs_encrypt:
 1239              	.LFB36:
 307:C:/Users/stapi/OneDrive/Desktop/GD32VW553/V1_MQTT_OK/GD32VW55X_Wifi_BLE_SDK/GD32VW55x_RELEASE_V1.0.2/MSDK/cloud/alicloud/src/protocol/alcs\alcs_api.c **** 
 308:C:/Users/stapi/OneDrive/Desktop/GD32VW553/V1_MQTT_OK/GD32VW55X_Wifi_BLE_SDK/GD32VW55x_RELEASE_V1.0.2/MSDK/cloud/alicloud/src/protocol/alcs\alcs_api.c **** int alcs_encrypt (const char* src, int len, const char* key, void* out)
 309:C:/Users/stapi/OneDrive/Desktop/GD32VW553/V1_MQTT_OK/GD32VW55X_Wifi_BLE_SDK/GD32VW55x_RELEASE_V1.0.2/MSDK/cloud/alicloud/src/protocol/alcs\alcs_api.c **** {
 1240              		.loc 1 309 1
 1241              		.cfi_startproc
 1242              	.LVL120:
 1243 0000 17030000 		call	t0,__riscv_save_9
 1243      E7020300 
 1244              		.cfi_offset 24, -40
 1245              		.cfi_offset 23, -36
 1246              		.cfi_offset 22, -32
 1247              		.cfi_offset 21, -28
 1248              		.cfi_offset 20, -24
 1249              		.cfi_offset 19, -20
 1250              		.cfi_offset 18, -16
 1251              		.cfi_offset 9, -12
 1252              		.cfi_offset 8, -8
 1253              		.cfi_offset 1, -4
 1254              		.cfi_def_cfa_offset 48
 310:C:/Users/stapi/OneDrive/Desktop/GD32VW553/V1_MQTT_OK/GD32VW55X_Wifi_BLE_SDK/GD32VW55x_RELEASE_V1.0.2/MSDK/cloud/alicloud/src/protocol/alcs\alcs_api.c ****     char* iv = "a1b1c1d1e1f1g1h1";
 1255              		.loc 1 310 5
 1256              	.LVL121:
 311:C:/Users/stapi/OneDrive/Desktop/GD32VW553/V1_MQTT_OK/GD32VW55X_Wifi_BLE_SDK/GD32VW55x_RELEASE_V1.0.2/MSDK/cloud/alicloud/src/protocol/alcs\alcs_api.c **** 
 312:C:/Users/stapi/OneDrive/Desktop/GD32VW553/V1_MQTT_OK/GD32VW55X_Wifi_BLE_SDK/GD32VW55x_RELEASE_V1.0.2/MSDK/cloud/alicloud/src/protocol/alcs\alcs_api.c ****     int len1 = len & 0xfffffff0;
 1257              		.loc 1 312 5
 1258              		.loc 1 312 9 is_stmt 0
 1259 0008 13F905FF 		andi	s2,a1,-16
 1260              	.LVL122:
 313:C:/Users/stapi/OneDrive/Desktop/GD32VW553/V1_MQTT_OK/GD32VW55X_Wifi_BLE_SDK/GD32VW55x_RELEASE_V1.0.2/MSDK/cloud/alicloud/src/protocol/alcs\alcs_api.c ****     int len2 = len1 + 16;
 1261              		.loc 1 313 5 is_stmt 1
 1262              		.loc 1 313 9 is_stmt 0
 1263 000c 130A0901 		addi	s4,s2,16
 1264              	.LVL123:
 314:C:/Users/stapi/OneDrive/Desktop/GD32VW553/V1_MQTT_OK/GD32VW55X_Wifi_BLE_SDK/GD32VW55x_RELEASE_V1.0.2/MSDK/cloud/alicloud/src/protocol/alcs\alcs_api.c ****     int pad = len2 - len;
 1265              		.loc 1 314 5 is_stmt 1
 309:C:/Users/stapi/OneDrive/Desktop/GD32VW553/V1_MQTT_OK/GD32VW55X_Wifi_BLE_SDK/GD32VW55x_RELEASE_V1.0.2/MSDK/cloud/alicloud/src/protocol/alcs\alcs_api.c ****     char* iv = "a1b1c1d1e1f1g1h1";
 1266              		.loc 1 309 1 is_stmt 0
 1267 0010 4111     		addi	sp,sp,-16
 1268              		.cfi_def_cfa_offset 64
 309:C:/Users/stapi/OneDrive/Desktop/GD32VW553/V1_MQTT_OK/GD32VW55X_Wifi_BLE_SDK/GD32VW55x_RELEASE_V1.0.2/MSDK/cloud/alicloud/src/protocol/alcs\alcs_api.c ****     char* iv = "a1b1c1d1e1f1g1h1";
 1269              		.loc 1 309 1
 1270 0012 AA89     		mv	s3,a0
 1271 0014 AE84     		mv	s1,a1
 1272 0016 328B     		mv	s6,a2
 1273 0018 B68A     		mv	s5,a3
 1274              		.loc 1 314 9
 1275 001a 3304BA40 		sub	s0,s4,a1
 1276              	.LVL124:
 315:C:/Users/stapi/OneDrive/Desktop/GD32VW553/V1_MQTT_OK/GD32VW55X_Wifi_BLE_SDK/GD32VW55x_RELEASE_V1.0.2/MSDK/cloud/alicloud/src/protocol/alcs\alcs_api.c ****     int ret = 0;
 1277              		.loc 1 315 5 is_stmt 1
 316:C:/Users/stapi/OneDrive/Desktop/GD32VW553/V1_MQTT_OK/GD32VW55X_Wifi_BLE_SDK/GD32VW55x_RELEASE_V1.0.2/MSDK/cloud/alicloud/src/protocol/alcs\alcs_api.c **** 
 317:C:/Users/stapi/OneDrive/Desktop/GD32VW553/V1_MQTT_OK/GD32VW55X_Wifi_BLE_SDK/GD32VW55x_RELEASE_V1.0.2/MSDK/cloud/alicloud/src/protocol/alcs\alcs_api.c ****     if (len1) {
 1278              		.loc 1 317 5
 1279              		.loc 1 317 8 is_stmt 0
 1280 001e 631F0904 		bne	s2,zero,.L107
 1281              	.LVL125:
 1282              	.L110:
 318:C:/Users/stapi/OneDrive/Desktop/GD32VW553/V1_MQTT_OK/GD32VW55X_Wifi_BLE_SDK/GD32VW55x_RELEASE_V1.0.2/MSDK/cloud/alicloud/src/protocol/alcs\alcs_api.c ****         p_HAL_Aes128_t aes_e_h = HAL_Aes128_Init ((uint8_t*)key, (uint8_t*)iv, HAL_AES_ENCRYPTION);
 319:C:/Users/stapi/OneDrive/Desktop/GD32VW553/V1_MQTT_OK/GD32VW55X_Wifi_BLE_SDK/GD32VW55x_RELEASE_V1.0.2/MSDK/cloud/alicloud/src/protocol/alcs\alcs_api.c ****         ret = HAL_Aes128_Cbc_Encrypt(aes_e_h, src, len1 >> 4, out);
 320:C:/Users/stapi/OneDrive/Desktop/GD32VW553/V1_MQTT_OK/GD32VW55X_Wifi_BLE_SDK/GD32VW55x_RELEASE_V1.0.2/MSDK/cloud/alicloud/src/protocol/alcs\alcs_api.c ****         HAL_Aes128_Destroy (aes_e_h);
 321:C:/Users/stapi/OneDrive/Desktop/GD32VW553/V1_MQTT_OK/GD32VW55X_Wifi_BLE_SDK/GD32VW55x_RELEASE_V1.0.2/MSDK/cloud/alicloud/src/protocol/alcs\alcs_api.c ****     }
 322:C:/Users/stapi/OneDrive/Desktop/GD32VW553/V1_MQTT_OK/GD32VW55X_Wifi_BLE_SDK/GD32VW55x_RELEASE_V1.0.2/MSDK/cloud/alicloud/src/protocol/alcs\alcs_api.c ****     if (!ret && pad) {
 1283              		.loc 1 322 14
 1284 0022 49C8     		beq	s0,zero,.L109
 1285              	.LBB76:
 323:C:/Users/stapi/OneDrive/Desktop/GD32VW553/V1_MQTT_OK/GD32VW55X_Wifi_BLE_SDK/GD32VW55x_RELEASE_V1.0.2/MSDK/cloud/alicloud/src/protocol/alcs\alcs_api.c ****         char buf[16];
 1286              		.loc 1 323 9 is_stmt 1
 324:C:/Users/stapi/OneDrive/Desktop/GD32VW553/V1_MQTT_OK/GD32VW55X_Wifi_BLE_SDK/GD32VW55x_RELEASE_V1.0.2/MSDK/cloud/alicloud/src/protocol/alcs\alcs_api.c ****         memcpy (buf, src + len1, len - len1);
 1287              		.loc 1 324 9
 1288              		.loc 1 324 38 is_stmt 0
 1289 0024 B38B2441 		sub	s7,s1,s2
 1290              		.loc 1 324 9
 1291 0028 5E86     		mv	a2,s7
 1292 002a B3852901 		add	a1,s3,s2
 1293 002e 0A85     		mv	a0,sp
 1294 0030 97000000 		call	memcpy
 1294      E7800000 
 1295              	.LVL126:
 325:C:/Users/stapi/OneDrive/Desktop/GD32VW553/V1_MQTT_OK/GD32VW55X_Wifi_BLE_SDK/GD32VW55x_RELEASE_V1.0.2/MSDK/cloud/alicloud/src/protocol/alcs\alcs_api.c ****         memset (buf + len - len1, pad, pad);
 1296              		.loc 1 325 9 is_stmt 1
 1297 0038 2286     		mv	a2,s0
 1298 003a A285     		mv	a1,s0
 1299 003c 33057101 		add	a0,sp,s7
 1300 0040 97000000 		call	memset
 1300      E7800000 
 1301              	.LVL127:
 326:C:/Users/stapi/OneDrive/Desktop/GD32VW553/V1_MQTT_OK/GD32VW55X_Wifi_BLE_SDK/GD32VW55x_RELEASE_V1.0.2/MSDK/cloud/alicloud/src/protocol/alcs\alcs_api.c ****         p_HAL_Aes128_t aes_e_h = HAL_Aes128_Init ((uint8_t*)key, (uint8_t*)iv, HAL_AES_ENCRYPTION);
 1302              		.loc 1 326 9
 1303              		.loc 1 326 34 is_stmt 0
 1304 0048 B7050000 		lui	a1,%hi(.LC9)
 1305 004c 0146     		li	a2,0
 1306 004e 93850500 		addi	a1,a1,%lo(.LC9)
 1307 0052 5A85     		mv	a0,s6
 1308 0054 97000000 		call	HAL_Aes128_Init
 1308      E7800000 
 1309              	.LVL128:
 327:C:/Users/stapi/OneDrive/Desktop/GD32VW553/V1_MQTT_OK/GD32VW55X_Wifi_BLE_SDK/GD32VW55x_RELEASE_V1.0.2/MSDK/cloud/alicloud/src/protocol/alcs\alcs_api.c ****         ret = HAL_Aes128_Cbc_Encrypt(aes_e_h, buf, 1, (uint8_t *)out + len1);
 1310              		.loc 1 327 15
 1311 005c B3862A01 		add	a3,s5,s2
 1312 0060 0546     		li	a2,1
 1313 0062 8A85     		mv	a1,sp
 326:C:/Users/stapi/OneDrive/Desktop/GD32VW553/V1_MQTT_OK/GD32VW55X_Wifi_BLE_SDK/GD32VW55x_RELEASE_V1.0.2/MSDK/cloud/alicloud/src/protocol/alcs\alcs_api.c ****         p_HAL_Aes128_t aes_e_h = HAL_Aes128_Init ((uint8_t*)key, (uint8_t*)iv, HAL_AES_ENCRYPTION);
 1314              		.loc 1 326 34
 1315 0064 2A8B     		mv	s6,a0
 1316              	.LVL129:
 1317              		.loc 1 327 9 is_stmt 1
 1318              		.loc 1 327 15 is_stmt 0
 1319 0066 97000000 		call	HAL_Aes128_Cbc_Encrypt
 1319      E7800000 
 1320              	.LVL130:
 1321 006e 2A84     		mv	s0,a0
 1322              	.LVL131:
 328:C:/Users/stapi/OneDrive/Desktop/GD32VW553/V1_MQTT_OK/GD32VW55X_Wifi_BLE_SDK/GD32VW55x_RELEASE_V1.0.2/MSDK/cloud/alicloud/src/protocol/alcs\alcs_api.c ****         HAL_Aes128_Destroy (aes_e_h);
 1323              		.loc 1 328 9 is_stmt 1
 1324 0070 5A85     		mv	a0,s6
 1325 0072 97000000 		call	HAL_Aes128_Destroy
 1325      E7800000 
 1326              	.LVL132:
 1327 007a 2DA8     		j	.L109
 1328              	.LVL133:
 1329              	.L107:
 1330              	.LBE76:
 1331              	.LBB77:
 318:C:/Users/stapi/OneDrive/Desktop/GD32VW553/V1_MQTT_OK/GD32VW55X_Wifi_BLE_SDK/GD32VW55x_RELEASE_V1.0.2/MSDK/cloud/alicloud/src/protocol/alcs\alcs_api.c ****         ret = HAL_Aes128_Cbc_Encrypt(aes_e_h, src, len1 >> 4, out);
 1332              		.loc 1 318 9
 318:C:/Users/stapi/OneDrive/Desktop/GD32VW553/V1_MQTT_OK/GD32VW55X_Wifi_BLE_SDK/GD32VW55x_RELEASE_V1.0.2/MSDK/cloud/alicloud/src/protocol/alcs\alcs_api.c ****         ret = HAL_Aes128_Cbc_Encrypt(aes_e_h, src, len1 >> 4, out);
 1333              		.loc 1 318 34 is_stmt 0
 1334 007c B7050000 		lui	a1,%hi(.LC9)
 1335 0080 0146     		li	a2,0
 1336              	.LVL134:
 1337 0082 93850500 		addi	a1,a1,%lo(.LC9)
 1338 0086 5A85     		mv	a0,s6
 1339              	.LVL135:
 1340 0088 97000000 		call	HAL_Aes128_Init
 1340      E7800000 
 1341              	.LVL136:
 319:C:/Users/stapi/OneDrive/Desktop/GD32VW553/V1_MQTT_OK/GD32VW55X_Wifi_BLE_SDK/GD32VW55x_RELEASE_V1.0.2/MSDK/cloud/alicloud/src/protocol/alcs\alcs_api.c ****         HAL_Aes128_Destroy (aes_e_h);
 1342              		.loc 1 319 15
 1343 0090 D686     		mv	a3,s5
 1344 0092 13564940 		srai	a2,s2,4
 1345 0096 CE85     		mv	a1,s3
 318:C:/Users/stapi/OneDrive/Desktop/GD32VW553/V1_MQTT_OK/GD32VW55X_Wifi_BLE_SDK/GD32VW55x_RELEASE_V1.0.2/MSDK/cloud/alicloud/src/protocol/alcs\alcs_api.c ****         ret = HAL_Aes128_Cbc_Encrypt(aes_e_h, src, len1 >> 4, out);
 1346              		.loc 1 318 34
 1347 0098 2A8C     		mv	s8,a0
 1348              	.LVL137:
 319:C:/Users/stapi/OneDrive/Desktop/GD32VW553/V1_MQTT_OK/GD32VW55X_Wifi_BLE_SDK/GD32VW55x_RELEASE_V1.0.2/MSDK/cloud/alicloud/src/protocol/alcs\alcs_api.c ****         HAL_Aes128_Destroy (aes_e_h);
 1349              		.loc 1 319 9 is_stmt 1
 319:C:/Users/stapi/OneDrive/Desktop/GD32VW553/V1_MQTT_OK/GD32VW55X_Wifi_BLE_SDK/GD32VW55x_RELEASE_V1.0.2/MSDK/cloud/alicloud/src/protocol/alcs\alcs_api.c ****         HAL_Aes128_Destroy (aes_e_h);
 1350              		.loc 1 319 15 is_stmt 0
 1351 009a 97000000 		call	HAL_Aes128_Cbc_Encrypt
 1351      E7800000 
 1352              	.LVL138:
 1353 00a2 AA8B     		mv	s7,a0
 1354              	.LVL139:
 320:C:/Users/stapi/OneDrive/Desktop/GD32VW553/V1_MQTT_OK/GD32VW55X_Wifi_BLE_SDK/GD32VW55x_RELEASE_V1.0.2/MSDK/cloud/alicloud/src/protocol/alcs\alcs_api.c ****     }
 1355              		.loc 1 320 9 is_stmt 1
 1356 00a4 6285     		mv	a0,s8
 1357              	.LVL140:
 1358 00a6 97000000 		call	HAL_Aes128_Destroy
 1358      E7800000 
 1359              	.LVL141:
 1360              	.LBE77:
 322:C:/Users/stapi/OneDrive/Desktop/GD32VW553/V1_MQTT_OK/GD32VW55X_Wifi_BLE_SDK/GD32VW55x_RELEASE_V1.0.2/MSDK/cloud/alicloud/src/protocol/alcs\alcs_api.c ****         char buf[16];
 1361              		.loc 1 322 5
 322:C:/Users/stapi/OneDrive/Desktop/GD32VW553/V1_MQTT_OK/GD32VW55X_Wifi_BLE_SDK/GD32VW55x_RELEASE_V1.0.2/MSDK/cloud/alicloud/src/protocol/alcs\alcs_api.c ****         char buf[16];
 1362              		.loc 1 322 8 is_stmt 0
 1363 00ae E38A0BF6 		beq	s7,zero,.L110
 1364 00b2 5E84     		mv	s0,s7
 1365              	.LVL142:
 1366              	.L109:
 329:C:/Users/stapi/OneDrive/Desktop/GD32VW553/V1_MQTT_OK/GD32VW55X_Wifi_BLE_SDK/GD32VW55x_RELEASE_V1.0.2/MSDK/cloud/alicloud/src/protocol/alcs\alcs_api.c ****     }
 330:C:/Users/stapi/OneDrive/Desktop/GD32VW553/V1_MQTT_OK/GD32VW55X_Wifi_BLE_SDK/GD32VW55x_RELEASE_V1.0.2/MSDK/cloud/alicloud/src/protocol/alcs\alcs_api.c **** 
 331:C:/Users/stapi/OneDrive/Desktop/GD32VW553/V1_MQTT_OK/GD32VW55X_Wifi_BLE_SDK/GD32VW55x_RELEASE_V1.0.2/MSDK/cloud/alicloud/src/protocol/alcs\alcs_api.c ****     COAP_DEBUG ("to encrypt src:%.*s, len:%d", len, src, len2);
 1367              		.loc 1 331 5 is_stmt 1
 1368 00b4 37070000 		lui	a4,%hi(.LC10)
 1369 00b8 B7050000 		lui	a1,%hi(.LANCHOR6)
 1370 00bc 37050000 		lui	a0,%hi(.LC6)
 1371 00c0 D288     		mv	a7,s4
 1372 00c2 4E88     		mv	a6,s3
 1373 00c4 A687     		mv	a5,s1
 1374 00c6 13070700 		addi	a4,a4,%lo(.LC10)
 1375 00ca 9546     		li	a3,5
 1376 00cc 1306B014 		li	a2,331
 1377 00d0 93850500 		addi	a1,a1,%lo(.LANCHOR6)
 1378 00d4 13050500 		addi	a0,a0,%lo(.LC6)
 1379 00d8 97000000 		call	LITE_syslog
 1379      E7800000 
 1380              	.LVL143:
 332:C:/Users/stapi/OneDrive/Desktop/GD32VW553/V1_MQTT_OK/GD32VW55X_Wifi_BLE_SDK/GD32VW55x_RELEASE_V1.0.2/MSDK/cloud/alicloud/src/protocol/alcs\alcs_api.c ****     return ret == 0? len2 : 0;
 1381              		.loc 1 332 5
 1382              		.loc 1 332 27 is_stmt 0
 1383 00e0 11C0     		beq	s0,zero,.L106
 1384 00e2 014A     		li	s4,0
 1385              	.LVL144:
 1386              	.L106:
 333:C:/Users/stapi/OneDrive/Desktop/GD32VW553/V1_MQTT_OK/GD32VW55X_Wifi_BLE_SDK/GD32VW55x_RELEASE_V1.0.2/MSDK/cloud/alicloud/src/protocol/alcs\alcs_api.c **** }
 1387              		.loc 1 333 1
 1388 00e4 5285     		mv	a0,s4
 1389 00e6 4101     		addi	sp,sp,16
 1390              		.cfi_def_cfa_offset 0
 1391 00e8 17030000 		tail	__riscv_restore_9
 1391      67000300 
 1392              		.cfi_restore 24
 1393              		.cfi_restore 23
 1394              		.cfi_restore 22
 1395              		.cfi_restore 21
 1396              		.cfi_restore 20
 1397              		.cfi_restore 19
 1398              		.cfi_restore 18
 1399              		.cfi_restore 9
 1400              		.cfi_restore 8
 1401              		.cfi_restore 1
 1402              		.cfi_def_cfa_offset -48
 1403              		.cfi_endproc
 1404              	.LFE36:
 1406              		.section	.rodata.do_secure_send.str1.4,"aMS",@progbits,1
 1407              		.align	2
 1408              	.LC11:
 1409 0000 646F5F73 		.string	"do_secure_send"
 1409      65637572 
 1409      655F7365 
 1409      6E6400
 1410              		.section	.text.do_secure_send,"ax",@progbits
 1411              		.align	1
 1413              	do_secure_send:
 1414              	.LFB39:
 334:C:/Users/stapi/OneDrive/Desktop/GD32VW553/V1_MQTT_OK/GD32VW55X_Wifi_BLE_SDK/GD32VW55x_RELEASE_V1.0.2/MSDK/cloud/alicloud/src/protocol/alcs\alcs_api.c **** 
 335:C:/Users/stapi/OneDrive/Desktop/GD32VW553/V1_MQTT_OK/GD32VW55X_Wifi_BLE_SDK/GD32VW55x_RELEASE_V1.0.2/MSDK/cloud/alicloud/src/protocol/alcs\alcs_api.c **** int alcs_decrypt (const char* src, int len, const char* key, void* out)
 336:C:/Users/stapi/OneDrive/Desktop/GD32VW553/V1_MQTT_OK/GD32VW55X_Wifi_BLE_SDK/GD32VW55x_RELEASE_V1.0.2/MSDK/cloud/alicloud/src/protocol/alcs\alcs_api.c **** {
 337:C:/Users/stapi/OneDrive/Desktop/GD32VW553/V1_MQTT_OK/GD32VW55X_Wifi_BLE_SDK/GD32VW55x_RELEASE_V1.0.2/MSDK/cloud/alicloud/src/protocol/alcs\alcs_api.c ****     COAP_DEBUG ("to decrypt len:%d", len);
 338:C:/Users/stapi/OneDrive/Desktop/GD32VW553/V1_MQTT_OK/GD32VW55X_Wifi_BLE_SDK/GD32VW55x_RELEASE_V1.0.2/MSDK/cloud/alicloud/src/protocol/alcs\alcs_api.c ****     char* iv = "a1b1c1d1e1f1g1h1";
 339:C:/Users/stapi/OneDrive/Desktop/GD32VW553/V1_MQTT_OK/GD32VW55X_Wifi_BLE_SDK/GD32VW55x_RELEASE_V1.0.2/MSDK/cloud/alicloud/src/protocol/alcs\alcs_api.c **** 
 340:C:/Users/stapi/OneDrive/Desktop/GD32VW553/V1_MQTT_OK/GD32VW55X_Wifi_BLE_SDK/GD32VW55x_RELEASE_V1.0.2/MSDK/cloud/alicloud/src/protocol/alcs\alcs_api.c ****     p_HAL_Aes128_t aes_d_h;
 341:C:/Users/stapi/OneDrive/Desktop/GD32VW553/V1_MQTT_OK/GD32VW55X_Wifi_BLE_SDK/GD32VW55x_RELEASE_V1.0.2/MSDK/cloud/alicloud/src/protocol/alcs\alcs_api.c ****     int ret = 0;
 342:C:/Users/stapi/OneDrive/Desktop/GD32VW553/V1_MQTT_OK/GD32VW55X_Wifi_BLE_SDK/GD32VW55x_RELEASE_V1.0.2/MSDK/cloud/alicloud/src/protocol/alcs\alcs_api.c ****     int n = len >> 4;
 343:C:/Users/stapi/OneDrive/Desktop/GD32VW553/V1_MQTT_OK/GD32VW55X_Wifi_BLE_SDK/GD32VW55x_RELEASE_V1.0.2/MSDK/cloud/alicloud/src/protocol/alcs\alcs_api.c ****         
 344:C:/Users/stapi/OneDrive/Desktop/GD32VW553/V1_MQTT_OK/GD32VW55X_Wifi_BLE_SDK/GD32VW55x_RELEASE_V1.0.2/MSDK/cloud/alicloud/src/protocol/alcs\alcs_api.c ****     do {
 345:C:/Users/stapi/OneDrive/Desktop/GD32VW553/V1_MQTT_OK/GD32VW55X_Wifi_BLE_SDK/GD32VW55x_RELEASE_V1.0.2/MSDK/cloud/alicloud/src/protocol/alcs\alcs_api.c ****         if (n > 1) {
 346:C:/Users/stapi/OneDrive/Desktop/GD32VW553/V1_MQTT_OK/GD32VW55X_Wifi_BLE_SDK/GD32VW55x_RELEASE_V1.0.2/MSDK/cloud/alicloud/src/protocol/alcs\alcs_api.c ****             aes_d_h  = HAL_Aes128_Init ((uint8_t*)key, (uint8_t*)iv, HAL_AES_DECRYPTION);
 347:C:/Users/stapi/OneDrive/Desktop/GD32VW553/V1_MQTT_OK/GD32VW55X_Wifi_BLE_SDK/GD32VW55x_RELEASE_V1.0.2/MSDK/cloud/alicloud/src/protocol/alcs\alcs_api.c ****             if (!aes_d_h) {
 348:C:/Users/stapi/OneDrive/Desktop/GD32VW553/V1_MQTT_OK/GD32VW55X_Wifi_BLE_SDK/GD32VW55x_RELEASE_V1.0.2/MSDK/cloud/alicloud/src/protocol/alcs\alcs_api.c ****                 COAP_ERR ("fail to decrypt init");
 349:C:/Users/stapi/OneDrive/Desktop/GD32VW553/V1_MQTT_OK/GD32VW55X_Wifi_BLE_SDK/GD32VW55x_RELEASE_V1.0.2/MSDK/cloud/alicloud/src/protocol/alcs\alcs_api.c ****                 break;
 350:C:/Users/stapi/OneDrive/Desktop/GD32VW553/V1_MQTT_OK/GD32VW55X_Wifi_BLE_SDK/GD32VW55x_RELEASE_V1.0.2/MSDK/cloud/alicloud/src/protocol/alcs\alcs_api.c ****             }   
 351:C:/Users/stapi/OneDrive/Desktop/GD32VW553/V1_MQTT_OK/GD32VW55X_Wifi_BLE_SDK/GD32VW55x_RELEASE_V1.0.2/MSDK/cloud/alicloud/src/protocol/alcs\alcs_api.c **** 
 352:C:/Users/stapi/OneDrive/Desktop/GD32VW553/V1_MQTT_OK/GD32VW55X_Wifi_BLE_SDK/GD32VW55x_RELEASE_V1.0.2/MSDK/cloud/alicloud/src/protocol/alcs\alcs_api.c ****             ret = HAL_Aes128_Cbc_Decrypt(aes_d_h, src, n - 1, out);
 353:C:/Users/stapi/OneDrive/Desktop/GD32VW553/V1_MQTT_OK/GD32VW55X_Wifi_BLE_SDK/GD32VW55x_RELEASE_V1.0.2/MSDK/cloud/alicloud/src/protocol/alcs\alcs_api.c ****             HAL_Aes128_Destroy(aes_d_h);
 354:C:/Users/stapi/OneDrive/Desktop/GD32VW553/V1_MQTT_OK/GD32VW55X_Wifi_BLE_SDK/GD32VW55x_RELEASE_V1.0.2/MSDK/cloud/alicloud/src/protocol/alcs\alcs_api.c **** 
 355:C:/Users/stapi/OneDrive/Desktop/GD32VW553/V1_MQTT_OK/GD32VW55X_Wifi_BLE_SDK/GD32VW55x_RELEASE_V1.0.2/MSDK/cloud/alicloud/src/protocol/alcs\alcs_api.c ****             if (ret != 0){ 
 356:C:/Users/stapi/OneDrive/Desktop/GD32VW553/V1_MQTT_OK/GD32VW55X_Wifi_BLE_SDK/GD32VW55x_RELEASE_V1.0.2/MSDK/cloud/alicloud/src/protocol/alcs\alcs_api.c ****                 COAP_ERR ("fail to decrypt");
 357:C:/Users/stapi/OneDrive/Desktop/GD32VW553/V1_MQTT_OK/GD32VW55X_Wifi_BLE_SDK/GD32VW55x_RELEASE_V1.0.2/MSDK/cloud/alicloud/src/protocol/alcs\alcs_api.c ****                 break;
 358:C:/Users/stapi/OneDrive/Desktop/GD32VW553/V1_MQTT_OK/GD32VW55X_Wifi_BLE_SDK/GD32VW55x_RELEASE_V1.0.2/MSDK/cloud/alicloud/src/protocol/alcs\alcs_api.c ****             }   
 359:C:/Users/stapi/OneDrive/Desktop/GD32VW553/V1_MQTT_OK/GD32VW55X_Wifi_BLE_SDK/GD32VW55x_RELEASE_V1.0.2/MSDK/cloud/alicloud/src/protocol/alcs\alcs_api.c ****         }   
 360:C:/Users/stapi/OneDrive/Desktop/GD32VW553/V1_MQTT_OK/GD32VW55X_Wifi_BLE_SDK/GD32VW55x_RELEASE_V1.0.2/MSDK/cloud/alicloud/src/protocol/alcs\alcs_api.c **** 
 361:C:/Users/stapi/OneDrive/Desktop/GD32VW553/V1_MQTT_OK/GD32VW55X_Wifi_BLE_SDK/GD32VW55x_RELEASE_V1.0.2/MSDK/cloud/alicloud/src/protocol/alcs\alcs_api.c ****         char* out_c = (char*)out;
 362:C:/Users/stapi/OneDrive/Desktop/GD32VW553/V1_MQTT_OK/GD32VW55X_Wifi_BLE_SDK/GD32VW55x_RELEASE_V1.0.2/MSDK/cloud/alicloud/src/protocol/alcs\alcs_api.c ****         int offset = n > 0? ((n - 1) << 4) : 0;
 363:C:/Users/stapi/OneDrive/Desktop/GD32VW553/V1_MQTT_OK/GD32VW55X_Wifi_BLE_SDK/GD32VW55x_RELEASE_V1.0.2/MSDK/cloud/alicloud/src/protocol/alcs\alcs_api.c ****         out_c[offset] = 0;
 364:C:/Users/stapi/OneDrive/Desktop/GD32VW553/V1_MQTT_OK/GD32VW55X_Wifi_BLE_SDK/GD32VW55x_RELEASE_V1.0.2/MSDK/cloud/alicloud/src/protocol/alcs\alcs_api.c **** 
 365:C:/Users/stapi/OneDrive/Desktop/GD32VW553/V1_MQTT_OK/GD32VW55X_Wifi_BLE_SDK/GD32VW55x_RELEASE_V1.0.2/MSDK/cloud/alicloud/src/protocol/alcs\alcs_api.c ****         aes_d_h  = HAL_Aes128_Init ((uint8_t*)key, (uint8_t*)iv, HAL_AES_DECRYPTION);
 366:C:/Users/stapi/OneDrive/Desktop/GD32VW553/V1_MQTT_OK/GD32VW55X_Wifi_BLE_SDK/GD32VW55x_RELEASE_V1.0.2/MSDK/cloud/alicloud/src/protocol/alcs\alcs_api.c ****         if (!aes_d_h) {
 367:C:/Users/stapi/OneDrive/Desktop/GD32VW553/V1_MQTT_OK/GD32VW55X_Wifi_BLE_SDK/GD32VW55x_RELEASE_V1.0.2/MSDK/cloud/alicloud/src/protocol/alcs\alcs_api.c ****             COAP_ERR ("fail to decrypt init");
 368:C:/Users/stapi/OneDrive/Desktop/GD32VW553/V1_MQTT_OK/GD32VW55X_Wifi_BLE_SDK/GD32VW55x_RELEASE_V1.0.2/MSDK/cloud/alicloud/src/protocol/alcs\alcs_api.c ****             break;
 369:C:/Users/stapi/OneDrive/Desktop/GD32VW553/V1_MQTT_OK/GD32VW55X_Wifi_BLE_SDK/GD32VW55x_RELEASE_V1.0.2/MSDK/cloud/alicloud/src/protocol/alcs\alcs_api.c ****         }   
 370:C:/Users/stapi/OneDrive/Desktop/GD32VW553/V1_MQTT_OK/GD32VW55X_Wifi_BLE_SDK/GD32VW55x_RELEASE_V1.0.2/MSDK/cloud/alicloud/src/protocol/alcs\alcs_api.c **** 
 371:C:/Users/stapi/OneDrive/Desktop/GD32VW553/V1_MQTT_OK/GD32VW55X_Wifi_BLE_SDK/GD32VW55x_RELEASE_V1.0.2/MSDK/cloud/alicloud/src/protocol/alcs\alcs_api.c ****         ret = HAL_Aes128_Cbc_Decrypt(aes_d_h, src + offset, 1, out_c + offset);
 372:C:/Users/stapi/OneDrive/Desktop/GD32VW553/V1_MQTT_OK/GD32VW55X_Wifi_BLE_SDK/GD32VW55x_RELEASE_V1.0.2/MSDK/cloud/alicloud/src/protocol/alcs\alcs_api.c ****         HAL_Aes128_Destroy(aes_d_h);
 373:C:/Users/stapi/OneDrive/Desktop/GD32VW553/V1_MQTT_OK/GD32VW55X_Wifi_BLE_SDK/GD32VW55x_RELEASE_V1.0.2/MSDK/cloud/alicloud/src/protocol/alcs\alcs_api.c **** 
 374:C:/Users/stapi/OneDrive/Desktop/GD32VW553/V1_MQTT_OK/GD32VW55X_Wifi_BLE_SDK/GD32VW55x_RELEASE_V1.0.2/MSDK/cloud/alicloud/src/protocol/alcs\alcs_api.c ****         if (ret != 0) {
 375:C:/Users/stapi/OneDrive/Desktop/GD32VW553/V1_MQTT_OK/GD32VW55X_Wifi_BLE_SDK/GD32VW55x_RELEASE_V1.0.2/MSDK/cloud/alicloud/src/protocol/alcs\alcs_api.c ****             COAP_ERR ("fail to decrypt remain data");
 376:C:/Users/stapi/OneDrive/Desktop/GD32VW553/V1_MQTT_OK/GD32VW55X_Wifi_BLE_SDK/GD32VW55x_RELEASE_V1.0.2/MSDK/cloud/alicloud/src/protocol/alcs\alcs_api.c ****             break;
 377:C:/Users/stapi/OneDrive/Desktop/GD32VW553/V1_MQTT_OK/GD32VW55X_Wifi_BLE_SDK/GD32VW55x_RELEASE_V1.0.2/MSDK/cloud/alicloud/src/protocol/alcs\alcs_api.c ****         }   
 378:C:/Users/stapi/OneDrive/Desktop/GD32VW553/V1_MQTT_OK/GD32VW55X_Wifi_BLE_SDK/GD32VW55x_RELEASE_V1.0.2/MSDK/cloud/alicloud/src/protocol/alcs\alcs_api.c **** 
 379:C:/Users/stapi/OneDrive/Desktop/GD32VW553/V1_MQTT_OK/GD32VW55X_Wifi_BLE_SDK/GD32VW55x_RELEASE_V1.0.2/MSDK/cloud/alicloud/src/protocol/alcs\alcs_api.c ****         char pad = out_c[len - 1]; 
 380:C:/Users/stapi/OneDrive/Desktop/GD32VW553/V1_MQTT_OK/GD32VW55X_Wifi_BLE_SDK/GD32VW55x_RELEASE_V1.0.2/MSDK/cloud/alicloud/src/protocol/alcs\alcs_api.c ****         out_c[len - pad] = 0;
 381:C:/Users/stapi/OneDrive/Desktop/GD32VW553/V1_MQTT_OK/GD32VW55X_Wifi_BLE_SDK/GD32VW55x_RELEASE_V1.0.2/MSDK/cloud/alicloud/src/protocol/alcs\alcs_api.c ****         COAP_DEBUG ("decrypt data:%s, len:%d", out_c, len - pad);
 382:C:/Users/stapi/OneDrive/Desktop/GD32VW553/V1_MQTT_OK/GD32VW55X_Wifi_BLE_SDK/GD32VW55x_RELEASE_V1.0.2/MSDK/cloud/alicloud/src/protocol/alcs\alcs_api.c ****         return len - pad;
 383:C:/Users/stapi/OneDrive/Desktop/GD32VW553/V1_MQTT_OK/GD32VW55X_Wifi_BLE_SDK/GD32VW55x_RELEASE_V1.0.2/MSDK/cloud/alicloud/src/protocol/alcs\alcs_api.c ****     } while (0);
 384:C:/Users/stapi/OneDrive/Desktop/GD32VW553/V1_MQTT_OK/GD32VW55X_Wifi_BLE_SDK/GD32VW55x_RELEASE_V1.0.2/MSDK/cloud/alicloud/src/protocol/alcs\alcs_api.c ****     
 385:C:/Users/stapi/OneDrive/Desktop/GD32VW553/V1_MQTT_OK/GD32VW55X_Wifi_BLE_SDK/GD32VW55x_RELEASE_V1.0.2/MSDK/cloud/alicloud/src/protocol/alcs\alcs_api.c ****     return 0;
 386:C:/Users/stapi/OneDrive/Desktop/GD32VW553/V1_MQTT_OK/GD32VW55X_Wifi_BLE_SDK/GD32VW55x_RELEASE_V1.0.2/MSDK/cloud/alicloud/src/protocol/alcs\alcs_api.c **** }
 387:C:/Users/stapi/OneDrive/Desktop/GD32VW553/V1_MQTT_OK/GD32VW55X_Wifi_BLE_SDK/GD32VW55x_RELEASE_V1.0.2/MSDK/cloud/alicloud/src/protocol/alcs\alcs_api.c **** 
 388:C:/Users/stapi/OneDrive/Desktop/GD32VW553/V1_MQTT_OK/GD32VW55X_Wifi_BLE_SDK/GD32VW55x_RELEASE_V1.0.2/MSDK/cloud/alicloud/src/protocol/alcs\alcs_api.c **** bool alcs_is_auth (CoAPContext *ctx, AlcsDeviceKey* devKey)
 389:C:/Users/stapi/OneDrive/Desktop/GD32VW553/V1_MQTT_OK/GD32VW55X_Wifi_BLE_SDK/GD32VW55x_RELEASE_V1.0.2/MSDK/cloud/alicloud/src/protocol/alcs\alcs_api.c **** {
 390:C:/Users/stapi/OneDrive/Desktop/GD32VW553/V1_MQTT_OK/GD32VW55X_Wifi_BLE_SDK/GD32VW55x_RELEASE_V1.0.2/MSDK/cloud/alicloud/src/protocol/alcs\alcs_api.c ****     return get_auth_session(devKey) != NULL;
 391:C:/Users/stapi/OneDrive/Desktop/GD32VW553/V1_MQTT_OK/GD32VW55X_Wifi_BLE_SDK/GD32VW55x_RELEASE_V1.0.2/MSDK/cloud/alicloud/src/protocol/alcs\alcs_api.c **** }
 392:C:/Users/stapi/OneDrive/Desktop/GD32VW553/V1_MQTT_OK/GD32VW55X_Wifi_BLE_SDK/GD32VW55x_RELEASE_V1.0.2/MSDK/cloud/alicloud/src/protocol/alcs\alcs_api.c **** 
 393:C:/Users/stapi/OneDrive/Desktop/GD32VW553/V1_MQTT_OK/GD32VW55X_Wifi_BLE_SDK/GD32VW55x_RELEASE_V1.0.2/MSDK/cloud/alicloud/src/protocol/alcs\alcs_api.c **** /*---------------------------------------------------------*/
 394:C:/Users/stapi/OneDrive/Desktop/GD32VW553/V1_MQTT_OK/GD32VW55X_Wifi_BLE_SDK/GD32VW55x_RELEASE_V1.0.2/MSDK/cloud/alicloud/src/protocol/alcs\alcs_api.c **** typedef struct
 395:C:/Users/stapi/OneDrive/Desktop/GD32VW553/V1_MQTT_OK/GD32VW55X_Wifi_BLE_SDK/GD32VW55x_RELEASE_V1.0.2/MSDK/cloud/alicloud/src/protocol/alcs\alcs_api.c **** {
 396:C:/Users/stapi/OneDrive/Desktop/GD32VW553/V1_MQTT_OK/GD32VW55X_Wifi_BLE_SDK/GD32VW55x_RELEASE_V1.0.2/MSDK/cloud/alicloud/src/protocol/alcs\alcs_api.c ****     void* orig_user_data;
 397:C:/Users/stapi/OneDrive/Desktop/GD32VW553/V1_MQTT_OK/GD32VW55X_Wifi_BLE_SDK/GD32VW55x_RELEASE_V1.0.2/MSDK/cloud/alicloud/src/protocol/alcs\alcs_api.c ****     char pk_dn[PK_DN_CHECKSUM_LEN];
 398:C:/Users/stapi/OneDrive/Desktop/GD32VW553/V1_MQTT_OK/GD32VW55X_Wifi_BLE_SDK/GD32VW55x_RELEASE_V1.0.2/MSDK/cloud/alicloud/src/protocol/alcs\alcs_api.c ****     CoAPSendMsgHandler orig_handler;
 399:C:/Users/stapi/OneDrive/Desktop/GD32VW553/V1_MQTT_OK/GD32VW55X_Wifi_BLE_SDK/GD32VW55x_RELEASE_V1.0.2/MSDK/cloud/alicloud/src/protocol/alcs\alcs_api.c **** } secure_send_item;
 400:C:/Users/stapi/OneDrive/Desktop/GD32VW553/V1_MQTT_OK/GD32VW55X_Wifi_BLE_SDK/GD32VW55x_RELEASE_V1.0.2/MSDK/cloud/alicloud/src/protocol/alcs\alcs_api.c **** 
 401:C:/Users/stapi/OneDrive/Desktop/GD32VW553/V1_MQTT_OK/GD32VW55X_Wifi_BLE_SDK/GD32VW55x_RELEASE_V1.0.2/MSDK/cloud/alicloud/src/protocol/alcs\alcs_api.c **** static int do_secure_send (CoAPContext *ctx, NetworkAddr* addr, CoAPMessage *message, const char* k
 402:C:/Users/stapi/OneDrive/Desktop/GD32VW553/V1_MQTT_OK/GD32VW55X_Wifi_BLE_SDK/GD32VW55x_RELEASE_V1.0.2/MSDK/cloud/alicloud/src/protocol/alcs\alcs_api.c **** {
 1415              		.loc 1 402 1 is_stmt 1
 1416              		.cfi_startproc
 1417              	.LVL145:
 1418 0000 17030000 		call	t0,__riscv_save_7
 1418      E7020300 
 1419              		.cfi_offset 22, -32
 1420              		.cfi_offset 21, -28
 1421              		.cfi_offset 20, -24
 1422              		.cfi_offset 19, -20
 1423              		.cfi_offset 18, -16
 1424              		.cfi_offset 9, -12
 1425              		.cfi_offset 8, -8
 1426              		.cfi_offset 1, -4
 1427              		.cfi_def_cfa_offset 32
 403:C:/Users/stapi/OneDrive/Desktop/GD32VW553/V1_MQTT_OK/GD32VW55X_Wifi_BLE_SDK/GD32VW55x_RELEASE_V1.0.2/MSDK/cloud/alicloud/src/protocol/alcs\alcs_api.c ****     int ret = COAP_SUCCESS;
 1428              		.loc 1 403 5
 1429              	.LVL146:
 404:C:/Users/stapi/OneDrive/Desktop/GD32VW553/V1_MQTT_OK/GD32VW55X_Wifi_BLE_SDK/GD32VW55x_RELEASE_V1.0.2/MSDK/cloud/alicloud/src/protocol/alcs\alcs_api.c ****     COAP_DEBUG("do_secure_send");
 1430              		.loc 1 404 5
 402:C:/Users/stapi/OneDrive/Desktop/GD32VW553/V1_MQTT_OK/GD32VW55X_Wifi_BLE_SDK/GD32VW55x_RELEASE_V1.0.2/MSDK/cloud/alicloud/src/protocol/alcs\alcs_api.c ****     int ret = COAP_SUCCESS;
 1431              		.loc 1 402 1 is_stmt 0
 1432 0008 2A89     		mv	s2,a0
 1433 000a AE89     		mv	s3,a1
 1434              		.loc 1 404 5
 1435 000c 37070000 		lui	a4,%hi(.LC11)
 1436 0010 B7050000 		lui	a1,%hi(.LANCHOR7)
 1437              	.LVL147:
 1438 0014 37050000 		lui	a0,%hi(.LC6)
 1439              	.LVL148:
 402:C:/Users/stapi/OneDrive/Desktop/GD32VW553/V1_MQTT_OK/GD32VW55X_Wifi_BLE_SDK/GD32VW55x_RELEASE_V1.0.2/MSDK/cloud/alicloud/src/protocol/alcs\alcs_api.c ****     int ret = COAP_SUCCESS;
 1440              		.loc 1 402 1
 1441 0018 3284     		mv	s0,a2
 1442              		.loc 1 404 5
 1443 001a 13070700 		addi	a4,a4,%lo(.LC11)
 402:C:/Users/stapi/OneDrive/Desktop/GD32VW553/V1_MQTT_OK/GD32VW55X_Wifi_BLE_SDK/GD32VW55x_RELEASE_V1.0.2/MSDK/cloud/alicloud/src/protocol/alcs\alcs_api.c ****     int ret = COAP_SUCCESS;
 1444              		.loc 1 402 1
 1445 001e 368A     		mv	s4,a3
 1446              		.loc 1 404 5
 1447 0020 13064019 		li	a2,404
 1448              	.LVL149:
 1449 0024 9546     		li	a3,5
 1450              	.LVL150:
 1451 0026 93850500 		addi	a1,a1,%lo(.LANCHOR7)
 1452 002a 13050500 		addi	a0,a0,%lo(.LC6)
 1453 002e 97000000 		call	LITE_syslog
 1453      E7800000 
 1454              	.LVL151:
 405:C:/Users/stapi/OneDrive/Desktop/GD32VW553/V1_MQTT_OK/GD32VW55X_Wifi_BLE_SDK/GD32VW55x_RELEASE_V1.0.2/MSDK/cloud/alicloud/src/protocol/alcs\alcs_api.c **** 
 406:C:/Users/stapi/OneDrive/Desktop/GD32VW553/V1_MQTT_OK/GD32VW55X_Wifi_BLE_SDK/GD32VW55x_RELEASE_V1.0.2/MSDK/cloud/alicloud/src/protocol/alcs\alcs_api.c ****     int encryptlen = (message->payloadlen & 0xfffffff0) + 16;
 1455              		.loc 1 406 5 is_stmt 1
 407:C:/Users/stapi/OneDrive/Desktop/GD32VW553/V1_MQTT_OK/GD32VW55X_Wifi_BLE_SDK/GD32VW55x_RELEASE_V1.0.2/MSDK/cloud/alicloud/src/protocol/alcs\alcs_api.c ****     char* buf = (char*)coap_malloc(encryptlen);
 1456              		.loc 1 407 5
 406:C:/Users/stapi/OneDrive/Desktop/GD32VW553/V1_MQTT_OK/GD32VW55X_Wifi_BLE_SDK/GD32VW55x_RELEASE_V1.0.2/MSDK/cloud/alicloud/src/protocol/alcs\alcs_api.c ****     char* buf = (char*)coap_malloc(encryptlen);
 1457              		.loc 1 406 30 is_stmt 0
 1458 0036 0356E406 		lhu	a2,110(s0)
 1459              		.loc 1 407 24
 1460 003a 8145     		li	a1,0
 1461 003c 0145     		li	a0,0
 406:C:/Users/stapi/OneDrive/Desktop/GD32VW553/V1_MQTT_OK/GD32VW55X_Wifi_BLE_SDK/GD32VW55x_RELEASE_V1.0.2/MSDK/cloud/alicloud/src/protocol/alcs\alcs_api.c ****     char* buf = (char*)coap_malloc(encryptlen);
 1462              		.loc 1 406 43
 1463 003e 419A     		andi	a2,a2,-16
 1464              		.loc 1 407 24
 1465 0040 4106     		addi	a2,a2,16
 1466 0042 97000000 		call	LITE_malloc_internal
 1466      E7800000 
 1467              	.LVL152:
 408:C:/Users/stapi/OneDrive/Desktop/GD32VW553/V1_MQTT_OK/GD32VW55X_Wifi_BLE_SDK/GD32VW55x_RELEASE_V1.0.2/MSDK/cloud/alicloud/src/protocol/alcs\alcs_api.c **** 
 409:C:/Users/stapi/OneDrive/Desktop/GD32VW553/V1_MQTT_OK/GD32VW55X_Wifi_BLE_SDK/GD32VW55x_RELEASE_V1.0.2/MSDK/cloud/alicloud/src/protocol/alcs\alcs_api.c ****     void* payload_old = message->payload;
 1468              		.loc 1 409 11
 1469 004a 032B0407 		lw	s6,112(s0)
 410:C:/Users/stapi/OneDrive/Desktop/GD32VW553/V1_MQTT_OK/GD32VW55X_Wifi_BLE_SDK/GD32VW55x_RELEASE_V1.0.2/MSDK/cloud/alicloud/src/protocol/alcs\alcs_api.c ****     int len_old = message->payloadlen;
 1470              		.loc 1 410 26
 1471 004e 835AE406 		lhu	s5,110(s0)
 411:C:/Users/stapi/OneDrive/Desktop/GD32VW553/V1_MQTT_OK/GD32VW55X_Wifi_BLE_SDK/GD32VW55x_RELEASE_V1.0.2/MSDK/cloud/alicloud/src/protocol/alcs\alcs_api.c **** 
 412:C:/Users/stapi/OneDrive/Desktop/GD32VW553/V1_MQTT_OK/GD32VW55X_Wifi_BLE_SDK/GD32VW55x_RELEASE_V1.0.2/MSDK/cloud/alicloud/src/protocol/alcs\alcs_api.c ****     message->payload = (unsigned char *)buf;
 413:C:/Users/stapi/OneDrive/Desktop/GD32VW553/V1_MQTT_OK/GD32VW55X_Wifi_BLE_SDK/GD32VW55x_RELEASE_V1.0.2/MSDK/cloud/alicloud/src/protocol/alcs\alcs_api.c ****     message->payloadlen = alcs_encrypt ((const char *)payload_old, len_old, key, message->payload);
 1472              		.loc 1 413 27
 1473 0052 AA86     		mv	a3,a0
 407:C:/Users/stapi/OneDrive/Desktop/GD32VW553/V1_MQTT_OK/GD32VW55X_Wifi_BLE_SDK/GD32VW55x_RELEASE_V1.0.2/MSDK/cloud/alicloud/src/protocol/alcs\alcs_api.c **** 
 1474              		.loc 1 407 24
 1475 0054 AA84     		mv	s1,a0
 1476              	.LVL153:
 409:C:/Users/stapi/OneDrive/Desktop/GD32VW553/V1_MQTT_OK/GD32VW55X_Wifi_BLE_SDK/GD32VW55x_RELEASE_V1.0.2/MSDK/cloud/alicloud/src/protocol/alcs\alcs_api.c ****     int len_old = message->payloadlen;
 1477              		.loc 1 409 5 is_stmt 1
 410:C:/Users/stapi/OneDrive/Desktop/GD32VW553/V1_MQTT_OK/GD32VW55X_Wifi_BLE_SDK/GD32VW55x_RELEASE_V1.0.2/MSDK/cloud/alicloud/src/protocol/alcs\alcs_api.c **** 
 1478              		.loc 1 410 5
 412:C:/Users/stapi/OneDrive/Desktop/GD32VW553/V1_MQTT_OK/GD32VW55X_Wifi_BLE_SDK/GD32VW55x_RELEASE_V1.0.2/MSDK/cloud/alicloud/src/protocol/alcs\alcs_api.c ****     message->payloadlen = alcs_encrypt ((const char *)payload_old, len_old, key, message->payload);
 1479              		.loc 1 412 5
 412:C:/Users/stapi/OneDrive/Desktop/GD32VW553/V1_MQTT_OK/GD32VW55X_Wifi_BLE_SDK/GD32VW55x_RELEASE_V1.0.2/MSDK/cloud/alicloud/src/protocol/alcs\alcs_api.c ****     message->payloadlen = alcs_encrypt ((const char *)payload_old, len_old, key, message->payload);
 1480              		.loc 1 412 22 is_stmt 0
 1481 0056 28D8     		sw	a0,112(s0)
 1482              		.loc 1 413 5 is_stmt 1
 1483              		.loc 1 413 27 is_stmt 0
 1484 0058 5286     		mv	a2,s4
 1485 005a D685     		mv	a1,s5
 1486 005c 5A85     		mv	a0,s6
 1487 005e 97000000 		call	alcs_encrypt
 1487      E7800000 
 1488              	.LVL154:
 1489              		.loc 1 413 25
 1490 0066 2317A406 		sh	a0,110(s0)
 414:C:/Users/stapi/OneDrive/Desktop/GD32VW553/V1_MQTT_OK/GD32VW55X_Wifi_BLE_SDK/GD32VW55x_RELEASE_V1.0.2/MSDK/cloud/alicloud/src/protocol/alcs\alcs_api.c ****     ret = CoAPMessage_send (ctx, addr, message);
 1491              		.loc 1 414 5 is_stmt 1
 1492              		.loc 1 414 11 is_stmt 0
 1493 006a 2286     		mv	a2,s0
 1494 006c CE85     		mv	a1,s3
 1495 006e 4A85     		mv	a0,s2
 1496 0070 97000000 		call	CoAPMessage_send
 1496      E7800000 
 1497              	.LVL155:
 1498 0078 2A89     		mv	s2,a0
 1499              	.LVL156:
 415:C:/Users/stapi/OneDrive/Desktop/GD32VW553/V1_MQTT_OK/GD32VW55X_Wifi_BLE_SDK/GD32VW55x_RELEASE_V1.0.2/MSDK/cloud/alicloud/src/protocol/alcs\alcs_api.c **** 
 416:C:/Users/stapi/OneDrive/Desktop/GD32VW553/V1_MQTT_OK/GD32VW55X_Wifi_BLE_SDK/GD32VW55x_RELEASE_V1.0.2/MSDK/cloud/alicloud/src/protocol/alcs\alcs_api.c ****     message->payload = payload_old;
 1500              		.loc 1 416 5 is_stmt 1
 1501              		.loc 1 416 22 is_stmt 0
 1502 007a 23286407 		sw	s6,112(s0)
 417:C:/Users/stapi/OneDrive/Desktop/GD32VW553/V1_MQTT_OK/GD32VW55X_Wifi_BLE_SDK/GD32VW55x_RELEASE_V1.0.2/MSDK/cloud/alicloud/src/protocol/alcs\alcs_api.c ****     message->payloadlen = len_old;
 1503              		.loc 1 417 5 is_stmt 1
 418:C:/Users/stapi/OneDrive/Desktop/GD32VW553/V1_MQTT_OK/GD32VW55X_Wifi_BLE_SDK/GD32VW55x_RELEASE_V1.0.2/MSDK/cloud/alicloud/src/protocol/alcs\alcs_api.c **** 
 419:C:/Users/stapi/OneDrive/Desktop/GD32VW553/V1_MQTT_OK/GD32VW55X_Wifi_BLE_SDK/GD32VW55x_RELEASE_V1.0.2/MSDK/cloud/alicloud/src/protocol/alcs\alcs_api.c ****     coap_free (buf);
 1504              		.loc 1 419 5 is_stmt 0
 1505 007e 2685     		mv	a0,s1
 1506              	.LVL157:
 417:C:/Users/stapi/OneDrive/Desktop/GD32VW553/V1_MQTT_OK/GD32VW55X_Wifi_BLE_SDK/GD32VW55x_RELEASE_V1.0.2/MSDK/cloud/alicloud/src/protocol/alcs\alcs_api.c ****     message->payloadlen = len_old;
 1507              		.loc 1 417 25
 1508 0080 23175407 		sh	s5,110(s0)
 1509              		.loc 1 419 5 is_stmt 1
 1510 0084 97000000 		call	LITE_free_internal
 1510      E7800000 
 1511              	.LVL158:
 420:C:/Users/stapi/OneDrive/Desktop/GD32VW553/V1_MQTT_OK/GD32VW55X_Wifi_BLE_SDK/GD32VW55x_RELEASE_V1.0.2/MSDK/cloud/alicloud/src/protocol/alcs\alcs_api.c **** 
 421:C:/Users/stapi/OneDrive/Desktop/GD32VW553/V1_MQTT_OK/GD32VW55X_Wifi_BLE_SDK/GD32VW55x_RELEASE_V1.0.2/MSDK/cloud/alicloud/src/protocol/alcs\alcs_api.c ****     return ret;
 1512              		.loc 1 421 5
 422:C:/Users/stapi/OneDrive/Desktop/GD32VW553/V1_MQTT_OK/GD32VW55X_Wifi_BLE_SDK/GD32VW55x_RELEASE_V1.0.2/MSDK/cloud/alicloud/src/protocol/alcs\alcs_api.c **** }
 1513              		.loc 1 422 1 is_stmt 0
 1514 008c 4A85     		mv	a0,s2
 1515 008e 17030000 		tail	__riscv_restore_7
 1515      67000300 
 1516              		.cfi_restore 22
 1517              		.cfi_restore 21
 1518              		.cfi_restore 20
 1519              		.cfi_restore 19
 1520              		.cfi_restore 18
 1521              		.cfi_restore 9
 1522              		.cfi_restore 8
 1523              		.cfi_restore 1
 1524              		.cfi_def_cfa_offset 0
 1525              		.cfi_endproc
 1526              	.LFE39:
 1528              		.section	.rodata.alcs_decrypt.str1.4,"aMS",@progbits,1
 1529              		.align	2
 1530              	.LC12:
 1531 0000 746F2064 		.string	"to decrypt len:%d"
 1531      65637279 
 1531      7074206C 
 1531      656E3A25 
 1531      6400
 1532 0012 0000     		.align	2
 1533              	.LC13:
 1534 0014 5B657272 		.string	"[err] "
 1534      5D2000
 1535 001b 00       		.align	2
 1536              	.LC14:
 1537 001c 6661696C 		.string	"fail to decrypt init"
 1537      20746F20 
 1537      64656372 
 1537      79707420 
 1537      696E6974 
 1538 0031 000000   		.align	2
 1539              	.LC15:
 1540 0034 6661696C 		.string	"fail to decrypt"
 1540      20746F20 
 1540      64656372 
 1540      79707400 
 1541              		.align	2
 1542              	.LC16:
 1543 0044 6661696C 		.string	"fail to decrypt remain data"
 1543      20746F20 
 1543      64656372 
 1543      79707420 
 1543      72656D61 
 1544              		.align	2
 1545              	.LC17:
 1546 0060 64656372 		.string	"decrypt data:%s, len:%d"
 1546      79707420 
 1546      64617461 
 1546      3A25732C 
 1546      206C656E 
 1547              		.section	.text.alcs_decrypt,"ax",@progbits
 1548              		.align	1
 1549              		.globl	alcs_decrypt
 1551              	alcs_decrypt:
 1552              	.LFB37:
 336:C:/Users/stapi/OneDrive/Desktop/GD32VW553/V1_MQTT_OK/GD32VW55X_Wifi_BLE_SDK/GD32VW55x_RELEASE_V1.0.2/MSDK/cloud/alicloud/src/protocol/alcs\alcs_api.c ****     COAP_DEBUG ("to decrypt len:%d", len);
 1553              		.loc 1 336 1 is_stmt 1
 1554              		.cfi_startproc
 1555              	.LVL159:
 1556 0000 17030000 		call	t0,__riscv_save_10
 1556      E7020300 
 1557              		.cfi_offset 25, -44
 1558              		.cfi_offset 24, -40
 1559              		.cfi_offset 23, -36
 1560              		.cfi_offset 22, -32
 1561              		.cfi_offset 21, -28
 1562              		.cfi_offset 20, -24
 1563              		.cfi_offset 19, -20
 1564              		.cfi_offset 18, -16
 1565              		.cfi_offset 9, -12
 1566              		.cfi_offset 8, -8
 1567              		.cfi_offset 1, -4
 1568              		.cfi_def_cfa_offset 48
 337:C:/Users/stapi/OneDrive/Desktop/GD32VW553/V1_MQTT_OK/GD32VW55X_Wifi_BLE_SDK/GD32VW55x_RELEASE_V1.0.2/MSDK/cloud/alicloud/src/protocol/alcs\alcs_api.c ****     char* iv = "a1b1c1d1e1f1g1h1";
 1569              		.loc 1 337 5
 1570 0008 370A0000 		lui	s4,%hi(.LANCHOR8)
 1571 000c 37070000 		lui	a4,%hi(.LC12)
 1572 0010 B7090000 		lui	s3,%hi(.LC6)
 1573 0014 AE87     		mv	a5,a1
 336:C:/Users/stapi/OneDrive/Desktop/GD32VW553/V1_MQTT_OK/GD32VW55X_Wifi_BLE_SDK/GD32VW55x_RELEASE_V1.0.2/MSDK/cloud/alicloud/src/protocol/alcs\alcs_api.c ****     COAP_DEBUG ("to decrypt len:%d", len);
 1574              		.loc 1 336 1 is_stmt 0
 1575 0016 2E84     		mv	s0,a1
 1576 0018 4111     		addi	sp,sp,-16
 1577              		.cfi_def_cfa_offset 64
 336:C:/Users/stapi/OneDrive/Desktop/GD32VW553/V1_MQTT_OK/GD32VW55X_Wifi_BLE_SDK/GD32VW55x_RELEASE_V1.0.2/MSDK/cloud/alicloud/src/protocol/alcs\alcs_api.c ****     COAP_DEBUG ("to decrypt len:%d", len);
 1578              		.loc 1 336 1
 1579 001a 2A8B     		mv	s6,a0
 1580 001c B28A     		mv	s5,a2
 1581 001e 3689     		mv	s2,a3
 337:C:/Users/stapi/OneDrive/Desktop/GD32VW553/V1_MQTT_OK/GD32VW55X_Wifi_BLE_SDK/GD32VW55x_RELEASE_V1.0.2/MSDK/cloud/alicloud/src/protocol/alcs\alcs_api.c ****     char* iv = "a1b1c1d1e1f1g1h1";
 1582              		.loc 1 337 5
 1583 0020 13070700 		addi	a4,a4,%lo(.LC12)
 1584 0024 9546     		li	a3,5
 1585              	.LVL160:
 1586 0026 13061015 		li	a2,337
 1587              	.LVL161:
 1588 002a 93050A00 		addi	a1,s4,%lo(.LANCHOR8)
 1589              	.LVL162:
 1590 002e 13850900 		addi	a0,s3,%lo(.LC6)
 1591              	.LVL163:
 1592 0032 97000000 		call	LITE_syslog
 1592      E7800000 
 1593              	.LVL164:
 338:C:/Users/stapi/OneDrive/Desktop/GD32VW553/V1_MQTT_OK/GD32VW55X_Wifi_BLE_SDK/GD32VW55x_RELEASE_V1.0.2/MSDK/cloud/alicloud/src/protocol/alcs\alcs_api.c **** 
 1594              		.loc 1 338 5 is_stmt 1
 340:C:/Users/stapi/OneDrive/Desktop/GD32VW553/V1_MQTT_OK/GD32VW55X_Wifi_BLE_SDK/GD32VW55x_RELEASE_V1.0.2/MSDK/cloud/alicloud/src/protocol/alcs\alcs_api.c ****     int ret = 0;
 1595              		.loc 1 340 5
 341:C:/Users/stapi/OneDrive/Desktop/GD32VW553/V1_MQTT_OK/GD32VW55X_Wifi_BLE_SDK/GD32VW55x_RELEASE_V1.0.2/MSDK/cloud/alicloud/src/protocol/alcs\alcs_api.c ****     int n = len >> 4;
 1596              		.loc 1 341 5
 342:C:/Users/stapi/OneDrive/Desktop/GD32VW553/V1_MQTT_OK/GD32VW55X_Wifi_BLE_SDK/GD32VW55x_RELEASE_V1.0.2/MSDK/cloud/alicloud/src/protocol/alcs\alcs_api.c ****         
 1597              		.loc 1 342 5
 342:C:/Users/stapi/OneDrive/Desktop/GD32VW553/V1_MQTT_OK/GD32VW55X_Wifi_BLE_SDK/GD32VW55x_RELEASE_V1.0.2/MSDK/cloud/alicloud/src/protocol/alcs\alcs_api.c ****         
 1598              		.loc 1 342 9 is_stmt 0
 1599 003a 93544440 		srai	s1,s0,4
 1600              	.LVL165:
 344:C:/Users/stapi/OneDrive/Desktop/GD32VW553/V1_MQTT_OK/GD32VW55X_Wifi_BLE_SDK/GD32VW55x_RELEASE_V1.0.2/MSDK/cloud/alicloud/src/protocol/alcs\alcs_api.c ****         if (n > 1) {
 1601              		.loc 1 344 5 is_stmt 1
 1602              	.LBB78:
 345:C:/Users/stapi/OneDrive/Desktop/GD32VW553/V1_MQTT_OK/GD32VW55X_Wifi_BLE_SDK/GD32VW55x_RELEASE_V1.0.2/MSDK/cloud/alicloud/src/protocol/alcs\alcs_api.c ****             aes_d_h  = HAL_Aes128_Init ((uint8_t*)key, (uint8_t*)iv, HAL_AES_DECRYPTION);
 1603              		.loc 1 345 9
 345:C:/Users/stapi/OneDrive/Desktop/GD32VW553/V1_MQTT_OK/GD32VW55X_Wifi_BLE_SDK/GD32VW55x_RELEASE_V1.0.2/MSDK/cloud/alicloud/src/protocol/alcs\alcs_api.c ****             aes_d_h  = HAL_Aes128_Init ((uint8_t*)key, (uint8_t*)iv, HAL_AES_DECRYPTION);
 1604              		.loc 1 345 12 is_stmt 0
 1605 003e 8547     		li	a5,1
 1606 0040 370C0000 		lui	s8,%hi(.LC9)
 1607 0044 63D5970E 		ble	s1,a5,.L120
 346:C:/Users/stapi/OneDrive/Desktop/GD32VW553/V1_MQTT_OK/GD32VW55X_Wifi_BLE_SDK/GD32VW55x_RELEASE_V1.0.2/MSDK/cloud/alicloud/src/protocol/alcs\alcs_api.c ****             if (!aes_d_h) {
 1608              		.loc 1 346 13 is_stmt 1
 346:C:/Users/stapi/OneDrive/Desktop/GD32VW553/V1_MQTT_OK/GD32VW55X_Wifi_BLE_SDK/GD32VW55x_RELEASE_V1.0.2/MSDK/cloud/alicloud/src/protocol/alcs\alcs_api.c ****             if (!aes_d_h) {
 1609              		.loc 1 346 24 is_stmt 0
 1610 0048 0546     		li	a2,1
 1611 004a 93050C00 		addi	a1,s8,%lo(.LC9)
 1612 004e 5685     		mv	a0,s5
 1613 0050 97000000 		call	HAL_Aes128_Init
 1613      E7800000 
 1614              	.LVL166:
 1615 0058 AA8B     		mv	s7,a0
 1616              	.LVL167:
 347:C:/Users/stapi/OneDrive/Desktop/GD32VW553/V1_MQTT_OK/GD32VW55X_Wifi_BLE_SDK/GD32VW55x_RELEASE_V1.0.2/MSDK/cloud/alicloud/src/protocol/alcs\alcs_api.c ****                 COAP_ERR ("fail to decrypt init");
 1617              		.loc 1 347 13 is_stmt 1
 347:C:/Users/stapi/OneDrive/Desktop/GD32VW553/V1_MQTT_OK/GD32VW55X_Wifi_BLE_SDK/GD32VW55x_RELEASE_V1.0.2/MSDK/cloud/alicloud/src/protocol/alcs\alcs_api.c ****                 COAP_ERR ("fail to decrypt init");
 1618              		.loc 1 347 16 is_stmt 0
 1619 005a 21E1     		bne	a0,zero,.L121
 1620              	.LVL168:
 1621              	.L126:
 348:C:/Users/stapi/OneDrive/Desktop/GD32VW553/V1_MQTT_OK/GD32VW55X_Wifi_BLE_SDK/GD32VW55x_RELEASE_V1.0.2/MSDK/cloud/alicloud/src/protocol/alcs\alcs_api.c ****                 break;
 1622              		.loc 1 348 17 is_stmt 1
 348:C:/Users/stapi/OneDrive/Desktop/GD32VW553/V1_MQTT_OK/GD32VW55X_Wifi_BLE_SDK/GD32VW55x_RELEASE_V1.0.2/MSDK/cloud/alicloud/src/protocol/alcs\alcs_api.c ****                 break;
 1623              		.loc 1 348 17
 1624 005c 37050000 		lui	a0,%hi(.LC13)
 1625              	.LVL169:
 1626 0060 13050500 		addi	a0,a0,%lo(.LC13)
 1627 0064 97000000 		call	HAL_Printf
 1627      E7800000 
 1628              	.LVL170:
 348:C:/Users/stapi/OneDrive/Desktop/GD32VW553/V1_MQTT_OK/GD32VW55X_Wifi_BLE_SDK/GD32VW55x_RELEASE_V1.0.2/MSDK/cloud/alicloud/src/protocol/alcs\alcs_api.c ****                 break;
 1629              		.loc 1 348 17
 1630 006c 37050000 		lui	a0,%hi(.LC14)
 1631 0070 13050500 		addi	a0,a0,%lo(.LC14)
 1632              	.L132:
 375:C:/Users/stapi/OneDrive/Desktop/GD32VW553/V1_MQTT_OK/GD32VW55X_Wifi_BLE_SDK/GD32VW55x_RELEASE_V1.0.2/MSDK/cloud/alicloud/src/protocol/alcs\alcs_api.c ****             break;
 1633              		.loc 1 375 13 is_stmt 0
 1634 0074 97000000 		call	HAL_Printf
 1634      E7800000 
 1635              	.LVL171:
 375:C:/Users/stapi/OneDrive/Desktop/GD32VW553/V1_MQTT_OK/GD32VW55X_Wifi_BLE_SDK/GD32VW55x_RELEASE_V1.0.2/MSDK/cloud/alicloud/src/protocol/alcs\alcs_api.c ****             break;
 1636              		.loc 1 375 13 is_stmt 1
 1637 007c 37050000 		lui	a0,%hi(.LC2)
 1638 0080 13050500 		addi	a0,a0,%lo(.LC2)
 1639 0084 97000000 		call	HAL_Printf
 1639      E7800000 
 1640              	.LVL172:
 375:C:/Users/stapi/OneDrive/Desktop/GD32VW553/V1_MQTT_OK/GD32VW55X_Wifi_BLE_SDK/GD32VW55x_RELEASE_V1.0.2/MSDK/cloud/alicloud/src/protocol/alcs\alcs_api.c ****             break;
 1641              		.loc 1 375 13
 376:C:/Users/stapi/OneDrive/Desktop/GD32VW553/V1_MQTT_OK/GD32VW55X_Wifi_BLE_SDK/GD32VW55x_RELEASE_V1.0.2/MSDK/cloud/alicloud/src/protocol/alcs\alcs_api.c ****         }   
 1642              		.loc 1 376 13
 1643              	.LBE78:
 385:C:/Users/stapi/OneDrive/Desktop/GD32VW553/V1_MQTT_OK/GD32VW55X_Wifi_BLE_SDK/GD32VW55x_RELEASE_V1.0.2/MSDK/cloud/alicloud/src/protocol/alcs\alcs_api.c **** }
 1644              		.loc 1 385 12 is_stmt 0
 1645 008c 0144     		li	s0,0
 1646              	.LVL173:
 1647              	.L119:
 386:C:/Users/stapi/OneDrive/Desktop/GD32VW553/V1_MQTT_OK/GD32VW55X_Wifi_BLE_SDK/GD32VW55x_RELEASE_V1.0.2/MSDK/cloud/alicloud/src/protocol/alcs\alcs_api.c **** 
 1648              		.loc 1 386 1
 1649 008e 2285     		mv	a0,s0
 1650 0090 4101     		addi	sp,sp,16
 1651              		.cfi_remember_state
 1652              		.cfi_def_cfa_offset 0
 1653 0092 17030000 		tail	__riscv_restore_10
 1653      67000300 
 1654              		.cfi_restore 25
 1655              		.cfi_restore 24
 1656              		.cfi_restore 23
 1657              		.cfi_restore 22
 1658              		.cfi_restore 21
 1659              		.cfi_restore 20
 1660              		.cfi_restore 19
 1661              		.cfi_restore 18
 1662              		.cfi_restore 9
 1663              		.cfi_restore 8
 1664              		.cfi_restore 1
 1665              		.cfi_def_cfa_offset -48
 1666              	.LVL174:
 1667              	.L121:
 1668              		.cfi_restore_state
 1669              	.LBB79:
 352:C:/Users/stapi/OneDrive/Desktop/GD32VW553/V1_MQTT_OK/GD32VW55X_Wifi_BLE_SDK/GD32VW55x_RELEASE_V1.0.2/MSDK/cloud/alicloud/src/protocol/alcs\alcs_api.c ****             HAL_Aes128_Destroy(aes_d_h);
 1670              		.loc 1 352 13 is_stmt 1
 352:C:/Users/stapi/OneDrive/Desktop/GD32VW553/V1_MQTT_OK/GD32VW55X_Wifi_BLE_SDK/GD32VW55x_RELEASE_V1.0.2/MSDK/cloud/alicloud/src/protocol/alcs\alcs_api.c ****             HAL_Aes128_Destroy(aes_d_h);
 1671              		.loc 1 352 19 is_stmt 0
 1672 009a CA86     		mv	a3,s2
 1673 009c 1386F4FF 		addi	a2,s1,-1
 1674 00a0 DA85     		mv	a1,s6
 1675 00a2 97000000 		call	HAL_Aes128_Cbc_Decrypt
 1675      E7800000 
 1676              	.LVL175:
 1677 00aa AA8C     		mv	s9,a0
 1678              	.LVL176:
 353:C:/Users/stapi/OneDrive/Desktop/GD32VW553/V1_MQTT_OK/GD32VW55X_Wifi_BLE_SDK/GD32VW55x_RELEASE_V1.0.2/MSDK/cloud/alicloud/src/protocol/alcs\alcs_api.c **** 
 1679              		.loc 1 353 13 is_stmt 1
 1680 00ac 5E85     		mv	a0,s7
 1681              	.LVL177:
 1682 00ae 97000000 		call	HAL_Aes128_Destroy
 1682      E7800000 
 1683              	.LVL178:
 355:C:/Users/stapi/OneDrive/Desktop/GD32VW553/V1_MQTT_OK/GD32VW55X_Wifi_BLE_SDK/GD32VW55x_RELEASE_V1.0.2/MSDK/cloud/alicloud/src/protocol/alcs\alcs_api.c ****                 COAP_ERR ("fail to decrypt");
 1684              		.loc 1 355 13
 355:C:/Users/stapi/OneDrive/Desktop/GD32VW553/V1_MQTT_OK/GD32VW55X_Wifi_BLE_SDK/GD32VW55x_RELEASE_V1.0.2/MSDK/cloud/alicloud/src/protocol/alcs\alcs_api.c ****                 COAP_ERR ("fail to decrypt");
 1685              		.loc 1 355 16 is_stmt 0
 1686 00b6 639F0C04 		bne	s9,zero,.L123
 1687              	.LVL179:
 1688              	.L125:
 362:C:/Users/stapi/OneDrive/Desktop/GD32VW553/V1_MQTT_OK/GD32VW55X_Wifi_BLE_SDK/GD32VW55x_RELEASE_V1.0.2/MSDK/cloud/alicloud/src/protocol/alcs\alcs_api.c ****         out_c[offset] = 0;
 1689              		.loc 1 362 33
 1690 00ba FD14     		addi	s1,s1,-1
 1691              	.LVL180:
 362:C:/Users/stapi/OneDrive/Desktop/GD32VW553/V1_MQTT_OK/GD32VW55X_Wifi_BLE_SDK/GD32VW55x_RELEASE_V1.0.2/MSDK/cloud/alicloud/src/protocol/alcs\alcs_api.c ****         out_c[offset] = 0;
 1692              		.loc 1 362 44
 1693 00bc 9204     		slli	s1,s1,4
 1694              	.LVL181:
 1695              	.L124:
 363:C:/Users/stapi/OneDrive/Desktop/GD32VW553/V1_MQTT_OK/GD32VW55X_Wifi_BLE_SDK/GD32VW55x_RELEASE_V1.0.2/MSDK/cloud/alicloud/src/protocol/alcs\alcs_api.c **** 
 1696              		.loc 1 363 9 is_stmt 1 discriminator 4
 363:C:/Users/stapi/OneDrive/Desktop/GD32VW553/V1_MQTT_OK/GD32VW55X_Wifi_BLE_SDK/GD32VW55x_RELEASE_V1.0.2/MSDK/cloud/alicloud/src/protocol/alcs\alcs_api.c **** 
 1697              		.loc 1 363 14 is_stmt 0 discriminator 4
 1698 00be B3069900 		add	a3,s2,s1
 365:C:/Users/stapi/OneDrive/Desktop/GD32VW553/V1_MQTT_OK/GD32VW55X_Wifi_BLE_SDK/GD32VW55x_RELEASE_V1.0.2/MSDK/cloud/alicloud/src/protocol/alcs\alcs_api.c ****         if (!aes_d_h) {
 1699              		.loc 1 365 20 discriminator 4
 1700 00c2 5685     		mv	a0,s5
 363:C:/Users/stapi/OneDrive/Desktop/GD32VW553/V1_MQTT_OK/GD32VW55X_Wifi_BLE_SDK/GD32VW55x_RELEASE_V1.0.2/MSDK/cloud/alicloud/src/protocol/alcs\alcs_api.c **** 
 1701              		.loc 1 363 23 discriminator 4
 1702 00c4 23800600 		sb	zero,0(a3)
 365:C:/Users/stapi/OneDrive/Desktop/GD32VW553/V1_MQTT_OK/GD32VW55X_Wifi_BLE_SDK/GD32VW55x_RELEASE_V1.0.2/MSDK/cloud/alicloud/src/protocol/alcs\alcs_api.c ****         if (!aes_d_h) {
 1703              		.loc 1 365 20 discriminator 4
 1704 00c8 0546     		li	a2,1
 1705 00ca 93050C00 		addi	a1,s8,%lo(.LC9)
 363:C:/Users/stapi/OneDrive/Desktop/GD32VW553/V1_MQTT_OK/GD32VW55X_Wifi_BLE_SDK/GD32VW55x_RELEASE_V1.0.2/MSDK/cloud/alicloud/src/protocol/alcs\alcs_api.c **** 
 1706              		.loc 1 363 23 discriminator 4
 1707 00ce 36C6     		sw	a3,12(sp)
 365:C:/Users/stapi/OneDrive/Desktop/GD32VW553/V1_MQTT_OK/GD32VW55X_Wifi_BLE_SDK/GD32VW55x_RELEASE_V1.0.2/MSDK/cloud/alicloud/src/protocol/alcs\alcs_api.c ****         if (!aes_d_h) {
 1708              		.loc 1 365 9 is_stmt 1 discriminator 4
 365:C:/Users/stapi/OneDrive/Desktop/GD32VW553/V1_MQTT_OK/GD32VW55X_Wifi_BLE_SDK/GD32VW55x_RELEASE_V1.0.2/MSDK/cloud/alicloud/src/protocol/alcs\alcs_api.c ****         if (!aes_d_h) {
 1709              		.loc 1 365 20 is_stmt 0 discriminator 4
 1710 00d0 97000000 		call	HAL_Aes128_Init
 1710      E7800000 
 1711              	.LVL182:
 1712 00d8 AA8A     		mv	s5,a0
 1713              	.LVL183:
 366:C:/Users/stapi/OneDrive/Desktop/GD32VW553/V1_MQTT_OK/GD32VW55X_Wifi_BLE_SDK/GD32VW55x_RELEASE_V1.0.2/MSDK/cloud/alicloud/src/protocol/alcs\alcs_api.c ****             COAP_ERR ("fail to decrypt init");
 1714              		.loc 1 366 9 is_stmt 1 discriminator 4
 366:C:/Users/stapi/OneDrive/Desktop/GD32VW553/V1_MQTT_OK/GD32VW55X_Wifi_BLE_SDK/GD32VW55x_RELEASE_V1.0.2/MSDK/cloud/alicloud/src/protocol/alcs\alcs_api.c ****             COAP_ERR ("fail to decrypt init");
 1715              		.loc 1 366 12 is_stmt 0 discriminator 4
 1716 00da 49D1     		beq	a0,zero,.L126
 371:C:/Users/stapi/OneDrive/Desktop/GD32VW553/V1_MQTT_OK/GD32VW55X_Wifi_BLE_SDK/GD32VW55x_RELEASE_V1.0.2/MSDK/cloud/alicloud/src/protocol/alcs\alcs_api.c ****         HAL_Aes128_Destroy(aes_d_h);
 1717              		.loc 1 371 9 is_stmt 1
 371:C:/Users/stapi/OneDrive/Desktop/GD32VW553/V1_MQTT_OK/GD32VW55X_Wifi_BLE_SDK/GD32VW55x_RELEASE_V1.0.2/MSDK/cloud/alicloud/src/protocol/alcs\alcs_api.c ****         HAL_Aes128_Destroy(aes_d_h);
 1718              		.loc 1 371 15 is_stmt 0
 1719 00dc B246     		lw	a3,12(sp)
 1720 00de B3059B00 		add	a1,s6,s1
 1721 00e2 0546     		li	a2,1
 1722 00e4 97000000 		call	HAL_Aes128_Cbc_Decrypt
 1722      E7800000 
 1723              	.LVL184:
 1724 00ec AA84     		mv	s1,a0
 1725              	.LVL185:
 372:C:/Users/stapi/OneDrive/Desktop/GD32VW553/V1_MQTT_OK/GD32VW55X_Wifi_BLE_SDK/GD32VW55x_RELEASE_V1.0.2/MSDK/cloud/alicloud/src/protocol/alcs\alcs_api.c **** 
 1726              		.loc 1 372 9 is_stmt 1
 1727 00ee 5685     		mv	a0,s5
 1728 00f0 97000000 		call	HAL_Aes128_Destroy
 1728      E7800000 
 1729              	.LVL186:
 374:C:/Users/stapi/OneDrive/Desktop/GD32VW553/V1_MQTT_OK/GD32VW55X_Wifi_BLE_SDK/GD32VW55x_RELEASE_V1.0.2/MSDK/cloud/alicloud/src/protocol/alcs\alcs_api.c ****             COAP_ERR ("fail to decrypt remain data");
 1730              		.loc 1 374 9
 374:C:/Users/stapi/OneDrive/Desktop/GD32VW553/V1_MQTT_OK/GD32VW55X_Wifi_BLE_SDK/GD32VW55x_RELEASE_V1.0.2/MSDK/cloud/alicloud/src/protocol/alcs\alcs_api.c ****             COAP_ERR ("fail to decrypt remain data");
 1731              		.loc 1 374 12 is_stmt 0
 1732 00f8 9DCC     		beq	s1,zero,.L127
 375:C:/Users/stapi/OneDrive/Desktop/GD32VW553/V1_MQTT_OK/GD32VW55X_Wifi_BLE_SDK/GD32VW55x_RELEASE_V1.0.2/MSDK/cloud/alicloud/src/protocol/alcs\alcs_api.c ****             break;
 1733              		.loc 1 375 13 is_stmt 1
 375:C:/Users/stapi/OneDrive/Desktop/GD32VW553/V1_MQTT_OK/GD32VW55X_Wifi_BLE_SDK/GD32VW55x_RELEASE_V1.0.2/MSDK/cloud/alicloud/src/protocol/alcs\alcs_api.c ****             break;
 1734              		.loc 1 375 13
 1735 00fa 37050000 		lui	a0,%hi(.LC13)
 1736 00fe 13050500 		addi	a0,a0,%lo(.LC13)
 1737 0102 97000000 		call	HAL_Printf
 1737      E7800000 
 1738              	.LVL187:
 375:C:/Users/stapi/OneDrive/Desktop/GD32VW553/V1_MQTT_OK/GD32VW55X_Wifi_BLE_SDK/GD32VW55x_RELEASE_V1.0.2/MSDK/cloud/alicloud/src/protocol/alcs\alcs_api.c ****             break;
 1739              		.loc 1 375 13
 1740 010a 37050000 		lui	a0,%hi(.LC16)
 1741 010e 13050500 		addi	a0,a0,%lo(.LC16)
 1742 0112 8DB7     		j	.L132
 1743              	.LVL188:
 1744              	.L123:
 356:C:/Users/stapi/OneDrive/Desktop/GD32VW553/V1_MQTT_OK/GD32VW55X_Wifi_BLE_SDK/GD32VW55x_RELEASE_V1.0.2/MSDK/cloud/alicloud/src/protocol/alcs\alcs_api.c ****                 break;
 1745              		.loc 1 356 17
 356:C:/Users/stapi/OneDrive/Desktop/GD32VW553/V1_MQTT_OK/GD32VW55X_Wifi_BLE_SDK/GD32VW55x_RELEASE_V1.0.2/MSDK/cloud/alicloud/src/protocol/alcs\alcs_api.c ****                 break;
 1746              		.loc 1 356 17
 1747 0114 37050000 		lui	a0,%hi(.LC13)
 1748 0118 13050500 		addi	a0,a0,%lo(.LC13)
 1749 011c 97000000 		call	HAL_Printf
 1749      E7800000 
 1750              	.LVL189:
 356:C:/Users/stapi/OneDrive/Desktop/GD32VW553/V1_MQTT_OK/GD32VW55X_Wifi_BLE_SDK/GD32VW55x_RELEASE_V1.0.2/MSDK/cloud/alicloud/src/protocol/alcs\alcs_api.c ****                 break;
 1751              		.loc 1 356 17
 1752 0124 37050000 		lui	a0,%hi(.LC15)
 1753 0128 13050500 		addi	a0,a0,%lo(.LC15)
 1754 012c A1B7     		j	.L132
 1755              	.LVL190:
 1756              	.L120:
 361:C:/Users/stapi/OneDrive/Desktop/GD32VW553/V1_MQTT_OK/GD32VW55X_Wifi_BLE_SDK/GD32VW55x_RELEASE_V1.0.2/MSDK/cloud/alicloud/src/protocol/alcs\alcs_api.c ****         int offset = n > 0? ((n - 1) << 4) : 0;
 1757              		.loc 1 361 9
 362:C:/Users/stapi/OneDrive/Desktop/GD32VW553/V1_MQTT_OK/GD32VW55X_Wifi_BLE_SDK/GD32VW55x_RELEASE_V1.0.2/MSDK/cloud/alicloud/src/protocol/alcs\alcs_api.c ****         out_c[offset] = 0;
 1758              		.loc 1 362 9
 362:C:/Users/stapi/OneDrive/Desktop/GD32VW553/V1_MQTT_OK/GD32VW55X_Wifi_BLE_SDK/GD32VW55x_RELEASE_V1.0.2/MSDK/cloud/alicloud/src/protocol/alcs\alcs_api.c ****         out_c[offset] = 0;
 1759              		.loc 1 362 44 is_stmt 0
 1760 012e E386F4F8 		beq	s1,a5,.L125
 1761 0132 8144     		li	s1,0
 1762              	.LVL191:
 1763 0134 69B7     		j	.L124
 1764              	.LVL192:
 1765              	.L127:
 379:C:/Users/stapi/OneDrive/Desktop/GD32VW553/V1_MQTT_OK/GD32VW55X_Wifi_BLE_SDK/GD32VW55x_RELEASE_V1.0.2/MSDK/cloud/alicloud/src/protocol/alcs\alcs_api.c ****         out_c[len - pad] = 0;
 1766              		.loc 1 379 9 is_stmt 1
 380:C:/Users/stapi/OneDrive/Desktop/GD32VW553/V1_MQTT_OK/GD32VW55X_Wifi_BLE_SDK/GD32VW55x_RELEASE_V1.0.2/MSDK/cloud/alicloud/src/protocol/alcs\alcs_api.c ****         COAP_DEBUG ("decrypt data:%s, len:%d", out_c, len - pad);
 1767              		.loc 1 380 9
 379:C:/Users/stapi/OneDrive/Desktop/GD32VW553/V1_MQTT_OK/GD32VW55X_Wifi_BLE_SDK/GD32VW55x_RELEASE_V1.0.2/MSDK/cloud/alicloud/src/protocol/alcs\alcs_api.c ****         out_c[len - pad] = 0;
 1768              		.loc 1 379 14 is_stmt 0
 1769 0136 B3078900 		add	a5,s2,s0
 380:C:/Users/stapi/OneDrive/Desktop/GD32VW553/V1_MQTT_OK/GD32VW55X_Wifi_BLE_SDK/GD32VW55x_RELEASE_V1.0.2/MSDK/cloud/alicloud/src/protocol/alcs\alcs_api.c ****         COAP_DEBUG ("decrypt data:%s, len:%d", out_c, len - pad);
 1770              		.loc 1 380 19
 1771 013a 0388F7FF 		lb	a6,-1(a5)
 1772 013e 33040441 		sub	s0,s0,a6
 1773              	.LVL193:
 380:C:/Users/stapi/OneDrive/Desktop/GD32VW553/V1_MQTT_OK/GD32VW55X_Wifi_BLE_SDK/GD32VW55x_RELEASE_V1.0.2/MSDK/cloud/alicloud/src/protocol/alcs\alcs_api.c ****         COAP_DEBUG ("decrypt data:%s, len:%d", out_c, len - pad);
 1774              		.loc 1 380 26
 1775 0142 B3078900 		add	a5,s2,s0
 381:C:/Users/stapi/OneDrive/Desktop/GD32VW553/V1_MQTT_OK/GD32VW55X_Wifi_BLE_SDK/GD32VW55x_RELEASE_V1.0.2/MSDK/cloud/alicloud/src/protocol/alcs\alcs_api.c ****         return len - pad;
 1776              		.loc 1 381 9
 1777 0146 37070000 		lui	a4,%hi(.LC17)
 380:C:/Users/stapi/OneDrive/Desktop/GD32VW553/V1_MQTT_OK/GD32VW55X_Wifi_BLE_SDK/GD32VW55x_RELEASE_V1.0.2/MSDK/cloud/alicloud/src/protocol/alcs\alcs_api.c ****         COAP_DEBUG ("decrypt data:%s, len:%d", out_c, len - pad);
 1778              		.loc 1 380 26
 1779 014a 23800700 		sb	zero,0(a5)
 381:C:/Users/stapi/OneDrive/Desktop/GD32VW553/V1_MQTT_OK/GD32VW55X_Wifi_BLE_SDK/GD32VW55x_RELEASE_V1.0.2/MSDK/cloud/alicloud/src/protocol/alcs\alcs_api.c ****         return len - pad;
 1780              		.loc 1 381 9 is_stmt 1
 1781 014e 2288     		mv	a6,s0
 1782              	.LVL194:
 1783 0150 CA87     		mv	a5,s2
 1784 0152 13070700 		addi	a4,a4,%lo(.LC17)
 1785 0156 9546     		li	a3,5
 1786 0158 1306D017 		li	a2,381
 1787 015c 93050A00 		addi	a1,s4,%lo(.LANCHOR8)
 1788 0160 13850900 		addi	a0,s3,%lo(.LC6)
 1789 0164 97000000 		call	LITE_syslog
 1789      E7800000 
 1790              	.LVL195:
 382:C:/Users/stapi/OneDrive/Desktop/GD32VW553/V1_MQTT_OK/GD32VW55X_Wifi_BLE_SDK/GD32VW55x_RELEASE_V1.0.2/MSDK/cloud/alicloud/src/protocol/alcs\alcs_api.c ****     } while (0);
 1791              		.loc 1 382 9
 382:C:/Users/stapi/OneDrive/Desktop/GD32VW553/V1_MQTT_OK/GD32VW55X_Wifi_BLE_SDK/GD32VW55x_RELEASE_V1.0.2/MSDK/cloud/alicloud/src/protocol/alcs\alcs_api.c ****     } while (0);
 1792              		.loc 1 382 20 is_stmt 0
 1793 016c 0DB7     		j	.L119
 1794              	.LBE79:
 1795              		.cfi_endproc
 1796              	.LFE37:
 1798              		.section	.text.alcs_is_auth,"ax",@progbits
 1799              		.align	1
 1800              		.globl	alcs_is_auth
 1802              	alcs_is_auth:
 1803              	.LFB38:
 389:C:/Users/stapi/OneDrive/Desktop/GD32VW553/V1_MQTT_OK/GD32VW55X_Wifi_BLE_SDK/GD32VW55x_RELEASE_V1.0.2/MSDK/cloud/alicloud/src/protocol/alcs\alcs_api.c ****     return get_auth_session(devKey) != NULL;
 1804              		.loc 1 389 1 is_stmt 1
 1805              		.cfi_startproc
 1806              	.LVL196:
 390:C:/Users/stapi/OneDrive/Desktop/GD32VW553/V1_MQTT_OK/GD32VW55X_Wifi_BLE_SDK/GD32VW55x_RELEASE_V1.0.2/MSDK/cloud/alicloud/src/protocol/alcs\alcs_api.c **** }
 1807              		.loc 1 390 5
 142:C:/Users/stapi/OneDrive/Desktop/GD32VW553/V1_MQTT_OK/GD32VW55X_Wifi_BLE_SDK/GD32VW55x_RELEASE_V1.0.2/MSDK/cloud/alicloud/src/protocol/alcs\alcs_api.c **** }
 1808              		.loc 1 142 5
 391:C:/Users/stapi/OneDrive/Desktop/GD32VW553/V1_MQTT_OK/GD32VW55X_Wifi_BLE_SDK/GD32VW55x_RELEASE_V1.0.2/MSDK/cloud/alicloud/src/protocol/alcs\alcs_api.c **** 
 1809              		.loc 1 391 1 is_stmt 0
 1810 0000 0145     		li	a0,0
 1811              	.LVL197:
 1812 0002 8280     		ret
 1813              		.cfi_endproc
 1814              	.LFE38:
 1816              		.section	.rodata.req_payload_parser.str1.4,"aMS",@progbits,1
 1817              		.align	2
 1818              	.LC18:
 1819 0000 696400   		.string	"id"
 1820 0003 00       		.align	2
 1821              	.LC19:
 1822 0004 70617261 		.string	"params"
 1822      6D7300
 1823              		.section	.text.req_payload_parser,"ax",@progbits
 1824              		.align	1
 1825              		.globl	req_payload_parser
 1827              	req_payload_parser:
 1828              	.LFB42:
 423:C:/Users/stapi/OneDrive/Desktop/GD32VW553/V1_MQTT_OK/GD32VW55X_Wifi_BLE_SDK/GD32VW55x_RELEASE_V1.0.2/MSDK/cloud/alicloud/src/protocol/alcs\alcs_api.c **** 
 424:C:/Users/stapi/OneDrive/Desktop/GD32VW553/V1_MQTT_OK/GD32VW55X_Wifi_BLE_SDK/GD32VW55x_RELEASE_V1.0.2/MSDK/cloud/alicloud/src/protocol/alcs\alcs_api.c **** void add_message_seq (CoAPMessage *message, session_item* session);
 425:C:/Users/stapi/OneDrive/Desktop/GD32VW553/V1_MQTT_OK/GD32VW55X_Wifi_BLE_SDK/GD32VW55x_RELEASE_V1.0.2/MSDK/cloud/alicloud/src/protocol/alcs\alcs_api.c **** int internal_secure_send (CoAPContext *ctx, session_item* session, NetworkAddr *addr, CoAPMessage *
 426:C:/Users/stapi/OneDrive/Desktop/GD32VW553/V1_MQTT_OK/GD32VW55X_Wifi_BLE_SDK/GD32VW55x_RELEASE_V1.0.2/MSDK/cloud/alicloud/src/protocol/alcs\alcs_api.c **** {
 427:C:/Users/stapi/OneDrive/Desktop/GD32VW553/V1_MQTT_OK/GD32VW55X_Wifi_BLE_SDK/GD32VW55x_RELEASE_V1.0.2/MSDK/cloud/alicloud/src/protocol/alcs\alcs_api.c ****     COAP_DEBUG ("internal_secure_send");
 428:C:/Users/stapi/OneDrive/Desktop/GD32VW553/V1_MQTT_OK/GD32VW55X_Wifi_BLE_SDK/GD32VW55x_RELEASE_V1.0.2/MSDK/cloud/alicloud/src/protocol/alcs\alcs_api.c ****     if (!ctx || !session || !addr || !message) {
 429:C:/Users/stapi/OneDrive/Desktop/GD32VW553/V1_MQTT_OK/GD32VW55X_Wifi_BLE_SDK/GD32VW55x_RELEASE_V1.0.2/MSDK/cloud/alicloud/src/protocol/alcs\alcs_api.c ****         COAP_ERR ("parameter is null");
 430:C:/Users/stapi/OneDrive/Desktop/GD32VW553/V1_MQTT_OK/GD32VW55X_Wifi_BLE_SDK/GD32VW55x_RELEASE_V1.0.2/MSDK/cloud/alicloud/src/protocol/alcs\alcs_api.c ****         return COAP_ERROR_INVALID_PARAM;
 431:C:/Users/stapi/OneDrive/Desktop/GD32VW553/V1_MQTT_OK/GD32VW55X_Wifi_BLE_SDK/GD32VW55x_RELEASE_V1.0.2/MSDK/cloud/alicloud/src/protocol/alcs\alcs_api.c ****     }
 432:C:/Users/stapi/OneDrive/Desktop/GD32VW553/V1_MQTT_OK/GD32VW55X_Wifi_BLE_SDK/GD32VW55x_RELEASE_V1.0.2/MSDK/cloud/alicloud/src/protocol/alcs\alcs_api.c **** 
 433:C:/Users/stapi/OneDrive/Desktop/GD32VW553/V1_MQTT_OK/GD32VW55X_Wifi_BLE_SDK/GD32VW55x_RELEASE_V1.0.2/MSDK/cloud/alicloud/src/protocol/alcs\alcs_api.c ****     CoAPUintOption_add (message, COAP_OPTION_CONTENT_FORMAT, COAP_CT_APP_OCTET_STREAM);
 434:C:/Users/stapi/OneDrive/Desktop/GD32VW553/V1_MQTT_OK/GD32VW55X_Wifi_BLE_SDK/GD32VW55x_RELEASE_V1.0.2/MSDK/cloud/alicloud/src/protocol/alcs\alcs_api.c **** 
 435:C:/Users/stapi/OneDrive/Desktop/GD32VW553/V1_MQTT_OK/GD32VW55X_Wifi_BLE_SDK/GD32VW55x_RELEASE_V1.0.2/MSDK/cloud/alicloud/src/protocol/alcs\alcs_api.c ****     CoAPLenString payload = {message->payloadlen, (unsigned char *)message->payload};
 436:C:/Users/stapi/OneDrive/Desktop/GD32VW553/V1_MQTT_OK/GD32VW55X_Wifi_BLE_SDK/GD32VW55x_RELEASE_V1.0.2/MSDK/cloud/alicloud/src/protocol/alcs\alcs_api.c ****     add_message_sessionid (message, session->sessionId, session->opt, &payload);
 437:C:/Users/stapi/OneDrive/Desktop/GD32VW553/V1_MQTT_OK/GD32VW55X_Wifi_BLE_SDK/GD32VW55x_RELEASE_V1.0.2/MSDK/cloud/alicloud/src/protocol/alcs\alcs_api.c ****     add_message_seq (message, session);
 438:C:/Users/stapi/OneDrive/Desktop/GD32VW553/V1_MQTT_OK/GD32VW55X_Wifi_BLE_SDK/GD32VW55x_RELEASE_V1.0.2/MSDK/cloud/alicloud/src/protocol/alcs\alcs_api.c ****     COAP_DEBUG("secure_send sessionId:%d", session->sessionId);
 439:C:/Users/stapi/OneDrive/Desktop/GD32VW553/V1_MQTT_OK/GD32VW55X_Wifi_BLE_SDK/GD32VW55x_RELEASE_V1.0.2/MSDK/cloud/alicloud/src/protocol/alcs\alcs_api.c **** 
 440:C:/Users/stapi/OneDrive/Desktop/GD32VW553/V1_MQTT_OK/GD32VW55X_Wifi_BLE_SDK/GD32VW55x_RELEASE_V1.0.2/MSDK/cloud/alicloud/src/protocol/alcs\alcs_api.c ****     return do_secure_send (ctx, addr, message, session->sessionKey);
 441:C:/Users/stapi/OneDrive/Desktop/GD32VW553/V1_MQTT_OK/GD32VW55X_Wifi_BLE_SDK/GD32VW55x_RELEASE_V1.0.2/MSDK/cloud/alicloud/src/protocol/alcs\alcs_api.c **** }
 442:C:/Users/stapi/OneDrive/Desktop/GD32VW553/V1_MQTT_OK/GD32VW55X_Wifi_BLE_SDK/GD32VW55x_RELEASE_V1.0.2/MSDK/cloud/alicloud/src/protocol/alcs\alcs_api.c **** 
 443:C:/Users/stapi/OneDrive/Desktop/GD32VW553/V1_MQTT_OK/GD32VW55X_Wifi_BLE_SDK/GD32VW55x_RELEASE_V1.0.2/MSDK/cloud/alicloud/src/protocol/alcs\alcs_api.c **** #ifdef ALCS_CLIENT_ENABLED
 444:C:/Users/stapi/OneDrive/Desktop/GD32VW553/V1_MQTT_OK/GD32VW55X_Wifi_BLE_SDK/GD32VW55x_RELEASE_V1.0.2/MSDK/cloud/alicloud/src/protocol/alcs\alcs_api.c **** static void call_cb (CoAPContext *context, NetworkAddr *remote, CoAPMessage* message, const char* k
 445:C:/Users/stapi/OneDrive/Desktop/GD32VW553/V1_MQTT_OK/GD32VW55X_Wifi_BLE_SDK/GD32VW55x_RELEASE_V1.0.2/MSDK/cloud/alicloud/src/protocol/alcs\alcs_api.c **** {
 446:C:/Users/stapi/OneDrive/Desktop/GD32VW553/V1_MQTT_OK/GD32VW55X_Wifi_BLE_SDK/GD32VW55x_RELEASE_V1.0.2/MSDK/cloud/alicloud/src/protocol/alcs\alcs_api.c ****     if (send_item->orig_handler) {
 447:C:/Users/stapi/OneDrive/Desktop/GD32VW553/V1_MQTT_OK/GD32VW55X_Wifi_BLE_SDK/GD32VW55x_RELEASE_V1.0.2/MSDK/cloud/alicloud/src/protocol/alcs\alcs_api.c ****         int len = alcs_decrypt ((const char *)message->payload, message->payloadlen, key, buf);
 448:C:/Users/stapi/OneDrive/Desktop/GD32VW553/V1_MQTT_OK/GD32VW55X_Wifi_BLE_SDK/GD32VW55x_RELEASE_V1.0.2/MSDK/cloud/alicloud/src/protocol/alcs\alcs_api.c ****         CoAPMessage tmpMsg;
 449:C:/Users/stapi/OneDrive/Desktop/GD32VW553/V1_MQTT_OK/GD32VW55X_Wifi_BLE_SDK/GD32VW55x_RELEASE_V1.0.2/MSDK/cloud/alicloud/src/protocol/alcs\alcs_api.c ****         memcpy (&tmpMsg, message, sizeof(CoAPMessage));
 450:C:/Users/stapi/OneDrive/Desktop/GD32VW553/V1_MQTT_OK/GD32VW55X_Wifi_BLE_SDK/GD32VW55x_RELEASE_V1.0.2/MSDK/cloud/alicloud/src/protocol/alcs\alcs_api.c ****         tmpMsg.payload = (unsigned char *)buf;
 451:C:/Users/stapi/OneDrive/Desktop/GD32VW553/V1_MQTT_OK/GD32VW55X_Wifi_BLE_SDK/GD32VW55x_RELEASE_V1.0.2/MSDK/cloud/alicloud/src/protocol/alcs\alcs_api.c ****         tmpMsg.payloadlen = len;
 452:C:/Users/stapi/OneDrive/Desktop/GD32VW553/V1_MQTT_OK/GD32VW55X_Wifi_BLE_SDK/GD32VW55x_RELEASE_V1.0.2/MSDK/cloud/alicloud/src/protocol/alcs\alcs_api.c ****         send_item->orig_handler (context, COAP_REQUEST_SUCCESS, send_item->orig_user_data, remote, 
 453:C:/Users/stapi/OneDrive/Desktop/GD32VW553/V1_MQTT_OK/GD32VW55X_Wifi_BLE_SDK/GD32VW55x_RELEASE_V1.0.2/MSDK/cloud/alicloud/src/protocol/alcs\alcs_api.c ****     }
 454:C:/Users/stapi/OneDrive/Desktop/GD32VW553/V1_MQTT_OK/GD32VW55X_Wifi_BLE_SDK/GD32VW55x_RELEASE_V1.0.2/MSDK/cloud/alicloud/src/protocol/alcs\alcs_api.c **** }
 455:C:/Users/stapi/OneDrive/Desktop/GD32VW553/V1_MQTT_OK/GD32VW55X_Wifi_BLE_SDK/GD32VW55x_RELEASE_V1.0.2/MSDK/cloud/alicloud/src/protocol/alcs\alcs_api.c **** 
 456:C:/Users/stapi/OneDrive/Desktop/GD32VW553/V1_MQTT_OK/GD32VW55X_Wifi_BLE_SDK/GD32VW55x_RELEASE_V1.0.2/MSDK/cloud/alicloud/src/protocol/alcs\alcs_api.c **** void secure_sendmsg_handler(CoAPContext *context, CoAPReqResult result, void *userdata, NetworkAddr
 457:C:/Users/stapi/OneDrive/Desktop/GD32VW553/V1_MQTT_OK/GD32VW55X_Wifi_BLE_SDK/GD32VW55x_RELEASE_V1.0.2/MSDK/cloud/alicloud/src/protocol/alcs\alcs_api.c **** {
 458:C:/Users/stapi/OneDrive/Desktop/GD32VW553/V1_MQTT_OK/GD32VW55X_Wifi_BLE_SDK/GD32VW55x_RELEASE_V1.0.2/MSDK/cloud/alicloud/src/protocol/alcs\alcs_api.c ****     if (!context || !userdata || !remote) {
 459:C:/Users/stapi/OneDrive/Desktop/GD32VW553/V1_MQTT_OK/GD32VW55X_Wifi_BLE_SDK/GD32VW55x_RELEASE_V1.0.2/MSDK/cloud/alicloud/src/protocol/alcs\alcs_api.c ****         return;
 460:C:/Users/stapi/OneDrive/Desktop/GD32VW553/V1_MQTT_OK/GD32VW55X_Wifi_BLE_SDK/GD32VW55x_RELEASE_V1.0.2/MSDK/cloud/alicloud/src/protocol/alcs\alcs_api.c ****     }
 461:C:/Users/stapi/OneDrive/Desktop/GD32VW553/V1_MQTT_OK/GD32VW55X_Wifi_BLE_SDK/GD32VW55x_RELEASE_V1.0.2/MSDK/cloud/alicloud/src/protocol/alcs\alcs_api.c **** 
 462:C:/Users/stapi/OneDrive/Desktop/GD32VW553/V1_MQTT_OK/GD32VW55X_Wifi_BLE_SDK/GD32VW55x_RELEASE_V1.0.2/MSDK/cloud/alicloud/src/protocol/alcs\alcs_api.c ****     secure_send_item* send_item = (secure_send_item*)userdata;
 463:C:/Users/stapi/OneDrive/Desktop/GD32VW553/V1_MQTT_OK/GD32VW55X_Wifi_BLE_SDK/GD32VW55x_RELEASE_V1.0.2/MSDK/cloud/alicloud/src/protocol/alcs\alcs_api.c ****     if (result == COAP_RECV_RESP_TIMEOUT) {
 464:C:/Users/stapi/OneDrive/Desktop/GD32VW553/V1_MQTT_OK/GD32VW55X_Wifi_BLE_SDK/GD32VW55x_RELEASE_V1.0.2/MSDK/cloud/alicloud/src/protocol/alcs\alcs_api.c ****         if (send_item->orig_handler) {
 465:C:/Users/stapi/OneDrive/Desktop/GD32VW553/V1_MQTT_OK/GD32VW55X_Wifi_BLE_SDK/GD32VW55x_RELEASE_V1.0.2/MSDK/cloud/alicloud/src/protocol/alcs\alcs_api.c ****             send_item->orig_handler (context, COAP_RECV_RESP_TIMEOUT, send_item->orig_user_data, re
 466:C:/Users/stapi/OneDrive/Desktop/GD32VW553/V1_MQTT_OK/GD32VW55X_Wifi_BLE_SDK/GD32VW55x_RELEASE_V1.0.2/MSDK/cloud/alicloud/src/protocol/alcs\alcs_api.c ****         }
 467:C:/Users/stapi/OneDrive/Desktop/GD32VW553/V1_MQTT_OK/GD32VW55X_Wifi_BLE_SDK/GD32VW55x_RELEASE_V1.0.2/MSDK/cloud/alicloud/src/protocol/alcs\alcs_api.c ****         COAP_INFO("secure_sendmsg_handler timeout");
 468:C:/Users/stapi/OneDrive/Desktop/GD32VW553/V1_MQTT_OK/GD32VW55X_Wifi_BLE_SDK/GD32VW55x_RELEASE_V1.0.2/MSDK/cloud/alicloud/src/protocol/alcs\alcs_api.c ****     } else {
 469:C:/Users/stapi/OneDrive/Desktop/GD32VW553/V1_MQTT_OK/GD32VW55X_Wifi_BLE_SDK/GD32VW55x_RELEASE_V1.0.2/MSDK/cloud/alicloud/src/protocol/alcs\alcs_api.c ****         unsigned int sessionId = 0;
 470:C:/Users/stapi/OneDrive/Desktop/GD32VW553/V1_MQTT_OK/GD32VW55X_Wifi_BLE_SDK/GD32VW55x_RELEASE_V1.0.2/MSDK/cloud/alicloud/src/protocol/alcs\alcs_api.c ****         CoAPUintOption_get (message, COAP_OPTION_SESSIONID, &sessionId);
 471:C:/Users/stapi/OneDrive/Desktop/GD32VW553/V1_MQTT_OK/GD32VW55X_Wifi_BLE_SDK/GD32VW55x_RELEASE_V1.0.2/MSDK/cloud/alicloud/src/protocol/alcs\alcs_api.c ****         COAP_DEBUG("secure_sendmsg_handler, sessionID:%d", (int)sessionId);
 472:C:/Users/stapi/OneDrive/Desktop/GD32VW553/V1_MQTT_OK/GD32VW55X_Wifi_BLE_SDK/GD32VW55x_RELEASE_V1.0.2/MSDK/cloud/alicloud/src/protocol/alcs\alcs_api.c **** 
 473:C:/Users/stapi/OneDrive/Desktop/GD32VW553/V1_MQTT_OK/GD32VW55X_Wifi_BLE_SDK/GD32VW55x_RELEASE_V1.0.2/MSDK/cloud/alicloud/src/protocol/alcs\alcs_api.c ****         session_item* session = get_auth_session_by_checksum (remote, send_item->pk_dn);
 474:C:/Users/stapi/OneDrive/Desktop/GD32VW553/V1_MQTT_OK/GD32VW55X_Wifi_BLE_SDK/GD32VW55x_RELEASE_V1.0.2/MSDK/cloud/alicloud/src/protocol/alcs\alcs_api.c **** 
 475:C:/Users/stapi/OneDrive/Desktop/GD32VW553/V1_MQTT_OK/GD32VW55X_Wifi_BLE_SDK/GD32VW55x_RELEASE_V1.0.2/MSDK/cloud/alicloud/src/protocol/alcs\alcs_api.c ****         if (!session || session->sessionId != sessionId) {
 476:C:/Users/stapi/OneDrive/Desktop/GD32VW553/V1_MQTT_OK/GD32VW55X_Wifi_BLE_SDK/GD32VW55x_RELEASE_V1.0.2/MSDK/cloud/alicloud/src/protocol/alcs\alcs_api.c ****             COAP_ERR ("secure_sendmsg_handler, need auth, from:%s", remote->addr);
 477:C:/Users/stapi/OneDrive/Desktop/GD32VW553/V1_MQTT_OK/GD32VW55X_Wifi_BLE_SDK/GD32VW55x_RELEASE_V1.0.2/MSDK/cloud/alicloud/src/protocol/alcs\alcs_api.c ****             //todo
 478:C:/Users/stapi/OneDrive/Desktop/GD32VW553/V1_MQTT_OK/GD32VW55X_Wifi_BLE_SDK/GD32VW55x_RELEASE_V1.0.2/MSDK/cloud/alicloud/src/protocol/alcs\alcs_api.c ****         } else {
 479:C:/Users/stapi/OneDrive/Desktop/GD32VW553/V1_MQTT_OK/GD32VW55X_Wifi_BLE_SDK/GD32VW55x_RELEASE_V1.0.2/MSDK/cloud/alicloud/src/protocol/alcs\alcs_api.c ****             session->heart_time = HAL_UptimeMs();
 480:C:/Users/stapi/OneDrive/Desktop/GD32VW553/V1_MQTT_OK/GD32VW55X_Wifi_BLE_SDK/GD32VW55x_RELEASE_V1.0.2/MSDK/cloud/alicloud/src/protocol/alcs\alcs_api.c ****             if (message->payloadlen < 128) {
 481:C:/Users/stapi/OneDrive/Desktop/GD32VW553/V1_MQTT_OK/GD32VW55X_Wifi_BLE_SDK/GD32VW55x_RELEASE_V1.0.2/MSDK/cloud/alicloud/src/protocol/alcs\alcs_api.c ****                 char buf[128];
 482:C:/Users/stapi/OneDrive/Desktop/GD32VW553/V1_MQTT_OK/GD32VW55X_Wifi_BLE_SDK/GD32VW55x_RELEASE_V1.0.2/MSDK/cloud/alicloud/src/protocol/alcs\alcs_api.c ****                 call_cb (context, remote, message, session->sessionKey, buf, send_item);
 483:C:/Users/stapi/OneDrive/Desktop/GD32VW553/V1_MQTT_OK/GD32VW55X_Wifi_BLE_SDK/GD32VW55x_RELEASE_V1.0.2/MSDK/cloud/alicloud/src/protocol/alcs\alcs_api.c ****             } else {
 484:C:/Users/stapi/OneDrive/Desktop/GD32VW553/V1_MQTT_OK/GD32VW55X_Wifi_BLE_SDK/GD32VW55x_RELEASE_V1.0.2/MSDK/cloud/alicloud/src/protocol/alcs\alcs_api.c ****                 char* buf = (char*)coap_malloc(message->payloadlen);
 485:C:/Users/stapi/OneDrive/Desktop/GD32VW553/V1_MQTT_OK/GD32VW55X_Wifi_BLE_SDK/GD32VW55x_RELEASE_V1.0.2/MSDK/cloud/alicloud/src/protocol/alcs\alcs_api.c ****                 if (buf) {
 486:C:/Users/stapi/OneDrive/Desktop/GD32VW553/V1_MQTT_OK/GD32VW55X_Wifi_BLE_SDK/GD32VW55x_RELEASE_V1.0.2/MSDK/cloud/alicloud/src/protocol/alcs\alcs_api.c ****                     call_cb (context, remote, message, session->sessionKey, buf, send_item);
 487:C:/Users/stapi/OneDrive/Desktop/GD32VW553/V1_MQTT_OK/GD32VW55X_Wifi_BLE_SDK/GD32VW55x_RELEASE_V1.0.2/MSDK/cloud/alicloud/src/protocol/alcs\alcs_api.c ****                     coap_free (buf);
 488:C:/Users/stapi/OneDrive/Desktop/GD32VW553/V1_MQTT_OK/GD32VW55X_Wifi_BLE_SDK/GD32VW55x_RELEASE_V1.0.2/MSDK/cloud/alicloud/src/protocol/alcs\alcs_api.c ****                 }
 489:C:/Users/stapi/OneDrive/Desktop/GD32VW553/V1_MQTT_OK/GD32VW55X_Wifi_BLE_SDK/GD32VW55x_RELEASE_V1.0.2/MSDK/cloud/alicloud/src/protocol/alcs\alcs_api.c ****             }
 490:C:/Users/stapi/OneDrive/Desktop/GD32VW553/V1_MQTT_OK/GD32VW55X_Wifi_BLE_SDK/GD32VW55x_RELEASE_V1.0.2/MSDK/cloud/alicloud/src/protocol/alcs\alcs_api.c ****         }
 491:C:/Users/stapi/OneDrive/Desktop/GD32VW553/V1_MQTT_OK/GD32VW55X_Wifi_BLE_SDK/GD32VW55x_RELEASE_V1.0.2/MSDK/cloud/alicloud/src/protocol/alcs\alcs_api.c ****     }
 492:C:/Users/stapi/OneDrive/Desktop/GD32VW553/V1_MQTT_OK/GD32VW55X_Wifi_BLE_SDK/GD32VW55x_RELEASE_V1.0.2/MSDK/cloud/alicloud/src/protocol/alcs\alcs_api.c **** 
 493:C:/Users/stapi/OneDrive/Desktop/GD32VW553/V1_MQTT_OK/GD32VW55X_Wifi_BLE_SDK/GD32VW55x_RELEASE_V1.0.2/MSDK/cloud/alicloud/src/protocol/alcs\alcs_api.c ****     unsigned int obsVal;
 494:C:/Users/stapi/OneDrive/Desktop/GD32VW553/V1_MQTT_OK/GD32VW55X_Wifi_BLE_SDK/GD32VW55x_RELEASE_V1.0.2/MSDK/cloud/alicloud/src/protocol/alcs\alcs_api.c ****     if (CoAPUintOption_get (message, COAP_OPTION_OBSERVE, &obsVal) != COAP_SUCCESS) {
 495:C:/Users/stapi/OneDrive/Desktop/GD32VW553/V1_MQTT_OK/GD32VW55X_Wifi_BLE_SDK/GD32VW55x_RELEASE_V1.0.2/MSDK/cloud/alicloud/src/protocol/alcs\alcs_api.c ****         coap_free (send_item);
 496:C:/Users/stapi/OneDrive/Desktop/GD32VW553/V1_MQTT_OK/GD32VW55X_Wifi_BLE_SDK/GD32VW55x_RELEASE_V1.0.2/MSDK/cloud/alicloud/src/protocol/alcs\alcs_api.c ****     }
 497:C:/Users/stapi/OneDrive/Desktop/GD32VW553/V1_MQTT_OK/GD32VW55X_Wifi_BLE_SDK/GD32VW55x_RELEASE_V1.0.2/MSDK/cloud/alicloud/src/protocol/alcs\alcs_api.c **** }
 498:C:/Users/stapi/OneDrive/Desktop/GD32VW553/V1_MQTT_OK/GD32VW55X_Wifi_BLE_SDK/GD32VW55x_RELEASE_V1.0.2/MSDK/cloud/alicloud/src/protocol/alcs\alcs_api.c **** 
 499:C:/Users/stapi/OneDrive/Desktop/GD32VW553/V1_MQTT_OK/GD32VW55X_Wifi_BLE_SDK/GD32VW55x_RELEASE_V1.0.2/MSDK/cloud/alicloud/src/protocol/alcs\alcs_api.c **** int alcs_sendmsg_secure(CoAPContext *ctx, AlcsDeviceKey* devKey, CoAPMessage *message, char observe
 500:C:/Users/stapi/OneDrive/Desktop/GD32VW553/V1_MQTT_OK/GD32VW55X_Wifi_BLE_SDK/GD32VW55x_RELEASE_V1.0.2/MSDK/cloud/alicloud/src/protocol/alcs\alcs_api.c **** {
 501:C:/Users/stapi/OneDrive/Desktop/GD32VW553/V1_MQTT_OK/GD32VW55X_Wifi_BLE_SDK/GD32VW55x_RELEASE_V1.0.2/MSDK/cloud/alicloud/src/protocol/alcs\alcs_api.c ****     if (!ctx || !devKey || !message) {
 502:C:/Users/stapi/OneDrive/Desktop/GD32VW553/V1_MQTT_OK/GD32VW55X_Wifi_BLE_SDK/GD32VW55x_RELEASE_V1.0.2/MSDK/cloud/alicloud/src/protocol/alcs\alcs_api.c ****         return COAP_ERROR_INVALID_PARAM;
 503:C:/Users/stapi/OneDrive/Desktop/GD32VW553/V1_MQTT_OK/GD32VW55X_Wifi_BLE_SDK/GD32VW55x_RELEASE_V1.0.2/MSDK/cloud/alicloud/src/protocol/alcs\alcs_api.c ****     }
 504:C:/Users/stapi/OneDrive/Desktop/GD32VW553/V1_MQTT_OK/GD32VW55X_Wifi_BLE_SDK/GD32VW55x_RELEASE_V1.0.2/MSDK/cloud/alicloud/src/protocol/alcs\alcs_api.c **** 
 505:C:/Users/stapi/OneDrive/Desktop/GD32VW553/V1_MQTT_OK/GD32VW55X_Wifi_BLE_SDK/GD32VW55x_RELEASE_V1.0.2/MSDK/cloud/alicloud/src/protocol/alcs\alcs_api.c ****     session_item* session = get_auth_session(devKey);
 506:C:/Users/stapi/OneDrive/Desktop/GD32VW553/V1_MQTT_OK/GD32VW55X_Wifi_BLE_SDK/GD32VW55x_RELEASE_V1.0.2/MSDK/cloud/alicloud/src/protocol/alcs\alcs_api.c ****     if (!session) {
 507:C:/Users/stapi/OneDrive/Desktop/GD32VW553/V1_MQTT_OK/GD32VW55X_Wifi_BLE_SDK/GD32VW55x_RELEASE_V1.0.2/MSDK/cloud/alicloud/src/protocol/alcs\alcs_api.c ****         COAP_DEBUG("alcs_sendmsg_secure, session not found");
 508:C:/Users/stapi/OneDrive/Desktop/GD32VW553/V1_MQTT_OK/GD32VW55X_Wifi_BLE_SDK/GD32VW55x_RELEASE_V1.0.2/MSDK/cloud/alicloud/src/protocol/alcs\alcs_api.c ****         return ALCS_ERR_AUTH_UNAUTH;
 509:C:/Users/stapi/OneDrive/Desktop/GD32VW553/V1_MQTT_OK/GD32VW55X_Wifi_BLE_SDK/GD32VW55x_RELEASE_V1.0.2/MSDK/cloud/alicloud/src/protocol/alcs\alcs_api.c ****     }
 510:C:/Users/stapi/OneDrive/Desktop/GD32VW553/V1_MQTT_OK/GD32VW55X_Wifi_BLE_SDK/GD32VW55x_RELEASE_V1.0.2/MSDK/cloud/alicloud/src/protocol/alcs\alcs_api.c **** 
 511:C:/Users/stapi/OneDrive/Desktop/GD32VW553/V1_MQTT_OK/GD32VW55X_Wifi_BLE_SDK/GD32VW55x_RELEASE_V1.0.2/MSDK/cloud/alicloud/src/protocol/alcs\alcs_api.c ****     if (handler) {
 512:C:/Users/stapi/OneDrive/Desktop/GD32VW553/V1_MQTT_OK/GD32VW55X_Wifi_BLE_SDK/GD32VW55x_RELEASE_V1.0.2/MSDK/cloud/alicloud/src/protocol/alcs\alcs_api.c ****         secure_send_item* item = (secure_send_item*)coap_malloc(sizeof(secure_send_item));
 513:C:/Users/stapi/OneDrive/Desktop/GD32VW553/V1_MQTT_OK/GD32VW55X_Wifi_BLE_SDK/GD32VW55x_RELEASE_V1.0.2/MSDK/cloud/alicloud/src/protocol/alcs\alcs_api.c ****         item->orig_user_data = message->user;
 514:C:/Users/stapi/OneDrive/Desktop/GD32VW553/V1_MQTT_OK/GD32VW55X_Wifi_BLE_SDK/GD32VW55x_RELEASE_V1.0.2/MSDK/cloud/alicloud/src/protocol/alcs\alcs_api.c ****         item->orig_handler = handler;
 515:C:/Users/stapi/OneDrive/Desktop/GD32VW553/V1_MQTT_OK/GD32VW55X_Wifi_BLE_SDK/GD32VW55x_RELEASE_V1.0.2/MSDK/cloud/alicloud/src/protocol/alcs\alcs_api.c ****         memcpy (item->pk_dn, session->pk_dn, PK_DN_CHECKSUM_LEN);
 516:C:/Users/stapi/OneDrive/Desktop/GD32VW553/V1_MQTT_OK/GD32VW55X_Wifi_BLE_SDK/GD32VW55x_RELEASE_V1.0.2/MSDK/cloud/alicloud/src/protocol/alcs\alcs_api.c **** 
 517:C:/Users/stapi/OneDrive/Desktop/GD32VW553/V1_MQTT_OK/GD32VW55X_Wifi_BLE_SDK/GD32VW55x_RELEASE_V1.0.2/MSDK/cloud/alicloud/src/protocol/alcs\alcs_api.c ****         message->handler = secure_sendmsg_handler;
 518:C:/Users/stapi/OneDrive/Desktop/GD32VW553/V1_MQTT_OK/GD32VW55X_Wifi_BLE_SDK/GD32VW55x_RELEASE_V1.0.2/MSDK/cloud/alicloud/src/protocol/alcs\alcs_api.c ****         message->user = item;
 519:C:/Users/stapi/OneDrive/Desktop/GD32VW553/V1_MQTT_OK/GD32VW55X_Wifi_BLE_SDK/GD32VW55x_RELEASE_V1.0.2/MSDK/cloud/alicloud/src/protocol/alcs\alcs_api.c ****     }
 520:C:/Users/stapi/OneDrive/Desktop/GD32VW553/V1_MQTT_OK/GD32VW55X_Wifi_BLE_SDK/GD32VW55x_RELEASE_V1.0.2/MSDK/cloud/alicloud/src/protocol/alcs\alcs_api.c **** 
 521:C:/Users/stapi/OneDrive/Desktop/GD32VW553/V1_MQTT_OK/GD32VW55X_Wifi_BLE_SDK/GD32VW55x_RELEASE_V1.0.2/MSDK/cloud/alicloud/src/protocol/alcs\alcs_api.c ****     if (observe < 2)) {
 522:C:/Users/stapi/OneDrive/Desktop/GD32VW553/V1_MQTT_OK/GD32VW55X_Wifi_BLE_SDK/GD32VW55x_RELEASE_V1.0.2/MSDK/cloud/alicloud/src/protocol/alcs\alcs_api.c ****         CoAPUintOption_add (message, COAP_OPTION_OBSERVE, observe);
 523:C:/Users/stapi/OneDrive/Desktop/GD32VW553/V1_MQTT_OK/GD32VW55X_Wifi_BLE_SDK/GD32VW55x_RELEASE_V1.0.2/MSDK/cloud/alicloud/src/protocol/alcs\alcs_api.c ****     }
 524:C:/Users/stapi/OneDrive/Desktop/GD32VW553/V1_MQTT_OK/GD32VW55X_Wifi_BLE_SDK/GD32VW55x_RELEASE_V1.0.2/MSDK/cloud/alicloud/src/protocol/alcs\alcs_api.c **** 
 525:C:/Users/stapi/OneDrive/Desktop/GD32VW553/V1_MQTT_OK/GD32VW55X_Wifi_BLE_SDK/GD32VW55x_RELEASE_V1.0.2/MSDK/cloud/alicloud/src/protocol/alcs\alcs_api.c ****     return internal_secure_send (ctx, session, &devKey->addr, message);
 526:C:/Users/stapi/OneDrive/Desktop/GD32VW553/V1_MQTT_OK/GD32VW55X_Wifi_BLE_SDK/GD32VW55x_RELEASE_V1.0.2/MSDK/cloud/alicloud/src/protocol/alcs\alcs_api.c **** }
 527:C:/Users/stapi/OneDrive/Desktop/GD32VW553/V1_MQTT_OK/GD32VW55X_Wifi_BLE_SDK/GD32VW55x_RELEASE_V1.0.2/MSDK/cloud/alicloud/src/protocol/alcs\alcs_api.c **** 
 528:C:/Users/stapi/OneDrive/Desktop/GD32VW553/V1_MQTT_OK/GD32VW55X_Wifi_BLE_SDK/GD32VW55x_RELEASE_V1.0.2/MSDK/cloud/alicloud/src/protocol/alcs\alcs_api.c **** #endif
 529:C:/Users/stapi/OneDrive/Desktop/GD32VW553/V1_MQTT_OK/GD32VW55X_Wifi_BLE_SDK/GD32VW55x_RELEASE_V1.0.2/MSDK/cloud/alicloud/src/protocol/alcs\alcs_api.c **** 
 530:C:/Users/stapi/OneDrive/Desktop/GD32VW553/V1_MQTT_OK/GD32VW55X_Wifi_BLE_SDK/GD32VW55x_RELEASE_V1.0.2/MSDK/cloud/alicloud/src/protocol/alcs\alcs_api.c **** int alcs_sendrsp_secure(CoAPContext *ctx, AlcsDeviceKey* devKey, CoAPMessage *message, char observe
 531:C:/Users/stapi/OneDrive/Desktop/GD32VW553/V1_MQTT_OK/GD32VW55X_Wifi_BLE_SDK/GD32VW55x_RELEASE_V1.0.2/MSDK/cloud/alicloud/src/protocol/alcs\alcs_api.c **** {
 532:C:/Users/stapi/OneDrive/Desktop/GD32VW553/V1_MQTT_OK/GD32VW55X_Wifi_BLE_SDK/GD32VW55x_RELEASE_V1.0.2/MSDK/cloud/alicloud/src/protocol/alcs\alcs_api.c ****     request_item* req;
 533:C:/Users/stapi/OneDrive/Desktop/GD32VW553/V1_MQTT_OK/GD32VW55X_Wifi_BLE_SDK/GD32VW55x_RELEASE_V1.0.2/MSDK/cloud/alicloud/src/protocol/alcs\alcs_api.c ****     char* encrypt_key;
 534:C:/Users/stapi/OneDrive/Desktop/GD32VW553/V1_MQTT_OK/GD32VW55X_Wifi_BLE_SDK/GD32VW55x_RELEASE_V1.0.2/MSDK/cloud/alicloud/src/protocol/alcs\alcs_api.c ****     
 535:C:/Users/stapi/OneDrive/Desktop/GD32VW553/V1_MQTT_OK/GD32VW55X_Wifi_BLE_SDK/GD32VW55x_RELEASE_V1.0.2/MSDK/cloud/alicloud/src/protocol/alcs\alcs_api.c ****     COAP_DEBUG("alcs_sendrsp_secure");
 536:C:/Users/stapi/OneDrive/Desktop/GD32VW553/V1_MQTT_OK/GD32VW55X_Wifi_BLE_SDK/GD32VW55x_RELEASE_V1.0.2/MSDK/cloud/alicloud/src/protocol/alcs\alcs_api.c ****     if (!ctx || !devKey || !message) {
 537:C:/Users/stapi/OneDrive/Desktop/GD32VW553/V1_MQTT_OK/GD32VW55X_Wifi_BLE_SDK/GD32VW55x_RELEASE_V1.0.2/MSDK/cloud/alicloud/src/protocol/alcs\alcs_api.c ****         return ALCS_ERR_INVALID_PARAM;
 538:C:/Users/stapi/OneDrive/Desktop/GD32VW553/V1_MQTT_OK/GD32VW55X_Wifi_BLE_SDK/GD32VW55x_RELEASE_V1.0.2/MSDK/cloud/alicloud/src/protocol/alcs\alcs_api.c ****     }
 539:C:/Users/stapi/OneDrive/Desktop/GD32VW553/V1_MQTT_OK/GD32VW55X_Wifi_BLE_SDK/GD32VW55x_RELEASE_V1.0.2/MSDK/cloud/alicloud/src/protocol/alcs\alcs_api.c ****     req = find_request_by_req (&devKey->addr, token->data, token->len);
 540:C:/Users/stapi/OneDrive/Desktop/GD32VW553/V1_MQTT_OK/GD32VW55X_Wifi_BLE_SDK/GD32VW55x_RELEASE_V1.0.2/MSDK/cloud/alicloud/src/protocol/alcs\alcs_api.c ****     if (!req) {
 541:C:/Users/stapi/OneDrive/Desktop/GD32VW553/V1_MQTT_OK/GD32VW55X_Wifi_BLE_SDK/GD32VW55x_RELEASE_V1.0.2/MSDK/cloud/alicloud/src/protocol/alcs\alcs_api.c ****         COAP_DEBUG("request is expired");
 542:C:/Users/stapi/OneDrive/Desktop/GD32VW553/V1_MQTT_OK/GD32VW55X_Wifi_BLE_SDK/GD32VW55x_RELEASE_V1.0.2/MSDK/cloud/alicloud/src/protocol/alcs\alcs_api.c ****         return ALCS_ERR_AUTH_UNAUTH;
 543:C:/Users/stapi/OneDrive/Desktop/GD32VW553/V1_MQTT_OK/GD32VW55X_Wifi_BLE_SDK/GD32VW55x_RELEASE_V1.0.2/MSDK/cloud/alicloud/src/protocol/alcs\alcs_api.c ****     }
 544:C:/Users/stapi/OneDrive/Desktop/GD32VW553/V1_MQTT_OK/GD32VW55X_Wifi_BLE_SDK/GD32VW55x_RELEASE_V1.0.2/MSDK/cloud/alicloud/src/protocol/alcs\alcs_api.c ****     
 545:C:/Users/stapi/OneDrive/Desktop/GD32VW553/V1_MQTT_OK/GD32VW55X_Wifi_BLE_SDK/GD32VW55x_RELEASE_V1.0.2/MSDK/cloud/alicloud/src/protocol/alcs\alcs_api.c ****     // message->header.msgid = msgid;
 546:C:/Users/stapi/OneDrive/Desktop/GD32VW553/V1_MQTT_OK/GD32VW55X_Wifi_BLE_SDK/GD32VW55x_RELEASE_V1.0.2/MSDK/cloud/alicloud/src/protocol/alcs\alcs_api.c ****     if (msgid == 0) {
 547:C:/Users/stapi/OneDrive/Desktop/GD32VW553/V1_MQTT_OK/GD32VW55X_Wifi_BLE_SDK/GD32VW55x_RELEASE_V1.0.2/MSDK/cloud/alicloud/src/protocol/alcs\alcs_api.c ****         message->header.msgid = CoAPMessageId_gen(ctx);
 548:C:/Users/stapi/OneDrive/Desktop/GD32VW553/V1_MQTT_OK/GD32VW55X_Wifi_BLE_SDK/GD32VW55x_RELEASE_V1.0.2/MSDK/cloud/alicloud/src/protocol/alcs\alcs_api.c ****     } else {
 549:C:/Users/stapi/OneDrive/Desktop/GD32VW553/V1_MQTT_OK/GD32VW55X_Wifi_BLE_SDK/GD32VW55x_RELEASE_V1.0.2/MSDK/cloud/alicloud/src/protocol/alcs\alcs_api.c ****         message->header.msgid = msgid;
 550:C:/Users/stapi/OneDrive/Desktop/GD32VW553/V1_MQTT_OK/GD32VW55X_Wifi_BLE_SDK/GD32VW55x_RELEASE_V1.0.2/MSDK/cloud/alicloud/src/protocol/alcs\alcs_api.c ****     }
 551:C:/Users/stapi/OneDrive/Desktop/GD32VW553/V1_MQTT_OK/GD32VW55X_Wifi_BLE_SDK/GD32VW55x_RELEASE_V1.0.2/MSDK/cloud/alicloud/src/protocol/alcs\alcs_api.c ****     message->header.tokenlen = token->len;
 552:C:/Users/stapi/OneDrive/Desktop/GD32VW553/V1_MQTT_OK/GD32VW55X_Wifi_BLE_SDK/GD32VW55x_RELEASE_V1.0.2/MSDK/cloud/alicloud/src/protocol/alcs\alcs_api.c ****     memcpy (&message->token, token->data, token->len);
 553:C:/Users/stapi/OneDrive/Desktop/GD32VW553/V1_MQTT_OK/GD32VW55X_Wifi_BLE_SDK/GD32VW55x_RELEASE_V1.0.2/MSDK/cloud/alicloud/src/protocol/alcs\alcs_api.c **** 
 554:C:/Users/stapi/OneDrive/Desktop/GD32VW553/V1_MQTT_OK/GD32VW55X_Wifi_BLE_SDK/GD32VW55x_RELEASE_V1.0.2/MSDK/cloud/alicloud/src/protocol/alcs\alcs_api.c ****     if (req->observe == 0) {
 555:C:/Users/stapi/OneDrive/Desktop/GD32VW553/V1_MQTT_OK/GD32VW55X_Wifi_BLE_SDK/GD32VW55x_RELEASE_V1.0.2/MSDK/cloud/alicloud/src/protocol/alcs\alcs_api.c ****         CoAPUintOption_add (message, COAP_OPTION_OBSERVE, req->observe);
 556:C:/Users/stapi/OneDrive/Desktop/GD32VW553/V1_MQTT_OK/GD32VW55X_Wifi_BLE_SDK/GD32VW55x_RELEASE_V1.0.2/MSDK/cloud/alicloud/src/protocol/alcs\alcs_api.c ****     }
 557:C:/Users/stapi/OneDrive/Desktop/GD32VW553/V1_MQTT_OK/GD32VW55X_Wifi_BLE_SDK/GD32VW55x_RELEASE_V1.0.2/MSDK/cloud/alicloud/src/protocol/alcs\alcs_api.c ****     CoAPUintOption_add (message, COAP_OPTION_CONTENT_FORMAT, COAP_CT_APP_OCTET_STREAM);
 558:C:/Users/stapi/OneDrive/Desktop/GD32VW553/V1_MQTT_OK/GD32VW55X_Wifi_BLE_SDK/GD32VW55x_RELEASE_V1.0.2/MSDK/cloud/alicloud/src/protocol/alcs\alcs_api.c ****     
 559:C:/Users/stapi/OneDrive/Desktop/GD32VW553/V1_MQTT_OK/GD32VW55X_Wifi_BLE_SDK/GD32VW55x_RELEASE_V1.0.2/MSDK/cloud/alicloud/src/protocol/alcs\alcs_api.c ****     if (req->isGroup) {
 560:C:/Users/stapi/OneDrive/Desktop/GD32VW553/V1_MQTT_OK/GD32VW55X_Wifi_BLE_SDK/GD32VW55x_RELEASE_V1.0.2/MSDK/cloud/alicloud/src/protocol/alcs\alcs_api.c ****         COAP_DEBUG("alcs_sendrsp_secure, send group rsp");
 561:C:/Users/stapi/OneDrive/Desktop/GD32VW553/V1_MQTT_OK/GD32VW55X_Wifi_BLE_SDK/GD32VW55x_RELEASE_V1.0.2/MSDK/cloud/alicloud/src/protocol/alcs\alcs_api.c ****         encrypt_key = req->groupKey;
 562:C:/Users/stapi/OneDrive/Desktop/GD32VW553/V1_MQTT_OK/GD32VW55X_Wifi_BLE_SDK/GD32VW55x_RELEASE_V1.0.2/MSDK/cloud/alicloud/src/protocol/alcs\alcs_api.c ****     } else {
 563:C:/Users/stapi/OneDrive/Desktop/GD32VW553/V1_MQTT_OK/GD32VW55X_Wifi_BLE_SDK/GD32VW55x_RELEASE_V1.0.2/MSDK/cloud/alicloud/src/protocol/alcs\alcs_api.c ****         session_item* session = get_session_by_id (req->sessionId);
 564:C:/Users/stapi/OneDrive/Desktop/GD32VW553/V1_MQTT_OK/GD32VW55X_Wifi_BLE_SDK/GD32VW55x_RELEASE_V1.0.2/MSDK/cloud/alicloud/src/protocol/alcs\alcs_api.c ****         if (!session) {
 565:C:/Users/stapi/OneDrive/Desktop/GD32VW553/V1_MQTT_OK/GD32VW55X_Wifi_BLE_SDK/GD32VW55x_RELEASE_V1.0.2/MSDK/cloud/alicloud/src/protocol/alcs\alcs_api.c ****             COAP_DEBUG("alcs_sendrsp_secure, session not found");
 566:C:/Users/stapi/OneDrive/Desktop/GD32VW553/V1_MQTT_OK/GD32VW55X_Wifi_BLE_SDK/GD32VW55x_RELEASE_V1.0.2/MSDK/cloud/alicloud/src/protocol/alcs\alcs_api.c ****             return ALCS_ERR_AUTH_UNAUTH;
 567:C:/Users/stapi/OneDrive/Desktop/GD32VW553/V1_MQTT_OK/GD32VW55X_Wifi_BLE_SDK/GD32VW55x_RELEASE_V1.0.2/MSDK/cloud/alicloud/src/protocol/alcs\alcs_api.c ****         }
 568:C:/Users/stapi/OneDrive/Desktop/GD32VW553/V1_MQTT_OK/GD32VW55X_Wifi_BLE_SDK/GD32VW55x_RELEASE_V1.0.2/MSDK/cloud/alicloud/src/protocol/alcs\alcs_api.c ****         
 569:C:/Users/stapi/OneDrive/Desktop/GD32VW553/V1_MQTT_OK/GD32VW55X_Wifi_BLE_SDK/GD32VW55x_RELEASE_V1.0.2/MSDK/cloud/alicloud/src/protocol/alcs\alcs_api.c ****         CoAPLenString payload = {message->payloadlen, (unsigned char *)message->payload};
 570:C:/Users/stapi/OneDrive/Desktop/GD32VW553/V1_MQTT_OK/GD32VW55X_Wifi_BLE_SDK/GD32VW55x_RELEASE_V1.0.2/MSDK/cloud/alicloud/src/protocol/alcs\alcs_api.c ****         add_message_sessionid (message, session->sessionId, session->opt, &payload);
 571:C:/Users/stapi/OneDrive/Desktop/GD32VW553/V1_MQTT_OK/GD32VW55X_Wifi_BLE_SDK/GD32VW55x_RELEASE_V1.0.2/MSDK/cloud/alicloud/src/protocol/alcs\alcs_api.c ****         COAP_DEBUG("alcs_sendrsp_secure sessionId:%d", session->sessionId);
 572:C:/Users/stapi/OneDrive/Desktop/GD32VW553/V1_MQTT_OK/GD32VW55X_Wifi_BLE_SDK/GD32VW55x_RELEASE_V1.0.2/MSDK/cloud/alicloud/src/protocol/alcs\alcs_api.c ****         encrypt_key = session->sessionKey;
 573:C:/Users/stapi/OneDrive/Desktop/GD32VW553/V1_MQTT_OK/GD32VW55X_Wifi_BLE_SDK/GD32VW55x_RELEASE_V1.0.2/MSDK/cloud/alicloud/src/protocol/alcs\alcs_api.c ****     }
 574:C:/Users/stapi/OneDrive/Desktop/GD32VW553/V1_MQTT_OK/GD32VW55X_Wifi_BLE_SDK/GD32VW55x_RELEASE_V1.0.2/MSDK/cloud/alicloud/src/protocol/alcs\alcs_api.c ****     
 575:C:/Users/stapi/OneDrive/Desktop/GD32VW553/V1_MQTT_OK/GD32VW55X_Wifi_BLE_SDK/GD32VW55x_RELEASE_V1.0.2/MSDK/cloud/alicloud/src/protocol/alcs\alcs_api.c ****     int rt = do_secure_send (ctx, &req->addr, message, encrypt_key);
 576:C:/Users/stapi/OneDrive/Desktop/GD32VW553/V1_MQTT_OK/GD32VW55X_Wifi_BLE_SDK/GD32VW55x_RELEASE_V1.0.2/MSDK/cloud/alicloud/src/protocol/alcs\alcs_api.c ****     remove_request(req);
 577:C:/Users/stapi/OneDrive/Desktop/GD32VW553/V1_MQTT_OK/GD32VW55X_Wifi_BLE_SDK/GD32VW55x_RELEASE_V1.0.2/MSDK/cloud/alicloud/src/protocol/alcs\alcs_api.c ****     return rt;
 578:C:/Users/stapi/OneDrive/Desktop/GD32VW553/V1_MQTT_OK/GD32VW55X_Wifi_BLE_SDK/GD32VW55x_RELEASE_V1.0.2/MSDK/cloud/alicloud/src/protocol/alcs\alcs_api.c **** }
 579:C:/Users/stapi/OneDrive/Desktop/GD32VW553/V1_MQTT_OK/GD32VW55X_Wifi_BLE_SDK/GD32VW55x_RELEASE_V1.0.2/MSDK/cloud/alicloud/src/protocol/alcs\alcs_api.c **** 
 580:C:/Users/stapi/OneDrive/Desktop/GD32VW553/V1_MQTT_OK/GD32VW55X_Wifi_BLE_SDK/GD32VW55x_RELEASE_V1.0.2/MSDK/cloud/alicloud/src/protocol/alcs\alcs_api.c **** bool req_payload_parser (const char* payload, int len, char** seq, int* seqlen, char** data, int* d
 581:C:/Users/stapi/OneDrive/Desktop/GD32VW553/V1_MQTT_OK/GD32VW55X_Wifi_BLE_SDK/GD32VW55x_RELEASE_V1.0.2/MSDK/cloud/alicloud/src/protocol/alcs\alcs_api.c **** {
 1829              		.loc 1 581 1 is_stmt 1
 1830              		.cfi_startproc
 1831              	.LVL198:
 582:C:/Users/stapi/OneDrive/Desktop/GD32VW553/V1_MQTT_OK/GD32VW55X_Wifi_BLE_SDK/GD32VW55x_RELEASE_V1.0.2/MSDK/cloud/alicloud/src/protocol/alcs\alcs_api.c ****     if (!payload || !len || !seq || !seqlen || !datalen || !data) {
 1832              		.loc 1 582 5
 1833              		.loc 1 582 8 is_stmt 0
 1834 0000 39CD     		beq	a0,zero,.L136
 581:C:/Users/stapi/OneDrive/Desktop/GD32VW553/V1_MQTT_OK/GD32VW55X_Wifi_BLE_SDK/GD32VW55x_RELEASE_V1.0.2/MSDK/cloud/alicloud/src/protocol/alcs\alcs_api.c ****     if (!payload || !len || !seq || !seqlen || !datalen || !data) {
 1835              		.loc 1 581 1 discriminator 1
 1836 0002 17030000 		call	t0,__riscv_save_5
 1836      E7020300 
 1837              		.cfi_offset 20, -24
 1838              		.cfi_offset 19, -20
 1839              		.cfi_offset 18, -16
 1840              		.cfi_offset 9, -12
 1841              		.cfi_offset 8, -8
 1842              		.cfi_offset 1, -4
 1843              		.cfi_def_cfa_offset 32
 1844 000a 2E89     		mv	s2,a1
 583:C:/Users/stapi/OneDrive/Desktop/GD32VW553/V1_MQTT_OK/GD32VW55X_Wifi_BLE_SDK/GD32VW55x_RELEASE_V1.0.2/MSDK/cloud/alicloud/src/protocol/alcs\alcs_api.c ****         return 0;
 1845              		.loc 1 583 16 discriminator 1
 1846 000c 0148     		li	a6,0
 582:C:/Users/stapi/OneDrive/Desktop/GD32VW553/V1_MQTT_OK/GD32VW55X_Wifi_BLE_SDK/GD32VW55x_RELEASE_V1.0.2/MSDK/cloud/alicloud/src/protocol/alcs\alcs_api.c ****     if (!payload || !len || !seq || !seqlen || !datalen || !data) {
 1847              		.loc 1 582 18 discriminator 1
 1848 000e B9C1     		beq	a1,zero,.L135
 1849 0010 328A     		mv	s4,a2
 582:C:/Users/stapi/OneDrive/Desktop/GD32VW553/V1_MQTT_OK/GD32VW55X_Wifi_BLE_SDK/GD32VW55x_RELEASE_V1.0.2/MSDK/cloud/alicloud/src/protocol/alcs\alcs_api.c ****     if (!payload || !len || !seq || !seqlen || !datalen || !data) {
 1850              		.loc 1 582 26 discriminator 2
 1851 0012 29C2     		beq	a2,zero,.L135
 582:C:/Users/stapi/OneDrive/Desktop/GD32VW553/V1_MQTT_OK/GD32VW55X_Wifi_BLE_SDK/GD32VW55x_RELEASE_V1.0.2/MSDK/cloud/alicloud/src/protocol/alcs\alcs_api.c ****     if (!payload || !len || !seq || !seqlen || !datalen || !data) {
 1852              		.loc 1 582 34 discriminator 3
 1853 0014 A1C2     		beq	a3,zero,.L135
 1854 0016 BE89     		mv	s3,a5
 582:C:/Users/stapi/OneDrive/Desktop/GD32VW553/V1_MQTT_OK/GD32VW55X_Wifi_BLE_SDK/GD32VW55x_RELEASE_V1.0.2/MSDK/cloud/alicloud/src/protocol/alcs\alcs_api.c ****     if (!payload || !len || !seq || !seqlen || !datalen || !data) {
 1855              		.loc 1 582 45 discriminator 4
 1856 0018 95CF     		beq	a5,zero,.L135
 1857 001a 3A84     		mv	s0,a4
 582:C:/Users/stapi/OneDrive/Desktop/GD32VW553/V1_MQTT_OK/GD32VW55X_Wifi_BLE_SDK/GD32VW55x_RELEASE_V1.0.2/MSDK/cloud/alicloud/src/protocol/alcs\alcs_api.c ****     if (!payload || !len || !seq || !seqlen || !datalen || !data) {
 1858              		.loc 1 582 57 discriminator 5
 1859 001c 05CF     		beq	a4,zero,.L135
 584:C:/Users/stapi/OneDrive/Desktop/GD32VW553/V1_MQTT_OK/GD32VW55X_Wifi_BLE_SDK/GD32VW55x_RELEASE_V1.0.2/MSDK/cloud/alicloud/src/protocol/alcs\alcs_api.c ****     }
 585:C:/Users/stapi/OneDrive/Desktop/GD32VW553/V1_MQTT_OK/GD32VW55X_Wifi_BLE_SDK/GD32VW55x_RELEASE_V1.0.2/MSDK/cloud/alicloud/src/protocol/alcs\alcs_api.c **** 
 586:C:/Users/stapi/OneDrive/Desktop/GD32VW553/V1_MQTT_OK/GD32VW55X_Wifi_BLE_SDK/GD32VW55x_RELEASE_V1.0.2/MSDK/cloud/alicloud/src/protocol/alcs\alcs_api.c ****     *seq = json_get_value_by_name((char*)payload, len, "id", seqlen, NULL);
 1860              		.loc 1 586 12
 1861 001e 37060000 		lui	a2,%hi(.LC18)
 1862              	.LVL199:
 1863 0022 0147     		li	a4,0
 1864              	.LVL200:
 1865 0024 13060600 		addi	a2,a2,%lo(.LC18)
 1866 0028 AA84     		mv	s1,a0
 1867              		.loc 1 586 5 is_stmt 1
 1868              		.loc 1 586 12 is_stmt 0
 1869 002a 97000000 		call	json_get_value_by_name
 1869      E7800000 
 1870              	.LVL201:
 587:C:/Users/stapi/OneDrive/Desktop/GD32VW553/V1_MQTT_OK/GD32VW55X_Wifi_BLE_SDK/GD32VW55x_RELEASE_V1.0.2/MSDK/cloud/alicloud/src/protocol/alcs\alcs_api.c **** 
 588:C:/Users/stapi/OneDrive/Desktop/GD32VW553/V1_MQTT_OK/GD32VW55X_Wifi_BLE_SDK/GD32VW55x_RELEASE_V1.0.2/MSDK/cloud/alicloud/src/protocol/alcs\alcs_api.c ****     *data = json_get_value_by_name((char*)payload, len, "params", datalen, NULL);
 1871              		.loc 1 588 13
 1872 0032 37060000 		lui	a2,%hi(.LC19)
 586:C:/Users/stapi/OneDrive/Desktop/GD32VW553/V1_MQTT_OK/GD32VW55X_Wifi_BLE_SDK/GD32VW55x_RELEASE_V1.0.2/MSDK/cloud/alicloud/src/protocol/alcs\alcs_api.c **** 
 1873              		.loc 1 586 10
 1874 0036 2320AA00 		sw	a0,0(s4)
 1875              		.loc 1 588 5 is_stmt 1
 1876              		.loc 1 588 13 is_stmt 0
 1877 003a 0147     		li	a4,0
 1878 003c CE86     		mv	a3,s3
 1879 003e 13060600 		addi	a2,a2,%lo(.LC19)
 1880 0042 CA85     		mv	a1,s2
 1881 0044 2685     		mv	a0,s1
 1882 0046 97000000 		call	json_get_value_by_name
 1882      E7800000 
 1883              	.LVL202:
 1884              		.loc 1 588 11
 1885 004e 08C0     		sw	a0,0(s0)
 589:C:/Users/stapi/OneDrive/Desktop/GD32VW553/V1_MQTT_OK/GD32VW55X_Wifi_BLE_SDK/GD32VW55x_RELEASE_V1.0.2/MSDK/cloud/alicloud/src/protocol/alcs\alcs_api.c ****     return *data && datalen;
 1886              		.loc 1 589 5 is_stmt 1
 1887              		.loc 1 589 18 is_stmt 0
 1888 0050 3338A000 		snez	a6,a0
 1889              	.LVL203:
 1890              	.L135:
 590:C:/Users/stapi/OneDrive/Desktop/GD32VW553/V1_MQTT_OK/GD32VW55X_Wifi_BLE_SDK/GD32VW55x_RELEASE_V1.0.2/MSDK/cloud/alicloud/src/protocol/alcs\alcs_api.c **** }
 1891              		.loc 1 590 1
 1892 0054 4285     		mv	a0,a6
 1893 0056 17030000 		tail	__riscv_restore_5
 1893      67000300 
 1894              		.cfi_restore 20
 1895              		.cfi_restore 19
 1896              		.cfi_restore 18
 1897              		.cfi_restore 9
 1898              		.cfi_restore 8
 1899              		.cfi_restore 1
 1900              		.cfi_def_cfa_offset 0
 1901              	.LVL204:
 1902              	.L136:
 583:C:/Users/stapi/OneDrive/Desktop/GD32VW553/V1_MQTT_OK/GD32VW55X_Wifi_BLE_SDK/GD32VW55x_RELEASE_V1.0.2/MSDK/cloud/alicloud/src/protocol/alcs\alcs_api.c ****     }
 1903              		.loc 1 583 16
 1904 005e 0148     		li	a6,0
 1905              		.loc 1 590 1
 1906 0060 4285     		mv	a0,a6
 1907              	.LVL205:
 1908 0062 8280     		ret
 1909              		.cfi_endproc
 1910              	.LFE42:
 1912              		.section	.text.on_auth_timer,"ax",@progbits
 1913              		.align	1
 1914              		.globl	on_auth_timer
 1916              	on_auth_timer:
 1917              	.LFB43:
 591:C:/Users/stapi/OneDrive/Desktop/GD32VW553/V1_MQTT_OK/GD32VW55X_Wifi_BLE_SDK/GD32VW55x_RELEASE_V1.0.2/MSDK/cloud/alicloud/src/protocol/alcs\alcs_api.c **** 
 592:C:/Users/stapi/OneDrive/Desktop/GD32VW553/V1_MQTT_OK/GD32VW55X_Wifi_BLE_SDK/GD32VW55x_RELEASE_V1.0.2/MSDK/cloud/alicloud/src/protocol/alcs\alcs_api.c **** void on_auth_timer(void* param)
 593:C:/Users/stapi/OneDrive/Desktop/GD32VW553/V1_MQTT_OK/GD32VW55X_Wifi_BLE_SDK/GD32VW55x_RELEASE_V1.0.2/MSDK/cloud/alicloud/src/protocol/alcs\alcs_api.c **** {
 1918              		.loc 1 593 1 is_stmt 1
 1919              		.cfi_startproc
 1920              	.LVL206:
 594:C:/Users/stapi/OneDrive/Desktop/GD32VW553/V1_MQTT_OK/GD32VW55X_Wifi_BLE_SDK/GD32VW55x_RELEASE_V1.0.2/MSDK/cloud/alicloud/src/protocol/alcs\alcs_api.c ****     if (!is_inited) {
 1921              		.loc 1 594 5
 1922              		.loc 1 594 8 is_stmt 0
 1923 0000 B7070000 		lui	a5,%hi(.LANCHOR1)
 1924 0004 83870700 		lb	a5,%lo(.LANCHOR1)(a5)
 1925 0008 89C7     		beq	a5,zero,.L152
 595:C:/Users/stapi/OneDrive/Desktop/GD32VW553/V1_MQTT_OK/GD32VW55X_Wifi_BLE_SDK/GD32VW55x_RELEASE_V1.0.2/MSDK/cloud/alicloud/src/protocol/alcs\alcs_api.c ****         return;
 596:C:/Users/stapi/OneDrive/Desktop/GD32VW553/V1_MQTT_OK/GD32VW55X_Wifi_BLE_SDK/GD32VW55x_RELEASE_V1.0.2/MSDK/cloud/alicloud/src/protocol/alcs\alcs_api.c ****     }
 597:C:/Users/stapi/OneDrive/Desktop/GD32VW553/V1_MQTT_OK/GD32VW55X_Wifi_BLE_SDK/GD32VW55x_RELEASE_V1.0.2/MSDK/cloud/alicloud/src/protocol/alcs\alcs_api.c **** 
 598:C:/Users/stapi/OneDrive/Desktop/GD32VW553/V1_MQTT_OK/GD32VW55X_Wifi_BLE_SDK/GD32VW55x_RELEASE_V1.0.2/MSDK/cloud/alicloud/src/protocol/alcs\alcs_api.c ****     CoAPContext *ctx = (CoAPContext *) param;
 1926              		.loc 1 598 5 is_stmt 1
 599:C:/Users/stapi/OneDrive/Desktop/GD32VW553/V1_MQTT_OK/GD32VW55X_Wifi_BLE_SDK/GD32VW55x_RELEASE_V1.0.2/MSDK/cloud/alicloud/src/protocol/alcs\alcs_api.c **** #ifdef ALCS_CLIENT_ENABLED
 600:C:/Users/stapi/OneDrive/Desktop/GD32VW553/V1_MQTT_OK/GD32VW55X_Wifi_BLE_SDK/GD32VW55x_RELEASE_V1.0.2/MSDK/cloud/alicloud/src/protocol/alcs\alcs_api.c ****     extern void on_client_auth_timer (CoAPContext *);
 601:C:/Users/stapi/OneDrive/Desktop/GD32VW553/V1_MQTT_OK/GD32VW55X_Wifi_BLE_SDK/GD32VW55x_RELEASE_V1.0.2/MSDK/cloud/alicloud/src/protocol/alcs\alcs_api.c ****     on_client_auth_timer (ctx);
 602:C:/Users/stapi/OneDrive/Desktop/GD32VW553/V1_MQTT_OK/GD32VW55X_Wifi_BLE_SDK/GD32VW55x_RELEASE_V1.0.2/MSDK/cloud/alicloud/src/protocol/alcs\alcs_api.c **** #endif
 603:C:/Users/stapi/OneDrive/Desktop/GD32VW553/V1_MQTT_OK/GD32VW55X_Wifi_BLE_SDK/GD32VW55x_RELEASE_V1.0.2/MSDK/cloud/alicloud/src/protocol/alcs\alcs_api.c **** #ifdef ALCS_SERVER_ENABLED
 604:C:/Users/stapi/OneDrive/Desktop/GD32VW553/V1_MQTT_OK/GD32VW55X_Wifi_BLE_SDK/GD32VW55x_RELEASE_V1.0.2/MSDK/cloud/alicloud/src/protocol/alcs\alcs_api.c ****     extern void on_svr_auth_timer (CoAPContext *);
 1927              		.loc 1 604 5
 605:C:/Users/stapi/OneDrive/Desktop/GD32VW553/V1_MQTT_OK/GD32VW55X_Wifi_BLE_SDK/GD32VW55x_RELEASE_V1.0.2/MSDK/cloud/alicloud/src/protocol/alcs\alcs_api.c ****     on_svr_auth_timer (ctx);
 1928              		.loc 1 605 5
 1929 000a 17030000 		tail	on_svr_auth_timer
 1929      67000300 
 1930              	.LVL207:
 1931              	.L152:
 1932 0012 8280     		ret
 1933              		.cfi_endproc
 1934              	.LFE43:
 1936              		.section	.rodata.seqwindow_accept.str1.4,"aMS",@progbits,1
 1937              		.align	2
 1938              	.LC20:
 1939 0000 63616E27 		.string	"can't find seqid"
 1939      74206669 
 1939      6E642073 
 1939      65716964 
 1939      00
 1940 0011 000000   		.align	2
 1941              	.LC21:
 1942 0014 73657177 		.string	"seqwindow_accept, id=%u"
 1942      696E646F 
 1942      775F6163 
 1942      63657074 
 1942      2C206964 
 1943              		.align	2
 1944              	.LC22:
 1945 002c 73657120 		.string	"seq sign is illegal!"
 1945      7369676E 
 1945      20697320 
 1945      696C6C65 
 1945      67616C21 
 1946 0041 000000   		.align	2
 1947              	.LC23:
 1948 0044 72656365 		.string	"receive expire seqid!"
 1948      69766520 
 1948      65787069 
 1948      72652073 
 1948      65716964 
 1949 005a 0000     		.align	2
 1950              	.LC24:
 1951 005c 77696E64 		.string	"window pos:%d, offset:%d"
 1951      6F772070 
 1951      6F733A25 
 1951      642C206F 
 1951      66667365 
 1952 0075 000000   		.align	2
 1953              	.LC25:
 1954 0078 77696E64 		.string	"window offset:%d, startpos:%d, receivepos:%d, index:%d, startseq:%d"
 1954      6F77206F 
 1954      66667365 
 1954      743A2564 
 1954      2C207374 
 1955              		.section	.text.seqwindow_accept,"ax",@progbits
 1956              		.align	1
 1957              		.globl	seqwindow_accept
 1959              	seqwindow_accept:
 1960              	.LFB44:
 606:C:/Users/stapi/OneDrive/Desktop/GD32VW553/V1_MQTT_OK/GD32VW55X_Wifi_BLE_SDK/GD32VW55x_RELEASE_V1.0.2/MSDK/cloud/alicloud/src/protocol/alcs\alcs_api.c **** #endif
 607:C:/Users/stapi/OneDrive/Desktop/GD32VW553/V1_MQTT_OK/GD32VW55X_Wifi_BLE_SDK/GD32VW55x_RELEASE_V1.0.2/MSDK/cloud/alicloud/src/protocol/alcs\alcs_api.c **** }
 608:C:/Users/stapi/OneDrive/Desktop/GD32VW553/V1_MQTT_OK/GD32VW55X_Wifi_BLE_SDK/GD32VW55x_RELEASE_V1.0.2/MSDK/cloud/alicloud/src/protocol/alcs\alcs_api.c ****  
 609:C:/Users/stapi/OneDrive/Desktop/GD32VW553/V1_MQTT_OK/GD32VW55X_Wifi_BLE_SDK/GD32VW55x_RELEASE_V1.0.2/MSDK/cloud/alicloud/src/protocol/alcs\alcs_api.c **** #ifdef ALCS_GROUP_COMM_ENABLE
 610:C:/Users/stapi/OneDrive/Desktop/GD32VW553/V1_MQTT_OK/GD32VW55X_Wifi_BLE_SDK/GD32VW55x_RELEASE_V1.0.2/MSDK/cloud/alicloud/src/protocol/alcs\alcs_api.c **** const int Group_buf_len = Group_Sign_len + Group_Seq_len + Group_AK_LEN + Group_MAX_ID_len;
 611:C:/Users/stapi/OneDrive/Desktop/GD32VW553/V1_MQTT_OK/GD32VW55X_Wifi_BLE_SDK/GD32VW55x_RELEASE_V1.0.2/MSDK/cloud/alicloud/src/protocol/alcs\alcs_api.c **** unsigned int get_message_group_info (CoAPMessage *message, int* seq, char ak[], char group_id[])
 612:C:/Users/stapi/OneDrive/Desktop/GD32VW553/V1_MQTT_OK/GD32VW55X_Wifi_BLE_SDK/GD32VW55x_RELEASE_V1.0.2/MSDK/cloud/alicloud/src/protocol/alcs\alcs_api.c **** {
 613:C:/Users/stapi/OneDrive/Desktop/GD32VW553/V1_MQTT_OK/GD32VW55X_Wifi_BLE_SDK/GD32VW55x_RELEASE_V1.0.2/MSDK/cloud/alicloud/src/protocol/alcs\alcs_api.c ****     unsigned char buf[Group_buf_len];
 614:C:/Users/stapi/OneDrive/Desktop/GD32VW553/V1_MQTT_OK/GD32VW55X_Wifi_BLE_SDK/GD32VW55x_RELEASE_V1.0.2/MSDK/cloud/alicloud/src/protocol/alcs\alcs_api.c ****     unsigned short datalen = sizeof(buf);
 615:C:/Users/stapi/OneDrive/Desktop/GD32VW553/V1_MQTT_OK/GD32VW55X_Wifi_BLE_SDK/GD32VW55x_RELEASE_V1.0.2/MSDK/cloud/alicloud/src/protocol/alcs\alcs_api.c ****     unsigned short group_id_len;
 616:C:/Users/stapi/OneDrive/Desktop/GD32VW553/V1_MQTT_OK/GD32VW55X_Wifi_BLE_SDK/GD32VW55x_RELEASE_V1.0.2/MSDK/cloud/alicloud/src/protocol/alcs\alcs_api.c **** 
 617:C:/Users/stapi/OneDrive/Desktop/GD32VW553/V1_MQTT_OK/GD32VW55X_Wifi_BLE_SDK/GD32VW55x_RELEASE_V1.0.2/MSDK/cloud/alicloud/src/protocol/alcs\alcs_api.c ****     if (ALCS_SUCCESS != CoAPStrOption_get (message, COAP_OPTION_GROUPID, buf, &datalen)) {
 618:C:/Users/stapi/OneDrive/Desktop/GD32VW553/V1_MQTT_OK/GD32VW55X_Wifi_BLE_SDK/GD32VW55x_RELEASE_V1.0.2/MSDK/cloud/alicloud/src/protocol/alcs\alcs_api.c ****         COAP_DEBUG ("get_message_group_info, no options");
 619:C:/Users/stapi/OneDrive/Desktop/GD32VW553/V1_MQTT_OK/GD32VW55X_Wifi_BLE_SDK/GD32VW55x_RELEASE_V1.0.2/MSDK/cloud/alicloud/src/protocol/alcs\alcs_api.c ****         return ALCS_ERR_NULL;
 620:C:/Users/stapi/OneDrive/Desktop/GD32VW553/V1_MQTT_OK/GD32VW55X_Wifi_BLE_SDK/GD32VW55x_RELEASE_V1.0.2/MSDK/cloud/alicloud/src/protocol/alcs\alcs_api.c ****     }
 621:C:/Users/stapi/OneDrive/Desktop/GD32VW553/V1_MQTT_OK/GD32VW55X_Wifi_BLE_SDK/GD32VW55x_RELEASE_V1.0.2/MSDK/cloud/alicloud/src/protocol/alcs\alcs_api.c ****     
 622:C:/Users/stapi/OneDrive/Desktop/GD32VW553/V1_MQTT_OK/GD32VW55X_Wifi_BLE_SDK/GD32VW55x_RELEASE_V1.0.2/MSDK/cloud/alicloud/src/protocol/alcs\alcs_api.c ****     if (datalen < Group_Sign_len + Group_Seq_len + Group_AK_LEN + Group_MIN_ID_len || datalen > Gro
 623:C:/Users/stapi/OneDrive/Desktop/GD32VW553/V1_MQTT_OK/GD32VW55X_Wifi_BLE_SDK/GD32VW55x_RELEASE_V1.0.2/MSDK/cloud/alicloud/src/protocol/alcs\alcs_api.c ****     {
 624:C:/Users/stapi/OneDrive/Desktop/GD32VW553/V1_MQTT_OK/GD32VW55X_Wifi_BLE_SDK/GD32VW55x_RELEASE_V1.0.2/MSDK/cloud/alicloud/src/protocol/alcs\alcs_api.c ****         COAP_DEBUG ("get_message_group_info, invalid length");
 625:C:/Users/stapi/OneDrive/Desktop/GD32VW553/V1_MQTT_OK/GD32VW55X_Wifi_BLE_SDK/GD32VW55x_RELEASE_V1.0.2/MSDK/cloud/alicloud/src/protocol/alcs\alcs_api.c ****         return ALCS_ERR_INVALID_LENGTH;
 626:C:/Users/stapi/OneDrive/Desktop/GD32VW553/V1_MQTT_OK/GD32VW55X_Wifi_BLE_SDK/GD32VW55x_RELEASE_V1.0.2/MSDK/cloud/alicloud/src/protocol/alcs\alcs_api.c ****     }
 627:C:/Users/stapi/OneDrive/Desktop/GD32VW553/V1_MQTT_OK/GD32VW55X_Wifi_BLE_SDK/GD32VW55x_RELEASE_V1.0.2/MSDK/cloud/alicloud/src/protocol/alcs\alcs_api.c ****     
 628:C:/Users/stapi/OneDrive/Desktop/GD32VW553/V1_MQTT_OK/GD32VW55X_Wifi_BLE_SDK/GD32VW55x_RELEASE_V1.0.2/MSDK/cloud/alicloud/src/protocol/alcs\alcs_api.c ****     memcpy (ak, buf + Group_Sign_len + Group_Seq_len, Group_AK_LEN);
 629:C:/Users/stapi/OneDrive/Desktop/GD32VW553/V1_MQTT_OK/GD32VW55X_Wifi_BLE_SDK/GD32VW55x_RELEASE_V1.0.2/MSDK/cloud/alicloud/src/protocol/alcs\alcs_api.c ****     group_id_len = datalen - Group_Sign_len - Group_Seq_len - Group_AK_LEN;
 630:C:/Users/stapi/OneDrive/Desktop/GD32VW553/V1_MQTT_OK/GD32VW55X_Wifi_BLE_SDK/GD32VW55x_RELEASE_V1.0.2/MSDK/cloud/alicloud/src/protocol/alcs\alcs_api.c ****     memcpy (group_id, buf + datalen - group_id_len, group_id_len);
 631:C:/Users/stapi/OneDrive/Desktop/GD32VW553/V1_MQTT_OK/GD32VW55X_Wifi_BLE_SDK/GD32VW55x_RELEASE_V1.0.2/MSDK/cloud/alicloud/src/protocol/alcs\alcs_api.c ****     
 632:C:/Users/stapi/OneDrive/Desktop/GD32VW553/V1_MQTT_OK/GD32VW55X_Wifi_BLE_SDK/GD32VW55x_RELEASE_V1.0.2/MSDK/cloud/alicloud/src/protocol/alcs\alcs_api.c ****     COAP_DEBUG ("get_message_group_info, groupId:%s", group_id);
 633:C:/Users/stapi/OneDrive/Desktop/GD32VW553/V1_MQTT_OK/GD32VW55X_Wifi_BLE_SDK/GD32VW55x_RELEASE_V1.0.2/MSDK/cloud/alicloud/src/protocol/alcs\alcs_api.c ****     return ALCS_SUCCESS;
 634:C:/Users/stapi/OneDrive/Desktop/GD32VW553/V1_MQTT_OK/GD32VW55X_Wifi_BLE_SDK/GD32VW55x_RELEASE_V1.0.2/MSDK/cloud/alicloud/src/protocol/alcs\alcs_api.c **** }
 635:C:/Users/stapi/OneDrive/Desktop/GD32VW553/V1_MQTT_OK/GD32VW55X_Wifi_BLE_SDK/GD32VW55x_RELEASE_V1.0.2/MSDK/cloud/alicloud/src/protocol/alcs\alcs_api.c **** #endif
