   1              		.file	"alcs_mqtt.c"
   2              		.option nopic
   3              		.attribute arch, "rv32i2p0_m2p0_a2p0_f2p0_c2p0_b_p0p94"
   4              		.attribute unaligned_access, 0
   5              		.attribute stack_align, 16
   6              		.text
   7              	.Ltext0:
   8              		.cfi_sections	.debug_frame
   9              		.section	.rodata.__alcs_mqtt_kv_del.str1.4,"aMS",@progbits,1
  10              		.align	2
  11              	.LC0:
  12 0000 5B696E66 		.string	"[inf] "
  12      5D2000
  13 0007 00       		.align	2
  14              	.LC1:
  15 0008 414C4353 		.string	"ALCS KV Del, Key: %s"
  15      204B5620 
  15      44656C2C 
  15      204B6579 
  15      3A202573 
  16 001d 000000   		.align	2
  17              	.LC2:
  18 0020 0D0A00   		.string	"\r\n"
  19              		.section	.text.__alcs_mqtt_kv_del,"ax",@progbits
  20              		.align	1
  22              	__alcs_mqtt_kv_del:
  23              	.LFB25:
  24              		.file 1 "C:/Users/stapi/OneDrive/Desktop/GD32VW553/V1_MQTT_OK/GD32VW55X_Wifi_BLE_SDK/GD32VW55x_REL
   1:C:/Users/stapi/OneDrive/Desktop/GD32VW553/V1_MQTT_OK/GD32VW55X_Wifi_BLE_SDK/GD32VW55x_RELEASE_V1.0.2/MSDK/cloud/alicloud/src/protocol/alcs\alcs_mqtt.c **** /*
   2:C:/Users/stapi/OneDrive/Desktop/GD32VW553/V1_MQTT_OK/GD32VW55X_Wifi_BLE_SDK/GD32VW55x_RELEASE_V1.0.2/MSDK/cloud/alicloud/src/protocol/alcs\alcs_mqtt.c ****  * Copyright (C) 2015-2018 Alibaba Group Holding Limited
   3:C:/Users/stapi/OneDrive/Desktop/GD32VW553/V1_MQTT_OK/GD32VW55X_Wifi_BLE_SDK/GD32VW55x_RELEASE_V1.0.2/MSDK/cloud/alicloud/src/protocol/alcs\alcs_mqtt.c ****  */
   4:C:/Users/stapi/OneDrive/Desktop/GD32VW553/V1_MQTT_OK/GD32VW55X_Wifi_BLE_SDK/GD32VW55x_RELEASE_V1.0.2/MSDK/cloud/alicloud/src/protocol/alcs\alcs_mqtt.c **** 
   5:C:/Users/stapi/OneDrive/Desktop/GD32VW553/V1_MQTT_OK/GD32VW55X_Wifi_BLE_SDK/GD32VW55x_RELEASE_V1.0.2/MSDK/cloud/alicloud/src/protocol/alcs\alcs_mqtt.c **** 
   6:C:/Users/stapi/OneDrive/Desktop/GD32VW553/V1_MQTT_OK/GD32VW55X_Wifi_BLE_SDK/GD32VW55x_RELEASE_V1.0.2/MSDK/cloud/alicloud/src/protocol/alcs\alcs_mqtt.c **** 
   7:C:/Users/stapi/OneDrive/Desktop/GD32VW553/V1_MQTT_OK/GD32VW55X_Wifi_BLE_SDK/GD32VW55x_RELEASE_V1.0.2/MSDK/cloud/alicloud/src/protocol/alcs\alcs_mqtt.c **** #include <stdio.h>
   8:C:/Users/stapi/OneDrive/Desktop/GD32VW553/V1_MQTT_OK/GD32VW55X_Wifi_BLE_SDK/GD32VW55x_RELEASE_V1.0.2/MSDK/cloud/alicloud/src/protocol/alcs\alcs_mqtt.c **** #include "iot_import.h"
   9:C:/Users/stapi/OneDrive/Desktop/GD32VW553/V1_MQTT_OK/GD32VW55X_Wifi_BLE_SDK/GD32VW55x_RELEASE_V1.0.2/MSDK/cloud/alicloud/src/protocol/alcs\alcs_mqtt.c **** #include "iot_export.h"
  10:C:/Users/stapi/OneDrive/Desktop/GD32VW553/V1_MQTT_OK/GD32VW55X_Wifi_BLE_SDK/GD32VW55x_RELEASE_V1.0.2/MSDK/cloud/alicloud/src/protocol/alcs\alcs_mqtt.c **** 
  11:C:/Users/stapi/OneDrive/Desktop/GD32VW553/V1_MQTT_OK/GD32VW55X_Wifi_BLE_SDK/GD32VW55x_RELEASE_V1.0.2/MSDK/cloud/alicloud/src/protocol/alcs\alcs_mqtt.c **** #include "json_parser.h"
  12:C:/Users/stapi/OneDrive/Desktop/GD32VW553/V1_MQTT_OK/GD32VW55X_Wifi_BLE_SDK/GD32VW55x_RELEASE_V1.0.2/MSDK/cloud/alicloud/src/protocol/alcs\alcs_mqtt.c **** #include "iotx_utils.h"
  13:C:/Users/stapi/OneDrive/Desktop/GD32VW553/V1_MQTT_OK/GD32VW55X_Wifi_BLE_SDK/GD32VW55x_RELEASE_V1.0.2/MSDK/cloud/alicloud/src/protocol/alcs\alcs_mqtt.c **** #include "CoAPExport.h"
  14:C:/Users/stapi/OneDrive/Desktop/GD32VW553/V1_MQTT_OK/GD32VW55X_Wifi_BLE_SDK/GD32VW55x_RELEASE_V1.0.2/MSDK/cloud/alicloud/src/protocol/alcs\alcs_mqtt.c **** #include "alcs_api.h"
  15:C:/Users/stapi/OneDrive/Desktop/GD32VW553/V1_MQTT_OK/GD32VW55X_Wifi_BLE_SDK/GD32VW55x_RELEASE_V1.0.2/MSDK/cloud/alicloud/src/protocol/alcs\alcs_mqtt.c **** #include "alcs_adapter.h"
  16:C:/Users/stapi/OneDrive/Desktop/GD32VW553/V1_MQTT_OK/GD32VW55X_Wifi_BLE_SDK/GD32VW55x_RELEASE_V1.0.2/MSDK/cloud/alicloud/src/protocol/alcs\alcs_mqtt.c **** #include "alcs_mqtt.h"
  17:C:/Users/stapi/OneDrive/Desktop/GD32VW553/V1_MQTT_OK/GD32VW55X_Wifi_BLE_SDK/GD32VW55x_RELEASE_V1.0.2/MSDK/cloud/alicloud/src/protocol/alcs\alcs_mqtt.c **** #include "utils_md5.h"
  18:C:/Users/stapi/OneDrive/Desktop/GD32VW553/V1_MQTT_OK/GD32VW55X_Wifi_BLE_SDK/GD32VW55x_RELEASE_V1.0.2/MSDK/cloud/alicloud/src/protocol/alcs\alcs_mqtt.c **** #include "alcs_adapter.h"
  19:C:/Users/stapi/OneDrive/Desktop/GD32VW553/V1_MQTT_OK/GD32VW55X_Wifi_BLE_SDK/GD32VW55x_RELEASE_V1.0.2/MSDK/cloud/alicloud/src/protocol/alcs\alcs_mqtt.c **** #include "CoAPPlatform.h"
  20:C:/Users/stapi/OneDrive/Desktop/GD32VW553/V1_MQTT_OK/GD32VW55X_Wifi_BLE_SDK/GD32VW55x_RELEASE_V1.0.2/MSDK/cloud/alicloud/src/protocol/alcs\alcs_mqtt.c **** 
  21:C:/Users/stapi/OneDrive/Desktop/GD32VW553/V1_MQTT_OK/GD32VW55X_Wifi_BLE_SDK/GD32VW55x_RELEASE_V1.0.2/MSDK/cloud/alicloud/src/protocol/alcs\alcs_mqtt.c **** static alcs_mqtt_ctx_t g_alcs_mqtt_ctx;
  22:C:/Users/stapi/OneDrive/Desktop/GD32VW553/V1_MQTT_OK/GD32VW55X_Wifi_BLE_SDK/GD32VW55x_RELEASE_V1.0.2/MSDK/cloud/alicloud/src/protocol/alcs\alcs_mqtt.c **** static int b_prefixkey = 0;
  23:C:/Users/stapi/OneDrive/Desktop/GD32VW553/V1_MQTT_OK/GD32VW55X_Wifi_BLE_SDK/GD32VW55x_RELEASE_V1.0.2/MSDK/cloud/alicloud/src/protocol/alcs\alcs_mqtt.c **** 
  24:C:/Users/stapi/OneDrive/Desktop/GD32VW553/V1_MQTT_OK/GD32VW55X_Wifi_BLE_SDK/GD32VW55x_RELEASE_V1.0.2/MSDK/cloud/alicloud/src/protocol/alcs\alcs_mqtt.c **** static alcs_mqtt_ctx_t *__alcs_mqtt_get_ctx(void)
  25:C:/Users/stapi/OneDrive/Desktop/GD32VW553/V1_MQTT_OK/GD32VW55X_Wifi_BLE_SDK/GD32VW55x_RELEASE_V1.0.2/MSDK/cloud/alicloud/src/protocol/alcs\alcs_mqtt.c **** {
  26:C:/Users/stapi/OneDrive/Desktop/GD32VW553/V1_MQTT_OK/GD32VW55X_Wifi_BLE_SDK/GD32VW55x_RELEASE_V1.0.2/MSDK/cloud/alicloud/src/protocol/alcs\alcs_mqtt.c ****     return &g_alcs_mqtt_ctx;
  27:C:/Users/stapi/OneDrive/Desktop/GD32VW553/V1_MQTT_OK/GD32VW55X_Wifi_BLE_SDK/GD32VW55x_RELEASE_V1.0.2/MSDK/cloud/alicloud/src/protocol/alcs\alcs_mqtt.c **** }
  28:C:/Users/stapi/OneDrive/Desktop/GD32VW553/V1_MQTT_OK/GD32VW55X_Wifi_BLE_SDK/GD32VW55x_RELEASE_V1.0.2/MSDK/cloud/alicloud/src/protocol/alcs\alcs_mqtt.c **** 
  29:C:/Users/stapi/OneDrive/Desktop/GD32VW553/V1_MQTT_OK/GD32VW55X_Wifi_BLE_SDK/GD32VW55x_RELEASE_V1.0.2/MSDK/cloud/alicloud/src/protocol/alcs\alcs_mqtt.c **** static alcs_mqtt_status_e __alcs_mqtt_publish(char *topic, int qos, void *data, int len)
  30:C:/Users/stapi/OneDrive/Desktop/GD32VW553/V1_MQTT_OK/GD32VW55X_Wifi_BLE_SDK/GD32VW55x_RELEASE_V1.0.2/MSDK/cloud/alicloud/src/protocol/alcs\alcs_mqtt.c **** {
  31:C:/Users/stapi/OneDrive/Desktop/GD32VW553/V1_MQTT_OK/GD32VW55X_Wifi_BLE_SDK/GD32VW55x_RELEASE_V1.0.2/MSDK/cloud/alicloud/src/protocol/alcs\alcs_mqtt.c ****     return (IOT_MQTT_Publish_Simple(NULL, topic, qos, data, len) < 0) ? ALCS_MQTT_STATUS_ERROR : AL
  32:C:/Users/stapi/OneDrive/Desktop/GD32VW553/V1_MQTT_OK/GD32VW55X_Wifi_BLE_SDK/GD32VW55x_RELEASE_V1.0.2/MSDK/cloud/alicloud/src/protocol/alcs\alcs_mqtt.c **** }
  33:C:/Users/stapi/OneDrive/Desktop/GD32VW553/V1_MQTT_OK/GD32VW55X_Wifi_BLE_SDK/GD32VW55x_RELEASE_V1.0.2/MSDK/cloud/alicloud/src/protocol/alcs\alcs_mqtt.c **** 
  34:C:/Users/stapi/OneDrive/Desktop/GD32VW553/V1_MQTT_OK/GD32VW55X_Wifi_BLE_SDK/GD32VW55x_RELEASE_V1.0.2/MSDK/cloud/alicloud/src/protocol/alcs\alcs_mqtt.c **** static alcs_mqtt_status_e __alcs_mqtt_send_response(char *topic, int id, int code, char *data)
  35:C:/Users/stapi/OneDrive/Desktop/GD32VW553/V1_MQTT_OK/GD32VW55X_Wifi_BLE_SDK/GD32VW55x_RELEASE_V1.0.2/MSDK/cloud/alicloud/src/protocol/alcs\alcs_mqtt.c **** {
  36:C:/Users/stapi/OneDrive/Desktop/GD32VW553/V1_MQTT_OK/GD32VW55X_Wifi_BLE_SDK/GD32VW55x_RELEASE_V1.0.2/MSDK/cloud/alicloud/src/protocol/alcs\alcs_mqtt.c ****     char *msg_pub = NULL;
  37:C:/Users/stapi/OneDrive/Desktop/GD32VW553/V1_MQTT_OK/GD32VW55X_Wifi_BLE_SDK/GD32VW55x_RELEASE_V1.0.2/MSDK/cloud/alicloud/src/protocol/alcs\alcs_mqtt.c ****     uint16_t msg_len = 0;
  38:C:/Users/stapi/OneDrive/Desktop/GD32VW553/V1_MQTT_OK/GD32VW55X_Wifi_BLE_SDK/GD32VW55x_RELEASE_V1.0.2/MSDK/cloud/alicloud/src/protocol/alcs\alcs_mqtt.c ****     alcs_mqtt_status_e status = ALCS_MQTT_STATUS_SUCCESS;
  39:C:/Users/stapi/OneDrive/Desktop/GD32VW553/V1_MQTT_OK/GD32VW55X_Wifi_BLE_SDK/GD32VW55x_RELEASE_V1.0.2/MSDK/cloud/alicloud/src/protocol/alcs\alcs_mqtt.c **** 
  40:C:/Users/stapi/OneDrive/Desktop/GD32VW553/V1_MQTT_OK/GD32VW55X_Wifi_BLE_SDK/GD32VW55x_RELEASE_V1.0.2/MSDK/cloud/alicloud/src/protocol/alcs\alcs_mqtt.c ****     if (data == NULL || strlen(data) == 0) {
  41:C:/Users/stapi/OneDrive/Desktop/GD32VW553/V1_MQTT_OK/GD32VW55X_Wifi_BLE_SDK/GD32VW55x_RELEASE_V1.0.2/MSDK/cloud/alicloud/src/protocol/alcs\alcs_mqtt.c ****         data = "{}";
  42:C:/Users/stapi/OneDrive/Desktop/GD32VW553/V1_MQTT_OK/GD32VW55X_Wifi_BLE_SDK/GD32VW55x_RELEASE_V1.0.2/MSDK/cloud/alicloud/src/protocol/alcs\alcs_mqtt.c ****     }
  43:C:/Users/stapi/OneDrive/Desktop/GD32VW553/V1_MQTT_OK/GD32VW55X_Wifi_BLE_SDK/GD32VW55x_RELEASE_V1.0.2/MSDK/cloud/alicloud/src/protocol/alcs\alcs_mqtt.c **** 
  44:C:/Users/stapi/OneDrive/Desktop/GD32VW553/V1_MQTT_OK/GD32VW55X_Wifi_BLE_SDK/GD32VW55x_RELEASE_V1.0.2/MSDK/cloud/alicloud/src/protocol/alcs\alcs_mqtt.c ****     msg_len = strlen(ALCS_MQTT_THING_LAN_PREFIX_RESPONSE_FMT) + 20 + strlen(data) + 1;
  45:C:/Users/stapi/OneDrive/Desktop/GD32VW553/V1_MQTT_OK/GD32VW55X_Wifi_BLE_SDK/GD32VW55x_RELEASE_V1.0.2/MSDK/cloud/alicloud/src/protocol/alcs\alcs_mqtt.c **** 
  46:C:/Users/stapi/OneDrive/Desktop/GD32VW553/V1_MQTT_OK/GD32VW55X_Wifi_BLE_SDK/GD32VW55x_RELEASE_V1.0.2/MSDK/cloud/alicloud/src/protocol/alcs\alcs_mqtt.c ****     if ((msg_pub = ALCS_ADAPTER_malloc(msg_len)) == NULL) {
  47:C:/Users/stapi/OneDrive/Desktop/GD32VW553/V1_MQTT_OK/GD32VW55X_Wifi_BLE_SDK/GD32VW55x_RELEASE_V1.0.2/MSDK/cloud/alicloud/src/protocol/alcs\alcs_mqtt.c ****         return ALCS_MQTT_STATUS_ERROR;
  48:C:/Users/stapi/OneDrive/Desktop/GD32VW553/V1_MQTT_OK/GD32VW55X_Wifi_BLE_SDK/GD32VW55x_RELEASE_V1.0.2/MSDK/cloud/alicloud/src/protocol/alcs\alcs_mqtt.c ****     }
  49:C:/Users/stapi/OneDrive/Desktop/GD32VW553/V1_MQTT_OK/GD32VW55X_Wifi_BLE_SDK/GD32VW55x_RELEASE_V1.0.2/MSDK/cloud/alicloud/src/protocol/alcs\alcs_mqtt.c **** 
  50:C:/Users/stapi/OneDrive/Desktop/GD32VW553/V1_MQTT_OK/GD32VW55X_Wifi_BLE_SDK/GD32VW55x_RELEASE_V1.0.2/MSDK/cloud/alicloud/src/protocol/alcs\alcs_mqtt.c ****     snprintf(msg_pub, msg_len, ALCS_MQTT_THING_LAN_PREFIX_RESPONSE_FMT, id, code, data);
  51:C:/Users/stapi/OneDrive/Desktop/GD32VW553/V1_MQTT_OK/GD32VW55X_Wifi_BLE_SDK/GD32VW55x_RELEASE_V1.0.2/MSDK/cloud/alicloud/src/protocol/alcs\alcs_mqtt.c **** 
  52:C:/Users/stapi/OneDrive/Desktop/GD32VW553/V1_MQTT_OK/GD32VW55X_Wifi_BLE_SDK/GD32VW55x_RELEASE_V1.0.2/MSDK/cloud/alicloud/src/protocol/alcs\alcs_mqtt.c ****     status =  __alcs_mqtt_publish(topic, 1, msg_pub, strlen(msg_pub));
  53:C:/Users/stapi/OneDrive/Desktop/GD32VW553/V1_MQTT_OK/GD32VW55X_Wifi_BLE_SDK/GD32VW55x_RELEASE_V1.0.2/MSDK/cloud/alicloud/src/protocol/alcs\alcs_mqtt.c **** 
  54:C:/Users/stapi/OneDrive/Desktop/GD32VW553/V1_MQTT_OK/GD32VW55X_Wifi_BLE_SDK/GD32VW55x_RELEASE_V1.0.2/MSDK/cloud/alicloud/src/protocol/alcs\alcs_mqtt.c ****     LITE_free(msg_pub);
  55:C:/Users/stapi/OneDrive/Desktop/GD32VW553/V1_MQTT_OK/GD32VW55X_Wifi_BLE_SDK/GD32VW55x_RELEASE_V1.0.2/MSDK/cloud/alicloud/src/protocol/alcs\alcs_mqtt.c **** 
  56:C:/Users/stapi/OneDrive/Desktop/GD32VW553/V1_MQTT_OK/GD32VW55X_Wifi_BLE_SDK/GD32VW55x_RELEASE_V1.0.2/MSDK/cloud/alicloud/src/protocol/alcs\alcs_mqtt.c ****     return status;
  57:C:/Users/stapi/OneDrive/Desktop/GD32VW553/V1_MQTT_OK/GD32VW55X_Wifi_BLE_SDK/GD32VW55x_RELEASE_V1.0.2/MSDK/cloud/alicloud/src/protocol/alcs\alcs_mqtt.c **** }
  58:C:/Users/stapi/OneDrive/Desktop/GD32VW553/V1_MQTT_OK/GD32VW55X_Wifi_BLE_SDK/GD32VW55x_RELEASE_V1.0.2/MSDK/cloud/alicloud/src/protocol/alcs\alcs_mqtt.c **** 
  59:C:/Users/stapi/OneDrive/Desktop/GD32VW553/V1_MQTT_OK/GD32VW55X_Wifi_BLE_SDK/GD32VW55x_RELEASE_V1.0.2/MSDK/cloud/alicloud/src/protocol/alcs\alcs_mqtt.c **** static alcs_mqtt_status_e __alcs_mqtt_kv_set(const char *key, const void *val, int len, int sync)
  60:C:/Users/stapi/OneDrive/Desktop/GD32VW553/V1_MQTT_OK/GD32VW55X_Wifi_BLE_SDK/GD32VW55x_RELEASE_V1.0.2/MSDK/cloud/alicloud/src/protocol/alcs\alcs_mqtt.c **** {
  61:C:/Users/stapi/OneDrive/Desktop/GD32VW553/V1_MQTT_OK/GD32VW55X_Wifi_BLE_SDK/GD32VW55x_RELEASE_V1.0.2/MSDK/cloud/alicloud/src/protocol/alcs\alcs_mqtt.c ****     if (HAL_Kv_Set(key, val, len, sync) != 0) {
  62:C:/Users/stapi/OneDrive/Desktop/GD32VW553/V1_MQTT_OK/GD32VW55X_Wifi_BLE_SDK/GD32VW55x_RELEASE_V1.0.2/MSDK/cloud/alicloud/src/protocol/alcs\alcs_mqtt.c ****         return ALCS_MQTT_STATUS_ERROR;
  63:C:/Users/stapi/OneDrive/Desktop/GD32VW553/V1_MQTT_OK/GD32VW55X_Wifi_BLE_SDK/GD32VW55x_RELEASE_V1.0.2/MSDK/cloud/alicloud/src/protocol/alcs\alcs_mqtt.c ****     }
  64:C:/Users/stapi/OneDrive/Desktop/GD32VW553/V1_MQTT_OK/GD32VW55X_Wifi_BLE_SDK/GD32VW55x_RELEASE_V1.0.2/MSDK/cloud/alicloud/src/protocol/alcs\alcs_mqtt.c **** 
  65:C:/Users/stapi/OneDrive/Desktop/GD32VW553/V1_MQTT_OK/GD32VW55X_Wifi_BLE_SDK/GD32VW55x_RELEASE_V1.0.2/MSDK/cloud/alicloud/src/protocol/alcs\alcs_mqtt.c ****     COAP_INFO("ALCS KV Set, Key: %s, Len: %d", key, len);
  66:C:/Users/stapi/OneDrive/Desktop/GD32VW553/V1_MQTT_OK/GD32VW55X_Wifi_BLE_SDK/GD32VW55x_RELEASE_V1.0.2/MSDK/cloud/alicloud/src/protocol/alcs\alcs_mqtt.c ****     return ALCS_MQTT_STATUS_SUCCESS;
  67:C:/Users/stapi/OneDrive/Desktop/GD32VW553/V1_MQTT_OK/GD32VW55X_Wifi_BLE_SDK/GD32VW55x_RELEASE_V1.0.2/MSDK/cloud/alicloud/src/protocol/alcs\alcs_mqtt.c **** }
  68:C:/Users/stapi/OneDrive/Desktop/GD32VW553/V1_MQTT_OK/GD32VW55X_Wifi_BLE_SDK/GD32VW55x_RELEASE_V1.0.2/MSDK/cloud/alicloud/src/protocol/alcs\alcs_mqtt.c **** 
  69:C:/Users/stapi/OneDrive/Desktop/GD32VW553/V1_MQTT_OK/GD32VW55X_Wifi_BLE_SDK/GD32VW55x_RELEASE_V1.0.2/MSDK/cloud/alicloud/src/protocol/alcs\alcs_mqtt.c **** static alcs_mqtt_status_e __alcs_mqtt_kv_get(const char *key, void *buffer, int *buffer_len)
  70:C:/Users/stapi/OneDrive/Desktop/GD32VW553/V1_MQTT_OK/GD32VW55X_Wifi_BLE_SDK/GD32VW55x_RELEASE_V1.0.2/MSDK/cloud/alicloud/src/protocol/alcs\alcs_mqtt.c **** {
  71:C:/Users/stapi/OneDrive/Desktop/GD32VW553/V1_MQTT_OK/GD32VW55X_Wifi_BLE_SDK/GD32VW55x_RELEASE_V1.0.2/MSDK/cloud/alicloud/src/protocol/alcs\alcs_mqtt.c ****     if (HAL_Kv_Get(key, buffer, buffer_len) != 0) {
  72:C:/Users/stapi/OneDrive/Desktop/GD32VW553/V1_MQTT_OK/GD32VW55X_Wifi_BLE_SDK/GD32VW55x_RELEASE_V1.0.2/MSDK/cloud/alicloud/src/protocol/alcs\alcs_mqtt.c ****         return ALCS_MQTT_STATUS_ERROR;
  73:C:/Users/stapi/OneDrive/Desktop/GD32VW553/V1_MQTT_OK/GD32VW55X_Wifi_BLE_SDK/GD32VW55x_RELEASE_V1.0.2/MSDK/cloud/alicloud/src/protocol/alcs\alcs_mqtt.c ****     }
  74:C:/Users/stapi/OneDrive/Desktop/GD32VW553/V1_MQTT_OK/GD32VW55X_Wifi_BLE_SDK/GD32VW55x_RELEASE_V1.0.2/MSDK/cloud/alicloud/src/protocol/alcs\alcs_mqtt.c **** 
  75:C:/Users/stapi/OneDrive/Desktop/GD32VW553/V1_MQTT_OK/GD32VW55X_Wifi_BLE_SDK/GD32VW55x_RELEASE_V1.0.2/MSDK/cloud/alicloud/src/protocol/alcs\alcs_mqtt.c ****     COAP_INFO("ALCS KV Get, Key: %s", key);
  76:C:/Users/stapi/OneDrive/Desktop/GD32VW553/V1_MQTT_OK/GD32VW55X_Wifi_BLE_SDK/GD32VW55x_RELEASE_V1.0.2/MSDK/cloud/alicloud/src/protocol/alcs\alcs_mqtt.c **** 
  77:C:/Users/stapi/OneDrive/Desktop/GD32VW553/V1_MQTT_OK/GD32VW55X_Wifi_BLE_SDK/GD32VW55x_RELEASE_V1.0.2/MSDK/cloud/alicloud/src/protocol/alcs\alcs_mqtt.c ****     return ALCS_MQTT_STATUS_SUCCESS;
  78:C:/Users/stapi/OneDrive/Desktop/GD32VW553/V1_MQTT_OK/GD32VW55X_Wifi_BLE_SDK/GD32VW55x_RELEASE_V1.0.2/MSDK/cloud/alicloud/src/protocol/alcs\alcs_mqtt.c **** }
  79:C:/Users/stapi/OneDrive/Desktop/GD32VW553/V1_MQTT_OK/GD32VW55X_Wifi_BLE_SDK/GD32VW55x_RELEASE_V1.0.2/MSDK/cloud/alicloud/src/protocol/alcs\alcs_mqtt.c **** 
  80:C:/Users/stapi/OneDrive/Desktop/GD32VW553/V1_MQTT_OK/GD32VW55X_Wifi_BLE_SDK/GD32VW55x_RELEASE_V1.0.2/MSDK/cloud/alicloud/src/protocol/alcs\alcs_mqtt.c **** static alcs_mqtt_status_e __alcs_mqtt_kv_del(const char *key)
  81:C:/Users/stapi/OneDrive/Desktop/GD32VW553/V1_MQTT_OK/GD32VW55X_Wifi_BLE_SDK/GD32VW55x_RELEASE_V1.0.2/MSDK/cloud/alicloud/src/protocol/alcs\alcs_mqtt.c **** {
  25              		.loc 1 81 1
  26              		.cfi_startproc
  27              	.LVL0:
  28 0000 17030000 		call	t0,__riscv_save_1
  28      E7020300 
  29              		.cfi_offset 8, -8
  30              		.cfi_offset 1, -4
  31              		.cfi_def_cfa_offset 16
  82:C:/Users/stapi/OneDrive/Desktop/GD32VW553/V1_MQTT_OK/GD32VW55X_Wifi_BLE_SDK/GD32VW55x_RELEASE_V1.0.2/MSDK/cloud/alicloud/src/protocol/alcs\alcs_mqtt.c ****     if (HAL_Kv_Del(key) != 0) {
  32              		.loc 1 82 5
  81:C:/Users/stapi/OneDrive/Desktop/GD32VW553/V1_MQTT_OK/GD32VW55X_Wifi_BLE_SDK/GD32VW55x_RELEASE_V1.0.2/MSDK/cloud/alicloud/src/protocol/alcs\alcs_mqtt.c ****     if (HAL_Kv_Del(key) != 0) {
  33              		.loc 1 81 1 is_stmt 0
  34 0008 2A84     		mv	s0,a0
  35              		.loc 1 82 9
  36 000a 97000000 		call	aos_kv_del
  36      E7800000 
  37              	.LVL1:
  38              		.loc 1 82 8
  39 0012 1DED     		bne	a0,zero,.L3
  40              	.LVL2:
  41              	.LBB14:
  42              	.LBB15:
  83:C:/Users/stapi/OneDrive/Desktop/GD32VW553/V1_MQTT_OK/GD32VW55X_Wifi_BLE_SDK/GD32VW55x_RELEASE_V1.0.2/MSDK/cloud/alicloud/src/protocol/alcs\alcs_mqtt.c ****         return ALCS_MQTT_STATUS_ERROR;
  84:C:/Users/stapi/OneDrive/Desktop/GD32VW553/V1_MQTT_OK/GD32VW55X_Wifi_BLE_SDK/GD32VW55x_RELEASE_V1.0.2/MSDK/cloud/alicloud/src/protocol/alcs\alcs_mqtt.c ****     }
  85:C:/Users/stapi/OneDrive/Desktop/GD32VW553/V1_MQTT_OK/GD32VW55X_Wifi_BLE_SDK/GD32VW55x_RELEASE_V1.0.2/MSDK/cloud/alicloud/src/protocol/alcs\alcs_mqtt.c **** 
  86:C:/Users/stapi/OneDrive/Desktop/GD32VW553/V1_MQTT_OK/GD32VW55X_Wifi_BLE_SDK/GD32VW55x_RELEASE_V1.0.2/MSDK/cloud/alicloud/src/protocol/alcs\alcs_mqtt.c ****     COAP_INFO("ALCS KV Del, Key: %s", key);
  43              		.loc 1 86 5 is_stmt 1
  44              		.loc 1 86 5
  45 0014 37050000 		lui	a0,%hi(.LC0)
  46 0018 13050500 		addi	a0,a0,%lo(.LC0)
  47 001c 97000000 		call	HAL_Printf
  47      E7800000 
  48              	.LVL3:
  49              		.loc 1 86 5
  50 0024 37050000 		lui	a0,%hi(.LC1)
  51 0028 A285     		mv	a1,s0
  52 002a 13050500 		addi	a0,a0,%lo(.LC1)
  53 002e 97000000 		call	HAL_Printf
  53      E7800000 
  54              	.LVL4:
  55              		.loc 1 86 5
  56 0036 37050000 		lui	a0,%hi(.LC2)
  57 003a 13050500 		addi	a0,a0,%lo(.LC2)
  58 003e 97000000 		call	HAL_Printf
  58      E7800000 
  59              	.LVL5:
  60              		.loc 1 86 5
  87:C:/Users/stapi/OneDrive/Desktop/GD32VW553/V1_MQTT_OK/GD32VW55X_Wifi_BLE_SDK/GD32VW55x_RELEASE_V1.0.2/MSDK/cloud/alicloud/src/protocol/alcs\alcs_mqtt.c **** 
  88:C:/Users/stapi/OneDrive/Desktop/GD32VW553/V1_MQTT_OK/GD32VW55X_Wifi_BLE_SDK/GD32VW55x_RELEASE_V1.0.2/MSDK/cloud/alicloud/src/protocol/alcs\alcs_mqtt.c ****     return ALCS_MQTT_STATUS_SUCCESS;
  61              		.loc 1 88 5
  86:C:/Users/stapi/OneDrive/Desktop/GD32VW553/V1_MQTT_OK/GD32VW55X_Wifi_BLE_SDK/GD32VW55x_RELEASE_V1.0.2/MSDK/cloud/alicloud/src/protocol/alcs\alcs_mqtt.c **** 
  62              		.loc 1 86 5 is_stmt 0
  63 0046 0145     		li	a0,0
  64              	.L1:
  65              	.LBE15:
  66              	.LBE14:
  89:C:/Users/stapi/OneDrive/Desktop/GD32VW553/V1_MQTT_OK/GD32VW55X_Wifi_BLE_SDK/GD32VW55x_RELEASE_V1.0.2/MSDK/cloud/alicloud/src/protocol/alcs\alcs_mqtt.c **** }
  67              		.loc 1 89 1
  68 0048 17030000 		tail	__riscv_restore_1
  68      67000300 
  69              		.cfi_remember_state
  70              		.cfi_restore 8
  71              		.cfi_restore 1
  72              		.cfi_def_cfa_offset 0
  73              	.L3:
  74              		.cfi_restore_state
  83:C:/Users/stapi/OneDrive/Desktop/GD32VW553/V1_MQTT_OK/GD32VW55X_Wifi_BLE_SDK/GD32VW55x_RELEASE_V1.0.2/MSDK/cloud/alicloud/src/protocol/alcs\alcs_mqtt.c ****     }
  75              		.loc 1 83 16
  76 0050 0545     		li	a0,1
  77 0052 DDBF     		j	.L1
  78              		.cfi_endproc
  79              	.LFE25:
  81              		.section	.rodata.__alcs_mqtt_kv_get.str1.4,"aMS",@progbits,1
  82              		.align	2
  83              	.LC3:
  84 0000 414C4353 		.string	"ALCS KV Get, Key: %s"
  84      204B5620 
  84      4765742C 
  84      204B6579 
  84      3A202573 
  85              		.section	.text.__alcs_mqtt_kv_get,"ax",@progbits
  86              		.align	1
  88              	__alcs_mqtt_kv_get:
  89              	.LFB24:
  70:C:/Users/stapi/OneDrive/Desktop/GD32VW553/V1_MQTT_OK/GD32VW55X_Wifi_BLE_SDK/GD32VW55x_RELEASE_V1.0.2/MSDK/cloud/alicloud/src/protocol/alcs\alcs_mqtt.c ****     if (HAL_Kv_Get(key, buffer, buffer_len) != 0) {
  90              		.loc 1 70 1 is_stmt 1
  91              		.cfi_startproc
  92              	.LVL6:
  93 0000 17030000 		call	t0,__riscv_save_1
  93      E7020300 
  94              		.cfi_offset 8, -8
  95              		.cfi_offset 1, -4
  96              		.cfi_def_cfa_offset 16
  70:C:/Users/stapi/OneDrive/Desktop/GD32VW553/V1_MQTT_OK/GD32VW55X_Wifi_BLE_SDK/GD32VW55x_RELEASE_V1.0.2/MSDK/cloud/alicloud/src/protocol/alcs\alcs_mqtt.c ****     if (HAL_Kv_Get(key, buffer, buffer_len) != 0) {
  97              		.loc 1 70 1 is_stmt 0
  98 0008 2A84     		mv	s0,a0
  71:C:/Users/stapi/OneDrive/Desktop/GD32VW553/V1_MQTT_OK/GD32VW55X_Wifi_BLE_SDK/GD32VW55x_RELEASE_V1.0.2/MSDK/cloud/alicloud/src/protocol/alcs\alcs_mqtt.c ****         return ALCS_MQTT_STATUS_ERROR;
  99              		.loc 1 71 5 is_stmt 1
  71:C:/Users/stapi/OneDrive/Desktop/GD32VW553/V1_MQTT_OK/GD32VW55X_Wifi_BLE_SDK/GD32VW55x_RELEASE_V1.0.2/MSDK/cloud/alicloud/src/protocol/alcs\alcs_mqtt.c ****         return ALCS_MQTT_STATUS_ERROR;
 100              		.loc 1 71 9 is_stmt 0
 101 000a 97000000 		call	aos_kv_get
 101      E7800000 
 102              	.LVL7:
  71:C:/Users/stapi/OneDrive/Desktop/GD32VW553/V1_MQTT_OK/GD32VW55X_Wifi_BLE_SDK/GD32VW55x_RELEASE_V1.0.2/MSDK/cloud/alicloud/src/protocol/alcs\alcs_mqtt.c ****         return ALCS_MQTT_STATUS_ERROR;
 103              		.loc 1 71 8
 104 0012 1DED     		bne	a0,zero,.L7
 105              	.LVL8:
 106              	.LBB18:
 107              	.LBB19:
  75:C:/Users/stapi/OneDrive/Desktop/GD32VW553/V1_MQTT_OK/GD32VW55X_Wifi_BLE_SDK/GD32VW55x_RELEASE_V1.0.2/MSDK/cloud/alicloud/src/protocol/alcs\alcs_mqtt.c **** 
 108              		.loc 1 75 5 is_stmt 1
  75:C:/Users/stapi/OneDrive/Desktop/GD32VW553/V1_MQTT_OK/GD32VW55X_Wifi_BLE_SDK/GD32VW55x_RELEASE_V1.0.2/MSDK/cloud/alicloud/src/protocol/alcs\alcs_mqtt.c **** 
 109              		.loc 1 75 5
 110 0014 37050000 		lui	a0,%hi(.LC0)
 111 0018 13050500 		addi	a0,a0,%lo(.LC0)
 112 001c 97000000 		call	HAL_Printf
 112      E7800000 
 113              	.LVL9:
  75:C:/Users/stapi/OneDrive/Desktop/GD32VW553/V1_MQTT_OK/GD32VW55X_Wifi_BLE_SDK/GD32VW55x_RELEASE_V1.0.2/MSDK/cloud/alicloud/src/protocol/alcs\alcs_mqtt.c **** 
 114              		.loc 1 75 5
 115 0024 37050000 		lui	a0,%hi(.LC3)
 116 0028 A285     		mv	a1,s0
 117 002a 13050500 		addi	a0,a0,%lo(.LC3)
 118 002e 97000000 		call	HAL_Printf
 118      E7800000 
 119              	.LVL10:
  75:C:/Users/stapi/OneDrive/Desktop/GD32VW553/V1_MQTT_OK/GD32VW55X_Wifi_BLE_SDK/GD32VW55x_RELEASE_V1.0.2/MSDK/cloud/alicloud/src/protocol/alcs\alcs_mqtt.c **** 
 120              		.loc 1 75 5
 121 0036 37050000 		lui	a0,%hi(.LC2)
 122 003a 13050500 		addi	a0,a0,%lo(.LC2)
 123 003e 97000000 		call	HAL_Printf
 123      E7800000 
 124              	.LVL11:
  75:C:/Users/stapi/OneDrive/Desktop/GD32VW553/V1_MQTT_OK/GD32VW55X_Wifi_BLE_SDK/GD32VW55x_RELEASE_V1.0.2/MSDK/cloud/alicloud/src/protocol/alcs\alcs_mqtt.c **** 
 125              		.loc 1 75 5
  77:C:/Users/stapi/OneDrive/Desktop/GD32VW553/V1_MQTT_OK/GD32VW55X_Wifi_BLE_SDK/GD32VW55x_RELEASE_V1.0.2/MSDK/cloud/alicloud/src/protocol/alcs\alcs_mqtt.c **** }
 126              		.loc 1 77 5
  75:C:/Users/stapi/OneDrive/Desktop/GD32VW553/V1_MQTT_OK/GD32VW55X_Wifi_BLE_SDK/GD32VW55x_RELEASE_V1.0.2/MSDK/cloud/alicloud/src/protocol/alcs\alcs_mqtt.c **** 
 127              		.loc 1 75 5 is_stmt 0
 128 0046 0145     		li	a0,0
 129              	.L5:
 130              	.LBE19:
 131              	.LBE18:
  78:C:/Users/stapi/OneDrive/Desktop/GD32VW553/V1_MQTT_OK/GD32VW55X_Wifi_BLE_SDK/GD32VW55x_RELEASE_V1.0.2/MSDK/cloud/alicloud/src/protocol/alcs\alcs_mqtt.c **** 
 132              		.loc 1 78 1
 133 0048 17030000 		tail	__riscv_restore_1
 133      67000300 
 134              		.cfi_remember_state
 135              		.cfi_restore 8
 136              		.cfi_restore 1
 137              		.cfi_def_cfa_offset 0
 138              	.L7:
 139              		.cfi_restore_state
  72:C:/Users/stapi/OneDrive/Desktop/GD32VW553/V1_MQTT_OK/GD32VW55X_Wifi_BLE_SDK/GD32VW55x_RELEASE_V1.0.2/MSDK/cloud/alicloud/src/protocol/alcs\alcs_mqtt.c ****     }
 140              		.loc 1 72 16
 141 0050 0545     		li	a0,1
 142 0052 DDBF     		j	.L5
 143              		.cfi_endproc
 144              	.LFE24:
 146              		.section	.text.__alcs_mqtt_subscribe.constprop.0,"ax",@progbits
 147              		.align	1
 149              	__alcs_mqtt_subscribe.constprop.0:
 150              	.LFB45:
  90:C:/Users/stapi/OneDrive/Desktop/GD32VW553/V1_MQTT_OK/GD32VW55X_Wifi_BLE_SDK/GD32VW55x_RELEASE_V1.0.2/MSDK/cloud/alicloud/src/protocol/alcs\alcs_mqtt.c **** 
  91:C:/Users/stapi/OneDrive/Desktop/GD32VW553/V1_MQTT_OK/GD32VW55X_Wifi_BLE_SDK/GD32VW55x_RELEASE_V1.0.2/MSDK/cloud/alicloud/src/protocol/alcs\alcs_mqtt.c **** alcs_mqtt_status_e __alcs_mqtt_prefix_secret_save(const char *pk, uint16_t pk_len,
  92:C:/Users/stapi/OneDrive/Desktop/GD32VW553/V1_MQTT_OK/GD32VW55X_Wifi_BLE_SDK/GD32VW55x_RELEASE_V1.0.2/MSDK/cloud/alicloud/src/protocol/alcs\alcs_mqtt.c ****         const char *dn, uint16_t dn_len,
  93:C:/Users/stapi/OneDrive/Desktop/GD32VW553/V1_MQTT_OK/GD32VW55X_Wifi_BLE_SDK/GD32VW55x_RELEASE_V1.0.2/MSDK/cloud/alicloud/src/protocol/alcs\alcs_mqtt.c ****         const char *prefix, uint16_t prefix_len,
  94:C:/Users/stapi/OneDrive/Desktop/GD32VW553/V1_MQTT_OK/GD32VW55X_Wifi_BLE_SDK/GD32VW55x_RELEASE_V1.0.2/MSDK/cloud/alicloud/src/protocol/alcs\alcs_mqtt.c ****         const char *secret, uint16_t secret_len)
  95:C:/Users/stapi/OneDrive/Desktop/GD32VW553/V1_MQTT_OK/GD32VW55X_Wifi_BLE_SDK/GD32VW55x_RELEASE_V1.0.2/MSDK/cloud/alicloud/src/protocol/alcs\alcs_mqtt.c **** {
  96:C:/Users/stapi/OneDrive/Desktop/GD32VW553/V1_MQTT_OK/GD32VW55X_Wifi_BLE_SDK/GD32VW55x_RELEASE_V1.0.2/MSDK/cloud/alicloud/src/protocol/alcs\alcs_mqtt.c ****     char *key_source = NULL;
  97:C:/Users/stapi/OneDrive/Desktop/GD32VW553/V1_MQTT_OK/GD32VW55X_Wifi_BLE_SDK/GD32VW55x_RELEASE_V1.0.2/MSDK/cloud/alicloud/src/protocol/alcs\alcs_mqtt.c ****     uint8_t key_md5[16] = {0};
  98:C:/Users/stapi/OneDrive/Desktop/GD32VW553/V1_MQTT_OK/GD32VW55X_Wifi_BLE_SDK/GD32VW55x_RELEASE_V1.0.2/MSDK/cloud/alicloud/src/protocol/alcs\alcs_mqtt.c ****     char key_md5_hexstr[33] = {0};
  99:C:/Users/stapi/OneDrive/Desktop/GD32VW553/V1_MQTT_OK/GD32VW55X_Wifi_BLE_SDK/GD32VW55x_RELEASE_V1.0.2/MSDK/cloud/alicloud/src/protocol/alcs\alcs_mqtt.c ****     char *value = NULL;
 100:C:/Users/stapi/OneDrive/Desktop/GD32VW553/V1_MQTT_OK/GD32VW55X_Wifi_BLE_SDK/GD32VW55x_RELEASE_V1.0.2/MSDK/cloud/alicloud/src/protocol/alcs\alcs_mqtt.c **** 
 101:C:/Users/stapi/OneDrive/Desktop/GD32VW553/V1_MQTT_OK/GD32VW55X_Wifi_BLE_SDK/GD32VW55x_RELEASE_V1.0.2/MSDK/cloud/alicloud/src/protocol/alcs\alcs_mqtt.c ****     if (pk == NULL || pk_len >= PRODUCT_KEY_MAXLEN ||
 102:C:/Users/stapi/OneDrive/Desktop/GD32VW553/V1_MQTT_OK/GD32VW55X_Wifi_BLE_SDK/GD32VW55x_RELEASE_V1.0.2/MSDK/cloud/alicloud/src/protocol/alcs\alcs_mqtt.c ****         dn == NULL || dn_len >= DEVICE_NAME_MAXLEN ||
 103:C:/Users/stapi/OneDrive/Desktop/GD32VW553/V1_MQTT_OK/GD32VW55X_Wifi_BLE_SDK/GD32VW55x_RELEASE_V1.0.2/MSDK/cloud/alicloud/src/protocol/alcs\alcs_mqtt.c ****         prefix == NULL || secret == NULL) {
 104:C:/Users/stapi/OneDrive/Desktop/GD32VW553/V1_MQTT_OK/GD32VW55X_Wifi_BLE_SDK/GD32VW55x_RELEASE_V1.0.2/MSDK/cloud/alicloud/src/protocol/alcs\alcs_mqtt.c ****         COAP_ERR("Invalid Parameter");
 105:C:/Users/stapi/OneDrive/Desktop/GD32VW553/V1_MQTT_OK/GD32VW55X_Wifi_BLE_SDK/GD32VW55x_RELEASE_V1.0.2/MSDK/cloud/alicloud/src/protocol/alcs\alcs_mqtt.c ****         return ALCS_MQTT_STATUS_ERROR;
 106:C:/Users/stapi/OneDrive/Desktop/GD32VW553/V1_MQTT_OK/GD32VW55X_Wifi_BLE_SDK/GD32VW55x_RELEASE_V1.0.2/MSDK/cloud/alicloud/src/protocol/alcs\alcs_mqtt.c ****     }
 107:C:/Users/stapi/OneDrive/Desktop/GD32VW553/V1_MQTT_OK/GD32VW55X_Wifi_BLE_SDK/GD32VW55x_RELEASE_V1.0.2/MSDK/cloud/alicloud/src/protocol/alcs\alcs_mqtt.c **** 
 108:C:/Users/stapi/OneDrive/Desktop/GD32VW553/V1_MQTT_OK/GD32VW55X_Wifi_BLE_SDK/GD32VW55x_RELEASE_V1.0.2/MSDK/cloud/alicloud/src/protocol/alcs\alcs_mqtt.c ****     //Calculate Key
 109:C:/Users/stapi/OneDrive/Desktop/GD32VW553/V1_MQTT_OK/GD32VW55X_Wifi_BLE_SDK/GD32VW55x_RELEASE_V1.0.2/MSDK/cloud/alicloud/src/protocol/alcs\alcs_mqtt.c ****     key_source = ALCS_ADAPTER_malloc(pk_len + dn_len + 1);
 110:C:/Users/stapi/OneDrive/Desktop/GD32VW553/V1_MQTT_OK/GD32VW55X_Wifi_BLE_SDK/GD32VW55x_RELEASE_V1.0.2/MSDK/cloud/alicloud/src/protocol/alcs\alcs_mqtt.c ****     if (key_source == NULL) {
 111:C:/Users/stapi/OneDrive/Desktop/GD32VW553/V1_MQTT_OK/GD32VW55X_Wifi_BLE_SDK/GD32VW55x_RELEASE_V1.0.2/MSDK/cloud/alicloud/src/protocol/alcs\alcs_mqtt.c ****         COAP_ERR("No Enough Memory");
 112:C:/Users/stapi/OneDrive/Desktop/GD32VW553/V1_MQTT_OK/GD32VW55X_Wifi_BLE_SDK/GD32VW55x_RELEASE_V1.0.2/MSDK/cloud/alicloud/src/protocol/alcs\alcs_mqtt.c ****         return ALCS_MQTT_STATUS_ERROR;
 113:C:/Users/stapi/OneDrive/Desktop/GD32VW553/V1_MQTT_OK/GD32VW55X_Wifi_BLE_SDK/GD32VW55x_RELEASE_V1.0.2/MSDK/cloud/alicloud/src/protocol/alcs\alcs_mqtt.c ****     }
 114:C:/Users/stapi/OneDrive/Desktop/GD32VW553/V1_MQTT_OK/GD32VW55X_Wifi_BLE_SDK/GD32VW55x_RELEASE_V1.0.2/MSDK/cloud/alicloud/src/protocol/alcs\alcs_mqtt.c ****     memset(key_source, 0, pk_len + dn_len + 1);
 115:C:/Users/stapi/OneDrive/Desktop/GD32VW553/V1_MQTT_OK/GD32VW55X_Wifi_BLE_SDK/GD32VW55x_RELEASE_V1.0.2/MSDK/cloud/alicloud/src/protocol/alcs\alcs_mqtt.c **** 
 116:C:/Users/stapi/OneDrive/Desktop/GD32VW553/V1_MQTT_OK/GD32VW55X_Wifi_BLE_SDK/GD32VW55x_RELEASE_V1.0.2/MSDK/cloud/alicloud/src/protocol/alcs\alcs_mqtt.c ****     HAL_Snprintf(key_source, pk_len + dn_len + 1, "%.*s%.*s", pk_len, pk, dn_len, dn);
 117:C:/Users/stapi/OneDrive/Desktop/GD32VW553/V1_MQTT_OK/GD32VW55X_Wifi_BLE_SDK/GD32VW55x_RELEASE_V1.0.2/MSDK/cloud/alicloud/src/protocol/alcs\alcs_mqtt.c **** 
 118:C:/Users/stapi/OneDrive/Desktop/GD32VW553/V1_MQTT_OK/GD32VW55X_Wifi_BLE_SDK/GD32VW55x_RELEASE_V1.0.2/MSDK/cloud/alicloud/src/protocol/alcs\alcs_mqtt.c ****     utils_md5((const unsigned char *)key_source, strlen(key_source), key_md5);
 119:C:/Users/stapi/OneDrive/Desktop/GD32VW553/V1_MQTT_OK/GD32VW55X_Wifi_BLE_SDK/GD32VW55x_RELEASE_V1.0.2/MSDK/cloud/alicloud/src/protocol/alcs\alcs_mqtt.c ****     utils_md5_hexstr(key_md5, (unsigned char *)key_md5_hexstr);
 120:C:/Users/stapi/OneDrive/Desktop/GD32VW553/V1_MQTT_OK/GD32VW55X_Wifi_BLE_SDK/GD32VW55x_RELEASE_V1.0.2/MSDK/cloud/alicloud/src/protocol/alcs\alcs_mqtt.c **** 
 121:C:/Users/stapi/OneDrive/Desktop/GD32VW553/V1_MQTT_OK/GD32VW55X_Wifi_BLE_SDK/GD32VW55x_RELEASE_V1.0.2/MSDK/cloud/alicloud/src/protocol/alcs\alcs_mqtt.c ****     //Calculate Value
 122:C:/Users/stapi/OneDrive/Desktop/GD32VW553/V1_MQTT_OK/GD32VW55X_Wifi_BLE_SDK/GD32VW55x_RELEASE_V1.0.2/MSDK/cloud/alicloud/src/protocol/alcs\alcs_mqtt.c ****     value = ALCS_ADAPTER_malloc(prefix_len + secret_len + 3);
 123:C:/Users/stapi/OneDrive/Desktop/GD32VW553/V1_MQTT_OK/GD32VW55X_Wifi_BLE_SDK/GD32VW55x_RELEASE_V1.0.2/MSDK/cloud/alicloud/src/protocol/alcs\alcs_mqtt.c ****     if (value == NULL) {
 124:C:/Users/stapi/OneDrive/Desktop/GD32VW553/V1_MQTT_OK/GD32VW55X_Wifi_BLE_SDK/GD32VW55x_RELEASE_V1.0.2/MSDK/cloud/alicloud/src/protocol/alcs\alcs_mqtt.c ****         COAP_ERR("No Enough Memory");
 125:C:/Users/stapi/OneDrive/Desktop/GD32VW553/V1_MQTT_OK/GD32VW55X_Wifi_BLE_SDK/GD32VW55x_RELEASE_V1.0.2/MSDK/cloud/alicloud/src/protocol/alcs\alcs_mqtt.c ****         LITE_free(key_source);
 126:C:/Users/stapi/OneDrive/Desktop/GD32VW553/V1_MQTT_OK/GD32VW55X_Wifi_BLE_SDK/GD32VW55x_RELEASE_V1.0.2/MSDK/cloud/alicloud/src/protocol/alcs\alcs_mqtt.c ****         return ALCS_MQTT_STATUS_ERROR;
 127:C:/Users/stapi/OneDrive/Desktop/GD32VW553/V1_MQTT_OK/GD32VW55X_Wifi_BLE_SDK/GD32VW55x_RELEASE_V1.0.2/MSDK/cloud/alicloud/src/protocol/alcs\alcs_mqtt.c ****     }
 128:C:/Users/stapi/OneDrive/Desktop/GD32VW553/V1_MQTT_OK/GD32VW55X_Wifi_BLE_SDK/GD32VW55x_RELEASE_V1.0.2/MSDK/cloud/alicloud/src/protocol/alcs\alcs_mqtt.c ****     memset(value, 0, prefix_len + secret_len + 3);
 129:C:/Users/stapi/OneDrive/Desktop/GD32VW553/V1_MQTT_OK/GD32VW55X_Wifi_BLE_SDK/GD32VW55x_RELEASE_V1.0.2/MSDK/cloud/alicloud/src/protocol/alcs\alcs_mqtt.c **** 
 130:C:/Users/stapi/OneDrive/Desktop/GD32VW553/V1_MQTT_OK/GD32VW55X_Wifi_BLE_SDK/GD32VW55x_RELEASE_V1.0.2/MSDK/cloud/alicloud/src/protocol/alcs\alcs_mqtt.c ****     value[0] = prefix_len;
 131:C:/Users/stapi/OneDrive/Desktop/GD32VW553/V1_MQTT_OK/GD32VW55X_Wifi_BLE_SDK/GD32VW55x_RELEASE_V1.0.2/MSDK/cloud/alicloud/src/protocol/alcs\alcs_mqtt.c ****     value[1] = secret_len;
 132:C:/Users/stapi/OneDrive/Desktop/GD32VW553/V1_MQTT_OK/GD32VW55X_Wifi_BLE_SDK/GD32VW55x_RELEASE_V1.0.2/MSDK/cloud/alicloud/src/protocol/alcs\alcs_mqtt.c ****     HAL_Snprintf(&value[2], prefix_len + secret_len + 1, "%.*s%.*s", prefix_len, prefix, secret_len
 133:C:/Users/stapi/OneDrive/Desktop/GD32VW553/V1_MQTT_OK/GD32VW55X_Wifi_BLE_SDK/GD32VW55x_RELEASE_V1.0.2/MSDK/cloud/alicloud/src/protocol/alcs\alcs_mqtt.c **** #ifndef DEVICE_MODEL_GATEWAY 
 134:C:/Users/stapi/OneDrive/Desktop/GD32VW553/V1_MQTT_OK/GD32VW55X_Wifi_BLE_SDK/GD32VW55x_RELEASE_V1.0.2/MSDK/cloud/alicloud/src/protocol/alcs\alcs_mqtt.c ****     __alcs_mqtt_kv_del(key_md5_hexstr);
 135:C:/Users/stapi/OneDrive/Desktop/GD32VW553/V1_MQTT_OK/GD32VW55X_Wifi_BLE_SDK/GD32VW55x_RELEASE_V1.0.2/MSDK/cloud/alicloud/src/protocol/alcs\alcs_mqtt.c ****     if (ALCS_MQTT_STATUS_SUCCESS != __alcs_mqtt_kv_set(ALCS_KEY, value, prefix_len + secret_len + 3
 136:C:/Users/stapi/OneDrive/Desktop/GD32VW553/V1_MQTT_OK/GD32VW55X_Wifi_BLE_SDK/GD32VW55x_RELEASE_V1.0.2/MSDK/cloud/alicloud/src/protocol/alcs\alcs_mqtt.c **** #else
 137:C:/Users/stapi/OneDrive/Desktop/GD32VW553/V1_MQTT_OK/GD32VW55X_Wifi_BLE_SDK/GD32VW55x_RELEASE_V1.0.2/MSDK/cloud/alicloud/src/protocol/alcs\alcs_mqtt.c ****     if (ALCS_MQTT_STATUS_SUCCESS != __alcs_mqtt_kv_set(key_md5_hexstr, value, prefix_len + secret_l
 138:C:/Users/stapi/OneDrive/Desktop/GD32VW553/V1_MQTT_OK/GD32VW55X_Wifi_BLE_SDK/GD32VW55x_RELEASE_V1.0.2/MSDK/cloud/alicloud/src/protocol/alcs\alcs_mqtt.c **** #endif
 139:C:/Users/stapi/OneDrive/Desktop/GD32VW553/V1_MQTT_OK/GD32VW55X_Wifi_BLE_SDK/GD32VW55x_RELEASE_V1.0.2/MSDK/cloud/alicloud/src/protocol/alcs\alcs_mqtt.c ****         COAP_ERR("ALCS KV Set Prefix And Secret Fail");
 140:C:/Users/stapi/OneDrive/Desktop/GD32VW553/V1_MQTT_OK/GD32VW55X_Wifi_BLE_SDK/GD32VW55x_RELEASE_V1.0.2/MSDK/cloud/alicloud/src/protocol/alcs\alcs_mqtt.c ****         LITE_free(key_source);
 141:C:/Users/stapi/OneDrive/Desktop/GD32VW553/V1_MQTT_OK/GD32VW55X_Wifi_BLE_SDK/GD32VW55x_RELEASE_V1.0.2/MSDK/cloud/alicloud/src/protocol/alcs\alcs_mqtt.c ****         LITE_free(value);
 142:C:/Users/stapi/OneDrive/Desktop/GD32VW553/V1_MQTT_OK/GD32VW55X_Wifi_BLE_SDK/GD32VW55x_RELEASE_V1.0.2/MSDK/cloud/alicloud/src/protocol/alcs\alcs_mqtt.c ****         return ALCS_MQTT_STATUS_ERROR;
 143:C:/Users/stapi/OneDrive/Desktop/GD32VW553/V1_MQTT_OK/GD32VW55X_Wifi_BLE_SDK/GD32VW55x_RELEASE_V1.0.2/MSDK/cloud/alicloud/src/protocol/alcs\alcs_mqtt.c ****     }
 144:C:/Users/stapi/OneDrive/Desktop/GD32VW553/V1_MQTT_OK/GD32VW55X_Wifi_BLE_SDK/GD32VW55x_RELEASE_V1.0.2/MSDK/cloud/alicloud/src/protocol/alcs\alcs_mqtt.c **** 
 145:C:/Users/stapi/OneDrive/Desktop/GD32VW553/V1_MQTT_OK/GD32VW55X_Wifi_BLE_SDK/GD32VW55x_RELEASE_V1.0.2/MSDK/cloud/alicloud/src/protocol/alcs\alcs_mqtt.c ****     LITE_free(key_source);
 146:C:/Users/stapi/OneDrive/Desktop/GD32VW553/V1_MQTT_OK/GD32VW55X_Wifi_BLE_SDK/GD32VW55x_RELEASE_V1.0.2/MSDK/cloud/alicloud/src/protocol/alcs\alcs_mqtt.c ****     LITE_free(value);
 147:C:/Users/stapi/OneDrive/Desktop/GD32VW553/V1_MQTT_OK/GD32VW55X_Wifi_BLE_SDK/GD32VW55x_RELEASE_V1.0.2/MSDK/cloud/alicloud/src/protocol/alcs\alcs_mqtt.c ****     return ALCS_MQTT_STATUS_SUCCESS;
 148:C:/Users/stapi/OneDrive/Desktop/GD32VW553/V1_MQTT_OK/GD32VW55X_Wifi_BLE_SDK/GD32VW55x_RELEASE_V1.0.2/MSDK/cloud/alicloud/src/protocol/alcs\alcs_mqtt.c **** }
 149:C:/Users/stapi/OneDrive/Desktop/GD32VW553/V1_MQTT_OK/GD32VW55X_Wifi_BLE_SDK/GD32VW55x_RELEASE_V1.0.2/MSDK/cloud/alicloud/src/protocol/alcs\alcs_mqtt.c **** 
 150:C:/Users/stapi/OneDrive/Desktop/GD32VW553/V1_MQTT_OK/GD32VW55X_Wifi_BLE_SDK/GD32VW55x_RELEASE_V1.0.2/MSDK/cloud/alicloud/src/protocol/alcs\alcs_mqtt.c **** alcs_mqtt_status_e alcs_mqtt_prefix_secret_load(const char *pk, uint16_t pk_len,
 151:C:/Users/stapi/OneDrive/Desktop/GD32VW553/V1_MQTT_OK/GD32VW55X_Wifi_BLE_SDK/GD32VW55x_RELEASE_V1.0.2/MSDK/cloud/alicloud/src/protocol/alcs\alcs_mqtt.c ****         const char *dn, uint16_t dn_len,
 152:C:/Users/stapi/OneDrive/Desktop/GD32VW553/V1_MQTT_OK/GD32VW55X_Wifi_BLE_SDK/GD32VW55x_RELEASE_V1.0.2/MSDK/cloud/alicloud/src/protocol/alcs\alcs_mqtt.c ****         char *prefix, char *secret)
 153:C:/Users/stapi/OneDrive/Desktop/GD32VW553/V1_MQTT_OK/GD32VW55X_Wifi_BLE_SDK/GD32VW55x_RELEASE_V1.0.2/MSDK/cloud/alicloud/src/protocol/alcs\alcs_mqtt.c **** {
 154:C:/Users/stapi/OneDrive/Desktop/GD32VW553/V1_MQTT_OK/GD32VW55X_Wifi_BLE_SDK/GD32VW55x_RELEASE_V1.0.2/MSDK/cloud/alicloud/src/protocol/alcs\alcs_mqtt.c ****     char *key_source = NULL;
 155:C:/Users/stapi/OneDrive/Desktop/GD32VW553/V1_MQTT_OK/GD32VW55X_Wifi_BLE_SDK/GD32VW55x_RELEASE_V1.0.2/MSDK/cloud/alicloud/src/protocol/alcs\alcs_mqtt.c ****     uint8_t key_md5[16] = {0};
 156:C:/Users/stapi/OneDrive/Desktop/GD32VW553/V1_MQTT_OK/GD32VW55X_Wifi_BLE_SDK/GD32VW55x_RELEASE_V1.0.2/MSDK/cloud/alicloud/src/protocol/alcs\alcs_mqtt.c ****     char key_md5_hexstr[33] = {0};
 157:C:/Users/stapi/OneDrive/Desktop/GD32VW553/V1_MQTT_OK/GD32VW55X_Wifi_BLE_SDK/GD32VW55x_RELEASE_V1.0.2/MSDK/cloud/alicloud/src/protocol/alcs\alcs_mqtt.c ****     char value[128] = {0};
 158:C:/Users/stapi/OneDrive/Desktop/GD32VW553/V1_MQTT_OK/GD32VW55X_Wifi_BLE_SDK/GD32VW55x_RELEASE_V1.0.2/MSDK/cloud/alicloud/src/protocol/alcs\alcs_mqtt.c ****     int value_len = sizeof(value);
 159:C:/Users/stapi/OneDrive/Desktop/GD32VW553/V1_MQTT_OK/GD32VW55X_Wifi_BLE_SDK/GD32VW55x_RELEASE_V1.0.2/MSDK/cloud/alicloud/src/protocol/alcs\alcs_mqtt.c **** 
 160:C:/Users/stapi/OneDrive/Desktop/GD32VW553/V1_MQTT_OK/GD32VW55X_Wifi_BLE_SDK/GD32VW55x_RELEASE_V1.0.2/MSDK/cloud/alicloud/src/protocol/alcs\alcs_mqtt.c ****     if (pk == NULL || strlen(pk) >= PRODUCT_KEY_MAXLEN ||
 161:C:/Users/stapi/OneDrive/Desktop/GD32VW553/V1_MQTT_OK/GD32VW55X_Wifi_BLE_SDK/GD32VW55x_RELEASE_V1.0.2/MSDK/cloud/alicloud/src/protocol/alcs\alcs_mqtt.c ****         dn == NULL || strlen(dn) >= DEVICE_NAME_MAXLEN ||
 162:C:/Users/stapi/OneDrive/Desktop/GD32VW553/V1_MQTT_OK/GD32VW55X_Wifi_BLE_SDK/GD32VW55x_RELEASE_V1.0.2/MSDK/cloud/alicloud/src/protocol/alcs\alcs_mqtt.c ****         prefix == NULL || secret == NULL) {
 163:C:/Users/stapi/OneDrive/Desktop/GD32VW553/V1_MQTT_OK/GD32VW55X_Wifi_BLE_SDK/GD32VW55x_RELEASE_V1.0.2/MSDK/cloud/alicloud/src/protocol/alcs\alcs_mqtt.c ****         COAP_ERR("Invalid Parameter");
 164:C:/Users/stapi/OneDrive/Desktop/GD32VW553/V1_MQTT_OK/GD32VW55X_Wifi_BLE_SDK/GD32VW55x_RELEASE_V1.0.2/MSDK/cloud/alicloud/src/protocol/alcs\alcs_mqtt.c ****         return ALCS_MQTT_STATUS_ERROR;
 165:C:/Users/stapi/OneDrive/Desktop/GD32VW553/V1_MQTT_OK/GD32VW55X_Wifi_BLE_SDK/GD32VW55x_RELEASE_V1.0.2/MSDK/cloud/alicloud/src/protocol/alcs\alcs_mqtt.c ****     }
 166:C:/Users/stapi/OneDrive/Desktop/GD32VW553/V1_MQTT_OK/GD32VW55X_Wifi_BLE_SDK/GD32VW55x_RELEASE_V1.0.2/MSDK/cloud/alicloud/src/protocol/alcs\alcs_mqtt.c **** 
 167:C:/Users/stapi/OneDrive/Desktop/GD32VW553/V1_MQTT_OK/GD32VW55X_Wifi_BLE_SDK/GD32VW55x_RELEASE_V1.0.2/MSDK/cloud/alicloud/src/protocol/alcs\alcs_mqtt.c ****     //Calculate Key
 168:C:/Users/stapi/OneDrive/Desktop/GD32VW553/V1_MQTT_OK/GD32VW55X_Wifi_BLE_SDK/GD32VW55x_RELEASE_V1.0.2/MSDK/cloud/alicloud/src/protocol/alcs\alcs_mqtt.c ****     key_source = ALCS_ADAPTER_malloc(pk_len + dn_len + 1);
 169:C:/Users/stapi/OneDrive/Desktop/GD32VW553/V1_MQTT_OK/GD32VW55X_Wifi_BLE_SDK/GD32VW55x_RELEASE_V1.0.2/MSDK/cloud/alicloud/src/protocol/alcs\alcs_mqtt.c ****     if (key_source == NULL) {
 170:C:/Users/stapi/OneDrive/Desktop/GD32VW553/V1_MQTT_OK/GD32VW55X_Wifi_BLE_SDK/GD32VW55x_RELEASE_V1.0.2/MSDK/cloud/alicloud/src/protocol/alcs\alcs_mqtt.c ****         COAP_ERR("No Enough Memory");
 171:C:/Users/stapi/OneDrive/Desktop/GD32VW553/V1_MQTT_OK/GD32VW55X_Wifi_BLE_SDK/GD32VW55x_RELEASE_V1.0.2/MSDK/cloud/alicloud/src/protocol/alcs\alcs_mqtt.c ****         return ALCS_MQTT_STATUS_ERROR;
 172:C:/Users/stapi/OneDrive/Desktop/GD32VW553/V1_MQTT_OK/GD32VW55X_Wifi_BLE_SDK/GD32VW55x_RELEASE_V1.0.2/MSDK/cloud/alicloud/src/protocol/alcs\alcs_mqtt.c ****     }
 173:C:/Users/stapi/OneDrive/Desktop/GD32VW553/V1_MQTT_OK/GD32VW55X_Wifi_BLE_SDK/GD32VW55x_RELEASE_V1.0.2/MSDK/cloud/alicloud/src/protocol/alcs\alcs_mqtt.c ****     memset(key_source, 0, pk_len + dn_len + 1);
 174:C:/Users/stapi/OneDrive/Desktop/GD32VW553/V1_MQTT_OK/GD32VW55X_Wifi_BLE_SDK/GD32VW55x_RELEASE_V1.0.2/MSDK/cloud/alicloud/src/protocol/alcs\alcs_mqtt.c **** 
 175:C:/Users/stapi/OneDrive/Desktop/GD32VW553/V1_MQTT_OK/GD32VW55X_Wifi_BLE_SDK/GD32VW55x_RELEASE_V1.0.2/MSDK/cloud/alicloud/src/protocol/alcs\alcs_mqtt.c ****     HAL_Snprintf(key_source, pk_len + dn_len + 1, "%.*s%.*s", pk_len, pk, dn_len, dn);
 176:C:/Users/stapi/OneDrive/Desktop/GD32VW553/V1_MQTT_OK/GD32VW55X_Wifi_BLE_SDK/GD32VW55x_RELEASE_V1.0.2/MSDK/cloud/alicloud/src/protocol/alcs\alcs_mqtt.c **** 
 177:C:/Users/stapi/OneDrive/Desktop/GD32VW553/V1_MQTT_OK/GD32VW55X_Wifi_BLE_SDK/GD32VW55x_RELEASE_V1.0.2/MSDK/cloud/alicloud/src/protocol/alcs\alcs_mqtt.c ****     utils_md5((const unsigned char *)key_source, strlen(key_source), key_md5);
 178:C:/Users/stapi/OneDrive/Desktop/GD32VW553/V1_MQTT_OK/GD32VW55X_Wifi_BLE_SDK/GD32VW55x_RELEASE_V1.0.2/MSDK/cloud/alicloud/src/protocol/alcs\alcs_mqtt.c ****     utils_md5_hexstr(key_md5, (unsigned char *)key_md5_hexstr);
 179:C:/Users/stapi/OneDrive/Desktop/GD32VW553/V1_MQTT_OK/GD32VW55X_Wifi_BLE_SDK/GD32VW55x_RELEASE_V1.0.2/MSDK/cloud/alicloud/src/protocol/alcs\alcs_mqtt.c **** 
 180:C:/Users/stapi/OneDrive/Desktop/GD32VW553/V1_MQTT_OK/GD32VW55X_Wifi_BLE_SDK/GD32VW55x_RELEASE_V1.0.2/MSDK/cloud/alicloud/src/protocol/alcs\alcs_mqtt.c ****     //Get Value
 181:C:/Users/stapi/OneDrive/Desktop/GD32VW553/V1_MQTT_OK/GD32VW55X_Wifi_BLE_SDK/GD32VW55x_RELEASE_V1.0.2/MSDK/cloud/alicloud/src/protocol/alcs\alcs_mqtt.c **** #ifndef DEVICE_MODEL_GATEWAY 
 182:C:/Users/stapi/OneDrive/Desktop/GD32VW553/V1_MQTT_OK/GD32VW55X_Wifi_BLE_SDK/GD32VW55x_RELEASE_V1.0.2/MSDK/cloud/alicloud/src/protocol/alcs\alcs_mqtt.c ****     if (ALCS_MQTT_STATUS_SUCCESS != __alcs_mqtt_kv_get(ALCS_KEY, value, &value_len)) {
 183:C:/Users/stapi/OneDrive/Desktop/GD32VW553/V1_MQTT_OK/GD32VW55X_Wifi_BLE_SDK/GD32VW55x_RELEASE_V1.0.2/MSDK/cloud/alicloud/src/protocol/alcs\alcs_mqtt.c **** #else
 184:C:/Users/stapi/OneDrive/Desktop/GD32VW553/V1_MQTT_OK/GD32VW55X_Wifi_BLE_SDK/GD32VW55x_RELEASE_V1.0.2/MSDK/cloud/alicloud/src/protocol/alcs\alcs_mqtt.c ****     if (ALCS_MQTT_STATUS_SUCCESS != __alcs_mqtt_kv_get(key_md5_hexstr, value, &value_len)) {
 185:C:/Users/stapi/OneDrive/Desktop/GD32VW553/V1_MQTT_OK/GD32VW55X_Wifi_BLE_SDK/GD32VW55x_RELEASE_V1.0.2/MSDK/cloud/alicloud/src/protocol/alcs\alcs_mqtt.c **** #endif
 186:C:/Users/stapi/OneDrive/Desktop/GD32VW553/V1_MQTT_OK/GD32VW55X_Wifi_BLE_SDK/GD32VW55x_RELEASE_V1.0.2/MSDK/cloud/alicloud/src/protocol/alcs\alcs_mqtt.c ****         COAP_ERR("ALCS KV Get Prefix And Secret Fail");
 187:C:/Users/stapi/OneDrive/Desktop/GD32VW553/V1_MQTT_OK/GD32VW55X_Wifi_BLE_SDK/GD32VW55x_RELEASE_V1.0.2/MSDK/cloud/alicloud/src/protocol/alcs\alcs_mqtt.c ****         LITE_free(key_source);
 188:C:/Users/stapi/OneDrive/Desktop/GD32VW553/V1_MQTT_OK/GD32VW55X_Wifi_BLE_SDK/GD32VW55x_RELEASE_V1.0.2/MSDK/cloud/alicloud/src/protocol/alcs\alcs_mqtt.c ****         return ALCS_MQTT_STATUS_ERROR;
 189:C:/Users/stapi/OneDrive/Desktop/GD32VW553/V1_MQTT_OK/GD32VW55X_Wifi_BLE_SDK/GD32VW55x_RELEASE_V1.0.2/MSDK/cloud/alicloud/src/protocol/alcs\alcs_mqtt.c ****     }
 190:C:/Users/stapi/OneDrive/Desktop/GD32VW553/V1_MQTT_OK/GD32VW55X_Wifi_BLE_SDK/GD32VW55x_RELEASE_V1.0.2/MSDK/cloud/alicloud/src/protocol/alcs\alcs_mqtt.c **** 
 191:C:/Users/stapi/OneDrive/Desktop/GD32VW553/V1_MQTT_OK/GD32VW55X_Wifi_BLE_SDK/GD32VW55x_RELEASE_V1.0.2/MSDK/cloud/alicloud/src/protocol/alcs\alcs_mqtt.c ****     memcpy(prefix, &value[2], value[0]);
 192:C:/Users/stapi/OneDrive/Desktop/GD32VW553/V1_MQTT_OK/GD32VW55X_Wifi_BLE_SDK/GD32VW55x_RELEASE_V1.0.2/MSDK/cloud/alicloud/src/protocol/alcs\alcs_mqtt.c ****     memcpy(secret, &value[2 + value[0]], value[1]);
 193:C:/Users/stapi/OneDrive/Desktop/GD32VW553/V1_MQTT_OK/GD32VW55X_Wifi_BLE_SDK/GD32VW55x_RELEASE_V1.0.2/MSDK/cloud/alicloud/src/protocol/alcs\alcs_mqtt.c ****     LITE_free(key_source);
 194:C:/Users/stapi/OneDrive/Desktop/GD32VW553/V1_MQTT_OK/GD32VW55X_Wifi_BLE_SDK/GD32VW55x_RELEASE_V1.0.2/MSDK/cloud/alicloud/src/protocol/alcs\alcs_mqtt.c **** 
 195:C:/Users/stapi/OneDrive/Desktop/GD32VW553/V1_MQTT_OK/GD32VW55X_Wifi_BLE_SDK/GD32VW55x_RELEASE_V1.0.2/MSDK/cloud/alicloud/src/protocol/alcs\alcs_mqtt.c ****     return ALCS_MQTT_STATUS_SUCCESS;
 196:C:/Users/stapi/OneDrive/Desktop/GD32VW553/V1_MQTT_OK/GD32VW55X_Wifi_BLE_SDK/GD32VW55x_RELEASE_V1.0.2/MSDK/cloud/alicloud/src/protocol/alcs\alcs_mqtt.c **** }
 197:C:/Users/stapi/OneDrive/Desktop/GD32VW553/V1_MQTT_OK/GD32VW55X_Wifi_BLE_SDK/GD32VW55x_RELEASE_V1.0.2/MSDK/cloud/alicloud/src/protocol/alcs\alcs_mqtt.c **** 
 198:C:/Users/stapi/OneDrive/Desktop/GD32VW553/V1_MQTT_OK/GD32VW55X_Wifi_BLE_SDK/GD32VW55x_RELEASE_V1.0.2/MSDK/cloud/alicloud/src/protocol/alcs\alcs_mqtt.c **** alcs_mqtt_status_e alcs_mqtt_prefix_secret_del(const char *pk, uint16_t pk_len,
 199:C:/Users/stapi/OneDrive/Desktop/GD32VW553/V1_MQTT_OK/GD32VW55X_Wifi_BLE_SDK/GD32VW55x_RELEASE_V1.0.2/MSDK/cloud/alicloud/src/protocol/alcs\alcs_mqtt.c ****         const char *dn, uint16_t dn_len)
 200:C:/Users/stapi/OneDrive/Desktop/GD32VW553/V1_MQTT_OK/GD32VW55X_Wifi_BLE_SDK/GD32VW55x_RELEASE_V1.0.2/MSDK/cloud/alicloud/src/protocol/alcs\alcs_mqtt.c **** {
 201:C:/Users/stapi/OneDrive/Desktop/GD32VW553/V1_MQTT_OK/GD32VW55X_Wifi_BLE_SDK/GD32VW55x_RELEASE_V1.0.2/MSDK/cloud/alicloud/src/protocol/alcs\alcs_mqtt.c ****     char *key_source = NULL;
 202:C:/Users/stapi/OneDrive/Desktop/GD32VW553/V1_MQTT_OK/GD32VW55X_Wifi_BLE_SDK/GD32VW55x_RELEASE_V1.0.2/MSDK/cloud/alicloud/src/protocol/alcs\alcs_mqtt.c ****     uint8_t key_md5[16] = {0};
 203:C:/Users/stapi/OneDrive/Desktop/GD32VW553/V1_MQTT_OK/GD32VW55X_Wifi_BLE_SDK/GD32VW55x_RELEASE_V1.0.2/MSDK/cloud/alicloud/src/protocol/alcs\alcs_mqtt.c ****     char key_md5_hexstr[33] = {0};
 204:C:/Users/stapi/OneDrive/Desktop/GD32VW553/V1_MQTT_OK/GD32VW55X_Wifi_BLE_SDK/GD32VW55x_RELEASE_V1.0.2/MSDK/cloud/alicloud/src/protocol/alcs\alcs_mqtt.c **** 
 205:C:/Users/stapi/OneDrive/Desktop/GD32VW553/V1_MQTT_OK/GD32VW55X_Wifi_BLE_SDK/GD32VW55x_RELEASE_V1.0.2/MSDK/cloud/alicloud/src/protocol/alcs\alcs_mqtt.c ****     if (pk == NULL || strlen(pk) >= PRODUCT_KEY_MAXLEN ||
 206:C:/Users/stapi/OneDrive/Desktop/GD32VW553/V1_MQTT_OK/GD32VW55X_Wifi_BLE_SDK/GD32VW55x_RELEASE_V1.0.2/MSDK/cloud/alicloud/src/protocol/alcs\alcs_mqtt.c ****         dn == NULL || strlen(dn) >= DEVICE_NAME_MAXLEN) {
 207:C:/Users/stapi/OneDrive/Desktop/GD32VW553/V1_MQTT_OK/GD32VW55X_Wifi_BLE_SDK/GD32VW55x_RELEASE_V1.0.2/MSDK/cloud/alicloud/src/protocol/alcs\alcs_mqtt.c ****         COAP_ERR("Invalid Parameter");
 208:C:/Users/stapi/OneDrive/Desktop/GD32VW553/V1_MQTT_OK/GD32VW55X_Wifi_BLE_SDK/GD32VW55x_RELEASE_V1.0.2/MSDK/cloud/alicloud/src/protocol/alcs\alcs_mqtt.c ****         return ALCS_MQTT_STATUS_ERROR;
 209:C:/Users/stapi/OneDrive/Desktop/GD32VW553/V1_MQTT_OK/GD32VW55X_Wifi_BLE_SDK/GD32VW55x_RELEASE_V1.0.2/MSDK/cloud/alicloud/src/protocol/alcs\alcs_mqtt.c ****     }
 210:C:/Users/stapi/OneDrive/Desktop/GD32VW553/V1_MQTT_OK/GD32VW55X_Wifi_BLE_SDK/GD32VW55x_RELEASE_V1.0.2/MSDK/cloud/alicloud/src/protocol/alcs\alcs_mqtt.c **** 
 211:C:/Users/stapi/OneDrive/Desktop/GD32VW553/V1_MQTT_OK/GD32VW55X_Wifi_BLE_SDK/GD32VW55x_RELEASE_V1.0.2/MSDK/cloud/alicloud/src/protocol/alcs\alcs_mqtt.c ****     //Calculate Key
 212:C:/Users/stapi/OneDrive/Desktop/GD32VW553/V1_MQTT_OK/GD32VW55X_Wifi_BLE_SDK/GD32VW55x_RELEASE_V1.0.2/MSDK/cloud/alicloud/src/protocol/alcs\alcs_mqtt.c ****     key_source = ALCS_ADAPTER_malloc(pk_len + dn_len + 1);
 213:C:/Users/stapi/OneDrive/Desktop/GD32VW553/V1_MQTT_OK/GD32VW55X_Wifi_BLE_SDK/GD32VW55x_RELEASE_V1.0.2/MSDK/cloud/alicloud/src/protocol/alcs\alcs_mqtt.c ****     if (key_source == NULL) {
 214:C:/Users/stapi/OneDrive/Desktop/GD32VW553/V1_MQTT_OK/GD32VW55X_Wifi_BLE_SDK/GD32VW55x_RELEASE_V1.0.2/MSDK/cloud/alicloud/src/protocol/alcs\alcs_mqtt.c ****         COAP_ERR("No Enough Memory");
 215:C:/Users/stapi/OneDrive/Desktop/GD32VW553/V1_MQTT_OK/GD32VW55X_Wifi_BLE_SDK/GD32VW55x_RELEASE_V1.0.2/MSDK/cloud/alicloud/src/protocol/alcs\alcs_mqtt.c ****         return ALCS_MQTT_STATUS_ERROR;
 216:C:/Users/stapi/OneDrive/Desktop/GD32VW553/V1_MQTT_OK/GD32VW55X_Wifi_BLE_SDK/GD32VW55x_RELEASE_V1.0.2/MSDK/cloud/alicloud/src/protocol/alcs\alcs_mqtt.c ****     }
 217:C:/Users/stapi/OneDrive/Desktop/GD32VW553/V1_MQTT_OK/GD32VW55X_Wifi_BLE_SDK/GD32VW55x_RELEASE_V1.0.2/MSDK/cloud/alicloud/src/protocol/alcs\alcs_mqtt.c ****     memset(key_source, 0, pk_len + dn_len + 1);
 218:C:/Users/stapi/OneDrive/Desktop/GD32VW553/V1_MQTT_OK/GD32VW55X_Wifi_BLE_SDK/GD32VW55x_RELEASE_V1.0.2/MSDK/cloud/alicloud/src/protocol/alcs\alcs_mqtt.c **** 
 219:C:/Users/stapi/OneDrive/Desktop/GD32VW553/V1_MQTT_OK/GD32VW55X_Wifi_BLE_SDK/GD32VW55x_RELEASE_V1.0.2/MSDK/cloud/alicloud/src/protocol/alcs\alcs_mqtt.c ****     HAL_Snprintf(key_source, pk_len + dn_len + 1, "%.*s%.*s", pk_len, pk, dn_len, dn);
 220:C:/Users/stapi/OneDrive/Desktop/GD32VW553/V1_MQTT_OK/GD32VW55X_Wifi_BLE_SDK/GD32VW55x_RELEASE_V1.0.2/MSDK/cloud/alicloud/src/protocol/alcs\alcs_mqtt.c **** 
 221:C:/Users/stapi/OneDrive/Desktop/GD32VW553/V1_MQTT_OK/GD32VW55X_Wifi_BLE_SDK/GD32VW55x_RELEASE_V1.0.2/MSDK/cloud/alicloud/src/protocol/alcs\alcs_mqtt.c ****     utils_md5((const unsigned char *)key_source, strlen(key_source), key_md5);
 222:C:/Users/stapi/OneDrive/Desktop/GD32VW553/V1_MQTT_OK/GD32VW55X_Wifi_BLE_SDK/GD32VW55x_RELEASE_V1.0.2/MSDK/cloud/alicloud/src/protocol/alcs\alcs_mqtt.c ****     utils_md5_hexstr(key_md5, (unsigned char *)key_md5_hexstr);
 223:C:/Users/stapi/OneDrive/Desktop/GD32VW553/V1_MQTT_OK/GD32VW55X_Wifi_BLE_SDK/GD32VW55x_RELEASE_V1.0.2/MSDK/cloud/alicloud/src/protocol/alcs\alcs_mqtt.c **** 
 224:C:/Users/stapi/OneDrive/Desktop/GD32VW553/V1_MQTT_OK/GD32VW55X_Wifi_BLE_SDK/GD32VW55x_RELEASE_V1.0.2/MSDK/cloud/alicloud/src/protocol/alcs\alcs_mqtt.c **** #ifndef DEVICE_MODEL_GATEWAY 
 225:C:/Users/stapi/OneDrive/Desktop/GD32VW553/V1_MQTT_OK/GD32VW55X_Wifi_BLE_SDK/GD32VW55x_RELEASE_V1.0.2/MSDK/cloud/alicloud/src/protocol/alcs\alcs_mqtt.c ****     if (ALCS_MQTT_STATUS_SUCCESS != __alcs_mqtt_kv_del(ALCS_KEY)) {
 226:C:/Users/stapi/OneDrive/Desktop/GD32VW553/V1_MQTT_OK/GD32VW55X_Wifi_BLE_SDK/GD32VW55x_RELEASE_V1.0.2/MSDK/cloud/alicloud/src/protocol/alcs\alcs_mqtt.c **** #else 
 227:C:/Users/stapi/OneDrive/Desktop/GD32VW553/V1_MQTT_OK/GD32VW55X_Wifi_BLE_SDK/GD32VW55x_RELEASE_V1.0.2/MSDK/cloud/alicloud/src/protocol/alcs\alcs_mqtt.c ****     if (ALCS_MQTT_STATUS_SUCCESS != __alcs_mqtt_kv_del(key_md5_hexstr)) {
 228:C:/Users/stapi/OneDrive/Desktop/GD32VW553/V1_MQTT_OK/GD32VW55X_Wifi_BLE_SDK/GD32VW55x_RELEASE_V1.0.2/MSDK/cloud/alicloud/src/protocol/alcs\alcs_mqtt.c **** #endif
 229:C:/Users/stapi/OneDrive/Desktop/GD32VW553/V1_MQTT_OK/GD32VW55X_Wifi_BLE_SDK/GD32VW55x_RELEASE_V1.0.2/MSDK/cloud/alicloud/src/protocol/alcs\alcs_mqtt.c ****         COAP_ERR("ALCS KV Get Prefix And Secret Fail");
 230:C:/Users/stapi/OneDrive/Desktop/GD32VW553/V1_MQTT_OK/GD32VW55X_Wifi_BLE_SDK/GD32VW55x_RELEASE_V1.0.2/MSDK/cloud/alicloud/src/protocol/alcs\alcs_mqtt.c ****         LITE_free(key_source);
 231:C:/Users/stapi/OneDrive/Desktop/GD32VW553/V1_MQTT_OK/GD32VW55X_Wifi_BLE_SDK/GD32VW55x_RELEASE_V1.0.2/MSDK/cloud/alicloud/src/protocol/alcs\alcs_mqtt.c ****         return ALCS_MQTT_STATUS_ERROR;
 232:C:/Users/stapi/OneDrive/Desktop/GD32VW553/V1_MQTT_OK/GD32VW55X_Wifi_BLE_SDK/GD32VW55x_RELEASE_V1.0.2/MSDK/cloud/alicloud/src/protocol/alcs\alcs_mqtt.c ****     }
 233:C:/Users/stapi/OneDrive/Desktop/GD32VW553/V1_MQTT_OK/GD32VW55X_Wifi_BLE_SDK/GD32VW55x_RELEASE_V1.0.2/MSDK/cloud/alicloud/src/protocol/alcs\alcs_mqtt.c **** 
 234:C:/Users/stapi/OneDrive/Desktop/GD32VW553/V1_MQTT_OK/GD32VW55X_Wifi_BLE_SDK/GD32VW55x_RELEASE_V1.0.2/MSDK/cloud/alicloud/src/protocol/alcs\alcs_mqtt.c ****     LITE_free(key_source);
 235:C:/Users/stapi/OneDrive/Desktop/GD32VW553/V1_MQTT_OK/GD32VW55X_Wifi_BLE_SDK/GD32VW55x_RELEASE_V1.0.2/MSDK/cloud/alicloud/src/protocol/alcs\alcs_mqtt.c ****     return ALCS_MQTT_STATUS_SUCCESS;
 236:C:/Users/stapi/OneDrive/Desktop/GD32VW553/V1_MQTT_OK/GD32VW55X_Wifi_BLE_SDK/GD32VW55x_RELEASE_V1.0.2/MSDK/cloud/alicloud/src/protocol/alcs\alcs_mqtt.c **** }
 237:C:/Users/stapi/OneDrive/Desktop/GD32VW553/V1_MQTT_OK/GD32VW55X_Wifi_BLE_SDK/GD32VW55x_RELEASE_V1.0.2/MSDK/cloud/alicloud/src/protocol/alcs\alcs_mqtt.c **** #ifdef ALCS_GROUP_COMM_ENABLE
 238:C:/Users/stapi/OneDrive/Desktop/GD32VW553/V1_MQTT_OK/GD32VW55X_Wifi_BLE_SDK/GD32VW55x_RELEASE_V1.0.2/MSDK/cloud/alicloud/src/protocol/alcs\alcs_mqtt.c **** static char *lg_kv_key = "ALCS_LG";
 239:C:/Users/stapi/OneDrive/Desktop/GD32VW553/V1_MQTT_OK/GD32VW55X_Wifi_BLE_SDK/GD32VW55x_RELEASE_V1.0.2/MSDK/cloud/alicloud/src/protocol/alcs\alcs_mqtt.c **** static void __alcs_update_group_info(CoAPContext *handle){
 240:C:/Users/stapi/OneDrive/Desktop/GD32VW553/V1_MQTT_OK/GD32VW55X_Wifi_BLE_SDK/GD32VW55x_RELEASE_V1.0.2/MSDK/cloud/alicloud/src/protocol/alcs\alcs_mqtt.c ****     char *ptr0 = NULL;
 241:C:/Users/stapi/OneDrive/Desktop/GD32VW553/V1_MQTT_OK/GD32VW55X_Wifi_BLE_SDK/GD32VW55x_RELEASE_V1.0.2/MSDK/cloud/alicloud/src/protocol/alcs\alcs_mqtt.c ****     char gid[ALCS_GROUP_GID_SIZE+1] = {0}, gak[ALCS_GROUP_GAK_SIZE+1] = {0}, gas[ALCS_GROUP_GAS_SIZ
 242:C:/Users/stapi/OneDrive/Desktop/GD32VW553/V1_MQTT_OK/GD32VW55X_Wifi_BLE_SDK/GD32VW55x_RELEASE_V1.0.2/MSDK/cloud/alicloud/src/protocol/alcs\alcs_mqtt.c ****     int localgroup_kv_len = ALCS_GROUP_KV_MAXSIZE;// (8+8+10+30+1)*2 ->gId gAc gAs bl
 243:C:/Users/stapi/OneDrive/Desktop/GD32VW553/V1_MQTT_OK/GD32VW55X_Wifi_BLE_SDK/GD32VW55x_RELEASE_V1.0.2/MSDK/cloud/alicloud/src/protocol/alcs\alcs_mqtt.c ****     char localgroup_kv[ALCS_GROUP_KV_MAXSIZE] = {0}; 
 244:C:/Users/stapi/OneDrive/Desktop/GD32VW553/V1_MQTT_OK/GD32VW55X_Wifi_BLE_SDK/GD32VW55x_RELEASE_V1.0.2/MSDK/cloud/alicloud/src/protocol/alcs\alcs_mqtt.c ****     memset(localgroup_kv, 0, sizeof(localgroup_kv));
 245:C:/Users/stapi/OneDrive/Desktop/GD32VW553/V1_MQTT_OK/GD32VW55X_Wifi_BLE_SDK/GD32VW55x_RELEASE_V1.0.2/MSDK/cloud/alicloud/src/protocol/alcs\alcs_mqtt.c ****     if(ALCS_MQTT_STATUS_SUCCESS == __alcs_mqtt_kv_get(lg_kv_key, localgroup_kv, &localgroup_kv_len)
 246:C:/Users/stapi/OneDrive/Desktop/GD32VW553/V1_MQTT_OK/GD32VW55X_Wifi_BLE_SDK/GD32VW55x_RELEASE_V1.0.2/MSDK/cloud/alicloud/src/protocol/alcs\alcs_mqtt.c ****         memcpy(gid, localgroup_kv, ALCS_GROUP_GID_SIZE);
 247:C:/Users/stapi/OneDrive/Desktop/GD32VW553/V1_MQTT_OK/GD32VW55X_Wifi_BLE_SDK/GD32VW55x_RELEASE_V1.0.2/MSDK/cloud/alicloud/src/protocol/alcs\alcs_mqtt.c ****         memcpy(gak, &localgroup_kv[ALCS_GROUP_GID_SIZE], ALCS_GROUP_GAK_SIZE);
 248:C:/Users/stapi/OneDrive/Desktop/GD32VW553/V1_MQTT_OK/GD32VW55X_Wifi_BLE_SDK/GD32VW55x_RELEASE_V1.0.2/MSDK/cloud/alicloud/src/protocol/alcs\alcs_mqtt.c ****         memcpy(gas, &localgroup_kv[ALCS_GROUP_GID_SIZE+ALCS_GROUP_GAK_SIZE], ALCS_GROUP_GAS_SIZE);
 249:C:/Users/stapi/OneDrive/Desktop/GD32VW553/V1_MQTT_OK/GD32VW55X_Wifi_BLE_SDK/GD32VW55x_RELEASE_V1.0.2/MSDK/cloud/alicloud/src/protocol/alcs\alcs_mqtt.c ****         memcpy(gbl, &localgroup_kv[ALCS_GROUP_GID_SIZE+ALCS_GROUP_GAK_SIZE+ALCS_GROUP_GAS_SIZE], AL
 250:C:/Users/stapi/OneDrive/Desktop/GD32VW553/V1_MQTT_OK/GD32VW55X_Wifi_BLE_SDK/GD32VW55x_RELEASE_V1.0.2/MSDK/cloud/alicloud/src/protocol/alcs\alcs_mqtt.c **** 
 251:C:/Users/stapi/OneDrive/Desktop/GD32VW553/V1_MQTT_OK/GD32VW55X_Wifi_BLE_SDK/GD32VW55x_RELEASE_V1.0.2/MSDK/cloud/alicloud/src/protocol/alcs\alcs_mqtt.c ****         alcs_add_svr_group(handle, gid, gak, gas);
 252:C:/Users/stapi/OneDrive/Desktop/GD32VW553/V1_MQTT_OK/GD32VW55X_Wifi_BLE_SDK/GD32VW55x_RELEASE_V1.0.2/MSDK/cloud/alicloud/src/protocol/alcs\alcs_mqtt.c ****         alcs_set_group_revocation(handle, gid, gbl);
 253:C:/Users/stapi/OneDrive/Desktop/GD32VW553/V1_MQTT_OK/GD32VW55X_Wifi_BLE_SDK/GD32VW55x_RELEASE_V1.0.2/MSDK/cloud/alicloud/src/protocol/alcs\alcs_mqtt.c ****         ptr0 = strchr(localgroup_kv, ',');
 254:C:/Users/stapi/OneDrive/Desktop/GD32VW553/V1_MQTT_OK/GD32VW55X_Wifi_BLE_SDK/GD32VW55x_RELEASE_V1.0.2/MSDK/cloud/alicloud/src/protocol/alcs\alcs_mqtt.c ****         if(ptr0 != NULL){
 255:C:/Users/stapi/OneDrive/Desktop/GD32VW553/V1_MQTT_OK/GD32VW55X_Wifi_BLE_SDK/GD32VW55x_RELEASE_V1.0.2/MSDK/cloud/alicloud/src/protocol/alcs\alcs_mqtt.c ****             ptr0++;
 256:C:/Users/stapi/OneDrive/Desktop/GD32VW553/V1_MQTT_OK/GD32VW55X_Wifi_BLE_SDK/GD32VW55x_RELEASE_V1.0.2/MSDK/cloud/alicloud/src/protocol/alcs\alcs_mqtt.c ****             memcpy(gid, ptr0, ALCS_GROUP_GID_SIZE);
 257:C:/Users/stapi/OneDrive/Desktop/GD32VW553/V1_MQTT_OK/GD32VW55X_Wifi_BLE_SDK/GD32VW55x_RELEASE_V1.0.2/MSDK/cloud/alicloud/src/protocol/alcs\alcs_mqtt.c ****             ptr0 = ptr0 + ALCS_GROUP_GID_SIZE;
 258:C:/Users/stapi/OneDrive/Desktop/GD32VW553/V1_MQTT_OK/GD32VW55X_Wifi_BLE_SDK/GD32VW55x_RELEASE_V1.0.2/MSDK/cloud/alicloud/src/protocol/alcs\alcs_mqtt.c ****             memcpy(gak, ptr0, ALCS_GROUP_GAK_SIZE);
 259:C:/Users/stapi/OneDrive/Desktop/GD32VW553/V1_MQTT_OK/GD32VW55X_Wifi_BLE_SDK/GD32VW55x_RELEASE_V1.0.2/MSDK/cloud/alicloud/src/protocol/alcs\alcs_mqtt.c ****             ptr0 = ptr0 + ALCS_GROUP_GAK_SIZE;
 260:C:/Users/stapi/OneDrive/Desktop/GD32VW553/V1_MQTT_OK/GD32VW55X_Wifi_BLE_SDK/GD32VW55x_RELEASE_V1.0.2/MSDK/cloud/alicloud/src/protocol/alcs\alcs_mqtt.c ****             memcpy(gas, ptr0, ALCS_GROUP_GAS_SIZE);
 261:C:/Users/stapi/OneDrive/Desktop/GD32VW553/V1_MQTT_OK/GD32VW55X_Wifi_BLE_SDK/GD32VW55x_RELEASE_V1.0.2/MSDK/cloud/alicloud/src/protocol/alcs\alcs_mqtt.c ****             ptr0 = ptr0 + ALCS_GROUP_GAS_SIZE;
 262:C:/Users/stapi/OneDrive/Desktop/GD32VW553/V1_MQTT_OK/GD32VW55X_Wifi_BLE_SDK/GD32VW55x_RELEASE_V1.0.2/MSDK/cloud/alicloud/src/protocol/alcs\alcs_mqtt.c ****             memset(gbl, 0, sizeof(gbl));
 263:C:/Users/stapi/OneDrive/Desktop/GD32VW553/V1_MQTT_OK/GD32VW55X_Wifi_BLE_SDK/GD32VW55x_RELEASE_V1.0.2/MSDK/cloud/alicloud/src/protocol/alcs\alcs_mqtt.c ****             memcpy(gbl, ptr0, ALCS_GROUP_GBL_MAXSIZE);
 264:C:/Users/stapi/OneDrive/Desktop/GD32VW553/V1_MQTT_OK/GD32VW55X_Wifi_BLE_SDK/GD32VW55x_RELEASE_V1.0.2/MSDK/cloud/alicloud/src/protocol/alcs\alcs_mqtt.c **** 
 265:C:/Users/stapi/OneDrive/Desktop/GD32VW553/V1_MQTT_OK/GD32VW55X_Wifi_BLE_SDK/GD32VW55x_RELEASE_V1.0.2/MSDK/cloud/alicloud/src/protocol/alcs\alcs_mqtt.c ****             alcs_add_svr_group(handle, gid, gak, gas);
 266:C:/Users/stapi/OneDrive/Desktop/GD32VW553/V1_MQTT_OK/GD32VW55X_Wifi_BLE_SDK/GD32VW55x_RELEASE_V1.0.2/MSDK/cloud/alicloud/src/protocol/alcs\alcs_mqtt.c ****             alcs_set_group_revocation(handle, gid, gbl);
 267:C:/Users/stapi/OneDrive/Desktop/GD32VW553/V1_MQTT_OK/GD32VW55X_Wifi_BLE_SDK/GD32VW55x_RELEASE_V1.0.2/MSDK/cloud/alicloud/src/protocol/alcs\alcs_mqtt.c ****         }
 268:C:/Users/stapi/OneDrive/Desktop/GD32VW553/V1_MQTT_OK/GD32VW55X_Wifi_BLE_SDK/GD32VW55x_RELEASE_V1.0.2/MSDK/cloud/alicloud/src/protocol/alcs\alcs_mqtt.c ****     }
 269:C:/Users/stapi/OneDrive/Desktop/GD32VW553/V1_MQTT_OK/GD32VW55X_Wifi_BLE_SDK/GD32VW55x_RELEASE_V1.0.2/MSDK/cloud/alicloud/src/protocol/alcs\alcs_mqtt.c **** }
 270:C:/Users/stapi/OneDrive/Desktop/GD32VW553/V1_MQTT_OK/GD32VW55X_Wifi_BLE_SDK/GD32VW55x_RELEASE_V1.0.2/MSDK/cloud/alicloud/src/protocol/alcs\alcs_mqtt.c **** #endif
 271:C:/Users/stapi/OneDrive/Desktop/GD32VW553/V1_MQTT_OK/GD32VW55X_Wifi_BLE_SDK/GD32VW55x_RELEASE_V1.0.2/MSDK/cloud/alicloud/src/protocol/alcs\alcs_mqtt.c **** static void __alcs_mqtt_subscribe_callback(void *pcontext, void *pclient, iotx_mqtt_event_msg_pt ms
 272:C:/Users/stapi/OneDrive/Desktop/GD32VW553/V1_MQTT_OK/GD32VW55X_Wifi_BLE_SDK/GD32VW55x_RELEASE_V1.0.2/MSDK/cloud/alicloud/src/protocol/alcs\alcs_mqtt.c **** {
 273:C:/Users/stapi/OneDrive/Desktop/GD32VW553/V1_MQTT_OK/GD32VW55X_Wifi_BLE_SDK/GD32VW55x_RELEASE_V1.0.2/MSDK/cloud/alicloud/src/protocol/alcs\alcs_mqtt.c ****     char topic_compare[ALCS_MQTT_TOPIC_MAX_LEN] = {0};
 274:C:/Users/stapi/OneDrive/Desktop/GD32VW553/V1_MQTT_OK/GD32VW55X_Wifi_BLE_SDK/GD32VW55x_RELEASE_V1.0.2/MSDK/cloud/alicloud/src/protocol/alcs\alcs_mqtt.c ****     char reqid[16]   = {0};
 275:C:/Users/stapi/OneDrive/Desktop/GD32VW553/V1_MQTT_OK/GD32VW55X_Wifi_BLE_SDK/GD32VW55x_RELEASE_V1.0.2/MSDK/cloud/alicloud/src/protocol/alcs\alcs_mqtt.c ****     char *topic;
 276:C:/Users/stapi/OneDrive/Desktop/GD32VW553/V1_MQTT_OK/GD32VW55X_Wifi_BLE_SDK/GD32VW55x_RELEASE_V1.0.2/MSDK/cloud/alicloud/src/protocol/alcs\alcs_mqtt.c ****     int topic_len;
 277:C:/Users/stapi/OneDrive/Desktop/GD32VW553/V1_MQTT_OK/GD32VW55X_Wifi_BLE_SDK/GD32VW55x_RELEASE_V1.0.2/MSDK/cloud/alicloud/src/protocol/alcs\alcs_mqtt.c ****     void *payload;
 278:C:/Users/stapi/OneDrive/Desktop/GD32VW553/V1_MQTT_OK/GD32VW55X_Wifi_BLE_SDK/GD32VW55x_RELEASE_V1.0.2/MSDK/cloud/alicloud/src/protocol/alcs\alcs_mqtt.c ****     int payload_len;
 279:C:/Users/stapi/OneDrive/Desktop/GD32VW553/V1_MQTT_OK/GD32VW55X_Wifi_BLE_SDK/GD32VW55x_RELEASE_V1.0.2/MSDK/cloud/alicloud/src/protocol/alcs\alcs_mqtt.c **** 
 280:C:/Users/stapi/OneDrive/Desktop/GD32VW553/V1_MQTT_OK/GD32VW55X_Wifi_BLE_SDK/GD32VW55x_RELEASE_V1.0.2/MSDK/cloud/alicloud/src/protocol/alcs\alcs_mqtt.c ****     if (msg == NULL) {
 281:C:/Users/stapi/OneDrive/Desktop/GD32VW553/V1_MQTT_OK/GD32VW55X_Wifi_BLE_SDK/GD32VW55x_RELEASE_V1.0.2/MSDK/cloud/alicloud/src/protocol/alcs\alcs_mqtt.c ****         return;
 282:C:/Users/stapi/OneDrive/Desktop/GD32VW553/V1_MQTT_OK/GD32VW55X_Wifi_BLE_SDK/GD32VW55x_RELEASE_V1.0.2/MSDK/cloud/alicloud/src/protocol/alcs\alcs_mqtt.c ****     }
 283:C:/Users/stapi/OneDrive/Desktop/GD32VW553/V1_MQTT_OK/GD32VW55X_Wifi_BLE_SDK/GD32VW55x_RELEASE_V1.0.2/MSDK/cloud/alicloud/src/protocol/alcs\alcs_mqtt.c ****     alcs_mqtt_ctx_t *alcs_mqtt_ctx = (alcs_mqtt_ctx_t *)pcontext;
 284:C:/Users/stapi/OneDrive/Desktop/GD32VW553/V1_MQTT_OK/GD32VW55X_Wifi_BLE_SDK/GD32VW55x_RELEASE_V1.0.2/MSDK/cloud/alicloud/src/protocol/alcs\alcs_mqtt.c ****     iotx_mqtt_topic_info_pt ptopic_info = (iotx_mqtt_topic_info_pt) msg->msg;
 285:C:/Users/stapi/OneDrive/Desktop/GD32VW553/V1_MQTT_OK/GD32VW55X_Wifi_BLE_SDK/GD32VW55x_RELEASE_V1.0.2/MSDK/cloud/alicloud/src/protocol/alcs\alcs_mqtt.c **** 
 286:C:/Users/stapi/OneDrive/Desktop/GD32VW553/V1_MQTT_OK/GD32VW55X_Wifi_BLE_SDK/GD32VW55x_RELEASE_V1.0.2/MSDK/cloud/alicloud/src/protocol/alcs\alcs_mqtt.c ****     switch (msg->event_type) {
 287:C:/Users/stapi/OneDrive/Desktop/GD32VW553/V1_MQTT_OK/GD32VW55X_Wifi_BLE_SDK/GD32VW55x_RELEASE_V1.0.2/MSDK/cloud/alicloud/src/protocol/alcs\alcs_mqtt.c ****         case IOTX_MQTT_EVENT_SUBCRIBE_SUCCESS:
 288:C:/Users/stapi/OneDrive/Desktop/GD32VW553/V1_MQTT_OK/GD32VW55X_Wifi_BLE_SDK/GD32VW55x_RELEASE_V1.0.2/MSDK/cloud/alicloud/src/protocol/alcs\alcs_mqtt.c ****             return;
 289:C:/Users/stapi/OneDrive/Desktop/GD32VW553/V1_MQTT_OK/GD32VW55X_Wifi_BLE_SDK/GD32VW55x_RELEASE_V1.0.2/MSDK/cloud/alicloud/src/protocol/alcs\alcs_mqtt.c ****         case IOTX_MQTT_EVENT_SUBCRIBE_TIMEOUT:
 290:C:/Users/stapi/OneDrive/Desktop/GD32VW553/V1_MQTT_OK/GD32VW55X_Wifi_BLE_SDK/GD32VW55x_RELEASE_V1.0.2/MSDK/cloud/alicloud/src/protocol/alcs\alcs_mqtt.c ****             return;
 291:C:/Users/stapi/OneDrive/Desktop/GD32VW553/V1_MQTT_OK/GD32VW55X_Wifi_BLE_SDK/GD32VW55x_RELEASE_V1.0.2/MSDK/cloud/alicloud/src/protocol/alcs\alcs_mqtt.c ****         case IOTX_MQTT_EVENT_SUBCRIBE_NACK:
 292:C:/Users/stapi/OneDrive/Desktop/GD32VW553/V1_MQTT_OK/GD32VW55X_Wifi_BLE_SDK/GD32VW55x_RELEASE_V1.0.2/MSDK/cloud/alicloud/src/protocol/alcs\alcs_mqtt.c ****             return;
 293:C:/Users/stapi/OneDrive/Desktop/GD32VW553/V1_MQTT_OK/GD32VW55X_Wifi_BLE_SDK/GD32VW55x_RELEASE_V1.0.2/MSDK/cloud/alicloud/src/protocol/alcs\alcs_mqtt.c ****         case IOTX_MQTT_EVENT_PUBLISH_RECEIVED:
 294:C:/Users/stapi/OneDrive/Desktop/GD32VW553/V1_MQTT_OK/GD32VW55X_Wifi_BLE_SDK/GD32VW55x_RELEASE_V1.0.2/MSDK/cloud/alicloud/src/protocol/alcs\alcs_mqtt.c ****             topic = (char *)ptopic_info->ptopic;
 295:C:/Users/stapi/OneDrive/Desktop/GD32VW553/V1_MQTT_OK/GD32VW55X_Wifi_BLE_SDK/GD32VW55x_RELEASE_V1.0.2/MSDK/cloud/alicloud/src/protocol/alcs\alcs_mqtt.c ****             topic_len = ptopic_info->topic_len;
 296:C:/Users/stapi/OneDrive/Desktop/GD32VW553/V1_MQTT_OK/GD32VW55X_Wifi_BLE_SDK/GD32VW55x_RELEASE_V1.0.2/MSDK/cloud/alicloud/src/protocol/alcs\alcs_mqtt.c ****             payload = (char *)ptopic_info->payload;
 297:C:/Users/stapi/OneDrive/Desktop/GD32VW553/V1_MQTT_OK/GD32VW55X_Wifi_BLE_SDK/GD32VW55x_RELEASE_V1.0.2/MSDK/cloud/alicloud/src/protocol/alcs\alcs_mqtt.c ****             payload_len = ptopic_info->payload_len;
 298:C:/Users/stapi/OneDrive/Desktop/GD32VW553/V1_MQTT_OK/GD32VW55X_Wifi_BLE_SDK/GD32VW55x_RELEASE_V1.0.2/MSDK/cloud/alicloud/src/protocol/alcs\alcs_mqtt.c ****             break;
 299:C:/Users/stapi/OneDrive/Desktop/GD32VW553/V1_MQTT_OK/GD32VW55X_Wifi_BLE_SDK/GD32VW55x_RELEASE_V1.0.2/MSDK/cloud/alicloud/src/protocol/alcs\alcs_mqtt.c ****         default:
 300:C:/Users/stapi/OneDrive/Desktop/GD32VW553/V1_MQTT_OK/GD32VW55X_Wifi_BLE_SDK/GD32VW55x_RELEASE_V1.0.2/MSDK/cloud/alicloud/src/protocol/alcs\alcs_mqtt.c ****             return;
 301:C:/Users/stapi/OneDrive/Desktop/GD32VW553/V1_MQTT_OK/GD32VW55X_Wifi_BLE_SDK/GD32VW55x_RELEASE_V1.0.2/MSDK/cloud/alicloud/src/protocol/alcs\alcs_mqtt.c ****     }
 302:C:/Users/stapi/OneDrive/Desktop/GD32VW553/V1_MQTT_OK/GD32VW55X_Wifi_BLE_SDK/GD32VW55x_RELEASE_V1.0.2/MSDK/cloud/alicloud/src/protocol/alcs\alcs_mqtt.c **** 
 303:C:/Users/stapi/OneDrive/Desktop/GD32VW553/V1_MQTT_OK/GD32VW55X_Wifi_BLE_SDK/GD32VW55x_RELEASE_V1.0.2/MSDK/cloud/alicloud/src/protocol/alcs\alcs_mqtt.c ****     if (topic == NULL || payload == NULL || topic_len == 0 || payload_len == 0) {
 304:C:/Users/stapi/OneDrive/Desktop/GD32VW553/V1_MQTT_OK/GD32VW55X_Wifi_BLE_SDK/GD32VW55x_RELEASE_V1.0.2/MSDK/cloud/alicloud/src/protocol/alcs\alcs_mqtt.c ****         return;
 305:C:/Users/stapi/OneDrive/Desktop/GD32VW553/V1_MQTT_OK/GD32VW55X_Wifi_BLE_SDK/GD32VW55x_RELEASE_V1.0.2/MSDK/cloud/alicloud/src/protocol/alcs\alcs_mqtt.c ****     }
 306:C:/Users/stapi/OneDrive/Desktop/GD32VW553/V1_MQTT_OK/GD32VW55X_Wifi_BLE_SDK/GD32VW55x_RELEASE_V1.0.2/MSDK/cloud/alicloud/src/protocol/alcs\alcs_mqtt.c **** 
 307:C:/Users/stapi/OneDrive/Desktop/GD32VW553/V1_MQTT_OK/GD32VW55X_Wifi_BLE_SDK/GD32VW55x_RELEASE_V1.0.2/MSDK/cloud/alicloud/src/protocol/alcs\alcs_mqtt.c ****     memset(topic_compare, 0, ALCS_MQTT_TOPIC_MAX_LEN);
 308:C:/Users/stapi/OneDrive/Desktop/GD32VW553/V1_MQTT_OK/GD32VW55X_Wifi_BLE_SDK/GD32VW55x_RELEASE_V1.0.2/MSDK/cloud/alicloud/src/protocol/alcs\alcs_mqtt.c ****     snprintf(topic_compare, ALCS_MQTT_TOPIC_MAX_LEN, ALCS_MQTT_PREFIX ALCS_MQTT_THING_LAN_PREFIX_GE
 309:C:/Users/stapi/OneDrive/Desktop/GD32VW553/V1_MQTT_OK/GD32VW55X_Wifi_BLE_SDK/GD32VW55x_RELEASE_V1.0.2/MSDK/cloud/alicloud/src/protocol/alcs\alcs_mqtt.c ****              alcs_mqtt_ctx->product_key, alcs_mqtt_ctx->device_name);
 310:C:/Users/stapi/OneDrive/Desktop/GD32VW553/V1_MQTT_OK/GD32VW55X_Wifi_BLE_SDK/GD32VW55x_RELEASE_V1.0.2/MSDK/cloud/alicloud/src/protocol/alcs\alcs_mqtt.c **** 
 311:C:/Users/stapi/OneDrive/Desktop/GD32VW553/V1_MQTT_OK/GD32VW55X_Wifi_BLE_SDK/GD32VW55x_RELEASE_V1.0.2/MSDK/cloud/alicloud/src/protocol/alcs\alcs_mqtt.c ****     COAP_INFO("Receivce Message, Topic: %.*s\n", topic_len, topic);
 312:C:/Users/stapi/OneDrive/Desktop/GD32VW553/V1_MQTT_OK/GD32VW55X_Wifi_BLE_SDK/GD32VW55x_RELEASE_V1.0.2/MSDK/cloud/alicloud/src/protocol/alcs\alcs_mqtt.c ****     /* COAP_INFO("Receivce Message, Payload: %.*s\n", payload_len, payload); */
 313:C:/Users/stapi/OneDrive/Desktop/GD32VW553/V1_MQTT_OK/GD32VW55X_Wifi_BLE_SDK/GD32VW55x_RELEASE_V1.0.2/MSDK/cloud/alicloud/src/protocol/alcs\alcs_mqtt.c **** 
 314:C:/Users/stapi/OneDrive/Desktop/GD32VW553/V1_MQTT_OK/GD32VW55X_Wifi_BLE_SDK/GD32VW55x_RELEASE_V1.0.2/MSDK/cloud/alicloud/src/protocol/alcs\alcs_mqtt.c ****     if ((strlen(topic_compare) == topic_len) && (strncmp(topic_compare, topic, topic_len) == 0)) {
 315:C:/Users/stapi/OneDrive/Desktop/GD32VW553/V1_MQTT_OK/GD32VW55X_Wifi_BLE_SDK/GD32VW55x_RELEASE_V1.0.2/MSDK/cloud/alicloud/src/protocol/alcs\alcs_mqtt.c ****         int data_len = 0, prefix_len = 0, secret_len = 0, productKey_len = 0, deviceName_len = 0;
 316:C:/Users/stapi/OneDrive/Desktop/GD32VW553/V1_MQTT_OK/GD32VW55X_Wifi_BLE_SDK/GD32VW55x_RELEASE_V1.0.2/MSDK/cloud/alicloud/src/protocol/alcs\alcs_mqtt.c ****         char *data = NULL, *prefix = NULL, *secret = NULL, *productKey = NULL, *deviceName = NULL;
 317:C:/Users/stapi/OneDrive/Desktop/GD32VW553/V1_MQTT_OK/GD32VW55X_Wifi_BLE_SDK/GD32VW55x_RELEASE_V1.0.2/MSDK/cloud/alicloud/src/protocol/alcs\alcs_mqtt.c ****         data = json_get_value_by_name((char *)payload, payload_len, "data", &data_len, NULL);
 318:C:/Users/stapi/OneDrive/Desktop/GD32VW553/V1_MQTT_OK/GD32VW55X_Wifi_BLE_SDK/GD32VW55x_RELEASE_V1.0.2/MSDK/cloud/alicloud/src/protocol/alcs\alcs_mqtt.c ****         /* COAP_INFO("Data: %.*s\n", data_len, data); */
 319:C:/Users/stapi/OneDrive/Desktop/GD32VW553/V1_MQTT_OK/GD32VW55X_Wifi_BLE_SDK/GD32VW55x_RELEASE_V1.0.2/MSDK/cloud/alicloud/src/protocol/alcs\alcs_mqtt.c **** 
 320:C:/Users/stapi/OneDrive/Desktop/GD32VW553/V1_MQTT_OK/GD32VW55X_Wifi_BLE_SDK/GD32VW55x_RELEASE_V1.0.2/MSDK/cloud/alicloud/src/protocol/alcs\alcs_mqtt.c ****         if (NULL != data && 0 != data_len) {
 321:C:/Users/stapi/OneDrive/Desktop/GD32VW553/V1_MQTT_OK/GD32VW55X_Wifi_BLE_SDK/GD32VW55x_RELEASE_V1.0.2/MSDK/cloud/alicloud/src/protocol/alcs\alcs_mqtt.c ****             char back1, back2;
 322:C:/Users/stapi/OneDrive/Desktop/GD32VW553/V1_MQTT_OK/GD32VW55X_Wifi_BLE_SDK/GD32VW55x_RELEASE_V1.0.2/MSDK/cloud/alicloud/src/protocol/alcs\alcs_mqtt.c ****             prefix = json_get_value_by_name(data, data_len, ALCS_MQTT_JSON_KEY_PREFIX, &prefix_len,
 323:C:/Users/stapi/OneDrive/Desktop/GD32VW553/V1_MQTT_OK/GD32VW55X_Wifi_BLE_SDK/GD32VW55x_RELEASE_V1.0.2/MSDK/cloud/alicloud/src/protocol/alcs\alcs_mqtt.c ****             secret = json_get_value_by_name(data, data_len, ALCS_MQTT_JSON_KEY_SECRET, &secret_len,
 324:C:/Users/stapi/OneDrive/Desktop/GD32VW553/V1_MQTT_OK/GD32VW55X_Wifi_BLE_SDK/GD32VW55x_RELEASE_V1.0.2/MSDK/cloud/alicloud/src/protocol/alcs\alcs_mqtt.c ****             productKey = json_get_value_by_name(data, data_len, ALCS_MQTT_JSON_KEY_PRODUCT_KEY, &pr
 325:C:/Users/stapi/OneDrive/Desktop/GD32VW553/V1_MQTT_OK/GD32VW55X_Wifi_BLE_SDK/GD32VW55x_RELEASE_V1.0.2/MSDK/cloud/alicloud/src/protocol/alcs\alcs_mqtt.c ****             deviceName = json_get_value_by_name(data, data_len, ALCS_MQTT_JSON_KEY_DEVICE_NAME, &de
 326:C:/Users/stapi/OneDrive/Desktop/GD32VW553/V1_MQTT_OK/GD32VW55X_Wifi_BLE_SDK/GD32VW55x_RELEASE_V1.0.2/MSDK/cloud/alicloud/src/protocol/alcs\alcs_mqtt.c **** 
 327:C:/Users/stapi/OneDrive/Desktop/GD32VW553/V1_MQTT_OK/GD32VW55X_Wifi_BLE_SDK/GD32VW55x_RELEASE_V1.0.2/MSDK/cloud/alicloud/src/protocol/alcs\alcs_mqtt.c ****             COAP_INFO("Get Reply, Product Key: %.*s, Device Name: %.*s, PrefixKey: %.*s\n", product
 328:C:/Users/stapi/OneDrive/Desktop/GD32VW553/V1_MQTT_OK/GD32VW55X_Wifi_BLE_SDK/GD32VW55x_RELEASE_V1.0.2/MSDK/cloud/alicloud/src/protocol/alcs\alcs_mqtt.c **** 
 329:C:/Users/stapi/OneDrive/Desktop/GD32VW553/V1_MQTT_OK/GD32VW55X_Wifi_BLE_SDK/GD32VW55x_RELEASE_V1.0.2/MSDK/cloud/alicloud/src/protocol/alcs\alcs_mqtt.c ****             if (NULL != alcs_mqtt_ctx->coap_ctx && prefix && secret) {
 330:C:/Users/stapi/OneDrive/Desktop/GD32VW553/V1_MQTT_OK/GD32VW55X_Wifi_BLE_SDK/GD32VW55x_RELEASE_V1.0.2/MSDK/cloud/alicloud/src/protocol/alcs\alcs_mqtt.c ****                 back1 = prefix[prefix_len];
 331:C:/Users/stapi/OneDrive/Desktop/GD32VW553/V1_MQTT_OK/GD32VW55X_Wifi_BLE_SDK/GD32VW55x_RELEASE_V1.0.2/MSDK/cloud/alicloud/src/protocol/alcs\alcs_mqtt.c ****                 prefix[prefix_len] = 0;
 332:C:/Users/stapi/OneDrive/Desktop/GD32VW553/V1_MQTT_OK/GD32VW55X_Wifi_BLE_SDK/GD32VW55x_RELEASE_V1.0.2/MSDK/cloud/alicloud/src/protocol/alcs\alcs_mqtt.c ****                 back2 = secret[secret_len];
 333:C:/Users/stapi/OneDrive/Desktop/GD32VW553/V1_MQTT_OK/GD32VW55X_Wifi_BLE_SDK/GD32VW55x_RELEASE_V1.0.2/MSDK/cloud/alicloud/src/protocol/alcs\alcs_mqtt.c ****                 secret[secret_len] = 0;
 334:C:/Users/stapi/OneDrive/Desktop/GD32VW553/V1_MQTT_OK/GD32VW55X_Wifi_BLE_SDK/GD32VW55x_RELEASE_V1.0.2/MSDK/cloud/alicloud/src/protocol/alcs\alcs_mqtt.c ****                 alcs_add_svr_key(alcs_mqtt_ctx->coap_ctx, prefix, secret, FROMCLOUDSVR);
 335:C:/Users/stapi/OneDrive/Desktop/GD32VW553/V1_MQTT_OK/GD32VW55X_Wifi_BLE_SDK/GD32VW55x_RELEASE_V1.0.2/MSDK/cloud/alicloud/src/protocol/alcs\alcs_mqtt.c ****                 prefix[prefix_len] = back1;
 336:C:/Users/stapi/OneDrive/Desktop/GD32VW553/V1_MQTT_OK/GD32VW55X_Wifi_BLE_SDK/GD32VW55x_RELEASE_V1.0.2/MSDK/cloud/alicloud/src/protocol/alcs\alcs_mqtt.c ****                 secret[secret_len] = back2;
 337:C:/Users/stapi/OneDrive/Desktop/GD32VW553/V1_MQTT_OK/GD32VW55X_Wifi_BLE_SDK/GD32VW55x_RELEASE_V1.0.2/MSDK/cloud/alicloud/src/protocol/alcs\alcs_mqtt.c ****                 b_prefixkey = 1;
 338:C:/Users/stapi/OneDrive/Desktop/GD32VW553/V1_MQTT_OK/GD32VW55X_Wifi_BLE_SDK/GD32VW55x_RELEASE_V1.0.2/MSDK/cloud/alicloud/src/protocol/alcs\alcs_mqtt.c **** 
 339:C:/Users/stapi/OneDrive/Desktop/GD32VW553/V1_MQTT_OK/GD32VW55X_Wifi_BLE_SDK/GD32VW55x_RELEASE_V1.0.2/MSDK/cloud/alicloud/src/protocol/alcs\alcs_mqtt.c **** #ifdef DEVICE_MODEL_GATEWAY 
 340:C:/Users/stapi/OneDrive/Desktop/GD32VW553/V1_MQTT_OK/GD32VW55X_Wifi_BLE_SDK/GD32VW55x_RELEASE_V1.0.2/MSDK/cloud/alicloud/src/protocol/alcs\alcs_mqtt.c ****                 if (productKey && deviceName) {
 341:C:/Users/stapi/OneDrive/Desktop/GD32VW553/V1_MQTT_OK/GD32VW55X_Wifi_BLE_SDK/GD32VW55x_RELEASE_V1.0.2/MSDK/cloud/alicloud/src/protocol/alcs\alcs_mqtt.c ****                     if (__alcs_mqtt_prefix_secret_save(productKey, productKey_len, deviceName, devi
 342:C:/Users/stapi/OneDrive/Desktop/GD32VW553/V1_MQTT_OK/GD32VW55X_Wifi_BLE_SDK/GD32VW55x_RELEASE_V1.0.2/MSDK/cloud/alicloud/src/protocol/alcs\alcs_mqtt.c ****                                                        secret_len) == ALCS_MQTT_STATUS_SUCCESS) {
 343:C:/Users/stapi/OneDrive/Desktop/GD32VW553/V1_MQTT_OK/GD32VW55X_Wifi_BLE_SDK/GD32VW55x_RELEASE_V1.0.2/MSDK/cloud/alicloud/src/protocol/alcs\alcs_mqtt.c ****                         iotx_alcs_subdev_item_t subdev_item;
 344:C:/Users/stapi/OneDrive/Desktop/GD32VW553/V1_MQTT_OK/GD32VW55X_Wifi_BLE_SDK/GD32VW55x_RELEASE_V1.0.2/MSDK/cloud/alicloud/src/protocol/alcs\alcs_mqtt.c ****                         memset(&subdev_item, 0, sizeof(iotx_alcs_subdev_item_t));
 345:C:/Users/stapi/OneDrive/Desktop/GD32VW553/V1_MQTT_OK/GD32VW55X_Wifi_BLE_SDK/GD32VW55x_RELEASE_V1.0.2/MSDK/cloud/alicloud/src/protocol/alcs\alcs_mqtt.c **** 
 346:C:/Users/stapi/OneDrive/Desktop/GD32VW553/V1_MQTT_OK/GD32VW55X_Wifi_BLE_SDK/GD32VW55x_RELEASE_V1.0.2/MSDK/cloud/alicloud/src/protocol/alcs\alcs_mqtt.c ****                         memcpy(subdev_item.product_key, productKey, productKey_len);
 347:C:/Users/stapi/OneDrive/Desktop/GD32VW553/V1_MQTT_OK/GD32VW55X_Wifi_BLE_SDK/GD32VW55x_RELEASE_V1.0.2/MSDK/cloud/alicloud/src/protocol/alcs\alcs_mqtt.c ****                         memcpy(subdev_item.device_name, deviceName, deviceName_len);
 348:C:/Users/stapi/OneDrive/Desktop/GD32VW553/V1_MQTT_OK/GD32VW55X_Wifi_BLE_SDK/GD32VW55x_RELEASE_V1.0.2/MSDK/cloud/alicloud/src/protocol/alcs\alcs_mqtt.c ****                         subdev_item.stage = IOTX_ALCS_SUBDEV_CONNECT_CLOUD;
 349:C:/Users/stapi/OneDrive/Desktop/GD32VW553/V1_MQTT_OK/GD32VW55X_Wifi_BLE_SDK/GD32VW55x_RELEASE_V1.0.2/MSDK/cloud/alicloud/src/protocol/alcs\alcs_mqtt.c **** 
 350:C:/Users/stapi/OneDrive/Desktop/GD32VW553/V1_MQTT_OK/GD32VW55X_Wifi_BLE_SDK/GD32VW55x_RELEASE_V1.0.2/MSDK/cloud/alicloud/src/protocol/alcs\alcs_mqtt.c ****                         iotx_alcs_subdev_update_stage(&subdev_item);
 351:C:/Users/stapi/OneDrive/Desktop/GD32VW553/V1_MQTT_OK/GD32VW55X_Wifi_BLE_SDK/GD32VW55x_RELEASE_V1.0.2/MSDK/cloud/alicloud/src/protocol/alcs\alcs_mqtt.c ****                     }
 352:C:/Users/stapi/OneDrive/Desktop/GD32VW553/V1_MQTT_OK/GD32VW55X_Wifi_BLE_SDK/GD32VW55x_RELEASE_V1.0.2/MSDK/cloud/alicloud/src/protocol/alcs\alcs_mqtt.c ****                 } else {
 353:C:/Users/stapi/OneDrive/Desktop/GD32VW553/V1_MQTT_OK/GD32VW55X_Wifi_BLE_SDK/GD32VW55x_RELEASE_V1.0.2/MSDK/cloud/alicloud/src/protocol/alcs\alcs_mqtt.c ****                     iotx_alcs_subdev_remove(alcs_mqtt_ctx->product_key, alcs_mqtt_ctx->device_name)
 354:C:/Users/stapi/OneDrive/Desktop/GD32VW553/V1_MQTT_OK/GD32VW55X_Wifi_BLE_SDK/GD32VW55x_RELEASE_V1.0.2/MSDK/cloud/alicloud/src/protocol/alcs\alcs_mqtt.c ****                     if (ALCS_MQTT_STATUS_SUCCESS != __alcs_mqtt_kv_set(ALCS_MQTT_JSON_KEY_PREFIX, p
 355:C:/Users/stapi/OneDrive/Desktop/GD32VW553/V1_MQTT_OK/GD32VW55X_Wifi_BLE_SDK/GD32VW55x_RELEASE_V1.0.2/MSDK/cloud/alicloud/src/protocol/alcs\alcs_mqtt.c ****                         COAP_ERR("ALCS KV Set Prefix Fail");
 356:C:/Users/stapi/OneDrive/Desktop/GD32VW553/V1_MQTT_OK/GD32VW55X_Wifi_BLE_SDK/GD32VW55x_RELEASE_V1.0.2/MSDK/cloud/alicloud/src/protocol/alcs\alcs_mqtt.c ****                     }
 357:C:/Users/stapi/OneDrive/Desktop/GD32VW553/V1_MQTT_OK/GD32VW55X_Wifi_BLE_SDK/GD32VW55x_RELEASE_V1.0.2/MSDK/cloud/alicloud/src/protocol/alcs\alcs_mqtt.c ****                     if (ALCS_MQTT_STATUS_SUCCESS != __alcs_mqtt_kv_set(ALCS_MQTT_JSON_KEY_SECRET, s
 358:C:/Users/stapi/OneDrive/Desktop/GD32VW553/V1_MQTT_OK/GD32VW55X_Wifi_BLE_SDK/GD32VW55x_RELEASE_V1.0.2/MSDK/cloud/alicloud/src/protocol/alcs\alcs_mqtt.c ****                         COAP_ERR("ALCS KV Set Secret Fail");
 359:C:/Users/stapi/OneDrive/Desktop/GD32VW553/V1_MQTT_OK/GD32VW55X_Wifi_BLE_SDK/GD32VW55x_RELEASE_V1.0.2/MSDK/cloud/alicloud/src/protocol/alcs\alcs_mqtt.c ****                     }
 360:C:/Users/stapi/OneDrive/Desktop/GD32VW553/V1_MQTT_OK/GD32VW55X_Wifi_BLE_SDK/GD32VW55x_RELEASE_V1.0.2/MSDK/cloud/alicloud/src/protocol/alcs\alcs_mqtt.c ****                 }
 361:C:/Users/stapi/OneDrive/Desktop/GD32VW553/V1_MQTT_OK/GD32VW55X_Wifi_BLE_SDK/GD32VW55x_RELEASE_V1.0.2/MSDK/cloud/alicloud/src/protocol/alcs\alcs_mqtt.c **** #else
 362:C:/Users/stapi/OneDrive/Desktop/GD32VW553/V1_MQTT_OK/GD32VW55X_Wifi_BLE_SDK/GD32VW55x_RELEASE_V1.0.2/MSDK/cloud/alicloud/src/protocol/alcs\alcs_mqtt.c ****                 __alcs_mqtt_prefix_secret_save(productKey, productKey_len, deviceName, deviceName_l
 363:C:/Users/stapi/OneDrive/Desktop/GD32VW553/V1_MQTT_OK/GD32VW55X_Wifi_BLE_SDK/GD32VW55x_RELEASE_V1.0.2/MSDK/cloud/alicloud/src/protocol/alcs\alcs_mqtt.c **** #endif
 364:C:/Users/stapi/OneDrive/Desktop/GD32VW553/V1_MQTT_OK/GD32VW55X_Wifi_BLE_SDK/GD32VW55x_RELEASE_V1.0.2/MSDK/cloud/alicloud/src/protocol/alcs\alcs_mqtt.c ****             }
 365:C:/Users/stapi/OneDrive/Desktop/GD32VW553/V1_MQTT_OK/GD32VW55X_Wifi_BLE_SDK/GD32VW55x_RELEASE_V1.0.2/MSDK/cloud/alicloud/src/protocol/alcs\alcs_mqtt.c ****         } else {
 366:C:/Users/stapi/OneDrive/Desktop/GD32VW553/V1_MQTT_OK/GD32VW55X_Wifi_BLE_SDK/GD32VW55x_RELEASE_V1.0.2/MSDK/cloud/alicloud/src/protocol/alcs\alcs_mqtt.c ****             if (ALCS_MQTT_STATUS_SUCCESS == __alcs_mqtt_kv_get(ALCS_MQTT_JSON_KEY_PREFIX, prefix, &
 367:C:/Users/stapi/OneDrive/Desktop/GD32VW553/V1_MQTT_OK/GD32VW55X_Wifi_BLE_SDK/GD32VW55x_RELEASE_V1.0.2/MSDK/cloud/alicloud/src/protocol/alcs\alcs_mqtt.c ****                 ALCS_MQTT_STATUS_SUCCESS == __alcs_mqtt_kv_get(ALCS_MQTT_JSON_KEY_SECRET, secret, &
 368:C:/Users/stapi/OneDrive/Desktop/GD32VW553/V1_MQTT_OK/GD32VW55X_Wifi_BLE_SDK/GD32VW55x_RELEASE_V1.0.2/MSDK/cloud/alicloud/src/protocol/alcs\alcs_mqtt.c ****                 if (NULL != alcs_mqtt_ctx->coap_ctx && prefix_len && secret_len) {
 369:C:/Users/stapi/OneDrive/Desktop/GD32VW553/V1_MQTT_OK/GD32VW55X_Wifi_BLE_SDK/GD32VW55x_RELEASE_V1.0.2/MSDK/cloud/alicloud/src/protocol/alcs\alcs_mqtt.c ****                     alcs_add_svr_key(alcs_mqtt_ctx->coap_ctx, prefix, secret, FROMCLOUDSVR);
 370:C:/Users/stapi/OneDrive/Desktop/GD32VW553/V1_MQTT_OK/GD32VW55X_Wifi_BLE_SDK/GD32VW55x_RELEASE_V1.0.2/MSDK/cloud/alicloud/src/protocol/alcs\alcs_mqtt.c ****                 }
 371:C:/Users/stapi/OneDrive/Desktop/GD32VW553/V1_MQTT_OK/GD32VW55X_Wifi_BLE_SDK/GD32VW55x_RELEASE_V1.0.2/MSDK/cloud/alicloud/src/protocol/alcs\alcs_mqtt.c ****             }
 372:C:/Users/stapi/OneDrive/Desktop/GD32VW553/V1_MQTT_OK/GD32VW55X_Wifi_BLE_SDK/GD32VW55x_RELEASE_V1.0.2/MSDK/cloud/alicloud/src/protocol/alcs\alcs_mqtt.c ****         }
 373:C:/Users/stapi/OneDrive/Desktop/GD32VW553/V1_MQTT_OK/GD32VW55X_Wifi_BLE_SDK/GD32VW55x_RELEASE_V1.0.2/MSDK/cloud/alicloud/src/protocol/alcs\alcs_mqtt.c ****         return;
 374:C:/Users/stapi/OneDrive/Desktop/GD32VW553/V1_MQTT_OK/GD32VW55X_Wifi_BLE_SDK/GD32VW55x_RELEASE_V1.0.2/MSDK/cloud/alicloud/src/protocol/alcs\alcs_mqtt.c ****     }
 375:C:/Users/stapi/OneDrive/Desktop/GD32VW553/V1_MQTT_OK/GD32VW55X_Wifi_BLE_SDK/GD32VW55x_RELEASE_V1.0.2/MSDK/cloud/alicloud/src/protocol/alcs\alcs_mqtt.c **** 
 376:C:/Users/stapi/OneDrive/Desktop/GD32VW553/V1_MQTT_OK/GD32VW55X_Wifi_BLE_SDK/GD32VW55x_RELEASE_V1.0.2/MSDK/cloud/alicloud/src/protocol/alcs\alcs_mqtt.c ****     memset(topic_compare, 0, ALCS_MQTT_TOPIC_MAX_LEN);
 377:C:/Users/stapi/OneDrive/Desktop/GD32VW553/V1_MQTT_OK/GD32VW55X_Wifi_BLE_SDK/GD32VW55x_RELEASE_V1.0.2/MSDK/cloud/alicloud/src/protocol/alcs\alcs_mqtt.c ****     snprintf(topic_compare, ALCS_MQTT_TOPIC_MAX_LEN, ALCS_MQTT_PREFIX ALCS_MQTT_THING_LAN_PREFIX_UP
 378:C:/Users/stapi/OneDrive/Desktop/GD32VW553/V1_MQTT_OK/GD32VW55X_Wifi_BLE_SDK/GD32VW55x_RELEASE_V1.0.2/MSDK/cloud/alicloud/src/protocol/alcs\alcs_mqtt.c ****              alcs_mqtt_ctx->product_key, alcs_mqtt_ctx->device_name);
 379:C:/Users/stapi/OneDrive/Desktop/GD32VW553/V1_MQTT_OK/GD32VW55X_Wifi_BLE_SDK/GD32VW55x_RELEASE_V1.0.2/MSDK/cloud/alicloud/src/protocol/alcs\alcs_mqtt.c **** 
 380:C:/Users/stapi/OneDrive/Desktop/GD32VW553/V1_MQTT_OK/GD32VW55X_Wifi_BLE_SDK/GD32VW55x_RELEASE_V1.0.2/MSDK/cloud/alicloud/src/protocol/alcs\alcs_mqtt.c ****     if ((strlen(topic_compare) == topic_len) && (strncmp(topic_compare, topic, topic_len) == 0)) {
 381:C:/Users/stapi/OneDrive/Desktop/GD32VW553/V1_MQTT_OK/GD32VW55X_Wifi_BLE_SDK/GD32VW55x_RELEASE_V1.0.2/MSDK/cloud/alicloud/src/protocol/alcs\alcs_mqtt.c ****         int param_len = 0, prefix_len = 0, id_len = 0;
 382:C:/Users/stapi/OneDrive/Desktop/GD32VW553/V1_MQTT_OK/GD32VW55X_Wifi_BLE_SDK/GD32VW55x_RELEASE_V1.0.2/MSDK/cloud/alicloud/src/protocol/alcs\alcs_mqtt.c ****         char *param = NULL, *prefix = NULL;
 383:C:/Users/stapi/OneDrive/Desktop/GD32VW553/V1_MQTT_OK/GD32VW55X_Wifi_BLE_SDK/GD32VW55x_RELEASE_V1.0.2/MSDK/cloud/alicloud/src/protocol/alcs\alcs_mqtt.c ****         char *id = NULL;
 384:C:/Users/stapi/OneDrive/Desktop/GD32VW553/V1_MQTT_OK/GD32VW55X_Wifi_BLE_SDK/GD32VW55x_RELEASE_V1.0.2/MSDK/cloud/alicloud/src/protocol/alcs\alcs_mqtt.c ****         id = json_get_value_by_name((char *)payload, payload_len, "id", &id_len, NULL);
 385:C:/Users/stapi/OneDrive/Desktop/GD32VW553/V1_MQTT_OK/GD32VW55X_Wifi_BLE_SDK/GD32VW55x_RELEASE_V1.0.2/MSDK/cloud/alicloud/src/protocol/alcs\alcs_mqtt.c **** 
 386:C:/Users/stapi/OneDrive/Desktop/GD32VW553/V1_MQTT_OK/GD32VW55X_Wifi_BLE_SDK/GD32VW55x_RELEASE_V1.0.2/MSDK/cloud/alicloud/src/protocol/alcs\alcs_mqtt.c ****         if (NULL != id && 0 != id_len) {
 387:C:/Users/stapi/OneDrive/Desktop/GD32VW553/V1_MQTT_OK/GD32VW55X_Wifi_BLE_SDK/GD32VW55x_RELEASE_V1.0.2/MSDK/cloud/alicloud/src/protocol/alcs\alcs_mqtt.c ****             strncpy(reqid, id, sizeof(reqid) - 1);
 388:C:/Users/stapi/OneDrive/Desktop/GD32VW553/V1_MQTT_OK/GD32VW55X_Wifi_BLE_SDK/GD32VW55x_RELEASE_V1.0.2/MSDK/cloud/alicloud/src/protocol/alcs\alcs_mqtt.c ****         }
 389:C:/Users/stapi/OneDrive/Desktop/GD32VW553/V1_MQTT_OK/GD32VW55X_Wifi_BLE_SDK/GD32VW55x_RELEASE_V1.0.2/MSDK/cloud/alicloud/src/protocol/alcs\alcs_mqtt.c ****         param = json_get_value_by_name((char *)payload, payload_len, "params", &param_len, NULL);
 390:C:/Users/stapi/OneDrive/Desktop/GD32VW553/V1_MQTT_OK/GD32VW55X_Wifi_BLE_SDK/GD32VW55x_RELEASE_V1.0.2/MSDK/cloud/alicloud/src/protocol/alcs\alcs_mqtt.c ****         if (NULL != param && 0 != param_len) {
 391:C:/Users/stapi/OneDrive/Desktop/GD32VW553/V1_MQTT_OK/GD32VW55X_Wifi_BLE_SDK/GD32VW55x_RELEASE_V1.0.2/MSDK/cloud/alicloud/src/protocol/alcs\alcs_mqtt.c ****             prefix = json_get_value_by_name(param, param_len, ALCS_MQTT_JSON_KEY_PREFIX, &prefix_le
 392:C:/Users/stapi/OneDrive/Desktop/GD32VW553/V1_MQTT_OK/GD32VW55X_Wifi_BLE_SDK/GD32VW55x_RELEASE_V1.0.2/MSDK/cloud/alicloud/src/protocol/alcs\alcs_mqtt.c ****             if (NULL != alcs_mqtt_ctx->coap_ctx && prefix) {
 393:C:/Users/stapi/OneDrive/Desktop/GD32VW553/V1_MQTT_OK/GD32VW55X_Wifi_BLE_SDK/GD32VW55x_RELEASE_V1.0.2/MSDK/cloud/alicloud/src/protocol/alcs\alcs_mqtt.c ****                 char mprefix[ALCS_MQTT_PREFIX_MAX_LEN + 1] = {0};
 394:C:/Users/stapi/OneDrive/Desktop/GD32VW553/V1_MQTT_OK/GD32VW55X_Wifi_BLE_SDK/GD32VW55x_RELEASE_V1.0.2/MSDK/cloud/alicloud/src/protocol/alcs\alcs_mqtt.c ****                 char msecret[ALCS_MQTT_SECRET_MAX_LEN + 1] = {0};
 395:C:/Users/stapi/OneDrive/Desktop/GD32VW553/V1_MQTT_OK/GD32VW55X_Wifi_BLE_SDK/GD32VW55x_RELEASE_V1.0.2/MSDK/cloud/alicloud/src/protocol/alcs\alcs_mqtt.c ****                 char mpk[PRODUCT_KEY_LEN + 1] = {0};
 396:C:/Users/stapi/OneDrive/Desktop/GD32VW553/V1_MQTT_OK/GD32VW55X_Wifi_BLE_SDK/GD32VW55x_RELEASE_V1.0.2/MSDK/cloud/alicloud/src/protocol/alcs\alcs_mqtt.c ****                 char mdn[DEVICE_NAME_LEN + 1] = {0};
 397:C:/Users/stapi/OneDrive/Desktop/GD32VW553/V1_MQTT_OK/GD32VW55X_Wifi_BLE_SDK/GD32VW55x_RELEASE_V1.0.2/MSDK/cloud/alicloud/src/protocol/alcs\alcs_mqtt.c ****                 uint16_t mpk_len = 0, mdn_len = 0;
 398:C:/Users/stapi/OneDrive/Desktop/GD32VW553/V1_MQTT_OK/GD32VW55X_Wifi_BLE_SDK/GD32VW55x_RELEASE_V1.0.2/MSDK/cloud/alicloud/src/protocol/alcs\alcs_mqtt.c ****                 HAL_GetProductKey(mpk);
 399:C:/Users/stapi/OneDrive/Desktop/GD32VW553/V1_MQTT_OK/GD32VW55X_Wifi_BLE_SDK/GD32VW55x_RELEASE_V1.0.2/MSDK/cloud/alicloud/src/protocol/alcs\alcs_mqtt.c ****                 HAL_GetDeviceName(mdn);
 400:C:/Users/stapi/OneDrive/Desktop/GD32VW553/V1_MQTT_OK/GD32VW55X_Wifi_BLE_SDK/GD32VW55x_RELEASE_V1.0.2/MSDK/cloud/alicloud/src/protocol/alcs\alcs_mqtt.c ****                 mpk_len = strlen(mpk);
 401:C:/Users/stapi/OneDrive/Desktop/GD32VW553/V1_MQTT_OK/GD32VW55X_Wifi_BLE_SDK/GD32VW55x_RELEASE_V1.0.2/MSDK/cloud/alicloud/src/protocol/alcs\alcs_mqtt.c ****                 mdn_len = strlen(mdn);
 402:C:/Users/stapi/OneDrive/Desktop/GD32VW553/V1_MQTT_OK/GD32VW55X_Wifi_BLE_SDK/GD32VW55x_RELEASE_V1.0.2/MSDK/cloud/alicloud/src/protocol/alcs\alcs_mqtt.c ****                 if (alcs_mqtt_prefix_secret_load(mpk, mpk_len, mdn, mdn_len, mprefix, msecret) == A
 403:C:/Users/stapi/OneDrive/Desktop/GD32VW553/V1_MQTT_OK/GD32VW55X_Wifi_BLE_SDK/GD32VW55x_RELEASE_V1.0.2/MSDK/cloud/alicloud/src/protocol/alcs\alcs_mqtt.c ****                     char back1 = prefix[prefix_len];
 404:C:/Users/stapi/OneDrive/Desktop/GD32VW553/V1_MQTT_OK/GD32VW55X_Wifi_BLE_SDK/GD32VW55x_RELEASE_V1.0.2/MSDK/cloud/alicloud/src/protocol/alcs\alcs_mqtt.c ****                     prefix[prefix_len] = 0;
 405:C:/Users/stapi/OneDrive/Desktop/GD32VW553/V1_MQTT_OK/GD32VW55X_Wifi_BLE_SDK/GD32VW55x_RELEASE_V1.0.2/MSDK/cloud/alicloud/src/protocol/alcs\alcs_mqtt.c ****                     alcs_add_svr_key(alcs_mqtt_ctx->coap_ctx, prefix, msecret, FROMCLOUDSVR);
 406:C:/Users/stapi/OneDrive/Desktop/GD32VW553/V1_MQTT_OK/GD32VW55X_Wifi_BLE_SDK/GD32VW55x_RELEASE_V1.0.2/MSDK/cloud/alicloud/src/protocol/alcs\alcs_mqtt.c ****                     prefix[prefix_len] = back1;
 407:C:/Users/stapi/OneDrive/Desktop/GD32VW553/V1_MQTT_OK/GD32VW55X_Wifi_BLE_SDK/GD32VW55x_RELEASE_V1.0.2/MSDK/cloud/alicloud/src/protocol/alcs\alcs_mqtt.c ****                     if (__alcs_mqtt_prefix_secret_save(mpk, mpk_len, mdn, mdn_len, prefix, prefix_l
 408:C:/Users/stapi/OneDrive/Desktop/GD32VW553/V1_MQTT_OK/GD32VW55X_Wifi_BLE_SDK/GD32VW55x_RELEASE_V1.0.2/MSDK/cloud/alicloud/src/protocol/alcs\alcs_mqtt.c ****                                                        strlen(msecret)) == ALCS_MQTT_STATUS_SUCCESS
 409:C:/Users/stapi/OneDrive/Desktop/GD32VW553/V1_MQTT_OK/GD32VW55X_Wifi_BLE_SDK/GD32VW55x_RELEASE_V1.0.2/MSDK/cloud/alicloud/src/protocol/alcs\alcs_mqtt.c ****                         COAP_INFO("prefix saved\n");
 410:C:/Users/stapi/OneDrive/Desktop/GD32VW553/V1_MQTT_OK/GD32VW55X_Wifi_BLE_SDK/GD32VW55x_RELEASE_V1.0.2/MSDK/cloud/alicloud/src/protocol/alcs\alcs_mqtt.c ****                     } else {
 411:C:/Users/stapi/OneDrive/Desktop/GD32VW553/V1_MQTT_OK/GD32VW55X_Wifi_BLE_SDK/GD32VW55x_RELEASE_V1.0.2/MSDK/cloud/alicloud/src/protocol/alcs\alcs_mqtt.c ****                         COAP_ERR("prefix save failed\n");
 412:C:/Users/stapi/OneDrive/Desktop/GD32VW553/V1_MQTT_OK/GD32VW55X_Wifi_BLE_SDK/GD32VW55x_RELEASE_V1.0.2/MSDK/cloud/alicloud/src/protocol/alcs\alcs_mqtt.c ****                     }
 413:C:/Users/stapi/OneDrive/Desktop/GD32VW553/V1_MQTT_OK/GD32VW55X_Wifi_BLE_SDK/GD32VW55x_RELEASE_V1.0.2/MSDK/cloud/alicloud/src/protocol/alcs\alcs_mqtt.c ****                 } else {
 414:C:/Users/stapi/OneDrive/Desktop/GD32VW553/V1_MQTT_OK/GD32VW55X_Wifi_BLE_SDK/GD32VW55x_RELEASE_V1.0.2/MSDK/cloud/alicloud/src/protocol/alcs\alcs_mqtt.c ****                     COAP_ERR("update prefix_secret_load failed\n");
 415:C:/Users/stapi/OneDrive/Desktop/GD32VW553/V1_MQTT_OK/GD32VW55X_Wifi_BLE_SDK/GD32VW55x_RELEASE_V1.0.2/MSDK/cloud/alicloud/src/protocol/alcs\alcs_mqtt.c ****                 }      
 416:C:/Users/stapi/OneDrive/Desktop/GD32VW553/V1_MQTT_OK/GD32VW55X_Wifi_BLE_SDK/GD32VW55x_RELEASE_V1.0.2/MSDK/cloud/alicloud/src/protocol/alcs\alcs_mqtt.c ****             } else {
 417:C:/Users/stapi/OneDrive/Desktop/GD32VW553/V1_MQTT_OK/GD32VW55X_Wifi_BLE_SDK/GD32VW55x_RELEASE_V1.0.2/MSDK/cloud/alicloud/src/protocol/alcs\alcs_mqtt.c ****                 COAP_ERR("prefix not found, prefix update failed\n");
 418:C:/Users/stapi/OneDrive/Desktop/GD32VW553/V1_MQTT_OK/GD32VW55X_Wifi_BLE_SDK/GD32VW55x_RELEASE_V1.0.2/MSDK/cloud/alicloud/src/protocol/alcs\alcs_mqtt.c ****             }
 419:C:/Users/stapi/OneDrive/Desktop/GD32VW553/V1_MQTT_OK/GD32VW55X_Wifi_BLE_SDK/GD32VW55x_RELEASE_V1.0.2/MSDK/cloud/alicloud/src/protocol/alcs\alcs_mqtt.c **** 
 420:C:/Users/stapi/OneDrive/Desktop/GD32VW553/V1_MQTT_OK/GD32VW55X_Wifi_BLE_SDK/GD32VW55x_RELEASE_V1.0.2/MSDK/cloud/alicloud/src/protocol/alcs\alcs_mqtt.c ****             char reply_topic[ALCS_MQTT_TOPIC_MAX_LEN] = {0};
 421:C:/Users/stapi/OneDrive/Desktop/GD32VW553/V1_MQTT_OK/GD32VW55X_Wifi_BLE_SDK/GD32VW55x_RELEASE_V1.0.2/MSDK/cloud/alicloud/src/protocol/alcs\alcs_mqtt.c ****             snprintf(reply_topic, ALCS_MQTT_TOPIC_MAX_LEN, ALCS_MQTT_PREFIX ALCS_MQTT_THING_LAN_PRE
 422:C:/Users/stapi/OneDrive/Desktop/GD32VW553/V1_MQTT_OK/GD32VW55X_Wifi_BLE_SDK/GD32VW55x_RELEASE_V1.0.2/MSDK/cloud/alicloud/src/protocol/alcs\alcs_mqtt.c ****                      alcs_mqtt_ctx->product_key, alcs_mqtt_ctx->device_name);
 423:C:/Users/stapi/OneDrive/Desktop/GD32VW553/V1_MQTT_OK/GD32VW55X_Wifi_BLE_SDK/GD32VW55x_RELEASE_V1.0.2/MSDK/cloud/alicloud/src/protocol/alcs\alcs_mqtt.c ****             __alcs_mqtt_send_response(reply_topic, atoi(reqid), 200, NULL);
 424:C:/Users/stapi/OneDrive/Desktop/GD32VW553/V1_MQTT_OK/GD32VW55X_Wifi_BLE_SDK/GD32VW55x_RELEASE_V1.0.2/MSDK/cloud/alicloud/src/protocol/alcs\alcs_mqtt.c ****         }
 425:C:/Users/stapi/OneDrive/Desktop/GD32VW553/V1_MQTT_OK/GD32VW55X_Wifi_BLE_SDK/GD32VW55x_RELEASE_V1.0.2/MSDK/cloud/alicloud/src/protocol/alcs\alcs_mqtt.c ****         return;
 426:C:/Users/stapi/OneDrive/Desktop/GD32VW553/V1_MQTT_OK/GD32VW55X_Wifi_BLE_SDK/GD32VW55x_RELEASE_V1.0.2/MSDK/cloud/alicloud/src/protocol/alcs\alcs_mqtt.c ****     }
 427:C:/Users/stapi/OneDrive/Desktop/GD32VW553/V1_MQTT_OK/GD32VW55X_Wifi_BLE_SDK/GD32VW55x_RELEASE_V1.0.2/MSDK/cloud/alicloud/src/protocol/alcs\alcs_mqtt.c **** 
 428:C:/Users/stapi/OneDrive/Desktop/GD32VW553/V1_MQTT_OK/GD32VW55X_Wifi_BLE_SDK/GD32VW55x_RELEASE_V1.0.2/MSDK/cloud/alicloud/src/protocol/alcs\alcs_mqtt.c ****     memset(topic_compare, 0, ALCS_MQTT_TOPIC_MAX_LEN);
 429:C:/Users/stapi/OneDrive/Desktop/GD32VW553/V1_MQTT_OK/GD32VW55X_Wifi_BLE_SDK/GD32VW55x_RELEASE_V1.0.2/MSDK/cloud/alicloud/src/protocol/alcs\alcs_mqtt.c ****     snprintf(topic_compare, ALCS_MQTT_TOPIC_MAX_LEN, ALCS_MQTT_PREFIX ALCS_MQTT_THING_LAN_PREFIX_BL
 430:C:/Users/stapi/OneDrive/Desktop/GD32VW553/V1_MQTT_OK/GD32VW55X_Wifi_BLE_SDK/GD32VW55x_RELEASE_V1.0.2/MSDK/cloud/alicloud/src/protocol/alcs\alcs_mqtt.c ****              alcs_mqtt_ctx->product_key, alcs_mqtt_ctx->device_name);
 431:C:/Users/stapi/OneDrive/Desktop/GD32VW553/V1_MQTT_OK/GD32VW55X_Wifi_BLE_SDK/GD32VW55x_RELEASE_V1.0.2/MSDK/cloud/alicloud/src/protocol/alcs\alcs_mqtt.c **** 
 432:C:/Users/stapi/OneDrive/Desktop/GD32VW553/V1_MQTT_OK/GD32VW55X_Wifi_BLE_SDK/GD32VW55x_RELEASE_V1.0.2/MSDK/cloud/alicloud/src/protocol/alcs\alcs_mqtt.c ****     if ((strlen(topic_compare) == topic_len) && (strncmp(topic_compare, topic, topic_len) == 0)) {
 433:C:/Users/stapi/OneDrive/Desktop/GD32VW553/V1_MQTT_OK/GD32VW55X_Wifi_BLE_SDK/GD32VW55x_RELEASE_V1.0.2/MSDK/cloud/alicloud/src/protocol/alcs\alcs_mqtt.c ****         int param_len = 0, blacklist_len = 0, id_len = 0;
 434:C:/Users/stapi/OneDrive/Desktop/GD32VW553/V1_MQTT_OK/GD32VW55X_Wifi_BLE_SDK/GD32VW55x_RELEASE_V1.0.2/MSDK/cloud/alicloud/src/protocol/alcs\alcs_mqtt.c ****         char *param = NULL, *blacklist = NULL, *id = NULL;
 435:C:/Users/stapi/OneDrive/Desktop/GD32VW553/V1_MQTT_OK/GD32VW55X_Wifi_BLE_SDK/GD32VW55x_RELEASE_V1.0.2/MSDK/cloud/alicloud/src/protocol/alcs\alcs_mqtt.c ****         id = json_get_value_by_name((char *)payload, payload_len, "id", &id_len, NULL);
 436:C:/Users/stapi/OneDrive/Desktop/GD32VW553/V1_MQTT_OK/GD32VW55X_Wifi_BLE_SDK/GD32VW55x_RELEASE_V1.0.2/MSDK/cloud/alicloud/src/protocol/alcs\alcs_mqtt.c **** 
 437:C:/Users/stapi/OneDrive/Desktop/GD32VW553/V1_MQTT_OK/GD32VW55X_Wifi_BLE_SDK/GD32VW55x_RELEASE_V1.0.2/MSDK/cloud/alicloud/src/protocol/alcs\alcs_mqtt.c ****         if (NULL != id && 0 != id_len) {
 438:C:/Users/stapi/OneDrive/Desktop/GD32VW553/V1_MQTT_OK/GD32VW55X_Wifi_BLE_SDK/GD32VW55x_RELEASE_V1.0.2/MSDK/cloud/alicloud/src/protocol/alcs\alcs_mqtt.c ****             strncpy(reqid, id, sizeof(reqid) - 1);
 439:C:/Users/stapi/OneDrive/Desktop/GD32VW553/V1_MQTT_OK/GD32VW55X_Wifi_BLE_SDK/GD32VW55x_RELEASE_V1.0.2/MSDK/cloud/alicloud/src/protocol/alcs\alcs_mqtt.c ****         }
 440:C:/Users/stapi/OneDrive/Desktop/GD32VW553/V1_MQTT_OK/GD32VW55X_Wifi_BLE_SDK/GD32VW55x_RELEASE_V1.0.2/MSDK/cloud/alicloud/src/protocol/alcs\alcs_mqtt.c ****         param = json_get_value_by_name((char *)payload, payload_len, "params", &param_len, NULL);
 441:C:/Users/stapi/OneDrive/Desktop/GD32VW553/V1_MQTT_OK/GD32VW55X_Wifi_BLE_SDK/GD32VW55x_RELEASE_V1.0.2/MSDK/cloud/alicloud/src/protocol/alcs\alcs_mqtt.c ****         if (NULL != param && 0 != param_len) {
 442:C:/Users/stapi/OneDrive/Desktop/GD32VW553/V1_MQTT_OK/GD32VW55X_Wifi_BLE_SDK/GD32VW55x_RELEASE_V1.0.2/MSDK/cloud/alicloud/src/protocol/alcs\alcs_mqtt.c ****             blacklist = json_get_value_by_name(param, param_len, ALCS_MQTT_JSON_KEY_BLACK, &blackli
 443:C:/Users/stapi/OneDrive/Desktop/GD32VW553/V1_MQTT_OK/GD32VW55X_Wifi_BLE_SDK/GD32VW55x_RELEASE_V1.0.2/MSDK/cloud/alicloud/src/protocol/alcs\alcs_mqtt.c ****             if (NULL != alcs_mqtt_ctx->coap_ctx && blacklist) {
 444:C:/Users/stapi/OneDrive/Desktop/GD32VW553/V1_MQTT_OK/GD32VW55X_Wifi_BLE_SDK/GD32VW55x_RELEASE_V1.0.2/MSDK/cloud/alicloud/src/protocol/alcs\alcs_mqtt.c ****                 alcs_set_revocation(alcs_mqtt_ctx->coap_ctx, blacklist);
 445:C:/Users/stapi/OneDrive/Desktop/GD32VW553/V1_MQTT_OK/GD32VW55X_Wifi_BLE_SDK/GD32VW55x_RELEASE_V1.0.2/MSDK/cloud/alicloud/src/protocol/alcs\alcs_mqtt.c ****                 if (ALCS_MQTT_STATUS_SUCCESS != __alcs_mqtt_kv_set(ALCS_MQTT_JSON_KEY_BLACK, blackl
 446:C:/Users/stapi/OneDrive/Desktop/GD32VW553/V1_MQTT_OK/GD32VW55X_Wifi_BLE_SDK/GD32VW55x_RELEASE_V1.0.2/MSDK/cloud/alicloud/src/protocol/alcs\alcs_mqtt.c ****                     COAP_ERR("aos_kv_set set blacklist fail");
 447:C:/Users/stapi/OneDrive/Desktop/GD32VW553/V1_MQTT_OK/GD32VW55X_Wifi_BLE_SDK/GD32VW55x_RELEASE_V1.0.2/MSDK/cloud/alicloud/src/protocol/alcs\alcs_mqtt.c ****                 }
 448:C:/Users/stapi/OneDrive/Desktop/GD32VW553/V1_MQTT_OK/GD32VW55X_Wifi_BLE_SDK/GD32VW55x_RELEASE_V1.0.2/MSDK/cloud/alicloud/src/protocol/alcs\alcs_mqtt.c ****             }
 449:C:/Users/stapi/OneDrive/Desktop/GD32VW553/V1_MQTT_OK/GD32VW55X_Wifi_BLE_SDK/GD32VW55x_RELEASE_V1.0.2/MSDK/cloud/alicloud/src/protocol/alcs\alcs_mqtt.c **** 
 450:C:/Users/stapi/OneDrive/Desktop/GD32VW553/V1_MQTT_OK/GD32VW55X_Wifi_BLE_SDK/GD32VW55x_RELEASE_V1.0.2/MSDK/cloud/alicloud/src/protocol/alcs\alcs_mqtt.c ****             char reply_topic[ALCS_MQTT_TOPIC_MAX_LEN] = {0};
 451:C:/Users/stapi/OneDrive/Desktop/GD32VW553/V1_MQTT_OK/GD32VW55X_Wifi_BLE_SDK/GD32VW55x_RELEASE_V1.0.2/MSDK/cloud/alicloud/src/protocol/alcs\alcs_mqtt.c ****             snprintf(reply_topic, ALCS_MQTT_TOPIC_MAX_LEN, ALCS_MQTT_PREFIX ALCS_MQTT_THING_LAN_PRE
 452:C:/Users/stapi/OneDrive/Desktop/GD32VW553/V1_MQTT_OK/GD32VW55X_Wifi_BLE_SDK/GD32VW55x_RELEASE_V1.0.2/MSDK/cloud/alicloud/src/protocol/alcs\alcs_mqtt.c ****                      alcs_mqtt_ctx->product_key, alcs_mqtt_ctx->device_name);
 453:C:/Users/stapi/OneDrive/Desktop/GD32VW553/V1_MQTT_OK/GD32VW55X_Wifi_BLE_SDK/GD32VW55x_RELEASE_V1.0.2/MSDK/cloud/alicloud/src/protocol/alcs\alcs_mqtt.c ****             __alcs_mqtt_send_response(reply_topic, atoi(reqid), 200, NULL);
 454:C:/Users/stapi/OneDrive/Desktop/GD32VW553/V1_MQTT_OK/GD32VW55X_Wifi_BLE_SDK/GD32VW55x_RELEASE_V1.0.2/MSDK/cloud/alicloud/src/protocol/alcs\alcs_mqtt.c ****         } else {
 455:C:/Users/stapi/OneDrive/Desktop/GD32VW553/V1_MQTT_OK/GD32VW55X_Wifi_BLE_SDK/GD32VW55x_RELEASE_V1.0.2/MSDK/cloud/alicloud/src/protocol/alcs\alcs_mqtt.c ****             if (ALCS_MQTT_STATUS_SUCCESS == __alcs_mqtt_kv_get(ALCS_MQTT_JSON_KEY_BLACK, blacklist,
 456:C:/Users/stapi/OneDrive/Desktop/GD32VW553/V1_MQTT_OK/GD32VW55X_Wifi_BLE_SDK/GD32VW55x_RELEASE_V1.0.2/MSDK/cloud/alicloud/src/protocol/alcs\alcs_mqtt.c ****                 if (NULL != alcs_mqtt_ctx->coap_ctx) {
 457:C:/Users/stapi/OneDrive/Desktop/GD32VW553/V1_MQTT_OK/GD32VW55X_Wifi_BLE_SDK/GD32VW55x_RELEASE_V1.0.2/MSDK/cloud/alicloud/src/protocol/alcs\alcs_mqtt.c ****                     alcs_set_revocation(alcs_mqtt_ctx->coap_ctx, blacklist);
 458:C:/Users/stapi/OneDrive/Desktop/GD32VW553/V1_MQTT_OK/GD32VW55X_Wifi_BLE_SDK/GD32VW55x_RELEASE_V1.0.2/MSDK/cloud/alicloud/src/protocol/alcs\alcs_mqtt.c ****                 }
 459:C:/Users/stapi/OneDrive/Desktop/GD32VW553/V1_MQTT_OK/GD32VW55X_Wifi_BLE_SDK/GD32VW55x_RELEASE_V1.0.2/MSDK/cloud/alicloud/src/protocol/alcs\alcs_mqtt.c ****             }
 460:C:/Users/stapi/OneDrive/Desktop/GD32VW553/V1_MQTT_OK/GD32VW55X_Wifi_BLE_SDK/GD32VW55x_RELEASE_V1.0.2/MSDK/cloud/alicloud/src/protocol/alcs\alcs_mqtt.c ****         }
 461:C:/Users/stapi/OneDrive/Desktop/GD32VW553/V1_MQTT_OK/GD32VW55X_Wifi_BLE_SDK/GD32VW55x_RELEASE_V1.0.2/MSDK/cloud/alicloud/src/protocol/alcs\alcs_mqtt.c ****         return;
 462:C:/Users/stapi/OneDrive/Desktop/GD32VW553/V1_MQTT_OK/GD32VW55X_Wifi_BLE_SDK/GD32VW55x_RELEASE_V1.0.2/MSDK/cloud/alicloud/src/protocol/alcs\alcs_mqtt.c ****     }
 463:C:/Users/stapi/OneDrive/Desktop/GD32VW553/V1_MQTT_OK/GD32VW55X_Wifi_BLE_SDK/GD32VW55x_RELEASE_V1.0.2/MSDK/cloud/alicloud/src/protocol/alcs\alcs_mqtt.c **** }
 464:C:/Users/stapi/OneDrive/Desktop/GD32VW553/V1_MQTT_OK/GD32VW55X_Wifi_BLE_SDK/GD32VW55x_RELEASE_V1.0.2/MSDK/cloud/alicloud/src/protocol/alcs\alcs_mqtt.c **** 
 465:C:/Users/stapi/OneDrive/Desktop/GD32VW553/V1_MQTT_OK/GD32VW55X_Wifi_BLE_SDK/GD32VW55x_RELEASE_V1.0.2/MSDK/cloud/alicloud/src/protocol/alcs\alcs_mqtt.c **** #ifdef ALCS_GROUP_COMM_ENABLE
 466:C:/Users/stapi/OneDrive/Desktop/GD32VW553/V1_MQTT_OK/GD32VW55X_Wifi_BLE_SDK/GD32VW55x_RELEASE_V1.0.2/MSDK/cloud/alicloud/src/protocol/alcs\alcs_mqtt.c ****     #ifdef DM_UNIFIED_SERVICE_POST
 467:C:/Users/stapi/OneDrive/Desktop/GD32VW553/V1_MQTT_OK/GD32VW55X_Wifi_BLE_SDK/GD32VW55x_RELEASE_V1.0.2/MSDK/cloud/alicloud/src/protocol/alcs\alcs_mqtt.c ****     int iotx_alcs_localgroup_rsp(const char *payload, int payload_len, int msg_from)
 468:C:/Users/stapi/OneDrive/Desktop/GD32VW553/V1_MQTT_OK/GD32VW55X_Wifi_BLE_SDK/GD32VW55x_RELEASE_V1.0.2/MSDK/cloud/alicloud/src/protocol/alcs\alcs_mqtt.c ****     {
 469:C:/Users/stapi/OneDrive/Desktop/GD32VW553/V1_MQTT_OK/GD32VW55X_Wifi_BLE_SDK/GD32VW55x_RELEASE_V1.0.2/MSDK/cloud/alicloud/src/protocol/alcs\alcs_mqtt.c ****         int localgroup_topic = 0;
 470:C:/Users/stapi/OneDrive/Desktop/GD32VW553/V1_MQTT_OK/GD32VW55X_Wifi_BLE_SDK/GD32VW55x_RELEASE_V1.0.2/MSDK/cloud/alicloud/src/protocol/alcs\alcs_mqtt.c ****         int param_len = 0, data_len = 0, groups_len = 0;
 471:C:/Users/stapi/OneDrive/Desktop/GD32VW553/V1_MQTT_OK/GD32VW55X_Wifi_BLE_SDK/GD32VW55x_RELEASE_V1.0.2/MSDK/cloud/alicloud/src/protocol/alcs\alcs_mqtt.c ****         char *param = NULL, *groups = NULL, *data = NULL;
 472:C:/Users/stapi/OneDrive/Desktop/GD32VW553/V1_MQTT_OK/GD32VW55X_Wifi_BLE_SDK/GD32VW55x_RELEASE_V1.0.2/MSDK/cloud/alicloud/src/protocol/alcs\alcs_mqtt.c ****         CoAPContext *coap_ctx = alcs_get_context();
 473:C:/Users/stapi/OneDrive/Desktop/GD32VW553/V1_MQTT_OK/GD32VW55X_Wifi_BLE_SDK/GD32VW55x_RELEASE_V1.0.2/MSDK/cloud/alicloud/src/protocol/alcs\alcs_mqtt.c ****         if (1 == msg_from) { // from post_reply
 474:C:/Users/stapi/OneDrive/Desktop/GD32VW553/V1_MQTT_OK/GD32VW55X_Wifi_BLE_SDK/GD32VW55x_RELEASE_V1.0.2/MSDK/cloud/alicloud/src/protocol/alcs\alcs_mqtt.c ****             param = json_get_value_by_name((char *)payload, payload_len, "serviceResult", &param_le
 475:C:/Users/stapi/OneDrive/Desktop/GD32VW553/V1_MQTT_OK/GD32VW55X_Wifi_BLE_SDK/GD32VW55x_RELEASE_V1.0.2/MSDK/cloud/alicloud/src/protocol/alcs\alcs_mqtt.c ****         }
 476:C:/Users/stapi/OneDrive/Desktop/GD32VW553/V1_MQTT_OK/GD32VW55X_Wifi_BLE_SDK/GD32VW55x_RELEASE_V1.0.2/MSDK/cloud/alicloud/src/protocol/alcs\alcs_mqtt.c ****         else {// from _thing
 477:C:/Users/stapi/OneDrive/Desktop/GD32VW553/V1_MQTT_OK/GD32VW55X_Wifi_BLE_SDK/GD32VW55x_RELEASE_V1.0.2/MSDK/cloud/alicloud/src/protocol/alcs\alcs_mqtt.c ****             param = json_get_value_by_name((char *)payload, payload_len, "value", &param_len, NULL)
 478:C:/Users/stapi/OneDrive/Desktop/GD32VW553/V1_MQTT_OK/GD32VW55X_Wifi_BLE_SDK/GD32VW55x_RELEASE_V1.0.2/MSDK/cloud/alicloud/src/protocol/alcs\alcs_mqtt.c ****         }
 479:C:/Users/stapi/OneDrive/Desktop/GD32VW553/V1_MQTT_OK/GD32VW55X_Wifi_BLE_SDK/GD32VW55x_RELEASE_V1.0.2/MSDK/cloud/alicloud/src/protocol/alcs\alcs_mqtt.c ****         groups = json_get_value_by_name((char *)param, param_len, "groups", &groups_len, NULL);
 480:C:/Users/stapi/OneDrive/Desktop/GD32VW553/V1_MQTT_OK/GD32VW55X_Wifi_BLE_SDK/GD32VW55x_RELEASE_V1.0.2/MSDK/cloud/alicloud/src/protocol/alcs\alcs_mqtt.c ****         if (NULL != groups && 0 != groups_len) {
 481:C:/Users/stapi/OneDrive/Desktop/GD32VW553/V1_MQTT_OK/GD32VW55X_Wifi_BLE_SDK/GD32VW55x_RELEASE_V1.0.2/MSDK/cloud/alicloud/src/protocol/alcs\alcs_mqtt.c ****             int res = 0, index = 0, message_len = 0, devid = 0;
 482:C:/Users/stapi/OneDrive/Desktop/GD32VW553/V1_MQTT_OK/GD32VW55X_Wifi_BLE_SDK/GD32VW55x_RELEASE_V1.0.2/MSDK/cloud/alicloud/src/protocol/alcs\alcs_mqtt.c ****             lite_cjson_t lite, lite_list, lite_item;
 483:C:/Users/stapi/OneDrive/Desktop/GD32VW553/V1_MQTT_OK/GD32VW55X_Wifi_BLE_SDK/GD32VW55x_RELEASE_V1.0.2/MSDK/cloud/alicloud/src/protocol/alcs\alcs_mqtt.c ****             int localgroup_kv_len = ALCS_GROUP_KV_MAXSIZE;    // (8+8+10+30+1)*2   ->gId gAc gAs bl
 484:C:/Users/stapi/OneDrive/Desktop/GD32VW553/V1_MQTT_OK/GD32VW55X_Wifi_BLE_SDK/GD32VW55x_RELEASE_V1.0.2/MSDK/cloud/alicloud/src/protocol/alcs\alcs_mqtt.c ****             char localgroup_kv[ALCS_GROUP_KV_MAXSIZE] = {0}; 
 485:C:/Users/stapi/OneDrive/Desktop/GD32VW553/V1_MQTT_OK/GD32VW55X_Wifi_BLE_SDK/GD32VW55x_RELEASE_V1.0.2/MSDK/cloud/alicloud/src/protocol/alcs\alcs_mqtt.c ****             char localgroup_tmp[ALCS_GROUP_KV_MAXSIZE] = {0}; 
 486:C:/Users/stapi/OneDrive/Desktop/GD32VW553/V1_MQTT_OK/GD32VW55X_Wifi_BLE_SDK/GD32VW55x_RELEASE_V1.0.2/MSDK/cloud/alicloud/src/protocol/alcs\alcs_mqtt.c ****             res = lite_cjson_parse(groups, groups_len, &lite);
 487:C:/Users/stapi/OneDrive/Desktop/GD32VW553/V1_MQTT_OK/GD32VW55X_Wifi_BLE_SDK/GD32VW55x_RELEASE_V1.0.2/MSDK/cloud/alicloud/src/protocol/alcs\alcs_mqtt.c ****             if (res != SUCCESS_RETURN || !lite_cjson_is_array(&lite) || lite.size > ALCS_GROUP_ARRA
 488:C:/Users/stapi/OneDrive/Desktop/GD32VW553/V1_MQTT_OK/GD32VW55X_Wifi_BLE_SDK/GD32VW55x_RELEASE_V1.0.2/MSDK/cloud/alicloud/src/protocol/alcs\alcs_mqtt.c ****                 COAP_ERR("ALCS_LG json err");
 489:C:/Users/stapi/OneDrive/Desktop/GD32VW553/V1_MQTT_OK/GD32VW55X_Wifi_BLE_SDK/GD32VW55x_RELEASE_V1.0.2/MSDK/cloud/alicloud/src/protocol/alcs\alcs_mqtt.c ****                 return -1;
 490:C:/Users/stapi/OneDrive/Desktop/GD32VW553/V1_MQTT_OK/GD32VW55X_Wifi_BLE_SDK/GD32VW55x_RELEASE_V1.0.2/MSDK/cloud/alicloud/src/protocol/alcs\alcs_mqtt.c ****             }
 491:C:/Users/stapi/OneDrive/Desktop/GD32VW553/V1_MQTT_OK/GD32VW55X_Wifi_BLE_SDK/GD32VW55x_RELEASE_V1.0.2/MSDK/cloud/alicloud/src/protocol/alcs\alcs_mqtt.c ****             if (lite.size == 0){
 492:C:/Users/stapi/OneDrive/Desktop/GD32VW553/V1_MQTT_OK/GD32VW55X_Wifi_BLE_SDK/GD32VW55x_RELEASE_V1.0.2/MSDK/cloud/alicloud/src/protocol/alcs\alcs_mqtt.c ****                 __alcs_mqtt_kv_del(lg_kv_key);
 493:C:/Users/stapi/OneDrive/Desktop/GD32VW553/V1_MQTT_OK/GD32VW55X_Wifi_BLE_SDK/GD32VW55x_RELEASE_V1.0.2/MSDK/cloud/alicloud/src/protocol/alcs\alcs_mqtt.c ****                 if (NULL != coap_ctx)
 494:C:/Users/stapi/OneDrive/Desktop/GD32VW553/V1_MQTT_OK/GD32VW55X_Wifi_BLE_SDK/GD32VW55x_RELEASE_V1.0.2/MSDK/cloud/alicloud/src/protocol/alcs\alcs_mqtt.c ****                     alcs_clear_svr_group(coap_ctx);
 495:C:/Users/stapi/OneDrive/Desktop/GD32VW553/V1_MQTT_OK/GD32VW55X_Wifi_BLE_SDK/GD32VW55x_RELEASE_V1.0.2/MSDK/cloud/alicloud/src/protocol/alcs\alcs_mqtt.c ****             } else {
 496:C:/Users/stapi/OneDrive/Desktop/GD32VW553/V1_MQTT_OK/GD32VW55X_Wifi_BLE_SDK/GD32VW55x_RELEASE_V1.0.2/MSDK/cloud/alicloud/src/protocol/alcs\alcs_mqtt.c ****                 for (index = 0; index < lite.size; index++) {
 497:C:/Users/stapi/OneDrive/Desktop/GD32VW553/V1_MQTT_OK/GD32VW55X_Wifi_BLE_SDK/GD32VW55x_RELEASE_V1.0.2/MSDK/cloud/alicloud/src/protocol/alcs\alcs_mqtt.c ****                     memset(&lite_list, 0, sizeof(lite_cjson_t));
 498:C:/Users/stapi/OneDrive/Desktop/GD32VW553/V1_MQTT_OK/GD32VW55X_Wifi_BLE_SDK/GD32VW55x_RELEASE_V1.0.2/MSDK/cloud/alicloud/src/protocol/alcs\alcs_mqtt.c ****                     memset(&lite_item, 0, sizeof(lite_cjson_t));
 499:C:/Users/stapi/OneDrive/Desktop/GD32VW553/V1_MQTT_OK/GD32VW55X_Wifi_BLE_SDK/GD32VW55x_RELEASE_V1.0.2/MSDK/cloud/alicloud/src/protocol/alcs\alcs_mqtt.c ****                     res = lite_cjson_array_item(&lite, index, &lite_list);
 500:C:/Users/stapi/OneDrive/Desktop/GD32VW553/V1_MQTT_OK/GD32VW55X_Wifi_BLE_SDK/GD32VW55x_RELEASE_V1.0.2/MSDK/cloud/alicloud/src/protocol/alcs\alcs_mqtt.c ****                     if (res != SUCCESS_RETURN || !lite_cjson_is_object(&lite_list)) {
 501:C:/Users/stapi/OneDrive/Desktop/GD32VW553/V1_MQTT_OK/GD32VW55X_Wifi_BLE_SDK/GD32VW55x_RELEASE_V1.0.2/MSDK/cloud/alicloud/src/protocol/alcs\alcs_mqtt.c ****                         continue;
 502:C:/Users/stapi/OneDrive/Desktop/GD32VW553/V1_MQTT_OK/GD32VW55X_Wifi_BLE_SDK/GD32VW55x_RELEASE_V1.0.2/MSDK/cloud/alicloud/src/protocol/alcs\alcs_mqtt.c ****                     }
 503:C:/Users/stapi/OneDrive/Desktop/GD32VW553/V1_MQTT_OK/GD32VW55X_Wifi_BLE_SDK/GD32VW55x_RELEASE_V1.0.2/MSDK/cloud/alicloud/src/protocol/alcs\alcs_mqtt.c ****                     res = lite_cjson_object_item(&lite_list, "gId", strlen("gId"), &lite_item);
 504:C:/Users/stapi/OneDrive/Desktop/GD32VW553/V1_MQTT_OK/GD32VW55X_Wifi_BLE_SDK/GD32VW55x_RELEASE_V1.0.2/MSDK/cloud/alicloud/src/protocol/alcs\alcs_mqtt.c ****                     if (res != SUCCESS_RETURN || !lite_cjson_is_string(&lite_item)) {
 505:C:/Users/stapi/OneDrive/Desktop/GD32VW553/V1_MQTT_OK/GD32VW55X_Wifi_BLE_SDK/GD32VW55x_RELEASE_V1.0.2/MSDK/cloud/alicloud/src/protocol/alcs\alcs_mqtt.c ****                         continue;
 506:C:/Users/stapi/OneDrive/Desktop/GD32VW553/V1_MQTT_OK/GD32VW55X_Wifi_BLE_SDK/GD32VW55x_RELEASE_V1.0.2/MSDK/cloud/alicloud/src/protocol/alcs\alcs_mqtt.c ****                     }
 507:C:/Users/stapi/OneDrive/Desktop/GD32VW553/V1_MQTT_OK/GD32VW55X_Wifi_BLE_SDK/GD32VW55x_RELEASE_V1.0.2/MSDK/cloud/alicloud/src/protocol/alcs\alcs_mqtt.c ****                     COAP_INFO("gId: %.*s", lite_item.value_length, lite_item.value);
 508:C:/Users/stapi/OneDrive/Desktop/GD32VW553/V1_MQTT_OK/GD32VW55X_Wifi_BLE_SDK/GD32VW55x_RELEASE_V1.0.2/MSDK/cloud/alicloud/src/protocol/alcs\alcs_mqtt.c ****                     if(lite_item.value_length == ALCS_GROUP_GID_SIZE)
 509:C:/Users/stapi/OneDrive/Desktop/GD32VW553/V1_MQTT_OK/GD32VW55X_Wifi_BLE_SDK/GD32VW55x_RELEASE_V1.0.2/MSDK/cloud/alicloud/src/protocol/alcs\alcs_mqtt.c ****                         strncat(localgroup_tmp, lite_item.value, lite_item.value_length);
 510:C:/Users/stapi/OneDrive/Desktop/GD32VW553/V1_MQTT_OK/GD32VW55X_Wifi_BLE_SDK/GD32VW55x_RELEASE_V1.0.2/MSDK/cloud/alicloud/src/protocol/alcs\alcs_mqtt.c ****                     else 
 511:C:/Users/stapi/OneDrive/Desktop/GD32VW553/V1_MQTT_OK/GD32VW55X_Wifi_BLE_SDK/GD32VW55x_RELEASE_V1.0.2/MSDK/cloud/alicloud/src/protocol/alcs\alcs_mqtt.c ****                         break;
 512:C:/Users/stapi/OneDrive/Desktop/GD32VW553/V1_MQTT_OK/GD32VW55X_Wifi_BLE_SDK/GD32VW55x_RELEASE_V1.0.2/MSDK/cloud/alicloud/src/protocol/alcs\alcs_mqtt.c ****                     memset(&lite_item, 0, sizeof(lite_cjson_t));
 513:C:/Users/stapi/OneDrive/Desktop/GD32VW553/V1_MQTT_OK/GD32VW55X_Wifi_BLE_SDK/GD32VW55x_RELEASE_V1.0.2/MSDK/cloud/alicloud/src/protocol/alcs\alcs_mqtt.c ****                     res = lite_cjson_object_item(&lite_list, "gAc", strlen("gAc"), &lite_item);
 514:C:/Users/stapi/OneDrive/Desktop/GD32VW553/V1_MQTT_OK/GD32VW55X_Wifi_BLE_SDK/GD32VW55x_RELEASE_V1.0.2/MSDK/cloud/alicloud/src/protocol/alcs\alcs_mqtt.c ****                     if (res != SUCCESS_RETURN || !lite_cjson_is_string(&lite_item)) {
 515:C:/Users/stapi/OneDrive/Desktop/GD32VW553/V1_MQTT_OK/GD32VW55X_Wifi_BLE_SDK/GD32VW55x_RELEASE_V1.0.2/MSDK/cloud/alicloud/src/protocol/alcs\alcs_mqtt.c ****                         continue;
 516:C:/Users/stapi/OneDrive/Desktop/GD32VW553/V1_MQTT_OK/GD32VW55X_Wifi_BLE_SDK/GD32VW55x_RELEASE_V1.0.2/MSDK/cloud/alicloud/src/protocol/alcs\alcs_mqtt.c ****                     }
 517:C:/Users/stapi/OneDrive/Desktop/GD32VW553/V1_MQTT_OK/GD32VW55X_Wifi_BLE_SDK/GD32VW55x_RELEASE_V1.0.2/MSDK/cloud/alicloud/src/protocol/alcs\alcs_mqtt.c ****                     COAP_INFO("gAc: %.*s", lite_item.value_length, lite_item.value);
 518:C:/Users/stapi/OneDrive/Desktop/GD32VW553/V1_MQTT_OK/GD32VW55X_Wifi_BLE_SDK/GD32VW55x_RELEASE_V1.0.2/MSDK/cloud/alicloud/src/protocol/alcs\alcs_mqtt.c ****                     if(lite_item.value_length == ALCS_GROUP_GAK_SIZE)
 519:C:/Users/stapi/OneDrive/Desktop/GD32VW553/V1_MQTT_OK/GD32VW55X_Wifi_BLE_SDK/GD32VW55x_RELEASE_V1.0.2/MSDK/cloud/alicloud/src/protocol/alcs\alcs_mqtt.c ****                         strncat(localgroup_tmp, lite_item.value, lite_item.value_length);
 520:C:/Users/stapi/OneDrive/Desktop/GD32VW553/V1_MQTT_OK/GD32VW55X_Wifi_BLE_SDK/GD32VW55x_RELEASE_V1.0.2/MSDK/cloud/alicloud/src/protocol/alcs\alcs_mqtt.c ****                     else 
 521:C:/Users/stapi/OneDrive/Desktop/GD32VW553/V1_MQTT_OK/GD32VW55X_Wifi_BLE_SDK/GD32VW55x_RELEASE_V1.0.2/MSDK/cloud/alicloud/src/protocol/alcs\alcs_mqtt.c ****                         break;
 522:C:/Users/stapi/OneDrive/Desktop/GD32VW553/V1_MQTT_OK/GD32VW55X_Wifi_BLE_SDK/GD32VW55x_RELEASE_V1.0.2/MSDK/cloud/alicloud/src/protocol/alcs\alcs_mqtt.c ****                     memset(&lite_item, 0, sizeof(lite_cjson_t));
 523:C:/Users/stapi/OneDrive/Desktop/GD32VW553/V1_MQTT_OK/GD32VW55X_Wifi_BLE_SDK/GD32VW55x_RELEASE_V1.0.2/MSDK/cloud/alicloud/src/protocol/alcs\alcs_mqtt.c ****                     res = lite_cjson_object_item(&lite_list, "gAs", strlen("gAs"), &lite_item);
 524:C:/Users/stapi/OneDrive/Desktop/GD32VW553/V1_MQTT_OK/GD32VW55X_Wifi_BLE_SDK/GD32VW55x_RELEASE_V1.0.2/MSDK/cloud/alicloud/src/protocol/alcs\alcs_mqtt.c ****                     if (res != SUCCESS_RETURN || !lite_cjson_is_string(&lite_item)) {
 525:C:/Users/stapi/OneDrive/Desktop/GD32VW553/V1_MQTT_OK/GD32VW55X_Wifi_BLE_SDK/GD32VW55x_RELEASE_V1.0.2/MSDK/cloud/alicloud/src/protocol/alcs\alcs_mqtt.c ****                         continue;
 526:C:/Users/stapi/OneDrive/Desktop/GD32VW553/V1_MQTT_OK/GD32VW55X_Wifi_BLE_SDK/GD32VW55x_RELEASE_V1.0.2/MSDK/cloud/alicloud/src/protocol/alcs\alcs_mqtt.c ****                     }
 527:C:/Users/stapi/OneDrive/Desktop/GD32VW553/V1_MQTT_OK/GD32VW55X_Wifi_BLE_SDK/GD32VW55x_RELEASE_V1.0.2/MSDK/cloud/alicloud/src/protocol/alcs\alcs_mqtt.c ****                     COAP_INFO("gAs: %.*s", lite_item.value_length, lite_item.value);
 528:C:/Users/stapi/OneDrive/Desktop/GD32VW553/V1_MQTT_OK/GD32VW55X_Wifi_BLE_SDK/GD32VW55x_RELEASE_V1.0.2/MSDK/cloud/alicloud/src/protocol/alcs\alcs_mqtt.c ****                     if(lite_item.value_length == ALCS_GROUP_GAS_SIZE)
 529:C:/Users/stapi/OneDrive/Desktop/GD32VW553/V1_MQTT_OK/GD32VW55X_Wifi_BLE_SDK/GD32VW55x_RELEASE_V1.0.2/MSDK/cloud/alicloud/src/protocol/alcs\alcs_mqtt.c ****                         strncat(localgroup_tmp, lite_item.value, lite_item.value_length);
 530:C:/Users/stapi/OneDrive/Desktop/GD32VW553/V1_MQTT_OK/GD32VW55X_Wifi_BLE_SDK/GD32VW55x_RELEASE_V1.0.2/MSDK/cloud/alicloud/src/protocol/alcs\alcs_mqtt.c ****                     else 
 531:C:/Users/stapi/OneDrive/Desktop/GD32VW553/V1_MQTT_OK/GD32VW55X_Wifi_BLE_SDK/GD32VW55x_RELEASE_V1.0.2/MSDK/cloud/alicloud/src/protocol/alcs\alcs_mqtt.c ****                         break;
 532:C:/Users/stapi/OneDrive/Desktop/GD32VW553/V1_MQTT_OK/GD32VW55X_Wifi_BLE_SDK/GD32VW55x_RELEASE_V1.0.2/MSDK/cloud/alicloud/src/protocol/alcs\alcs_mqtt.c ****                     memset(&lite_item, 0, sizeof(lite_cjson_t));
 533:C:/Users/stapi/OneDrive/Desktop/GD32VW553/V1_MQTT_OK/GD32VW55X_Wifi_BLE_SDK/GD32VW55x_RELEASE_V1.0.2/MSDK/cloud/alicloud/src/protocol/alcs\alcs_mqtt.c ****                     res = lite_cjson_object_item(&lite_list, "gBlacklist", strlen("gBlacklist"), &l
 534:C:/Users/stapi/OneDrive/Desktop/GD32VW553/V1_MQTT_OK/GD32VW55X_Wifi_BLE_SDK/GD32VW55x_RELEASE_V1.0.2/MSDK/cloud/alicloud/src/protocol/alcs\alcs_mqtt.c ****                     if (res != SUCCESS_RETURN || !lite_cjson_is_string(&lite_item)) {
 535:C:/Users/stapi/OneDrive/Desktop/GD32VW553/V1_MQTT_OK/GD32VW55X_Wifi_BLE_SDK/GD32VW55x_RELEASE_V1.0.2/MSDK/cloud/alicloud/src/protocol/alcs\alcs_mqtt.c ****                         continue;
 536:C:/Users/stapi/OneDrive/Desktop/GD32VW553/V1_MQTT_OK/GD32VW55X_Wifi_BLE_SDK/GD32VW55x_RELEASE_V1.0.2/MSDK/cloud/alicloud/src/protocol/alcs\alcs_mqtt.c ****                     }
 537:C:/Users/stapi/OneDrive/Desktop/GD32VW553/V1_MQTT_OK/GD32VW55X_Wifi_BLE_SDK/GD32VW55x_RELEASE_V1.0.2/MSDK/cloud/alicloud/src/protocol/alcs\alcs_mqtt.c ****                     if(lite_item.value_length > ALCS_GROUP_GBL_MAXSIZE)
 538:C:/Users/stapi/OneDrive/Desktop/GD32VW553/V1_MQTT_OK/GD32VW55X_Wifi_BLE_SDK/GD32VW55x_RELEASE_V1.0.2/MSDK/cloud/alicloud/src/protocol/alcs\alcs_mqtt.c ****                         break;
 539:C:/Users/stapi/OneDrive/Desktop/GD32VW553/V1_MQTT_OK/GD32VW55X_Wifi_BLE_SDK/GD32VW55x_RELEASE_V1.0.2/MSDK/cloud/alicloud/src/protocol/alcs\alcs_mqtt.c ****                         
 540:C:/Users/stapi/OneDrive/Desktop/GD32VW553/V1_MQTT_OK/GD32VW55X_Wifi_BLE_SDK/GD32VW55x_RELEASE_V1.0.2/MSDK/cloud/alicloud/src/protocol/alcs\alcs_mqtt.c ****                     if(lite_item.value_length > 0)
 541:C:/Users/stapi/OneDrive/Desktop/GD32VW553/V1_MQTT_OK/GD32VW55X_Wifi_BLE_SDK/GD32VW55x_RELEASE_V1.0.2/MSDK/cloud/alicloud/src/protocol/alcs\alcs_mqtt.c ****                         strncat(localgroup_tmp, lite_item.value, lite_item.value_length);
 542:C:/Users/stapi/OneDrive/Desktop/GD32VW553/V1_MQTT_OK/GD32VW55X_Wifi_BLE_SDK/GD32VW55x_RELEASE_V1.0.2/MSDK/cloud/alicloud/src/protocol/alcs\alcs_mqtt.c ****                     if(index < lite.size -1)
 543:C:/Users/stapi/OneDrive/Desktop/GD32VW553/V1_MQTT_OK/GD32VW55X_Wifi_BLE_SDK/GD32VW55x_RELEASE_V1.0.2/MSDK/cloud/alicloud/src/protocol/alcs\alcs_mqtt.c ****                         strcat(localgroup_tmp, ",");
 544:C:/Users/stapi/OneDrive/Desktop/GD32VW553/V1_MQTT_OK/GD32VW55X_Wifi_BLE_SDK/GD32VW55x_RELEASE_V1.0.2/MSDK/cloud/alicloud/src/protocol/alcs\alcs_mqtt.c ****                 }
 545:C:/Users/stapi/OneDrive/Desktop/GD32VW553/V1_MQTT_OK/GD32VW55X_Wifi_BLE_SDK/GD32VW55x_RELEASE_V1.0.2/MSDK/cloud/alicloud/src/protocol/alcs\alcs_mqtt.c ****                 printf("ALCS_LG: %s\n", localgroup_tmp);
 546:C:/Users/stapi/OneDrive/Desktop/GD32VW553/V1_MQTT_OK/GD32VW55X_Wifi_BLE_SDK/GD32VW55x_RELEASE_V1.0.2/MSDK/cloud/alicloud/src/protocol/alcs\alcs_mqtt.c ****                 if(ALCS_MQTT_STATUS_SUCCESS != __alcs_mqtt_kv_get(lg_kv_key, localgroup_kv, &localg
 547:C:/Users/stapi/OneDrive/Desktop/GD32VW553/V1_MQTT_OK/GD32VW55X_Wifi_BLE_SDK/GD32VW55x_RELEASE_V1.0.2/MSDK/cloud/alicloud/src/protocol/alcs\alcs_mqtt.c ****                     strcmp(localgroup_tmp, localgroup_kv) != 0){
 548:C:/Users/stapi/OneDrive/Desktop/GD32VW553/V1_MQTT_OK/GD32VW55X_Wifi_BLE_SDK/GD32VW55x_RELEASE_V1.0.2/MSDK/cloud/alicloud/src/protocol/alcs\alcs_mqtt.c ****                     __alcs_mqtt_kv_set(lg_kv_key, localgroup_tmp, strlen(localgroup_tmp), 1);
 549:C:/Users/stapi/OneDrive/Desktop/GD32VW553/V1_MQTT_OK/GD32VW55X_Wifi_BLE_SDK/GD32VW55x_RELEASE_V1.0.2/MSDK/cloud/alicloud/src/protocol/alcs\alcs_mqtt.c ****                     if (NULL != coap_ctx){
 550:C:/Users/stapi/OneDrive/Desktop/GD32VW553/V1_MQTT_OK/GD32VW55X_Wifi_BLE_SDK/GD32VW55x_RELEASE_V1.0.2/MSDK/cloud/alicloud/src/protocol/alcs\alcs_mqtt.c ****                         alcs_clear_svr_group(coap_ctx);
 551:C:/Users/stapi/OneDrive/Desktop/GD32VW553/V1_MQTT_OK/GD32VW55X_Wifi_BLE_SDK/GD32VW55x_RELEASE_V1.0.2/MSDK/cloud/alicloud/src/protocol/alcs\alcs_mqtt.c ****                         __alcs_update_group_info(coap_ctx);
 552:C:/Users/stapi/OneDrive/Desktop/GD32VW553/V1_MQTT_OK/GD32VW55X_Wifi_BLE_SDK/GD32VW55x_RELEASE_V1.0.2/MSDK/cloud/alicloud/src/protocol/alcs\alcs_mqtt.c ****                     }
 553:C:/Users/stapi/OneDrive/Desktop/GD32VW553/V1_MQTT_OK/GD32VW55X_Wifi_BLE_SDK/GD32VW55x_RELEASE_V1.0.2/MSDK/cloud/alicloud/src/protocol/alcs\alcs_mqtt.c ****                 }
 554:C:/Users/stapi/OneDrive/Desktop/GD32VW553/V1_MQTT_OK/GD32VW55X_Wifi_BLE_SDK/GD32VW55x_RELEASE_V1.0.2/MSDK/cloud/alicloud/src/protocol/alcs\alcs_mqtt.c ****             }
 555:C:/Users/stapi/OneDrive/Desktop/GD32VW553/V1_MQTT_OK/GD32VW55X_Wifi_BLE_SDK/GD32VW55x_RELEASE_V1.0.2/MSDK/cloud/alicloud/src/protocol/alcs\alcs_mqtt.c ****         }
 556:C:/Users/stapi/OneDrive/Desktop/GD32VW553/V1_MQTT_OK/GD32VW55X_Wifi_BLE_SDK/GD32VW55x_RELEASE_V1.0.2/MSDK/cloud/alicloud/src/protocol/alcs\alcs_mqtt.c ****         return 0;
 557:C:/Users/stapi/OneDrive/Desktop/GD32VW553/V1_MQTT_OK/GD32VW55X_Wifi_BLE_SDK/GD32VW55x_RELEASE_V1.0.2/MSDK/cloud/alicloud/src/protocol/alcs\alcs_mqtt.c ****     }
 558:C:/Users/stapi/OneDrive/Desktop/GD32VW553/V1_MQTT_OK/GD32VW55X_Wifi_BLE_SDK/GD32VW55x_RELEASE_V1.0.2/MSDK/cloud/alicloud/src/protocol/alcs\alcs_mqtt.c ****     #endif
 559:C:/Users/stapi/OneDrive/Desktop/GD32VW553/V1_MQTT_OK/GD32VW55X_Wifi_BLE_SDK/GD32VW55x_RELEASE_V1.0.2/MSDK/cloud/alicloud/src/protocol/alcs\alcs_mqtt.c **** #endif
 560:C:/Users/stapi/OneDrive/Desktop/GD32VW553/V1_MQTT_OK/GD32VW55X_Wifi_BLE_SDK/GD32VW55x_RELEASE_V1.0.2/MSDK/cloud/alicloud/src/protocol/alcs\alcs_mqtt.c **** 
 561:C:/Users/stapi/OneDrive/Desktop/GD32VW553/V1_MQTT_OK/GD32VW55X_Wifi_BLE_SDK/GD32VW55x_RELEASE_V1.0.2/MSDK/cloud/alicloud/src/protocol/alcs\alcs_mqtt.c **** static alcs_mqtt_status_e __alcs_mqtt_subscribe(void *ctx, char *topic)
 151              		.loc 1 561 27 is_stmt 1
 152              		.cfi_startproc
 153              	.LVL12:
 154 0000 17030000 		call	t0,__riscv_save_0
 154      E7020300 
 155              		.cfi_offset 1, -4
 156              		.cfi_def_cfa_offset 16
 157              	.LVL13:
 562:C:/Users/stapi/OneDrive/Desktop/GD32VW553/V1_MQTT_OK/GD32VW55X_Wifi_BLE_SDK/GD32VW55x_RELEASE_V1.0.2/MSDK/cloud/alicloud/src/protocol/alcs\alcs_mqtt.c **** {
 563:C:/Users/stapi/OneDrive/Desktop/GD32VW553/V1_MQTT_OK/GD32VW55X_Wifi_BLE_SDK/GD32VW55x_RELEASE_V1.0.2/MSDK/cloud/alicloud/src/protocol/alcs\alcs_mqtt.c **** #ifdef MQTT_AUTO_SUBSCRIBE
 564:C:/Users/stapi/OneDrive/Desktop/GD32VW553/V1_MQTT_OK/GD32VW55X_Wifi_BLE_SDK/GD32VW55x_RELEASE_V1.0.2/MSDK/cloud/alicloud/src/protocol/alcs\alcs_mqtt.c ****     return (IOT_MQTT_Subscribe(NULL, topic, IOTX_MQTT_QOS3_SUB_LOCAL, __alcs_mqtt_subscribe_callbac
 158              		.loc 1 564 5
 159              		.loc 1 564 13 is_stmt 0
 160 0008 37070000 		lui	a4,%hi(.LANCHOR0)
 161 000c B7060000 		lui	a3,%hi(__alcs_mqtt_subscribe_callback)
 561:C:/Users/stapi/OneDrive/Desktop/GD32VW553/V1_MQTT_OK/GD32VW55X_Wifi_BLE_SDK/GD32VW55x_RELEASE_V1.0.2/MSDK/cloud/alicloud/src/protocol/alcs\alcs_mqtt.c **** {
 162              		.loc 1 561 27
 163 0010 AA85     		mv	a1,a0
 164              		.loc 1 564 13
 165 0012 13070700 		addi	a4,a4,%lo(.LANCHOR0)
 166 0016 93860600 		addi	a3,a3,%lo(__alcs_mqtt_subscribe_callback)
 167 001a 0D46     		li	a2,3
 168 001c 0145     		li	a0,0
 169              	.LVL14:
 170 001e 97000000 		call	IOT_MQTT_Subscribe
 170      E7800000 
 171              	.LVL15:
 565:C:/Users/stapi/OneDrive/Desktop/GD32VW553/V1_MQTT_OK/GD32VW55X_Wifi_BLE_SDK/GD32VW55x_RELEASE_V1.0.2/MSDK/cloud/alicloud/src/protocol/alcs\alcs_mqtt.c ****                                ctx) < 0) ? ALCS_MQTT_STATUS_ERROR : ALCS_MQTT_STATUS_SUCCESS;
 566:C:/Users/stapi/OneDrive/Desktop/GD32VW553/V1_MQTT_OK/GD32VW55X_Wifi_BLE_SDK/GD32VW55x_RELEASE_V1.0.2/MSDK/cloud/alicloud/src/protocol/alcs\alcs_mqtt.c **** #else
 567:C:/Users/stapi/OneDrive/Desktop/GD32VW553/V1_MQTT_OK/GD32VW55X_Wifi_BLE_SDK/GD32VW55x_RELEASE_V1.0.2/MSDK/cloud/alicloud/src/protocol/alcs\alcs_mqtt.c ****     return (IOT_MQTT_Subscribe_Sync(NULL, topic, IOTX_MQTT_QOS0, __alcs_mqtt_subscribe_callback,		
 568:C:/Users/stapi/OneDrive/Desktop/GD32VW553/V1_MQTT_OK/GD32VW55X_Wifi_BLE_SDK/GD32VW55x_RELEASE_V1.0.2/MSDK/cloud/alicloud/src/protocol/alcs\alcs_mqtt.c ****                                ctx, 6000) < 0) ? ALCS_MQTT_STATUS_ERROR : ALCS_MQTT_STATUS_SUCCESS;
 569:C:/Users/stapi/OneDrive/Desktop/GD32VW553/V1_MQTT_OK/GD32VW55X_Wifi_BLE_SDK/GD32VW55x_RELEASE_V1.0.2/MSDK/cloud/alicloud/src/protocol/alcs\alcs_mqtt.c **** #endif /* #ifdef MQTT_AUTO_SUBSCRIBE */
 570:C:/Users/stapi/OneDrive/Desktop/GD32VW553/V1_MQTT_OK/GD32VW55X_Wifi_BLE_SDK/GD32VW55x_RELEASE_V1.0.2/MSDK/cloud/alicloud/src/protocol/alcs\alcs_mqtt.c **** }
 172              		.loc 1 570 1
 173 0026 7D81     		srli	a0,a0,31
 174 0028 17030000 		tail	__riscv_restore_0
 174      67000300 
 175              		.cfi_restore 1
 176              		.cfi_def_cfa_offset 0
 177              		.cfi_endproc
 178              	.LFE45:
 180              		.section	.rodata.__alcs_mqtt_kv_set.constprop.0.str1.4,"aMS",@progbits,1
 181              		.align	2
 182              	.LC4:
 183 0000 414C4353 		.string	"ALCS KV Set, Key: %s, Len: %d"
 183      204B5620 
 183      5365742C 
 183      204B6579 
 183      3A202573 
 184              		.section	.text.__alcs_mqtt_kv_set.constprop.0,"ax",@progbits
 185              		.align	1
 187              	__alcs_mqtt_kv_set.constprop.0:
 188              	.LFB44:
  59:C:/Users/stapi/OneDrive/Desktop/GD32VW553/V1_MQTT_OK/GD32VW55X_Wifi_BLE_SDK/GD32VW55x_RELEASE_V1.0.2/MSDK/cloud/alicloud/src/protocol/alcs\alcs_mqtt.c **** {
 189              		.loc 1 59 27 is_stmt 1
 190              		.cfi_startproc
 191              	.LVL16:
 192 0000 17030000 		call	t0,__riscv_save_2
 192      E7020300 
 193              		.cfi_offset 9, -12
 194              		.cfi_offset 8, -8
 195              		.cfi_offset 1, -4
 196              		.cfi_def_cfa_offset 16
  61:C:/Users/stapi/OneDrive/Desktop/GD32VW553/V1_MQTT_OK/GD32VW55X_Wifi_BLE_SDK/GD32VW55x_RELEASE_V1.0.2/MSDK/cloud/alicloud/src/protocol/alcs\alcs_mqtt.c ****         return ALCS_MQTT_STATUS_ERROR;
 197              		.loc 1 61 9 is_stmt 0
 198 0008 8546     		li	a3,1
  59:C:/Users/stapi/OneDrive/Desktop/GD32VW553/V1_MQTT_OK/GD32VW55X_Wifi_BLE_SDK/GD32VW55x_RELEASE_V1.0.2/MSDK/cloud/alicloud/src/protocol/alcs\alcs_mqtt.c **** {
 199              		.loc 1 59 27
 200 000a 2A84     		mv	s0,a0
 201              	.LVL17:
  61:C:/Users/stapi/OneDrive/Desktop/GD32VW553/V1_MQTT_OK/GD32VW55X_Wifi_BLE_SDK/GD32VW55x_RELEASE_V1.0.2/MSDK/cloud/alicloud/src/protocol/alcs\alcs_mqtt.c ****         return ALCS_MQTT_STATUS_ERROR;
 202              		.loc 1 61 5 is_stmt 1
  59:C:/Users/stapi/OneDrive/Desktop/GD32VW553/V1_MQTT_OK/GD32VW55X_Wifi_BLE_SDK/GD32VW55x_RELEASE_V1.0.2/MSDK/cloud/alicloud/src/protocol/alcs\alcs_mqtt.c **** {
 203              		.loc 1 59 27 is_stmt 0
 204 000c B284     		mv	s1,a2
  61:C:/Users/stapi/OneDrive/Desktop/GD32VW553/V1_MQTT_OK/GD32VW55X_Wifi_BLE_SDK/GD32VW55x_RELEASE_V1.0.2/MSDK/cloud/alicloud/src/protocol/alcs\alcs_mqtt.c ****         return ALCS_MQTT_STATUS_ERROR;
 205              		.loc 1 61 9
 206 000e 97000000 		call	aos_kv_set
 206      E7800000 
 207              	.LVL18:
  61:C:/Users/stapi/OneDrive/Desktop/GD32VW553/V1_MQTT_OK/GD32VW55X_Wifi_BLE_SDK/GD32VW55x_RELEASE_V1.0.2/MSDK/cloud/alicloud/src/protocol/alcs\alcs_mqtt.c ****         return ALCS_MQTT_STATUS_ERROR;
 208              		.loc 1 61 8
 209 0016 21E1     		bne	a0,zero,.L13
 210              	.LVL19:
 211              	.LBB22:
 212              	.LBB23:
  65:C:/Users/stapi/OneDrive/Desktop/GD32VW553/V1_MQTT_OK/GD32VW55X_Wifi_BLE_SDK/GD32VW55x_RELEASE_V1.0.2/MSDK/cloud/alicloud/src/protocol/alcs\alcs_mqtt.c ****     return ALCS_MQTT_STATUS_SUCCESS;
 213              		.loc 1 65 5 is_stmt 1
  65:C:/Users/stapi/OneDrive/Desktop/GD32VW553/V1_MQTT_OK/GD32VW55X_Wifi_BLE_SDK/GD32VW55x_RELEASE_V1.0.2/MSDK/cloud/alicloud/src/protocol/alcs\alcs_mqtt.c ****     return ALCS_MQTT_STATUS_SUCCESS;
 214              		.loc 1 65 5
 215 0018 37050000 		lui	a0,%hi(.LC0)
 216 001c 13050500 		addi	a0,a0,%lo(.LC0)
 217 0020 97000000 		call	HAL_Printf
 217      E7800000 
 218              	.LVL20:
  65:C:/Users/stapi/OneDrive/Desktop/GD32VW553/V1_MQTT_OK/GD32VW55X_Wifi_BLE_SDK/GD32VW55x_RELEASE_V1.0.2/MSDK/cloud/alicloud/src/protocol/alcs\alcs_mqtt.c ****     return ALCS_MQTT_STATUS_SUCCESS;
 219              		.loc 1 65 5
 220 0028 37050000 		lui	a0,%hi(.LC4)
 221 002c 2686     		mv	a2,s1
 222 002e A285     		mv	a1,s0
 223 0030 13050500 		addi	a0,a0,%lo(.LC4)
 224 0034 97000000 		call	HAL_Printf
 224      E7800000 
 225              	.LVL21:
  65:C:/Users/stapi/OneDrive/Desktop/GD32VW553/V1_MQTT_OK/GD32VW55X_Wifi_BLE_SDK/GD32VW55x_RELEASE_V1.0.2/MSDK/cloud/alicloud/src/protocol/alcs\alcs_mqtt.c ****     return ALCS_MQTT_STATUS_SUCCESS;
 226              		.loc 1 65 5
 227 003c 37050000 		lui	a0,%hi(.LC2)
 228 0040 13050500 		addi	a0,a0,%lo(.LC2)
 229 0044 97000000 		call	HAL_Printf
 229      E7800000 
 230              	.LVL22:
  65:C:/Users/stapi/OneDrive/Desktop/GD32VW553/V1_MQTT_OK/GD32VW55X_Wifi_BLE_SDK/GD32VW55x_RELEASE_V1.0.2/MSDK/cloud/alicloud/src/protocol/alcs\alcs_mqtt.c ****     return ALCS_MQTT_STATUS_SUCCESS;
 231              		.loc 1 65 5
  66:C:/Users/stapi/OneDrive/Desktop/GD32VW553/V1_MQTT_OK/GD32VW55X_Wifi_BLE_SDK/GD32VW55x_RELEASE_V1.0.2/MSDK/cloud/alicloud/src/protocol/alcs\alcs_mqtt.c **** }
 232              		.loc 1 66 5
  65:C:/Users/stapi/OneDrive/Desktop/GD32VW553/V1_MQTT_OK/GD32VW55X_Wifi_BLE_SDK/GD32VW55x_RELEASE_V1.0.2/MSDK/cloud/alicloud/src/protocol/alcs\alcs_mqtt.c ****     return ALCS_MQTT_STATUS_SUCCESS;
 233              		.loc 1 65 5 is_stmt 0
 234 004c 0145     		li	a0,0
 235              	.L11:
 236              	.LBE23:
 237              	.LBE22:
  67:C:/Users/stapi/OneDrive/Desktop/GD32VW553/V1_MQTT_OK/GD32VW55X_Wifi_BLE_SDK/GD32VW55x_RELEASE_V1.0.2/MSDK/cloud/alicloud/src/protocol/alcs\alcs_mqtt.c **** 
 238              		.loc 1 67 1
 239 004e 17030000 		tail	__riscv_restore_2
 239      67000300 
 240              		.cfi_remember_state
 241              		.cfi_restore 9
 242              		.cfi_restore 8
 243              		.cfi_restore 1
 244              		.cfi_def_cfa_offset 0
 245              	.L13:
 246              		.cfi_restore_state
  62:C:/Users/stapi/OneDrive/Desktop/GD32VW553/V1_MQTT_OK/GD32VW55X_Wifi_BLE_SDK/GD32VW55x_RELEASE_V1.0.2/MSDK/cloud/alicloud/src/protocol/alcs\alcs_mqtt.c ****     }
 247              		.loc 1 62 16
 248 0056 0545     		li	a0,1
 249 0058 DDBF     		j	.L11
 250              		.cfi_endproc
 251              	.LFE44:
 253              		.section	.rodata.__alcs_mqtt_send_response.constprop.0.isra.0.str1.4,"aMS",@progbits,1
 254              		.align	2
 255              	.LC5:
 256 0000 7B7D00   		.string	"{}"
 257 0003 00       		.align	2
 258              	.LC6:
 259 0004 7B226964 		.string	"{\"id\": \"%d\", \"code\": %d, \"data\": %s}"
 259      223A2022 
 259      2564222C 
 259      2022636F 
 259      6465223A 
 260              		.section	.text.__alcs_mqtt_send_response.constprop.0.isra.0,"ax",@progbits
 261              		.align	1
 263              	__alcs_mqtt_send_response.constprop.0.isra.0:
 264              	.LFB46:
  34:C:/Users/stapi/OneDrive/Desktop/GD32VW553/V1_MQTT_OK/GD32VW55X_Wifi_BLE_SDK/GD32VW55x_RELEASE_V1.0.2/MSDK/cloud/alicloud/src/protocol/alcs\alcs_mqtt.c **** {
 265              		.loc 1 34 27 is_stmt 1
 266              		.cfi_startproc
 267              	.LVL23:
 268 0000 17030000 		call	t0,__riscv_save_2
 268      E7020300 
 269              		.cfi_offset 9, -12
 270              		.cfi_offset 8, -8
 271              		.cfi_offset 1, -4
 272              		.cfi_def_cfa_offset 16
 273              	.LVL24:
  36:C:/Users/stapi/OneDrive/Desktop/GD32VW553/V1_MQTT_OK/GD32VW55X_Wifi_BLE_SDK/GD32VW55x_RELEASE_V1.0.2/MSDK/cloud/alicloud/src/protocol/alcs\alcs_mqtt.c ****     uint16_t msg_len = 0;
 274              		.loc 1 36 5
  37:C:/Users/stapi/OneDrive/Desktop/GD32VW553/V1_MQTT_OK/GD32VW55X_Wifi_BLE_SDK/GD32VW55x_RELEASE_V1.0.2/MSDK/cloud/alicloud/src/protocol/alcs\alcs_mqtt.c ****     alcs_mqtt_status_e status = ALCS_MQTT_STATUS_SUCCESS;
 275              		.loc 1 37 5
  38:C:/Users/stapi/OneDrive/Desktop/GD32VW553/V1_MQTT_OK/GD32VW55X_Wifi_BLE_SDK/GD32VW55x_RELEASE_V1.0.2/MSDK/cloud/alicloud/src/protocol/alcs\alcs_mqtt.c **** 
 276              		.loc 1 38 5
  40:C:/Users/stapi/OneDrive/Desktop/GD32VW553/V1_MQTT_OK/GD32VW55X_Wifi_BLE_SDK/GD32VW55x_RELEASE_V1.0.2/MSDK/cloud/alicloud/src/protocol/alcs\alcs_mqtt.c ****         data = "{}";
 277              		.loc 1 40 5
  41:C:/Users/stapi/OneDrive/Desktop/GD32VW553/V1_MQTT_OK/GD32VW55X_Wifi_BLE_SDK/GD32VW55x_RELEASE_V1.0.2/MSDK/cloud/alicloud/src/protocol/alcs\alcs_mqtt.c ****     }
 278              		.loc 1 41 9
  44:C:/Users/stapi/OneDrive/Desktop/GD32VW553/V1_MQTT_OK/GD32VW55X_Wifi_BLE_SDK/GD32VW55x_RELEASE_V1.0.2/MSDK/cloud/alicloud/src/protocol/alcs\alcs_mqtt.c **** 
 279              		.loc 1 44 5
  46:C:/Users/stapi/OneDrive/Desktop/GD32VW553/V1_MQTT_OK/GD32VW55X_Wifi_BLE_SDK/GD32VW55x_RELEASE_V1.0.2/MSDK/cloud/alicloud/src/protocol/alcs\alcs_mqtt.c ****         return ALCS_MQTT_STATUS_ERROR;
 280              		.loc 1 46 5
  34:C:/Users/stapi/OneDrive/Desktop/GD32VW553/V1_MQTT_OK/GD32VW55X_Wifi_BLE_SDK/GD32VW55x_RELEASE_V1.0.2/MSDK/cloud/alicloud/src/protocol/alcs\alcs_mqtt.c **** {
 281              		.loc 1 34 27 is_stmt 0
 282 0008 4111     		addi	sp,sp,-16
 283              		.cfi_def_cfa_offset 32
  34:C:/Users/stapi/OneDrive/Desktop/GD32VW553/V1_MQTT_OK/GD32VW55X_Wifi_BLE_SDK/GD32VW55x_RELEASE_V1.0.2/MSDK/cloud/alicloud/src/protocol/alcs\alcs_mqtt.c **** {
 284              		.loc 1 34 27
 285 000a AA84     		mv	s1,a0
 286 000c 2EC6     		sw	a1,12(sp)
  46:C:/Users/stapi/OneDrive/Desktop/GD32VW553/V1_MQTT_OK/GD32VW55X_Wifi_BLE_SDK/GD32VW55x_RELEASE_V1.0.2/MSDK/cloud/alicloud/src/protocol/alcs\alcs_mqtt.c ****         return ALCS_MQTT_STATUS_ERROR;
 287              		.loc 1 46 20
 288 000e 1306B003 		li	a2,59
 289 0012 8145     		li	a1,0
 290              	.LVL25:
 291 0014 0145     		li	a0,0
 292              	.LVL26:
 293 0016 97000000 		call	LITE_malloc_internal
 293      E7800000 
 294              	.LVL27:
  46:C:/Users/stapi/OneDrive/Desktop/GD32VW553/V1_MQTT_OK/GD32VW55X_Wifi_BLE_SDK/GD32VW55x_RELEASE_V1.0.2/MSDK/cloud/alicloud/src/protocol/alcs\alcs_mqtt.c ****         return ALCS_MQTT_STATUS_ERROR;
 295              		.loc 1 46 8
 296 001e 31C5     		beq	a0,zero,.L15
  50:C:/Users/stapi/OneDrive/Desktop/GD32VW553/V1_MQTT_OK/GD32VW55X_Wifi_BLE_SDK/GD32VW55x_RELEASE_V1.0.2/MSDK/cloud/alicloud/src/protocol/alcs\alcs_mqtt.c **** 
 297              		.loc 1 50 5
 298 0020 B246     		lw	a3,12(sp)
 299 0022 B7070000 		lui	a5,%hi(.LC5)
 300 0026 37060000 		lui	a2,%hi(.LC6)
 301 002a 93870700 		addi	a5,a5,%lo(.LC5)
 302 002e 1307800C 		li	a4,200
 303 0032 13060600 		addi	a2,a2,%lo(.LC6)
 304 0036 9305B003 		li	a1,59
 305 003a 2A84     		mv	s0,a0
  50:C:/Users/stapi/OneDrive/Desktop/GD32VW553/V1_MQTT_OK/GD32VW55X_Wifi_BLE_SDK/GD32VW55x_RELEASE_V1.0.2/MSDK/cloud/alicloud/src/protocol/alcs\alcs_mqtt.c **** 
 306              		.loc 1 50 5 is_stmt 1
 307 003c 97000000 		call	snprintf
 307      E7800000 
 308              	.LVL28:
  52:C:/Users/stapi/OneDrive/Desktop/GD32VW553/V1_MQTT_OK/GD32VW55X_Wifi_BLE_SDK/GD32VW55x_RELEASE_V1.0.2/MSDK/cloud/alicloud/src/protocol/alcs\alcs_mqtt.c **** 
 309              		.loc 1 52 5
  52:C:/Users/stapi/OneDrive/Desktop/GD32VW553/V1_MQTT_OK/GD32VW55X_Wifi_BLE_SDK/GD32VW55x_RELEASE_V1.0.2/MSDK/cloud/alicloud/src/protocol/alcs\alcs_mqtt.c **** 
 310              		.loc 1 52 54 is_stmt 0
 311 0044 2285     		mv	a0,s0
 312 0046 97000000 		call	strlen
 312      E7800000 
 313              	.LVL29:
 314 004e 2A87     		mv	a4,a0
 315              	.LVL30:
 316              	.LBB26:
 317              	.LBB27:
  31:C:/Users/stapi/OneDrive/Desktop/GD32VW553/V1_MQTT_OK/GD32VW55X_Wifi_BLE_SDK/GD32VW55x_RELEASE_V1.0.2/MSDK/cloud/alicloud/src/protocol/alcs\alcs_mqtt.c **** }
 318              		.loc 1 31 5 is_stmt 1
  31:C:/Users/stapi/OneDrive/Desktop/GD32VW553/V1_MQTT_OK/GD32VW55X_Wifi_BLE_SDK/GD32VW55x_RELEASE_V1.0.2/MSDK/cloud/alicloud/src/protocol/alcs\alcs_mqtt.c **** }
 319              		.loc 1 31 13 is_stmt 0
 320 0050 A286     		mv	a3,s0
 321 0052 0546     		li	a2,1
 322 0054 A685     		mv	a1,s1
 323 0056 0145     		li	a0,0
 324              	.LVL31:
 325 0058 97000000 		call	IOT_MQTT_Publish_Simple
 325      E7800000 
 326              	.LVL32:
 327              	.LBE27:
 328              	.LBE26:
  54:C:/Users/stapi/OneDrive/Desktop/GD32VW553/V1_MQTT_OK/GD32VW55X_Wifi_BLE_SDK/GD32VW55x_RELEASE_V1.0.2/MSDK/cloud/alicloud/src/protocol/alcs\alcs_mqtt.c **** 
 329              		.loc 1 54 5 is_stmt 1
 330 0060 2285     		mv	a0,s0
 331 0062 97000000 		call	LITE_free_internal
 331      E7800000 
 332              	.LVL33:
  56:C:/Users/stapi/OneDrive/Desktop/GD32VW553/V1_MQTT_OK/GD32VW55X_Wifi_BLE_SDK/GD32VW55x_RELEASE_V1.0.2/MSDK/cloud/alicloud/src/protocol/alcs\alcs_mqtt.c **** }
 333              		.loc 1 56 5
 334              	.L15:
  57:C:/Users/stapi/OneDrive/Desktop/GD32VW553/V1_MQTT_OK/GD32VW55X_Wifi_BLE_SDK/GD32VW55x_RELEASE_V1.0.2/MSDK/cloud/alicloud/src/protocol/alcs\alcs_mqtt.c **** 
 335              		.loc 1 57 1 is_stmt 0
 336 006a 4101     		addi	sp,sp,16
 337              		.cfi_def_cfa_offset 0
 338              	.LVL34:
 339 006c 17030000 		tail	__riscv_restore_2
 339      67000300 
 340              		.cfi_restore 9
 341              		.cfi_restore 8
 342              		.cfi_restore 1
 343              		.cfi_def_cfa_offset -16
 344              		.cfi_endproc
 345              	.LFE46:
 347              		.section	.rodata.__alcs_mqtt_prefix_secret_save.str1.4,"aMS",@progbits,1
 348              		.align	2
 349              	.LC7:
 350 0000 5B657272 		.string	"[err] "
 350      5D2000
 351 0007 00       		.align	2
 352              	.LC8:
 353 0008 496E7661 		.string	"Invalid Parameter"
 353      6C696420 
 353      50617261 
 353      6D657465 
 353      7200
 354 001a 0000     		.align	2
 355              	.LC9:
 356 001c 4E6F2045 		.string	"No Enough Memory"
 356      6E6F7567 
 356      68204D65 
 356      6D6F7279 
 356      00
 357 002d 000000   		.align	2
 358              	.LC10:
 359 0030 252E2A73 		.string	"%.*s%.*s"
 359      252E2A73 
 359      00
 360 0039 000000   		.align	2
 361              	.LC11:
 362 003c 414C4353 		.string	"ALCS_KEY"
 362      5F4B4559 
 362      00
 363 0045 000000   		.align	2
 364              	.LC12:
 365 0048 414C4353 		.string	"ALCS KV Set Prefix And Secret Fail"
 365      204B5620 
 365      53657420 
 365      50726566 
 365      69782041 
 366              		.section	.text.__alcs_mqtt_prefix_secret_save,"ax",@progbits
 367              		.align	1
 368              		.globl	__alcs_mqtt_prefix_secret_save
 370              	__alcs_mqtt_prefix_secret_save:
 371              	.LFB26:
  95:C:/Users/stapi/OneDrive/Desktop/GD32VW553/V1_MQTT_OK/GD32VW55X_Wifi_BLE_SDK/GD32VW55x_RELEASE_V1.0.2/MSDK/cloud/alicloud/src/protocol/alcs\alcs_mqtt.c ****     char *key_source = NULL;
 372              		.loc 1 95 1 is_stmt 1
 373              		.cfi_startproc
 374              	.LVL35:
 375 0000 17030000 		call	t0,__riscv_save_10
 375      E7020300 
 376              		.cfi_offset 25, -44
 377              		.cfi_offset 24, -40
 378              		.cfi_offset 23, -36
 379              		.cfi_offset 22, -32
 380              		.cfi_offset 21, -28
 381              		.cfi_offset 20, -24
 382              		.cfi_offset 19, -20
 383              		.cfi_offset 18, -16
 384              		.cfi_offset 9, -12
 385              		.cfi_offset 8, -8
 386              		.cfi_offset 1, -4
 387              		.cfi_def_cfa_offset 48
  96:C:/Users/stapi/OneDrive/Desktop/GD32VW553/V1_MQTT_OK/GD32VW55X_Wifi_BLE_SDK/GD32VW55x_RELEASE_V1.0.2/MSDK/cloud/alicloud/src/protocol/alcs\alcs_mqtt.c ****     uint8_t key_md5[16] = {0};
 388              		.loc 1 96 5
 389              	.LVL36:
  97:C:/Users/stapi/OneDrive/Desktop/GD32VW553/V1_MQTT_OK/GD32VW55X_Wifi_BLE_SDK/GD32VW55x_RELEASE_V1.0.2/MSDK/cloud/alicloud/src/protocol/alcs\alcs_mqtt.c ****     char key_md5_hexstr[33] = {0};
 390              		.loc 1 97 5
  95:C:/Users/stapi/OneDrive/Desktop/GD32VW553/V1_MQTT_OK/GD32VW55X_Wifi_BLE_SDK/GD32VW55x_RELEASE_V1.0.2/MSDK/cloud/alicloud/src/protocol/alcs\alcs_mqtt.c ****     char *key_source = NULL;
 391              		.loc 1 95 1 is_stmt 0
 392 0008 3971     		addi	sp,sp,-64
 393              		.cfi_def_cfa_offset 112
  95:C:/Users/stapi/OneDrive/Desktop/GD32VW553/V1_MQTT_OK/GD32VW55X_Wifi_BLE_SDK/GD32VW55x_RELEASE_V1.0.2/MSDK/cloud/alicloud/src/protocol/alcs\alcs_mqtt.c ****     char *key_source = NULL;
 394              		.loc 1 95 1
 395 000a 2A8C     		mv	s8,a0
 396 000c 2E8A     		mv	s4,a1
 397 000e B28C     		mv	s9,a2
  98:C:/Users/stapi/OneDrive/Desktop/GD32VW553/V1_MQTT_OK/GD32VW55X_Wifi_BLE_SDK/GD32VW55x_RELEASE_V1.0.2/MSDK/cloud/alicloud/src/protocol/alcs\alcs_mqtt.c ****     char *value = NULL;
 398              		.loc 1 98 10
 399 0010 8145     		li	a1,0
 400              	.LVL37:
 401 0012 7546     		li	a2,29
 402              	.LVL38:
 403 0014 0810     		addi	a0,sp,32
 404              	.LVL39:
  95:C:/Users/stapi/OneDrive/Desktop/GD32VW553/V1_MQTT_OK/GD32VW55X_Wifi_BLE_SDK/GD32VW55x_RELEASE_V1.0.2/MSDK/cloud/alicloud/src/protocol/alcs\alcs_mqtt.c ****     char *key_source = NULL;
 405              		.loc 1 95 1
 406 0016 B68A     		mv	s5,a3
 407 0018 3A8B     		mv	s6,a4
 408 001a 3E89     		mv	s2,a5
 409 001c C28B     		mv	s7,a6
 410 001e C689     		mv	s3,a7
  97:C:/Users/stapi/OneDrive/Desktop/GD32VW553/V1_MQTT_OK/GD32VW55X_Wifi_BLE_SDK/GD32VW55x_RELEASE_V1.0.2/MSDK/cloud/alicloud/src/protocol/alcs\alcs_mqtt.c ****     char key_md5_hexstr[33] = {0};
 411              		.loc 1 97 13
 412 0020 02C6     		sw	zero,12(sp)
 413 0022 02C8     		sw	zero,16(sp)
 414 0024 02CA     		sw	zero,20(sp)
 415 0026 02CC     		sw	zero,24(sp)
  98:C:/Users/stapi/OneDrive/Desktop/GD32VW553/V1_MQTT_OK/GD32VW55X_Wifi_BLE_SDK/GD32VW55x_RELEASE_V1.0.2/MSDK/cloud/alicloud/src/protocol/alcs\alcs_mqtt.c ****     char *value = NULL;
 416              		.loc 1 98 5 is_stmt 1
  98:C:/Users/stapi/OneDrive/Desktop/GD32VW553/V1_MQTT_OK/GD32VW55X_Wifi_BLE_SDK/GD32VW55x_RELEASE_V1.0.2/MSDK/cloud/alicloud/src/protocol/alcs\alcs_mqtt.c ****     char *value = NULL;
 417              		.loc 1 98 10 is_stmt 0
 418 0028 02CE     		sw	zero,28(sp)
 419 002a 97000000 		call	memset
 419      E7800000 
 420              	.LVL40:
  99:C:/Users/stapi/OneDrive/Desktop/GD32VW553/V1_MQTT_OK/GD32VW55X_Wifi_BLE_SDK/GD32VW55x_RELEASE_V1.0.2/MSDK/cloud/alicloud/src/protocol/alcs\alcs_mqtt.c **** 
 421              		.loc 1 99 5 is_stmt 1
 101:C:/Users/stapi/OneDrive/Desktop/GD32VW553/V1_MQTT_OK/GD32VW55X_Wifi_BLE_SDK/GD32VW55x_RELEASE_V1.0.2/MSDK/cloud/alicloud/src/protocol/alcs\alcs_mqtt.c ****         dn == NULL || dn_len >= DEVICE_NAME_MAXLEN ||
 422              		.loc 1 101 5
 101:C:/Users/stapi/OneDrive/Desktop/GD32VW553/V1_MQTT_OK/GD32VW55X_Wifi_BLE_SDK/GD32VW55x_RELEASE_V1.0.2/MSDK/cloud/alicloud/src/protocol/alcs\alcs_mqtt.c ****         dn == NULL || dn_len >= DEVICE_NAME_MAXLEN ||
 423              		.loc 1 101 8 is_stmt 0
 424 0032 630F0C00 		beq	s8,zero,.L22
 101:C:/Users/stapi/OneDrive/Desktop/GD32VW553/V1_MQTT_OK/GD32VW55X_Wifi_BLE_SDK/GD32VW55x_RELEASE_V1.0.2/MSDK/cloud/alicloud/src/protocol/alcs\alcs_mqtt.c ****         dn == NULL || dn_len >= DEVICE_NAME_MAXLEN ||
 425              		.loc 1 101 20 discriminator 1
 426 0036 D147     		li	a5,20
 427 0038 63EC4701 		bgtu	s4,a5,.L22
 101:C:/Users/stapi/OneDrive/Desktop/GD32VW553/V1_MQTT_OK/GD32VW55X_Wifi_BLE_SDK/GD32VW55x_RELEASE_V1.0.2/MSDK/cloud/alicloud/src/protocol/alcs\alcs_mqtt.c ****         dn == NULL || dn_len >= DEVICE_NAME_MAXLEN ||
 428              		.loc 1 101 52 discriminator 2
 429 003c 638A0C00 		beq	s9,zero,.L22
 102:C:/Users/stapi/OneDrive/Desktop/GD32VW553/V1_MQTT_OK/GD32VW55X_Wifi_BLE_SDK/GD32VW55x_RELEASE_V1.0.2/MSDK/cloud/alicloud/src/protocol/alcs\alcs_mqtt.c ****         prefix == NULL || secret == NULL) {
 430              		.loc 1 102 20
 431 0040 93070002 		li	a5,32
 432 0044 63E65701 		bgtu	s5,a5,.L22
 102:C:/Users/stapi/OneDrive/Desktop/GD32VW553/V1_MQTT_OK/GD32VW55X_Wifi_BLE_SDK/GD32VW55x_RELEASE_V1.0.2/MSDK/cloud/alicloud/src/protocol/alcs\alcs_mqtt.c ****         prefix == NULL || secret == NULL) {
 433              		.loc 1 102 52 discriminator 1
 434 0048 63040B00 		beq	s6,zero,.L22
 103:C:/Users/stapi/OneDrive/Desktop/GD32VW553/V1_MQTT_OK/GD32VW55X_Wifi_BLE_SDK/GD32VW55x_RELEASE_V1.0.2/MSDK/cloud/alicloud/src/protocol/alcs\alcs_mqtt.c ****         COAP_ERR("Invalid Parameter");
 435              		.loc 1 103 24
 436 004c 63910B04 		bne	s7,zero,.L23
 437              	.L22:
 104:C:/Users/stapi/OneDrive/Desktop/GD32VW553/V1_MQTT_OK/GD32VW55X_Wifi_BLE_SDK/GD32VW55x_RELEASE_V1.0.2/MSDK/cloud/alicloud/src/protocol/alcs\alcs_mqtt.c ****         return ALCS_MQTT_STATUS_ERROR;
 438              		.loc 1 104 9 is_stmt 1
 104:C:/Users/stapi/OneDrive/Desktop/GD32VW553/V1_MQTT_OK/GD32VW55X_Wifi_BLE_SDK/GD32VW55x_RELEASE_V1.0.2/MSDK/cloud/alicloud/src/protocol/alcs\alcs_mqtt.c ****         return ALCS_MQTT_STATUS_ERROR;
 439              		.loc 1 104 9
 440 0050 37050000 		lui	a0,%hi(.LC7)
 441 0054 13050500 		addi	a0,a0,%lo(.LC7)
 442 0058 97000000 		call	HAL_Printf
 442      E7800000 
 443              	.LVL41:
 104:C:/Users/stapi/OneDrive/Desktop/GD32VW553/V1_MQTT_OK/GD32VW55X_Wifi_BLE_SDK/GD32VW55x_RELEASE_V1.0.2/MSDK/cloud/alicloud/src/protocol/alcs\alcs_mqtt.c ****         return ALCS_MQTT_STATUS_ERROR;
 444              		.loc 1 104 9
 445 0060 37050000 		lui	a0,%hi(.LC8)
 446 0064 13050500 		addi	a0,a0,%lo(.LC8)
 447              	.LVL42:
 448              	.L40:
 111:C:/Users/stapi/OneDrive/Desktop/GD32VW553/V1_MQTT_OK/GD32VW55X_Wifi_BLE_SDK/GD32VW55x_RELEASE_V1.0.2/MSDK/cloud/alicloud/src/protocol/alcs\alcs_mqtt.c ****         return ALCS_MQTT_STATUS_ERROR;
 449              		.loc 1 111 9 is_stmt 0
 450 0068 97000000 		call	HAL_Printf
 450      E7800000 
 451              	.LVL43:
 111:C:/Users/stapi/OneDrive/Desktop/GD32VW553/V1_MQTT_OK/GD32VW55X_Wifi_BLE_SDK/GD32VW55x_RELEASE_V1.0.2/MSDK/cloud/alicloud/src/protocol/alcs\alcs_mqtt.c ****         return ALCS_MQTT_STATUS_ERROR;
 452              		.loc 1 111 9 is_stmt 1
 453 0070 37050000 		lui	a0,%hi(.LC2)
 454 0074 13050500 		addi	a0,a0,%lo(.LC2)
 455 0078 97000000 		call	HAL_Printf
 455      E7800000 
 456              	.LVL44:
 111:C:/Users/stapi/OneDrive/Desktop/GD32VW553/V1_MQTT_OK/GD32VW55X_Wifi_BLE_SDK/GD32VW55x_RELEASE_V1.0.2/MSDK/cloud/alicloud/src/protocol/alcs\alcs_mqtt.c ****         return ALCS_MQTT_STATUS_ERROR;
 457              		.loc 1 111 9
 112:C:/Users/stapi/OneDrive/Desktop/GD32VW553/V1_MQTT_OK/GD32VW55X_Wifi_BLE_SDK/GD32VW55x_RELEASE_V1.0.2/MSDK/cloud/alicloud/src/protocol/alcs\alcs_mqtt.c ****     }
 458              		.loc 1 112 9
 459              	.L39:
 142:C:/Users/stapi/OneDrive/Desktop/GD32VW553/V1_MQTT_OK/GD32VW55X_Wifi_BLE_SDK/GD32VW55x_RELEASE_V1.0.2/MSDK/cloud/alicloud/src/protocol/alcs\alcs_mqtt.c ****     }
 460              		.loc 1 142 9
 142:C:/Users/stapi/OneDrive/Desktop/GD32VW553/V1_MQTT_OK/GD32VW55X_Wifi_BLE_SDK/GD32VW55x_RELEASE_V1.0.2/MSDK/cloud/alicloud/src/protocol/alcs\alcs_mqtt.c ****     }
 461              		.loc 1 142 16 is_stmt 0
 462 0080 0549     		li	s2,1
 463              	.L21:
 148:C:/Users/stapi/OneDrive/Desktop/GD32VW553/V1_MQTT_OK/GD32VW55X_Wifi_BLE_SDK/GD32VW55x_RELEASE_V1.0.2/MSDK/cloud/alicloud/src/protocol/alcs\alcs_mqtt.c **** 
 464              		.loc 1 148 1
 465 0082 4A85     		mv	a0,s2
 466 0084 2161     		addi	sp,sp,64
 467              		.cfi_remember_state
 468              		.cfi_def_cfa_offset 0
 469 0086 17030000 		tail	__riscv_restore_10
 469      67000300 
 470              		.cfi_restore 25
 471              		.cfi_restore 24
 472              		.cfi_restore 23
 473              		.cfi_restore 22
 474              		.cfi_restore 21
 475              		.cfi_restore 20
 476              		.cfi_restore 19
 477              		.cfi_restore 18
 478              		.cfi_restore 9
 479              		.cfi_restore 8
 480              		.cfi_restore 1
 481              		.cfi_def_cfa_offset -48
 482              	.LVL45:
 483              	.L23:
 484              		.cfi_restore_state
 109:C:/Users/stapi/OneDrive/Desktop/GD32VW553/V1_MQTT_OK/GD32VW55X_Wifi_BLE_SDK/GD32VW55x_RELEASE_V1.0.2/MSDK/cloud/alicloud/src/protocol/alcs\alcs_mqtt.c ****     if (key_source == NULL) {
 485              		.loc 1 109 5 is_stmt 1
 109:C:/Users/stapi/OneDrive/Desktop/GD32VW553/V1_MQTT_OK/GD32VW55X_Wifi_BLE_SDK/GD32VW55x_RELEASE_V1.0.2/MSDK/cloud/alicloud/src/protocol/alcs\alcs_mqtt.c ****     if (key_source == NULL) {
 486              		.loc 1 109 18 is_stmt 0
 487 008e 33045A01 		add	s0,s4,s5
 488 0092 0504     		addi	s0,s0,1
 489 0094 2286     		mv	a2,s0
 490 0096 8145     		li	a1,0
 491 0098 0145     		li	a0,0
 492 009a 97000000 		call	LITE_malloc_internal
 492      E7800000 
 493              	.LVL46:
 494 00a2 AA84     		mv	s1,a0
 495              	.LVL47:
 110:C:/Users/stapi/OneDrive/Desktop/GD32VW553/V1_MQTT_OK/GD32VW55X_Wifi_BLE_SDK/GD32VW55x_RELEASE_V1.0.2/MSDK/cloud/alicloud/src/protocol/alcs\alcs_mqtt.c ****         COAP_ERR("No Enough Memory");
 496              		.loc 1 110 5 is_stmt 1
 110:C:/Users/stapi/OneDrive/Desktop/GD32VW553/V1_MQTT_OK/GD32VW55X_Wifi_BLE_SDK/GD32VW55x_RELEASE_V1.0.2/MSDK/cloud/alicloud/src/protocol/alcs\alcs_mqtt.c ****         COAP_ERR("No Enough Memory");
 497              		.loc 1 110 8 is_stmt 0
 498 00a4 11ED     		bne	a0,zero,.L25
 111:C:/Users/stapi/OneDrive/Desktop/GD32VW553/V1_MQTT_OK/GD32VW55X_Wifi_BLE_SDK/GD32VW55x_RELEASE_V1.0.2/MSDK/cloud/alicloud/src/protocol/alcs\alcs_mqtt.c ****         return ALCS_MQTT_STATUS_ERROR;
 499              		.loc 1 111 9 is_stmt 1
 111:C:/Users/stapi/OneDrive/Desktop/GD32VW553/V1_MQTT_OK/GD32VW55X_Wifi_BLE_SDK/GD32VW55x_RELEASE_V1.0.2/MSDK/cloud/alicloud/src/protocol/alcs\alcs_mqtt.c ****         return ALCS_MQTT_STATUS_ERROR;
 500              		.loc 1 111 9
 501 00a6 37050000 		lui	a0,%hi(.LC7)
 502 00aa 13050500 		addi	a0,a0,%lo(.LC7)
 503 00ae 97000000 		call	HAL_Printf
 503      E7800000 
 504              	.LVL48:
 111:C:/Users/stapi/OneDrive/Desktop/GD32VW553/V1_MQTT_OK/GD32VW55X_Wifi_BLE_SDK/GD32VW55x_RELEASE_V1.0.2/MSDK/cloud/alicloud/src/protocol/alcs\alcs_mqtt.c ****         return ALCS_MQTT_STATUS_ERROR;
 505              		.loc 1 111 9
 506 00b6 37050000 		lui	a0,%hi(.LC9)
 507 00ba 13050500 		addi	a0,a0,%lo(.LC9)
 508 00be 6DB7     		j	.L40
 509              	.L25:
 114:C:/Users/stapi/OneDrive/Desktop/GD32VW553/V1_MQTT_OK/GD32VW55X_Wifi_BLE_SDK/GD32VW55x_RELEASE_V1.0.2/MSDK/cloud/alicloud/src/protocol/alcs\alcs_mqtt.c **** 
 510              		.loc 1 114 5
 511 00c0 2286     		mv	a2,s0
 512 00c2 8145     		li	a1,0
 513 00c4 97000000 		call	memset
 513      E7800000 
 514              	.LVL49:
 116:C:/Users/stapi/OneDrive/Desktop/GD32VW553/V1_MQTT_OK/GD32VW55X_Wifi_BLE_SDK/GD32VW55x_RELEASE_V1.0.2/MSDK/cloud/alicloud/src/protocol/alcs\alcs_mqtt.c **** 
 515              		.loc 1 116 5
 516 00cc 6287     		mv	a4,s8
 517 00ce 370C0000 		lui	s8,%hi(.LC10)
 518              	.LVL50:
 519 00d2 D687     		mv	a5,s5
 520 00d4 D286     		mv	a3,s4
 521 00d6 6688     		mv	a6,s9
 522 00d8 A285     		mv	a1,s0
 523 00da 13060C00 		addi	a2,s8,%lo(.LC10)
 524 00de 2685     		mv	a0,s1
 525 00e0 97000000 		call	HAL_Snprintf
 525      E7800000 
 526              	.LVL51:
 118:C:/Users/stapi/OneDrive/Desktop/GD32VW553/V1_MQTT_OK/GD32VW55X_Wifi_BLE_SDK/GD32VW55x_RELEASE_V1.0.2/MSDK/cloud/alicloud/src/protocol/alcs\alcs_mqtt.c ****     utils_md5_hexstr(key_md5, (unsigned char *)key_md5_hexstr);
 527              		.loc 1 118 5
 528 00e8 2685     		mv	a0,s1
 529 00ea 97000000 		call	strlen
 529      E7800000 
 530              	.LVL52:
 531 00f2 AA85     		mv	a1,a0
 532 00f4 7000     		addi	a2,sp,12
 533 00f6 2685     		mv	a0,s1
 534 00f8 97000000 		call	utils_md5
 534      E7800000 
 535              	.LVL53:
 119:C:/Users/stapi/OneDrive/Desktop/GD32VW553/V1_MQTT_OK/GD32VW55X_Wifi_BLE_SDK/GD32VW55x_RELEASE_V1.0.2/MSDK/cloud/alicloud/src/protocol/alcs\alcs_mqtt.c **** 
 536              		.loc 1 119 5
 537 0100 6C08     		addi	a1,sp,28
 538 0102 6800     		addi	a0,sp,12
 122:C:/Users/stapi/OneDrive/Desktop/GD32VW553/V1_MQTT_OK/GD32VW55X_Wifi_BLE_SDK/GD32VW55x_RELEASE_V1.0.2/MSDK/cloud/alicloud/src/protocol/alcs\alcs_mqtt.c ****     if (value == NULL) {
 539              		.loc 1 122 13 is_stmt 0
 540 0104 B30A3901 		add	s5,s2,s3
 119:C:/Users/stapi/OneDrive/Desktop/GD32VW553/V1_MQTT_OK/GD32VW55X_Wifi_BLE_SDK/GD32VW55x_RELEASE_V1.0.2/MSDK/cloud/alicloud/src/protocol/alcs\alcs_mqtt.c **** 
 541              		.loc 1 119 5
 542 0108 97000000 		call	utils_md5_hexstr
 542      E7800000 
 543              	.LVL54:
 122:C:/Users/stapi/OneDrive/Desktop/GD32VW553/V1_MQTT_OK/GD32VW55X_Wifi_BLE_SDK/GD32VW55x_RELEASE_V1.0.2/MSDK/cloud/alicloud/src/protocol/alcs\alcs_mqtt.c ****     if (value == NULL) {
 544              		.loc 1 122 5 is_stmt 1
 122:C:/Users/stapi/OneDrive/Desktop/GD32VW553/V1_MQTT_OK/GD32VW55X_Wifi_BLE_SDK/GD32VW55x_RELEASE_V1.0.2/MSDK/cloud/alicloud/src/protocol/alcs\alcs_mqtt.c ****     if (value == NULL) {
 545              		.loc 1 122 13 is_stmt 0
 546 0110 138A3A00 		addi	s4,s5,3
 547 0114 5286     		mv	a2,s4
 548 0116 8145     		li	a1,0
 549 0118 0145     		li	a0,0
 550 011a 97000000 		call	LITE_malloc_internal
 550      E7800000 
 551              	.LVL55:
 552 0122 2A84     		mv	s0,a0
 553              	.LVL56:
 123:C:/Users/stapi/OneDrive/Desktop/GD32VW553/V1_MQTT_OK/GD32VW55X_Wifi_BLE_SDK/GD32VW55x_RELEASE_V1.0.2/MSDK/cloud/alicloud/src/protocol/alcs\alcs_mqtt.c ****         COAP_ERR("No Enough Memory");
 554              		.loc 1 123 5 is_stmt 1
 123:C:/Users/stapi/OneDrive/Desktop/GD32VW553/V1_MQTT_OK/GD32VW55X_Wifi_BLE_SDK/GD32VW55x_RELEASE_V1.0.2/MSDK/cloud/alicloud/src/protocol/alcs\alcs_mqtt.c ****         COAP_ERR("No Enough Memory");
 555              		.loc 1 123 8 is_stmt 0
 556 0124 1DED     		bne	a0,zero,.L26
 124:C:/Users/stapi/OneDrive/Desktop/GD32VW553/V1_MQTT_OK/GD32VW55X_Wifi_BLE_SDK/GD32VW55x_RELEASE_V1.0.2/MSDK/cloud/alicloud/src/protocol/alcs\alcs_mqtt.c ****         LITE_free(key_source);
 557              		.loc 1 124 9 is_stmt 1
 124:C:/Users/stapi/OneDrive/Desktop/GD32VW553/V1_MQTT_OK/GD32VW55X_Wifi_BLE_SDK/GD32VW55x_RELEASE_V1.0.2/MSDK/cloud/alicloud/src/protocol/alcs\alcs_mqtt.c ****         LITE_free(key_source);
 558              		.loc 1 124 9
 559 0126 37050000 		lui	a0,%hi(.LC7)
 560 012a 13050500 		addi	a0,a0,%lo(.LC7)
 561 012e 97000000 		call	HAL_Printf
 561      E7800000 
 562              	.LVL57:
 124:C:/Users/stapi/OneDrive/Desktop/GD32VW553/V1_MQTT_OK/GD32VW55X_Wifi_BLE_SDK/GD32VW55x_RELEASE_V1.0.2/MSDK/cloud/alicloud/src/protocol/alcs\alcs_mqtt.c ****         LITE_free(key_source);
 563              		.loc 1 124 9
 564 0136 37050000 		lui	a0,%hi(.LC9)
 565 013a 13050500 		addi	a0,a0,%lo(.LC9)
 566 013e 97000000 		call	HAL_Printf
 566      E7800000 
 567              	.LVL58:
 124:C:/Users/stapi/OneDrive/Desktop/GD32VW553/V1_MQTT_OK/GD32VW55X_Wifi_BLE_SDK/GD32VW55x_RELEASE_V1.0.2/MSDK/cloud/alicloud/src/protocol/alcs\alcs_mqtt.c ****         LITE_free(key_source);
 568              		.loc 1 124 9
 569 0146 37050000 		lui	a0,%hi(.LC2)
 570 014a 13050500 		addi	a0,a0,%lo(.LC2)
 571 014e 97000000 		call	HAL_Printf
 571      E7800000 
 572              	.LVL59:
 124:C:/Users/stapi/OneDrive/Desktop/GD32VW553/V1_MQTT_OK/GD32VW55X_Wifi_BLE_SDK/GD32VW55x_RELEASE_V1.0.2/MSDK/cloud/alicloud/src/protocol/alcs\alcs_mqtt.c ****         LITE_free(key_source);
 573              		.loc 1 124 9
 125:C:/Users/stapi/OneDrive/Desktop/GD32VW553/V1_MQTT_OK/GD32VW55X_Wifi_BLE_SDK/GD32VW55x_RELEASE_V1.0.2/MSDK/cloud/alicloud/src/protocol/alcs\alcs_mqtt.c ****         return ALCS_MQTT_STATUS_ERROR;
 574              		.loc 1 125 9
 575 0156 2685     		mv	a0,s1
 576              	.L38:
 141:C:/Users/stapi/OneDrive/Desktop/GD32VW553/V1_MQTT_OK/GD32VW55X_Wifi_BLE_SDK/GD32VW55x_RELEASE_V1.0.2/MSDK/cloud/alicloud/src/protocol/alcs\alcs_mqtt.c ****         return ALCS_MQTT_STATUS_ERROR;
 577              		.loc 1 141 9 is_stmt 0
 578 0158 97000000 		call	LITE_free_internal
 578      E7800000 
 579              	.LVL60:
 580 0160 05B7     		j	.L39
 581              	.L26:
 128:C:/Users/stapi/OneDrive/Desktop/GD32VW553/V1_MQTT_OK/GD32VW55X_Wifi_BLE_SDK/GD32VW55x_RELEASE_V1.0.2/MSDK/cloud/alicloud/src/protocol/alcs\alcs_mqtt.c **** 
 582              		.loc 1 128 5 is_stmt 1
 583 0162 5286     		mv	a2,s4
 584 0164 8145     		li	a1,0
 585 0166 97000000 		call	memset
 585      E7800000 
 586              	.LVL61:
 130:C:/Users/stapi/OneDrive/Desktop/GD32VW553/V1_MQTT_OK/GD32VW55X_Wifi_BLE_SDK/GD32VW55x_RELEASE_V1.0.2/MSDK/cloud/alicloud/src/protocol/alcs\alcs_mqtt.c ****     value[1] = secret_len;
 587              		.loc 1 130 5
 132:C:/Users/stapi/OneDrive/Desktop/GD32VW553/V1_MQTT_OK/GD32VW55X_Wifi_BLE_SDK/GD32VW55x_RELEASE_V1.0.2/MSDK/cloud/alicloud/src/protocol/alcs\alcs_mqtt.c **** #ifndef DEVICE_MODEL_GATEWAY 
 588              		.loc 1 132 5 is_stmt 0
 589 016e CA86     		mv	a3,s2
 590 0170 5E88     		mv	a6,s7
 591 0172 CE87     		mv	a5,s3
 592 0174 5A87     		mv	a4,s6
 593 0176 13060C00 		addi	a2,s8,%lo(.LC10)
 594 017a 93851A00 		addi	a1,s5,1
 130:C:/Users/stapi/OneDrive/Desktop/GD32VW553/V1_MQTT_OK/GD32VW55X_Wifi_BLE_SDK/GD32VW55x_RELEASE_V1.0.2/MSDK/cloud/alicloud/src/protocol/alcs\alcs_mqtt.c ****     value[1] = secret_len;
 595              		.loc 1 130 14
 596 017e 23002401 		sb	s2,0(s0)
 131:C:/Users/stapi/OneDrive/Desktop/GD32VW553/V1_MQTT_OK/GD32VW55X_Wifi_BLE_SDK/GD32VW55x_RELEASE_V1.0.2/MSDK/cloud/alicloud/src/protocol/alcs\alcs_mqtt.c ****     HAL_Snprintf(&value[2], prefix_len + secret_len + 1, "%.*s%.*s", prefix_len, prefix, secret_len
 597              		.loc 1 131 5 is_stmt 1
 131:C:/Users/stapi/OneDrive/Desktop/GD32VW553/V1_MQTT_OK/GD32VW55X_Wifi_BLE_SDK/GD32VW55x_RELEASE_V1.0.2/MSDK/cloud/alicloud/src/protocol/alcs\alcs_mqtt.c ****     HAL_Snprintf(&value[2], prefix_len + secret_len + 1, "%.*s%.*s", prefix_len, prefix, secret_len
 598              		.loc 1 131 14 is_stmt 0
 599 0182 A3003401 		sb	s3,1(s0)
 132:C:/Users/stapi/OneDrive/Desktop/GD32VW553/V1_MQTT_OK/GD32VW55X_Wifi_BLE_SDK/GD32VW55x_RELEASE_V1.0.2/MSDK/cloud/alicloud/src/protocol/alcs\alcs_mqtt.c **** #ifndef DEVICE_MODEL_GATEWAY 
 600              		.loc 1 132 5 is_stmt 1
 601 0186 13052400 		addi	a0,s0,2
 602 018a 97000000 		call	HAL_Snprintf
 602      E7800000 
 603              	.LVL62:
 134:C:/Users/stapi/OneDrive/Desktop/GD32VW553/V1_MQTT_OK/GD32VW55X_Wifi_BLE_SDK/GD32VW55x_RELEASE_V1.0.2/MSDK/cloud/alicloud/src/protocol/alcs\alcs_mqtt.c ****     if (ALCS_MQTT_STATUS_SUCCESS != __alcs_mqtt_kv_set(ALCS_KEY, value, prefix_len + secret_len + 3
 604              		.loc 1 134 5
 605 0192 6808     		addi	a0,sp,28
 606 0194 97000000 		call	__alcs_mqtt_kv_del
 606      E7800000 
 607              	.LVL63:
 135:C:/Users/stapi/OneDrive/Desktop/GD32VW553/V1_MQTT_OK/GD32VW55X_Wifi_BLE_SDK/GD32VW55x_RELEASE_V1.0.2/MSDK/cloud/alicloud/src/protocol/alcs\alcs_mqtt.c **** #else
 608              		.loc 1 135 5
 135:C:/Users/stapi/OneDrive/Desktop/GD32VW553/V1_MQTT_OK/GD32VW55X_Wifi_BLE_SDK/GD32VW55x_RELEASE_V1.0.2/MSDK/cloud/alicloud/src/protocol/alcs\alcs_mqtt.c **** #else
 609              		.loc 1 135 37 is_stmt 0
 610 019c 37050000 		lui	a0,%hi(.LC11)
 611 01a0 5286     		mv	a2,s4
 612 01a2 A285     		mv	a1,s0
 613 01a4 13050500 		addi	a0,a0,%lo(.LC11)
 614 01a8 97000000 		call	__alcs_mqtt_kv_set.constprop.0
 614      E7800000 
 615              	.LVL64:
 616 01b0 2A89     		mv	s2,a0
 135:C:/Users/stapi/OneDrive/Desktop/GD32VW553/V1_MQTT_OK/GD32VW55X_Wifi_BLE_SDK/GD32VW55x_RELEASE_V1.0.2/MSDK/cloud/alicloud/src/protocol/alcs\alcs_mqtt.c **** #else
 617              		.loc 1 135 8
 618 01b2 21C1     		beq	a0,zero,.L27
 139:C:/Users/stapi/OneDrive/Desktop/GD32VW553/V1_MQTT_OK/GD32VW55X_Wifi_BLE_SDK/GD32VW55x_RELEASE_V1.0.2/MSDK/cloud/alicloud/src/protocol/alcs\alcs_mqtt.c ****         LITE_free(key_source);
 619              		.loc 1 139 9 is_stmt 1
 139:C:/Users/stapi/OneDrive/Desktop/GD32VW553/V1_MQTT_OK/GD32VW55X_Wifi_BLE_SDK/GD32VW55x_RELEASE_V1.0.2/MSDK/cloud/alicloud/src/protocol/alcs\alcs_mqtt.c ****         LITE_free(key_source);
 620              		.loc 1 139 9
 621 01b4 37050000 		lui	a0,%hi(.LC7)
 622 01b8 13050500 		addi	a0,a0,%lo(.LC7)
 623 01bc 97000000 		call	HAL_Printf
 623      E7800000 
 624              	.LVL65:
 139:C:/Users/stapi/OneDrive/Desktop/GD32VW553/V1_MQTT_OK/GD32VW55X_Wifi_BLE_SDK/GD32VW55x_RELEASE_V1.0.2/MSDK/cloud/alicloud/src/protocol/alcs\alcs_mqtt.c ****         LITE_free(key_source);
 625              		.loc 1 139 9
 626 01c4 37050000 		lui	a0,%hi(.LC12)
 627 01c8 13050500 		addi	a0,a0,%lo(.LC12)
 628 01cc 97000000 		call	HAL_Printf
 628      E7800000 
 629              	.LVL66:
 139:C:/Users/stapi/OneDrive/Desktop/GD32VW553/V1_MQTT_OK/GD32VW55X_Wifi_BLE_SDK/GD32VW55x_RELEASE_V1.0.2/MSDK/cloud/alicloud/src/protocol/alcs\alcs_mqtt.c ****         LITE_free(key_source);
 630              		.loc 1 139 9
 631 01d4 37050000 		lui	a0,%hi(.LC2)
 632 01d8 13050500 		addi	a0,a0,%lo(.LC2)
 633 01dc 97000000 		call	HAL_Printf
 633      E7800000 
 634              	.LVL67:
 139:C:/Users/stapi/OneDrive/Desktop/GD32VW553/V1_MQTT_OK/GD32VW55X_Wifi_BLE_SDK/GD32VW55x_RELEASE_V1.0.2/MSDK/cloud/alicloud/src/protocol/alcs\alcs_mqtt.c ****         LITE_free(key_source);
 635              		.loc 1 139 9
 140:C:/Users/stapi/OneDrive/Desktop/GD32VW553/V1_MQTT_OK/GD32VW55X_Wifi_BLE_SDK/GD32VW55x_RELEASE_V1.0.2/MSDK/cloud/alicloud/src/protocol/alcs\alcs_mqtt.c ****         LITE_free(value);
 636              		.loc 1 140 9
 637 01e4 2685     		mv	a0,s1
 638 01e6 97000000 		call	LITE_free_internal
 638      E7800000 
 639              	.LVL68:
 141:C:/Users/stapi/OneDrive/Desktop/GD32VW553/V1_MQTT_OK/GD32VW55X_Wifi_BLE_SDK/GD32VW55x_RELEASE_V1.0.2/MSDK/cloud/alicloud/src/protocol/alcs\alcs_mqtt.c ****         return ALCS_MQTT_STATUS_ERROR;
 640              		.loc 1 141 9
 641 01ee 2285     		mv	a0,s0
 642 01f0 A5B7     		j	.L38
 643              	.L27:
 145:C:/Users/stapi/OneDrive/Desktop/GD32VW553/V1_MQTT_OK/GD32VW55X_Wifi_BLE_SDK/GD32VW55x_RELEASE_V1.0.2/MSDK/cloud/alicloud/src/protocol/alcs\alcs_mqtt.c ****     LITE_free(value);
 644              		.loc 1 145 5
 645 01f2 2685     		mv	a0,s1
 646 01f4 97000000 		call	LITE_free_internal
 646      E7800000 
 647              	.LVL69:
 146:C:/Users/stapi/OneDrive/Desktop/GD32VW553/V1_MQTT_OK/GD32VW55X_Wifi_BLE_SDK/GD32VW55x_RELEASE_V1.0.2/MSDK/cloud/alicloud/src/protocol/alcs\alcs_mqtt.c ****     return ALCS_MQTT_STATUS_SUCCESS;
 648              		.loc 1 146 5
 649 01fc 2285     		mv	a0,s0
 650 01fe 97000000 		call	LITE_free_internal
 650      E7800000 
 651              	.LVL70:
 147:C:/Users/stapi/OneDrive/Desktop/GD32VW553/V1_MQTT_OK/GD32VW55X_Wifi_BLE_SDK/GD32VW55x_RELEASE_V1.0.2/MSDK/cloud/alicloud/src/protocol/alcs\alcs_mqtt.c **** }
 652              		.loc 1 147 5
 147:C:/Users/stapi/OneDrive/Desktop/GD32VW553/V1_MQTT_OK/GD32VW55X_Wifi_BLE_SDK/GD32VW55x_RELEASE_V1.0.2/MSDK/cloud/alicloud/src/protocol/alcs\alcs_mqtt.c **** }
 653              		.loc 1 147 12 is_stmt 0
 654 0206 B5BD     		j	.L21
 655              		.cfi_endproc
 656              	.LFE26:
 658              		.section	.rodata.alcs_mqtt_prefix_secret_load.str1.4,"aMS",@progbits,1
 659              		.align	2
 660              	.LC13:
 661 0000 414C4353 		.string	"ALCS KV Get Prefix And Secret Fail"
 661      204B5620 
 661      47657420 
 661      50726566 
 661      69782041 
 662              		.section	.text.alcs_mqtt_prefix_secret_load,"ax",@progbits
 663              		.align	1
 664              		.globl	alcs_mqtt_prefix_secret_load
 666              	alcs_mqtt_prefix_secret_load:
 667              	.LFB27:
 153:C:/Users/stapi/OneDrive/Desktop/GD32VW553/V1_MQTT_OK/GD32VW55X_Wifi_BLE_SDK/GD32VW55x_RELEASE_V1.0.2/MSDK/cloud/alicloud/src/protocol/alcs\alcs_mqtt.c ****     char *key_source = NULL;
 668              		.loc 1 153 1 is_stmt 1
 669              		.cfi_startproc
 670              	.LVL71:
 671 0000 17030000 		call	t0,__riscv_save_8
 671      E7020300 
 672              		.cfi_offset 23, -36
 673              		.cfi_offset 22, -32
 674              		.cfi_offset 21, -28
 675              		.cfi_offset 20, -24
 676              		.cfi_offset 19, -20
 677              		.cfi_offset 18, -16
 678              		.cfi_offset 9, -12
 679              		.cfi_offset 8, -8
 680              		.cfi_offset 1, -4
 681              		.cfi_def_cfa_offset 48
 154:C:/Users/stapi/OneDrive/Desktop/GD32VW553/V1_MQTT_OK/GD32VW55X_Wifi_BLE_SDK/GD32VW55x_RELEASE_V1.0.2/MSDK/cloud/alicloud/src/protocol/alcs\alcs_mqtt.c ****     uint8_t key_md5[16] = {0};
 682              		.loc 1 154 5
 683              	.LVL72:
 155:C:/Users/stapi/OneDrive/Desktop/GD32VW553/V1_MQTT_OK/GD32VW55X_Wifi_BLE_SDK/GD32VW55x_RELEASE_V1.0.2/MSDK/cloud/alicloud/src/protocol/alcs\alcs_mqtt.c ****     char key_md5_hexstr[33] = {0};
 684              		.loc 1 155 5
 153:C:/Users/stapi/OneDrive/Desktop/GD32VW553/V1_MQTT_OK/GD32VW55X_Wifi_BLE_SDK/GD32VW55x_RELEASE_V1.0.2/MSDK/cloud/alicloud/src/protocol/alcs\alcs_mqtt.c ****     char *key_source = NULL;
 685              		.loc 1 153 1 is_stmt 0
 686 0008 3171     		addi	sp,sp,-192
 687              		.cfi_def_cfa_offset 240
 153:C:/Users/stapi/OneDrive/Desktop/GD32VW553/V1_MQTT_OK/GD32VW55X_Wifi_BLE_SDK/GD32VW55x_RELEASE_V1.0.2/MSDK/cloud/alicloud/src/protocol/alcs\alcs_mqtt.c ****     char *key_source = NULL;
 688              		.loc 1 153 1
 689 000a 2A89     		mv	s2,a0
 690 000c 2E8B     		mv	s6,a1
 691 000e B289     		mv	s3,a2
 156:C:/Users/stapi/OneDrive/Desktop/GD32VW553/V1_MQTT_OK/GD32VW55X_Wifi_BLE_SDK/GD32VW55x_RELEASE_V1.0.2/MSDK/cloud/alicloud/src/protocol/alcs\alcs_mqtt.c ****     char value[128] = {0};
 692              		.loc 1 156 10
 693 0010 8145     		li	a1,0
 694              	.LVL73:
 695 0012 7546     		li	a2,29
 696              	.LVL74:
 697 0014 0810     		addi	a0,sp,32
 698              	.LVL75:
 153:C:/Users/stapi/OneDrive/Desktop/GD32VW553/V1_MQTT_OK/GD32VW55X_Wifi_BLE_SDK/GD32VW55x_RELEASE_V1.0.2/MSDK/cloud/alicloud/src/protocol/alcs\alcs_mqtt.c ****     char *key_source = NULL;
 699              		.loc 1 153 1
 700 0016 3E8A     		mv	s4,a5
 701 0018 B68B     		mv	s7,a3
 702 001a BA8A     		mv	s5,a4
 155:C:/Users/stapi/OneDrive/Desktop/GD32VW553/V1_MQTT_OK/GD32VW55X_Wifi_BLE_SDK/GD32VW55x_RELEASE_V1.0.2/MSDK/cloud/alicloud/src/protocol/alcs\alcs_mqtt.c ****     char key_md5_hexstr[33] = {0};
 703              		.loc 1 155 13
 704 001c 02C6     		sw	zero,12(sp)
 705 001e 02C8     		sw	zero,16(sp)
 706 0020 02CA     		sw	zero,20(sp)
 707 0022 02CC     		sw	zero,24(sp)
 156:C:/Users/stapi/OneDrive/Desktop/GD32VW553/V1_MQTT_OK/GD32VW55X_Wifi_BLE_SDK/GD32VW55x_RELEASE_V1.0.2/MSDK/cloud/alicloud/src/protocol/alcs\alcs_mqtt.c ****     char value[128] = {0};
 708              		.loc 1 156 5 is_stmt 1
 156:C:/Users/stapi/OneDrive/Desktop/GD32VW553/V1_MQTT_OK/GD32VW55X_Wifi_BLE_SDK/GD32VW55x_RELEASE_V1.0.2/MSDK/cloud/alicloud/src/protocol/alcs\alcs_mqtt.c ****     char value[128] = {0};
 709              		.loc 1 156 10 is_stmt 0
 710 0024 02CE     		sw	zero,28(sp)
 711 0026 97000000 		call	memset
 711      E7800000 
 712              	.LVL76:
 157:C:/Users/stapi/OneDrive/Desktop/GD32VW553/V1_MQTT_OK/GD32VW55X_Wifi_BLE_SDK/GD32VW55x_RELEASE_V1.0.2/MSDK/cloud/alicloud/src/protocol/alcs\alcs_mqtt.c ****     int value_len = sizeof(value);
 713              		.loc 1 157 5 is_stmt 1
 157:C:/Users/stapi/OneDrive/Desktop/GD32VW553/V1_MQTT_OK/GD32VW55X_Wifi_BLE_SDK/GD32VW55x_RELEASE_V1.0.2/MSDK/cloud/alicloud/src/protocol/alcs\alcs_mqtt.c ****     int value_len = sizeof(value);
 714              		.loc 1 157 10 is_stmt 0
 715 002e 1306C007 		li	a2,124
 716 0032 8145     		li	a1,0
 717 0034 C800     		addi	a0,sp,68
 718 0036 82C0     		sw	zero,64(sp)
 719 0038 97000000 		call	memset
 719      E7800000 
 720              	.LVL77:
 158:C:/Users/stapi/OneDrive/Desktop/GD32VW553/V1_MQTT_OK/GD32VW55X_Wifi_BLE_SDK/GD32VW55x_RELEASE_V1.0.2/MSDK/cloud/alicloud/src/protocol/alcs\alcs_mqtt.c **** 
 721              		.loc 1 158 5 is_stmt 1
 158:C:/Users/stapi/OneDrive/Desktop/GD32VW553/V1_MQTT_OK/GD32VW55X_Wifi_BLE_SDK/GD32VW55x_RELEASE_V1.0.2/MSDK/cloud/alicloud/src/protocol/alcs\alcs_mqtt.c **** 
 722              		.loc 1 158 9 is_stmt 0
 723 0040 93070008 		li	a5,128
 724 0044 3EC4     		sw	a5,8(sp)
 160:C:/Users/stapi/OneDrive/Desktop/GD32VW553/V1_MQTT_OK/GD32VW55X_Wifi_BLE_SDK/GD32VW55x_RELEASE_V1.0.2/MSDK/cloud/alicloud/src/protocol/alcs\alcs_mqtt.c ****         dn == NULL || strlen(dn) >= DEVICE_NAME_MAXLEN ||
 725              		.loc 1 160 5 is_stmt 1
 160:C:/Users/stapi/OneDrive/Desktop/GD32VW553/V1_MQTT_OK/GD32VW55X_Wifi_BLE_SDK/GD32VW55x_RELEASE_V1.0.2/MSDK/cloud/alicloud/src/protocol/alcs\alcs_mqtt.c ****         dn == NULL || strlen(dn) >= DEVICE_NAME_MAXLEN ||
 726              		.loc 1 160 8 is_stmt 0
 727 0046 63090902 		beq	s2,zero,.L42
 160:C:/Users/stapi/OneDrive/Desktop/GD32VW553/V1_MQTT_OK/GD32VW55X_Wifi_BLE_SDK/GD32VW55x_RELEASE_V1.0.2/MSDK/cloud/alicloud/src/protocol/alcs\alcs_mqtt.c ****         dn == NULL || strlen(dn) >= DEVICE_NAME_MAXLEN ||
 728              		.loc 1 160 23 discriminator 1
 729 004a 4A85     		mv	a0,s2
 730 004c 97000000 		call	strlen
 730      E7800000 
 731              	.LVL78:
 160:C:/Users/stapi/OneDrive/Desktop/GD32VW553/V1_MQTT_OK/GD32VW55X_Wifi_BLE_SDK/GD32VW55x_RELEASE_V1.0.2/MSDK/cloud/alicloud/src/protocol/alcs\alcs_mqtt.c ****         dn == NULL || strlen(dn) >= DEVICE_NAME_MAXLEN ||
 732              		.loc 1 160 20 discriminator 1
 733 0054 D147     		li	a5,20
 734 0056 63E1A702 		bgtu	a0,a5,.L42
 160:C:/Users/stapi/OneDrive/Desktop/GD32VW553/V1_MQTT_OK/GD32VW55X_Wifi_BLE_SDK/GD32VW55x_RELEASE_V1.0.2/MSDK/cloud/alicloud/src/protocol/alcs\alcs_mqtt.c ****         dn == NULL || strlen(dn) >= DEVICE_NAME_MAXLEN ||
 735              		.loc 1 160 56 discriminator 2
 736 005a 638F0900 		beq	s3,zero,.L42
 161:C:/Users/stapi/OneDrive/Desktop/GD32VW553/V1_MQTT_OK/GD32VW55X_Wifi_BLE_SDK/GD32VW55x_RELEASE_V1.0.2/MSDK/cloud/alicloud/src/protocol/alcs\alcs_mqtt.c ****         prefix == NULL || secret == NULL) {
 737              		.loc 1 161 23
 738 005e 4E85     		mv	a0,s3
 739 0060 97000000 		call	strlen
 739      E7800000 
 740              	.LVL79:
 161:C:/Users/stapi/OneDrive/Desktop/GD32VW553/V1_MQTT_OK/GD32VW55X_Wifi_BLE_SDK/GD32VW55x_RELEASE_V1.0.2/MSDK/cloud/alicloud/src/protocol/alcs\alcs_mqtt.c ****         prefix == NULL || secret == NULL) {
 741              		.loc 1 161 20
 742 0068 93070002 		li	a5,32
 743 006c 63E6A700 		bgtu	a0,a5,.L42
 161:C:/Users/stapi/OneDrive/Desktop/GD32VW553/V1_MQTT_OK/GD32VW55X_Wifi_BLE_SDK/GD32VW55x_RELEASE_V1.0.2/MSDK/cloud/alicloud/src/protocol/alcs\alcs_mqtt.c ****         prefix == NULL || secret == NULL) {
 744              		.loc 1 161 56 discriminator 1
 745 0070 63840A00 		beq	s5,zero,.L42
 162:C:/Users/stapi/OneDrive/Desktop/GD32VW553/V1_MQTT_OK/GD32VW55X_Wifi_BLE_SDK/GD32VW55x_RELEASE_V1.0.2/MSDK/cloud/alicloud/src/protocol/alcs\alcs_mqtt.c ****         COAP_ERR("Invalid Parameter");
 746              		.loc 1 162 24
 747 0074 63110A04 		bne	s4,zero,.L43
 748              	.L42:
 163:C:/Users/stapi/OneDrive/Desktop/GD32VW553/V1_MQTT_OK/GD32VW55X_Wifi_BLE_SDK/GD32VW55x_RELEASE_V1.0.2/MSDK/cloud/alicloud/src/protocol/alcs\alcs_mqtt.c ****         return ALCS_MQTT_STATUS_ERROR;
 749              		.loc 1 163 9 is_stmt 1
 163:C:/Users/stapi/OneDrive/Desktop/GD32VW553/V1_MQTT_OK/GD32VW55X_Wifi_BLE_SDK/GD32VW55x_RELEASE_V1.0.2/MSDK/cloud/alicloud/src/protocol/alcs\alcs_mqtt.c ****         return ALCS_MQTT_STATUS_ERROR;
 750              		.loc 1 163 9
 751 0078 37050000 		lui	a0,%hi(.LC7)
 752 007c 13050500 		addi	a0,a0,%lo(.LC7)
 753 0080 97000000 		call	HAL_Printf
 753      E7800000 
 754              	.LVL80:
 163:C:/Users/stapi/OneDrive/Desktop/GD32VW553/V1_MQTT_OK/GD32VW55X_Wifi_BLE_SDK/GD32VW55x_RELEASE_V1.0.2/MSDK/cloud/alicloud/src/protocol/alcs\alcs_mqtt.c ****         return ALCS_MQTT_STATUS_ERROR;
 755              		.loc 1 163 9
 756 0088 37050000 		lui	a0,%hi(.LC8)
 757 008c 13050500 		addi	a0,a0,%lo(.LC8)
 758              	.LVL81:
 759              	.L58:
 170:C:/Users/stapi/OneDrive/Desktop/GD32VW553/V1_MQTT_OK/GD32VW55X_Wifi_BLE_SDK/GD32VW55x_RELEASE_V1.0.2/MSDK/cloud/alicloud/src/protocol/alcs\alcs_mqtt.c ****         return ALCS_MQTT_STATUS_ERROR;
 760              		.loc 1 170 9 is_stmt 0
 761 0090 97000000 		call	HAL_Printf
 761      E7800000 
 762              	.LVL82:
 170:C:/Users/stapi/OneDrive/Desktop/GD32VW553/V1_MQTT_OK/GD32VW55X_Wifi_BLE_SDK/GD32VW55x_RELEASE_V1.0.2/MSDK/cloud/alicloud/src/protocol/alcs\alcs_mqtt.c ****         return ALCS_MQTT_STATUS_ERROR;
 763              		.loc 1 170 9 is_stmt 1
 764 0098 37050000 		lui	a0,%hi(.LC2)
 765 009c 13050500 		addi	a0,a0,%lo(.LC2)
 766 00a0 97000000 		call	HAL_Printf
 766      E7800000 
 767              	.LVL83:
 170:C:/Users/stapi/OneDrive/Desktop/GD32VW553/V1_MQTT_OK/GD32VW55X_Wifi_BLE_SDK/GD32VW55x_RELEASE_V1.0.2/MSDK/cloud/alicloud/src/protocol/alcs\alcs_mqtt.c ****         return ALCS_MQTT_STATUS_ERROR;
 768              		.loc 1 170 9
 171:C:/Users/stapi/OneDrive/Desktop/GD32VW553/V1_MQTT_OK/GD32VW55X_Wifi_BLE_SDK/GD32VW55x_RELEASE_V1.0.2/MSDK/cloud/alicloud/src/protocol/alcs\alcs_mqtt.c ****     }
 769              		.loc 1 171 9
 770              	.L57:
 188:C:/Users/stapi/OneDrive/Desktop/GD32VW553/V1_MQTT_OK/GD32VW55X_Wifi_BLE_SDK/GD32VW55x_RELEASE_V1.0.2/MSDK/cloud/alicloud/src/protocol/alcs\alcs_mqtt.c ****     }
 771              		.loc 1 188 9
 188:C:/Users/stapi/OneDrive/Desktop/GD32VW553/V1_MQTT_OK/GD32VW55X_Wifi_BLE_SDK/GD32VW55x_RELEASE_V1.0.2/MSDK/cloud/alicloud/src/protocol/alcs\alcs_mqtt.c ****     }
 772              		.loc 1 188 16 is_stmt 0
 773 00a8 8544     		li	s1,1
 774              	.LVL84:
 775              	.L41:
 196:C:/Users/stapi/OneDrive/Desktop/GD32VW553/V1_MQTT_OK/GD32VW55X_Wifi_BLE_SDK/GD32VW55x_RELEASE_V1.0.2/MSDK/cloud/alicloud/src/protocol/alcs\alcs_mqtt.c **** 
 776              		.loc 1 196 1
 777 00aa 2685     		mv	a0,s1
 778 00ac 2961     		addi	sp,sp,192
 779              		.cfi_remember_state
 780              		.cfi_def_cfa_offset 0
 781 00ae 17030000 		tail	__riscv_restore_8
 781      67000300 
 782              		.cfi_restore 23
 783              		.cfi_restore 22
 784              		.cfi_restore 21
 785              		.cfi_restore 20
 786              		.cfi_restore 19
 787              		.cfi_restore 18
 788              		.cfi_restore 9
 789              		.cfi_restore 8
 790              		.cfi_restore 1
 791              		.cfi_def_cfa_offset -48
 792              	.LVL85:
 793              	.L43:
 794              		.cfi_restore_state
 168:C:/Users/stapi/OneDrive/Desktop/GD32VW553/V1_MQTT_OK/GD32VW55X_Wifi_BLE_SDK/GD32VW55x_RELEASE_V1.0.2/MSDK/cloud/alicloud/src/protocol/alcs\alcs_mqtt.c ****     if (key_source == NULL) {
 795              		.loc 1 168 5 is_stmt 1
 168:C:/Users/stapi/OneDrive/Desktop/GD32VW553/V1_MQTT_OK/GD32VW55X_Wifi_BLE_SDK/GD32VW55x_RELEASE_V1.0.2/MSDK/cloud/alicloud/src/protocol/alcs\alcs_mqtt.c ****     if (key_source == NULL) {
 796              		.loc 1 168 18 is_stmt 0
 797 00b6 B3047B01 		add	s1,s6,s7
 798 00ba 8504     		addi	s1,s1,1
 799 00bc 2686     		mv	a2,s1
 800 00be 8145     		li	a1,0
 801 00c0 0145     		li	a0,0
 802 00c2 97000000 		call	LITE_malloc_internal
 802      E7800000 
 803              	.LVL86:
 804 00ca 2A84     		mv	s0,a0
 805              	.LVL87:
 169:C:/Users/stapi/OneDrive/Desktop/GD32VW553/V1_MQTT_OK/GD32VW55X_Wifi_BLE_SDK/GD32VW55x_RELEASE_V1.0.2/MSDK/cloud/alicloud/src/protocol/alcs\alcs_mqtt.c ****         COAP_ERR("No Enough Memory");
 806              		.loc 1 169 5 is_stmt 1
 169:C:/Users/stapi/OneDrive/Desktop/GD32VW553/V1_MQTT_OK/GD32VW55X_Wifi_BLE_SDK/GD32VW55x_RELEASE_V1.0.2/MSDK/cloud/alicloud/src/protocol/alcs\alcs_mqtt.c ****         COAP_ERR("No Enough Memory");
 807              		.loc 1 169 8 is_stmt 0
 808 00cc 11ED     		bne	a0,zero,.L45
 170:C:/Users/stapi/OneDrive/Desktop/GD32VW553/V1_MQTT_OK/GD32VW55X_Wifi_BLE_SDK/GD32VW55x_RELEASE_V1.0.2/MSDK/cloud/alicloud/src/protocol/alcs\alcs_mqtt.c ****         return ALCS_MQTT_STATUS_ERROR;
 809              		.loc 1 170 9 is_stmt 1
 170:C:/Users/stapi/OneDrive/Desktop/GD32VW553/V1_MQTT_OK/GD32VW55X_Wifi_BLE_SDK/GD32VW55x_RELEASE_V1.0.2/MSDK/cloud/alicloud/src/protocol/alcs\alcs_mqtt.c ****         return ALCS_MQTT_STATUS_ERROR;
 810              		.loc 1 170 9
 811 00ce 37050000 		lui	a0,%hi(.LC7)
 812 00d2 13050500 		addi	a0,a0,%lo(.LC7)
 813 00d6 97000000 		call	HAL_Printf
 813      E7800000 
 814              	.LVL88:
 170:C:/Users/stapi/OneDrive/Desktop/GD32VW553/V1_MQTT_OK/GD32VW55X_Wifi_BLE_SDK/GD32VW55x_RELEASE_V1.0.2/MSDK/cloud/alicloud/src/protocol/alcs\alcs_mqtt.c ****         return ALCS_MQTT_STATUS_ERROR;
 815              		.loc 1 170 9
 816 00de 37050000 		lui	a0,%hi(.LC9)
 817 00e2 13050500 		addi	a0,a0,%lo(.LC9)
 818 00e6 6DB7     		j	.L58
 819              	.L45:
 173:C:/Users/stapi/OneDrive/Desktop/GD32VW553/V1_MQTT_OK/GD32VW55X_Wifi_BLE_SDK/GD32VW55x_RELEASE_V1.0.2/MSDK/cloud/alicloud/src/protocol/alcs\alcs_mqtt.c **** 
 820              		.loc 1 173 5
 821 00e8 2686     		mv	a2,s1
 822 00ea 8145     		li	a1,0
 823 00ec 97000000 		call	memset
 823      E7800000 
 824              	.LVL89:
 175:C:/Users/stapi/OneDrive/Desktop/GD32VW553/V1_MQTT_OK/GD32VW55X_Wifi_BLE_SDK/GD32VW55x_RELEASE_V1.0.2/MSDK/cloud/alicloud/src/protocol/alcs\alcs_mqtt.c **** 
 825              		.loc 1 175 5
 826 00f4 37060000 		lui	a2,%hi(.LC10)
 827 00f8 4E88     		mv	a6,s3
 828 00fa DE87     		mv	a5,s7
 829 00fc 4A87     		mv	a4,s2
 830 00fe DA86     		mv	a3,s6
 831 0100 A685     		mv	a1,s1
 832 0102 13060600 		addi	a2,a2,%lo(.LC10)
 833 0106 2285     		mv	a0,s0
 834 0108 97000000 		call	HAL_Snprintf
 834      E7800000 
 835              	.LVL90:
 177:C:/Users/stapi/OneDrive/Desktop/GD32VW553/V1_MQTT_OK/GD32VW55X_Wifi_BLE_SDK/GD32VW55x_RELEASE_V1.0.2/MSDK/cloud/alicloud/src/protocol/alcs\alcs_mqtt.c ****     utils_md5_hexstr(key_md5, (unsigned char *)key_md5_hexstr);
 836              		.loc 1 177 5
 837 0110 2285     		mv	a0,s0
 838 0112 97000000 		call	strlen
 838      E7800000 
 839              	.LVL91:
 840 011a AA85     		mv	a1,a0
 841 011c 7000     		addi	a2,sp,12
 842 011e 2285     		mv	a0,s0
 843 0120 97000000 		call	utils_md5
 843      E7800000 
 844              	.LVL92:
 178:C:/Users/stapi/OneDrive/Desktop/GD32VW553/V1_MQTT_OK/GD32VW55X_Wifi_BLE_SDK/GD32VW55x_RELEASE_V1.0.2/MSDK/cloud/alicloud/src/protocol/alcs\alcs_mqtt.c **** 
 845              		.loc 1 178 5
 846 0128 6C08     		addi	a1,sp,28
 847 012a 6800     		addi	a0,sp,12
 848 012c 97000000 		call	utils_md5_hexstr
 848      E7800000 
 849              	.LVL93:
 182:C:/Users/stapi/OneDrive/Desktop/GD32VW553/V1_MQTT_OK/GD32VW55X_Wifi_BLE_SDK/GD32VW55x_RELEASE_V1.0.2/MSDK/cloud/alicloud/src/protocol/alcs\alcs_mqtt.c **** #else
 850              		.loc 1 182 5
 182:C:/Users/stapi/OneDrive/Desktop/GD32VW553/V1_MQTT_OK/GD32VW55X_Wifi_BLE_SDK/GD32VW55x_RELEASE_V1.0.2/MSDK/cloud/alicloud/src/protocol/alcs\alcs_mqtt.c **** #else
 851              		.loc 1 182 37 is_stmt 0
 852 0134 37050000 		lui	a0,%hi(.LC11)
 853 0138 3000     		addi	a2,sp,8
 854 013a 8C00     		addi	a1,sp,64
 855 013c 13050500 		addi	a0,a0,%lo(.LC11)
 856 0140 97000000 		call	__alcs_mqtt_kv_get
 856      E7800000 
 857              	.LVL94:
 858 0148 AA84     		mv	s1,a0
 182:C:/Users/stapi/OneDrive/Desktop/GD32VW553/V1_MQTT_OK/GD32VW55X_Wifi_BLE_SDK/GD32VW55x_RELEASE_V1.0.2/MSDK/cloud/alicloud/src/protocol/alcs\alcs_mqtt.c **** #else
 859              		.loc 1 182 8
 860 014a 1DCD     		beq	a0,zero,.L46
 186:C:/Users/stapi/OneDrive/Desktop/GD32VW553/V1_MQTT_OK/GD32VW55X_Wifi_BLE_SDK/GD32VW55x_RELEASE_V1.0.2/MSDK/cloud/alicloud/src/protocol/alcs\alcs_mqtt.c ****         LITE_free(key_source);
 861              		.loc 1 186 9 is_stmt 1
 186:C:/Users/stapi/OneDrive/Desktop/GD32VW553/V1_MQTT_OK/GD32VW55X_Wifi_BLE_SDK/GD32VW55x_RELEASE_V1.0.2/MSDK/cloud/alicloud/src/protocol/alcs\alcs_mqtt.c ****         LITE_free(key_source);
 862              		.loc 1 186 9
 863 014c 37050000 		lui	a0,%hi(.LC7)
 864 0150 13050500 		addi	a0,a0,%lo(.LC7)
 865 0154 97000000 		call	HAL_Printf
 865      E7800000 
 866              	.LVL95:
 186:C:/Users/stapi/OneDrive/Desktop/GD32VW553/V1_MQTT_OK/GD32VW55X_Wifi_BLE_SDK/GD32VW55x_RELEASE_V1.0.2/MSDK/cloud/alicloud/src/protocol/alcs\alcs_mqtt.c ****         LITE_free(key_source);
 867              		.loc 1 186 9
 868 015c 37050000 		lui	a0,%hi(.LC13)
 869 0160 13050500 		addi	a0,a0,%lo(.LC13)
 870 0164 97000000 		call	HAL_Printf
 870      E7800000 
 871              	.LVL96:
 186:C:/Users/stapi/OneDrive/Desktop/GD32VW553/V1_MQTT_OK/GD32VW55X_Wifi_BLE_SDK/GD32VW55x_RELEASE_V1.0.2/MSDK/cloud/alicloud/src/protocol/alcs\alcs_mqtt.c ****         LITE_free(key_source);
 872              		.loc 1 186 9
 873 016c 37050000 		lui	a0,%hi(.LC2)
 874 0170 13050500 		addi	a0,a0,%lo(.LC2)
 875 0174 97000000 		call	HAL_Printf
 875      E7800000 
 876              	.LVL97:
 186:C:/Users/stapi/OneDrive/Desktop/GD32VW553/V1_MQTT_OK/GD32VW55X_Wifi_BLE_SDK/GD32VW55x_RELEASE_V1.0.2/MSDK/cloud/alicloud/src/protocol/alcs\alcs_mqtt.c ****         LITE_free(key_source);
 877              		.loc 1 186 9
 187:C:/Users/stapi/OneDrive/Desktop/GD32VW553/V1_MQTT_OK/GD32VW55X_Wifi_BLE_SDK/GD32VW55x_RELEASE_V1.0.2/MSDK/cloud/alicloud/src/protocol/alcs\alcs_mqtt.c ****         return ALCS_MQTT_STATUS_ERROR;
 878              		.loc 1 187 9
 879 017c 2285     		mv	a0,s0
 880 017e 97000000 		call	LITE_free_internal
 880      E7800000 
 881              	.LVL98:
 882 0186 0DB7     		j	.L57
 883              	.L46:
 191:C:/Users/stapi/OneDrive/Desktop/GD32VW553/V1_MQTT_OK/GD32VW55X_Wifi_BLE_SDK/GD32VW55x_RELEASE_V1.0.2/MSDK/cloud/alicloud/src/protocol/alcs\alcs_mqtt.c ****     memcpy(secret, &value[2 + value[0]], value[1]);
 884              		.loc 1 191 5
 191:C:/Users/stapi/OneDrive/Desktop/GD32VW553/V1_MQTT_OK/GD32VW55X_Wifi_BLE_SDK/GD32VW55x_RELEASE_V1.0.2/MSDK/cloud/alicloud/src/protocol/alcs\alcs_mqtt.c ****     memcpy(secret, &value[2 + value[0]], value[1]);
 885              		.loc 1 191 36 is_stmt 0
 886 0188 03090104 		lb	s2,64(sp)
 887              	.LVL99:
 191:C:/Users/stapi/OneDrive/Desktop/GD32VW553/V1_MQTT_OK/GD32VW55X_Wifi_BLE_SDK/GD32VW55x_RELEASE_V1.0.2/MSDK/cloud/alicloud/src/protocol/alcs\alcs_mqtt.c ****     memcpy(secret, &value[2 + value[0]], value[1]);
 888              		.loc 1 191 5
 889 018c 93052104 		addi	a1,sp,66
 890 0190 4A86     		mv	a2,s2
 891 0192 5685     		mv	a0,s5
 892 0194 97000000 		call	memcpy
 892      E7800000 
 893              	.LVL100:
 192:C:/Users/stapi/OneDrive/Desktop/GD32VW553/V1_MQTT_OK/GD32VW55X_Wifi_BLE_SDK/GD32VW55x_RELEASE_V1.0.2/MSDK/cloud/alicloud/src/protocol/alcs\alcs_mqtt.c ****     LITE_free(key_source);
 894              		.loc 1 192 5 is_stmt 1
 895 019c 9C00     		addi	a5,sp,64
 192:C:/Users/stapi/OneDrive/Desktop/GD32VW553/V1_MQTT_OK/GD32VW55X_Wifi_BLE_SDK/GD32VW55x_RELEASE_V1.0.2/MSDK/cloud/alicloud/src/protocol/alcs\alcs_mqtt.c ****     LITE_free(key_source);
 896              		.loc 1 192 29 is_stmt 0
 897 019e 93052900 		addi	a1,s2,2
 192:C:/Users/stapi/OneDrive/Desktop/GD32VW553/V1_MQTT_OK/GD32VW55X_Wifi_BLE_SDK/GD32VW55x_RELEASE_V1.0.2/MSDK/cloud/alicloud/src/protocol/alcs\alcs_mqtt.c ****     LITE_free(key_source);
 898              		.loc 1 192 5
 899 01a2 BE95     		add	a1,a5,a1
 900 01a4 5285     		mv	a0,s4
 901 01a6 03061104 		lb	a2,65(sp)
 902 01aa 97000000 		call	memcpy
 902      E7800000 
 903              	.LVL101:
 193:C:/Users/stapi/OneDrive/Desktop/GD32VW553/V1_MQTT_OK/GD32VW55X_Wifi_BLE_SDK/GD32VW55x_RELEASE_V1.0.2/MSDK/cloud/alicloud/src/protocol/alcs\alcs_mqtt.c **** 
 904              		.loc 1 193 5 is_stmt 1
 905 01b2 2285     		mv	a0,s0
 906 01b4 97000000 		call	LITE_free_internal
 906      E7800000 
 907              	.LVL102:
 195:C:/Users/stapi/OneDrive/Desktop/GD32VW553/V1_MQTT_OK/GD32VW55X_Wifi_BLE_SDK/GD32VW55x_RELEASE_V1.0.2/MSDK/cloud/alicloud/src/protocol/alcs\alcs_mqtt.c **** }
 908              		.loc 1 195 5
 195:C:/Users/stapi/OneDrive/Desktop/GD32VW553/V1_MQTT_OK/GD32VW55X_Wifi_BLE_SDK/GD32VW55x_RELEASE_V1.0.2/MSDK/cloud/alicloud/src/protocol/alcs\alcs_mqtt.c **** }
 909              		.loc 1 195 12 is_stmt 0
 910 01bc FDB5     		j	.L41
 911              		.cfi_endproc
 912              	.LFE27:
 914              		.section	.rodata.__alcs_mqtt_subscribe_callback.str1.4,"aMS",@progbits,1
 915              		.align	2
 916              	.LC14:
 917 0000 2F737973 		.string	"/sys/%s/%s/thing/lan/prefix/get_reply"
 917      2F25732F 
 917      25732F74 
 917      68696E67 
 917      2F6C616E 
 918 0026 0000     		.align	2
 919              	.LC15:
 920 0028 52656365 		.string	"Receivce Message, Topic: %.*s\n"
 920      69766365 
 920      204D6573 
 920      73616765 
 920      2C20546F 
 921 0047 00       		.align	2
 922              	.LC16:
 923 0048 64617461 		.string	"data"
 923      00
 924 004d 000000   		.align	2
 925              	.LC17:
 926 0050 70726566 		.string	"prefix"
 926      697800
 927 0057 00       		.align	2
 928              	.LC18:
 929 0058 64657669 		.string	"deviceSecret"
 929      63655365 
 929      63726574 
 929      00
 930 0065 000000   		.align	2
 931              	.LC19:
 932 0068 70726F64 		.string	"productKey"
 932      7563744B 
 932      657900
 933 0073 00       		.align	2
 934              	.LC20:
 935 0074 64657669 		.string	"deviceName"
 935      63654E61 
 935      6D6500
 936 007f 00       		.align	2
 937              	.LC21:
 938 0080 47657420 		.string	"Get Reply, Product Key: %.*s, Device Name: %.*s, PrefixKey: %.*s\n"
 938      5265706C 
 938      792C2050 
 938      726F6475 
 938      6374204B 
 939 00c2 0000     		.align	2
 940              	.LC22:
 941 00c4 2F737973 		.string	"/sys/%s/%s/thing/lan/prefix/update"
 941      2F25732F 
 941      25732F74 
 941      68696E67 
 941      2F6C616E 
 942 00e7 00       		.align	2
 943              	.LC23:
 944 00e8 696400   		.string	"id"
 945 00eb 00       		.align	2
 946              	.LC24:
 947 00ec 70617261 		.string	"params"
 947      6D7300
 948 00f3 00       		.align	2
 949              	.LC25:
 950 00f4 70726566 		.string	"prefix saved\n"
 950      69782073 
 950      61766564 
 950      0A00
 951 0102 0000     		.align	2
 952              	.LC26:
 953 0104 70726566 		.string	"prefix save failed\n"
 953      69782073 
 953      61766520 
 953      6661696C 
 953      65640A00 
 954              		.align	2
 955              	.LC27:
 956 0118 75706461 		.string	"update prefix_secret_load failed\n"
 956      74652070 
 956      72656669 
 956      785F7365 
 956      63726574 
 957 013a 0000     		.align	2
 958              	.LC28:
 959 013c 70726566 		.string	"prefix not found, prefix update failed\n"
 959      6978206E 
 959      6F742066 
 959      6F756E64 
 959      2C207072 
 960              		.align	2
 961              	.LC29:
 962 0164 2F737973 		.string	"/sys/%s/%s/thing/lan/prefix/update_reply"
 962      2F25732F 
 962      25732F74 
 962      68696E67 
 962      2F6C616E 
 963 018d 000000   		.align	2
 964              	.LC30:
 965 0190 2F737973 		.string	"/sys/%s/%s/thing/lan/blacklist/update"
 965      2F25732F 
 965      25732F74 
 965      68696E67 
 965      2F6C616E 
 966 01b6 0000     		.align	2
 967              	.LC31:
 968 01b8 626C6163 		.string	"blacklist"
 968      6B6C6973 
 968      7400
 969 01c2 0000     		.align	2
 970              	.LC32:
 971 01c4 616F735F 		.string	"aos_kv_set set blacklist fail"
 971      6B765F73 
 971      65742073 
 971      65742062 
 971      6C61636B 
 972 01e2 0000     		.align	2
 973              	.LC33:
 974 01e4 2F737973 		.string	"/sys/%s/%s/thing/lan/blacklist/update_reply"
 974      2F25732F 
 974      25732F74 
 974      68696E67 
 974      2F6C616E 
 975              		.section	.text.__alcs_mqtt_subscribe_callback,"ax",@progbits
 976              		.align	1
 978              	__alcs_mqtt_subscribe_callback:
 979              	.LFB29:
 272:C:/Users/stapi/OneDrive/Desktop/GD32VW553/V1_MQTT_OK/GD32VW55X_Wifi_BLE_SDK/GD32VW55x_RELEASE_V1.0.2/MSDK/cloud/alicloud/src/protocol/alcs\alcs_mqtt.c ****     char topic_compare[ALCS_MQTT_TOPIC_MAX_LEN] = {0};
 980              		.loc 1 272 1 is_stmt 1
 981              		.cfi_startproc
 982              	.LVL103:
 983 0000 17030000 		call	t0,__riscv_save_9
 983      E7020300 
 984              		.cfi_offset 24, -40
 985              		.cfi_offset 23, -36
 986              		.cfi_offset 22, -32
 987              		.cfi_offset 21, -28
 988              		.cfi_offset 20, -24
 989              		.cfi_offset 19, -20
 990              		.cfi_offset 18, -16
 991              		.cfi_offset 9, -12
 992              		.cfi_offset 8, -8
 993              		.cfi_offset 1, -4
 994              		.cfi_def_cfa_offset 48
 273:C:/Users/stapi/OneDrive/Desktop/GD32VW553/V1_MQTT_OK/GD32VW55X_Wifi_BLE_SDK/GD32VW55x_RELEASE_V1.0.2/MSDK/cloud/alicloud/src/protocol/alcs\alcs_mqtt.c ****     char reqid[16]   = {0};
 995              		.loc 1 273 5
 272:C:/Users/stapi/OneDrive/Desktop/GD32VW553/V1_MQTT_OK/GD32VW55X_Wifi_BLE_SDK/GD32VW55x_RELEASE_V1.0.2/MSDK/cloud/alicloud/src/protocol/alcs\alcs_mqtt.c ****     char topic_compare[ALCS_MQTT_TOPIC_MAX_LEN] = {0};
 996              		.loc 1 272 1 is_stmt 0
 997 0008 2571     		addi	sp,sp,-416
 998              		.cfi_def_cfa_offset 464
 272:C:/Users/stapi/OneDrive/Desktop/GD32VW553/V1_MQTT_OK/GD32VW55X_Wifi_BLE_SDK/GD32VW55x_RELEASE_V1.0.2/MSDK/cloud/alicloud/src/protocol/alcs\alcs_mqtt.c ****     char topic_compare[ALCS_MQTT_TOPIC_MAX_LEN] = {0};
 999              		.loc 1 272 1
 1000 000a 2A84     		mv	s0,a0
 1001 000c B284     		mv	s1,a2
 273:C:/Users/stapi/OneDrive/Desktop/GD32VW553/V1_MQTT_OK/GD32VW55X_Wifi_BLE_SDK/GD32VW55x_RELEASE_V1.0.2/MSDK/cloud/alicloud/src/protocol/alcs\alcs_mqtt.c ****     char reqid[16]   = {0};
 1002              		.loc 1 273 10
 1003 000e 8145     		li	a1,0
 1004              	.LVL104:
 1005 0010 1306C007 		li	a2,124
 1006              	.LVL105:
 1007 0014 4811     		addi	a0,sp,164
 1008              	.LVL106:
 1009 0016 02D1     		sw	zero,160(sp)
 1010 0018 97000000 		call	memset
 1010      E7800000 
 1011              	.LVL107:
 274:C:/Users/stapi/OneDrive/Desktop/GD32VW553/V1_MQTT_OK/GD32VW55X_Wifi_BLE_SDK/GD32VW55x_RELEASE_V1.0.2/MSDK/cloud/alicloud/src/protocol/alcs\alcs_mqtt.c ****     char *topic;
 1012              		.loc 1 274 5 is_stmt 1
 274:C:/Users/stapi/OneDrive/Desktop/GD32VW553/V1_MQTT_OK/GD32VW55X_Wifi_BLE_SDK/GD32VW55x_RELEASE_V1.0.2/MSDK/cloud/alicloud/src/protocol/alcs\alcs_mqtt.c ****     char *topic;
 1013              		.loc 1 274 10 is_stmt 0
 1014 0020 02D4     		sw	zero,40(sp)
 1015 0022 02D6     		sw	zero,44(sp)
 1016 0024 02D8     		sw	zero,48(sp)
 1017 0026 02DA     		sw	zero,52(sp)
 275:C:/Users/stapi/OneDrive/Desktop/GD32VW553/V1_MQTT_OK/GD32VW55X_Wifi_BLE_SDK/GD32VW55x_RELEASE_V1.0.2/MSDK/cloud/alicloud/src/protocol/alcs\alcs_mqtt.c ****     int topic_len;
 1018              		.loc 1 275 5 is_stmt 1
 276:C:/Users/stapi/OneDrive/Desktop/GD32VW553/V1_MQTT_OK/GD32VW55X_Wifi_BLE_SDK/GD32VW55x_RELEASE_V1.0.2/MSDK/cloud/alicloud/src/protocol/alcs\alcs_mqtt.c ****     void *payload;
 1019              		.loc 1 276 5
 277:C:/Users/stapi/OneDrive/Desktop/GD32VW553/V1_MQTT_OK/GD32VW55X_Wifi_BLE_SDK/GD32VW55x_RELEASE_V1.0.2/MSDK/cloud/alicloud/src/protocol/alcs\alcs_mqtt.c ****     int payload_len;
 1020              		.loc 1 277 5
 278:C:/Users/stapi/OneDrive/Desktop/GD32VW553/V1_MQTT_OK/GD32VW55X_Wifi_BLE_SDK/GD32VW55x_RELEASE_V1.0.2/MSDK/cloud/alicloud/src/protocol/alcs\alcs_mqtt.c **** 
 1021              		.loc 1 278 5
 280:C:/Users/stapi/OneDrive/Desktop/GD32VW553/V1_MQTT_OK/GD32VW55X_Wifi_BLE_SDK/GD32VW55x_RELEASE_V1.0.2/MSDK/cloud/alicloud/src/protocol/alcs\alcs_mqtt.c ****         return;
 1022              		.loc 1 280 5
 280:C:/Users/stapi/OneDrive/Desktop/GD32VW553/V1_MQTT_OK/GD32VW55X_Wifi_BLE_SDK/GD32VW55x_RELEASE_V1.0.2/MSDK/cloud/alicloud/src/protocol/alcs\alcs_mqtt.c ****         return;
 1023              		.loc 1 280 8 is_stmt 0
 1024 0028 6387041E 		beq	s1,zero,.L59
 283:C:/Users/stapi/OneDrive/Desktop/GD32VW553/V1_MQTT_OK/GD32VW55X_Wifi_BLE_SDK/GD32VW55x_RELEASE_V1.0.2/MSDK/cloud/alicloud/src/protocol/alcs\alcs_mqtt.c ****     iotx_mqtt_topic_info_pt ptopic_info = (iotx_mqtt_topic_info_pt) msg->msg;
 1025              		.loc 1 283 5 is_stmt 1
 1026              	.LVL108:
 284:C:/Users/stapi/OneDrive/Desktop/GD32VW553/V1_MQTT_OK/GD32VW55X_Wifi_BLE_SDK/GD32VW55x_RELEASE_V1.0.2/MSDK/cloud/alicloud/src/protocol/alcs\alcs_mqtt.c **** 
 1027              		.loc 1 284 5
 286:C:/Users/stapi/OneDrive/Desktop/GD32VW553/V1_MQTT_OK/GD32VW55X_Wifi_BLE_SDK/GD32VW55x_RELEASE_V1.0.2/MSDK/cloud/alicloud/src/protocol/alcs\alcs_mqtt.c ****         case IOTX_MQTT_EVENT_SUBCRIBE_SUCCESS:
 1028              		.loc 1 286 5
 1029 002c 9840     		lw	a4,0(s1)
 1030 002e B147     		li	a5,12
 1031 0030 6313F71E 		bne	a4,a5,.L59
 284:C:/Users/stapi/OneDrive/Desktop/GD32VW553/V1_MQTT_OK/GD32VW55X_Wifi_BLE_SDK/GD32VW55x_RELEASE_V1.0.2/MSDK/cloud/alicloud/src/protocol/alcs\alcs_mqtt.c **** 
 1032              		.loc 1 284 29 is_stmt 0
 1033 0034 DC40     		lw	a5,4(s1)
 294:C:/Users/stapi/OneDrive/Desktop/GD32VW553/V1_MQTT_OK/GD32VW55X_Wifi_BLE_SDK/GD32VW55x_RELEASE_V1.0.2/MSDK/cloud/alicloud/src/protocol/alcs\alcs_mqtt.c ****             topic_len = ptopic_info->topic_len;
 1034              		.loc 1 294 13 is_stmt 1
 294:C:/Users/stapi/OneDrive/Desktop/GD32VW553/V1_MQTT_OK/GD32VW55X_Wifi_BLE_SDK/GD32VW55x_RELEASE_V1.0.2/MSDK/cloud/alicloud/src/protocol/alcs\alcs_mqtt.c ****             topic_len = ptopic_info->topic_len;
 1035              		.loc 1 294 19 is_stmt 0
 1036 0036 03ACC700 		lw	s8,12(a5)
 1037              	.LVL109:
 295:C:/Users/stapi/OneDrive/Desktop/GD32VW553/V1_MQTT_OK/GD32VW55X_Wifi_BLE_SDK/GD32VW55x_RELEASE_V1.0.2/MSDK/cloud/alicloud/src/protocol/alcs\alcs_mqtt.c ****             payload = (char *)ptopic_info->payload;
 1038              		.loc 1 295 13 is_stmt 1
 296:C:/Users/stapi/OneDrive/Desktop/GD32VW553/V1_MQTT_OK/GD32VW55X_Wifi_BLE_SDK/GD32VW55x_RELEASE_V1.0.2/MSDK/cloud/alicloud/src/protocol/alcs\alcs_mqtt.c ****             payload_len = ptopic_info->payload_len;
 1039              		.loc 1 296 13
 297:C:/Users/stapi/OneDrive/Desktop/GD32VW553/V1_MQTT_OK/GD32VW55X_Wifi_BLE_SDK/GD32VW55x_RELEASE_V1.0.2/MSDK/cloud/alicloud/src/protocol/alcs\alcs_mqtt.c ****             break;
 1040              		.loc 1 297 13
 298:C:/Users/stapi/OneDrive/Desktop/GD32VW553/V1_MQTT_OK/GD32VW55X_Wifi_BLE_SDK/GD32VW55x_RELEASE_V1.0.2/MSDK/cloud/alicloud/src/protocol/alcs\alcs_mqtt.c ****         default:
 1041              		.loc 1 298 13
 303:C:/Users/stapi/OneDrive/Desktop/GD32VW553/V1_MQTT_OK/GD32VW55X_Wifi_BLE_SDK/GD32VW55x_RELEASE_V1.0.2/MSDK/cloud/alicloud/src/protocol/alcs\alcs_mqtt.c ****         return;
 1042              		.loc 1 303 5
 303:C:/Users/stapi/OneDrive/Desktop/GD32VW553/V1_MQTT_OK/GD32VW55X_Wifi_BLE_SDK/GD32VW55x_RELEASE_V1.0.2/MSDK/cloud/alicloud/src/protocol/alcs\alcs_mqtt.c ****         return;
 1043              		.loc 1 303 8 is_stmt 0
 1044 003a 630E0C1C 		beq	s8,zero,.L59
 296:C:/Users/stapi/OneDrive/Desktop/GD32VW553/V1_MQTT_OK/GD32VW55X_Wifi_BLE_SDK/GD32VW55x_RELEASE_V1.0.2/MSDK/cloud/alicloud/src/protocol/alcs\alcs_mqtt.c ****             payload_len = ptopic_info->payload_len;
 1045              		.loc 1 296 21 discriminator 1
 1046 003e 83A90701 		lw	s3,16(a5)
 303:C:/Users/stapi/OneDrive/Desktop/GD32VW553/V1_MQTT_OK/GD32VW55X_Wifi_BLE_SDK/GD32VW55x_RELEASE_V1.0.2/MSDK/cloud/alicloud/src/protocol/alcs\alcs_mqtt.c ****         return;
 1047              		.loc 1 303 23 discriminator 1
 1048 0042 638A091C 		beq	s3,zero,.L59
 295:C:/Users/stapi/OneDrive/Desktop/GD32VW553/V1_MQTT_OK/GD32VW55X_Wifi_BLE_SDK/GD32VW55x_RELEASE_V1.0.2/MSDK/cloud/alicloud/src/protocol/alcs\alcs_mqtt.c ****             payload = (char *)ptopic_info->payload;
 1049              		.loc 1 295 36 discriminator 2
 1050 0046 03D96700 		lhu	s2,6(a5)
 303:C:/Users/stapi/OneDrive/Desktop/GD32VW553/V1_MQTT_OK/GD32VW55X_Wifi_BLE_SDK/GD32VW55x_RELEASE_V1.0.2/MSDK/cloud/alicloud/src/protocol/alcs\alcs_mqtt.c ****         return;
 1051              		.loc 1 303 42 discriminator 2
 1052 004a 6306091C 		beq	s2,zero,.L59
 297:C:/Users/stapi/OneDrive/Desktop/GD32VW553/V1_MQTT_OK/GD32VW55X_Wifi_BLE_SDK/GD32VW55x_RELEASE_V1.0.2/MSDK/cloud/alicloud/src/protocol/alcs\alcs_mqtt.c ****             break;
 1053              		.loc 1 297 25 discriminator 3
 1054 004e 03AA8700 		lw	s4,8(a5)
 303:C:/Users/stapi/OneDrive/Desktop/GD32VW553/V1_MQTT_OK/GD32VW55X_Wifi_BLE_SDK/GD32VW55x_RELEASE_V1.0.2/MSDK/cloud/alicloud/src/protocol/alcs\alcs_mqtt.c ****         return;
 1055              		.loc 1 303 60 discriminator 3
 1056 0052 63020A1C 		beq	s4,zero,.L59
 307:C:/Users/stapi/OneDrive/Desktop/GD32VW553/V1_MQTT_OK/GD32VW55X_Wifi_BLE_SDK/GD32VW55x_RELEASE_V1.0.2/MSDK/cloud/alicloud/src/protocol/alcs\alcs_mqtt.c ****     snprintf(topic_compare, ALCS_MQTT_TOPIC_MAX_LEN, ALCS_MQTT_PREFIX ALCS_MQTT_THING_LAN_PREFIX_GE
 1057              		.loc 1 307 5 is_stmt 1
 1058 0056 13060008 		li	a2,128
 1059 005a 8145     		li	a1,0
 1060 005c 0811     		addi	a0,sp,160
 1061 005e 97000000 		call	memset
 1061      E7800000 
 1062              	.LVL110:
 308:C:/Users/stapi/OneDrive/Desktop/GD32VW553/V1_MQTT_OK/GD32VW55X_Wifi_BLE_SDK/GD32VW55x_RELEASE_V1.0.2/MSDK/cloud/alicloud/src/protocol/alcs\alcs_mqtt.c ****              alcs_mqtt_ctx->product_key, alcs_mqtt_ctx->device_name);
 1063              		.loc 1 308 5
 309:C:/Users/stapi/OneDrive/Desktop/GD32VW553/V1_MQTT_OK/GD32VW55X_Wifi_BLE_SDK/GD32VW55x_RELEASE_V1.0.2/MSDK/cloud/alicloud/src/protocol/alcs\alcs_mqtt.c **** 
 1064              		.loc 1 309 27 is_stmt 0
 1065 0066 130B4400 		addi	s6,s0,4
 309:C:/Users/stapi/OneDrive/Desktop/GD32VW553/V1_MQTT_OK/GD32VW55X_Wifi_BLE_SDK/GD32VW55x_RELEASE_V1.0.2/MSDK/cloud/alicloud/src/protocol/alcs\alcs_mqtt.c **** 
 1066              		.loc 1 309 55
 1067 006a 930B8401 		addi	s7,s0,24
 308:C:/Users/stapi/OneDrive/Desktop/GD32VW553/V1_MQTT_OK/GD32VW55X_Wifi_BLE_SDK/GD32VW55x_RELEASE_V1.0.2/MSDK/cloud/alicloud/src/protocol/alcs\alcs_mqtt.c ****              alcs_mqtt_ctx->product_key, alcs_mqtt_ctx->device_name);
 1068              		.loc 1 308 5
 1069 006e 37060000 		lui	a2,%hi(.LC14)
 1070 0072 5E87     		mv	a4,s7
 1071 0074 DA86     		mv	a3,s6
 1072 0076 13060600 		addi	a2,a2,%lo(.LC14)
 1073 007a 93050008 		li	a1,128
 1074 007e 0811     		addi	a0,sp,160
 1075 0080 97000000 		call	snprintf
 1075      E7800000 
 1076              	.LVL111:
 311:C:/Users/stapi/OneDrive/Desktop/GD32VW553/V1_MQTT_OK/GD32VW55X_Wifi_BLE_SDK/GD32VW55x_RELEASE_V1.0.2/MSDK/cloud/alicloud/src/protocol/alcs\alcs_mqtt.c ****     /* COAP_INFO("Receivce Message, Payload: %.*s\n", payload_len, payload); */
 1077              		.loc 1 311 5 is_stmt 1
 311:C:/Users/stapi/OneDrive/Desktop/GD32VW553/V1_MQTT_OK/GD32VW55X_Wifi_BLE_SDK/GD32VW55x_RELEASE_V1.0.2/MSDK/cloud/alicloud/src/protocol/alcs\alcs_mqtt.c ****     /* COAP_INFO("Receivce Message, Payload: %.*s\n", payload_len, payload); */
 1078              		.loc 1 311 5
 1079 0088 B70A0000 		lui	s5,%hi(.LC0)
 1080 008c 13850A00 		addi	a0,s5,%lo(.LC0)
 1081 0090 97000000 		call	HAL_Printf
 1081      E7800000 
 1082              	.LVL112:
 311:C:/Users/stapi/OneDrive/Desktop/GD32VW553/V1_MQTT_OK/GD32VW55X_Wifi_BLE_SDK/GD32VW55x_RELEASE_V1.0.2/MSDK/cloud/alicloud/src/protocol/alcs\alcs_mqtt.c ****     /* COAP_INFO("Receivce Message, Payload: %.*s\n", payload_len, payload); */
 1083              		.loc 1 311 5
 1084 0098 37050000 		lui	a0,%hi(.LC15)
 1085 009c 6286     		mv	a2,s8
 1086 009e CA85     		mv	a1,s2
 1087 00a0 13050500 		addi	a0,a0,%lo(.LC15)
 1088 00a4 97000000 		call	HAL_Printf
 1088      E7800000 
 1089              	.LVL113:
 311:C:/Users/stapi/OneDrive/Desktop/GD32VW553/V1_MQTT_OK/GD32VW55X_Wifi_BLE_SDK/GD32VW55x_RELEASE_V1.0.2/MSDK/cloud/alicloud/src/protocol/alcs\alcs_mqtt.c ****     /* COAP_INFO("Receivce Message, Payload: %.*s\n", payload_len, payload); */
 1090              		.loc 1 311 5
 1091 00ac B7040000 		lui	s1,%hi(.LC2)
 1092              	.LVL114:
 1093 00b0 13850400 		addi	a0,s1,%lo(.LC2)
 1094 00b4 97000000 		call	HAL_Printf
 1094      E7800000 
 1095              	.LVL115:
 311:C:/Users/stapi/OneDrive/Desktop/GD32VW553/V1_MQTT_OK/GD32VW55X_Wifi_BLE_SDK/GD32VW55x_RELEASE_V1.0.2/MSDK/cloud/alicloud/src/protocol/alcs\alcs_mqtt.c ****     /* COAP_INFO("Receivce Message, Payload: %.*s\n", payload_len, payload); */
 1096              		.loc 1 311 5
 314:C:/Users/stapi/OneDrive/Desktop/GD32VW553/V1_MQTT_OK/GD32VW55X_Wifi_BLE_SDK/GD32VW55x_RELEASE_V1.0.2/MSDK/cloud/alicloud/src/protocol/alcs\alcs_mqtt.c ****         int data_len = 0, prefix_len = 0, secret_len = 0, productKey_len = 0, deviceName_len = 0;
 1097              		.loc 1 314 5
 314:C:/Users/stapi/OneDrive/Desktop/GD32VW553/V1_MQTT_OK/GD32VW55X_Wifi_BLE_SDK/GD32VW55x_RELEASE_V1.0.2/MSDK/cloud/alicloud/src/protocol/alcs\alcs_mqtt.c ****         int data_len = 0, prefix_len = 0, secret_len = 0, productKey_len = 0, deviceName_len = 0;
 1098              		.loc 1 314 10 is_stmt 0
 1099 00bc 0811     		addi	a0,sp,160
 1100 00be 97000000 		call	strlen
 1100      E7800000 
 1101              	.LVL116:
 1102 00c6 2A86     		mv	a2,a0
 314:C:/Users/stapi/OneDrive/Desktop/GD32VW553/V1_MQTT_OK/GD32VW55X_Wifi_BLE_SDK/GD32VW55x_RELEASE_V1.0.2/MSDK/cloud/alicloud/src/protocol/alcs\alcs_mqtt.c ****         int data_len = 0, prefix_len = 0, secret_len = 0, productKey_len = 0, deviceName_len = 0;
 1103              		.loc 1 314 8
 1104 00c8 631E2519 		bne	a0,s2,.L61
 314:C:/Users/stapi/OneDrive/Desktop/GD32VW553/V1_MQTT_OK/GD32VW55X_Wifi_BLE_SDK/GD32VW55x_RELEASE_V1.0.2/MSDK/cloud/alicloud/src/protocol/alcs\alcs_mqtt.c ****         int data_len = 0, prefix_len = 0, secret_len = 0, productKey_len = 0, deviceName_len = 0;
 1105              		.loc 1 314 50 discriminator 1
 1106 00cc E285     		mv	a1,s8
 1107 00ce 0811     		addi	a0,sp,160
 1108 00d0 97000000 		call	strncmp
 1108      E7800000 
 1109              	.LVL117:
 314:C:/Users/stapi/OneDrive/Desktop/GD32VW553/V1_MQTT_OK/GD32VW55X_Wifi_BLE_SDK/GD32VW55x_RELEASE_V1.0.2/MSDK/cloud/alicloud/src/protocol/alcs\alcs_mqtt.c ****         int data_len = 0, prefix_len = 0, secret_len = 0, productKey_len = 0, deviceName_len = 0;
 1110              		.loc 1 314 46 discriminator 1
 1111 00d8 63160518 		bne	a0,zero,.L61
 1112              	.LBB28:
 315:C:/Users/stapi/OneDrive/Desktop/GD32VW553/V1_MQTT_OK/GD32VW55X_Wifi_BLE_SDK/GD32VW55x_RELEASE_V1.0.2/MSDK/cloud/alicloud/src/protocol/alcs\alcs_mqtt.c ****         char *data = NULL, *prefix = NULL, *secret = NULL, *productKey = NULL, *deviceName = NULL;
 1113              		.loc 1 315 9 is_stmt 1
 317:C:/Users/stapi/OneDrive/Desktop/GD32VW553/V1_MQTT_OK/GD32VW55X_Wifi_BLE_SDK/GD32VW55x_RELEASE_V1.0.2/MSDK/cloud/alicloud/src/protocol/alcs\alcs_mqtt.c ****         /* COAP_INFO("Data: %.*s\n", data_len, data); */
 1114              		.loc 1 317 16 is_stmt 0
 1115 00dc 37060000 		lui	a2,%hi(.LC16)
 1116 00e0 D285     		mv	a1,s4
 1117 00e2 0147     		li	a4,0
 1118 00e4 5410     		addi	a3,sp,36
 1119 00e6 13060600 		addi	a2,a2,%lo(.LC16)
 1120 00ea 4E85     		mv	a0,s3
 315:C:/Users/stapi/OneDrive/Desktop/GD32VW553/V1_MQTT_OK/GD32VW55X_Wifi_BLE_SDK/GD32VW55x_RELEASE_V1.0.2/MSDK/cloud/alicloud/src/protocol/alcs\alcs_mqtt.c ****         char *data = NULL, *prefix = NULL, *secret = NULL, *productKey = NULL, *deviceName = NULL;
 1121              		.loc 1 315 13
 1122 00ec 02D2     		sw	zero,36(sp)
 315:C:/Users/stapi/OneDrive/Desktop/GD32VW553/V1_MQTT_OK/GD32VW55X_Wifi_BLE_SDK/GD32VW55x_RELEASE_V1.0.2/MSDK/cloud/alicloud/src/protocol/alcs\alcs_mqtt.c ****         char *data = NULL, *prefix = NULL, *secret = NULL, *productKey = NULL, *deviceName = NULL;
 1123              		.loc 1 315 27
 1124 00ee 02DC     		sw	zero,56(sp)
 315:C:/Users/stapi/OneDrive/Desktop/GD32VW553/V1_MQTT_OK/GD32VW55X_Wifi_BLE_SDK/GD32VW55x_RELEASE_V1.0.2/MSDK/cloud/alicloud/src/protocol/alcs\alcs_mqtt.c ****         char *data = NULL, *prefix = NULL, *secret = NULL, *productKey = NULL, *deviceName = NULL;
 1125              		.loc 1 315 43
 1126 00f0 82C8     		sw	zero,80(sp)
 315:C:/Users/stapi/OneDrive/Desktop/GD32VW553/V1_MQTT_OK/GD32VW55X_Wifi_BLE_SDK/GD32VW55x_RELEASE_V1.0.2/MSDK/cloud/alicloud/src/protocol/alcs\alcs_mqtt.c ****         char *data = NULL, *prefix = NULL, *secret = NULL, *productKey = NULL, *deviceName = NULL;
 1127              		.loc 1 315 59
 1128 00f2 82DA     		sw	zero,116(sp)
 315:C:/Users/stapi/OneDrive/Desktop/GD32VW553/V1_MQTT_OK/GD32VW55X_Wifi_BLE_SDK/GD32VW55x_RELEASE_V1.0.2/MSDK/cloud/alicloud/src/protocol/alcs\alcs_mqtt.c ****         char *data = NULL, *prefix = NULL, *secret = NULL, *productKey = NULL, *deviceName = NULL;
 1129              		.loc 1 315 79
 1130 00f4 23200112 		sw	zero,288(sp)
 316:C:/Users/stapi/OneDrive/Desktop/GD32VW553/V1_MQTT_OK/GD32VW55X_Wifi_BLE_SDK/GD32VW55x_RELEASE_V1.0.2/MSDK/cloud/alicloud/src/protocol/alcs\alcs_mqtt.c ****         data = json_get_value_by_name((char *)payload, payload_len, "data", &data_len, NULL);
 1131              		.loc 1 316 9 is_stmt 1
 1132              	.LVL118:
 317:C:/Users/stapi/OneDrive/Desktop/GD32VW553/V1_MQTT_OK/GD32VW55X_Wifi_BLE_SDK/GD32VW55x_RELEASE_V1.0.2/MSDK/cloud/alicloud/src/protocol/alcs\alcs_mqtt.c ****         /* COAP_INFO("Data: %.*s\n", data_len, data); */
 1133              		.loc 1 317 9
 317:C:/Users/stapi/OneDrive/Desktop/GD32VW553/V1_MQTT_OK/GD32VW55X_Wifi_BLE_SDK/GD32VW55x_RELEASE_V1.0.2/MSDK/cloud/alicloud/src/protocol/alcs\alcs_mqtt.c ****         /* COAP_INFO("Data: %.*s\n", data_len, data); */
 1134              		.loc 1 317 16 is_stmt 0
 1135 00f8 97000000 		call	json_get_value_by_name
 1135      E7800000 
 1136              	.LVL119:
 1137 0100 2A8A     		mv	s4,a0
 1138              	.LVL120:
 320:C:/Users/stapi/OneDrive/Desktop/GD32VW553/V1_MQTT_OK/GD32VW55X_Wifi_BLE_SDK/GD32VW55x_RELEASE_V1.0.2/MSDK/cloud/alicloud/src/protocol/alcs\alcs_mqtt.c ****             char back1, back2;
 1139              		.loc 1 320 9 is_stmt 1
 1140 0102 37050000 		lui	a0,%hi(.LC17)
 1141              	.LVL121:
 320:C:/Users/stapi/OneDrive/Desktop/GD32VW553/V1_MQTT_OK/GD32VW55X_Wifi_BLE_SDK/GD32VW55x_RELEASE_V1.0.2/MSDK/cloud/alicloud/src/protocol/alcs\alcs_mqtt.c ****             char back1, back2;
 1142              		.loc 1 320 12 is_stmt 0
 1143 0106 630D0A10 		beq	s4,zero,.L62
 320:C:/Users/stapi/OneDrive/Desktop/GD32VW553/V1_MQTT_OK/GD32VW55X_Wifi_BLE_SDK/GD32VW55x_RELEASE_V1.0.2/MSDK/cloud/alicloud/src/protocol/alcs\alcs_mqtt.c ****             char back1, back2;
 1144              		.loc 1 320 31 discriminator 1
 1145 010a 9255     		lw	a1,36(sp)
 320:C:/Users/stapi/OneDrive/Desktop/GD32VW553/V1_MQTT_OK/GD32VW55X_Wifi_BLE_SDK/GD32VW55x_RELEASE_V1.0.2/MSDK/cloud/alicloud/src/protocol/alcs\alcs_mqtt.c ****             char back1, back2;
 1146              		.loc 1 320 26 discriminator 1
 1147 010c 638A0510 		beq	a1,zero,.L62
 1148              	.LBB29:
 321:C:/Users/stapi/OneDrive/Desktop/GD32VW553/V1_MQTT_OK/GD32VW55X_Wifi_BLE_SDK/GD32VW55x_RELEASE_V1.0.2/MSDK/cloud/alicloud/src/protocol/alcs\alcs_mqtt.c ****             prefix = json_get_value_by_name(data, data_len, ALCS_MQTT_JSON_KEY_PREFIX, &prefix_len,
 1149              		.loc 1 321 13 is_stmt 1
 322:C:/Users/stapi/OneDrive/Desktop/GD32VW553/V1_MQTT_OK/GD32VW55X_Wifi_BLE_SDK/GD32VW55x_RELEASE_V1.0.2/MSDK/cloud/alicloud/src/protocol/alcs\alcs_mqtt.c ****             secret = json_get_value_by_name(data, data_len, ALCS_MQTT_JSON_KEY_SECRET, &secret_len,
 1150              		.loc 1 322 13
 322:C:/Users/stapi/OneDrive/Desktop/GD32VW553/V1_MQTT_OK/GD32VW55X_Wifi_BLE_SDK/GD32VW55x_RELEASE_V1.0.2/MSDK/cloud/alicloud/src/protocol/alcs\alcs_mqtt.c ****             secret = json_get_value_by_name(data, data_len, ALCS_MQTT_JSON_KEY_SECRET, &secret_len,
 1151              		.loc 1 322 22 is_stmt 0
 1152 0110 13060500 		addi	a2,a0,%lo(.LC17)
 1153 0114 0147     		li	a4,0
 1154 0116 3418     		addi	a3,sp,56
 1155 0118 5285     		mv	a0,s4
 1156 011a 97000000 		call	json_get_value_by_name
 1156      E7800000 
 1157              	.LVL122:
 323:C:/Users/stapi/OneDrive/Desktop/GD32VW553/V1_MQTT_OK/GD32VW55X_Wifi_BLE_SDK/GD32VW55x_RELEASE_V1.0.2/MSDK/cloud/alicloud/src/protocol/alcs\alcs_mqtt.c ****             productKey = json_get_value_by_name(data, data_len, ALCS_MQTT_JSON_KEY_PRODUCT_KEY, &pr
 1158              		.loc 1 323 22
 1159 0122 9255     		lw	a1,36(sp)
 1160 0124 37060000 		lui	a2,%hi(.LC18)
 322:C:/Users/stapi/OneDrive/Desktop/GD32VW553/V1_MQTT_OK/GD32VW55X_Wifi_BLE_SDK/GD32VW55x_RELEASE_V1.0.2/MSDK/cloud/alicloud/src/protocol/alcs\alcs_mqtt.c ****             secret = json_get_value_by_name(data, data_len, ALCS_MQTT_JSON_KEY_SECRET, &secret_len,
 1161              		.loc 1 322 22
 1162 0128 2A89     		mv	s2,a0
 1163              	.LVL123:
 323:C:/Users/stapi/OneDrive/Desktop/GD32VW553/V1_MQTT_OK/GD32VW55X_Wifi_BLE_SDK/GD32VW55x_RELEASE_V1.0.2/MSDK/cloud/alicloud/src/protocol/alcs\alcs_mqtt.c ****             productKey = json_get_value_by_name(data, data_len, ALCS_MQTT_JSON_KEY_PRODUCT_KEY, &pr
 1164              		.loc 1 323 13 is_stmt 1
 323:C:/Users/stapi/OneDrive/Desktop/GD32VW553/V1_MQTT_OK/GD32VW55X_Wifi_BLE_SDK/GD32VW55x_RELEASE_V1.0.2/MSDK/cloud/alicloud/src/protocol/alcs\alcs_mqtt.c ****             productKey = json_get_value_by_name(data, data_len, ALCS_MQTT_JSON_KEY_PRODUCT_KEY, &pr
 1165              		.loc 1 323 22 is_stmt 0
 1166 012a 0147     		li	a4,0
 1167 012c 9408     		addi	a3,sp,80
 1168 012e 13060600 		addi	a2,a2,%lo(.LC18)
 1169 0132 5285     		mv	a0,s4
 1170              	.LVL124:
 1171 0134 97000000 		call	json_get_value_by_name
 1171      E7800000 
 1172              	.LVL125:
 324:C:/Users/stapi/OneDrive/Desktop/GD32VW553/V1_MQTT_OK/GD32VW55X_Wifi_BLE_SDK/GD32VW55x_RELEASE_V1.0.2/MSDK/cloud/alicloud/src/protocol/alcs\alcs_mqtt.c ****             deviceName = json_get_value_by_name(data, data_len, ALCS_MQTT_JSON_KEY_DEVICE_NAME, &de
 1173              		.loc 1 324 26
 1174 013c 9255     		lw	a1,36(sp)
 1175 013e 37060000 		lui	a2,%hi(.LC19)
 1176 0142 0147     		li	a4,0
 1177 0144 D418     		addi	a3,sp,116
 1178 0146 13060600 		addi	a2,a2,%lo(.LC19)
 323:C:/Users/stapi/OneDrive/Desktop/GD32VW553/V1_MQTT_OK/GD32VW55X_Wifi_BLE_SDK/GD32VW55x_RELEASE_V1.0.2/MSDK/cloud/alicloud/src/protocol/alcs\alcs_mqtt.c ****             productKey = json_get_value_by_name(data, data_len, ALCS_MQTT_JSON_KEY_PRODUCT_KEY, &pr
 1179              		.loc 1 323 22
 1180 014a AA89     		mv	s3,a0
 1181              	.LVL126:
 324:C:/Users/stapi/OneDrive/Desktop/GD32VW553/V1_MQTT_OK/GD32VW55X_Wifi_BLE_SDK/GD32VW55x_RELEASE_V1.0.2/MSDK/cloud/alicloud/src/protocol/alcs\alcs_mqtt.c ****             deviceName = json_get_value_by_name(data, data_len, ALCS_MQTT_JSON_KEY_DEVICE_NAME, &de
 1182              		.loc 1 324 13 is_stmt 1
 324:C:/Users/stapi/OneDrive/Desktop/GD32VW553/V1_MQTT_OK/GD32VW55X_Wifi_BLE_SDK/GD32VW55x_RELEASE_V1.0.2/MSDK/cloud/alicloud/src/protocol/alcs\alcs_mqtt.c ****             deviceName = json_get_value_by_name(data, data_len, ALCS_MQTT_JSON_KEY_DEVICE_NAME, &de
 1183              		.loc 1 324 26 is_stmt 0
 1184 014c 5285     		mv	a0,s4
 1185              	.LVL127:
 1186 014e 97000000 		call	json_get_value_by_name
 1186      E7800000 
 1187              	.LVL128:
 325:C:/Users/stapi/OneDrive/Desktop/GD32VW553/V1_MQTT_OK/GD32VW55X_Wifi_BLE_SDK/GD32VW55x_RELEASE_V1.0.2/MSDK/cloud/alicloud/src/protocol/alcs\alcs_mqtt.c **** 
 1188              		.loc 1 325 26
 1189 0156 9255     		lw	a1,36(sp)
 1190 0158 37060000 		lui	a2,%hi(.LC20)
 1191 015c 0147     		li	a4,0
 1192 015e 1412     		addi	a3,sp,288
 1193 0160 13060600 		addi	a2,a2,%lo(.LC20)
 324:C:/Users/stapi/OneDrive/Desktop/GD32VW553/V1_MQTT_OK/GD32VW55X_Wifi_BLE_SDK/GD32VW55x_RELEASE_V1.0.2/MSDK/cloud/alicloud/src/protocol/alcs\alcs_mqtt.c ****             deviceName = json_get_value_by_name(data, data_len, ALCS_MQTT_JSON_KEY_DEVICE_NAME, &de
 1194              		.loc 1 324 26
 1195 0164 2A8B     		mv	s6,a0
 1196              	.LVL129:
 325:C:/Users/stapi/OneDrive/Desktop/GD32VW553/V1_MQTT_OK/GD32VW55X_Wifi_BLE_SDK/GD32VW55x_RELEASE_V1.0.2/MSDK/cloud/alicloud/src/protocol/alcs\alcs_mqtt.c **** 
 1197              		.loc 1 325 13 is_stmt 1
 325:C:/Users/stapi/OneDrive/Desktop/GD32VW553/V1_MQTT_OK/GD32VW55X_Wifi_BLE_SDK/GD32VW55x_RELEASE_V1.0.2/MSDK/cloud/alicloud/src/protocol/alcs\alcs_mqtt.c **** 
 1198              		.loc 1 325 26 is_stmt 0
 1199 0166 5285     		mv	a0,s4
 1200              	.LVL130:
 1201 0168 97000000 		call	json_get_value_by_name
 1201      E7800000 
 1202              	.LVL131:
 1203 0170 2A8A     		mv	s4,a0
 1204              	.LVL132:
 327:C:/Users/stapi/OneDrive/Desktop/GD32VW553/V1_MQTT_OK/GD32VW55X_Wifi_BLE_SDK/GD32VW55x_RELEASE_V1.0.2/MSDK/cloud/alicloud/src/protocol/alcs\alcs_mqtt.c **** 
 1205              		.loc 1 327 13 is_stmt 1
 327:C:/Users/stapi/OneDrive/Desktop/GD32VW553/V1_MQTT_OK/GD32VW55X_Wifi_BLE_SDK/GD32VW55x_RELEASE_V1.0.2/MSDK/cloud/alicloud/src/protocol/alcs\alcs_mqtt.c **** 
 1206              		.loc 1 327 13
 1207 0172 13850A00 		addi	a0,s5,%lo(.LC0)
 1208              	.LVL133:
 1209 0176 97000000 		call	HAL_Printf
 1209      E7800000 
 1210              	.LVL134:
 327:C:/Users/stapi/OneDrive/Desktop/GD32VW553/V1_MQTT_OK/GD32VW55X_Wifi_BLE_SDK/GD32VW55x_RELEASE_V1.0.2/MSDK/cloud/alicloud/src/protocol/alcs\alcs_mqtt.c **** 
 1211              		.loc 1 327 13
 1212 017e E257     		lw	a5,56(sp)
 1213 0180 83260112 		lw	a3,288(sp)
 1214 0184 D655     		lw	a1,116(sp)
 1215 0186 37050000 		lui	a0,%hi(.LC21)
 1216 018a 4A88     		mv	a6,s2
 1217 018c 5287     		mv	a4,s4
 1218 018e 5A86     		mv	a2,s6
 1219 0190 13050500 		addi	a0,a0,%lo(.LC21)
 1220 0194 97000000 		call	HAL_Printf
 1220      E7800000 
 1221              	.LVL135:
 327:C:/Users/stapi/OneDrive/Desktop/GD32VW553/V1_MQTT_OK/GD32VW55X_Wifi_BLE_SDK/GD32VW55x_RELEASE_V1.0.2/MSDK/cloud/alicloud/src/protocol/alcs\alcs_mqtt.c **** 
 1222              		.loc 1 327 13
 1223 019c 13850400 		addi	a0,s1,%lo(.LC2)
 1224 01a0 97000000 		call	HAL_Printf
 1224      E7800000 
 1225              	.LVL136:
 327:C:/Users/stapi/OneDrive/Desktop/GD32VW553/V1_MQTT_OK/GD32VW55X_Wifi_BLE_SDK/GD32VW55x_RELEASE_V1.0.2/MSDK/cloud/alicloud/src/protocol/alcs\alcs_mqtt.c **** 
 1226              		.loc 1 327 13
 329:C:/Users/stapi/OneDrive/Desktop/GD32VW553/V1_MQTT_OK/GD32VW55X_Wifi_BLE_SDK/GD32VW55x_RELEASE_V1.0.2/MSDK/cloud/alicloud/src/protocol/alcs\alcs_mqtt.c ****                 back1 = prefix[prefix_len];
 1227              		.loc 1 329 13
 329:C:/Users/stapi/OneDrive/Desktop/GD32VW553/V1_MQTT_OK/GD32VW55X_Wifi_BLE_SDK/GD32VW55x_RELEASE_V1.0.2/MSDK/cloud/alicloud/src/protocol/alcs\alcs_mqtt.c ****                 back1 = prefix[prefix_len];
 1228              		.loc 1 329 16 is_stmt 0
 1229 01a8 1C40     		lw	a5,0(s0)
 1230 01aa B5C7     		beq	a5,zero,.L59
 329:C:/Users/stapi/OneDrive/Desktop/GD32VW553/V1_MQTT_OK/GD32VW55X_Wifi_BLE_SDK/GD32VW55x_RELEASE_V1.0.2/MSDK/cloud/alicloud/src/protocol/alcs\alcs_mqtt.c ****                 back1 = prefix[prefix_len];
 1231              		.loc 1 329 49 discriminator 1
 1232 01ac 63050906 		beq	s2,zero,.L59
 329:C:/Users/stapi/OneDrive/Desktop/GD32VW553/V1_MQTT_OK/GD32VW55X_Wifi_BLE_SDK/GD32VW55x_RELEASE_V1.0.2/MSDK/cloud/alicloud/src/protocol/alcs\alcs_mqtt.c ****                 back1 = prefix[prefix_len];
 1233              		.loc 1 329 59 discriminator 2
 1234 01b0 63830906 		beq	s3,zero,.L59
 330:C:/Users/stapi/OneDrive/Desktop/GD32VW553/V1_MQTT_OK/GD32VW55X_Wifi_BLE_SDK/GD32VW55x_RELEASE_V1.0.2/MSDK/cloud/alicloud/src/protocol/alcs\alcs_mqtt.c ****                 prefix[prefix_len] = 0;
 1235              		.loc 1 330 17 is_stmt 1
 330:C:/Users/stapi/OneDrive/Desktop/GD32VW553/V1_MQTT_OK/GD32VW55X_Wifi_BLE_SDK/GD32VW55x_RELEASE_V1.0.2/MSDK/cloud/alicloud/src/protocol/alcs\alcs_mqtt.c ****                 prefix[prefix_len] = 0;
 1236              		.loc 1 330 31 is_stmt 0
 1237 01b4 E257     		lw	a5,56(sp)
 334:C:/Users/stapi/OneDrive/Desktop/GD32VW553/V1_MQTT_OK/GD32VW55X_Wifi_BLE_SDK/GD32VW55x_RELEASE_V1.0.2/MSDK/cloud/alicloud/src/protocol/alcs\alcs_mqtt.c ****                 prefix[prefix_len] = back1;
 1238              		.loc 1 334 17
 1239 01b6 8946     		li	a3,2
 1240 01b8 4E86     		mv	a2,s3
 330:C:/Users/stapi/OneDrive/Desktop/GD32VW553/V1_MQTT_OK/GD32VW55X_Wifi_BLE_SDK/GD32VW55x_RELEASE_V1.0.2/MSDK/cloud/alicloud/src/protocol/alcs\alcs_mqtt.c ****                 prefix[prefix_len] = 0;
 1241              		.loc 1 330 31
 1242 01ba CA97     		add	a5,s2,a5
 330:C:/Users/stapi/OneDrive/Desktop/GD32VW553/V1_MQTT_OK/GD32VW55X_Wifi_BLE_SDK/GD32VW55x_RELEASE_V1.0.2/MSDK/cloud/alicloud/src/protocol/alcs\alcs_mqtt.c ****                 prefix[prefix_len] = 0;
 1243              		.loc 1 330 23
 1244 01bc 838A0700 		lb	s5,0(a5)
 1245              	.LVL137:
 331:C:/Users/stapi/OneDrive/Desktop/GD32VW553/V1_MQTT_OK/GD32VW55X_Wifi_BLE_SDK/GD32VW55x_RELEASE_V1.0.2/MSDK/cloud/alicloud/src/protocol/alcs\alcs_mqtt.c ****                 back2 = secret[secret_len];
 1246              		.loc 1 331 17 is_stmt 1
 331:C:/Users/stapi/OneDrive/Desktop/GD32VW553/V1_MQTT_OK/GD32VW55X_Wifi_BLE_SDK/GD32VW55x_RELEASE_V1.0.2/MSDK/cloud/alicloud/src/protocol/alcs\alcs_mqtt.c ****                 back2 = secret[secret_len];
 1247              		.loc 1 331 36 is_stmt 0
 1248 01c0 23800700 		sb	zero,0(a5)
 332:C:/Users/stapi/OneDrive/Desktop/GD32VW553/V1_MQTT_OK/GD32VW55X_Wifi_BLE_SDK/GD32VW55x_RELEASE_V1.0.2/MSDK/cloud/alicloud/src/protocol/alcs\alcs_mqtt.c ****                 secret[secret_len] = 0;
 1249              		.loc 1 332 17 is_stmt 1
 332:C:/Users/stapi/OneDrive/Desktop/GD32VW553/V1_MQTT_OK/GD32VW55X_Wifi_BLE_SDK/GD32VW55x_RELEASE_V1.0.2/MSDK/cloud/alicloud/src/protocol/alcs\alcs_mqtt.c ****                 secret[secret_len] = 0;
 1250              		.loc 1 332 31 is_stmt 0
 1251 01c4 C647     		lw	a5,80(sp)
 334:C:/Users/stapi/OneDrive/Desktop/GD32VW553/V1_MQTT_OK/GD32VW55X_Wifi_BLE_SDK/GD32VW55x_RELEASE_V1.0.2/MSDK/cloud/alicloud/src/protocol/alcs\alcs_mqtt.c ****                 prefix[prefix_len] = back1;
 1252              		.loc 1 334 17
 1253 01c6 CA85     		mv	a1,s2
 332:C:/Users/stapi/OneDrive/Desktop/GD32VW553/V1_MQTT_OK/GD32VW55X_Wifi_BLE_SDK/GD32VW55x_RELEASE_V1.0.2/MSDK/cloud/alicloud/src/protocol/alcs\alcs_mqtt.c ****                 secret[secret_len] = 0;
 1254              		.loc 1 332 31
 1255 01c8 CE97     		add	a5,s3,a5
 332:C:/Users/stapi/OneDrive/Desktop/GD32VW553/V1_MQTT_OK/GD32VW55X_Wifi_BLE_SDK/GD32VW55x_RELEASE_V1.0.2/MSDK/cloud/alicloud/src/protocol/alcs\alcs_mqtt.c ****                 secret[secret_len] = 0;
 1256              		.loc 1 332 23
 1257 01ca 83840700 		lb	s1,0(a5)
 1258              	.LVL138:
 333:C:/Users/stapi/OneDrive/Desktop/GD32VW553/V1_MQTT_OK/GD32VW55X_Wifi_BLE_SDK/GD32VW55x_RELEASE_V1.0.2/MSDK/cloud/alicloud/src/protocol/alcs\alcs_mqtt.c ****                 alcs_add_svr_key(alcs_mqtt_ctx->coap_ctx, prefix, secret, FROMCLOUDSVR);
 1259              		.loc 1 333 17 is_stmt 1
 333:C:/Users/stapi/OneDrive/Desktop/GD32VW553/V1_MQTT_OK/GD32VW55X_Wifi_BLE_SDK/GD32VW55x_RELEASE_V1.0.2/MSDK/cloud/alicloud/src/protocol/alcs\alcs_mqtt.c ****                 alcs_add_svr_key(alcs_mqtt_ctx->coap_ctx, prefix, secret, FROMCLOUDSVR);
 1260              		.loc 1 333 36 is_stmt 0
 1261 01ce 23800700 		sb	zero,0(a5)
 334:C:/Users/stapi/OneDrive/Desktop/GD32VW553/V1_MQTT_OK/GD32VW55X_Wifi_BLE_SDK/GD32VW55x_RELEASE_V1.0.2/MSDK/cloud/alicloud/src/protocol/alcs\alcs_mqtt.c ****                 prefix[prefix_len] = back1;
 1262              		.loc 1 334 17 is_stmt 1
 1263 01d2 0840     		lw	a0,0(s0)
 1264 01d4 97000000 		call	alcs_add_svr_key
 1264      E7800000 
 1265              	.LVL139:
 335:C:/Users/stapi/OneDrive/Desktop/GD32VW553/V1_MQTT_OK/GD32VW55X_Wifi_BLE_SDK/GD32VW55x_RELEASE_V1.0.2/MSDK/cloud/alicloud/src/protocol/alcs\alcs_mqtt.c ****                 secret[secret_len] = back2;
 1266              		.loc 1 335 17
 335:C:/Users/stapi/OneDrive/Desktop/GD32VW553/V1_MQTT_OK/GD32VW55X_Wifi_BLE_SDK/GD32VW55x_RELEASE_V1.0.2/MSDK/cloud/alicloud/src/protocol/alcs\alcs_mqtt.c ****                 secret[secret_len] = back2;
 1267              		.loc 1 335 36 is_stmt 0
 1268 01dc E257     		lw	a5,56(sp)
 337:C:/Users/stapi/OneDrive/Desktop/GD32VW553/V1_MQTT_OK/GD32VW55X_Wifi_BLE_SDK/GD32VW55x_RELEASE_V1.0.2/MSDK/cloud/alicloud/src/protocol/alcs\alcs_mqtt.c **** 
 1269              		.loc 1 337 29
 1270 01de 0547     		li	a4,1
 362:C:/Users/stapi/OneDrive/Desktop/GD32VW553/V1_MQTT_OK/GD32VW55X_Wifi_BLE_SDK/GD32VW55x_RELEASE_V1.0.2/MSDK/cloud/alicloud/src/protocol/alcs\alcs_mqtt.c **** #endif
 1271              		.loc 1 362 17
 1272 01e0 4E88     		mv	a6,s3
 335:C:/Users/stapi/OneDrive/Desktop/GD32VW553/V1_MQTT_OK/GD32VW55X_Wifi_BLE_SDK/GD32VW55x_RELEASE_V1.0.2/MSDK/cloud/alicloud/src/protocol/alcs\alcs_mqtt.c ****                 secret[secret_len] = back2;
 1273              		.loc 1 335 36
 1274 01e2 CA97     		add	a5,s2,a5
 1275 01e4 23805701 		sb	s5,0(a5)
 336:C:/Users/stapi/OneDrive/Desktop/GD32VW553/V1_MQTT_OK/GD32VW55X_Wifi_BLE_SDK/GD32VW55x_RELEASE_V1.0.2/MSDK/cloud/alicloud/src/protocol/alcs\alcs_mqtt.c ****                 b_prefixkey = 1;
 1276              		.loc 1 336 17 is_stmt 1
 336:C:/Users/stapi/OneDrive/Desktop/GD32VW553/V1_MQTT_OK/GD32VW55X_Wifi_BLE_SDK/GD32VW55x_RELEASE_V1.0.2/MSDK/cloud/alicloud/src/protocol/alcs\alcs_mqtt.c ****                 b_prefixkey = 1;
 1277              		.loc 1 336 36 is_stmt 0
 1278 01e8 C647     		lw	a5,80(sp)
 362:C:/Users/stapi/OneDrive/Desktop/GD32VW553/V1_MQTT_OK/GD32VW55X_Wifi_BLE_SDK/GD32VW55x_RELEASE_V1.0.2/MSDK/cloud/alicloud/src/protocol/alcs\alcs_mqtt.c **** #endif
 1279              		.loc 1 362 17
 1280 01ea 5286     		mv	a2,s4
 1281 01ec 5A85     		mv	a0,s6
 336:C:/Users/stapi/OneDrive/Desktop/GD32VW553/V1_MQTT_OK/GD32VW55X_Wifi_BLE_SDK/GD32VW55x_RELEASE_V1.0.2/MSDK/cloud/alicloud/src/protocol/alcs\alcs_mqtt.c ****                 b_prefixkey = 1;
 1282              		.loc 1 336 36
 1283 01ee CE97     		add	a5,s3,a5
 1284 01f0 23809700 		sb	s1,0(a5)
 337:C:/Users/stapi/OneDrive/Desktop/GD32VW553/V1_MQTT_OK/GD32VW55X_Wifi_BLE_SDK/GD32VW55x_RELEASE_V1.0.2/MSDK/cloud/alicloud/src/protocol/alcs\alcs_mqtt.c **** 
 1285              		.loc 1 337 17 is_stmt 1
 337:C:/Users/stapi/OneDrive/Desktop/GD32VW553/V1_MQTT_OK/GD32VW55X_Wifi_BLE_SDK/GD32VW55x_RELEASE_V1.0.2/MSDK/cloud/alicloud/src/protocol/alcs\alcs_mqtt.c **** 
 1286              		.loc 1 337 29 is_stmt 0
 1287 01f4 B7070000 		lui	a5,%hi(.LANCHOR1)
 1288 01f8 23A0E700 		sw	a4,%lo(.LANCHOR1)(a5)
 362:C:/Users/stapi/OneDrive/Desktop/GD32VW553/V1_MQTT_OK/GD32VW55X_Wifi_BLE_SDK/GD32VW55x_RELEASE_V1.0.2/MSDK/cloud/alicloud/src/protocol/alcs\alcs_mqtt.c **** #endif
 1289              		.loc 1 362 17 is_stmt 1
 1290 01fc 83580105 		lhu	a7,80(sp)
 1291 0200 83578103 		lhu	a5,56(sp)
 1292 0204 83560112 		lhu	a3,288(sp)
 1293 0208 83554107 		lhu	a1,116(sp)
 1294 020c 4A87     		mv	a4,s2
 1295 020e 97000000 		call	__alcs_mqtt_prefix_secret_save
 1295      E7800000 
 1296              	.LVL140:
 1297              	.L59:
 1298              	.LBE29:
 1299              	.LBE28:
 463:C:/Users/stapi/OneDrive/Desktop/GD32VW553/V1_MQTT_OK/GD32VW55X_Wifi_BLE_SDK/GD32VW55x_RELEASE_V1.0.2/MSDK/cloud/alicloud/src/protocol/alcs\alcs_mqtt.c **** 
 1300              		.loc 1 463 1 is_stmt 0
 1301 0216 1D61     		addi	sp,sp,416
 1302              		.cfi_remember_state
 1303              		.cfi_def_cfa_offset 0
 1304 0218 17030000 		tail	__riscv_restore_9
 1304      67000300 
 1305              		.cfi_restore 24
 1306              		.cfi_restore 23
 1307              		.cfi_restore 22
 1308              		.cfi_restore 21
 1309              		.cfi_restore 20
 1310              		.cfi_restore 19
 1311              		.cfi_restore 18
 1312              		.cfi_restore 9
 1313              		.cfi_restore 8
 1314              		.cfi_restore 1
 1315              		.cfi_def_cfa_offset -48
 1316              	.LVL141:
 1317              	.L62:
 1318              		.cfi_restore_state
 1319              	.LBB30:
 366:C:/Users/stapi/OneDrive/Desktop/GD32VW553/V1_MQTT_OK/GD32VW55X_Wifi_BLE_SDK/GD32VW55x_RELEASE_V1.0.2/MSDK/cloud/alicloud/src/protocol/alcs\alcs_mqtt.c ****                 ALCS_MQTT_STATUS_SUCCESS == __alcs_mqtt_kv_get(ALCS_MQTT_JSON_KEY_SECRET, secret, &
 1320              		.loc 1 366 13 is_stmt 1
 366:C:/Users/stapi/OneDrive/Desktop/GD32VW553/V1_MQTT_OK/GD32VW55X_Wifi_BLE_SDK/GD32VW55x_RELEASE_V1.0.2/MSDK/cloud/alicloud/src/protocol/alcs\alcs_mqtt.c ****                 ALCS_MQTT_STATUS_SUCCESS == __alcs_mqtt_kv_get(ALCS_MQTT_JSON_KEY_SECRET, secret, &
 1321              		.loc 1 366 45 is_stmt 0
 1322 0220 3018     		addi	a2,sp,56
 1323 0222 8145     		li	a1,0
 1324 0224 13050500 		addi	a0,a0,%lo(.LC17)
 1325 0228 97000000 		call	__alcs_mqtt_kv_get
 1325      E7800000 
 1326              	.LVL142:
 366:C:/Users/stapi/OneDrive/Desktop/GD32VW553/V1_MQTT_OK/GD32VW55X_Wifi_BLE_SDK/GD32VW55x_RELEASE_V1.0.2/MSDK/cloud/alicloud/src/protocol/alcs\alcs_mqtt.c ****                 ALCS_MQTT_STATUS_SUCCESS == __alcs_mqtt_kv_get(ALCS_MQTT_JSON_KEY_SECRET, secret, &
 1327              		.loc 1 366 16
 1328 0230 7DF1     		bne	a0,zero,.L59
 367:C:/Users/stapi/OneDrive/Desktop/GD32VW553/V1_MQTT_OK/GD32VW55X_Wifi_BLE_SDK/GD32VW55x_RELEASE_V1.0.2/MSDK/cloud/alicloud/src/protocol/alcs\alcs_mqtt.c ****                 if (NULL != alcs_mqtt_ctx->coap_ctx && prefix_len && secret_len) {
 1329              		.loc 1 367 45 discriminator 1
 1330 0232 37050000 		lui	a0,%hi(.LC18)
 1331 0236 9008     		addi	a2,sp,80
 1332 0238 8145     		li	a1,0
 1333 023a 13050500 		addi	a0,a0,%lo(.LC18)
 1334 023e 97000000 		call	__alcs_mqtt_kv_get
 1334      E7800000 
 1335              	.LVL143:
 366:C:/Users/stapi/OneDrive/Desktop/GD32VW553/V1_MQTT_OK/GD32VW55X_Wifi_BLE_SDK/GD32VW55x_RELEASE_V1.0.2/MSDK/cloud/alicloud/src/protocol/alcs\alcs_mqtt.c ****                 ALCS_MQTT_STATUS_SUCCESS == __alcs_mqtt_kv_get(ALCS_MQTT_JSON_KEY_SECRET, secret, &
 1336              		.loc 1 366 112 discriminator 1
 1337 0246 61F9     		bne	a0,zero,.L59
 368:C:/Users/stapi/OneDrive/Desktop/GD32VW553/V1_MQTT_OK/GD32VW55X_Wifi_BLE_SDK/GD32VW55x_RELEASE_V1.0.2/MSDK/cloud/alicloud/src/protocol/alcs\alcs_mqtt.c ****                     alcs_add_svr_key(alcs_mqtt_ctx->coap_ctx, prefix, secret, FROMCLOUDSVR);
 1338              		.loc 1 368 17 is_stmt 1
 368:C:/Users/stapi/OneDrive/Desktop/GD32VW553/V1_MQTT_OK/GD32VW55X_Wifi_BLE_SDK/GD32VW55x_RELEASE_V1.0.2/MSDK/cloud/alicloud/src/protocol/alcs\alcs_mqtt.c ****                     alcs_add_svr_key(alcs_mqtt_ctx->coap_ctx, prefix, secret, FROMCLOUDSVR);
 1339              		.loc 1 368 42 is_stmt 0
 1340 0248 0840     		lw	a0,0(s0)
 368:C:/Users/stapi/OneDrive/Desktop/GD32VW553/V1_MQTT_OK/GD32VW55X_Wifi_BLE_SDK/GD32VW55x_RELEASE_V1.0.2/MSDK/cloud/alicloud/src/protocol/alcs\alcs_mqtt.c ****                     alcs_add_svr_key(alcs_mqtt_ctx->coap_ctx, prefix, secret, FROMCLOUDSVR);
 1341              		.loc 1 368 20
 1342 024a 71D5     		beq	a0,zero,.L59
 368:C:/Users/stapi/OneDrive/Desktop/GD32VW553/V1_MQTT_OK/GD32VW55X_Wifi_BLE_SDK/GD32VW55x_RELEASE_V1.0.2/MSDK/cloud/alicloud/src/protocol/alcs\alcs_mqtt.c ****                     alcs_add_svr_key(alcs_mqtt_ctx->coap_ctx, prefix, secret, FROMCLOUDSVR);
 1343              		.loc 1 368 53 discriminator 1
 1344 024c E257     		lw	a5,56(sp)
 1345 024e E1D7     		beq	a5,zero,.L59
 368:C:/Users/stapi/OneDrive/Desktop/GD32VW553/V1_MQTT_OK/GD32VW55X_Wifi_BLE_SDK/GD32VW55x_RELEASE_V1.0.2/MSDK/cloud/alicloud/src/protocol/alcs\alcs_mqtt.c ****                     alcs_add_svr_key(alcs_mqtt_ctx->coap_ctx, prefix, secret, FROMCLOUDSVR);
 1346              		.loc 1 368 67 discriminator 2
 1347 0250 C647     		lw	a5,80(sp)
 1348 0252 F1D3     		beq	a5,zero,.L59
 369:C:/Users/stapi/OneDrive/Desktop/GD32VW553/V1_MQTT_OK/GD32VW55X_Wifi_BLE_SDK/GD32VW55x_RELEASE_V1.0.2/MSDK/cloud/alicloud/src/protocol/alcs\alcs_mqtt.c ****                 }
 1349              		.loc 1 369 21 is_stmt 1
 1350 0254 8946     		li	a3,2
 1351 0256 0146     		li	a2,0
 1352 0258 8145     		li	a1,0
 1353 025a 97000000 		call	alcs_add_svr_key
 1353      E7800000 
 1354              	.LVL144:
 373:C:/Users/stapi/OneDrive/Desktop/GD32VW553/V1_MQTT_OK/GD32VW55X_Wifi_BLE_SDK/GD32VW55x_RELEASE_V1.0.2/MSDK/cloud/alicloud/src/protocol/alcs\alcs_mqtt.c ****     }
 1355              		.loc 1 373 9
 1356 0262 55BF     		j	.L59
 1357              	.LVL145:
 1358              	.L61:
 1359              	.LBE30:
 376:C:/Users/stapi/OneDrive/Desktop/GD32VW553/V1_MQTT_OK/GD32VW55X_Wifi_BLE_SDK/GD32VW55x_RELEASE_V1.0.2/MSDK/cloud/alicloud/src/protocol/alcs\alcs_mqtt.c ****     snprintf(topic_compare, ALCS_MQTT_TOPIC_MAX_LEN, ALCS_MQTT_PREFIX ALCS_MQTT_THING_LAN_PREFIX_UP
 1360              		.loc 1 376 5
 1361 0264 13060008 		li	a2,128
 1362 0268 8145     		li	a1,0
 1363 026a 0811     		addi	a0,sp,160
 1364 026c 97000000 		call	memset
 1364      E7800000 
 1365              	.LVL146:
 377:C:/Users/stapi/OneDrive/Desktop/GD32VW553/V1_MQTT_OK/GD32VW55X_Wifi_BLE_SDK/GD32VW55x_RELEASE_V1.0.2/MSDK/cloud/alicloud/src/protocol/alcs\alcs_mqtt.c ****              alcs_mqtt_ctx->product_key, alcs_mqtt_ctx->device_name);
 1366              		.loc 1 377 5
 1367 0274 37060000 		lui	a2,%hi(.LC22)
 1368 0278 5E87     		mv	a4,s7
 1369 027a DA86     		mv	a3,s6
 1370 027c 13060600 		addi	a2,a2,%lo(.LC22)
 1371 0280 93050008 		li	a1,128
 1372 0284 0811     		addi	a0,sp,160
 1373 0286 97000000 		call	snprintf
 1373      E7800000 
 1374              	.LVL147:
 380:C:/Users/stapi/OneDrive/Desktop/GD32VW553/V1_MQTT_OK/GD32VW55X_Wifi_BLE_SDK/GD32VW55x_RELEASE_V1.0.2/MSDK/cloud/alicloud/src/protocol/alcs\alcs_mqtt.c ****         int param_len = 0, prefix_len = 0, id_len = 0;
 1375              		.loc 1 380 5
 380:C:/Users/stapi/OneDrive/Desktop/GD32VW553/V1_MQTT_OK/GD32VW55X_Wifi_BLE_SDK/GD32VW55x_RELEASE_V1.0.2/MSDK/cloud/alicloud/src/protocol/alcs\alcs_mqtt.c ****         int param_len = 0, prefix_len = 0, id_len = 0;
 1376              		.loc 1 380 10 is_stmt 0
 1377 028e 0811     		addi	a0,sp,160
 1378 0290 97000000 		call	strlen
 1378      E7800000 
 1379              	.LVL148:
 380:C:/Users/stapi/OneDrive/Desktop/GD32VW553/V1_MQTT_OK/GD32VW55X_Wifi_BLE_SDK/GD32VW55x_RELEASE_V1.0.2/MSDK/cloud/alicloud/src/protocol/alcs\alcs_mqtt.c ****         int param_len = 0, prefix_len = 0, id_len = 0;
 1380              		.loc 1 380 8
 1381 0298 631DA920 		bne	s2,a0,.L66
 380:C:/Users/stapi/OneDrive/Desktop/GD32VW553/V1_MQTT_OK/GD32VW55X_Wifi_BLE_SDK/GD32VW55x_RELEASE_V1.0.2/MSDK/cloud/alicloud/src/protocol/alcs\alcs_mqtt.c ****         int param_len = 0, prefix_len = 0, id_len = 0;
 1382              		.loc 1 380 50 discriminator 1
 1383 029c 4A86     		mv	a2,s2
 1384 029e E285     		mv	a1,s8
 1385 02a0 0811     		addi	a0,sp,160
 1386 02a2 97000000 		call	strncmp
 1386      E7800000 
 1387              	.LVL149:
 380:C:/Users/stapi/OneDrive/Desktop/GD32VW553/V1_MQTT_OK/GD32VW55X_Wifi_BLE_SDK/GD32VW55x_RELEASE_V1.0.2/MSDK/cloud/alicloud/src/protocol/alcs\alcs_mqtt.c ****         int param_len = 0, prefix_len = 0, id_len = 0;
 1388              		.loc 1 380 46 discriminator 1
 1389 02aa 63140520 		bne	a0,zero,.L66
 1390              	.LBB31:
 381:C:/Users/stapi/OneDrive/Desktop/GD32VW553/V1_MQTT_OK/GD32VW55X_Wifi_BLE_SDK/GD32VW55x_RELEASE_V1.0.2/MSDK/cloud/alicloud/src/protocol/alcs\alcs_mqtt.c ****         char *param = NULL, *prefix = NULL;
 1391              		.loc 1 381 9 is_stmt 1
 384:C:/Users/stapi/OneDrive/Desktop/GD32VW553/V1_MQTT_OK/GD32VW55X_Wifi_BLE_SDK/GD32VW55x_RELEASE_V1.0.2/MSDK/cloud/alicloud/src/protocol/alcs\alcs_mqtt.c **** 
 1392              		.loc 1 384 14 is_stmt 0
 1393 02ae 37060000 		lui	a2,%hi(.LC23)
 1394 02b2 D285     		mv	a1,s4
 1395 02b4 0147     		li	a4,0
 1396 02b6 5410     		addi	a3,sp,36
 1397 02b8 13060600 		addi	a2,a2,%lo(.LC23)
 1398 02bc 4E85     		mv	a0,s3
 381:C:/Users/stapi/OneDrive/Desktop/GD32VW553/V1_MQTT_OK/GD32VW55X_Wifi_BLE_SDK/GD32VW55x_RELEASE_V1.0.2/MSDK/cloud/alicloud/src/protocol/alcs\alcs_mqtt.c ****         char *param = NULL, *prefix = NULL;
 1399              		.loc 1 381 13
 1400 02be 02CE     		sw	zero,28(sp)
 381:C:/Users/stapi/OneDrive/Desktop/GD32VW553/V1_MQTT_OK/GD32VW55X_Wifi_BLE_SDK/GD32VW55x_RELEASE_V1.0.2/MSDK/cloud/alicloud/src/protocol/alcs\alcs_mqtt.c ****         char *param = NULL, *prefix = NULL;
 1401              		.loc 1 381 28
 1402 02c0 02D0     		sw	zero,32(sp)
 381:C:/Users/stapi/OneDrive/Desktop/GD32VW553/V1_MQTT_OK/GD32VW55X_Wifi_BLE_SDK/GD32VW55x_RELEASE_V1.0.2/MSDK/cloud/alicloud/src/protocol/alcs\alcs_mqtt.c ****         char *param = NULL, *prefix = NULL;
 1403              		.loc 1 381 44
 1404 02c2 02D2     		sw	zero,36(sp)
 382:C:/Users/stapi/OneDrive/Desktop/GD32VW553/V1_MQTT_OK/GD32VW55X_Wifi_BLE_SDK/GD32VW55x_RELEASE_V1.0.2/MSDK/cloud/alicloud/src/protocol/alcs\alcs_mqtt.c ****         char *id = NULL;
 1405              		.loc 1 382 9 is_stmt 1
 1406              	.LVL150:
 383:C:/Users/stapi/OneDrive/Desktop/GD32VW553/V1_MQTT_OK/GD32VW55X_Wifi_BLE_SDK/GD32VW55x_RELEASE_V1.0.2/MSDK/cloud/alicloud/src/protocol/alcs\alcs_mqtt.c ****         id = json_get_value_by_name((char *)payload, payload_len, "id", &id_len, NULL);
 1407              		.loc 1 383 9
 384:C:/Users/stapi/OneDrive/Desktop/GD32VW553/V1_MQTT_OK/GD32VW55X_Wifi_BLE_SDK/GD32VW55x_RELEASE_V1.0.2/MSDK/cloud/alicloud/src/protocol/alcs\alcs_mqtt.c **** 
 1408              		.loc 1 384 9
 384:C:/Users/stapi/OneDrive/Desktop/GD32VW553/V1_MQTT_OK/GD32VW55X_Wifi_BLE_SDK/GD32VW55x_RELEASE_V1.0.2/MSDK/cloud/alicloud/src/protocol/alcs\alcs_mqtt.c **** 
 1409              		.loc 1 384 14 is_stmt 0
 1410 02c4 97000000 		call	json_get_value_by_name
 1410      E7800000 
 1411              	.LVL151:
 1412 02cc AA85     		mv	a1,a0
 1413              	.LVL152:
 386:C:/Users/stapi/OneDrive/Desktop/GD32VW553/V1_MQTT_OK/GD32VW55X_Wifi_BLE_SDK/GD32VW55x_RELEASE_V1.0.2/MSDK/cloud/alicloud/src/protocol/alcs\alcs_mqtt.c ****             strncpy(reqid, id, sizeof(reqid) - 1);
 1414              		.loc 1 386 9 is_stmt 1
 386:C:/Users/stapi/OneDrive/Desktop/GD32VW553/V1_MQTT_OK/GD32VW55X_Wifi_BLE_SDK/GD32VW55x_RELEASE_V1.0.2/MSDK/cloud/alicloud/src/protocol/alcs\alcs_mqtt.c ****             strncpy(reqid, id, sizeof(reqid) - 1);
 1415              		.loc 1 386 12 is_stmt 0
 1416 02ce 09C9     		beq	a0,zero,.L67
 386:C:/Users/stapi/OneDrive/Desktop/GD32VW553/V1_MQTT_OK/GD32VW55X_Wifi_BLE_SDK/GD32VW55x_RELEASE_V1.0.2/MSDK/cloud/alicloud/src/protocol/alcs\alcs_mqtt.c ****             strncpy(reqid, id, sizeof(reqid) - 1);
 1417              		.loc 1 386 24 discriminator 1
 1418 02d0 9257     		lw	a5,36(sp)
 1419 02d2 99C7     		beq	a5,zero,.L67
 387:C:/Users/stapi/OneDrive/Desktop/GD32VW553/V1_MQTT_OK/GD32VW55X_Wifi_BLE_SDK/GD32VW55x_RELEASE_V1.0.2/MSDK/cloud/alicloud/src/protocol/alcs\alcs_mqtt.c ****         }
 1420              		.loc 1 387 13 is_stmt 1
 1421 02d4 3D46     		li	a2,15
 1422 02d6 2810     		addi	a0,sp,40
 1423              	.LVL153:
 1424 02d8 97000000 		call	strncpy
 1424      E7800000 
 1425              	.LVL154:
 1426              	.L67:
 389:C:/Users/stapi/OneDrive/Desktop/GD32VW553/V1_MQTT_OK/GD32VW55X_Wifi_BLE_SDK/GD32VW55x_RELEASE_V1.0.2/MSDK/cloud/alicloud/src/protocol/alcs\alcs_mqtt.c ****         if (NULL != param && 0 != param_len) {
 1427              		.loc 1 389 9
 389:C:/Users/stapi/OneDrive/Desktop/GD32VW553/V1_MQTT_OK/GD32VW55X_Wifi_BLE_SDK/GD32VW55x_RELEASE_V1.0.2/MSDK/cloud/alicloud/src/protocol/alcs\alcs_mqtt.c ****         if (NULL != param && 0 != param_len) {
 1428              		.loc 1 389 17 is_stmt 0
 1429 02e0 37060000 		lui	a2,%hi(.LC24)
 1430 02e4 0147     		li	a4,0
 1431 02e6 7408     		addi	a3,sp,28
 1432 02e8 13060600 		addi	a2,a2,%lo(.LC24)
 1433 02ec D285     		mv	a1,s4
 1434 02ee 4E85     		mv	a0,s3
 1435 02f0 97000000 		call	json_get_value_by_name
 1435      E7800000 
 1436              	.LVL155:
 390:C:/Users/stapi/OneDrive/Desktop/GD32VW553/V1_MQTT_OK/GD32VW55X_Wifi_BLE_SDK/GD32VW55x_RELEASE_V1.0.2/MSDK/cloud/alicloud/src/protocol/alcs\alcs_mqtt.c ****             prefix = json_get_value_by_name(param, param_len, ALCS_MQTT_JSON_KEY_PREFIX, &prefix_le
 1437              		.loc 1 390 9 is_stmt 1
 390:C:/Users/stapi/OneDrive/Desktop/GD32VW553/V1_MQTT_OK/GD32VW55X_Wifi_BLE_SDK/GD32VW55x_RELEASE_V1.0.2/MSDK/cloud/alicloud/src/protocol/alcs\alcs_mqtt.c ****             prefix = json_get_value_by_name(param, param_len, ALCS_MQTT_JSON_KEY_PREFIX, &prefix_le
 1438              		.loc 1 390 12 is_stmt 0
 1439 02f8 19DD     		beq	a0,zero,.L59
 390:C:/Users/stapi/OneDrive/Desktop/GD32VW553/V1_MQTT_OK/GD32VW55X_Wifi_BLE_SDK/GD32VW55x_RELEASE_V1.0.2/MSDK/cloud/alicloud/src/protocol/alcs\alcs_mqtt.c ****             prefix = json_get_value_by_name(param, param_len, ALCS_MQTT_JSON_KEY_PREFIX, &prefix_le
 1440              		.loc 1 390 32 discriminator 1
 1441 02fa F245     		lw	a1,28(sp)
 390:C:/Users/stapi/OneDrive/Desktop/GD32VW553/V1_MQTT_OK/GD32VW55X_Wifi_BLE_SDK/GD32VW55x_RELEASE_V1.0.2/MSDK/cloud/alicloud/src/protocol/alcs\alcs_mqtt.c ****             prefix = json_get_value_by_name(param, param_len, ALCS_MQTT_JSON_KEY_PREFIX, &prefix_le
 1442              		.loc 1 390 27 discriminator 1
 1443 02fc 89DD     		beq	a1,zero,.L59
 1444              	.LBB32:
 391:C:/Users/stapi/OneDrive/Desktop/GD32VW553/V1_MQTT_OK/GD32VW55X_Wifi_BLE_SDK/GD32VW55x_RELEASE_V1.0.2/MSDK/cloud/alicloud/src/protocol/alcs\alcs_mqtt.c ****             if (NULL != alcs_mqtt_ctx->coap_ctx && prefix) {
 1445              		.loc 1 391 13 is_stmt 1
 391:C:/Users/stapi/OneDrive/Desktop/GD32VW553/V1_MQTT_OK/GD32VW55X_Wifi_BLE_SDK/GD32VW55x_RELEASE_V1.0.2/MSDK/cloud/alicloud/src/protocol/alcs\alcs_mqtt.c ****             if (NULL != alcs_mqtt_ctx->coap_ctx && prefix) {
 1446              		.loc 1 391 22 is_stmt 0
 1447 02fe 37060000 		lui	a2,%hi(.LC17)
 1448 0302 0147     		li	a4,0
 1449 0304 1410     		addi	a3,sp,32
 1450 0306 13060600 		addi	a2,a2,%lo(.LC17)
 1451 030a 97000000 		call	json_get_value_by_name
 1451      E7800000 
 1452              	.LVL156:
 392:C:/Users/stapi/OneDrive/Desktop/GD32VW553/V1_MQTT_OK/GD32VW55X_Wifi_BLE_SDK/GD32VW55x_RELEASE_V1.0.2/MSDK/cloud/alicloud/src/protocol/alcs\alcs_mqtt.c ****                 char mprefix[ALCS_MQTT_PREFIX_MAX_LEN + 1] = {0};
 1453              		.loc 1 392 16
 1454 0312 1C40     		lw	a5,0(s0)
 391:C:/Users/stapi/OneDrive/Desktop/GD32VW553/V1_MQTT_OK/GD32VW55X_Wifi_BLE_SDK/GD32VW55x_RELEASE_V1.0.2/MSDK/cloud/alicloud/src/protocol/alcs\alcs_mqtt.c ****             if (NULL != alcs_mqtt_ctx->coap_ctx && prefix) {
 1455              		.loc 1 391 22
 1456 0314 2A89     		mv	s2,a0
 1457              	.LVL157:
 392:C:/Users/stapi/OneDrive/Desktop/GD32VW553/V1_MQTT_OK/GD32VW55X_Wifi_BLE_SDK/GD32VW55x_RELEASE_V1.0.2/MSDK/cloud/alicloud/src/protocol/alcs\alcs_mqtt.c ****                 char mprefix[ALCS_MQTT_PREFIX_MAX_LEN + 1] = {0};
 1458              		.loc 1 392 13 is_stmt 1
 392:C:/Users/stapi/OneDrive/Desktop/GD32VW553/V1_MQTT_OK/GD32VW55X_Wifi_BLE_SDK/GD32VW55x_RELEASE_V1.0.2/MSDK/cloud/alicloud/src/protocol/alcs\alcs_mqtt.c ****                 char mprefix[ALCS_MQTT_PREFIX_MAX_LEN + 1] = {0};
 1459              		.loc 1 392 16 is_stmt 0
 1460 0316 63810718 		beq	a5,zero,.L69
 392:C:/Users/stapi/OneDrive/Desktop/GD32VW553/V1_MQTT_OK/GD32VW55X_Wifi_BLE_SDK/GD32VW55x_RELEASE_V1.0.2/MSDK/cloud/alicloud/src/protocol/alcs\alcs_mqtt.c ****                 char mprefix[ALCS_MQTT_PREFIX_MAX_LEN + 1] = {0};
 1461              		.loc 1 392 49 discriminator 1
 1462 031a 630F0516 		beq	a0,zero,.L69
 1463              	.LBB33:
 393:C:/Users/stapi/OneDrive/Desktop/GD32VW553/V1_MQTT_OK/GD32VW55X_Wifi_BLE_SDK/GD32VW55x_RELEASE_V1.0.2/MSDK/cloud/alicloud/src/protocol/alcs\alcs_mqtt.c ****                 char msecret[ALCS_MQTT_SECRET_MAX_LEN + 1] = {0};
 1464              		.loc 1 393 17 is_stmt 1
 393:C:/Users/stapi/OneDrive/Desktop/GD32VW553/V1_MQTT_OK/GD32VW55X_Wifi_BLE_SDK/GD32VW55x_RELEASE_V1.0.2/MSDK/cloud/alicloud/src/protocol/alcs\alcs_mqtt.c ****                 char msecret[ALCS_MQTT_SECRET_MAX_LEN + 1] = {0};
 1465              		.loc 1 393 22 is_stmt 0
 1466 031e 13065002 		li	a2,37
 1467 0322 8145     		li	a1,0
 1468 0324 A818     		addi	a0,sp,120
 1469              	.LVL158:
 1470 0326 82DA     		sw	zero,116(sp)
 1471 0328 97000000 		call	memset
 1471      E7800000 
 1472              	.LVL159:
 394:C:/Users/stapi/OneDrive/Desktop/GD32VW553/V1_MQTT_OK/GD32VW55X_Wifi_BLE_SDK/GD32VW55x_RELEASE_V1.0.2/MSDK/cloud/alicloud/src/protocol/alcs\alcs_mqtt.c ****                 char mpk[PRODUCT_KEY_LEN + 1] = {0};
 1473              		.loc 1 394 17 is_stmt 1
 394:C:/Users/stapi/OneDrive/Desktop/GD32VW553/V1_MQTT_OK/GD32VW55X_Wifi_BLE_SDK/GD32VW55x_RELEASE_V1.0.2/MSDK/cloud/alicloud/src/protocol/alcs\alcs_mqtt.c ****                 char mpk[PRODUCT_KEY_LEN + 1] = {0};
 1474              		.loc 1 394 22 is_stmt 0
 1475 0330 13065002 		li	a2,37
 1476 0334 8145     		li	a1,0
 1477 0336 4812     		addi	a0,sp,292
 1478 0338 23200112 		sw	zero,288(sp)
 1479 033c 97000000 		call	memset
 1479      E7800000 
 1480              	.LVL160:
 395:C:/Users/stapi/OneDrive/Desktop/GD32VW553/V1_MQTT_OK/GD32VW55X_Wifi_BLE_SDK/GD32VW55x_RELEASE_V1.0.2/MSDK/cloud/alicloud/src/protocol/alcs\alcs_mqtt.c ****                 char mdn[DEVICE_NAME_LEN + 1] = {0};
 1481              		.loc 1 395 17 is_stmt 1
 396:C:/Users/stapi/OneDrive/Desktop/GD32VW553/V1_MQTT_OK/GD32VW55X_Wifi_BLE_SDK/GD32VW55x_RELEASE_V1.0.2/MSDK/cloud/alicloud/src/protocol/alcs\alcs_mqtt.c ****                 uint16_t mpk_len = 0, mdn_len = 0;
 1482              		.loc 1 396 22 is_stmt 0
 1483 0344 7546     		li	a2,29
 1484 0346 8145     		li	a1,0
 1485 0348 C808     		addi	a0,sp,84
 395:C:/Users/stapi/OneDrive/Desktop/GD32VW553/V1_MQTT_OK/GD32VW55X_Wifi_BLE_SDK/GD32VW55x_RELEASE_V1.0.2/MSDK/cloud/alicloud/src/protocol/alcs\alcs_mqtt.c ****                 char mdn[DEVICE_NAME_LEN + 1] = {0};
 1486              		.loc 1 395 22
 1487 034a 02DC     		sw	zero,56(sp)
 1488 034c 02DE     		sw	zero,60(sp)
 1489 034e 82C0     		sw	zero,64(sp)
 1490 0350 82C2     		sw	zero,68(sp)
 1491 0352 82C4     		sw	zero,72(sp)
 1492 0354 23060104 		sb	zero,76(sp)
 396:C:/Users/stapi/OneDrive/Desktop/GD32VW553/V1_MQTT_OK/GD32VW55X_Wifi_BLE_SDK/GD32VW55x_RELEASE_V1.0.2/MSDK/cloud/alicloud/src/protocol/alcs\alcs_mqtt.c ****                 uint16_t mpk_len = 0, mdn_len = 0;
 1493              		.loc 1 396 17 is_stmt 1
 396:C:/Users/stapi/OneDrive/Desktop/GD32VW553/V1_MQTT_OK/GD32VW55X_Wifi_BLE_SDK/GD32VW55x_RELEASE_V1.0.2/MSDK/cloud/alicloud/src/protocol/alcs\alcs_mqtt.c ****                 uint16_t mpk_len = 0, mdn_len = 0;
 1494              		.loc 1 396 22 is_stmt 0
 1495 0358 82C8     		sw	zero,80(sp)
 1496 035a 97000000 		call	memset
 1496      E7800000 
 1497              	.LVL161:
 397:C:/Users/stapi/OneDrive/Desktop/GD32VW553/V1_MQTT_OK/GD32VW55X_Wifi_BLE_SDK/GD32VW55x_RELEASE_V1.0.2/MSDK/cloud/alicloud/src/protocol/alcs\alcs_mqtt.c ****                 HAL_GetProductKey(mpk);
 1498              		.loc 1 397 17 is_stmt 1
 398:C:/Users/stapi/OneDrive/Desktop/GD32VW553/V1_MQTT_OK/GD32VW55X_Wifi_BLE_SDK/GD32VW55x_RELEASE_V1.0.2/MSDK/cloud/alicloud/src/protocol/alcs\alcs_mqtt.c ****                 HAL_GetDeviceName(mdn);
 1499              		.loc 1 398 17
 1500 0362 2818     		addi	a0,sp,56
 1501 0364 97000000 		call	HAL_GetProductKey
 1501      E7800000 
 1502              	.LVL162:
 399:C:/Users/stapi/OneDrive/Desktop/GD32VW553/V1_MQTT_OK/GD32VW55X_Wifi_BLE_SDK/GD32VW55x_RELEASE_V1.0.2/MSDK/cloud/alicloud/src/protocol/alcs\alcs_mqtt.c ****                 mpk_len = strlen(mpk);
 1503              		.loc 1 399 17
 1504 036c 8808     		addi	a0,sp,80
 1505 036e 97000000 		call	HAL_GetDeviceName
 1505      E7800000 
 1506              	.LVL163:
 400:C:/Users/stapi/OneDrive/Desktop/GD32VW553/V1_MQTT_OK/GD32VW55X_Wifi_BLE_SDK/GD32VW55x_RELEASE_V1.0.2/MSDK/cloud/alicloud/src/protocol/alcs\alcs_mqtt.c ****                 mdn_len = strlen(mdn);
 1507              		.loc 1 400 17
 400:C:/Users/stapi/OneDrive/Desktop/GD32VW553/V1_MQTT_OK/GD32VW55X_Wifi_BLE_SDK/GD32VW55x_RELEASE_V1.0.2/MSDK/cloud/alicloud/src/protocol/alcs\alcs_mqtt.c ****                 mdn_len = strlen(mdn);
 1508              		.loc 1 400 27 is_stmt 0
 1509 0376 2818     		addi	a0,sp,56
 1510 0378 97000000 		call	strlen
 1510      E7800000 
 1511              	.LVL164:
 400:C:/Users/stapi/OneDrive/Desktop/GD32VW553/V1_MQTT_OK/GD32VW55X_Wifi_BLE_SDK/GD32VW55x_RELEASE_V1.0.2/MSDK/cloud/alicloud/src/protocol/alcs\alcs_mqtt.c ****                 mdn_len = strlen(mdn);
 1512              		.loc 1 400 25
 1513 0380 B3490508 		zext.h	s3,a0
 1514              	.LVL165:
 401:C:/Users/stapi/OneDrive/Desktop/GD32VW553/V1_MQTT_OK/GD32VW55X_Wifi_BLE_SDK/GD32VW55x_RELEASE_V1.0.2/MSDK/cloud/alicloud/src/protocol/alcs\alcs_mqtt.c ****                 if (alcs_mqtt_prefix_secret_load(mpk, mpk_len, mdn, mdn_len, mprefix, msecret) == A
 1515              		.loc 1 401 17 is_stmt 1
 401:C:/Users/stapi/OneDrive/Desktop/GD32VW553/V1_MQTT_OK/GD32VW55X_Wifi_BLE_SDK/GD32VW55x_RELEASE_V1.0.2/MSDK/cloud/alicloud/src/protocol/alcs\alcs_mqtt.c ****                 if (alcs_mqtt_prefix_secret_load(mpk, mpk_len, mdn, mdn_len, mprefix, msecret) == A
 1516              		.loc 1 401 27 is_stmt 0
 1517 0384 8808     		addi	a0,sp,80
 1518 0386 97000000 		call	strlen
 1518      E7800000 
 1519              	.LVL166:
 401:C:/Users/stapi/OneDrive/Desktop/GD32VW553/V1_MQTT_OK/GD32VW55X_Wifi_BLE_SDK/GD32VW55x_RELEASE_V1.0.2/MSDK/cloud/alicloud/src/protocol/alcs\alcs_mqtt.c ****                 if (alcs_mqtt_prefix_secret_load(mpk, mpk_len, mdn, mdn_len, mprefix, msecret) == A
 1520              		.loc 1 401 25
 1521 038e 334A0508 		zext.h	s4,a0
 1522              	.LVL167:
 402:C:/Users/stapi/OneDrive/Desktop/GD32VW553/V1_MQTT_OK/GD32VW55X_Wifi_BLE_SDK/GD32VW55x_RELEASE_V1.0.2/MSDK/cloud/alicloud/src/protocol/alcs\alcs_mqtt.c ****                     char back1 = prefix[prefix_len];
 1523              		.loc 1 402 17 is_stmt 1
 402:C:/Users/stapi/OneDrive/Desktop/GD32VW553/V1_MQTT_OK/GD32VW55X_Wifi_BLE_SDK/GD32VW55x_RELEASE_V1.0.2/MSDK/cloud/alicloud/src/protocol/alcs\alcs_mqtt.c ****                     char back1 = prefix[prefix_len];
 1524              		.loc 1 402 21 is_stmt 0
 1525 0392 1C12     		addi	a5,sp,288
 1526 0394 D818     		addi	a4,sp,116
 1527 0396 D286     		mv	a3,s4
 1528 0398 9008     		addi	a2,sp,80
 1529 039a CE85     		mv	a1,s3
 1530 039c 2818     		addi	a0,sp,56
 1531 039e 97000000 		call	alcs_mqtt_prefix_secret_load
 1531      E7800000 
 1532              	.LVL168:
 402:C:/Users/stapi/OneDrive/Desktop/GD32VW553/V1_MQTT_OK/GD32VW55X_Wifi_BLE_SDK/GD32VW55x_RELEASE_V1.0.2/MSDK/cloud/alicloud/src/protocol/alcs\alcs_mqtt.c ****                     char back1 = prefix[prefix_len];
 1533              		.loc 1 402 20
 1534 03a6 61ED     		bne	a0,zero,.L70
 1535              	.LBB34:
 403:C:/Users/stapi/OneDrive/Desktop/GD32VW553/V1_MQTT_OK/GD32VW55X_Wifi_BLE_SDK/GD32VW55x_RELEASE_V1.0.2/MSDK/cloud/alicloud/src/protocol/alcs\alcs_mqtt.c ****                     prefix[prefix_len] = 0;
 1536              		.loc 1 403 21 is_stmt 1
 403:C:/Users/stapi/OneDrive/Desktop/GD32VW553/V1_MQTT_OK/GD32VW55X_Wifi_BLE_SDK/GD32VW55x_RELEASE_V1.0.2/MSDK/cloud/alicloud/src/protocol/alcs\alcs_mqtt.c ****                     prefix[prefix_len] = 0;
 1537              		.loc 1 403 40 is_stmt 0
 1538 03a8 8257     		lw	a5,32(sp)
 405:C:/Users/stapi/OneDrive/Desktop/GD32VW553/V1_MQTT_OK/GD32VW55X_Wifi_BLE_SDK/GD32VW55x_RELEASE_V1.0.2/MSDK/cloud/alicloud/src/protocol/alcs\alcs_mqtt.c ****                     prefix[prefix_len] = back1;
 1539              		.loc 1 405 21
 1540 03aa 8946     		li	a3,2
 1541 03ac 1012     		addi	a2,sp,288
 403:C:/Users/stapi/OneDrive/Desktop/GD32VW553/V1_MQTT_OK/GD32VW55X_Wifi_BLE_SDK/GD32VW55x_RELEASE_V1.0.2/MSDK/cloud/alicloud/src/protocol/alcs\alcs_mqtt.c ****                     prefix[prefix_len] = 0;
 1542              		.loc 1 403 40
 1543 03ae CA97     		add	a5,s2,a5
 403:C:/Users/stapi/OneDrive/Desktop/GD32VW553/V1_MQTT_OK/GD32VW55X_Wifi_BLE_SDK/GD32VW55x_RELEASE_V1.0.2/MSDK/cloud/alicloud/src/protocol/alcs\alcs_mqtt.c ****                     prefix[prefix_len] = 0;
 1544              		.loc 1 403 26
 1545 03b0 038C0700 		lb	s8,0(a5)
 1546              	.LVL169:
 404:C:/Users/stapi/OneDrive/Desktop/GD32VW553/V1_MQTT_OK/GD32VW55X_Wifi_BLE_SDK/GD32VW55x_RELEASE_V1.0.2/MSDK/cloud/alicloud/src/protocol/alcs\alcs_mqtt.c ****                     alcs_add_svr_key(alcs_mqtt_ctx->coap_ctx, prefix, msecret, FROMCLOUDSVR);
 1547              		.loc 1 404 21 is_stmt 1
 404:C:/Users/stapi/OneDrive/Desktop/GD32VW553/V1_MQTT_OK/GD32VW55X_Wifi_BLE_SDK/GD32VW55x_RELEASE_V1.0.2/MSDK/cloud/alicloud/src/protocol/alcs\alcs_mqtt.c ****                     alcs_add_svr_key(alcs_mqtt_ctx->coap_ctx, prefix, msecret, FROMCLOUDSVR);
 1548              		.loc 1 404 40 is_stmt 0
 1549 03b4 23800700 		sb	zero,0(a5)
 405:C:/Users/stapi/OneDrive/Desktop/GD32VW553/V1_MQTT_OK/GD32VW55X_Wifi_BLE_SDK/GD32VW55x_RELEASE_V1.0.2/MSDK/cloud/alicloud/src/protocol/alcs\alcs_mqtt.c ****                     prefix[prefix_len] = back1;
 1550              		.loc 1 405 21 is_stmt 1
 1551 03b8 0840     		lw	a0,0(s0)
 1552 03ba CA85     		mv	a1,s2
 1553 03bc 97000000 		call	alcs_add_svr_key
 1553      E7800000 
 1554              	.LVL170:
 406:C:/Users/stapi/OneDrive/Desktop/GD32VW553/V1_MQTT_OK/GD32VW55X_Wifi_BLE_SDK/GD32VW55x_RELEASE_V1.0.2/MSDK/cloud/alicloud/src/protocol/alcs\alcs_mqtt.c ****                     if (__alcs_mqtt_prefix_secret_save(mpk, mpk_len, mdn, mdn_len, prefix, prefix_l
 1555              		.loc 1 406 21
 406:C:/Users/stapi/OneDrive/Desktop/GD32VW553/V1_MQTT_OK/GD32VW55X_Wifi_BLE_SDK/GD32VW55x_RELEASE_V1.0.2/MSDK/cloud/alicloud/src/protocol/alcs\alcs_mqtt.c ****                     if (__alcs_mqtt_prefix_secret_save(mpk, mpk_len, mdn, mdn_len, prefix, prefix_l
 1556              		.loc 1 406 40 is_stmt 0
 1557 03c4 8257     		lw	a5,32(sp)
 408:C:/Users/stapi/OneDrive/Desktop/GD32VW553/V1_MQTT_OK/GD32VW55X_Wifi_BLE_SDK/GD32VW55x_RELEASE_V1.0.2/MSDK/cloud/alicloud/src/protocol/alcs\alcs_mqtt.c ****                         COAP_INFO("prefix saved\n");
 1558              		.loc 1 408 56
 1559 03c6 0812     		addi	a0,sp,288
 406:C:/Users/stapi/OneDrive/Desktop/GD32VW553/V1_MQTT_OK/GD32VW55X_Wifi_BLE_SDK/GD32VW55x_RELEASE_V1.0.2/MSDK/cloud/alicloud/src/protocol/alcs\alcs_mqtt.c ****                     if (__alcs_mqtt_prefix_secret_save(mpk, mpk_len, mdn, mdn_len, prefix, prefix_l
 1560              		.loc 1 406 40
 1561 03c8 CA97     		add	a5,s2,a5
 1562 03ca 23808701 		sb	s8,0(a5)
 407:C:/Users/stapi/OneDrive/Desktop/GD32VW553/V1_MQTT_OK/GD32VW55X_Wifi_BLE_SDK/GD32VW55x_RELEASE_V1.0.2/MSDK/cloud/alicloud/src/protocol/alcs\alcs_mqtt.c ****                                                        strlen(msecret)) == ALCS_MQTT_STATUS_SUCCESS
 1563              		.loc 1 407 21 is_stmt 1
 408:C:/Users/stapi/OneDrive/Desktop/GD32VW553/V1_MQTT_OK/GD32VW55X_Wifi_BLE_SDK/GD32VW55x_RELEASE_V1.0.2/MSDK/cloud/alicloud/src/protocol/alcs\alcs_mqtt.c ****                         COAP_INFO("prefix saved\n");
 1564              		.loc 1 408 56 is_stmt 0
 1565 03ce 97000000 		call	strlen
 1565      E7800000 
 1566              	.LVL171:
 407:C:/Users/stapi/OneDrive/Desktop/GD32VW553/V1_MQTT_OK/GD32VW55X_Wifi_BLE_SDK/GD32VW55x_RELEASE_V1.0.2/MSDK/cloud/alicloud/src/protocol/alcs\alcs_mqtt.c ****                                                        strlen(msecret)) == ALCS_MQTT_STATUS_SUCCESS
 1567              		.loc 1 407 25
 1568 03d6 83570102 		lhu	a5,32(sp)
 1569 03da B3480508 		zext.h	a7,a0
 1570 03de 13080112 		addi	a6,sp,288
 1571 03e2 4A87     		mv	a4,s2
 1572 03e4 D286     		mv	a3,s4
 1573 03e6 9008     		addi	a2,sp,80
 1574 03e8 CE85     		mv	a1,s3
 1575 03ea 2818     		addi	a0,sp,56
 1576 03ec 97000000 		call	__alcs_mqtt_prefix_secret_save
 1576      E7800000 
 1577              	.LVL172:
 407:C:/Users/stapi/OneDrive/Desktop/GD32VW553/V1_MQTT_OK/GD32VW55X_Wifi_BLE_SDK/GD32VW55x_RELEASE_V1.0.2/MSDK/cloud/alicloud/src/protocol/alcs\alcs_mqtt.c ****                                                        strlen(msecret)) == ALCS_MQTT_STATUS_SUCCESS
 1578              		.loc 1 407 24
 1579 03f4 25E9     		bne	a0,zero,.L71
 409:C:/Users/stapi/OneDrive/Desktop/GD32VW553/V1_MQTT_OK/GD32VW55X_Wifi_BLE_SDK/GD32VW55x_RELEASE_V1.0.2/MSDK/cloud/alicloud/src/protocol/alcs\alcs_mqtt.c ****                     } else {
 1580              		.loc 1 409 25 is_stmt 1
 409:C:/Users/stapi/OneDrive/Desktop/GD32VW553/V1_MQTT_OK/GD32VW55X_Wifi_BLE_SDK/GD32VW55x_RELEASE_V1.0.2/MSDK/cloud/alicloud/src/protocol/alcs\alcs_mqtt.c ****                     } else {
 1581              		.loc 1 409 25
 1582 03f6 13850A00 		addi	a0,s5,%lo(.LC0)
 1583 03fa 97000000 		call	HAL_Printf
 1583      E7800000 
 1584              	.LVL173:
 409:C:/Users/stapi/OneDrive/Desktop/GD32VW553/V1_MQTT_OK/GD32VW55X_Wifi_BLE_SDK/GD32VW55x_RELEASE_V1.0.2/MSDK/cloud/alicloud/src/protocol/alcs\alcs_mqtt.c ****                     } else {
 1585              		.loc 1 409 25
 1586 0402 37050000 		lui	a0,%hi(.LC25)
 1587 0406 13050500 		addi	a0,a0,%lo(.LC25)
 1588              	.LVL174:
 1589              	.L158:
 1590              	.LBE34:
 1591              	.LBE33:
 417:C:/Users/stapi/OneDrive/Desktop/GD32VW553/V1_MQTT_OK/GD32VW55X_Wifi_BLE_SDK/GD32VW55x_RELEASE_V1.0.2/MSDK/cloud/alicloud/src/protocol/alcs\alcs_mqtt.c ****             }
 1592              		.loc 1 417 17 is_stmt 0 discriminator 1
 1593 040a 97000000 		call	HAL_Printf
 1593      E7800000 
 1594              	.LVL175:
 417:C:/Users/stapi/OneDrive/Desktop/GD32VW553/V1_MQTT_OK/GD32VW55X_Wifi_BLE_SDK/GD32VW55x_RELEASE_V1.0.2/MSDK/cloud/alicloud/src/protocol/alcs\alcs_mqtt.c ****             }
 1595              		.loc 1 417 17 is_stmt 1 discriminator 1
 1596 0412 13850400 		addi	a0,s1,%lo(.LC2)
 1597 0416 97000000 		call	HAL_Printf
 1597      E7800000 
 1598              	.LVL176:
 417:C:/Users/stapi/OneDrive/Desktop/GD32VW553/V1_MQTT_OK/GD32VW55X_Wifi_BLE_SDK/GD32VW55x_RELEASE_V1.0.2/MSDK/cloud/alicloud/src/protocol/alcs\alcs_mqtt.c ****             }
 1599              		.loc 1 417 17 discriminator 1
 420:C:/Users/stapi/OneDrive/Desktop/GD32VW553/V1_MQTT_OK/GD32VW55X_Wifi_BLE_SDK/GD32VW55x_RELEASE_V1.0.2/MSDK/cloud/alicloud/src/protocol/alcs\alcs_mqtt.c ****             snprintf(reply_topic, ALCS_MQTT_TOPIC_MAX_LEN, ALCS_MQTT_PREFIX ALCS_MQTT_THING_LAN_PRE
 1600              		.loc 1 420 13 discriminator 1
 420:C:/Users/stapi/OneDrive/Desktop/GD32VW553/V1_MQTT_OK/GD32VW55X_Wifi_BLE_SDK/GD32VW55x_RELEASE_V1.0.2/MSDK/cloud/alicloud/src/protocol/alcs\alcs_mqtt.c ****             snprintf(reply_topic, ALCS_MQTT_TOPIC_MAX_LEN, ALCS_MQTT_PREFIX ALCS_MQTT_THING_LAN_PRE
 1601              		.loc 1 420 18 is_stmt 0 discriminator 1
 1602 041e 1306C007 		li	a2,124
 1603 0422 8145     		li	a1,0
 1604 0424 4812     		addi	a0,sp,292
 1605 0426 23200112 		sw	zero,288(sp)
 1606 042a 97000000 		call	memset
 1606      E7800000 
 1607              	.LVL177:
 421:C:/Users/stapi/OneDrive/Desktop/GD32VW553/V1_MQTT_OK/GD32VW55X_Wifi_BLE_SDK/GD32VW55x_RELEASE_V1.0.2/MSDK/cloud/alicloud/src/protocol/alcs\alcs_mqtt.c ****                      alcs_mqtt_ctx->product_key, alcs_mqtt_ctx->device_name);
 1608              		.loc 1 421 13 is_stmt 1 discriminator 1
 1609 0432 37060000 		lui	a2,%hi(.LC29)
 1610 0436 5E87     		mv	a4,s7
 1611 0438 DA86     		mv	a3,s6
 1612 043a 13060600 		addi	a2,a2,%lo(.LC29)
 1613              	.LVL178:
 1614              	.L159:
 1615              	.LBE32:
 1616              	.LBE31:
 1617              	.LBB38:
 1618              	.LBB39:
 451:C:/Users/stapi/OneDrive/Desktop/GD32VW553/V1_MQTT_OK/GD32VW55X_Wifi_BLE_SDK/GD32VW55x_RELEASE_V1.0.2/MSDK/cloud/alicloud/src/protocol/alcs\alcs_mqtt.c ****                      alcs_mqtt_ctx->product_key, alcs_mqtt_ctx->device_name);
 1619              		.loc 1 451 13 is_stmt 0 discriminator 1
 1620 043e 93050008 		li	a1,128
 1621 0442 0812     		addi	a0,sp,288
 1622 0444 97000000 		call	snprintf
 1622      E7800000 
 1623              	.LVL179:
 453:C:/Users/stapi/OneDrive/Desktop/GD32VW553/V1_MQTT_OK/GD32VW55X_Wifi_BLE_SDK/GD32VW55x_RELEASE_V1.0.2/MSDK/cloud/alicloud/src/protocol/alcs\alcs_mqtt.c ****         } else {
 1624              		.loc 1 453 13 is_stmt 1 discriminator 1
 1625 044c 2810     		addi	a0,sp,40
 1626 044e 97000000 		call	atoi
 1626      E7800000 
 1627              	.LVL180:
 1628 0456 AA85     		mv	a1,a0
 1629 0458 0812     		addi	a0,sp,288
 1630 045a 97000000 		call	__alcs_mqtt_send_response.constprop.0.isra.0
 1630      E7800000 
 1631              	.LVL181:
 1632              	.LBE39:
 441:C:/Users/stapi/OneDrive/Desktop/GD32VW553/V1_MQTT_OK/GD32VW55X_Wifi_BLE_SDK/GD32VW55x_RELEASE_V1.0.2/MSDK/cloud/alicloud/src/protocol/alcs\alcs_mqtt.c ****             blacklist = json_get_value_by_name(param, param_len, ALCS_MQTT_JSON_KEY_BLACK, &blackli
 1633              		.loc 1 441 46 is_stmt 0 discriminator 1
 1634 0462 55BB     		j	.L59
 1635              	.LVL182:
 1636              	.L71:
 1637              	.LBE38:
 1638              	.LBB41:
 1639              	.LBB37:
 1640              	.LBB36:
 1641              	.LBB35:
 411:C:/Users/stapi/OneDrive/Desktop/GD32VW553/V1_MQTT_OK/GD32VW55X_Wifi_BLE_SDK/GD32VW55x_RELEASE_V1.0.2/MSDK/cloud/alicloud/src/protocol/alcs\alcs_mqtt.c ****                     }
 1642              		.loc 1 411 25 is_stmt 1
 411:C:/Users/stapi/OneDrive/Desktop/GD32VW553/V1_MQTT_OK/GD32VW55X_Wifi_BLE_SDK/GD32VW55x_RELEASE_V1.0.2/MSDK/cloud/alicloud/src/protocol/alcs\alcs_mqtt.c ****                     }
 1643              		.loc 1 411 25
 1644 0464 37050000 		lui	a0,%hi(.LC7)
 1645 0468 13050500 		addi	a0,a0,%lo(.LC7)
 1646 046c 97000000 		call	HAL_Printf
 1646      E7800000 
 1647              	.LVL183:
 411:C:/Users/stapi/OneDrive/Desktop/GD32VW553/V1_MQTT_OK/GD32VW55X_Wifi_BLE_SDK/GD32VW55x_RELEASE_V1.0.2/MSDK/cloud/alicloud/src/protocol/alcs\alcs_mqtt.c ****                     }
 1648              		.loc 1 411 25
 1649 0474 37050000 		lui	a0,%hi(.LC26)
 1650 0478 13050500 		addi	a0,a0,%lo(.LC26)
 1651 047c 79B7     		j	.L158
 1652              	.LVL184:
 1653              	.L70:
 1654              	.LBE35:
 414:C:/Users/stapi/OneDrive/Desktop/GD32VW553/V1_MQTT_OK/GD32VW55X_Wifi_BLE_SDK/GD32VW55x_RELEASE_V1.0.2/MSDK/cloud/alicloud/src/protocol/alcs\alcs_mqtt.c ****                 }      
 1655              		.loc 1 414 21 discriminator 1
 414:C:/Users/stapi/OneDrive/Desktop/GD32VW553/V1_MQTT_OK/GD32VW55X_Wifi_BLE_SDK/GD32VW55x_RELEASE_V1.0.2/MSDK/cloud/alicloud/src/protocol/alcs\alcs_mqtt.c ****                 }      
 1656              		.loc 1 414 21 discriminator 1
 1657 047e 37050000 		lui	a0,%hi(.LC7)
 1658 0482 13050500 		addi	a0,a0,%lo(.LC7)
 1659 0486 97000000 		call	HAL_Printf
 1659      E7800000 
 1660              	.LVL185:
 414:C:/Users/stapi/OneDrive/Desktop/GD32VW553/V1_MQTT_OK/GD32VW55X_Wifi_BLE_SDK/GD32VW55x_RELEASE_V1.0.2/MSDK/cloud/alicloud/src/protocol/alcs\alcs_mqtt.c ****                 }      
 1661              		.loc 1 414 21 discriminator 1
 1662 048e 37050000 		lui	a0,%hi(.LC27)
 1663 0492 13050500 		addi	a0,a0,%lo(.LC27)
 1664 0496 95BF     		j	.L158
 1665              	.LVL186:
 1666              	.L69:
 1667              	.LBE36:
 417:C:/Users/stapi/OneDrive/Desktop/GD32VW553/V1_MQTT_OK/GD32VW55X_Wifi_BLE_SDK/GD32VW55x_RELEASE_V1.0.2/MSDK/cloud/alicloud/src/protocol/alcs\alcs_mqtt.c ****             }
 1668              		.loc 1 417 17 discriminator 1
 417:C:/Users/stapi/OneDrive/Desktop/GD32VW553/V1_MQTT_OK/GD32VW55X_Wifi_BLE_SDK/GD32VW55x_RELEASE_V1.0.2/MSDK/cloud/alicloud/src/protocol/alcs\alcs_mqtt.c ****             }
 1669              		.loc 1 417 17 discriminator 1
 1670 0498 37050000 		lui	a0,%hi(.LC7)
 1671              	.LVL187:
 1672 049c 13050500 		addi	a0,a0,%lo(.LC7)
 1673 04a0 97000000 		call	HAL_Printf
 1673      E7800000 
 1674              	.LVL188:
 417:C:/Users/stapi/OneDrive/Desktop/GD32VW553/V1_MQTT_OK/GD32VW55X_Wifi_BLE_SDK/GD32VW55x_RELEASE_V1.0.2/MSDK/cloud/alicloud/src/protocol/alcs\alcs_mqtt.c ****             }
 1675              		.loc 1 417 17 discriminator 1
 1676 04a8 37050000 		lui	a0,%hi(.LC28)
 1677 04ac 13050500 		addi	a0,a0,%lo(.LC28)
 1678 04b0 A9BF     		j	.L158
 1679              	.LVL189:
 1680              	.L66:
 1681              	.LBE37:
 1682              	.LBE41:
 428:C:/Users/stapi/OneDrive/Desktop/GD32VW553/V1_MQTT_OK/GD32VW55X_Wifi_BLE_SDK/GD32VW55x_RELEASE_V1.0.2/MSDK/cloud/alicloud/src/protocol/alcs\alcs_mqtt.c ****     snprintf(topic_compare, ALCS_MQTT_TOPIC_MAX_LEN, ALCS_MQTT_PREFIX ALCS_MQTT_THING_LAN_PREFIX_BL
 1683              		.loc 1 428 5
 1684 04b2 13060008 		li	a2,128
 1685 04b6 8145     		li	a1,0
 1686 04b8 0811     		addi	a0,sp,160
 1687 04ba 97000000 		call	memset
 1687      E7800000 
 1688              	.LVL190:
 429:C:/Users/stapi/OneDrive/Desktop/GD32VW553/V1_MQTT_OK/GD32VW55X_Wifi_BLE_SDK/GD32VW55x_RELEASE_V1.0.2/MSDK/cloud/alicloud/src/protocol/alcs\alcs_mqtt.c ****              alcs_mqtt_ctx->product_key, alcs_mqtt_ctx->device_name);
 1689              		.loc 1 429 5
 1690 04c2 37060000 		lui	a2,%hi(.LC30)
 1691 04c6 5E87     		mv	a4,s7
 1692 04c8 DA86     		mv	a3,s6
 1693 04ca 13060600 		addi	a2,a2,%lo(.LC30)
 1694 04ce 93050008 		li	a1,128
 1695 04d2 0811     		addi	a0,sp,160
 1696 04d4 97000000 		call	snprintf
 1696      E7800000 
 1697              	.LVL191:
 432:C:/Users/stapi/OneDrive/Desktop/GD32VW553/V1_MQTT_OK/GD32VW55X_Wifi_BLE_SDK/GD32VW55x_RELEASE_V1.0.2/MSDK/cloud/alicloud/src/protocol/alcs\alcs_mqtt.c ****         int param_len = 0, blacklist_len = 0, id_len = 0;
 1698              		.loc 1 432 5
 432:C:/Users/stapi/OneDrive/Desktop/GD32VW553/V1_MQTT_OK/GD32VW55X_Wifi_BLE_SDK/GD32VW55x_RELEASE_V1.0.2/MSDK/cloud/alicloud/src/protocol/alcs\alcs_mqtt.c ****         int param_len = 0, blacklist_len = 0, id_len = 0;
 1699              		.loc 1 432 10 is_stmt 0
 1700 04dc 0811     		addi	a0,sp,160
 1701 04de 97000000 		call	strlen
 1701      E7800000 
 1702              	.LVL192:
 432:C:/Users/stapi/OneDrive/Desktop/GD32VW553/V1_MQTT_OK/GD32VW55X_Wifi_BLE_SDK/GD32VW55x_RELEASE_V1.0.2/MSDK/cloud/alicloud/src/protocol/alcs\alcs_mqtt.c ****         int param_len = 0, blacklist_len = 0, id_len = 0;
 1703              		.loc 1 432 8
 1704 04e6 E318A9D2 		bne	s2,a0,.L59
 432:C:/Users/stapi/OneDrive/Desktop/GD32VW553/V1_MQTT_OK/GD32VW55X_Wifi_BLE_SDK/GD32VW55x_RELEASE_V1.0.2/MSDK/cloud/alicloud/src/protocol/alcs\alcs_mqtt.c ****         int param_len = 0, blacklist_len = 0, id_len = 0;
 1705              		.loc 1 432 50 discriminator 1
 1706 04ea 4A86     		mv	a2,s2
 1707 04ec E285     		mv	a1,s8
 1708 04ee 0811     		addi	a0,sp,160
 1709 04f0 97000000 		call	strncmp
 1709      E7800000 
 1710              	.LVL193:
 432:C:/Users/stapi/OneDrive/Desktop/GD32VW553/V1_MQTT_OK/GD32VW55X_Wifi_BLE_SDK/GD32VW55x_RELEASE_V1.0.2/MSDK/cloud/alicloud/src/protocol/alcs\alcs_mqtt.c ****         int param_len = 0, blacklist_len = 0, id_len = 0;
 1711              		.loc 1 432 46 discriminator 1
 1712 04f8 E31F05D0 		bne	a0,zero,.L59
 1713              	.LBB42:
 433:C:/Users/stapi/OneDrive/Desktop/GD32VW553/V1_MQTT_OK/GD32VW55X_Wifi_BLE_SDK/GD32VW55x_RELEASE_V1.0.2/MSDK/cloud/alicloud/src/protocol/alcs\alcs_mqtt.c ****         char *param = NULL, *blacklist = NULL, *id = NULL;
 1714              		.loc 1 433 9 is_stmt 1
 435:C:/Users/stapi/OneDrive/Desktop/GD32VW553/V1_MQTT_OK/GD32VW55X_Wifi_BLE_SDK/GD32VW55x_RELEASE_V1.0.2/MSDK/cloud/alicloud/src/protocol/alcs\alcs_mqtt.c **** 
 1715              		.loc 1 435 14 is_stmt 0
 1716 04fc 37060000 		lui	a2,%hi(.LC23)
 1717 0500 D285     		mv	a1,s4
 1718 0502 0147     		li	a4,0
 1719 0504 D418     		addi	a3,sp,116
 1720 0506 13060600 		addi	a2,a2,%lo(.LC23)
 1721 050a 4E85     		mv	a0,s3
 433:C:/Users/stapi/OneDrive/Desktop/GD32VW553/V1_MQTT_OK/GD32VW55X_Wifi_BLE_SDK/GD32VW55x_RELEASE_V1.0.2/MSDK/cloud/alicloud/src/protocol/alcs\alcs_mqtt.c ****         char *param = NULL, *blacklist = NULL, *id = NULL;
 1722              		.loc 1 433 13
 1723 050c 02DC     		sw	zero,56(sp)
 433:C:/Users/stapi/OneDrive/Desktop/GD32VW553/V1_MQTT_OK/GD32VW55X_Wifi_BLE_SDK/GD32VW55x_RELEASE_V1.0.2/MSDK/cloud/alicloud/src/protocol/alcs\alcs_mqtt.c ****         char *param = NULL, *blacklist = NULL, *id = NULL;
 1724              		.loc 1 433 28
 1725 050e 82C8     		sw	zero,80(sp)
 433:C:/Users/stapi/OneDrive/Desktop/GD32VW553/V1_MQTT_OK/GD32VW55X_Wifi_BLE_SDK/GD32VW55x_RELEASE_V1.0.2/MSDK/cloud/alicloud/src/protocol/alcs\alcs_mqtt.c ****         char *param = NULL, *blacklist = NULL, *id = NULL;
 1726              		.loc 1 433 47
 1727 0510 82DA     		sw	zero,116(sp)
 434:C:/Users/stapi/OneDrive/Desktop/GD32VW553/V1_MQTT_OK/GD32VW55X_Wifi_BLE_SDK/GD32VW55x_RELEASE_V1.0.2/MSDK/cloud/alicloud/src/protocol/alcs\alcs_mqtt.c ****         id = json_get_value_by_name((char *)payload, payload_len, "id", &id_len, NULL);
 1728              		.loc 1 434 9 is_stmt 1
 1729              	.LVL194:
 435:C:/Users/stapi/OneDrive/Desktop/GD32VW553/V1_MQTT_OK/GD32VW55X_Wifi_BLE_SDK/GD32VW55x_RELEASE_V1.0.2/MSDK/cloud/alicloud/src/protocol/alcs\alcs_mqtt.c **** 
 1730              		.loc 1 435 9
 435:C:/Users/stapi/OneDrive/Desktop/GD32VW553/V1_MQTT_OK/GD32VW55X_Wifi_BLE_SDK/GD32VW55x_RELEASE_V1.0.2/MSDK/cloud/alicloud/src/protocol/alcs\alcs_mqtt.c **** 
 1731              		.loc 1 435 14 is_stmt 0
 1732 0512 97000000 		call	json_get_value_by_name
 1732      E7800000 
 1733              	.LVL195:
 1734 051a AA85     		mv	a1,a0
 1735              	.LVL196:
 437:C:/Users/stapi/OneDrive/Desktop/GD32VW553/V1_MQTT_OK/GD32VW55X_Wifi_BLE_SDK/GD32VW55x_RELEASE_V1.0.2/MSDK/cloud/alicloud/src/protocol/alcs\alcs_mqtt.c ****             strncpy(reqid, id, sizeof(reqid) - 1);
 1736              		.loc 1 437 9 is_stmt 1
 437:C:/Users/stapi/OneDrive/Desktop/GD32VW553/V1_MQTT_OK/GD32VW55X_Wifi_BLE_SDK/GD32VW55x_RELEASE_V1.0.2/MSDK/cloud/alicloud/src/protocol/alcs\alcs_mqtt.c ****             strncpy(reqid, id, sizeof(reqid) - 1);
 1737              		.loc 1 437 12 is_stmt 0
 1738 051c 09C9     		beq	a0,zero,.L75
 437:C:/Users/stapi/OneDrive/Desktop/GD32VW553/V1_MQTT_OK/GD32VW55X_Wifi_BLE_SDK/GD32VW55x_RELEASE_V1.0.2/MSDK/cloud/alicloud/src/protocol/alcs\alcs_mqtt.c ****             strncpy(reqid, id, sizeof(reqid) - 1);
 1739              		.loc 1 437 24 discriminator 1
 1740 051e D657     		lw	a5,116(sp)
 1741 0520 99C7     		beq	a5,zero,.L75
 438:C:/Users/stapi/OneDrive/Desktop/GD32VW553/V1_MQTT_OK/GD32VW55X_Wifi_BLE_SDK/GD32VW55x_RELEASE_V1.0.2/MSDK/cloud/alicloud/src/protocol/alcs\alcs_mqtt.c ****         }
 1742              		.loc 1 438 13 is_stmt 1
 1743 0522 3D46     		li	a2,15
 1744 0524 2810     		addi	a0,sp,40
 1745              	.LVL197:
 1746 0526 97000000 		call	strncpy
 1746      E7800000 
 1747              	.LVL198:
 1748              	.L75:
 440:C:/Users/stapi/OneDrive/Desktop/GD32VW553/V1_MQTT_OK/GD32VW55X_Wifi_BLE_SDK/GD32VW55x_RELEASE_V1.0.2/MSDK/cloud/alicloud/src/protocol/alcs\alcs_mqtt.c ****         if (NULL != param && 0 != param_len) {
 1749              		.loc 1 440 9
 440:C:/Users/stapi/OneDrive/Desktop/GD32VW553/V1_MQTT_OK/GD32VW55X_Wifi_BLE_SDK/GD32VW55x_RELEASE_V1.0.2/MSDK/cloud/alicloud/src/protocol/alcs\alcs_mqtt.c ****         if (NULL != param && 0 != param_len) {
 1750              		.loc 1 440 17 is_stmt 0
 1751 052e 37060000 		lui	a2,%hi(.LC24)
 1752 0532 0147     		li	a4,0
 1753 0534 3418     		addi	a3,sp,56
 1754 0536 13060600 		addi	a2,a2,%lo(.LC24)
 1755 053a D285     		mv	a1,s4
 1756 053c 4E85     		mv	a0,s3
 1757 053e 97000000 		call	json_get_value_by_name
 1757      E7800000 
 1758              	.LVL199:
 441:C:/Users/stapi/OneDrive/Desktop/GD32VW553/V1_MQTT_OK/GD32VW55X_Wifi_BLE_SDK/GD32VW55x_RELEASE_V1.0.2/MSDK/cloud/alicloud/src/protocol/alcs\alcs_mqtt.c ****             blacklist = json_get_value_by_name(param, param_len, ALCS_MQTT_JSON_KEY_BLACK, &blackli
 1759              		.loc 1 441 9 is_stmt 1
 1760 0546 37090000 		lui	s2,%hi(.LC31)
 441:C:/Users/stapi/OneDrive/Desktop/GD32VW553/V1_MQTT_OK/GD32VW55X_Wifi_BLE_SDK/GD32VW55x_RELEASE_V1.0.2/MSDK/cloud/alicloud/src/protocol/alcs\alcs_mqtt.c ****             blacklist = json_get_value_by_name(param, param_len, ALCS_MQTT_JSON_KEY_BLACK, &blackli
 1761              		.loc 1 441 12 is_stmt 0
 1762 054a 41C5     		beq	a0,zero,.L76
 441:C:/Users/stapi/OneDrive/Desktop/GD32VW553/V1_MQTT_OK/GD32VW55X_Wifi_BLE_SDK/GD32VW55x_RELEASE_V1.0.2/MSDK/cloud/alicloud/src/protocol/alcs\alcs_mqtt.c ****             blacklist = json_get_value_by_name(param, param_len, ALCS_MQTT_JSON_KEY_BLACK, &blackli
 1763              		.loc 1 441 32 discriminator 1
 1764 054c E255     		lw	a1,56(sp)
 441:C:/Users/stapi/OneDrive/Desktop/GD32VW553/V1_MQTT_OK/GD32VW55X_Wifi_BLE_SDK/GD32VW55x_RELEASE_V1.0.2/MSDK/cloud/alicloud/src/protocol/alcs\alcs_mqtt.c ****             blacklist = json_get_value_by_name(param, param_len, ALCS_MQTT_JSON_KEY_BLACK, &blackli
 1765              		.loc 1 441 27 discriminator 1
 1766 054e D1C1     		beq	a1,zero,.L76
 1767              	.LBB40:
 442:C:/Users/stapi/OneDrive/Desktop/GD32VW553/V1_MQTT_OK/GD32VW55X_Wifi_BLE_SDK/GD32VW55x_RELEASE_V1.0.2/MSDK/cloud/alicloud/src/protocol/alcs\alcs_mqtt.c ****             if (NULL != alcs_mqtt_ctx->coap_ctx && blacklist) {
 1768              		.loc 1 442 13 is_stmt 1
 442:C:/Users/stapi/OneDrive/Desktop/GD32VW553/V1_MQTT_OK/GD32VW55X_Wifi_BLE_SDK/GD32VW55x_RELEASE_V1.0.2/MSDK/cloud/alicloud/src/protocol/alcs\alcs_mqtt.c ****             if (NULL != alcs_mqtt_ctx->coap_ctx && blacklist) {
 1769              		.loc 1 442 25 is_stmt 0
 1770 0550 0147     		li	a4,0
 1771 0552 9408     		addi	a3,sp,80
 1772 0554 13060900 		addi	a2,s2,%lo(.LC31)
 1773 0558 97000000 		call	json_get_value_by_name
 1773      E7800000 
 1774              	.LVL200:
 1775 0560 AA85     		mv	a1,a0
 1776              	.LVL201:
 443:C:/Users/stapi/OneDrive/Desktop/GD32VW553/V1_MQTT_OK/GD32VW55X_Wifi_BLE_SDK/GD32VW55x_RELEASE_V1.0.2/MSDK/cloud/alicloud/src/protocol/alcs\alcs_mqtt.c ****                 alcs_set_revocation(alcs_mqtt_ctx->coap_ctx, blacklist);
 1777              		.loc 1 443 13 is_stmt 1
 443:C:/Users/stapi/OneDrive/Desktop/GD32VW553/V1_MQTT_OK/GD32VW55X_Wifi_BLE_SDK/GD32VW55x_RELEASE_V1.0.2/MSDK/cloud/alicloud/src/protocol/alcs\alcs_mqtt.c ****                 alcs_set_revocation(alcs_mqtt_ctx->coap_ctx, blacklist);
 1778              		.loc 1 443 38 is_stmt 0
 1779 0562 0840     		lw	a0,0(s0)
 1780              	.LVL202:
 443:C:/Users/stapi/OneDrive/Desktop/GD32VW553/V1_MQTT_OK/GD32VW55X_Wifi_BLE_SDK/GD32VW55x_RELEASE_V1.0.2/MSDK/cloud/alicloud/src/protocol/alcs\alcs_mqtt.c ****                 alcs_set_revocation(alcs_mqtt_ctx->coap_ctx, blacklist);
 1781              		.loc 1 443 16
 1782 0564 31C5     		beq	a0,zero,.L78
 443:C:/Users/stapi/OneDrive/Desktop/GD32VW553/V1_MQTT_OK/GD32VW55X_Wifi_BLE_SDK/GD32VW55x_RELEASE_V1.0.2/MSDK/cloud/alicloud/src/protocol/alcs\alcs_mqtt.c ****                 alcs_set_revocation(alcs_mqtt_ctx->coap_ctx, blacklist);
 1783              		.loc 1 443 49 discriminator 1
 1784 0566 A9C5     		beq	a1,zero,.L78
 444:C:/Users/stapi/OneDrive/Desktop/GD32VW553/V1_MQTT_OK/GD32VW55X_Wifi_BLE_SDK/GD32VW55x_RELEASE_V1.0.2/MSDK/cloud/alicloud/src/protocol/alcs\alcs_mqtt.c ****                 if (ALCS_MQTT_STATUS_SUCCESS != __alcs_mqtt_kv_set(ALCS_MQTT_JSON_KEY_BLACK, blackl
 1785              		.loc 1 444 17 is_stmt 1
 1786 0568 2EC6     		sw	a1,12(sp)
 1787 056a 97000000 		call	alcs_set_revocation
 1787      E7800000 
 1788              	.LVL203:
 445:C:/Users/stapi/OneDrive/Desktop/GD32VW553/V1_MQTT_OK/GD32VW55X_Wifi_BLE_SDK/GD32VW55x_RELEASE_V1.0.2/MSDK/cloud/alicloud/src/protocol/alcs\alcs_mqtt.c ****                     COAP_ERR("aos_kv_set set blacklist fail");
 1789              		.loc 1 445 17
 445:C:/Users/stapi/OneDrive/Desktop/GD32VW553/V1_MQTT_OK/GD32VW55X_Wifi_BLE_SDK/GD32VW55x_RELEASE_V1.0.2/MSDK/cloud/alicloud/src/protocol/alcs\alcs_mqtt.c ****                     COAP_ERR("aos_kv_set set blacklist fail");
 1790              		.loc 1 445 49 is_stmt 0
 1791 0572 4646     		lw	a2,80(sp)
 1792 0574 B245     		lw	a1,12(sp)
 1793 0576 13050900 		addi	a0,s2,%lo(.LC31)
 1794 057a 97000000 		call	__alcs_mqtt_kv_set.constprop.0
 1794      E7800000 
 1795              	.LVL204:
 445:C:/Users/stapi/OneDrive/Desktop/GD32VW553/V1_MQTT_OK/GD32VW55X_Wifi_BLE_SDK/GD32VW55x_RELEASE_V1.0.2/MSDK/cloud/alicloud/src/protocol/alcs\alcs_mqtt.c ****                     COAP_ERR("aos_kv_set set blacklist fail");
 1796              		.loc 1 445 20
 1797 0582 1DC5     		beq	a0,zero,.L78
 446:C:/Users/stapi/OneDrive/Desktop/GD32VW553/V1_MQTT_OK/GD32VW55X_Wifi_BLE_SDK/GD32VW55x_RELEASE_V1.0.2/MSDK/cloud/alicloud/src/protocol/alcs\alcs_mqtt.c ****                 }
 1798              		.loc 1 446 21 is_stmt 1
 446:C:/Users/stapi/OneDrive/Desktop/GD32VW553/V1_MQTT_OK/GD32VW55X_Wifi_BLE_SDK/GD32VW55x_RELEASE_V1.0.2/MSDK/cloud/alicloud/src/protocol/alcs\alcs_mqtt.c ****                 }
 1799              		.loc 1 446 21
 1800 0584 37050000 		lui	a0,%hi(.LC7)
 1801 0588 13050500 		addi	a0,a0,%lo(.LC7)
 1802 058c 97000000 		call	HAL_Printf
 1802      E7800000 
 1803              	.LVL205:
 446:C:/Users/stapi/OneDrive/Desktop/GD32VW553/V1_MQTT_OK/GD32VW55X_Wifi_BLE_SDK/GD32VW55x_RELEASE_V1.0.2/MSDK/cloud/alicloud/src/protocol/alcs\alcs_mqtt.c ****                 }
 1804              		.loc 1 446 21
 1805 0594 37050000 		lui	a0,%hi(.LC32)
 1806 0598 13050500 		addi	a0,a0,%lo(.LC32)
 1807 059c 97000000 		call	HAL_Printf
 1807      E7800000 
 1808              	.LVL206:
 446:C:/Users/stapi/OneDrive/Desktop/GD32VW553/V1_MQTT_OK/GD32VW55X_Wifi_BLE_SDK/GD32VW55x_RELEASE_V1.0.2/MSDK/cloud/alicloud/src/protocol/alcs\alcs_mqtt.c ****                 }
 1809              		.loc 1 446 21
 1810 05a4 13850400 		addi	a0,s1,%lo(.LC2)
 1811 05a8 97000000 		call	HAL_Printf
 1811      E7800000 
 1812              	.LVL207:
 1813              	.L78:
 446:C:/Users/stapi/OneDrive/Desktop/GD32VW553/V1_MQTT_OK/GD32VW55X_Wifi_BLE_SDK/GD32VW55x_RELEASE_V1.0.2/MSDK/cloud/alicloud/src/protocol/alcs\alcs_mqtt.c ****                 }
 1814              		.loc 1 446 21 discriminator 1
 450:C:/Users/stapi/OneDrive/Desktop/GD32VW553/V1_MQTT_OK/GD32VW55X_Wifi_BLE_SDK/GD32VW55x_RELEASE_V1.0.2/MSDK/cloud/alicloud/src/protocol/alcs\alcs_mqtt.c ****             snprintf(reply_topic, ALCS_MQTT_TOPIC_MAX_LEN, ALCS_MQTT_PREFIX ALCS_MQTT_THING_LAN_PRE
 1815              		.loc 1 450 13 discriminator 1
 450:C:/Users/stapi/OneDrive/Desktop/GD32VW553/V1_MQTT_OK/GD32VW55X_Wifi_BLE_SDK/GD32VW55x_RELEASE_V1.0.2/MSDK/cloud/alicloud/src/protocol/alcs\alcs_mqtt.c ****             snprintf(reply_topic, ALCS_MQTT_TOPIC_MAX_LEN, ALCS_MQTT_PREFIX ALCS_MQTT_THING_LAN_PRE
 1816              		.loc 1 450 18 is_stmt 0 discriminator 1
 1817 05b0 1306C007 		li	a2,124
 1818 05b4 8145     		li	a1,0
 1819 05b6 4812     		addi	a0,sp,292
 1820 05b8 23200112 		sw	zero,288(sp)
 1821 05bc 97000000 		call	memset
 1821      E7800000 
 1822              	.LVL208:
 451:C:/Users/stapi/OneDrive/Desktop/GD32VW553/V1_MQTT_OK/GD32VW55X_Wifi_BLE_SDK/GD32VW55x_RELEASE_V1.0.2/MSDK/cloud/alicloud/src/protocol/alcs\alcs_mqtt.c ****                      alcs_mqtt_ctx->product_key, alcs_mqtt_ctx->device_name);
 1823              		.loc 1 451 13 is_stmt 1 discriminator 1
 1824 05c4 37060000 		lui	a2,%hi(.LC33)
 1825 05c8 5E87     		mv	a4,s7
 1826 05ca DA86     		mv	a3,s6
 1827 05cc 13060600 		addi	a2,a2,%lo(.LC33)
 1828 05d0 BDB5     		j	.L159
 1829              	.LVL209:
 1830              	.L76:
 1831              	.LBE40:
 455:C:/Users/stapi/OneDrive/Desktop/GD32VW553/V1_MQTT_OK/GD32VW55X_Wifi_BLE_SDK/GD32VW55x_RELEASE_V1.0.2/MSDK/cloud/alicloud/src/protocol/alcs\alcs_mqtt.c ****                 if (NULL != alcs_mqtt_ctx->coap_ctx) {
 1832              		.loc 1 455 13
 455:C:/Users/stapi/OneDrive/Desktop/GD32VW553/V1_MQTT_OK/GD32VW55X_Wifi_BLE_SDK/GD32VW55x_RELEASE_V1.0.2/MSDK/cloud/alicloud/src/protocol/alcs\alcs_mqtt.c ****                 if (NULL != alcs_mqtt_ctx->coap_ctx) {
 1833              		.loc 1 455 45 is_stmt 0
 1834 05d2 9008     		addi	a2,sp,80
 1835 05d4 8145     		li	a1,0
 1836 05d6 13050900 		addi	a0,s2,%lo(.LC31)
 1837              	.LVL210:
 1838 05da 97000000 		call	__alcs_mqtt_kv_get
 1838      E7800000 
 1839              	.LVL211:
 455:C:/Users/stapi/OneDrive/Desktop/GD32VW553/V1_MQTT_OK/GD32VW55X_Wifi_BLE_SDK/GD32VW55x_RELEASE_V1.0.2/MSDK/cloud/alicloud/src/protocol/alcs\alcs_mqtt.c ****                 if (NULL != alcs_mqtt_ctx->coap_ctx) {
 1840              		.loc 1 455 16
 1841 05e2 E31A05C2 		bne	a0,zero,.L59
 456:C:/Users/stapi/OneDrive/Desktop/GD32VW553/V1_MQTT_OK/GD32VW55X_Wifi_BLE_SDK/GD32VW55x_RELEASE_V1.0.2/MSDK/cloud/alicloud/src/protocol/alcs\alcs_mqtt.c ****                     alcs_set_revocation(alcs_mqtt_ctx->coap_ctx, blacklist);
 1842              		.loc 1 456 17 is_stmt 1
 456:C:/Users/stapi/OneDrive/Desktop/GD32VW553/V1_MQTT_OK/GD32VW55X_Wifi_BLE_SDK/GD32VW55x_RELEASE_V1.0.2/MSDK/cloud/alicloud/src/protocol/alcs\alcs_mqtt.c ****                     alcs_set_revocation(alcs_mqtt_ctx->coap_ctx, blacklist);
 1843              		.loc 1 456 42 is_stmt 0
 1844 05e6 0840     		lw	a0,0(s0)
 456:C:/Users/stapi/OneDrive/Desktop/GD32VW553/V1_MQTT_OK/GD32VW55X_Wifi_BLE_SDK/GD32VW55x_RELEASE_V1.0.2/MSDK/cloud/alicloud/src/protocol/alcs\alcs_mqtt.c ****                     alcs_set_revocation(alcs_mqtt_ctx->coap_ctx, blacklist);
 1845              		.loc 1 456 20
 1846 05e8 E30705C2 		beq	a0,zero,.L59
 457:C:/Users/stapi/OneDrive/Desktop/GD32VW553/V1_MQTT_OK/GD32VW55X_Wifi_BLE_SDK/GD32VW55x_RELEASE_V1.0.2/MSDK/cloud/alicloud/src/protocol/alcs\alcs_mqtt.c ****                 }
 1847              		.loc 1 457 21 is_stmt 1
 1848 05ec 8145     		li	a1,0
 1849 05ee 97000000 		call	alcs_set_revocation
 1849      E7800000 
 1850              	.LVL212:
 461:C:/Users/stapi/OneDrive/Desktop/GD32VW553/V1_MQTT_OK/GD32VW55X_Wifi_BLE_SDK/GD32VW55x_RELEASE_V1.0.2/MSDK/cloud/alicloud/src/protocol/alcs\alcs_mqtt.c ****     }
 1851              		.loc 1 461 9
 1852 05f6 05B1     		j	.L59
 1853              	.LBE42:
 1854              		.cfi_endproc
 1855              	.LFE29:
 1857              		.section	.text.alcs_mqtt_prefix_secret_del,"ax",@progbits
 1858              		.align	1
 1859              		.globl	alcs_mqtt_prefix_secret_del
 1861              	alcs_mqtt_prefix_secret_del:
 1862              	.LFB28:
 200:C:/Users/stapi/OneDrive/Desktop/GD32VW553/V1_MQTT_OK/GD32VW55X_Wifi_BLE_SDK/GD32VW55x_RELEASE_V1.0.2/MSDK/cloud/alicloud/src/protocol/alcs\alcs_mqtt.c ****     char *key_source = NULL;
 1863              		.loc 1 200 1
 1864              		.cfi_startproc
 1865              	.LVL213:
 1866 0000 17030000 		call	t0,__riscv_save_6
 1866      E7020300 
 1867              		.cfi_offset 21, -28
 1868              		.cfi_offset 20, -24
 1869              		.cfi_offset 19, -20
 1870              		.cfi_offset 18, -16
 1871              		.cfi_offset 9, -12
 1872              		.cfi_offset 8, -8
 1873              		.cfi_offset 1, -4
 1874              		.cfi_def_cfa_offset 32
 201:C:/Users/stapi/OneDrive/Desktop/GD32VW553/V1_MQTT_OK/GD32VW55X_Wifi_BLE_SDK/GD32VW55x_RELEASE_V1.0.2/MSDK/cloud/alicloud/src/protocol/alcs\alcs_mqtt.c ****     uint8_t key_md5[16] = {0};
 1875              		.loc 1 201 5
 1876              	.LVL214:
 202:C:/Users/stapi/OneDrive/Desktop/GD32VW553/V1_MQTT_OK/GD32VW55X_Wifi_BLE_SDK/GD32VW55x_RELEASE_V1.0.2/MSDK/cloud/alicloud/src/protocol/alcs\alcs_mqtt.c ****     char key_md5_hexstr[33] = {0};
 1877              		.loc 1 202 5
 200:C:/Users/stapi/OneDrive/Desktop/GD32VW553/V1_MQTT_OK/GD32VW55X_Wifi_BLE_SDK/GD32VW55x_RELEASE_V1.0.2/MSDK/cloud/alicloud/src/protocol/alcs\alcs_mqtt.c ****     char *key_source = NULL;
 1878              		.loc 1 200 1 is_stmt 0
 1879 0008 3971     		addi	sp,sp,-64
 1880              		.cfi_def_cfa_offset 96
 200:C:/Users/stapi/OneDrive/Desktop/GD32VW553/V1_MQTT_OK/GD32VW55X_Wifi_BLE_SDK/GD32VW55x_RELEASE_V1.0.2/MSDK/cloud/alicloud/src/protocol/alcs\alcs_mqtt.c ****     char *key_source = NULL;
 1881              		.loc 1 200 1
 1882 000a 2A89     		mv	s2,a0
 1883 000c 2E8A     		mv	s4,a1
 1884 000e B289     		mv	s3,a2
 203:C:/Users/stapi/OneDrive/Desktop/GD32VW553/V1_MQTT_OK/GD32VW55X_Wifi_BLE_SDK/GD32VW55x_RELEASE_V1.0.2/MSDK/cloud/alicloud/src/protocol/alcs\alcs_mqtt.c **** 
 1885              		.loc 1 203 10
 1886 0010 8145     		li	a1,0
 1887              	.LVL215:
 1888 0012 7546     		li	a2,29
 1889              	.LVL216:
 1890 0014 0810     		addi	a0,sp,32
 1891              	.LVL217:
 200:C:/Users/stapi/OneDrive/Desktop/GD32VW553/V1_MQTT_OK/GD32VW55X_Wifi_BLE_SDK/GD32VW55x_RELEASE_V1.0.2/MSDK/cloud/alicloud/src/protocol/alcs\alcs_mqtt.c ****     char *key_source = NULL;
 1892              		.loc 1 200 1
 1893 0016 B68A     		mv	s5,a3
 202:C:/Users/stapi/OneDrive/Desktop/GD32VW553/V1_MQTT_OK/GD32VW55X_Wifi_BLE_SDK/GD32VW55x_RELEASE_V1.0.2/MSDK/cloud/alicloud/src/protocol/alcs\alcs_mqtt.c ****     char key_md5_hexstr[33] = {0};
 1894              		.loc 1 202 13
 1895 0018 02C6     		sw	zero,12(sp)
 1896 001a 02C8     		sw	zero,16(sp)
 1897 001c 02CA     		sw	zero,20(sp)
 1898 001e 02CC     		sw	zero,24(sp)
 203:C:/Users/stapi/OneDrive/Desktop/GD32VW553/V1_MQTT_OK/GD32VW55X_Wifi_BLE_SDK/GD32VW55x_RELEASE_V1.0.2/MSDK/cloud/alicloud/src/protocol/alcs\alcs_mqtt.c **** 
 1899              		.loc 1 203 5 is_stmt 1
 203:C:/Users/stapi/OneDrive/Desktop/GD32VW553/V1_MQTT_OK/GD32VW55X_Wifi_BLE_SDK/GD32VW55x_RELEASE_V1.0.2/MSDK/cloud/alicloud/src/protocol/alcs\alcs_mqtt.c **** 
 1900              		.loc 1 203 10 is_stmt 0
 1901 0020 02CE     		sw	zero,28(sp)
 1902 0022 97000000 		call	memset
 1902      E7800000 
 1903              	.LVL218:
 205:C:/Users/stapi/OneDrive/Desktop/GD32VW553/V1_MQTT_OK/GD32VW55X_Wifi_BLE_SDK/GD32VW55x_RELEASE_V1.0.2/MSDK/cloud/alicloud/src/protocol/alcs\alcs_mqtt.c ****         dn == NULL || strlen(dn) >= DEVICE_NAME_MAXLEN) {
 1904              		.loc 1 205 5 is_stmt 1
 205:C:/Users/stapi/OneDrive/Desktop/GD32VW553/V1_MQTT_OK/GD32VW55X_Wifi_BLE_SDK/GD32VW55x_RELEASE_V1.0.2/MSDK/cloud/alicloud/src/protocol/alcs\alcs_mqtt.c ****         dn == NULL || strlen(dn) >= DEVICE_NAME_MAXLEN) {
 1905              		.loc 1 205 8 is_stmt 0
 1906 002a 63050902 		beq	s2,zero,.L161
 205:C:/Users/stapi/OneDrive/Desktop/GD32VW553/V1_MQTT_OK/GD32VW55X_Wifi_BLE_SDK/GD32VW55x_RELEASE_V1.0.2/MSDK/cloud/alicloud/src/protocol/alcs\alcs_mqtt.c ****         dn == NULL || strlen(dn) >= DEVICE_NAME_MAXLEN) {
 1907              		.loc 1 205 23 discriminator 1
 1908 002e 4A85     		mv	a0,s2
 1909 0030 97000000 		call	strlen
 1909      E7800000 
 1910              	.LVL219:
 205:C:/Users/stapi/OneDrive/Desktop/GD32VW553/V1_MQTT_OK/GD32VW55X_Wifi_BLE_SDK/GD32VW55x_RELEASE_V1.0.2/MSDK/cloud/alicloud/src/protocol/alcs\alcs_mqtt.c ****         dn == NULL || strlen(dn) >= DEVICE_NAME_MAXLEN) {
 1911              		.loc 1 205 20 discriminator 1
 1912 0038 D147     		li	a5,20
 1913 003a 63EDA700 		bgtu	a0,a5,.L161
 205:C:/Users/stapi/OneDrive/Desktop/GD32VW553/V1_MQTT_OK/GD32VW55X_Wifi_BLE_SDK/GD32VW55x_RELEASE_V1.0.2/MSDK/cloud/alicloud/src/protocol/alcs\alcs_mqtt.c ****         dn == NULL || strlen(dn) >= DEVICE_NAME_MAXLEN) {
 1914              		.loc 1 205 56 discriminator 2
 1915 003e 638B0900 		beq	s3,zero,.L161
 206:C:/Users/stapi/OneDrive/Desktop/GD32VW553/V1_MQTT_OK/GD32VW55X_Wifi_BLE_SDK/GD32VW55x_RELEASE_V1.0.2/MSDK/cloud/alicloud/src/protocol/alcs\alcs_mqtt.c ****         COAP_ERR("Invalid Parameter");
 1916              		.loc 1 206 23
 1917 0042 4E85     		mv	a0,s3
 1918 0044 97000000 		call	strlen
 1918      E7800000 
 1919              	.LVL220:
 206:C:/Users/stapi/OneDrive/Desktop/GD32VW553/V1_MQTT_OK/GD32VW55X_Wifi_BLE_SDK/GD32VW55x_RELEASE_V1.0.2/MSDK/cloud/alicloud/src/protocol/alcs\alcs_mqtt.c ****         COAP_ERR("Invalid Parameter");
 1920              		.loc 1 206 20
 1921 004c 93070002 		li	a5,32
 1922 0050 63F1A704 		bleu	a0,a5,.L162
 1923              	.L161:
 207:C:/Users/stapi/OneDrive/Desktop/GD32VW553/V1_MQTT_OK/GD32VW55X_Wifi_BLE_SDK/GD32VW55x_RELEASE_V1.0.2/MSDK/cloud/alicloud/src/protocol/alcs\alcs_mqtt.c ****         return ALCS_MQTT_STATUS_ERROR;
 1924              		.loc 1 207 9 is_stmt 1
 207:C:/Users/stapi/OneDrive/Desktop/GD32VW553/V1_MQTT_OK/GD32VW55X_Wifi_BLE_SDK/GD32VW55x_RELEASE_V1.0.2/MSDK/cloud/alicloud/src/protocol/alcs\alcs_mqtt.c ****         return ALCS_MQTT_STATUS_ERROR;
 1925              		.loc 1 207 9
 1926 0054 37050000 		lui	a0,%hi(.LC7)
 1927 0058 13050500 		addi	a0,a0,%lo(.LC7)
 1928 005c 97000000 		call	HAL_Printf
 1928      E7800000 
 1929              	.LVL221:
 207:C:/Users/stapi/OneDrive/Desktop/GD32VW553/V1_MQTT_OK/GD32VW55X_Wifi_BLE_SDK/GD32VW55x_RELEASE_V1.0.2/MSDK/cloud/alicloud/src/protocol/alcs\alcs_mqtt.c ****         return ALCS_MQTT_STATUS_ERROR;
 1930              		.loc 1 207 9
 1931 0064 37050000 		lui	a0,%hi(.LC8)
 1932 0068 13050500 		addi	a0,a0,%lo(.LC8)
 1933              	.LVL222:
 1934              	.L174:
 214:C:/Users/stapi/OneDrive/Desktop/GD32VW553/V1_MQTT_OK/GD32VW55X_Wifi_BLE_SDK/GD32VW55x_RELEASE_V1.0.2/MSDK/cloud/alicloud/src/protocol/alcs\alcs_mqtt.c ****         return ALCS_MQTT_STATUS_ERROR;
 1935              		.loc 1 214 9 is_stmt 0
 1936 006c 97000000 		call	HAL_Printf
 1936      E7800000 
 1937              	.LVL223:
 214:C:/Users/stapi/OneDrive/Desktop/GD32VW553/V1_MQTT_OK/GD32VW55X_Wifi_BLE_SDK/GD32VW55x_RELEASE_V1.0.2/MSDK/cloud/alicloud/src/protocol/alcs\alcs_mqtt.c ****         return ALCS_MQTT_STATUS_ERROR;
 1938              		.loc 1 214 9 is_stmt 1
 1939 0074 37050000 		lui	a0,%hi(.LC2)
 1940 0078 13050500 		addi	a0,a0,%lo(.LC2)
 1941 007c 97000000 		call	HAL_Printf
 1941      E7800000 
 1942              	.LVL224:
 214:C:/Users/stapi/OneDrive/Desktop/GD32VW553/V1_MQTT_OK/GD32VW55X_Wifi_BLE_SDK/GD32VW55x_RELEASE_V1.0.2/MSDK/cloud/alicloud/src/protocol/alcs\alcs_mqtt.c ****         return ALCS_MQTT_STATUS_ERROR;
 1943              		.loc 1 214 9
 215:C:/Users/stapi/OneDrive/Desktop/GD32VW553/V1_MQTT_OK/GD32VW55X_Wifi_BLE_SDK/GD32VW55x_RELEASE_V1.0.2/MSDK/cloud/alicloud/src/protocol/alcs\alcs_mqtt.c ****     }
 1944              		.loc 1 215 9
 1945              	.L173:
 231:C:/Users/stapi/OneDrive/Desktop/GD32VW553/V1_MQTT_OK/GD32VW55X_Wifi_BLE_SDK/GD32VW55x_RELEASE_V1.0.2/MSDK/cloud/alicloud/src/protocol/alcs\alcs_mqtt.c ****     }
 1946              		.loc 1 231 9
 231:C:/Users/stapi/OneDrive/Desktop/GD32VW553/V1_MQTT_OK/GD32VW55X_Wifi_BLE_SDK/GD32VW55x_RELEASE_V1.0.2/MSDK/cloud/alicloud/src/protocol/alcs\alcs_mqtt.c ****     }
 1947              		.loc 1 231 16 is_stmt 0
 1948 0084 8544     		li	s1,1
 1949              	.L160:
 236:C:/Users/stapi/OneDrive/Desktop/GD32VW553/V1_MQTT_OK/GD32VW55X_Wifi_BLE_SDK/GD32VW55x_RELEASE_V1.0.2/MSDK/cloud/alicloud/src/protocol/alcs\alcs_mqtt.c **** #ifdef ALCS_GROUP_COMM_ENABLE
 1950              		.loc 1 236 1
 1951 0086 2685     		mv	a0,s1
 1952 0088 2161     		addi	sp,sp,64
 1953              		.cfi_remember_state
 1954              		.cfi_def_cfa_offset 0
 1955 008a 17030000 		tail	__riscv_restore_6
 1955      67000300 
 1956              		.cfi_restore 21
 1957              		.cfi_restore 20
 1958              		.cfi_restore 19
 1959              		.cfi_restore 18
 1960              		.cfi_restore 9
 1961              		.cfi_restore 8
 1962              		.cfi_restore 1
 1963              		.cfi_def_cfa_offset -32
 1964              	.LVL225:
 1965              	.L162:
 1966              		.cfi_restore_state
 212:C:/Users/stapi/OneDrive/Desktop/GD32VW553/V1_MQTT_OK/GD32VW55X_Wifi_BLE_SDK/GD32VW55x_RELEASE_V1.0.2/MSDK/cloud/alicloud/src/protocol/alcs\alcs_mqtt.c ****     if (key_source == NULL) {
 1967              		.loc 1 212 5 is_stmt 1
 212:C:/Users/stapi/OneDrive/Desktop/GD32VW553/V1_MQTT_OK/GD32VW55X_Wifi_BLE_SDK/GD32VW55x_RELEASE_V1.0.2/MSDK/cloud/alicloud/src/protocol/alcs\alcs_mqtt.c ****     if (key_source == NULL) {
 1968              		.loc 1 212 18 is_stmt 0
 1969 0092 B3045A01 		add	s1,s4,s5
 1970 0096 8504     		addi	s1,s1,1
 1971 0098 2686     		mv	a2,s1
 1972 009a 8145     		li	a1,0
 1973 009c 0145     		li	a0,0
 1974 009e 97000000 		call	LITE_malloc_internal
 1974      E7800000 
 1975              	.LVL226:
 1976 00a6 2A84     		mv	s0,a0
 1977              	.LVL227:
 213:C:/Users/stapi/OneDrive/Desktop/GD32VW553/V1_MQTT_OK/GD32VW55X_Wifi_BLE_SDK/GD32VW55x_RELEASE_V1.0.2/MSDK/cloud/alicloud/src/protocol/alcs\alcs_mqtt.c ****         COAP_ERR("No Enough Memory");
 1978              		.loc 1 213 5 is_stmt 1
 213:C:/Users/stapi/OneDrive/Desktop/GD32VW553/V1_MQTT_OK/GD32VW55X_Wifi_BLE_SDK/GD32VW55x_RELEASE_V1.0.2/MSDK/cloud/alicloud/src/protocol/alcs\alcs_mqtt.c ****         COAP_ERR("No Enough Memory");
 1979              		.loc 1 213 8 is_stmt 0
 1980 00a8 11ED     		bne	a0,zero,.L164
 214:C:/Users/stapi/OneDrive/Desktop/GD32VW553/V1_MQTT_OK/GD32VW55X_Wifi_BLE_SDK/GD32VW55x_RELEASE_V1.0.2/MSDK/cloud/alicloud/src/protocol/alcs\alcs_mqtt.c ****         return ALCS_MQTT_STATUS_ERROR;
 1981              		.loc 1 214 9 is_stmt 1
 214:C:/Users/stapi/OneDrive/Desktop/GD32VW553/V1_MQTT_OK/GD32VW55X_Wifi_BLE_SDK/GD32VW55x_RELEASE_V1.0.2/MSDK/cloud/alicloud/src/protocol/alcs\alcs_mqtt.c ****         return ALCS_MQTT_STATUS_ERROR;
 1982              		.loc 1 214 9
 1983 00aa 37050000 		lui	a0,%hi(.LC7)
 1984 00ae 13050500 		addi	a0,a0,%lo(.LC7)
 1985 00b2 97000000 		call	HAL_Printf
 1985      E7800000 
 1986              	.LVL228:
 214:C:/Users/stapi/OneDrive/Desktop/GD32VW553/V1_MQTT_OK/GD32VW55X_Wifi_BLE_SDK/GD32VW55x_RELEASE_V1.0.2/MSDK/cloud/alicloud/src/protocol/alcs\alcs_mqtt.c ****         return ALCS_MQTT_STATUS_ERROR;
 1987              		.loc 1 214 9
 1988 00ba 37050000 		lui	a0,%hi(.LC9)
 1989 00be 13050500 		addi	a0,a0,%lo(.LC9)
 1990 00c2 6DB7     		j	.L174
 1991              	.L164:
 217:C:/Users/stapi/OneDrive/Desktop/GD32VW553/V1_MQTT_OK/GD32VW55X_Wifi_BLE_SDK/GD32VW55x_RELEASE_V1.0.2/MSDK/cloud/alicloud/src/protocol/alcs\alcs_mqtt.c **** 
 1992              		.loc 1 217 5
 1993 00c4 2686     		mv	a2,s1
 1994 00c6 8145     		li	a1,0
 1995 00c8 97000000 		call	memset
 1995      E7800000 
 1996              	.LVL229:
 219:C:/Users/stapi/OneDrive/Desktop/GD32VW553/V1_MQTT_OK/GD32VW55X_Wifi_BLE_SDK/GD32VW55x_RELEASE_V1.0.2/MSDK/cloud/alicloud/src/protocol/alcs\alcs_mqtt.c **** 
 1997              		.loc 1 219 5
 1998 00d0 37060000 		lui	a2,%hi(.LC10)
 1999 00d4 4E88     		mv	a6,s3
 2000 00d6 D687     		mv	a5,s5
 2001 00d8 4A87     		mv	a4,s2
 2002 00da D286     		mv	a3,s4
 2003 00dc A685     		mv	a1,s1
 2004 00de 13060600 		addi	a2,a2,%lo(.LC10)
 2005 00e2 2285     		mv	a0,s0
 2006 00e4 97000000 		call	HAL_Snprintf
 2006      E7800000 
 2007              	.LVL230:
 221:C:/Users/stapi/OneDrive/Desktop/GD32VW553/V1_MQTT_OK/GD32VW55X_Wifi_BLE_SDK/GD32VW55x_RELEASE_V1.0.2/MSDK/cloud/alicloud/src/protocol/alcs\alcs_mqtt.c ****     utils_md5_hexstr(key_md5, (unsigned char *)key_md5_hexstr);
 2008              		.loc 1 221 5
 2009 00ec 2285     		mv	a0,s0
 2010 00ee 97000000 		call	strlen
 2010      E7800000 
 2011              	.LVL231:
 2012 00f6 AA85     		mv	a1,a0
 2013 00f8 7000     		addi	a2,sp,12
 2014 00fa 2285     		mv	a0,s0
 2015 00fc 97000000 		call	utils_md5
 2015      E7800000 
 2016              	.LVL232:
 222:C:/Users/stapi/OneDrive/Desktop/GD32VW553/V1_MQTT_OK/GD32VW55X_Wifi_BLE_SDK/GD32VW55x_RELEASE_V1.0.2/MSDK/cloud/alicloud/src/protocol/alcs\alcs_mqtt.c **** 
 2017              		.loc 1 222 5
 2018 0104 6C08     		addi	a1,sp,28
 2019 0106 6800     		addi	a0,sp,12
 2020 0108 97000000 		call	utils_md5_hexstr
 2020      E7800000 
 2021              	.LVL233:
 225:C:/Users/stapi/OneDrive/Desktop/GD32VW553/V1_MQTT_OK/GD32VW55X_Wifi_BLE_SDK/GD32VW55x_RELEASE_V1.0.2/MSDK/cloud/alicloud/src/protocol/alcs\alcs_mqtt.c **** #else 
 2022              		.loc 1 225 5
 225:C:/Users/stapi/OneDrive/Desktop/GD32VW553/V1_MQTT_OK/GD32VW55X_Wifi_BLE_SDK/GD32VW55x_RELEASE_V1.0.2/MSDK/cloud/alicloud/src/protocol/alcs\alcs_mqtt.c **** #else 
 2023              		.loc 1 225 37 is_stmt 0
 2024 0110 37050000 		lui	a0,%hi(.LC11)
 2025 0114 13050500 		addi	a0,a0,%lo(.LC11)
 2026 0118 97000000 		call	__alcs_mqtt_kv_del
 2026      E7800000 
 2027              	.LVL234:
 2028 0120 AA84     		mv	s1,a0
 225:C:/Users/stapi/OneDrive/Desktop/GD32VW553/V1_MQTT_OK/GD32VW55X_Wifi_BLE_SDK/GD32VW55x_RELEASE_V1.0.2/MSDK/cloud/alicloud/src/protocol/alcs\alcs_mqtt.c **** #else 
 2029              		.loc 1 225 8
 2030 0122 1DCD     		beq	a0,zero,.L165
 229:C:/Users/stapi/OneDrive/Desktop/GD32VW553/V1_MQTT_OK/GD32VW55X_Wifi_BLE_SDK/GD32VW55x_RELEASE_V1.0.2/MSDK/cloud/alicloud/src/protocol/alcs\alcs_mqtt.c ****         LITE_free(key_source);
 2031              		.loc 1 229 9 is_stmt 1
 229:C:/Users/stapi/OneDrive/Desktop/GD32VW553/V1_MQTT_OK/GD32VW55X_Wifi_BLE_SDK/GD32VW55x_RELEASE_V1.0.2/MSDK/cloud/alicloud/src/protocol/alcs\alcs_mqtt.c ****         LITE_free(key_source);
 2032              		.loc 1 229 9
 2033 0124 37050000 		lui	a0,%hi(.LC7)
 2034 0128 13050500 		addi	a0,a0,%lo(.LC7)
 2035 012c 97000000 		call	HAL_Printf
 2035      E7800000 
 2036              	.LVL235:
 229:C:/Users/stapi/OneDrive/Desktop/GD32VW553/V1_MQTT_OK/GD32VW55X_Wifi_BLE_SDK/GD32VW55x_RELEASE_V1.0.2/MSDK/cloud/alicloud/src/protocol/alcs\alcs_mqtt.c ****         LITE_free(key_source);
 2037              		.loc 1 229 9
 2038 0134 37050000 		lui	a0,%hi(.LC13)
 2039 0138 13050500 		addi	a0,a0,%lo(.LC13)
 2040 013c 97000000 		call	HAL_Printf
 2040      E7800000 
 2041              	.LVL236:
 229:C:/Users/stapi/OneDrive/Desktop/GD32VW553/V1_MQTT_OK/GD32VW55X_Wifi_BLE_SDK/GD32VW55x_RELEASE_V1.0.2/MSDK/cloud/alicloud/src/protocol/alcs\alcs_mqtt.c ****         LITE_free(key_source);
 2042              		.loc 1 229 9
 2043 0144 37050000 		lui	a0,%hi(.LC2)
 2044 0148 13050500 		addi	a0,a0,%lo(.LC2)
 2045 014c 97000000 		call	HAL_Printf
 2045      E7800000 
 2046              	.LVL237:
 229:C:/Users/stapi/OneDrive/Desktop/GD32VW553/V1_MQTT_OK/GD32VW55X_Wifi_BLE_SDK/GD32VW55x_RELEASE_V1.0.2/MSDK/cloud/alicloud/src/protocol/alcs\alcs_mqtt.c ****         LITE_free(key_source);
 2047              		.loc 1 229 9
 230:C:/Users/stapi/OneDrive/Desktop/GD32VW553/V1_MQTT_OK/GD32VW55X_Wifi_BLE_SDK/GD32VW55x_RELEASE_V1.0.2/MSDK/cloud/alicloud/src/protocol/alcs\alcs_mqtt.c ****         return ALCS_MQTT_STATUS_ERROR;
 2048              		.loc 1 230 9
 2049 0154 2285     		mv	a0,s0
 2050 0156 97000000 		call	LITE_free_internal
 2050      E7800000 
 2051              	.LVL238:
 2052 015e 1DB7     		j	.L173
 2053              	.L165:
 234:C:/Users/stapi/OneDrive/Desktop/GD32VW553/V1_MQTT_OK/GD32VW55X_Wifi_BLE_SDK/GD32VW55x_RELEASE_V1.0.2/MSDK/cloud/alicloud/src/protocol/alcs\alcs_mqtt.c ****     return ALCS_MQTT_STATUS_SUCCESS;
 2054              		.loc 1 234 5
 2055 0160 2285     		mv	a0,s0
 2056 0162 97000000 		call	LITE_free_internal
 2056      E7800000 
 2057              	.LVL239:
 235:C:/Users/stapi/OneDrive/Desktop/GD32VW553/V1_MQTT_OK/GD32VW55X_Wifi_BLE_SDK/GD32VW55x_RELEASE_V1.0.2/MSDK/cloud/alicloud/src/protocol/alcs\alcs_mqtt.c **** }
 2058              		.loc 1 235 5
 235:C:/Users/stapi/OneDrive/Desktop/GD32VW553/V1_MQTT_OK/GD32VW55X_Wifi_BLE_SDK/GD32VW55x_RELEASE_V1.0.2/MSDK/cloud/alicloud/src/protocol/alcs\alcs_mqtt.c **** }
 2059              		.loc 1 235 12 is_stmt 0
 2060 016a 31BF     		j	.L160
 2061              		.cfi_endproc
 2062              	.LFE28:
 2064              		.section	.text.alcs_mqtt_deinit,"ax",@progbits
 2065              		.align	1
 2066              		.globl	alcs_mqtt_deinit
 2068              	alcs_mqtt_deinit:
 2069              	.LFB33:
 571:C:/Users/stapi/OneDrive/Desktop/GD32VW553/V1_MQTT_OK/GD32VW55X_Wifi_BLE_SDK/GD32VW55x_RELEASE_V1.0.2/MSDK/cloud/alicloud/src/protocol/alcs\alcs_mqtt.c **** 
 572:C:/Users/stapi/OneDrive/Desktop/GD32VW553/V1_MQTT_OK/GD32VW55X_Wifi_BLE_SDK/GD32VW55x_RELEASE_V1.0.2/MSDK/cloud/alicloud/src/protocol/alcs\alcs_mqtt.c **** #if 0
 573:C:/Users/stapi/OneDrive/Desktop/GD32VW553/V1_MQTT_OK/GD32VW55X_Wifi_BLE_SDK/GD32VW55x_RELEASE_V1.0.2/MSDK/cloud/alicloud/src/protocol/alcs\alcs_mqtt.c **** static alcs_mqtt_status_e __alcs_mqtt_unsubscribe(void *ctx, char *topic)
 574:C:/Users/stapi/OneDrive/Desktop/GD32VW553/V1_MQTT_OK/GD32VW55X_Wifi_BLE_SDK/GD32VW55x_RELEASE_V1.0.2/MSDK/cloud/alicloud/src/protocol/alcs\alcs_mqtt.c **** {
 575:C:/Users/stapi/OneDrive/Desktop/GD32VW553/V1_MQTT_OK/GD32VW55X_Wifi_BLE_SDK/GD32VW55x_RELEASE_V1.0.2/MSDK/cloud/alicloud/src/protocol/alcs\alcs_mqtt.c ****     return (mqtt_unsubscribe(topic) != 0) ? ALCS_MQTT_STATUS_ERROR : ALCS_MQTT_STATUS_SUCCESS;
 576:C:/Users/stapi/OneDrive/Desktop/GD32VW553/V1_MQTT_OK/GD32VW55X_Wifi_BLE_SDK/GD32VW55x_RELEASE_V1.0.2/MSDK/cloud/alicloud/src/protocol/alcs\alcs_mqtt.c **** }
 577:C:/Users/stapi/OneDrive/Desktop/GD32VW553/V1_MQTT_OK/GD32VW55X_Wifi_BLE_SDK/GD32VW55x_RELEASE_V1.0.2/MSDK/cloud/alicloud/src/protocol/alcs\alcs_mqtt.c **** #endif
 578:C:/Users/stapi/OneDrive/Desktop/GD32VW553/V1_MQTT_OK/GD32VW55X_Wifi_BLE_SDK/GD32VW55x_RELEASE_V1.0.2/MSDK/cloud/alicloud/src/protocol/alcs\alcs_mqtt.c **** static uint64_t b_retry_ms = 0;
 579:C:/Users/stapi/OneDrive/Desktop/GD32VW553/V1_MQTT_OK/GD32VW55X_Wifi_BLE_SDK/GD32VW55x_RELEASE_V1.0.2/MSDK/cloud/alicloud/src/protocol/alcs\alcs_mqtt.c **** void iotx_alcs_get_prefixkey() {
 580:C:/Users/stapi/OneDrive/Desktop/GD32VW553/V1_MQTT_OK/GD32VW55X_Wifi_BLE_SDK/GD32VW55x_RELEASE_V1.0.2/MSDK/cloud/alicloud/src/protocol/alcs\alcs_mqtt.c ****     if (b_prefixkey == 0) {
 581:C:/Users/stapi/OneDrive/Desktop/GD32VW553/V1_MQTT_OK/GD32VW55X_Wifi_BLE_SDK/GD32VW55x_RELEASE_V1.0.2/MSDK/cloud/alicloud/src/protocol/alcs\alcs_mqtt.c ****         uint64_t time_now = HAL_UptimeMs();
 582:C:/Users/stapi/OneDrive/Desktop/GD32VW553/V1_MQTT_OK/GD32VW55X_Wifi_BLE_SDK/GD32VW55x_RELEASE_V1.0.2/MSDK/cloud/alicloud/src/protocol/alcs\alcs_mqtt.c ****         if (((time_now > b_retry_ms) && (time_now - b_retry_ms >= 10000)) ||
 583:C:/Users/stapi/OneDrive/Desktop/GD32VW553/V1_MQTT_OK/GD32VW55X_Wifi_BLE_SDK/GD32VW55x_RELEASE_V1.0.2/MSDK/cloud/alicloud/src/protocol/alcs\alcs_mqtt.c ****             ((time_now <= b_retry_ms) && ((0xFFFFFFFFFFFFFFFF - b_retry_ms) + time_now >= 10000))) 
 584:C:/Users/stapi/OneDrive/Desktop/GD32VW553/V1_MQTT_OK/GD32VW55X_Wifi_BLE_SDK/GD32VW55x_RELEASE_V1.0.2/MSDK/cloud/alicloud/src/protocol/alcs\alcs_mqtt.c ****             char product_key[PRODUCT_KEY_MAXLEN] = {0};
 585:C:/Users/stapi/OneDrive/Desktop/GD32VW553/V1_MQTT_OK/GD32VW55X_Wifi_BLE_SDK/GD32VW55x_RELEASE_V1.0.2/MSDK/cloud/alicloud/src/protocol/alcs\alcs_mqtt.c ****             char device_name[DEVICE_NAME_MAXLEN] = {0};
 586:C:/Users/stapi/OneDrive/Desktop/GD32VW553/V1_MQTT_OK/GD32VW55X_Wifi_BLE_SDK/GD32VW55x_RELEASE_V1.0.2/MSDK/cloud/alicloud/src/protocol/alcs\alcs_mqtt.c ****             HAL_GetProductKey(product_key);
 587:C:/Users/stapi/OneDrive/Desktop/GD32VW553/V1_MQTT_OK/GD32VW55X_Wifi_BLE_SDK/GD32VW55x_RELEASE_V1.0.2/MSDK/cloud/alicloud/src/protocol/alcs\alcs_mqtt.c ****             HAL_GetDeviceName(device_name);
 588:C:/Users/stapi/OneDrive/Desktop/GD32VW553/V1_MQTT_OK/GD32VW55X_Wifi_BLE_SDK/GD32VW55x_RELEASE_V1.0.2/MSDK/cloud/alicloud/src/protocol/alcs\alcs_mqtt.c ****             alcs_prefixkey_get(product_key, device_name);
 589:C:/Users/stapi/OneDrive/Desktop/GD32VW553/V1_MQTT_OK/GD32VW55X_Wifi_BLE_SDK/GD32VW55x_RELEASE_V1.0.2/MSDK/cloud/alicloud/src/protocol/alcs\alcs_mqtt.c ****             b_retry_ms = time_now;
 590:C:/Users/stapi/OneDrive/Desktop/GD32VW553/V1_MQTT_OK/GD32VW55X_Wifi_BLE_SDK/GD32VW55x_RELEASE_V1.0.2/MSDK/cloud/alicloud/src/protocol/alcs\alcs_mqtt.c ****         }
 591:C:/Users/stapi/OneDrive/Desktop/GD32VW553/V1_MQTT_OK/GD32VW55X_Wifi_BLE_SDK/GD32VW55x_RELEASE_V1.0.2/MSDK/cloud/alicloud/src/protocol/alcs\alcs_mqtt.c ****     }
 592:C:/Users/stapi/OneDrive/Desktop/GD32VW553/V1_MQTT_OK/GD32VW55X_Wifi_BLE_SDK/GD32VW55x_RELEASE_V1.0.2/MSDK/cloud/alicloud/src/protocol/alcs\alcs_mqtt.c **** }
 593:C:/Users/stapi/OneDrive/Desktop/GD32VW553/V1_MQTT_OK/GD32VW55X_Wifi_BLE_SDK/GD32VW55x_RELEASE_V1.0.2/MSDK/cloud/alicloud/src/protocol/alcs\alcs_mqtt.c **** alcs_mqtt_status_e alcs_mqtt_init(void *handle, char *product_key, char *device_name)
 594:C:/Users/stapi/OneDrive/Desktop/GD32VW553/V1_MQTT_OK/GD32VW55X_Wifi_BLE_SDK/GD32VW55x_RELEASE_V1.0.2/MSDK/cloud/alicloud/src/protocol/alcs\alcs_mqtt.c **** {
 595:C:/Users/stapi/OneDrive/Desktop/GD32VW553/V1_MQTT_OK/GD32VW55X_Wifi_BLE_SDK/GD32VW55x_RELEASE_V1.0.2/MSDK/cloud/alicloud/src/protocol/alcs\alcs_mqtt.c ****     char topic[ALCS_MQTT_TOPIC_MAX_LEN] = {0};
 596:C:/Users/stapi/OneDrive/Desktop/GD32VW553/V1_MQTT_OK/GD32VW55X_Wifi_BLE_SDK/GD32VW55x_RELEASE_V1.0.2/MSDK/cloud/alicloud/src/protocol/alcs\alcs_mqtt.c ****     alcs_mqtt_status_e status = ALCS_MQTT_STATUS_SUCCESS;
 597:C:/Users/stapi/OneDrive/Desktop/GD32VW553/V1_MQTT_OK/GD32VW55X_Wifi_BLE_SDK/GD32VW55x_RELEASE_V1.0.2/MSDK/cloud/alicloud/src/protocol/alcs\alcs_mqtt.c ****     alcs_mqtt_ctx_t *ctx =  __alcs_mqtt_get_ctx();
 598:C:/Users/stapi/OneDrive/Desktop/GD32VW553/V1_MQTT_OK/GD32VW55X_Wifi_BLE_SDK/GD32VW55x_RELEASE_V1.0.2/MSDK/cloud/alicloud/src/protocol/alcs\alcs_mqtt.c **** 
 599:C:/Users/stapi/OneDrive/Desktop/GD32VW553/V1_MQTT_OK/GD32VW55X_Wifi_BLE_SDK/GD32VW55x_RELEASE_V1.0.2/MSDK/cloud/alicloud/src/protocol/alcs\alcs_mqtt.c ****     if (handle == NULL || product_key == NULL || strlen(product_key) > PRODUCT_KEY_LEN ||
 600:C:/Users/stapi/OneDrive/Desktop/GD32VW553/V1_MQTT_OK/GD32VW55X_Wifi_BLE_SDK/GD32VW55x_RELEASE_V1.0.2/MSDK/cloud/alicloud/src/protocol/alcs\alcs_mqtt.c ****         device_name == NULL || strlen(device_name) > DEVICE_NAME_LEN) {
 601:C:/Users/stapi/OneDrive/Desktop/GD32VW553/V1_MQTT_OK/GD32VW55X_Wifi_BLE_SDK/GD32VW55x_RELEASE_V1.0.2/MSDK/cloud/alicloud/src/protocol/alcs\alcs_mqtt.c ****         return ALCS_MQTT_STATUS_ERROR;
 602:C:/Users/stapi/OneDrive/Desktop/GD32VW553/V1_MQTT_OK/GD32VW55X_Wifi_BLE_SDK/GD32VW55x_RELEASE_V1.0.2/MSDK/cloud/alicloud/src/protocol/alcs\alcs_mqtt.c ****     }
 603:C:/Users/stapi/OneDrive/Desktop/GD32VW553/V1_MQTT_OK/GD32VW55X_Wifi_BLE_SDK/GD32VW55x_RELEASE_V1.0.2/MSDK/cloud/alicloud/src/protocol/alcs\alcs_mqtt.c **** 
 604:C:/Users/stapi/OneDrive/Desktop/GD32VW553/V1_MQTT_OK/GD32VW55X_Wifi_BLE_SDK/GD32VW55x_RELEASE_V1.0.2/MSDK/cloud/alicloud/src/protocol/alcs\alcs_mqtt.c ****     memset(ctx, 0, sizeof(alcs_mqtt_ctx_t));
 605:C:/Users/stapi/OneDrive/Desktop/GD32VW553/V1_MQTT_OK/GD32VW55X_Wifi_BLE_SDK/GD32VW55x_RELEASE_V1.0.2/MSDK/cloud/alicloud/src/protocol/alcs\alcs_mqtt.c ****     ctx->coap_ctx = (CoAPContext *)handle;
 606:C:/Users/stapi/OneDrive/Desktop/GD32VW553/V1_MQTT_OK/GD32VW55X_Wifi_BLE_SDK/GD32VW55x_RELEASE_V1.0.2/MSDK/cloud/alicloud/src/protocol/alcs\alcs_mqtt.c ****     memcpy(ctx->product_key, product_key, strlen(product_key));
 607:C:/Users/stapi/OneDrive/Desktop/GD32VW553/V1_MQTT_OK/GD32VW55X_Wifi_BLE_SDK/GD32VW55x_RELEASE_V1.0.2/MSDK/cloud/alicloud/src/protocol/alcs\alcs_mqtt.c ****     memcpy(ctx->device_name, device_name, strlen(device_name));
 608:C:/Users/stapi/OneDrive/Desktop/GD32VW553/V1_MQTT_OK/GD32VW55X_Wifi_BLE_SDK/GD32VW55x_RELEASE_V1.0.2/MSDK/cloud/alicloud/src/protocol/alcs\alcs_mqtt.c **** 
 609:C:/Users/stapi/OneDrive/Desktop/GD32VW553/V1_MQTT_OK/GD32VW55X_Wifi_BLE_SDK/GD32VW55x_RELEASE_V1.0.2/MSDK/cloud/alicloud/src/protocol/alcs\alcs_mqtt.c ****     memset(topic, 0, ALCS_MQTT_TOPIC_MAX_LEN);
 610:C:/Users/stapi/OneDrive/Desktop/GD32VW553/V1_MQTT_OK/GD32VW55X_Wifi_BLE_SDK/GD32VW55x_RELEASE_V1.0.2/MSDK/cloud/alicloud/src/protocol/alcs\alcs_mqtt.c ****     snprintf(topic, ALCS_MQTT_TOPIC_MAX_LEN, ALCS_MQTT_PREFIX ALCS_MQTT_THING_LAN_PREFIX_GET_REPLY_
 611:C:/Users/stapi/OneDrive/Desktop/GD32VW553/V1_MQTT_OK/GD32VW55X_Wifi_BLE_SDK/GD32VW55x_RELEASE_V1.0.2/MSDK/cloud/alicloud/src/protocol/alcs\alcs_mqtt.c ****              ctx->product_key, ctx->device_name);
 612:C:/Users/stapi/OneDrive/Desktop/GD32VW553/V1_MQTT_OK/GD32VW55X_Wifi_BLE_SDK/GD32VW55x_RELEASE_V1.0.2/MSDK/cloud/alicloud/src/protocol/alcs\alcs_mqtt.c ****     if (__alcs_mqtt_subscribe((void *)ctx, topic) != ALCS_MQTT_STATUS_SUCCESS) {
 613:C:/Users/stapi/OneDrive/Desktop/GD32VW553/V1_MQTT_OK/GD32VW55X_Wifi_BLE_SDK/GD32VW55x_RELEASE_V1.0.2/MSDK/cloud/alicloud/src/protocol/alcs\alcs_mqtt.c ****         COAP_ERR("ALCS Subscribe Failed, Topic: %s", topic);
 614:C:/Users/stapi/OneDrive/Desktop/GD32VW553/V1_MQTT_OK/GD32VW55X_Wifi_BLE_SDK/GD32VW55x_RELEASE_V1.0.2/MSDK/cloud/alicloud/src/protocol/alcs\alcs_mqtt.c ****         status = ALCS_MQTT_STATUS_ERROR;
 615:C:/Users/stapi/OneDrive/Desktop/GD32VW553/V1_MQTT_OK/GD32VW55X_Wifi_BLE_SDK/GD32VW55x_RELEASE_V1.0.2/MSDK/cloud/alicloud/src/protocol/alcs\alcs_mqtt.c ****     }
 616:C:/Users/stapi/OneDrive/Desktop/GD32VW553/V1_MQTT_OK/GD32VW55X_Wifi_BLE_SDK/GD32VW55x_RELEASE_V1.0.2/MSDK/cloud/alicloud/src/protocol/alcs\alcs_mqtt.c **** 
 617:C:/Users/stapi/OneDrive/Desktop/GD32VW553/V1_MQTT_OK/GD32VW55X_Wifi_BLE_SDK/GD32VW55x_RELEASE_V1.0.2/MSDK/cloud/alicloud/src/protocol/alcs\alcs_mqtt.c ****     memset(topic, 0, ALCS_MQTT_TOPIC_MAX_LEN);
 618:C:/Users/stapi/OneDrive/Desktop/GD32VW553/V1_MQTT_OK/GD32VW55X_Wifi_BLE_SDK/GD32VW55x_RELEASE_V1.0.2/MSDK/cloud/alicloud/src/protocol/alcs\alcs_mqtt.c ****     snprintf(topic, ALCS_MQTT_TOPIC_MAX_LEN, ALCS_MQTT_PREFIX ALCS_MQTT_THING_LAN_PREFIX_UPDATE_FMT
 619:C:/Users/stapi/OneDrive/Desktop/GD32VW553/V1_MQTT_OK/GD32VW55X_Wifi_BLE_SDK/GD32VW55x_RELEASE_V1.0.2/MSDK/cloud/alicloud/src/protocol/alcs\alcs_mqtt.c ****              ctx->product_key, ctx->device_name);
 620:C:/Users/stapi/OneDrive/Desktop/GD32VW553/V1_MQTT_OK/GD32VW55X_Wifi_BLE_SDK/GD32VW55x_RELEASE_V1.0.2/MSDK/cloud/alicloud/src/protocol/alcs\alcs_mqtt.c ****     if (__alcs_mqtt_subscribe((void *)ctx, topic) != ALCS_MQTT_STATUS_SUCCESS) {
 621:C:/Users/stapi/OneDrive/Desktop/GD32VW553/V1_MQTT_OK/GD32VW55X_Wifi_BLE_SDK/GD32VW55x_RELEASE_V1.0.2/MSDK/cloud/alicloud/src/protocol/alcs\alcs_mqtt.c ****         COAP_ERR("ALCS Subscribe Failed, Topic: %s", topic);
 622:C:/Users/stapi/OneDrive/Desktop/GD32VW553/V1_MQTT_OK/GD32VW55X_Wifi_BLE_SDK/GD32VW55x_RELEASE_V1.0.2/MSDK/cloud/alicloud/src/protocol/alcs\alcs_mqtt.c ****         status = ALCS_MQTT_STATUS_ERROR;
 623:C:/Users/stapi/OneDrive/Desktop/GD32VW553/V1_MQTT_OK/GD32VW55X_Wifi_BLE_SDK/GD32VW55x_RELEASE_V1.0.2/MSDK/cloud/alicloud/src/protocol/alcs\alcs_mqtt.c ****     }
 624:C:/Users/stapi/OneDrive/Desktop/GD32VW553/V1_MQTT_OK/GD32VW55X_Wifi_BLE_SDK/GD32VW55x_RELEASE_V1.0.2/MSDK/cloud/alicloud/src/protocol/alcs\alcs_mqtt.c **** 
 625:C:/Users/stapi/OneDrive/Desktop/GD32VW553/V1_MQTT_OK/GD32VW55X_Wifi_BLE_SDK/GD32VW55x_RELEASE_V1.0.2/MSDK/cloud/alicloud/src/protocol/alcs\alcs_mqtt.c ****     memset(topic, 0, ALCS_MQTT_TOPIC_MAX_LEN);
 626:C:/Users/stapi/OneDrive/Desktop/GD32VW553/V1_MQTT_OK/GD32VW55X_Wifi_BLE_SDK/GD32VW55x_RELEASE_V1.0.2/MSDK/cloud/alicloud/src/protocol/alcs\alcs_mqtt.c ****     snprintf(topic, ALCS_MQTT_TOPIC_MAX_LEN, ALCS_MQTT_PREFIX ALCS_MQTT_THING_LAN_PREFIX_BLACKLIST_
 627:C:/Users/stapi/OneDrive/Desktop/GD32VW553/V1_MQTT_OK/GD32VW55X_Wifi_BLE_SDK/GD32VW55x_RELEASE_V1.0.2/MSDK/cloud/alicloud/src/protocol/alcs\alcs_mqtt.c ****              ctx->product_key, ctx->device_name);
 628:C:/Users/stapi/OneDrive/Desktop/GD32VW553/V1_MQTT_OK/GD32VW55X_Wifi_BLE_SDK/GD32VW55x_RELEASE_V1.0.2/MSDK/cloud/alicloud/src/protocol/alcs\alcs_mqtt.c ****     if (__alcs_mqtt_subscribe((void *)ctx, topic) != ALCS_MQTT_STATUS_SUCCESS) {
 629:C:/Users/stapi/OneDrive/Desktop/GD32VW553/V1_MQTT_OK/GD32VW55X_Wifi_BLE_SDK/GD32VW55x_RELEASE_V1.0.2/MSDK/cloud/alicloud/src/protocol/alcs\alcs_mqtt.c ****         COAP_ERR("ALCS Subscribe Failed, Topic: %s", topic);
 630:C:/Users/stapi/OneDrive/Desktop/GD32VW553/V1_MQTT_OK/GD32VW55X_Wifi_BLE_SDK/GD32VW55x_RELEASE_V1.0.2/MSDK/cloud/alicloud/src/protocol/alcs\alcs_mqtt.c ****         status = ALCS_MQTT_STATUS_ERROR;
 631:C:/Users/stapi/OneDrive/Desktop/GD32VW553/V1_MQTT_OK/GD32VW55X_Wifi_BLE_SDK/GD32VW55x_RELEASE_V1.0.2/MSDK/cloud/alicloud/src/protocol/alcs\alcs_mqtt.c ****     }
 632:C:/Users/stapi/OneDrive/Desktop/GD32VW553/V1_MQTT_OK/GD32VW55X_Wifi_BLE_SDK/GD32VW55x_RELEASE_V1.0.2/MSDK/cloud/alicloud/src/protocol/alcs\alcs_mqtt.c **** 
 633:C:/Users/stapi/OneDrive/Desktop/GD32VW553/V1_MQTT_OK/GD32VW55X_Wifi_BLE_SDK/GD32VW55x_RELEASE_V1.0.2/MSDK/cloud/alicloud/src/protocol/alcs\alcs_mqtt.c ****     alcs_mqtt_prefixkey_update((void *)ctx->coap_ctx);
 634:C:/Users/stapi/OneDrive/Desktop/GD32VW553/V1_MQTT_OK/GD32VW55X_Wifi_BLE_SDK/GD32VW55x_RELEASE_V1.0.2/MSDK/cloud/alicloud/src/protocol/alcs\alcs_mqtt.c ****     alcs_mqtt_blacklist_update((void *)ctx->coap_ctx);
 635:C:/Users/stapi/OneDrive/Desktop/GD32VW553/V1_MQTT_OK/GD32VW55X_Wifi_BLE_SDK/GD32VW55x_RELEASE_V1.0.2/MSDK/cloud/alicloud/src/protocol/alcs\alcs_mqtt.c **** 
 636:C:/Users/stapi/OneDrive/Desktop/GD32VW553/V1_MQTT_OK/GD32VW55X_Wifi_BLE_SDK/GD32VW55x_RELEASE_V1.0.2/MSDK/cloud/alicloud/src/protocol/alcs\alcs_mqtt.c **** #ifdef ALCS_GROUP_COMM_ENABLE
 637:C:/Users/stapi/OneDrive/Desktop/GD32VW553/V1_MQTT_OK/GD32VW55X_Wifi_BLE_SDK/GD32VW55x_RELEASE_V1.0.2/MSDK/cloud/alicloud/src/protocol/alcs\alcs_mqtt.c ****     __alcs_update_group_info(ctx->coap_ctx);
 638:C:/Users/stapi/OneDrive/Desktop/GD32VW553/V1_MQTT_OK/GD32VW55X_Wifi_BLE_SDK/GD32VW55x_RELEASE_V1.0.2/MSDK/cloud/alicloud/src/protocol/alcs\alcs_mqtt.c **** #endif
 639:C:/Users/stapi/OneDrive/Desktop/GD32VW553/V1_MQTT_OK/GD32VW55X_Wifi_BLE_SDK/GD32VW55x_RELEASE_V1.0.2/MSDK/cloud/alicloud/src/protocol/alcs\alcs_mqtt.c ****     alcs_prefixkey_get(ctx->product_key, ctx->device_name);
 640:C:/Users/stapi/OneDrive/Desktop/GD32VW553/V1_MQTT_OK/GD32VW55X_Wifi_BLE_SDK/GD32VW55x_RELEASE_V1.0.2/MSDK/cloud/alicloud/src/protocol/alcs\alcs_mqtt.c **** 
 641:C:/Users/stapi/OneDrive/Desktop/GD32VW553/V1_MQTT_OK/GD32VW55X_Wifi_BLE_SDK/GD32VW55x_RELEASE_V1.0.2/MSDK/cloud/alicloud/src/protocol/alcs\alcs_mqtt.c ****     return status;
 642:C:/Users/stapi/OneDrive/Desktop/GD32VW553/V1_MQTT_OK/GD32VW55X_Wifi_BLE_SDK/GD32VW55x_RELEASE_V1.0.2/MSDK/cloud/alicloud/src/protocol/alcs\alcs_mqtt.c **** }
 643:C:/Users/stapi/OneDrive/Desktop/GD32VW553/V1_MQTT_OK/GD32VW55X_Wifi_BLE_SDK/GD32VW55x_RELEASE_V1.0.2/MSDK/cloud/alicloud/src/protocol/alcs\alcs_mqtt.c **** 
 644:C:/Users/stapi/OneDrive/Desktop/GD32VW553/V1_MQTT_OK/GD32VW55X_Wifi_BLE_SDK/GD32VW55x_RELEASE_V1.0.2/MSDK/cloud/alicloud/src/protocol/alcs\alcs_mqtt.c **** 
 645:C:/Users/stapi/OneDrive/Desktop/GD32VW553/V1_MQTT_OK/GD32VW55X_Wifi_BLE_SDK/GD32VW55x_RELEASE_V1.0.2/MSDK/cloud/alicloud/src/protocol/alcs\alcs_mqtt.c **** alcs_mqtt_status_e alcs_mqtt_deinit(void *handle, char *product_key, char *device_name)
 646:C:/Users/stapi/OneDrive/Desktop/GD32VW553/V1_MQTT_OK/GD32VW55X_Wifi_BLE_SDK/GD32VW55x_RELEASE_V1.0.2/MSDK/cloud/alicloud/src/protocol/alcs\alcs_mqtt.c **** {
 2070              		.loc 1 646 1 is_stmt 1
 2071              		.cfi_startproc
 2072              	.LVL240:
 647:C:/Users/stapi/OneDrive/Desktop/GD32VW553/V1_MQTT_OK/GD32VW55X_Wifi_BLE_SDK/GD32VW55x_RELEASE_V1.0.2/MSDK/cloud/alicloud/src/protocol/alcs\alcs_mqtt.c **** #if 0
 648:C:/Users/stapi/OneDrive/Desktop/GD32VW553/V1_MQTT_OK/GD32VW55X_Wifi_BLE_SDK/GD32VW55x_RELEASE_V1.0.2/MSDK/cloud/alicloud/src/protocol/alcs\alcs_mqtt.c ****     char topic[ALCS_MQTT_TOPIC_MAX_LEN] = {0};
 649:C:/Users/stapi/OneDrive/Desktop/GD32VW553/V1_MQTT_OK/GD32VW55X_Wifi_BLE_SDK/GD32VW55x_RELEASE_V1.0.2/MSDK/cloud/alicloud/src/protocol/alcs\alcs_mqtt.c ****     alcs_mqtt_status_e status = ALCS_MQTT_STATUS_SUCCESS;
 650:C:/Users/stapi/OneDrive/Desktop/GD32VW553/V1_MQTT_OK/GD32VW55X_Wifi_BLE_SDK/GD32VW55x_RELEASE_V1.0.2/MSDK/cloud/alicloud/src/protocol/alcs\alcs_mqtt.c ****     alcs_mqtt_ctx_t *ctx =  __alcs_mqtt_get_ctx();
 651:C:/Users/stapi/OneDrive/Desktop/GD32VW553/V1_MQTT_OK/GD32VW55X_Wifi_BLE_SDK/GD32VW55x_RELEASE_V1.0.2/MSDK/cloud/alicloud/src/protocol/alcs\alcs_mqtt.c **** 
 652:C:/Users/stapi/OneDrive/Desktop/GD32VW553/V1_MQTT_OK/GD32VW55X_Wifi_BLE_SDK/GD32VW55x_RELEASE_V1.0.2/MSDK/cloud/alicloud/src/protocol/alcs\alcs_mqtt.c ****     ARGUMENT_SANITY_CHECK(product_key && strlen(product_key), FAIL_RETURN);
 653:C:/Users/stapi/OneDrive/Desktop/GD32VW553/V1_MQTT_OK/GD32VW55X_Wifi_BLE_SDK/GD32VW55x_RELEASE_V1.0.2/MSDK/cloud/alicloud/src/protocol/alcs\alcs_mqtt.c ****     ARGUMENT_SANITY_CHECK(device_name && strlen(device_name), FAIL_RETURN);
 654:C:/Users/stapi/OneDrive/Desktop/GD32VW553/V1_MQTT_OK/GD32VW55X_Wifi_BLE_SDK/GD32VW55x_RELEASE_V1.0.2/MSDK/cloud/alicloud/src/protocol/alcs\alcs_mqtt.c **** 
 655:C:/Users/stapi/OneDrive/Desktop/GD32VW553/V1_MQTT_OK/GD32VW55X_Wifi_BLE_SDK/GD32VW55x_RELEASE_V1.0.2/MSDK/cloud/alicloud/src/protocol/alcs\alcs_mqtt.c ****     if (handle == NULL || product_key == NULL || strlen(product_key) > PRODUCT_KEY_LEN ||
 656:C:/Users/stapi/OneDrive/Desktop/GD32VW553/V1_MQTT_OK/GD32VW55X_Wifi_BLE_SDK/GD32VW55x_RELEASE_V1.0.2/MSDK/cloud/alicloud/src/protocol/alcs\alcs_mqtt.c ****         device_name == NULL || strlen(device_name) > DEVICE_NAME_LEN || ctx == NULL) {
 657:C:/Users/stapi/OneDrive/Desktop/GD32VW553/V1_MQTT_OK/GD32VW55X_Wifi_BLE_SDK/GD32VW55x_RELEASE_V1.0.2/MSDK/cloud/alicloud/src/protocol/alcs\alcs_mqtt.c ****         return ALCS_MQTT_STATUS_ERROR;
 658:C:/Users/stapi/OneDrive/Desktop/GD32VW553/V1_MQTT_OK/GD32VW55X_Wifi_BLE_SDK/GD32VW55x_RELEASE_V1.0.2/MSDK/cloud/alicloud/src/protocol/alcs\alcs_mqtt.c ****     }
 659:C:/Users/stapi/OneDrive/Desktop/GD32VW553/V1_MQTT_OK/GD32VW55X_Wifi_BLE_SDK/GD32VW55x_RELEASE_V1.0.2/MSDK/cloud/alicloud/src/protocol/alcs\alcs_mqtt.c **** 
 660:C:/Users/stapi/OneDrive/Desktop/GD32VW553/V1_MQTT_OK/GD32VW55X_Wifi_BLE_SDK/GD32VW55x_RELEASE_V1.0.2/MSDK/cloud/alicloud/src/protocol/alcs\alcs_mqtt.c ****     memset(topic, 0, ALCS_MQTT_TOPIC_MAX_LEN);
 661:C:/Users/stapi/OneDrive/Desktop/GD32VW553/V1_MQTT_OK/GD32VW55X_Wifi_BLE_SDK/GD32VW55x_RELEASE_V1.0.2/MSDK/cloud/alicloud/src/protocol/alcs\alcs_mqtt.c ****     snprintf(topic, ALCS_MQTT_TOPIC_MAX_LEN, ALCS_MQTT_PREFIX ALCS_MQTT_THING_LAN_PREFIX_GET_REPLY_
 662:C:/Users/stapi/OneDrive/Desktop/GD32VW553/V1_MQTT_OK/GD32VW55X_Wifi_BLE_SDK/GD32VW55x_RELEASE_V1.0.2/MSDK/cloud/alicloud/src/protocol/alcs\alcs_mqtt.c ****              ctx->product_key, ctx->device_name);
 663:C:/Users/stapi/OneDrive/Desktop/GD32VW553/V1_MQTT_OK/GD32VW55X_Wifi_BLE_SDK/GD32VW55x_RELEASE_V1.0.2/MSDK/cloud/alicloud/src/protocol/alcs\alcs_mqtt.c ****     if (__alcs_mqtt_unsubscribe((void *)ctx, topic) != ALCS_MQTT_STATUS_SUCCESS) {
 664:C:/Users/stapi/OneDrive/Desktop/GD32VW553/V1_MQTT_OK/GD32VW55X_Wifi_BLE_SDK/GD32VW55x_RELEASE_V1.0.2/MSDK/cloud/alicloud/src/protocol/alcs\alcs_mqtt.c ****         COAP_ERR("ALCS Subscribe Failed, Topic: %s", topic);
 665:C:/Users/stapi/OneDrive/Desktop/GD32VW553/V1_MQTT_OK/GD32VW55X_Wifi_BLE_SDK/GD32VW55x_RELEASE_V1.0.2/MSDK/cloud/alicloud/src/protocol/alcs\alcs_mqtt.c ****         status = ALCS_MQTT_STATUS_ERROR;
 666:C:/Users/stapi/OneDrive/Desktop/GD32VW553/V1_MQTT_OK/GD32VW55X_Wifi_BLE_SDK/GD32VW55x_RELEASE_V1.0.2/MSDK/cloud/alicloud/src/protocol/alcs\alcs_mqtt.c ****     }
 667:C:/Users/stapi/OneDrive/Desktop/GD32VW553/V1_MQTT_OK/GD32VW55X_Wifi_BLE_SDK/GD32VW55x_RELEASE_V1.0.2/MSDK/cloud/alicloud/src/protocol/alcs\alcs_mqtt.c **** 
 668:C:/Users/stapi/OneDrive/Desktop/GD32VW553/V1_MQTT_OK/GD32VW55X_Wifi_BLE_SDK/GD32VW55x_RELEASE_V1.0.2/MSDK/cloud/alicloud/src/protocol/alcs\alcs_mqtt.c ****     memset(topic, 0, ALCS_MQTT_TOPIC_MAX_LEN);
 669:C:/Users/stapi/OneDrive/Desktop/GD32VW553/V1_MQTT_OK/GD32VW55X_Wifi_BLE_SDK/GD32VW55x_RELEASE_V1.0.2/MSDK/cloud/alicloud/src/protocol/alcs\alcs_mqtt.c ****     snprintf(topic, ALCS_MQTT_TOPIC_MAX_LEN, ALCS_MQTT_PREFIX ALCS_MQTT_THING_LAN_PREFIX_UPDATE_FMT
 670:C:/Users/stapi/OneDrive/Desktop/GD32VW553/V1_MQTT_OK/GD32VW55X_Wifi_BLE_SDK/GD32VW55x_RELEASE_V1.0.2/MSDK/cloud/alicloud/src/protocol/alcs\alcs_mqtt.c ****              ctx->product_key, ctx->device_name);
 671:C:/Users/stapi/OneDrive/Desktop/GD32VW553/V1_MQTT_OK/GD32VW55X_Wifi_BLE_SDK/GD32VW55x_RELEASE_V1.0.2/MSDK/cloud/alicloud/src/protocol/alcs\alcs_mqtt.c ****     if (__alcs_mqtt_unsubscribe((void *)ctx, topic) != ALCS_MQTT_STATUS_SUCCESS) {
 672:C:/Users/stapi/OneDrive/Desktop/GD32VW553/V1_MQTT_OK/GD32VW55X_Wifi_BLE_SDK/GD32VW55x_RELEASE_V1.0.2/MSDK/cloud/alicloud/src/protocol/alcs\alcs_mqtt.c ****         COAP_ERR("ALCS Subscribe Failed, Topic: %s", topic);
 673:C:/Users/stapi/OneDrive/Desktop/GD32VW553/V1_MQTT_OK/GD32VW55X_Wifi_BLE_SDK/GD32VW55x_RELEASE_V1.0.2/MSDK/cloud/alicloud/src/protocol/alcs\alcs_mqtt.c ****         status = ALCS_MQTT_STATUS_ERROR;
 674:C:/Users/stapi/OneDrive/Desktop/GD32VW553/V1_MQTT_OK/GD32VW55X_Wifi_BLE_SDK/GD32VW55x_RELEASE_V1.0.2/MSDK/cloud/alicloud/src/protocol/alcs\alcs_mqtt.c ****     }
 675:C:/Users/stapi/OneDrive/Desktop/GD32VW553/V1_MQTT_OK/GD32VW55X_Wifi_BLE_SDK/GD32VW55x_RELEASE_V1.0.2/MSDK/cloud/alicloud/src/protocol/alcs\alcs_mqtt.c **** 
 676:C:/Users/stapi/OneDrive/Desktop/GD32VW553/V1_MQTT_OK/GD32VW55X_Wifi_BLE_SDK/GD32VW55x_RELEASE_V1.0.2/MSDK/cloud/alicloud/src/protocol/alcs\alcs_mqtt.c ****     memset(topic, 0, ALCS_MQTT_TOPIC_MAX_LEN);
 677:C:/Users/stapi/OneDrive/Desktop/GD32VW553/V1_MQTT_OK/GD32VW55X_Wifi_BLE_SDK/GD32VW55x_RELEASE_V1.0.2/MSDK/cloud/alicloud/src/protocol/alcs\alcs_mqtt.c ****     snprintf(topic, ALCS_MQTT_TOPIC_MAX_LEN, ALCS_MQTT_PREFIX ALCS_MQTT_THING_LAN_PREFIX_BLACKLIST_
 678:C:/Users/stapi/OneDrive/Desktop/GD32VW553/V1_MQTT_OK/GD32VW55X_Wifi_BLE_SDK/GD32VW55x_RELEASE_V1.0.2/MSDK/cloud/alicloud/src/protocol/alcs\alcs_mqtt.c ****              ctx->product_key, ctx->device_name);
 679:C:/Users/stapi/OneDrive/Desktop/GD32VW553/V1_MQTT_OK/GD32VW55X_Wifi_BLE_SDK/GD32VW55x_RELEASE_V1.0.2/MSDK/cloud/alicloud/src/protocol/alcs\alcs_mqtt.c ****     if (__alcs_mqtt_unsubscribe((void *)ctx, topic) != ALCS_MQTT_STATUS_SUCCESS) {
 680:C:/Users/stapi/OneDrive/Desktop/GD32VW553/V1_MQTT_OK/GD32VW55X_Wifi_BLE_SDK/GD32VW55x_RELEASE_V1.0.2/MSDK/cloud/alicloud/src/protocol/alcs\alcs_mqtt.c ****         COAP_ERR("ALCS Subscribe Failed, Topic: %s", topic);
 681:C:/Users/stapi/OneDrive/Desktop/GD32VW553/V1_MQTT_OK/GD32VW55X_Wifi_BLE_SDK/GD32VW55x_RELEASE_V1.0.2/MSDK/cloud/alicloud/src/protocol/alcs\alcs_mqtt.c ****         status = ALCS_MQTT_STATUS_ERROR;
 682:C:/Users/stapi/OneDrive/Desktop/GD32VW553/V1_MQTT_OK/GD32VW55X_Wifi_BLE_SDK/GD32VW55x_RELEASE_V1.0.2/MSDK/cloud/alicloud/src/protocol/alcs\alcs_mqtt.c ****     }
 683:C:/Users/stapi/OneDrive/Desktop/GD32VW553/V1_MQTT_OK/GD32VW55X_Wifi_BLE_SDK/GD32VW55x_RELEASE_V1.0.2/MSDK/cloud/alicloud/src/protocol/alcs\alcs_mqtt.c **** 
 684:C:/Users/stapi/OneDrive/Desktop/GD32VW553/V1_MQTT_OK/GD32VW55X_Wifi_BLE_SDK/GD32VW55x_RELEASE_V1.0.2/MSDK/cloud/alicloud/src/protocol/alcs\alcs_mqtt.c ****     return status;
 685:C:/Users/stapi/OneDrive/Desktop/GD32VW553/V1_MQTT_OK/GD32VW55X_Wifi_BLE_SDK/GD32VW55x_RELEASE_V1.0.2/MSDK/cloud/alicloud/src/protocol/alcs\alcs_mqtt.c **** #endif
 686:C:/Users/stapi/OneDrive/Desktop/GD32VW553/V1_MQTT_OK/GD32VW55X_Wifi_BLE_SDK/GD32VW55x_RELEASE_V1.0.2/MSDK/cloud/alicloud/src/protocol/alcs\alcs_mqtt.c ****     return ALCS_MQTT_STATUS_SUCCESS;
 2073              		.loc 1 686 5
 687:C:/Users/stapi/OneDrive/Desktop/GD32VW553/V1_MQTT_OK/GD32VW55X_Wifi_BLE_SDK/GD32VW55x_RELEASE_V1.0.2/MSDK/cloud/alicloud/src/protocol/alcs\alcs_mqtt.c **** }
 2074              		.loc 1 687 1 is_stmt 0
 2075 0000 0145     		li	a0,0
 2076              	.LVL241:
 2077 0002 8280     		ret
 2078              		.cfi_endproc
 2079              	.LFE33:
 2081              		.section	.text.alcs_mqtt_add_srv_key,"ax",@progbits
 2082              		.align	1
 2083              		.globl	alcs_mqtt_add_srv_key
 2085              	alcs_mqtt_add_srv_key:
 2086              	.LFB34:
 688:C:/Users/stapi/OneDrive/Desktop/GD32VW553/V1_MQTT_OK/GD32VW55X_Wifi_BLE_SDK/GD32VW55x_RELEASE_V1.0.2/MSDK/cloud/alicloud/src/protocol/alcs\alcs_mqtt.c **** 
 689:C:/Users/stapi/OneDrive/Desktop/GD32VW553/V1_MQTT_OK/GD32VW55X_Wifi_BLE_SDK/GD32VW55x_RELEASE_V1.0.2/MSDK/cloud/alicloud/src/protocol/alcs\alcs_mqtt.c **** void alcs_mqtt_add_srv_key(const char *prefix, const char *secret)
 690:C:/Users/stapi/OneDrive/Desktop/GD32VW553/V1_MQTT_OK/GD32VW55X_Wifi_BLE_SDK/GD32VW55x_RELEASE_V1.0.2/MSDK/cloud/alicloud/src/protocol/alcs\alcs_mqtt.c **** {
 2087              		.loc 1 690 1 is_stmt 1
 2088              		.cfi_startproc
 2089              	.LVL242:
 691:C:/Users/stapi/OneDrive/Desktop/GD32VW553/V1_MQTT_OK/GD32VW55X_Wifi_BLE_SDK/GD32VW55x_RELEASE_V1.0.2/MSDK/cloud/alicloud/src/protocol/alcs\alcs_mqtt.c ****     alcs_mqtt_ctx_t *alcs_mqtt_ctx = __alcs_mqtt_get_ctx();
 2090              		.loc 1 691 5
  26:C:/Users/stapi/OneDrive/Desktop/GD32VW553/V1_MQTT_OK/GD32VW55X_Wifi_BLE_SDK/GD32VW55x_RELEASE_V1.0.2/MSDK/cloud/alicloud/src/protocol/alcs\alcs_mqtt.c **** }
 2091              		.loc 1 26 5
 692:C:/Users/stapi/OneDrive/Desktop/GD32VW553/V1_MQTT_OK/GD32VW55X_Wifi_BLE_SDK/GD32VW55x_RELEASE_V1.0.2/MSDK/cloud/alicloud/src/protocol/alcs\alcs_mqtt.c ****     alcs_add_svr_key(alcs_mqtt_ctx->coap_ctx, prefix, secret, FROMCLOUDSVR);
 2092              		.loc 1 692 5
 2093 0000 B7070000 		lui	a5,%hi(.LANCHOR0)
 690:C:/Users/stapi/OneDrive/Desktop/GD32VW553/V1_MQTT_OK/GD32VW55X_Wifi_BLE_SDK/GD32VW55x_RELEASE_V1.0.2/MSDK/cloud/alicloud/src/protocol/alcs\alcs_mqtt.c ****     alcs_mqtt_ctx_t *alcs_mqtt_ctx = __alcs_mqtt_get_ctx();
 2094              		.loc 1 690 1 is_stmt 0
 2095 0004 2E86     		mv	a2,a1
 2096              		.loc 1 692 5
 2097 0006 AA85     		mv	a1,a0
 2098              	.LVL243:
 2099 0008 03A50700 		lw	a0,%lo(.LANCHOR0)(a5)
 2100              	.LVL244:
 2101 000c 8946     		li	a3,2
 2102 000e 17030000 		tail	alcs_add_svr_key
 2102      67000300 
 2103              	.LVL245:
 2104              		.cfi_endproc
 2105              	.LFE34:
 2107              		.section	.text.alcs_mqtt_remove_srv_key,"ax",@progbits
 2108              		.align	1
 2109              		.globl	alcs_mqtt_remove_srv_key
 2111              	alcs_mqtt_remove_srv_key:
 2112              	.LFB35:
 693:C:/Users/stapi/OneDrive/Desktop/GD32VW553/V1_MQTT_OK/GD32VW55X_Wifi_BLE_SDK/GD32VW55x_RELEASE_V1.0.2/MSDK/cloud/alicloud/src/protocol/alcs\alcs_mqtt.c **** }
 694:C:/Users/stapi/OneDrive/Desktop/GD32VW553/V1_MQTT_OK/GD32VW55X_Wifi_BLE_SDK/GD32VW55x_RELEASE_V1.0.2/MSDK/cloud/alicloud/src/protocol/alcs\alcs_mqtt.c **** void alcs_mqtt_remove_srv_key(const char *prefix)
 695:C:/Users/stapi/OneDrive/Desktop/GD32VW553/V1_MQTT_OK/GD32VW55X_Wifi_BLE_SDK/GD32VW55x_RELEASE_V1.0.2/MSDK/cloud/alicloud/src/protocol/alcs\alcs_mqtt.c **** {
 2113              		.loc 1 695 1 is_stmt 1
 2114              		.cfi_startproc
 2115              	.LVL246:
 696:C:/Users/stapi/OneDrive/Desktop/GD32VW553/V1_MQTT_OK/GD32VW55X_Wifi_BLE_SDK/GD32VW55x_RELEASE_V1.0.2/MSDK/cloud/alicloud/src/protocol/alcs\alcs_mqtt.c ****     alcs_mqtt_ctx_t *alcs_mqtt_ctx = __alcs_mqtt_get_ctx();
 2116              		.loc 1 696 5
  26:C:/Users/stapi/OneDrive/Desktop/GD32VW553/V1_MQTT_OK/GD32VW55X_Wifi_BLE_SDK/GD32VW55x_RELEASE_V1.0.2/MSDK/cloud/alicloud/src/protocol/alcs\alcs_mqtt.c **** }
 2117              		.loc 1 26 5
 697:C:/Users/stapi/OneDrive/Desktop/GD32VW553/V1_MQTT_OK/GD32VW55X_Wifi_BLE_SDK/GD32VW55x_RELEASE_V1.0.2/MSDK/cloud/alicloud/src/protocol/alcs\alcs_mqtt.c ****     alcs_remove_svr_key(alcs_mqtt_ctx->coap_ctx, prefix);
 2118              		.loc 1 697 5
 2119 0000 B7070000 		lui	a5,%hi(.LANCHOR0)
 695:C:/Users/stapi/OneDrive/Desktop/GD32VW553/V1_MQTT_OK/GD32VW55X_Wifi_BLE_SDK/GD32VW55x_RELEASE_V1.0.2/MSDK/cloud/alicloud/src/protocol/alcs\alcs_mqtt.c ****     alcs_mqtt_ctx_t *alcs_mqtt_ctx = __alcs_mqtt_get_ctx();
 2120              		.loc 1 695 1 is_stmt 0
 2121 0004 AA85     		mv	a1,a0
 2122              		.loc 1 697 5
 2123 0006 03A50700 		lw	a0,%lo(.LANCHOR0)(a5)
 2124              	.LVL247:
 2125 000a 17030000 		tail	alcs_remove_svr_key
 2125      67000300 
 2126              	.LVL248:
 2127              		.cfi_endproc
 2128              	.LFE35:
 2130              		.section	.rodata.alcs_mqtt_blacklist_update.str1.4,"aMS",@progbits,1
 2131              		.align	2
 2132              	.LC34:
 2133 0000 54686520 		.string	"The blacklist is %.*s"
 2133      626C6163 
 2133      6B6C6973 
 2133      74206973 
 2133      20252E2A 
 2134              		.section	.text.alcs_mqtt_blacklist_update,"ax",@progbits
 2135              		.align	1
 2136              		.globl	alcs_mqtt_blacklist_update
 2138              	alcs_mqtt_blacklist_update:
 2139              	.LFB36:
 698:C:/Users/stapi/OneDrive/Desktop/GD32VW553/V1_MQTT_OK/GD32VW55X_Wifi_BLE_SDK/GD32VW55x_RELEASE_V1.0.2/MSDK/cloud/alicloud/src/protocol/alcs\alcs_mqtt.c **** }
 699:C:/Users/stapi/OneDrive/Desktop/GD32VW553/V1_MQTT_OK/GD32VW55X_Wifi_BLE_SDK/GD32VW55x_RELEASE_V1.0.2/MSDK/cloud/alicloud/src/protocol/alcs\alcs_mqtt.c **** 
 700:C:/Users/stapi/OneDrive/Desktop/GD32VW553/V1_MQTT_OK/GD32VW55X_Wifi_BLE_SDK/GD32VW55x_RELEASE_V1.0.2/MSDK/cloud/alicloud/src/protocol/alcs\alcs_mqtt.c **** alcs_mqtt_status_e alcs_mqtt_blacklist_update(void *ctx)
 701:C:/Users/stapi/OneDrive/Desktop/GD32VW553/V1_MQTT_OK/GD32VW55X_Wifi_BLE_SDK/GD32VW55x_RELEASE_V1.0.2/MSDK/cloud/alicloud/src/protocol/alcs\alcs_mqtt.c **** {
 2140              		.loc 1 701 1 is_stmt 1
 2141              		.cfi_startproc
 2142              	.LVL249:
 2143 0000 17030000 		call	t0,__riscv_save_2
 2143      E7020300 
 2144              		.cfi_offset 9, -12
 2145              		.cfi_offset 8, -8
 2146              		.cfi_offset 1, -4
 2147              		.cfi_def_cfa_offset 16
 702:C:/Users/stapi/OneDrive/Desktop/GD32VW553/V1_MQTT_OK/GD32VW55X_Wifi_BLE_SDK/GD32VW55x_RELEASE_V1.0.2/MSDK/cloud/alicloud/src/protocol/alcs\alcs_mqtt.c ****     CoAPContext *context = (CoAPContext *)ctx;
 2148              		.loc 1 702 5
 701:C:/Users/stapi/OneDrive/Desktop/GD32VW553/V1_MQTT_OK/GD32VW55X_Wifi_BLE_SDK/GD32VW55x_RELEASE_V1.0.2/MSDK/cloud/alicloud/src/protocol/alcs\alcs_mqtt.c ****     CoAPContext *context = (CoAPContext *)ctx;
 2149              		.loc 1 701 1 is_stmt 0
 2150 0008 5971     		addi	sp,sp,-112
 2151              		.cfi_def_cfa_offset 128
 701:C:/Users/stapi/OneDrive/Desktop/GD32VW553/V1_MQTT_OK/GD32VW55X_Wifi_BLE_SDK/GD32VW55x_RELEASE_V1.0.2/MSDK/cloud/alicloud/src/protocol/alcs\alcs_mqtt.c ****     CoAPContext *context = (CoAPContext *)ctx;
 2152              		.loc 1 701 1
 2153 000a AA84     		mv	s1,a0
 2154              	.LVL250:
 703:C:/Users/stapi/OneDrive/Desktop/GD32VW553/V1_MQTT_OK/GD32VW55X_Wifi_BLE_SDK/GD32VW55x_RELEASE_V1.0.2/MSDK/cloud/alicloud/src/protocol/alcs\alcs_mqtt.c ****     char blacklist[ALCS_MQTT_BLACK_MAX_LEN] = {0};
 2155              		.loc 1 703 5 is_stmt 1
 2156              		.loc 1 703 10 is_stmt 0
 2157 000c 13060006 		li	a2,96
 2158 0010 8145     		li	a1,0
 2159 0012 0808     		addi	a0,sp,16
 2160              	.LVL251:
 2161 0014 02C6     		sw	zero,12(sp)
 2162 0016 97000000 		call	memset
 2162      E7800000 
 2163              	.LVL252:
 704:C:/Users/stapi/OneDrive/Desktop/GD32VW553/V1_MQTT_OK/GD32VW55X_Wifi_BLE_SDK/GD32VW55x_RELEASE_V1.0.2/MSDK/cloud/alicloud/src/protocol/alcs\alcs_mqtt.c ****     int blacklist_len = ALCS_MQTT_BLACK_MAX_LEN;
 2164              		.loc 1 704 5 is_stmt 1
 2165              		.loc 1 704 9 is_stmt 0
 2166 001e 93074006 		li	a5,100
 2167 0022 3EC4     		sw	a5,8(sp)
 705:C:/Users/stapi/OneDrive/Desktop/GD32VW553/V1_MQTT_OK/GD32VW55X_Wifi_BLE_SDK/GD32VW55x_RELEASE_V1.0.2/MSDK/cloud/alicloud/src/protocol/alcs\alcs_mqtt.c **** 
 706:C:/Users/stapi/OneDrive/Desktop/GD32VW553/V1_MQTT_OK/GD32VW55X_Wifi_BLE_SDK/GD32VW55x_RELEASE_V1.0.2/MSDK/cloud/alicloud/src/protocol/alcs\alcs_mqtt.c ****     if (NULL == context) {
 2168              		.loc 1 706 5 is_stmt 1
 707:C:/Users/stapi/OneDrive/Desktop/GD32VW553/V1_MQTT_OK/GD32VW55X_Wifi_BLE_SDK/GD32VW55x_RELEASE_V1.0.2/MSDK/cloud/alicloud/src/protocol/alcs\alcs_mqtt.c ****         return -1;
 2169              		.loc 1 707 16 is_stmt 0
 2170 0024 7D54     		li	s0,-1
 706:C:/Users/stapi/OneDrive/Desktop/GD32VW553/V1_MQTT_OK/GD32VW55X_Wifi_BLE_SDK/GD32VW55x_RELEASE_V1.0.2/MSDK/cloud/alicloud/src/protocol/alcs\alcs_mqtt.c ****         return -1;
 2171              		.loc 1 706 8
 2172 0026 91CC     		beq	s1,zero,.L180
 708:C:/Users/stapi/OneDrive/Desktop/GD32VW553/V1_MQTT_OK/GD32VW55X_Wifi_BLE_SDK/GD32VW55x_RELEASE_V1.0.2/MSDK/cloud/alicloud/src/protocol/alcs\alcs_mqtt.c ****     }
 709:C:/Users/stapi/OneDrive/Desktop/GD32VW553/V1_MQTT_OK/GD32VW55X_Wifi_BLE_SDK/GD32VW55x_RELEASE_V1.0.2/MSDK/cloud/alicloud/src/protocol/alcs\alcs_mqtt.c **** 
 710:C:/Users/stapi/OneDrive/Desktop/GD32VW553/V1_MQTT_OK/GD32VW55X_Wifi_BLE_SDK/GD32VW55x_RELEASE_V1.0.2/MSDK/cloud/alicloud/src/protocol/alcs\alcs_mqtt.c ****     if (ALCS_MQTT_STATUS_SUCCESS == __alcs_mqtt_kv_get(ALCS_MQTT_JSON_KEY_BLACK, blacklist, &blackl
 2173              		.loc 1 710 5 is_stmt 1
 2174              		.loc 1 710 37 is_stmt 0
 2175 0028 37050000 		lui	a0,%hi(.LC31)
 2176 002c 3000     		addi	a2,sp,8
 2177 002e 6C00     		addi	a1,sp,12
 2178 0030 13050500 		addi	a0,a0,%lo(.LC31)
 2179 0034 97000000 		call	__alcs_mqtt_kv_get
 2179      E7800000 
 2180              	.LVL253:
 2181 003c 2A84     		mv	s0,a0
 2182              		.loc 1 710 8
 2183 003e 01C9     		beq	a0,zero,.L182
 2184              	.L183:
 711:C:/Users/stapi/OneDrive/Desktop/GD32VW553/V1_MQTT_OK/GD32VW55X_Wifi_BLE_SDK/GD32VW55x_RELEASE_V1.0.2/MSDK/cloud/alicloud/src/protocol/alcs\alcs_mqtt.c ****         COAP_INFO("The blacklist is %.*s", blacklist_len, blacklist);
 712:C:/Users/stapi/OneDrive/Desktop/GD32VW553/V1_MQTT_OK/GD32VW55X_Wifi_BLE_SDK/GD32VW55x_RELEASE_V1.0.2/MSDK/cloud/alicloud/src/protocol/alcs\alcs_mqtt.c ****         if (blacklist_len) {
 713:C:/Users/stapi/OneDrive/Desktop/GD32VW553/V1_MQTT_OK/GD32VW55X_Wifi_BLE_SDK/GD32VW55x_RELEASE_V1.0.2/MSDK/cloud/alicloud/src/protocol/alcs\alcs_mqtt.c ****             alcs_set_revocation(context, blacklist);
 714:C:/Users/stapi/OneDrive/Desktop/GD32VW553/V1_MQTT_OK/GD32VW55X_Wifi_BLE_SDK/GD32VW55x_RELEASE_V1.0.2/MSDK/cloud/alicloud/src/protocol/alcs\alcs_mqtt.c ****             return ALCS_MQTT_STATUS_SUCCESS;
 715:C:/Users/stapi/OneDrive/Desktop/GD32VW553/V1_MQTT_OK/GD32VW55X_Wifi_BLE_SDK/GD32VW55x_RELEASE_V1.0.2/MSDK/cloud/alicloud/src/protocol/alcs\alcs_mqtt.c ****         }
 716:C:/Users/stapi/OneDrive/Desktop/GD32VW553/V1_MQTT_OK/GD32VW55X_Wifi_BLE_SDK/GD32VW55x_RELEASE_V1.0.2/MSDK/cloud/alicloud/src/protocol/alcs\alcs_mqtt.c ****     }
 717:C:/Users/stapi/OneDrive/Desktop/GD32VW553/V1_MQTT_OK/GD32VW55X_Wifi_BLE_SDK/GD32VW55x_RELEASE_V1.0.2/MSDK/cloud/alicloud/src/protocol/alcs\alcs_mqtt.c **** 
 718:C:/Users/stapi/OneDrive/Desktop/GD32VW553/V1_MQTT_OK/GD32VW55X_Wifi_BLE_SDK/GD32VW55x_RELEASE_V1.0.2/MSDK/cloud/alicloud/src/protocol/alcs\alcs_mqtt.c ****     return ALCS_MQTT_STATUS_ERROR;
 2185              		.loc 1 718 12
 2186 0040 0544     		li	s0,1
 2187              	.L180:
 719:C:/Users/stapi/OneDrive/Desktop/GD32VW553/V1_MQTT_OK/GD32VW55X_Wifi_BLE_SDK/GD32VW55x_RELEASE_V1.0.2/MSDK/cloud/alicloud/src/protocol/alcs\alcs_mqtt.c **** }
 2188              		.loc 1 719 1
 2189 0042 2285     		mv	a0,s0
 2190 0044 6561     		addi	sp,sp,112
 2191              		.cfi_remember_state
 2192              		.cfi_def_cfa_offset 0
 2193 0046 17030000 		tail	__riscv_restore_2
 2193      67000300 
 2194              		.cfi_restore 9
 2195              		.cfi_restore 8
 2196              		.cfi_restore 1
 2197              		.cfi_def_cfa_offset -16
 2198              	.L182:
 2199              		.cfi_restore_state
 711:C:/Users/stapi/OneDrive/Desktop/GD32VW553/V1_MQTT_OK/GD32VW55X_Wifi_BLE_SDK/GD32VW55x_RELEASE_V1.0.2/MSDK/cloud/alicloud/src/protocol/alcs\alcs_mqtt.c ****         COAP_INFO("The blacklist is %.*s", blacklist_len, blacklist);
 2200              		.loc 1 711 9 is_stmt 1
 711:C:/Users/stapi/OneDrive/Desktop/GD32VW553/V1_MQTT_OK/GD32VW55X_Wifi_BLE_SDK/GD32VW55x_RELEASE_V1.0.2/MSDK/cloud/alicloud/src/protocol/alcs\alcs_mqtt.c ****         COAP_INFO("The blacklist is %.*s", blacklist_len, blacklist);
 2201              		.loc 1 711 9
 2202 004e 37050000 		lui	a0,%hi(.LC0)
 2203 0052 13050500 		addi	a0,a0,%lo(.LC0)
 2204 0056 97000000 		call	HAL_Printf
 2204      E7800000 
 2205              	.LVL254:
 711:C:/Users/stapi/OneDrive/Desktop/GD32VW553/V1_MQTT_OK/GD32VW55X_Wifi_BLE_SDK/GD32VW55x_RELEASE_V1.0.2/MSDK/cloud/alicloud/src/protocol/alcs\alcs_mqtt.c ****         COAP_INFO("The blacklist is %.*s", blacklist_len, blacklist);
 2206              		.loc 1 711 9
 2207 005e A245     		lw	a1,8(sp)
 2208 0060 37050000 		lui	a0,%hi(.LC34)
 2209 0064 7000     		addi	a2,sp,12
 2210 0066 13050500 		addi	a0,a0,%lo(.LC34)
 2211 006a 97000000 		call	HAL_Printf
 2211      E7800000 
 2212              	.LVL255:
 711:C:/Users/stapi/OneDrive/Desktop/GD32VW553/V1_MQTT_OK/GD32VW55X_Wifi_BLE_SDK/GD32VW55x_RELEASE_V1.0.2/MSDK/cloud/alicloud/src/protocol/alcs\alcs_mqtt.c ****         COAP_INFO("The blacklist is %.*s", blacklist_len, blacklist);
 2213              		.loc 1 711 9
 2214 0072 37050000 		lui	a0,%hi(.LC2)
 2215 0076 13050500 		addi	a0,a0,%lo(.LC2)
 2216 007a 97000000 		call	HAL_Printf
 2216      E7800000 
 2217              	.LVL256:
 711:C:/Users/stapi/OneDrive/Desktop/GD32VW553/V1_MQTT_OK/GD32VW55X_Wifi_BLE_SDK/GD32VW55x_RELEASE_V1.0.2/MSDK/cloud/alicloud/src/protocol/alcs\alcs_mqtt.c ****         COAP_INFO("The blacklist is %.*s", blacklist_len, blacklist);
 2218              		.loc 1 711 9
 712:C:/Users/stapi/OneDrive/Desktop/GD32VW553/V1_MQTT_OK/GD32VW55X_Wifi_BLE_SDK/GD32VW55x_RELEASE_V1.0.2/MSDK/cloud/alicloud/src/protocol/alcs\alcs_mqtt.c ****             alcs_set_revocation(context, blacklist);
 2219              		.loc 1 712 9
 712:C:/Users/stapi/OneDrive/Desktop/GD32VW553/V1_MQTT_OK/GD32VW55X_Wifi_BLE_SDK/GD32VW55x_RELEASE_V1.0.2/MSDK/cloud/alicloud/src/protocol/alcs\alcs_mqtt.c ****             alcs_set_revocation(context, blacklist);
 2220              		.loc 1 712 12 is_stmt 0
 2221 0082 A247     		lw	a5,8(sp)
 2222 0084 D5DF     		beq	a5,zero,.L183
 713:C:/Users/stapi/OneDrive/Desktop/GD32VW553/V1_MQTT_OK/GD32VW55X_Wifi_BLE_SDK/GD32VW55x_RELEASE_V1.0.2/MSDK/cloud/alicloud/src/protocol/alcs\alcs_mqtt.c ****             return ALCS_MQTT_STATUS_SUCCESS;
 2223              		.loc 1 713 13 is_stmt 1
 2224 0086 6C00     		addi	a1,sp,12
 2225 0088 2685     		mv	a0,s1
 2226 008a 97000000 		call	alcs_set_revocation
 2226      E7800000 
 2227              	.LVL257:
 714:C:/Users/stapi/OneDrive/Desktop/GD32VW553/V1_MQTT_OK/GD32VW55X_Wifi_BLE_SDK/GD32VW55x_RELEASE_V1.0.2/MSDK/cloud/alicloud/src/protocol/alcs\alcs_mqtt.c ****         }
 2228              		.loc 1 714 13
 714:C:/Users/stapi/OneDrive/Desktop/GD32VW553/V1_MQTT_OK/GD32VW55X_Wifi_BLE_SDK/GD32VW55x_RELEASE_V1.0.2/MSDK/cloud/alicloud/src/protocol/alcs\alcs_mqtt.c ****         }
 2229              		.loc 1 714 20 is_stmt 0
 2230 0092 45BF     		j	.L180
 2231              		.cfi_endproc
 2232              	.LFE36:
 2234              		.section	.rodata.alcs_mqtt_prefixkey_update.str1.4,"aMS",@progbits,1
 2235              		.align	2
 2236              	.LC35:
 2237 0000 73746172 		.string	"start alcs_prefixkey_update\n"
 2237      7420616C 
 2237      63735F70 
 2237      72656669 
 2237      786B6579 
 2238 001d 000000   		.align	2
 2239              	.LC36:
 2240 0020 616C6373 		.string	"alcs_prefixkey_update failed\n"
 2240      5F707265 
 2240      6669786B 
 2240      65795F75 
 2240      70646174 
 2241              		.section	.text.alcs_mqtt_prefixkey_update,"ax",@progbits
 2242              		.align	1
 2243              		.globl	alcs_mqtt_prefixkey_update
 2245              	alcs_mqtt_prefixkey_update:
 2246              	.LFB37:
 720:C:/Users/stapi/OneDrive/Desktop/GD32VW553/V1_MQTT_OK/GD32VW55X_Wifi_BLE_SDK/GD32VW55x_RELEASE_V1.0.2/MSDK/cloud/alicloud/src/protocol/alcs\alcs_mqtt.c **** 
 721:C:/Users/stapi/OneDrive/Desktop/GD32VW553/V1_MQTT_OK/GD32VW55X_Wifi_BLE_SDK/GD32VW55x_RELEASE_V1.0.2/MSDK/cloud/alicloud/src/protocol/alcs\alcs_mqtt.c **** alcs_mqtt_status_e alcs_mqtt_prefixkey_update(void *ctx)
 722:C:/Users/stapi/OneDrive/Desktop/GD32VW553/V1_MQTT_OK/GD32VW55X_Wifi_BLE_SDK/GD32VW55x_RELEASE_V1.0.2/MSDK/cloud/alicloud/src/protocol/alcs\alcs_mqtt.c **** {
 2247              		.loc 1 722 1 is_stmt 1
 2248              		.cfi_startproc
 2249              	.LVL258:
 2250 0000 17030000 		call	t0,__riscv_save_4
 2250      E7020300 
 2251              		.cfi_offset 19, -20
 2252              		.cfi_offset 18, -16
 2253              		.cfi_offset 9, -12
 2254              		.cfi_offset 8, -8
 2255              		.cfi_offset 1, -4
 2256              		.cfi_def_cfa_offset 32
 723:C:/Users/stapi/OneDrive/Desktop/GD32VW553/V1_MQTT_OK/GD32VW55X_Wifi_BLE_SDK/GD32VW55x_RELEASE_V1.0.2/MSDK/cloud/alicloud/src/protocol/alcs\alcs_mqtt.c ****     CoAPContext *context = (CoAPContext *)ctx;
 2257              		.loc 1 723 5
 722:C:/Users/stapi/OneDrive/Desktop/GD32VW553/V1_MQTT_OK/GD32VW55X_Wifi_BLE_SDK/GD32VW55x_RELEASE_V1.0.2/MSDK/cloud/alicloud/src/protocol/alcs\alcs_mqtt.c ****     CoAPContext *context = (CoAPContext *)ctx;
 2258              		.loc 1 722 1 is_stmt 0
 2259 0008 3571     		addi	sp,sp,-160
 2260              		.cfi_def_cfa_offset 192
 722:C:/Users/stapi/OneDrive/Desktop/GD32VW553/V1_MQTT_OK/GD32VW55X_Wifi_BLE_SDK/GD32VW55x_RELEASE_V1.0.2/MSDK/cloud/alicloud/src/protocol/alcs\alcs_mqtt.c ****     CoAPContext *context = (CoAPContext *)ctx;
 2261              		.loc 1 722 1
 2262 000a AA84     		mv	s1,a0
 2263              	.LVL259:
 724:C:/Users/stapi/OneDrive/Desktop/GD32VW553/V1_MQTT_OK/GD32VW55X_Wifi_BLE_SDK/GD32VW55x_RELEASE_V1.0.2/MSDK/cloud/alicloud/src/protocol/alcs\alcs_mqtt.c ****     char prefix[ALCS_MQTT_PREFIX_MAX_LEN + 1] = {0};
 2264              		.loc 1 724 5 is_stmt 1
 2265              		.loc 1 724 10 is_stmt 0
 2266 000c 13065002 		li	a2,37
 2267 0010 8145     		li	a1,0
 2268 0012 E800     		addi	a0,sp,76
 2269              	.LVL260:
 2270 0014 82C4     		sw	zero,72(sp)
 2271 0016 97000000 		call	memset
 2271      E7800000 
 2272              	.LVL261:
 725:C:/Users/stapi/OneDrive/Desktop/GD32VW553/V1_MQTT_OK/GD32VW55X_Wifi_BLE_SDK/GD32VW55x_RELEASE_V1.0.2/MSDK/cloud/alicloud/src/protocol/alcs\alcs_mqtt.c ****     char secret[ALCS_MQTT_SECRET_MAX_LEN + 1] = {0};
 2273              		.loc 1 725 5 is_stmt 1
 2274              		.loc 1 725 10 is_stmt 0
 2275 001e 13065002 		li	a2,37
 2276 0022 8145     		li	a1,0
 2277 0024 A818     		addi	a0,sp,120
 2278 0026 82DA     		sw	zero,116(sp)
 2279 0028 97000000 		call	memset
 2279      E7800000 
 2280              	.LVL262:
 726:C:/Users/stapi/OneDrive/Desktop/GD32VW553/V1_MQTT_OK/GD32VW55X_Wifi_BLE_SDK/GD32VW55x_RELEASE_V1.0.2/MSDK/cloud/alicloud/src/protocol/alcs\alcs_mqtt.c ****     char product_key[PRODUCT_KEY_LEN + 1] = {0};
 2281              		.loc 1 726 5 is_stmt 1
 727:C:/Users/stapi/OneDrive/Desktop/GD32VW553/V1_MQTT_OK/GD32VW55X_Wifi_BLE_SDK/GD32VW55x_RELEASE_V1.0.2/MSDK/cloud/alicloud/src/protocol/alcs\alcs_mqtt.c ****     char device_name[DEVICE_NAME_LEN + 1] = {0};
 2282              		.loc 1 727 10 is_stmt 0
 2283 0030 7546     		li	a2,29
 2284 0032 8145     		li	a1,0
 2285 0034 2810     		addi	a0,sp,40
 726:C:/Users/stapi/OneDrive/Desktop/GD32VW553/V1_MQTT_OK/GD32VW55X_Wifi_BLE_SDK/GD32VW55x_RELEASE_V1.0.2/MSDK/cloud/alicloud/src/protocol/alcs\alcs_mqtt.c ****     char product_key[PRODUCT_KEY_LEN + 1] = {0};
 2286              		.loc 1 726 10
 2287 0036 02C6     		sw	zero,12(sp)
 2288 0038 02C8     		sw	zero,16(sp)
 2289 003a 02CA     		sw	zero,20(sp)
 2290 003c 02CC     		sw	zero,24(sp)
 2291 003e 02CE     		sw	zero,28(sp)
 2292 0040 23000102 		sb	zero,32(sp)
 2293              		.loc 1 727 5 is_stmt 1
 2294              		.loc 1 727 10 is_stmt 0
 2295 0044 02D2     		sw	zero,36(sp)
 2296 0046 97000000 		call	memset
 2296      E7800000 
 2297              	.LVL263:
 728:C:/Users/stapi/OneDrive/Desktop/GD32VW553/V1_MQTT_OK/GD32VW55X_Wifi_BLE_SDK/GD32VW55x_RELEASE_V1.0.2/MSDK/cloud/alicloud/src/protocol/alcs\alcs_mqtt.c ****     uint16_t prodkey_len = 0, devname_len = 0;
 2298              		.loc 1 728 5 is_stmt 1
 729:C:/Users/stapi/OneDrive/Desktop/GD32VW553/V1_MQTT_OK/GD32VW55X_Wifi_BLE_SDK/GD32VW55x_RELEASE_V1.0.2/MSDK/cloud/alicloud/src/protocol/alcs\alcs_mqtt.c **** 
 730:C:/Users/stapi/OneDrive/Desktop/GD32VW553/V1_MQTT_OK/GD32VW55X_Wifi_BLE_SDK/GD32VW55x_RELEASE_V1.0.2/MSDK/cloud/alicloud/src/protocol/alcs\alcs_mqtt.c ****     if (NULL == context) {
 2299              		.loc 1 730 5
 2300              		.loc 1 730 8 is_stmt 0
 2301 004e D5CC     		beq	s1,zero,.L192
 731:C:/Users/stapi/OneDrive/Desktop/GD32VW553/V1_MQTT_OK/GD32VW55X_Wifi_BLE_SDK/GD32VW55x_RELEASE_V1.0.2/MSDK/cloud/alicloud/src/protocol/alcs\alcs_mqtt.c ****         return ALCS_MQTT_STATUS_ERROR;
 732:C:/Users/stapi/OneDrive/Desktop/GD32VW553/V1_MQTT_OK/GD32VW55X_Wifi_BLE_SDK/GD32VW55x_RELEASE_V1.0.2/MSDK/cloud/alicloud/src/protocol/alcs\alcs_mqtt.c ****     }
 733:C:/Users/stapi/OneDrive/Desktop/GD32VW553/V1_MQTT_OK/GD32VW55X_Wifi_BLE_SDK/GD32VW55x_RELEASE_V1.0.2/MSDK/cloud/alicloud/src/protocol/alcs\alcs_mqtt.c **** 
 734:C:/Users/stapi/OneDrive/Desktop/GD32VW553/V1_MQTT_OK/GD32VW55X_Wifi_BLE_SDK/GD32VW55x_RELEASE_V1.0.2/MSDK/cloud/alicloud/src/protocol/alcs\alcs_mqtt.c ****     COAP_INFO("start alcs_prefixkey_update\n");
 2302              		.loc 1 734 5 is_stmt 1
 2303              		.loc 1 734 5
 2304 0050 B7090000 		lui	s3,%hi(.LC0)
 2305 0054 13850900 		addi	a0,s3,%lo(.LC0)
 2306 0058 97000000 		call	HAL_Printf
 2306      E7800000 
 2307              	.LVL264:
 2308              		.loc 1 734 5
 2309 0060 37050000 		lui	a0,%hi(.LC35)
 2310 0064 13050500 		addi	a0,a0,%lo(.LC35)
 2311 0068 97000000 		call	HAL_Printf
 2311      E7800000 
 2312              	.LVL265:
 2313              		.loc 1 734 5
 2314 0070 37090000 		lui	s2,%hi(.LC2)
 2315 0074 13050900 		addi	a0,s2,%lo(.LC2)
 2316 0078 97000000 		call	HAL_Printf
 2316      E7800000 
 2317              	.LVL266:
 2318              		.loc 1 734 5
 735:C:/Users/stapi/OneDrive/Desktop/GD32VW553/V1_MQTT_OK/GD32VW55X_Wifi_BLE_SDK/GD32VW55x_RELEASE_V1.0.2/MSDK/cloud/alicloud/src/protocol/alcs\alcs_mqtt.c ****     HAL_GetProductKey(product_key);
 2319              		.loc 1 735 5
 2320 0080 6800     		addi	a0,sp,12
 2321 0082 97000000 		call	HAL_GetProductKey
 2321      E7800000 
 2322              	.LVL267:
 736:C:/Users/stapi/OneDrive/Desktop/GD32VW553/V1_MQTT_OK/GD32VW55X_Wifi_BLE_SDK/GD32VW55x_RELEASE_V1.0.2/MSDK/cloud/alicloud/src/protocol/alcs\alcs_mqtt.c ****     HAL_GetDeviceName(device_name);
 2323              		.loc 1 736 5
 2324 008a 4810     		addi	a0,sp,36
 2325 008c 97000000 		call	HAL_GetDeviceName
 2325      E7800000 
 2326              	.LVL268:
 737:C:/Users/stapi/OneDrive/Desktop/GD32VW553/V1_MQTT_OK/GD32VW55X_Wifi_BLE_SDK/GD32VW55x_RELEASE_V1.0.2/MSDK/cloud/alicloud/src/protocol/alcs\alcs_mqtt.c ****     prodkey_len = strlen(product_key);
 2327              		.loc 1 737 5
 2328              		.loc 1 737 19 is_stmt 0
 2329 0094 6800     		addi	a0,sp,12
 2330 0096 97000000 		call	strlen
 2330      E7800000 
 2331              	.LVL269:
 2332 009e 2A84     		mv	s0,a0
 2333              	.LVL270:
 738:C:/Users/stapi/OneDrive/Desktop/GD32VW553/V1_MQTT_OK/GD32VW55X_Wifi_BLE_SDK/GD32VW55x_RELEASE_V1.0.2/MSDK/cloud/alicloud/src/protocol/alcs\alcs_mqtt.c ****     devname_len = strlen(device_name);
 2334              		.loc 1 738 5 is_stmt 1
 2335              		.loc 1 738 19 is_stmt 0
 2336 00a0 4810     		addi	a0,sp,36
 2337 00a2 97000000 		call	strlen
 2337      E7800000 
 2338              	.LVL271:
 739:C:/Users/stapi/OneDrive/Desktop/GD32VW553/V1_MQTT_OK/GD32VW55X_Wifi_BLE_SDK/GD32VW55x_RELEASE_V1.0.2/MSDK/cloud/alicloud/src/protocol/alcs\alcs_mqtt.c ****     if (alcs_mqtt_prefix_secret_load(product_key, prodkey_len, device_name, devname_len, prefix, se
 2339              		.loc 1 739 5 is_stmt 1
 2340              		.loc 1 739 9 is_stmt 0
 2341 00aa B3460508 		zext.h	a3,a0
 2342 00ae DC18     		addi	a5,sp,116
 2343 00b0 B800     		addi	a4,sp,72
 2344 00b2 5010     		addi	a2,sp,36
 2345 00b4 6800     		addi	a0,sp,12
 2346              	.LVL272:
 2347 00b6 B3450408 		zext.h	a1,s0
 2348 00ba 97000000 		call	alcs_mqtt_prefix_secret_load
 2348      E7800000 
 2349              	.LVL273:
 2350 00c2 2A84     		mv	s0,a0
 2351              	.LVL274:
 2352              		.loc 1 739 8
 2353 00c4 19ED     		bne	a0,zero,.L191
 740:C:/Users/stapi/OneDrive/Desktop/GD32VW553/V1_MQTT_OK/GD32VW55X_Wifi_BLE_SDK/GD32VW55x_RELEASE_V1.0.2/MSDK/cloud/alicloud/src/protocol/alcs\alcs_mqtt.c ****         alcs_add_svr_key(context, prefix, secret, FROMCLOUDSVR);
 2354              		.loc 1 740 9 is_stmt 1
 2355 00c6 8946     		li	a3,2
 2356 00c8 D018     		addi	a2,sp,116
 2357 00ca AC00     		addi	a1,sp,72
 2358 00cc 2685     		mv	a0,s1
 2359 00ce 97000000 		call	alcs_add_svr_key
 2359      E7800000 
 2360              	.LVL275:
 741:C:/Users/stapi/OneDrive/Desktop/GD32VW553/V1_MQTT_OK/GD32VW55X_Wifi_BLE_SDK/GD32VW55x_RELEASE_V1.0.2/MSDK/cloud/alicloud/src/protocol/alcs\alcs_mqtt.c ****         return ALCS_MQTT_STATUS_SUCCESS;
 2361              		.loc 1 741 9
 2362              	.L189:
 742:C:/Users/stapi/OneDrive/Desktop/GD32VW553/V1_MQTT_OK/GD32VW55X_Wifi_BLE_SDK/GD32VW55x_RELEASE_V1.0.2/MSDK/cloud/alicloud/src/protocol/alcs\alcs_mqtt.c ****     } else {
 743:C:/Users/stapi/OneDrive/Desktop/GD32VW553/V1_MQTT_OK/GD32VW55X_Wifi_BLE_SDK/GD32VW55x_RELEASE_V1.0.2/MSDK/cloud/alicloud/src/protocol/alcs\alcs_mqtt.c ****         COAP_INFO("alcs_prefixkey_update failed\n");
 744:C:/Users/stapi/OneDrive/Desktop/GD32VW553/V1_MQTT_OK/GD32VW55X_Wifi_BLE_SDK/GD32VW55x_RELEASE_V1.0.2/MSDK/cloud/alicloud/src/protocol/alcs\alcs_mqtt.c ****     }
 745:C:/Users/stapi/OneDrive/Desktop/GD32VW553/V1_MQTT_OK/GD32VW55X_Wifi_BLE_SDK/GD32VW55x_RELEASE_V1.0.2/MSDK/cloud/alicloud/src/protocol/alcs\alcs_mqtt.c ****     return ALCS_MQTT_STATUS_ERROR;
 746:C:/Users/stapi/OneDrive/Desktop/GD32VW553/V1_MQTT_OK/GD32VW55X_Wifi_BLE_SDK/GD32VW55x_RELEASE_V1.0.2/MSDK/cloud/alicloud/src/protocol/alcs\alcs_mqtt.c **** }
 2363              		.loc 1 746 1 is_stmt 0
 2364 00d6 2285     		mv	a0,s0
 2365 00d8 0D61     		addi	sp,sp,160
 2366              		.cfi_remember_state
 2367              		.cfi_def_cfa_offset 0
 2368 00da 17030000 		tail	__riscv_restore_4
 2368      67000300 
 2369              		.cfi_restore 19
 2370              		.cfi_restore 18
 2371              		.cfi_restore 9
 2372              		.cfi_restore 8
 2373              		.cfi_restore 1
 2374              		.cfi_def_cfa_offset -32
 2375              	.L191:
 2376              		.cfi_restore_state
 743:C:/Users/stapi/OneDrive/Desktop/GD32VW553/V1_MQTT_OK/GD32VW55X_Wifi_BLE_SDK/GD32VW55x_RELEASE_V1.0.2/MSDK/cloud/alicloud/src/protocol/alcs\alcs_mqtt.c ****     }
 2377              		.loc 1 743 9 is_stmt 1
 743:C:/Users/stapi/OneDrive/Desktop/GD32VW553/V1_MQTT_OK/GD32VW55X_Wifi_BLE_SDK/GD32VW55x_RELEASE_V1.0.2/MSDK/cloud/alicloud/src/protocol/alcs\alcs_mqtt.c ****     }
 2378              		.loc 1 743 9
 2379 00e2 13850900 		addi	a0,s3,%lo(.LC0)
 2380 00e6 97000000 		call	HAL_Printf
 2380      E7800000 
 2381              	.LVL276:
 743:C:/Users/stapi/OneDrive/Desktop/GD32VW553/V1_MQTT_OK/GD32VW55X_Wifi_BLE_SDK/GD32VW55x_RELEASE_V1.0.2/MSDK/cloud/alicloud/src/protocol/alcs\alcs_mqtt.c ****     }
 2382              		.loc 1 743 9
 2383 00ee 37050000 		lui	a0,%hi(.LC36)
 2384 00f2 13050500 		addi	a0,a0,%lo(.LC36)
 2385 00f6 97000000 		call	HAL_Printf
 2385      E7800000 
 2386              	.LVL277:
 743:C:/Users/stapi/OneDrive/Desktop/GD32VW553/V1_MQTT_OK/GD32VW55X_Wifi_BLE_SDK/GD32VW55x_RELEASE_V1.0.2/MSDK/cloud/alicloud/src/protocol/alcs\alcs_mqtt.c ****     }
 2387              		.loc 1 743 9
 2388 00fe 13050900 		addi	a0,s2,%lo(.LC2)
 2389 0102 97000000 		call	HAL_Printf
 2389      E7800000 
 2390              	.LVL278:
 743:C:/Users/stapi/OneDrive/Desktop/GD32VW553/V1_MQTT_OK/GD32VW55X_Wifi_BLE_SDK/GD32VW55x_RELEASE_V1.0.2/MSDK/cloud/alicloud/src/protocol/alcs\alcs_mqtt.c ****     }
 2391              		.loc 1 743 9
 745:C:/Users/stapi/OneDrive/Desktop/GD32VW553/V1_MQTT_OK/GD32VW55X_Wifi_BLE_SDK/GD32VW55x_RELEASE_V1.0.2/MSDK/cloud/alicloud/src/protocol/alcs\alcs_mqtt.c **** }
 2392              		.loc 1 745 5
 2393              	.L192:
 731:C:/Users/stapi/OneDrive/Desktop/GD32VW553/V1_MQTT_OK/GD32VW55X_Wifi_BLE_SDK/GD32VW55x_RELEASE_V1.0.2/MSDK/cloud/alicloud/src/protocol/alcs\alcs_mqtt.c ****     }
 2394              		.loc 1 731 16 is_stmt 0
 2395 010a 0544     		li	s0,1
 2396 010c E9B7     		j	.L189
 2397              		.cfi_endproc
 2398              	.LFE37:
 2400              		.section	.rodata.alcs_prefixkey_get.str1.4,"aMS",@progbits,1
 2401              		.align	2
 2402              	.LC37:
 2403 0000 2F737973 		.string	"/sys/%s/%s/thing/lan/prefix/get"
 2403      2F25732F 
 2403      25732F74 
 2403      68696E67 
 2403      2F6C616E 
 2404              		.align	2
 2405              	.LC38:
 2406 0020 7B226964 		.string	"{\"id\":\"%d\",\"version\":\"1.0\",\"params\":\"{}\",\"method\":\"thing.lan.prefix.get\"}
 2406      223A2225 
 2406      64222C22 
 2406      76657273 
 2406      696F6E22 
 2407 006a 0000     		.align	2
 2408              	.LC39:
 2409 006c 414C4353 		.string	"ALCS Prefix Get, Topic: %s, Payload: %s"
 2409      20507265 
 2409      66697820 
 2409      4765742C 
 2409      20546F70 
 2410              		.section	.text.alcs_prefixkey_get,"ax",@progbits
 2411              		.align	1
 2412              		.globl	alcs_prefixkey_get
 2414              	alcs_prefixkey_get:
 2415              	.LFB38:
 747:C:/Users/stapi/OneDrive/Desktop/GD32VW553/V1_MQTT_OK/GD32VW55X_Wifi_BLE_SDK/GD32VW55x_RELEASE_V1.0.2/MSDK/cloud/alicloud/src/protocol/alcs\alcs_mqtt.c **** 
 748:C:/Users/stapi/OneDrive/Desktop/GD32VW553/V1_MQTT_OK/GD32VW55X_Wifi_BLE_SDK/GD32VW55x_RELEASE_V1.0.2/MSDK/cloud/alicloud/src/protocol/alcs\alcs_mqtt.c **** alcs_mqtt_status_e alcs_prefixkey_get(const char *product_key, const char *device_name)
 749:C:/Users/stapi/OneDrive/Desktop/GD32VW553/V1_MQTT_OK/GD32VW55X_Wifi_BLE_SDK/GD32VW55x_RELEASE_V1.0.2/MSDK/cloud/alicloud/src/protocol/alcs\alcs_mqtt.c **** {
 2416              		.loc 1 749 1 is_stmt 1
 2417              		.cfi_startproc
 2418              	.LVL279:
 2419 0000 17030000 		call	t0,__riscv_save_3
 2419      E7020300 
 2420              		.cfi_offset 18, -16
 2421              		.cfi_offset 9, -12
 2422              		.cfi_offset 8, -8
 2423              		.cfi_offset 1, -4
 2424              		.cfi_def_cfa_offset 16
 750:C:/Users/stapi/OneDrive/Desktop/GD32VW553/V1_MQTT_OK/GD32VW55X_Wifi_BLE_SDK/GD32VW55x_RELEASE_V1.0.2/MSDK/cloud/alicloud/src/protocol/alcs\alcs_mqtt.c ****     //int ret = 0;
 751:C:/Users/stapi/OneDrive/Desktop/GD32VW553/V1_MQTT_OK/GD32VW55X_Wifi_BLE_SDK/GD32VW55x_RELEASE_V1.0.2/MSDK/cloud/alicloud/src/protocol/alcs\alcs_mqtt.c ****     char *msg_pub = NULL;
 2425              		.loc 1 751 5
 2426              	.LVL280:
 752:C:/Users/stapi/OneDrive/Desktop/GD32VW553/V1_MQTT_OK/GD32VW55X_Wifi_BLE_SDK/GD32VW55x_RELEASE_V1.0.2/MSDK/cloud/alicloud/src/protocol/alcs\alcs_mqtt.c ****     uint16_t msg_len = 0;
 2427              		.loc 1 752 5
 753:C:/Users/stapi/OneDrive/Desktop/GD32VW553/V1_MQTT_OK/GD32VW55X_Wifi_BLE_SDK/GD32VW55x_RELEASE_V1.0.2/MSDK/cloud/alicloud/src/protocol/alcs\alcs_mqtt.c ****     char topic[ALCS_MQTT_TOPIC_MAX_LEN] = {0};
 2428              		.loc 1 753 5
 749:C:/Users/stapi/OneDrive/Desktop/GD32VW553/V1_MQTT_OK/GD32VW55X_Wifi_BLE_SDK/GD32VW55x_RELEASE_V1.0.2/MSDK/cloud/alicloud/src/protocol/alcs\alcs_mqtt.c ****     //int ret = 0;
 2429              		.loc 1 749 1 is_stmt 0
 2430 0008 1971     		addi	sp,sp,-128
 2431              		.cfi_def_cfa_offset 144
 749:C:/Users/stapi/OneDrive/Desktop/GD32VW553/V1_MQTT_OK/GD32VW55X_Wifi_BLE_SDK/GD32VW55x_RELEASE_V1.0.2/MSDK/cloud/alicloud/src/protocol/alcs\alcs_mqtt.c ****     //int ret = 0;
 2432              		.loc 1 749 1
 2433 000a 2A84     		mv	s0,a0
 2434 000c AE84     		mv	s1,a1
 2435              		.loc 1 753 10
 2436 000e 1306C007 		li	a2,124
 2437 0012 8145     		li	a1,0
 2438              	.LVL281:
 2439 0014 4800     		addi	a0,sp,4
 2440              	.LVL282:
 2441 0016 02C0     		sw	zero,0(sp)
 2442 0018 97000000 		call	memset
 2442      E7800000 
 2443              	.LVL283:
 754:C:/Users/stapi/OneDrive/Desktop/GD32VW553/V1_MQTT_OK/GD32VW55X_Wifi_BLE_SDK/GD32VW55x_RELEASE_V1.0.2/MSDK/cloud/alicloud/src/protocol/alcs\alcs_mqtt.c ****     alcs_mqtt_ctx_t *ctx =  __alcs_mqtt_get_ctx();
 2444              		.loc 1 754 5 is_stmt 1
  26:C:/Users/stapi/OneDrive/Desktop/GD32VW553/V1_MQTT_OK/GD32VW55X_Wifi_BLE_SDK/GD32VW55x_RELEASE_V1.0.2/MSDK/cloud/alicloud/src/protocol/alcs\alcs_mqtt.c **** }
 2445              		.loc 1 26 5
 755:C:/Users/stapi/OneDrive/Desktop/GD32VW553/V1_MQTT_OK/GD32VW55X_Wifi_BLE_SDK/GD32VW55x_RELEASE_V1.0.2/MSDK/cloud/alicloud/src/protocol/alcs\alcs_mqtt.c ****     alcs_mqtt_status_e status = ALCS_MQTT_STATUS_SUCCESS;
 2446              		.loc 1 755 5
 756:C:/Users/stapi/OneDrive/Desktop/GD32VW553/V1_MQTT_OK/GD32VW55X_Wifi_BLE_SDK/GD32VW55x_RELEASE_V1.0.2/MSDK/cloud/alicloud/src/protocol/alcs\alcs_mqtt.c ****     int id = ctx->send_id++;
 2447              		.loc 1 756 5
 2448              		.loc 1 756 17 is_stmt 0
 2449 0020 B7070000 		lui	a5,%hi(.LANCHOR0)
 2450 0024 93870700 		addi	a5,a5,%lo(.LANCHOR0)
 2451 0028 03A98705 		lw	s2,88(a5)
 2452              		.loc 1 756 26
 2453 002c 13071900 		addi	a4,s2,1
 2454 0030 B8CF     		sw	a4,88(a5)
 2455              	.LVL284:
 757:C:/Users/stapi/OneDrive/Desktop/GD32VW553/V1_MQTT_OK/GD32VW55X_Wifi_BLE_SDK/GD32VW55x_RELEASE_V1.0.2/MSDK/cloud/alicloud/src/protocol/alcs\alcs_mqtt.c **** 
 758:C:/Users/stapi/OneDrive/Desktop/GD32VW553/V1_MQTT_OK/GD32VW55X_Wifi_BLE_SDK/GD32VW55x_RELEASE_V1.0.2/MSDK/cloud/alicloud/src/protocol/alcs\alcs_mqtt.c ****     if (product_key == NULL || strlen(product_key) > PRODUCT_KEY_LEN ||
 2456              		.loc 1 758 5 is_stmt 1
 2457              		.loc 1 758 8 is_stmt 0
 2458 0032 01E8     		bne	s0,zero,.L195
 2459              	.LVL285:
 2460              	.L197:
 759:C:/Users/stapi/OneDrive/Desktop/GD32VW553/V1_MQTT_OK/GD32VW55X_Wifi_BLE_SDK/GD32VW55x_RELEASE_V1.0.2/MSDK/cloud/alicloud/src/protocol/alcs\alcs_mqtt.c ****         device_name == NULL || strlen(device_name) > DEVICE_NAME_LEN) {
 760:C:/Users/stapi/OneDrive/Desktop/GD32VW553/V1_MQTT_OK/GD32VW55X_Wifi_BLE_SDK/GD32VW55x_RELEASE_V1.0.2/MSDK/cloud/alicloud/src/protocol/alcs\alcs_mqtt.c ****         return ALCS_MQTT_STATUS_ERROR;
 2461              		.loc 1 760 16
 2462 0034 8544     		li	s1,1
 2463              	.LVL286:
 2464              	.L194:
 761:C:/Users/stapi/OneDrive/Desktop/GD32VW553/V1_MQTT_OK/GD32VW55X_Wifi_BLE_SDK/GD32VW55x_RELEASE_V1.0.2/MSDK/cloud/alicloud/src/protocol/alcs\alcs_mqtt.c ****     }
 762:C:/Users/stapi/OneDrive/Desktop/GD32VW553/V1_MQTT_OK/GD32VW55X_Wifi_BLE_SDK/GD32VW55x_RELEASE_V1.0.2/MSDK/cloud/alicloud/src/protocol/alcs\alcs_mqtt.c ****     snprintf(topic, ALCS_MQTT_TOPIC_MAX_LEN, ALCS_MQTT_PREFIX ALCS_MQTT_THING_LAN_PREFIX_GET_FMT,
 763:C:/Users/stapi/OneDrive/Desktop/GD32VW553/V1_MQTT_OK/GD32VW55X_Wifi_BLE_SDK/GD32VW55x_RELEASE_V1.0.2/MSDK/cloud/alicloud/src/protocol/alcs\alcs_mqtt.c ****              product_key, device_name);
 764:C:/Users/stapi/OneDrive/Desktop/GD32VW553/V1_MQTT_OK/GD32VW55X_Wifi_BLE_SDK/GD32VW55x_RELEASE_V1.0.2/MSDK/cloud/alicloud/src/protocol/alcs\alcs_mqtt.c **** 
 765:C:/Users/stapi/OneDrive/Desktop/GD32VW553/V1_MQTT_OK/GD32VW55X_Wifi_BLE_SDK/GD32VW55x_RELEASE_V1.0.2/MSDK/cloud/alicloud/src/protocol/alcs\alcs_mqtt.c ****     msg_len = strlen(ALCS_MQTT_THING_ALCS_REQUEST) + 10 + 1;
 766:C:/Users/stapi/OneDrive/Desktop/GD32VW553/V1_MQTT_OK/GD32VW55X_Wifi_BLE_SDK/GD32VW55x_RELEASE_V1.0.2/MSDK/cloud/alicloud/src/protocol/alcs\alcs_mqtt.c ****     if ((msg_pub = ALCS_ADAPTER_malloc(msg_len)) == NULL) {
 767:C:/Users/stapi/OneDrive/Desktop/GD32VW553/V1_MQTT_OK/GD32VW55X_Wifi_BLE_SDK/GD32VW55x_RELEASE_V1.0.2/MSDK/cloud/alicloud/src/protocol/alcs\alcs_mqtt.c ****         return ALCS_MQTT_STATUS_ERROR;
 768:C:/Users/stapi/OneDrive/Desktop/GD32VW553/V1_MQTT_OK/GD32VW55X_Wifi_BLE_SDK/GD32VW55x_RELEASE_V1.0.2/MSDK/cloud/alicloud/src/protocol/alcs\alcs_mqtt.c ****     }
 769:C:/Users/stapi/OneDrive/Desktop/GD32VW553/V1_MQTT_OK/GD32VW55X_Wifi_BLE_SDK/GD32VW55x_RELEASE_V1.0.2/MSDK/cloud/alicloud/src/protocol/alcs\alcs_mqtt.c **** 
 770:C:/Users/stapi/OneDrive/Desktop/GD32VW553/V1_MQTT_OK/GD32VW55X_Wifi_BLE_SDK/GD32VW55x_RELEASE_V1.0.2/MSDK/cloud/alicloud/src/protocol/alcs\alcs_mqtt.c ****     snprintf(msg_pub, msg_len, ALCS_MQTT_THING_ALCS_REQUEST, id);
 771:C:/Users/stapi/OneDrive/Desktop/GD32VW553/V1_MQTT_OK/GD32VW55X_Wifi_BLE_SDK/GD32VW55x_RELEASE_V1.0.2/MSDK/cloud/alicloud/src/protocol/alcs\alcs_mqtt.c **** 
 772:C:/Users/stapi/OneDrive/Desktop/GD32VW553/V1_MQTT_OK/GD32VW55X_Wifi_BLE_SDK/GD32VW55x_RELEASE_V1.0.2/MSDK/cloud/alicloud/src/protocol/alcs\alcs_mqtt.c ****     COAP_INFO("ALCS Prefix Get, Topic: %s, Payload: %s", topic, msg_pub);
 773:C:/Users/stapi/OneDrive/Desktop/GD32VW553/V1_MQTT_OK/GD32VW55X_Wifi_BLE_SDK/GD32VW55x_RELEASE_V1.0.2/MSDK/cloud/alicloud/src/protocol/alcs\alcs_mqtt.c ****     status = __alcs_mqtt_publish(topic, 0, msg_pub, strlen(msg_pub));
 774:C:/Users/stapi/OneDrive/Desktop/GD32VW553/V1_MQTT_OK/GD32VW55X_Wifi_BLE_SDK/GD32VW55x_RELEASE_V1.0.2/MSDK/cloud/alicloud/src/protocol/alcs\alcs_mqtt.c **** 
 775:C:/Users/stapi/OneDrive/Desktop/GD32VW553/V1_MQTT_OK/GD32VW55X_Wifi_BLE_SDK/GD32VW55x_RELEASE_V1.0.2/MSDK/cloud/alicloud/src/protocol/alcs\alcs_mqtt.c ****     LITE_free(msg_pub);
 776:C:/Users/stapi/OneDrive/Desktop/GD32VW553/V1_MQTT_OK/GD32VW55X_Wifi_BLE_SDK/GD32VW55x_RELEASE_V1.0.2/MSDK/cloud/alicloud/src/protocol/alcs\alcs_mqtt.c **** 
 777:C:/Users/stapi/OneDrive/Desktop/GD32VW553/V1_MQTT_OK/GD32VW55X_Wifi_BLE_SDK/GD32VW55x_RELEASE_V1.0.2/MSDK/cloud/alicloud/src/protocol/alcs\alcs_mqtt.c ****     return status;
 778:C:/Users/stapi/OneDrive/Desktop/GD32VW553/V1_MQTT_OK/GD32VW55X_Wifi_BLE_SDK/GD32VW55x_RELEASE_V1.0.2/MSDK/cloud/alicloud/src/protocol/alcs\alcs_mqtt.c **** }
 2465              		.loc 1 778 1
 2466 0036 2685     		mv	a0,s1
 2467 0038 0961     		addi	sp,sp,128
 2468              		.cfi_remember_state
 2469              		.cfi_def_cfa_offset 0
 2470 003a 17030000 		tail	__riscv_restore_3
 2470      67000300 
 2471              		.cfi_restore 18
 2472              		.cfi_restore 9
 2473              		.cfi_restore 8
 2474              		.cfi_restore 1
 2475              		.cfi_def_cfa_offset -16
 2476              	.LVL287:
 2477              	.L195:
 2478              		.cfi_restore_state
 758:C:/Users/stapi/OneDrive/Desktop/GD32VW553/V1_MQTT_OK/GD32VW55X_Wifi_BLE_SDK/GD32VW55x_RELEASE_V1.0.2/MSDK/cloud/alicloud/src/protocol/alcs\alcs_mqtt.c ****         device_name == NULL || strlen(device_name) > DEVICE_NAME_LEN) {
 2479              		.loc 1 758 32 discriminator 1
 2480 0042 2285     		mv	a0,s0
 2481 0044 97000000 		call	strlen
 2481      E7800000 
 2482              	.LVL288:
 758:C:/Users/stapi/OneDrive/Desktop/GD32VW553/V1_MQTT_OK/GD32VW55X_Wifi_BLE_SDK/GD32VW55x_RELEASE_V1.0.2/MSDK/cloud/alicloud/src/protocol/alcs\alcs_mqtt.c ****         device_name == NULL || strlen(device_name) > DEVICE_NAME_LEN) {
 2483              		.loc 1 758 29 discriminator 1
 2484 004c D147     		li	a5,20
 2485 004e E3E3A7FE 		bgtu	a0,a5,.L197
 758:C:/Users/stapi/OneDrive/Desktop/GD32VW553/V1_MQTT_OK/GD32VW55X_Wifi_BLE_SDK/GD32VW55x_RELEASE_V1.0.2/MSDK/cloud/alicloud/src/protocol/alcs\alcs_mqtt.c ****         device_name == NULL || strlen(device_name) > DEVICE_NAME_LEN) {
 2486              		.loc 1 758 70 discriminator 2
 2487 0052 EDD0     		beq	s1,zero,.L197
 759:C:/Users/stapi/OneDrive/Desktop/GD32VW553/V1_MQTT_OK/GD32VW55X_Wifi_BLE_SDK/GD32VW55x_RELEASE_V1.0.2/MSDK/cloud/alicloud/src/protocol/alcs\alcs_mqtt.c ****         device_name == NULL || strlen(device_name) > DEVICE_NAME_LEN) {
 2488              		.loc 1 759 32
 2489 0054 2685     		mv	a0,s1
 2490 0056 97000000 		call	strlen
 2490      E7800000 
 2491              	.LVL289:
 759:C:/Users/stapi/OneDrive/Desktop/GD32VW553/V1_MQTT_OK/GD32VW55X_Wifi_BLE_SDK/GD32VW55x_RELEASE_V1.0.2/MSDK/cloud/alicloud/src/protocol/alcs\alcs_mqtt.c ****         device_name == NULL || strlen(device_name) > DEVICE_NAME_LEN) {
 2492              		.loc 1 759 29
 2493 005e 93070002 		li	a5,32
 2494 0062 E3E9A7FC 		bgtu	a0,a5,.L197
 762:C:/Users/stapi/OneDrive/Desktop/GD32VW553/V1_MQTT_OK/GD32VW55X_Wifi_BLE_SDK/GD32VW55x_RELEASE_V1.0.2/MSDK/cloud/alicloud/src/protocol/alcs\alcs_mqtt.c ****              product_key, device_name);
 2495              		.loc 1 762 5 is_stmt 1
 2496 0066 37060000 		lui	a2,%hi(.LC37)
 2497 006a A286     		mv	a3,s0
 2498 006c 2687     		mv	a4,s1
 2499 006e 13060600 		addi	a2,a2,%lo(.LC37)
 2500 0072 93050008 		li	a1,128
 2501 0076 0A85     		mv	a0,sp
 2502 0078 97000000 		call	snprintf
 2502      E7800000 
 2503              	.LVL290:
 765:C:/Users/stapi/OneDrive/Desktop/GD32VW553/V1_MQTT_OK/GD32VW55X_Wifi_BLE_SDK/GD32VW55x_RELEASE_V1.0.2/MSDK/cloud/alicloud/src/protocol/alcs\alcs_mqtt.c ****     if ((msg_pub = ALCS_ADAPTER_malloc(msg_len)) == NULL) {
 2504              		.loc 1 765 5
 766:C:/Users/stapi/OneDrive/Desktop/GD32VW553/V1_MQTT_OK/GD32VW55X_Wifi_BLE_SDK/GD32VW55x_RELEASE_V1.0.2/MSDK/cloud/alicloud/src/protocol/alcs\alcs_mqtt.c ****         return ALCS_MQTT_STATUS_ERROR;
 2505              		.loc 1 766 5
 766:C:/Users/stapi/OneDrive/Desktop/GD32VW553/V1_MQTT_OK/GD32VW55X_Wifi_BLE_SDK/GD32VW55x_RELEASE_V1.0.2/MSDK/cloud/alicloud/src/protocol/alcs\alcs_mqtt.c ****         return ALCS_MQTT_STATUS_ERROR;
 2506              		.loc 1 766 20 is_stmt 0
 2507 0080 13064005 		li	a2,84
 2508 0084 8145     		li	a1,0
 2509 0086 0145     		li	a0,0
 2510 0088 97000000 		call	LITE_malloc_internal
 2510      E7800000 
 2511              	.LVL291:
 2512 0090 2A84     		mv	s0,a0
 2513              	.LVL292:
 766:C:/Users/stapi/OneDrive/Desktop/GD32VW553/V1_MQTT_OK/GD32VW55X_Wifi_BLE_SDK/GD32VW55x_RELEASE_V1.0.2/MSDK/cloud/alicloud/src/protocol/alcs\alcs_mqtt.c ****         return ALCS_MQTT_STATUS_ERROR;
 2514              		.loc 1 766 8
 2515 0092 4DD1     		beq	a0,zero,.L197
 770:C:/Users/stapi/OneDrive/Desktop/GD32VW553/V1_MQTT_OK/GD32VW55X_Wifi_BLE_SDK/GD32VW55x_RELEASE_V1.0.2/MSDK/cloud/alicloud/src/protocol/alcs\alcs_mqtt.c **** 
 2516              		.loc 1 770 5 is_stmt 1
 2517 0094 37060000 		lui	a2,%hi(.LC38)
 2518 0098 CA86     		mv	a3,s2
 2519 009a 13060600 		addi	a2,a2,%lo(.LC38)
 2520 009e 93054005 		li	a1,84
 2521 00a2 97000000 		call	snprintf
 2521      E7800000 
 2522              	.LVL293:
 772:C:/Users/stapi/OneDrive/Desktop/GD32VW553/V1_MQTT_OK/GD32VW55X_Wifi_BLE_SDK/GD32VW55x_RELEASE_V1.0.2/MSDK/cloud/alicloud/src/protocol/alcs\alcs_mqtt.c ****     status = __alcs_mqtt_publish(topic, 0, msg_pub, strlen(msg_pub));
 2523              		.loc 1 772 5
 772:C:/Users/stapi/OneDrive/Desktop/GD32VW553/V1_MQTT_OK/GD32VW55X_Wifi_BLE_SDK/GD32VW55x_RELEASE_V1.0.2/MSDK/cloud/alicloud/src/protocol/alcs\alcs_mqtt.c ****     status = __alcs_mqtt_publish(topic, 0, msg_pub, strlen(msg_pub));
 2524              		.loc 1 772 5
 2525 00aa 37050000 		lui	a0,%hi(.LC0)
 2526 00ae 13050500 		addi	a0,a0,%lo(.LC0)
 2527 00b2 97000000 		call	HAL_Printf
 2527      E7800000 
 2528              	.LVL294:
 772:C:/Users/stapi/OneDrive/Desktop/GD32VW553/V1_MQTT_OK/GD32VW55X_Wifi_BLE_SDK/GD32VW55x_RELEASE_V1.0.2/MSDK/cloud/alicloud/src/protocol/alcs\alcs_mqtt.c ****     status = __alcs_mqtt_publish(topic, 0, msg_pub, strlen(msg_pub));
 2529              		.loc 1 772 5
 2530 00ba 37050000 		lui	a0,%hi(.LC39)
 2531 00be 2286     		mv	a2,s0
 2532 00c0 8A85     		mv	a1,sp
 2533 00c2 13050500 		addi	a0,a0,%lo(.LC39)
 2534 00c6 97000000 		call	HAL_Printf
 2534      E7800000 
 2535              	.LVL295:
 772:C:/Users/stapi/OneDrive/Desktop/GD32VW553/V1_MQTT_OK/GD32VW55X_Wifi_BLE_SDK/GD32VW55x_RELEASE_V1.0.2/MSDK/cloud/alicloud/src/protocol/alcs\alcs_mqtt.c ****     status = __alcs_mqtt_publish(topic, 0, msg_pub, strlen(msg_pub));
 2536              		.loc 1 772 5
 2537 00ce 37050000 		lui	a0,%hi(.LC2)
 2538 00d2 13050500 		addi	a0,a0,%lo(.LC2)
 2539 00d6 97000000 		call	HAL_Printf
 2539      E7800000 
 2540              	.LVL296:
 772:C:/Users/stapi/OneDrive/Desktop/GD32VW553/V1_MQTT_OK/GD32VW55X_Wifi_BLE_SDK/GD32VW55x_RELEASE_V1.0.2/MSDK/cloud/alicloud/src/protocol/alcs\alcs_mqtt.c ****     status = __alcs_mqtt_publish(topic, 0, msg_pub, strlen(msg_pub));
 2541              		.loc 1 772 5
 773:C:/Users/stapi/OneDrive/Desktop/GD32VW553/V1_MQTT_OK/GD32VW55X_Wifi_BLE_SDK/GD32VW55x_RELEASE_V1.0.2/MSDK/cloud/alicloud/src/protocol/alcs\alcs_mqtt.c **** 
 2542              		.loc 1 773 5
 773:C:/Users/stapi/OneDrive/Desktop/GD32VW553/V1_MQTT_OK/GD32VW55X_Wifi_BLE_SDK/GD32VW55x_RELEASE_V1.0.2/MSDK/cloud/alicloud/src/protocol/alcs\alcs_mqtt.c **** 
 2543              		.loc 1 773 53 is_stmt 0
 2544 00de 2285     		mv	a0,s0
 2545 00e0 97000000 		call	strlen
 2545      E7800000 
 2546              	.LVL297:
 2547 00e8 2A87     		mv	a4,a0
 2548              	.LVL298:
 2549              	.LBB45:
 2550              	.LBB46:
  31:C:/Users/stapi/OneDrive/Desktop/GD32VW553/V1_MQTT_OK/GD32VW55X_Wifi_BLE_SDK/GD32VW55x_RELEASE_V1.0.2/MSDK/cloud/alicloud/src/protocol/alcs\alcs_mqtt.c **** }
 2551              		.loc 1 31 5 is_stmt 1
  31:C:/Users/stapi/OneDrive/Desktop/GD32VW553/V1_MQTT_OK/GD32VW55X_Wifi_BLE_SDK/GD32VW55x_RELEASE_V1.0.2/MSDK/cloud/alicloud/src/protocol/alcs\alcs_mqtt.c **** }
 2552              		.loc 1 31 13 is_stmt 0
 2553 00ea A286     		mv	a3,s0
 2554 00ec 0146     		li	a2,0
 2555 00ee 8A85     		mv	a1,sp
 2556 00f0 0145     		li	a0,0
 2557              	.LVL299:
 2558 00f2 97000000 		call	IOT_MQTT_Publish_Simple
 2558      E7800000 
 2559              	.LVL300:
  31:C:/Users/stapi/OneDrive/Desktop/GD32VW553/V1_MQTT_OK/GD32VW55X_Wifi_BLE_SDK/GD32VW55x_RELEASE_V1.0.2/MSDK/cloud/alicloud/src/protocol/alcs\alcs_mqtt.c **** }
 2560              		.loc 1 31 96
 2561 00fa 9354F501 		srli	s1,a0,31
 2562              	.LVL301:
 2563              	.LBE46:
 2564              	.LBE45:
 775:C:/Users/stapi/OneDrive/Desktop/GD32VW553/V1_MQTT_OK/GD32VW55X_Wifi_BLE_SDK/GD32VW55x_RELEASE_V1.0.2/MSDK/cloud/alicloud/src/protocol/alcs\alcs_mqtt.c **** 
 2565              		.loc 1 775 5 is_stmt 1
 2566 00fe 2285     		mv	a0,s0
 2567 0100 97000000 		call	LITE_free_internal
 2567      E7800000 
 2568              	.LVL302:
 777:C:/Users/stapi/OneDrive/Desktop/GD32VW553/V1_MQTT_OK/GD32VW55X_Wifi_BLE_SDK/GD32VW55x_RELEASE_V1.0.2/MSDK/cloud/alicloud/src/protocol/alcs\alcs_mqtt.c **** }
 2569              		.loc 1 777 5
 777:C:/Users/stapi/OneDrive/Desktop/GD32VW553/V1_MQTT_OK/GD32VW55X_Wifi_BLE_SDK/GD32VW55x_RELEASE_V1.0.2/MSDK/cloud/alicloud/src/protocol/alcs\alcs_mqtt.c **** }
 2570              		.loc 1 777 12 is_stmt 0
 2571 0108 3DB7     		j	.L194
 2572              		.cfi_endproc
 2573              	.LFE38:
 2575              		.section	.text.iotx_alcs_get_prefixkey,"ax",@progbits
 2576              		.align	1
 2577              		.globl	iotx_alcs_get_prefixkey
 2579              	iotx_alcs_get_prefixkey:
 2580              	.LFB31:
 579:C:/Users/stapi/OneDrive/Desktop/GD32VW553/V1_MQTT_OK/GD32VW55X_Wifi_BLE_SDK/GD32VW55x_RELEASE_V1.0.2/MSDK/cloud/alicloud/src/protocol/alcs\alcs_mqtt.c ****     if (b_prefixkey == 0) {
 2581              		.loc 1 579 32 is_stmt 1
 2582              		.cfi_startproc
 580:C:/Users/stapi/OneDrive/Desktop/GD32VW553/V1_MQTT_OK/GD32VW55X_Wifi_BLE_SDK/GD32VW55x_RELEASE_V1.0.2/MSDK/cloud/alicloud/src/protocol/alcs\alcs_mqtt.c ****         uint64_t time_now = HAL_UptimeMs();
 2583              		.loc 1 580 5
 580:C:/Users/stapi/OneDrive/Desktop/GD32VW553/V1_MQTT_OK/GD32VW55X_Wifi_BLE_SDK/GD32VW55x_RELEASE_V1.0.2/MSDK/cloud/alicloud/src/protocol/alcs\alcs_mqtt.c ****         uint64_t time_now = HAL_UptimeMs();
 2584              		.loc 1 580 8 is_stmt 0
 2585 0000 B7070000 		lui	a5,%hi(.LANCHOR1)
 2586 0004 83A70700 		lw	a5,%lo(.LANCHOR1)(a5)
 2587 0008 E1E3     		bne	a5,zero,.L216
 579:C:/Users/stapi/OneDrive/Desktop/GD32VW553/V1_MQTT_OK/GD32VW55X_Wifi_BLE_SDK/GD32VW55x_RELEASE_V1.0.2/MSDK/cloud/alicloud/src/protocol/alcs\alcs_mqtt.c ****     if (b_prefixkey == 0) {
 2588              		.loc 1 579 32
 2589 000a 17030000 		call	t0,__riscv_save_3
 2589      E7020300 
 2590              		.cfi_offset 18, -16
 2591              		.cfi_offset 9, -12
 2592              		.cfi_offset 8, -8
 2593              		.cfi_offset 1, -4
 2594              		.cfi_def_cfa_offset 16
 2595              	.LBB47:
 581:C:/Users/stapi/OneDrive/Desktop/GD32VW553/V1_MQTT_OK/GD32VW55X_Wifi_BLE_SDK/GD32VW55x_RELEASE_V1.0.2/MSDK/cloud/alicloud/src/protocol/alcs\alcs_mqtt.c ****         if (((time_now > b_retry_ms) && (time_now - b_retry_ms >= 10000)) ||
 2596              		.loc 1 581 9 is_stmt 1
 2597              	.LBE47:
 579:C:/Users/stapi/OneDrive/Desktop/GD32VW553/V1_MQTT_OK/GD32VW55X_Wifi_BLE_SDK/GD32VW55x_RELEASE_V1.0.2/MSDK/cloud/alicloud/src/protocol/alcs\alcs_mqtt.c ****     if (b_prefixkey == 0) {
 2598              		.loc 1 579 32 is_stmt 0
 2599 0012 3971     		addi	sp,sp,-64
 2600              		.cfi_def_cfa_offset 80
 2601              	.LBB49:
 581:C:/Users/stapi/OneDrive/Desktop/GD32VW553/V1_MQTT_OK/GD32VW55X_Wifi_BLE_SDK/GD32VW55x_RELEASE_V1.0.2/MSDK/cloud/alicloud/src/protocol/alcs\alcs_mqtt.c ****         if (((time_now > b_retry_ms) && (time_now - b_retry_ms >= 10000)) ||
 2602              		.loc 1 581 29
 2603 0014 97000000 		call	HAL_UptimeMs
 2603      E7800000 
 2604              	.LVL303:
 582:C:/Users/stapi/OneDrive/Desktop/GD32VW553/V1_MQTT_OK/GD32VW55X_Wifi_BLE_SDK/GD32VW55x_RELEASE_V1.0.2/MSDK/cloud/alicloud/src/protocol/alcs\alcs_mqtt.c ****             ((time_now <= b_retry_ms) && ((0xFFFFFFFFFFFFFFFF - b_retry_ms) + time_now >= 10000))) 
 2605              		.loc 1 582 24
 2606 001c 37090000 		lui	s2,%hi(.LANCHOR2)
 2607 0020 13070900 		addi	a4,s2,%lo(.LANCHOR2)
 2608 0024 1C43     		lw	a5,0(a4)
 2609 0026 5843     		lw	a4,4(a4)
 581:C:/Users/stapi/OneDrive/Desktop/GD32VW553/V1_MQTT_OK/GD32VW55X_Wifi_BLE_SDK/GD32VW55x_RELEASE_V1.0.2/MSDK/cloud/alicloud/src/protocol/alcs\alcs_mqtt.c ****         if (((time_now > b_retry_ms) && (time_now - b_retry_ms >= 10000)) ||
 2610              		.loc 1 581 29
 2611 0028 AA84     		mv	s1,a0
 2612 002a 2E84     		mv	s0,a1
 2613              	.LVL304:
 582:C:/Users/stapi/OneDrive/Desktop/GD32VW553/V1_MQTT_OK/GD32VW55X_Wifi_BLE_SDK/GD32VW55x_RELEASE_V1.0.2/MSDK/cloud/alicloud/src/protocol/alcs\alcs_mqtt.c ****             ((time_now <= b_retry_ms) && ((0xFFFFFFFFFFFFFFFF - b_retry_ms) + time_now >= 10000))) 
 2614              		.loc 1 582 9 is_stmt 1
 2615 002c 13090900 		addi	s2,s2,%lo(.LANCHOR2)
 582:C:/Users/stapi/OneDrive/Desktop/GD32VW553/V1_MQTT_OK/GD32VW55X_Wifi_BLE_SDK/GD32VW55x_RELEASE_V1.0.2/MSDK/cloud/alicloud/src/protocol/alcs\alcs_mqtt.c ****             ((time_now <= b_retry_ms) && ((0xFFFFFFFFFFFFFFFF - b_retry_ms) + time_now >= 10000))) 
 2616              		.loc 1 582 12 is_stmt 0
 2617 0030 6366B700 		bgtu	a1,a4,.L214
 2618 0034 6396E502 		bne	a1,a4,.L208
 2619 0038 63F4A702 		bleu	a0,a5,.L208
 2620              	.L214:
 582:C:/Users/stapi/OneDrive/Desktop/GD32VW553/V1_MQTT_OK/GD32VW55X_Wifi_BLE_SDK/GD32VW55x_RELEASE_V1.0.2/MSDK/cloud/alicloud/src/protocol/alcs\alcs_mqtt.c ****             ((time_now <= b_retry_ms) && ((0xFFFFFFFFFFFFFFFF - b_retry_ms) + time_now >= 10000))) 
 2621              		.loc 1 582 51 discriminator 1
 2622 003c B387F440 		sub	a5,s1,a5
 2623 0040 B3B6F400 		sgtu	a3,a5,s1
 2624 0044 3307E440 		sub	a4,s0,a4
 582:C:/Users/stapi/OneDrive/Desktop/GD32VW553/V1_MQTT_OK/GD32VW55X_Wifi_BLE_SDK/GD32VW55x_RELEASE_V1.0.2/MSDK/cloud/alicloud/src/protocol/alcs\alcs_mqtt.c ****             ((time_now <= b_retry_ms) && ((0xFFFFFFFFFFFFFFFF - b_retry_ms) + time_now >= 10000))) 
 2625              		.loc 1 582 38 discriminator 1
 2626 0048 631CD702 		bne	a4,a3,.L210
 2627 004c 0967     		li	a4,8192
 2628 004e 1307F770 		addi	a4,a4,1807
 2629 0052 6367F702 		bgtu	a5,a4,.L210
 2630              	.L205:
 2631              	.LBE49:
 592:C:/Users/stapi/OneDrive/Desktop/GD32VW553/V1_MQTT_OK/GD32VW55X_Wifi_BLE_SDK/GD32VW55x_RELEASE_V1.0.2/MSDK/cloud/alicloud/src/protocol/alcs\alcs_mqtt.c **** alcs_mqtt_status_e alcs_mqtt_init(void *handle, char *product_key, char *device_name)
 2632              		.loc 1 592 1
 2633 0056 2161     		addi	sp,sp,64
 2634              		.cfi_remember_state
 2635              		.cfi_def_cfa_offset 0
 2636 0058 17030000 		tail	__riscv_restore_3
 2636      67000300 
 2637              		.cfi_restore 18
 2638              		.cfi_restore 9
 2639              		.cfi_restore 8
 2640              		.cfi_restore 1
 2641              		.cfi_def_cfa_offset -16
 2642              	.L208:
 2643              		.cfi_restore_state
 2644              	.LBB50:
 583:C:/Users/stapi/OneDrive/Desktop/GD32VW553/V1_MQTT_OK/GD32VW55X_Wifi_BLE_SDK/GD32VW55x_RELEASE_V1.0.2/MSDK/cloud/alicloud/src/protocol/alcs\alcs_mqtt.c ****             char product_key[PRODUCT_KEY_MAXLEN] = {0};
 2645              		.loc 1 583 77
 2646 0060 93C7F7FF 		not	a5,a5
 2647 0064 1347F7FF 		not	a4,a4
 2648 0068 B3869700 		add	a3,a5,s1
 2649 006c B3B7F600 		sltu	a5,a3,a5
 2650 0070 2297     		add	a4,a4,s0
 2651 0072 BA97     		add	a5,a5,a4
 583:C:/Users/stapi/OneDrive/Desktop/GD32VW553/V1_MQTT_OK/GD32VW55X_Wifi_BLE_SDK/GD32VW55x_RELEASE_V1.0.2/MSDK/cloud/alicloud/src/protocol/alcs\alcs_mqtt.c ****             char product_key[PRODUCT_KEY_MAXLEN] = {0};
 2652              		.loc 1 583 39
 2653 0074 91E7     		bne	a5,zero,.L210
 2654 0076 8967     		li	a5,8192
 2655 0078 9387F770 		addi	a5,a5,1807
 2656 007c E3FDD7FC 		bleu	a3,a5,.L205
 2657              	.L210:
 2658              	.LBB48:
 584:C:/Users/stapi/OneDrive/Desktop/GD32VW553/V1_MQTT_OK/GD32VW55X_Wifi_BLE_SDK/GD32VW55x_RELEASE_V1.0.2/MSDK/cloud/alicloud/src/protocol/alcs\alcs_mqtt.c ****             char device_name[DEVICE_NAME_MAXLEN] = {0};
 2659              		.loc 1 584 13 is_stmt 1
 585:C:/Users/stapi/OneDrive/Desktop/GD32VW553/V1_MQTT_OK/GD32VW55X_Wifi_BLE_SDK/GD32VW55x_RELEASE_V1.0.2/MSDK/cloud/alicloud/src/protocol/alcs\alcs_mqtt.c ****             HAL_GetProductKey(product_key);
 2660              		.loc 1 585 18 is_stmt 0
 2661 0080 7546     		li	a2,29
 2662 0082 8145     		li	a1,0
 2663 0084 0810     		addi	a0,sp,32
 584:C:/Users/stapi/OneDrive/Desktop/GD32VW553/V1_MQTT_OK/GD32VW55X_Wifi_BLE_SDK/GD32VW55x_RELEASE_V1.0.2/MSDK/cloud/alicloud/src/protocol/alcs\alcs_mqtt.c ****             char device_name[DEVICE_NAME_MAXLEN] = {0};
 2664              		.loc 1 584 18
 2665 0086 02C2     		sw	zero,4(sp)
 2666 0088 02C4     		sw	zero,8(sp)
 2667 008a 02C6     		sw	zero,12(sp)
 2668 008c 02C8     		sw	zero,16(sp)
 2669 008e 02CA     		sw	zero,20(sp)
 2670 0090 230C0100 		sb	zero,24(sp)
 585:C:/Users/stapi/OneDrive/Desktop/GD32VW553/V1_MQTT_OK/GD32VW55X_Wifi_BLE_SDK/GD32VW55x_RELEASE_V1.0.2/MSDK/cloud/alicloud/src/protocol/alcs\alcs_mqtt.c ****             HAL_GetProductKey(product_key);
 2671              		.loc 1 585 13 is_stmt 1
 585:C:/Users/stapi/OneDrive/Desktop/GD32VW553/V1_MQTT_OK/GD32VW55X_Wifi_BLE_SDK/GD32VW55x_RELEASE_V1.0.2/MSDK/cloud/alicloud/src/protocol/alcs\alcs_mqtt.c ****             HAL_GetProductKey(product_key);
 2672              		.loc 1 585 18 is_stmt 0
 2673 0094 02CE     		sw	zero,28(sp)
 2674 0096 97000000 		call	memset
 2674      E7800000 
 2675              	.LVL305:
 586:C:/Users/stapi/OneDrive/Desktop/GD32VW553/V1_MQTT_OK/GD32VW55X_Wifi_BLE_SDK/GD32VW55x_RELEASE_V1.0.2/MSDK/cloud/alicloud/src/protocol/alcs\alcs_mqtt.c ****             HAL_GetDeviceName(device_name);
 2676              		.loc 1 586 13 is_stmt 1
 2677 009e 4800     		addi	a0,sp,4
 2678 00a0 97000000 		call	HAL_GetProductKey
 2678      E7800000 
 2679              	.LVL306:
 587:C:/Users/stapi/OneDrive/Desktop/GD32VW553/V1_MQTT_OK/GD32VW55X_Wifi_BLE_SDK/GD32VW55x_RELEASE_V1.0.2/MSDK/cloud/alicloud/src/protocol/alcs\alcs_mqtt.c ****             alcs_prefixkey_get(product_key, device_name);
 2680              		.loc 1 587 13
 2681 00a8 6808     		addi	a0,sp,28
 2682 00aa 97000000 		call	HAL_GetDeviceName
 2682      E7800000 
 2683              	.LVL307:
 588:C:/Users/stapi/OneDrive/Desktop/GD32VW553/V1_MQTT_OK/GD32VW55X_Wifi_BLE_SDK/GD32VW55x_RELEASE_V1.0.2/MSDK/cloud/alicloud/src/protocol/alcs\alcs_mqtt.c ****             b_retry_ms = time_now;
 2684              		.loc 1 588 13
 2685 00b2 6C08     		addi	a1,sp,28
 2686 00b4 4800     		addi	a0,sp,4
 2687 00b6 97000000 		call	alcs_prefixkey_get
 2687      E7800000 
 2688              	.LVL308:
 589:C:/Users/stapi/OneDrive/Desktop/GD32VW553/V1_MQTT_OK/GD32VW55X_Wifi_BLE_SDK/GD32VW55x_RELEASE_V1.0.2/MSDK/cloud/alicloud/src/protocol/alcs\alcs_mqtt.c ****         }
 2689              		.loc 1 589 13
 589:C:/Users/stapi/OneDrive/Desktop/GD32VW553/V1_MQTT_OK/GD32VW55X_Wifi_BLE_SDK/GD32VW55x_RELEASE_V1.0.2/MSDK/cloud/alicloud/src/protocol/alcs\alcs_mqtt.c ****         }
 2690              		.loc 1 589 24 is_stmt 0
 2691 00be 23209900 		sw	s1,0(s2)
 2692 00c2 23228900 		sw	s0,4(s2)
 2693              	.LBE48:
 2694              	.LBE50:
 592:C:/Users/stapi/OneDrive/Desktop/GD32VW553/V1_MQTT_OK/GD32VW55X_Wifi_BLE_SDK/GD32VW55x_RELEASE_V1.0.2/MSDK/cloud/alicloud/src/protocol/alcs\alcs_mqtt.c **** alcs_mqtt_status_e alcs_mqtt_init(void *handle, char *product_key, char *device_name)
 2695              		.loc 1 592 1
 2696 00c6 41BF     		j	.L205
 2697              	.LVL309:
 2698              	.L216:
 2699              		.cfi_def_cfa_offset 0
 2700              		.cfi_restore 1
 2701              		.cfi_restore 8
 2702              		.cfi_restore 9
 2703              		.cfi_restore 18
 2704 00c8 8280     		ret
 2705              		.cfi_endproc
 2706              	.LFE31:
 2708              		.section	.rodata.alcs_mqtt_init.str1.4,"aMS",@progbits,1
 2709              		.align	2
 2710              	.LC40:
 2711 0000 414C4353 		.string	"ALCS Subscribe Failed, Topic: %s"
 2711      20537562 
 2711      73637269 
 2711      62652046 
 2711      61696C65 
 2712              		.section	.text.alcs_mqtt_init,"ax",@progbits
 2713              		.align	1
 2714              		.globl	alcs_mqtt_init
 2716              	alcs_mqtt_init:
 2717              	.LFB32:
 594:C:/Users/stapi/OneDrive/Desktop/GD32VW553/V1_MQTT_OK/GD32VW55X_Wifi_BLE_SDK/GD32VW55x_RELEASE_V1.0.2/MSDK/cloud/alicloud/src/protocol/alcs\alcs_mqtt.c ****     char topic[ALCS_MQTT_TOPIC_MAX_LEN] = {0};
 2718              		.loc 1 594 1 is_stmt 1
 2719              		.cfi_startproc
 2720              	.LVL310:
 2721 0000 17030000 		call	t0,__riscv_save_6
 2721      E7020300 
 2722              		.cfi_offset 21, -28
 2723              		.cfi_offset 20, -24
 2724              		.cfi_offset 19, -20
 2725              		.cfi_offset 18, -16
 2726              		.cfi_offset 9, -12
 2727              		.cfi_offset 8, -8
 2728              		.cfi_offset 1, -4
 2729              		.cfi_def_cfa_offset 32
 595:C:/Users/stapi/OneDrive/Desktop/GD32VW553/V1_MQTT_OK/GD32VW55X_Wifi_BLE_SDK/GD32VW55x_RELEASE_V1.0.2/MSDK/cloud/alicloud/src/protocol/alcs\alcs_mqtt.c ****     alcs_mqtt_status_e status = ALCS_MQTT_STATUS_SUCCESS;
 2730              		.loc 1 595 5
 594:C:/Users/stapi/OneDrive/Desktop/GD32VW553/V1_MQTT_OK/GD32VW55X_Wifi_BLE_SDK/GD32VW55x_RELEASE_V1.0.2/MSDK/cloud/alicloud/src/protocol/alcs\alcs_mqtt.c ****     char topic[ALCS_MQTT_TOPIC_MAX_LEN] = {0};
 2731              		.loc 1 594 1 is_stmt 0
 2732 0008 1971     		addi	sp,sp,-128
 2733              		.cfi_def_cfa_offset 160
 594:C:/Users/stapi/OneDrive/Desktop/GD32VW553/V1_MQTT_OK/GD32VW55X_Wifi_BLE_SDK/GD32VW55x_RELEASE_V1.0.2/MSDK/cloud/alicloud/src/protocol/alcs\alcs_mqtt.c ****     char topic[ALCS_MQTT_TOPIC_MAX_LEN] = {0};
 2734              		.loc 1 594 1
 2735 000a 2A8A     		mv	s4,a0
 2736 000c 2E89     		mv	s2,a1
 2737 000e B284     		mv	s1,a2
 595:C:/Users/stapi/OneDrive/Desktop/GD32VW553/V1_MQTT_OK/GD32VW55X_Wifi_BLE_SDK/GD32VW55x_RELEASE_V1.0.2/MSDK/cloud/alicloud/src/protocol/alcs\alcs_mqtt.c ****     alcs_mqtt_status_e status = ALCS_MQTT_STATUS_SUCCESS;
 2738              		.loc 1 595 10
 2739 0010 8145     		li	a1,0
 2740              	.LVL311:
 2741 0012 1306C007 		li	a2,124
 2742              	.LVL312:
 2743 0016 4800     		addi	a0,sp,4
 2744              	.LVL313:
 2745 0018 02C0     		sw	zero,0(sp)
 601:C:/Users/stapi/OneDrive/Desktop/GD32VW553/V1_MQTT_OK/GD32VW55X_Wifi_BLE_SDK/GD32VW55x_RELEASE_V1.0.2/MSDK/cloud/alicloud/src/protocol/alcs\alcs_mqtt.c ****     }
 2746              		.loc 1 601 16
 2747 001a 0544     		li	s0,1
 595:C:/Users/stapi/OneDrive/Desktop/GD32VW553/V1_MQTT_OK/GD32VW55X_Wifi_BLE_SDK/GD32VW55x_RELEASE_V1.0.2/MSDK/cloud/alicloud/src/protocol/alcs\alcs_mqtt.c ****     alcs_mqtt_status_e status = ALCS_MQTT_STATUS_SUCCESS;
 2748              		.loc 1 595 10
 2749 001c 97000000 		call	memset
 2749      E7800000 
 2750              	.LVL314:
 596:C:/Users/stapi/OneDrive/Desktop/GD32VW553/V1_MQTT_OK/GD32VW55X_Wifi_BLE_SDK/GD32VW55x_RELEASE_V1.0.2/MSDK/cloud/alicloud/src/protocol/alcs\alcs_mqtt.c ****     alcs_mqtt_ctx_t *ctx =  __alcs_mqtt_get_ctx();
 2751              		.loc 1 596 5 is_stmt 1
 597:C:/Users/stapi/OneDrive/Desktop/GD32VW553/V1_MQTT_OK/GD32VW55X_Wifi_BLE_SDK/GD32VW55x_RELEASE_V1.0.2/MSDK/cloud/alicloud/src/protocol/alcs\alcs_mqtt.c **** 
 2752              		.loc 1 597 5
  26:C:/Users/stapi/OneDrive/Desktop/GD32VW553/V1_MQTT_OK/GD32VW55X_Wifi_BLE_SDK/GD32VW55x_RELEASE_V1.0.2/MSDK/cloud/alicloud/src/protocol/alcs\alcs_mqtt.c **** }
 2753              		.loc 1 26 5
 599:C:/Users/stapi/OneDrive/Desktop/GD32VW553/V1_MQTT_OK/GD32VW55X_Wifi_BLE_SDK/GD32VW55x_RELEASE_V1.0.2/MSDK/cloud/alicloud/src/protocol/alcs\alcs_mqtt.c ****         device_name == NULL || strlen(device_name) > DEVICE_NAME_LEN) {
 2754              		.loc 1 599 5
 599:C:/Users/stapi/OneDrive/Desktop/GD32VW553/V1_MQTT_OK/GD32VW55X_Wifi_BLE_SDK/GD32VW55x_RELEASE_V1.0.2/MSDK/cloud/alicloud/src/protocol/alcs\alcs_mqtt.c ****         device_name == NULL || strlen(device_name) > DEVICE_NAME_LEN) {
 2755              		.loc 1 599 8 is_stmt 0
 2756 0024 630C0A1E 		beq	s4,zero,.L219
 599:C:/Users/stapi/OneDrive/Desktop/GD32VW553/V1_MQTT_OK/GD32VW55X_Wifi_BLE_SDK/GD32VW55x_RELEASE_V1.0.2/MSDK/cloud/alicloud/src/protocol/alcs\alcs_mqtt.c ****         device_name == NULL || strlen(device_name) > DEVICE_NAME_LEN) {
 2757              		.loc 1 599 24 discriminator 1
 2758 0028 630A091E 		beq	s2,zero,.L219
 599:C:/Users/stapi/OneDrive/Desktop/GD32VW553/V1_MQTT_OK/GD32VW55X_Wifi_BLE_SDK/GD32VW55x_RELEASE_V1.0.2/MSDK/cloud/alicloud/src/protocol/alcs\alcs_mqtt.c ****         device_name == NULL || strlen(device_name) > DEVICE_NAME_LEN) {
 2759              		.loc 1 599 50 discriminator 2
 2760 002c 4A85     		mv	a0,s2
 2761 002e 97000000 		call	strlen
 2761      E7800000 
 2762              	.LVL315:
 599:C:/Users/stapi/OneDrive/Desktop/GD32VW553/V1_MQTT_OK/GD32VW55X_Wifi_BLE_SDK/GD32VW55x_RELEASE_V1.0.2/MSDK/cloud/alicloud/src/protocol/alcs\alcs_mqtt.c ****         device_name == NULL || strlen(device_name) > DEVICE_NAME_LEN) {
 2763              		.loc 1 599 47 discriminator 2
 2764 0036 D147     		li	a5,20
 2765 0038 63E2A71E 		bgtu	a0,a5,.L219
 599:C:/Users/stapi/OneDrive/Desktop/GD32VW553/V1_MQTT_OK/GD32VW55X_Wifi_BLE_SDK/GD32VW55x_RELEASE_V1.0.2/MSDK/cloud/alicloud/src/protocol/alcs\alcs_mqtt.c ****         device_name == NULL || strlen(device_name) > DEVICE_NAME_LEN) {
 2766              		.loc 1 599 88 discriminator 3
 2767 003c 6380041E 		beq	s1,zero,.L219
 600:C:/Users/stapi/OneDrive/Desktop/GD32VW553/V1_MQTT_OK/GD32VW55X_Wifi_BLE_SDK/GD32VW55x_RELEASE_V1.0.2/MSDK/cloud/alicloud/src/protocol/alcs\alcs_mqtt.c ****         return ALCS_MQTT_STATUS_ERROR;
 2768              		.loc 1 600 32
 2769 0040 2685     		mv	a0,s1
 2770 0042 97000000 		call	strlen
 2770      E7800000 
 2771              	.LVL316:
 600:C:/Users/stapi/OneDrive/Desktop/GD32VW553/V1_MQTT_OK/GD32VW55X_Wifi_BLE_SDK/GD32VW55x_RELEASE_V1.0.2/MSDK/cloud/alicloud/src/protocol/alcs\alcs_mqtt.c ****         return ALCS_MQTT_STATUS_ERROR;
 2772              		.loc 1 600 29
 2773 004a 93070002 		li	a5,32
 2774 004e 63E7A71C 		bgtu	a0,a5,.L219
 604:C:/Users/stapi/OneDrive/Desktop/GD32VW553/V1_MQTT_OK/GD32VW55X_Wifi_BLE_SDK/GD32VW55x_RELEASE_V1.0.2/MSDK/cloud/alicloud/src/protocol/alcs\alcs_mqtt.c ****     ctx->coap_ctx = (CoAPContext *)handle;
 2775              		.loc 1 604 5 is_stmt 1
 2776 0052 B7090000 		lui	s3,%hi(.LANCHOR0)
 2777 0056 13840900 		addi	s0,s3,%lo(.LANCHOR0)
 2778 005a 930A4400 		addi	s5,s0,4
 2779 005e 13068005 		li	a2,88
 2780 0062 8145     		li	a1,0
 2781 0064 5685     		mv	a0,s5
 2782 0066 97000000 		call	memset
 2782      E7800000 
 2783              	.LVL317:
 605:C:/Users/stapi/OneDrive/Desktop/GD32VW553/V1_MQTT_OK/GD32VW55X_Wifi_BLE_SDK/GD32VW55x_RELEASE_V1.0.2/MSDK/cloud/alicloud/src/protocol/alcs\alcs_mqtt.c ****     memcpy(ctx->product_key, product_key, strlen(product_key));
 2784              		.loc 1 605 5
 606:C:/Users/stapi/OneDrive/Desktop/GD32VW553/V1_MQTT_OK/GD32VW55X_Wifi_BLE_SDK/GD32VW55x_RELEASE_V1.0.2/MSDK/cloud/alicloud/src/protocol/alcs\alcs_mqtt.c ****     memcpy(ctx->device_name, device_name, strlen(device_name));
 2785              		.loc 1 606 5 is_stmt 0
 2786 006e 4A85     		mv	a0,s2
 605:C:/Users/stapi/OneDrive/Desktop/GD32VW553/V1_MQTT_OK/GD32VW55X_Wifi_BLE_SDK/GD32VW55x_RELEASE_V1.0.2/MSDK/cloud/alicloud/src/protocol/alcs\alcs_mqtt.c ****     memcpy(ctx->product_key, product_key, strlen(product_key));
 2787              		.loc 1 605 19
 2788 0070 23204401 		sw	s4,0(s0)
 606:C:/Users/stapi/OneDrive/Desktop/GD32VW553/V1_MQTT_OK/GD32VW55X_Wifi_BLE_SDK/GD32VW55x_RELEASE_V1.0.2/MSDK/cloud/alicloud/src/protocol/alcs\alcs_mqtt.c ****     memcpy(ctx->device_name, device_name, strlen(device_name));
 2789              		.loc 1 606 5 is_stmt 1
 2790 0074 97000000 		call	strlen
 2790      E7800000 
 2791              	.LVL318:
 2792 007c 2A86     		mv	a2,a0
 2793 007e CA85     		mv	a1,s2
 2794 0080 5685     		mv	a0,s5
 2795 0082 97000000 		call	memcpy
 2795      E7800000 
 2796              	.LVL319:
 607:C:/Users/stapi/OneDrive/Desktop/GD32VW553/V1_MQTT_OK/GD32VW55X_Wifi_BLE_SDK/GD32VW55x_RELEASE_V1.0.2/MSDK/cloud/alicloud/src/protocol/alcs\alcs_mqtt.c **** 
 2797              		.loc 1 607 5
 2798 008a 2685     		mv	a0,s1
 2799 008c 97000000 		call	strlen
 2799      E7800000 
 2800              	.LVL320:
 2801 0094 6104     		addi	s0,s0,24
 2802 0096 2A86     		mv	a2,a0
 2803 0098 A685     		mv	a1,s1
 2804 009a 2285     		mv	a0,s0
 2805 009c 97000000 		call	memcpy
 2805      E7800000 
 2806              	.LVL321:
 609:C:/Users/stapi/OneDrive/Desktop/GD32VW553/V1_MQTT_OK/GD32VW55X_Wifi_BLE_SDK/GD32VW55x_RELEASE_V1.0.2/MSDK/cloud/alicloud/src/protocol/alcs\alcs_mqtt.c ****     snprintf(topic, ALCS_MQTT_TOPIC_MAX_LEN, ALCS_MQTT_PREFIX ALCS_MQTT_THING_LAN_PREFIX_GET_REPLY_
 2807              		.loc 1 609 5
 2808 00a4 13060008 		li	a2,128
 2809 00a8 8145     		li	a1,0
 2810 00aa 0A85     		mv	a0,sp
 2811 00ac 97000000 		call	memset
 2811      E7800000 
 2812              	.LVL322:
 610:C:/Users/stapi/OneDrive/Desktop/GD32VW553/V1_MQTT_OK/GD32VW55X_Wifi_BLE_SDK/GD32VW55x_RELEASE_V1.0.2/MSDK/cloud/alicloud/src/protocol/alcs\alcs_mqtt.c ****              ctx->product_key, ctx->device_name);
 2813              		.loc 1 610 5
 2814 00b4 37060000 		lui	a2,%hi(.LC14)
 2815 00b8 2287     		mv	a4,s0
 2816 00ba D686     		mv	a3,s5
 2817 00bc 13060600 		addi	a2,a2,%lo(.LC14)
 2818 00c0 93050008 		li	a1,128
 2819 00c4 0A85     		mv	a0,sp
 2820 00c6 97000000 		call	snprintf
 2820      E7800000 
 2821              	.LVL323:
 612:C:/Users/stapi/OneDrive/Desktop/GD32VW553/V1_MQTT_OK/GD32VW55X_Wifi_BLE_SDK/GD32VW55x_RELEASE_V1.0.2/MSDK/cloud/alicloud/src/protocol/alcs\alcs_mqtt.c ****         COAP_ERR("ALCS Subscribe Failed, Topic: %s", topic);
 2822              		.loc 1 612 5
 612:C:/Users/stapi/OneDrive/Desktop/GD32VW553/V1_MQTT_OK/GD32VW55X_Wifi_BLE_SDK/GD32VW55x_RELEASE_V1.0.2/MSDK/cloud/alicloud/src/protocol/alcs\alcs_mqtt.c ****         COAP_ERR("ALCS Subscribe Failed, Topic: %s", topic);
 2823              		.loc 1 612 9 is_stmt 0
 2824 00ce 0A85     		mv	a0,sp
 2825 00d0 97000000 		call	__alcs_mqtt_subscribe.constprop.0
 2825      E7800000 
 2826              	.LVL324:
 2827 00d8 B7040000 		lui	s1,%hi(.LANCHOR0+4)
 2828              	.LVL325:
 2829 00dc 37090000 		lui	s2,%hi(.LANCHOR0+24)
 2830              	.LVL326:
 2831 00e0 2A84     		mv	s0,a0
 2832 00e2 93890900 		addi	s3,s3,%lo(.LANCHOR0)
 2833 00e6 93844400 		addi	s1,s1,%lo(.LANCHOR0+4)
 2834 00ea 13098901 		addi	s2,s2,%lo(.LANCHOR0+24)
 612:C:/Users/stapi/OneDrive/Desktop/GD32VW553/V1_MQTT_OK/GD32VW55X_Wifi_BLE_SDK/GD32VW55x_RELEASE_V1.0.2/MSDK/cloud/alicloud/src/protocol/alcs\alcs_mqtt.c ****         COAP_ERR("ALCS Subscribe Failed, Topic: %s", topic);
 2835              		.loc 1 612 8
 2836 00ee 1DC9     		beq	a0,zero,.L221
 613:C:/Users/stapi/OneDrive/Desktop/GD32VW553/V1_MQTT_OK/GD32VW55X_Wifi_BLE_SDK/GD32VW55x_RELEASE_V1.0.2/MSDK/cloud/alicloud/src/protocol/alcs\alcs_mqtt.c ****         status = ALCS_MQTT_STATUS_ERROR;
 2837              		.loc 1 613 9 is_stmt 1
 613:C:/Users/stapi/OneDrive/Desktop/GD32VW553/V1_MQTT_OK/GD32VW55X_Wifi_BLE_SDK/GD32VW55x_RELEASE_V1.0.2/MSDK/cloud/alicloud/src/protocol/alcs\alcs_mqtt.c ****         status = ALCS_MQTT_STATUS_ERROR;
 2838              		.loc 1 613 9
 2839 00f0 37050000 		lui	a0,%hi(.LC7)
 2840 00f4 13050500 		addi	a0,a0,%lo(.LC7)
 2841 00f8 97000000 		call	HAL_Printf
 2841      E7800000 
 2842              	.LVL327:
 613:C:/Users/stapi/OneDrive/Desktop/GD32VW553/V1_MQTT_OK/GD32VW55X_Wifi_BLE_SDK/GD32VW55x_RELEASE_V1.0.2/MSDK/cloud/alicloud/src/protocol/alcs\alcs_mqtt.c ****         status = ALCS_MQTT_STATUS_ERROR;
 2843              		.loc 1 613 9
 2844 0100 37050000 		lui	a0,%hi(.LC40)
 2845 0104 8A85     		mv	a1,sp
 2846 0106 13050500 		addi	a0,a0,%lo(.LC40)
 2847 010a 97000000 		call	HAL_Printf
 2847      E7800000 
 2848              	.LVL328:
 613:C:/Users/stapi/OneDrive/Desktop/GD32VW553/V1_MQTT_OK/GD32VW55X_Wifi_BLE_SDK/GD32VW55x_RELEASE_V1.0.2/MSDK/cloud/alicloud/src/protocol/alcs\alcs_mqtt.c ****         status = ALCS_MQTT_STATUS_ERROR;
 2849              		.loc 1 613 9
 2850 0112 37050000 		lui	a0,%hi(.LC2)
 2851 0116 13050500 		addi	a0,a0,%lo(.LC2)
 2852 011a 97000000 		call	HAL_Printf
 2852      E7800000 
 2853              	.LVL329:
 613:C:/Users/stapi/OneDrive/Desktop/GD32VW553/V1_MQTT_OK/GD32VW55X_Wifi_BLE_SDK/GD32VW55x_RELEASE_V1.0.2/MSDK/cloud/alicloud/src/protocol/alcs\alcs_mqtt.c ****         status = ALCS_MQTT_STATUS_ERROR;
 2854              		.loc 1 613 9
 614:C:/Users/stapi/OneDrive/Desktop/GD32VW553/V1_MQTT_OK/GD32VW55X_Wifi_BLE_SDK/GD32VW55x_RELEASE_V1.0.2/MSDK/cloud/alicloud/src/protocol/alcs\alcs_mqtt.c ****     }
 2855              		.loc 1 614 9
 614:C:/Users/stapi/OneDrive/Desktop/GD32VW553/V1_MQTT_OK/GD32VW55X_Wifi_BLE_SDK/GD32VW55x_RELEASE_V1.0.2/MSDK/cloud/alicloud/src/protocol/alcs\alcs_mqtt.c ****     }
 2856              		.loc 1 614 16 is_stmt 0
 2857 0122 0544     		li	s0,1
 2858              	.LVL330:
 2859              	.L221:
 617:C:/Users/stapi/OneDrive/Desktop/GD32VW553/V1_MQTT_OK/GD32VW55X_Wifi_BLE_SDK/GD32VW55x_RELEASE_V1.0.2/MSDK/cloud/alicloud/src/protocol/alcs\alcs_mqtt.c ****     snprintf(topic, ALCS_MQTT_TOPIC_MAX_LEN, ALCS_MQTT_PREFIX ALCS_MQTT_THING_LAN_PREFIX_UPDATE_FMT
 2860              		.loc 1 617 5 is_stmt 1
 2861 0124 13060008 		li	a2,128
 2862 0128 8145     		li	a1,0
 2863 012a 0A85     		mv	a0,sp
 2864 012c 97000000 		call	memset
 2864      E7800000 
 2865              	.LVL331:
 618:C:/Users/stapi/OneDrive/Desktop/GD32VW553/V1_MQTT_OK/GD32VW55X_Wifi_BLE_SDK/GD32VW55x_RELEASE_V1.0.2/MSDK/cloud/alicloud/src/protocol/alcs\alcs_mqtt.c ****              ctx->product_key, ctx->device_name);
 2866              		.loc 1 618 5
 2867 0134 37060000 		lui	a2,%hi(.LC22)
 2868 0138 4A87     		mv	a4,s2
 2869 013a A686     		mv	a3,s1
 2870 013c 13060600 		addi	a2,a2,%lo(.LC22)
 2871 0140 93050008 		li	a1,128
 2872 0144 0A85     		mv	a0,sp
 2873 0146 97000000 		call	snprintf
 2873      E7800000 
 2874              	.LVL332:
 620:C:/Users/stapi/OneDrive/Desktop/GD32VW553/V1_MQTT_OK/GD32VW55X_Wifi_BLE_SDK/GD32VW55x_RELEASE_V1.0.2/MSDK/cloud/alicloud/src/protocol/alcs\alcs_mqtt.c ****         COAP_ERR("ALCS Subscribe Failed, Topic: %s", topic);
 2875              		.loc 1 620 5
 620:C:/Users/stapi/OneDrive/Desktop/GD32VW553/V1_MQTT_OK/GD32VW55X_Wifi_BLE_SDK/GD32VW55x_RELEASE_V1.0.2/MSDK/cloud/alicloud/src/protocol/alcs\alcs_mqtt.c ****         COAP_ERR("ALCS Subscribe Failed, Topic: %s", topic);
 2876              		.loc 1 620 9 is_stmt 0
 2877 014e 0A85     		mv	a0,sp
 2878 0150 97000000 		call	__alcs_mqtt_subscribe.constprop.0
 2878      E7800000 
 2879              	.LVL333:
 620:C:/Users/stapi/OneDrive/Desktop/GD32VW553/V1_MQTT_OK/GD32VW55X_Wifi_BLE_SDK/GD32VW55x_RELEASE_V1.0.2/MSDK/cloud/alicloud/src/protocol/alcs\alcs_mqtt.c ****         COAP_ERR("ALCS Subscribe Failed, Topic: %s", topic);
 2880              		.loc 1 620 8
 2881 0158 1DC9     		beq	a0,zero,.L222
 621:C:/Users/stapi/OneDrive/Desktop/GD32VW553/V1_MQTT_OK/GD32VW55X_Wifi_BLE_SDK/GD32VW55x_RELEASE_V1.0.2/MSDK/cloud/alicloud/src/protocol/alcs\alcs_mqtt.c ****         status = ALCS_MQTT_STATUS_ERROR;
 2882              		.loc 1 621 9 is_stmt 1
 621:C:/Users/stapi/OneDrive/Desktop/GD32VW553/V1_MQTT_OK/GD32VW55X_Wifi_BLE_SDK/GD32VW55x_RELEASE_V1.0.2/MSDK/cloud/alicloud/src/protocol/alcs\alcs_mqtt.c ****         status = ALCS_MQTT_STATUS_ERROR;
 2883              		.loc 1 621 9
 2884 015a 37050000 		lui	a0,%hi(.LC7)
 2885 015e 13050500 		addi	a0,a0,%lo(.LC7)
 2886 0162 97000000 		call	HAL_Printf
 2886      E7800000 
 2887              	.LVL334:
 621:C:/Users/stapi/OneDrive/Desktop/GD32VW553/V1_MQTT_OK/GD32VW55X_Wifi_BLE_SDK/GD32VW55x_RELEASE_V1.0.2/MSDK/cloud/alicloud/src/protocol/alcs\alcs_mqtt.c ****         status = ALCS_MQTT_STATUS_ERROR;
 2888              		.loc 1 621 9
 2889 016a 37050000 		lui	a0,%hi(.LC40)
 2890 016e 8A85     		mv	a1,sp
 2891 0170 13050500 		addi	a0,a0,%lo(.LC40)
 2892 0174 97000000 		call	HAL_Printf
 2892      E7800000 
 2893              	.LVL335:
 621:C:/Users/stapi/OneDrive/Desktop/GD32VW553/V1_MQTT_OK/GD32VW55X_Wifi_BLE_SDK/GD32VW55x_RELEASE_V1.0.2/MSDK/cloud/alicloud/src/protocol/alcs\alcs_mqtt.c ****         status = ALCS_MQTT_STATUS_ERROR;
 2894              		.loc 1 621 9
 2895 017c 37050000 		lui	a0,%hi(.LC2)
 2896 0180 13050500 		addi	a0,a0,%lo(.LC2)
 2897 0184 97000000 		call	HAL_Printf
 2897      E7800000 
 2898              	.LVL336:
 621:C:/Users/stapi/OneDrive/Desktop/GD32VW553/V1_MQTT_OK/GD32VW55X_Wifi_BLE_SDK/GD32VW55x_RELEASE_V1.0.2/MSDK/cloud/alicloud/src/protocol/alcs\alcs_mqtt.c ****         status = ALCS_MQTT_STATUS_ERROR;
 2899              		.loc 1 621 9
 622:C:/Users/stapi/OneDrive/Desktop/GD32VW553/V1_MQTT_OK/GD32VW55X_Wifi_BLE_SDK/GD32VW55x_RELEASE_V1.0.2/MSDK/cloud/alicloud/src/protocol/alcs\alcs_mqtt.c ****     }
 2900              		.loc 1 622 9
 622:C:/Users/stapi/OneDrive/Desktop/GD32VW553/V1_MQTT_OK/GD32VW55X_Wifi_BLE_SDK/GD32VW55x_RELEASE_V1.0.2/MSDK/cloud/alicloud/src/protocol/alcs\alcs_mqtt.c ****     }
 2901              		.loc 1 622 16 is_stmt 0
 2902 018c 0544     		li	s0,1
 2903              	.LVL337:
 2904              	.L222:
 625:C:/Users/stapi/OneDrive/Desktop/GD32VW553/V1_MQTT_OK/GD32VW55X_Wifi_BLE_SDK/GD32VW55x_RELEASE_V1.0.2/MSDK/cloud/alicloud/src/protocol/alcs\alcs_mqtt.c ****     snprintf(topic, ALCS_MQTT_TOPIC_MAX_LEN, ALCS_MQTT_PREFIX ALCS_MQTT_THING_LAN_PREFIX_BLACKLIST_
 2905              		.loc 1 625 5 is_stmt 1
 2906 018e 13060008 		li	a2,128
 2907 0192 8145     		li	a1,0
 2908 0194 0A85     		mv	a0,sp
 2909 0196 97000000 		call	memset
 2909      E7800000 
 2910              	.LVL338:
 626:C:/Users/stapi/OneDrive/Desktop/GD32VW553/V1_MQTT_OK/GD32VW55X_Wifi_BLE_SDK/GD32VW55x_RELEASE_V1.0.2/MSDK/cloud/alicloud/src/protocol/alcs\alcs_mqtt.c ****              ctx->product_key, ctx->device_name);
 2911              		.loc 1 626 5
 2912 019e 37060000 		lui	a2,%hi(.LC30)
 2913 01a2 4A87     		mv	a4,s2
 2914 01a4 A686     		mv	a3,s1
 2915 01a6 13060600 		addi	a2,a2,%lo(.LC30)
 2916 01aa 93050008 		li	a1,128
 2917 01ae 0A85     		mv	a0,sp
 2918 01b0 97000000 		call	snprintf
 2918      E7800000 
 2919              	.LVL339:
 628:C:/Users/stapi/OneDrive/Desktop/GD32VW553/V1_MQTT_OK/GD32VW55X_Wifi_BLE_SDK/GD32VW55x_RELEASE_V1.0.2/MSDK/cloud/alicloud/src/protocol/alcs\alcs_mqtt.c ****         COAP_ERR("ALCS Subscribe Failed, Topic: %s", topic);
 2920              		.loc 1 628 5
 628:C:/Users/stapi/OneDrive/Desktop/GD32VW553/V1_MQTT_OK/GD32VW55X_Wifi_BLE_SDK/GD32VW55x_RELEASE_V1.0.2/MSDK/cloud/alicloud/src/protocol/alcs\alcs_mqtt.c ****         COAP_ERR("ALCS Subscribe Failed, Topic: %s", topic);
 2921              		.loc 1 628 9 is_stmt 0
 2922 01b8 0A85     		mv	a0,sp
 2923 01ba 97000000 		call	__alcs_mqtt_subscribe.constprop.0
 2923      E7800000 
 2924              	.LVL340:
 628:C:/Users/stapi/OneDrive/Desktop/GD32VW553/V1_MQTT_OK/GD32VW55X_Wifi_BLE_SDK/GD32VW55x_RELEASE_V1.0.2/MSDK/cloud/alicloud/src/protocol/alcs\alcs_mqtt.c ****         COAP_ERR("ALCS Subscribe Failed, Topic: %s", topic);
 2925              		.loc 1 628 8
 2926 01c2 1DC9     		beq	a0,zero,.L223
 629:C:/Users/stapi/OneDrive/Desktop/GD32VW553/V1_MQTT_OK/GD32VW55X_Wifi_BLE_SDK/GD32VW55x_RELEASE_V1.0.2/MSDK/cloud/alicloud/src/protocol/alcs\alcs_mqtt.c ****         status = ALCS_MQTT_STATUS_ERROR;
 2927              		.loc 1 629 9 is_stmt 1
 629:C:/Users/stapi/OneDrive/Desktop/GD32VW553/V1_MQTT_OK/GD32VW55X_Wifi_BLE_SDK/GD32VW55x_RELEASE_V1.0.2/MSDK/cloud/alicloud/src/protocol/alcs\alcs_mqtt.c ****         status = ALCS_MQTT_STATUS_ERROR;
 2928              		.loc 1 629 9
 2929 01c4 37050000 		lui	a0,%hi(.LC7)
 2930 01c8 13050500 		addi	a0,a0,%lo(.LC7)
 2931 01cc 97000000 		call	HAL_Printf
 2931      E7800000 
 2932              	.LVL341:
 629:C:/Users/stapi/OneDrive/Desktop/GD32VW553/V1_MQTT_OK/GD32VW55X_Wifi_BLE_SDK/GD32VW55x_RELEASE_V1.0.2/MSDK/cloud/alicloud/src/protocol/alcs\alcs_mqtt.c ****         status = ALCS_MQTT_STATUS_ERROR;
 2933              		.loc 1 629 9
 2934 01d4 37050000 		lui	a0,%hi(.LC40)
 2935 01d8 8A85     		mv	a1,sp
 2936 01da 13050500 		addi	a0,a0,%lo(.LC40)
 2937 01de 97000000 		call	HAL_Printf
 2937      E7800000 
 2938              	.LVL342:
 629:C:/Users/stapi/OneDrive/Desktop/GD32VW553/V1_MQTT_OK/GD32VW55X_Wifi_BLE_SDK/GD32VW55x_RELEASE_V1.0.2/MSDK/cloud/alicloud/src/protocol/alcs\alcs_mqtt.c ****         status = ALCS_MQTT_STATUS_ERROR;
 2939              		.loc 1 629 9
 2940 01e6 37050000 		lui	a0,%hi(.LC2)
 2941 01ea 13050500 		addi	a0,a0,%lo(.LC2)
 2942 01ee 97000000 		call	HAL_Printf
 2942      E7800000 
 2943              	.LVL343:
 629:C:/Users/stapi/OneDrive/Desktop/GD32VW553/V1_MQTT_OK/GD32VW55X_Wifi_BLE_SDK/GD32VW55x_RELEASE_V1.0.2/MSDK/cloud/alicloud/src/protocol/alcs\alcs_mqtt.c ****         status = ALCS_MQTT_STATUS_ERROR;
 2944              		.loc 1 629 9
 630:C:/Users/stapi/OneDrive/Desktop/GD32VW553/V1_MQTT_OK/GD32VW55X_Wifi_BLE_SDK/GD32VW55x_RELEASE_V1.0.2/MSDK/cloud/alicloud/src/protocol/alcs\alcs_mqtt.c ****     }
 2945              		.loc 1 630 9
 630:C:/Users/stapi/OneDrive/Desktop/GD32VW553/V1_MQTT_OK/GD32VW55X_Wifi_BLE_SDK/GD32VW55x_RELEASE_V1.0.2/MSDK/cloud/alicloud/src/protocol/alcs\alcs_mqtt.c ****     }
 2946              		.loc 1 630 16 is_stmt 0
 2947 01f6 0544     		li	s0,1
 2948              	.LVL344:
 2949              	.L223:
 633:C:/Users/stapi/OneDrive/Desktop/GD32VW553/V1_MQTT_OK/GD32VW55X_Wifi_BLE_SDK/GD32VW55x_RELEASE_V1.0.2/MSDK/cloud/alicloud/src/protocol/alcs\alcs_mqtt.c ****     alcs_mqtt_blacklist_update((void *)ctx->coap_ctx);
 2950              		.loc 1 633 5 is_stmt 1
 2951 01f8 03A50900 		lw	a0,0(s3)
 2952 01fc 97000000 		call	alcs_mqtt_prefixkey_update
 2952      E7800000 
 2953              	.LVL345:
 634:C:/Users/stapi/OneDrive/Desktop/GD32VW553/V1_MQTT_OK/GD32VW55X_Wifi_BLE_SDK/GD32VW55x_RELEASE_V1.0.2/MSDK/cloud/alicloud/src/protocol/alcs\alcs_mqtt.c **** 
 2954              		.loc 1 634 5
 2955 0204 03A50900 		lw	a0,0(s3)
 2956 0208 97000000 		call	alcs_mqtt_blacklist_update
 2956      E7800000 
 2957              	.LVL346:
 639:C:/Users/stapi/OneDrive/Desktop/GD32VW553/V1_MQTT_OK/GD32VW55X_Wifi_BLE_SDK/GD32VW55x_RELEASE_V1.0.2/MSDK/cloud/alicloud/src/protocol/alcs\alcs_mqtt.c **** 
 2958              		.loc 1 639 5
 2959 0210 CA85     		mv	a1,s2
 2960 0212 2685     		mv	a0,s1
 2961 0214 97000000 		call	alcs_prefixkey_get
 2961      E7800000 
 2962              	.LVL347:
 641:C:/Users/stapi/OneDrive/Desktop/GD32VW553/V1_MQTT_OK/GD32VW55X_Wifi_BLE_SDK/GD32VW55x_RELEASE_V1.0.2/MSDK/cloud/alicloud/src/protocol/alcs\alcs_mqtt.c **** }
 2963              		.loc 1 641 5
 2964              	.L219:
 642:C:/Users/stapi/OneDrive/Desktop/GD32VW553/V1_MQTT_OK/GD32VW55X_Wifi_BLE_SDK/GD32VW55x_RELEASE_V1.0.2/MSDK/cloud/alicloud/src/protocol/alcs\alcs_mqtt.c **** 
 2965              		.loc 1 642 1 is_stmt 0
 2966 021c 2285     		mv	a0,s0
 2967 021e 0961     		addi	sp,sp,128
 2968              		.cfi_def_cfa_offset 0
 2969 0220 17030000 		tail	__riscv_restore_6
 2969      67000300 
 2970              		.cfi_restore 21
 2971              		.cfi_restore 20
 2972              		.cfi_restore 19
 2973              		.cfi_restore 18
 2974              		.cfi_restore 9
 2975              		.cfi_restore 8
 2976              		.cfi_restore 1
 2977              		.cfi_def_cfa_offset -32
 2978              		.cfi_endproc
 2979              	.LFE32:
 2981              		.section	.rodata.alcs_mqtt_subdev_prefix_get.str1.4,"aMS",@progbits,1
 2982              		.align	2
 2983              	.LC41:
 2984 0000 53756264 		.string	"Subdevice, PK: %s, DN: %s\n"
 2984      65766963 
 2984      652C2050 
 2984      4B3A2025 
 2984      732C2044 
 2985 001b 00       		.align	2
 2986              	.LC42:
 2987 001c 7B226964 		.string	"{\"id\":\"%d\",\"version\":\"1.0\",\"params\":{\"productKey\":\"%.*s\",\"deviceName\":\"%
 2987      223A2225 
 2987      64222C22 
 2987      76657273 
 2987      696F6E22 
 2988              		.section	.text.alcs_mqtt_subdev_prefix_get,"ax",@progbits
 2989              		.align	1
 2990              		.globl	alcs_mqtt_subdev_prefix_get
 2992              	alcs_mqtt_subdev_prefix_get:
 2993              	.LFB39:
 779:C:/Users/stapi/OneDrive/Desktop/GD32VW553/V1_MQTT_OK/GD32VW55X_Wifi_BLE_SDK/GD32VW55x_RELEASE_V1.0.2/MSDK/cloud/alicloud/src/protocol/alcs\alcs_mqtt.c **** 
 780:C:/Users/stapi/OneDrive/Desktop/GD32VW553/V1_MQTT_OK/GD32VW55X_Wifi_BLE_SDK/GD32VW55x_RELEASE_V1.0.2/MSDK/cloud/alicloud/src/protocol/alcs\alcs_mqtt.c **** alcs_mqtt_status_e alcs_mqtt_subdev_prefix_get(const char *product_key, const char *device_name)
 781:C:/Users/stapi/OneDrive/Desktop/GD32VW553/V1_MQTT_OK/GD32VW55X_Wifi_BLE_SDK/GD32VW55x_RELEASE_V1.0.2/MSDK/cloud/alicloud/src/protocol/alcs\alcs_mqtt.c **** {
 2994              		.loc 1 781 1 is_stmt 1
 2995              		.cfi_startproc
 2996              	.LVL348:
 2997 0000 17030000 		call	t0,__riscv_save_6
 2997      E7020300 
 2998              		.cfi_offset 21, -28
 2999              		.cfi_offset 20, -24
 3000              		.cfi_offset 19, -20
 3001              		.cfi_offset 18, -16
 3002              		.cfi_offset 9, -12
 3003              		.cfi_offset 8, -8
 3004              		.cfi_offset 1, -4
 3005              		.cfi_def_cfa_offset 32
 782:C:/Users/stapi/OneDrive/Desktop/GD32VW553/V1_MQTT_OK/GD32VW55X_Wifi_BLE_SDK/GD32VW55x_RELEASE_V1.0.2/MSDK/cloud/alicloud/src/protocol/alcs\alcs_mqtt.c ****     //int ret = 0;
 783:C:/Users/stapi/OneDrive/Desktop/GD32VW553/V1_MQTT_OK/GD32VW55X_Wifi_BLE_SDK/GD32VW55x_RELEASE_V1.0.2/MSDK/cloud/alicloud/src/protocol/alcs\alcs_mqtt.c ****     char *msg_pub = NULL;
 3006              		.loc 1 783 5
 3007              	.LVL349:
 784:C:/Users/stapi/OneDrive/Desktop/GD32VW553/V1_MQTT_OK/GD32VW55X_Wifi_BLE_SDK/GD32VW55x_RELEASE_V1.0.2/MSDK/cloud/alicloud/src/protocol/alcs\alcs_mqtt.c ****     uint16_t msg_len = 0;
 3008              		.loc 1 784 5
 785:C:/Users/stapi/OneDrive/Desktop/GD32VW553/V1_MQTT_OK/GD32VW55X_Wifi_BLE_SDK/GD32VW55x_RELEASE_V1.0.2/MSDK/cloud/alicloud/src/protocol/alcs\alcs_mqtt.c ****     char topic[ALCS_MQTT_TOPIC_MAX_LEN] = {0};
 3009              		.loc 1 785 5
 781:C:/Users/stapi/OneDrive/Desktop/GD32VW553/V1_MQTT_OK/GD32VW55X_Wifi_BLE_SDK/GD32VW55x_RELEASE_V1.0.2/MSDK/cloud/alicloud/src/protocol/alcs\alcs_mqtt.c ****     //int ret = 0;
 3010              		.loc 1 781 1 is_stmt 0
 3011 0008 7571     		addi	sp,sp,-144
 3012              		.cfi_def_cfa_offset 176
 786:C:/Users/stapi/OneDrive/Desktop/GD32VW553/V1_MQTT_OK/GD32VW55X_Wifi_BLE_SDK/GD32VW55x_RELEASE_V1.0.2/MSDK/cloud/alicloud/src/protocol/alcs\alcs_mqtt.c ****     alcs_mqtt_ctx_t *ctx =  __alcs_mqtt_get_ctx();
 787:C:/Users/stapi/OneDrive/Desktop/GD32VW553/V1_MQTT_OK/GD32VW55X_Wifi_BLE_SDK/GD32VW55x_RELEASE_V1.0.2/MSDK/cloud/alicloud/src/protocol/alcs\alcs_mqtt.c ****     alcs_mqtt_status_e status = ALCS_MQTT_STATUS_SUCCESS;
 788:C:/Users/stapi/OneDrive/Desktop/GD32VW553/V1_MQTT_OK/GD32VW55X_Wifi_BLE_SDK/GD32VW55x_RELEASE_V1.0.2/MSDK/cloud/alicloud/src/protocol/alcs\alcs_mqtt.c ****     int id = ctx->send_id++;
 3013              		.loc 1 788 17
 3014 000a 37040000 		lui	s0,%hi(.LANCHOR0)
 3015 000e 13040400 		addi	s0,s0,%lo(.LANCHOR0)
 781:C:/Users/stapi/OneDrive/Desktop/GD32VW553/V1_MQTT_OK/GD32VW55X_Wifi_BLE_SDK/GD32VW55x_RELEASE_V1.0.2/MSDK/cloud/alicloud/src/protocol/alcs\alcs_mqtt.c ****     //int ret = 0;
 3016              		.loc 1 781 1
 3017 0012 2A89     		mv	s2,a0
 3018 0014 AE89     		mv	s3,a1
 785:C:/Users/stapi/OneDrive/Desktop/GD32VW553/V1_MQTT_OK/GD32VW55X_Wifi_BLE_SDK/GD32VW55x_RELEASE_V1.0.2/MSDK/cloud/alicloud/src/protocol/alcs\alcs_mqtt.c ****     alcs_mqtt_ctx_t *ctx =  __alcs_mqtt_get_ctx();
 3019              		.loc 1 785 10
 3020 0016 1306C007 		li	a2,124
 3021 001a 8145     		li	a1,0
 3022              	.LVL350:
 3023 001c 4808     		addi	a0,sp,20
 3024              	.LVL351:
 3025 001e 02C8     		sw	zero,16(sp)
 3026 0020 97000000 		call	memset
 3026      E7800000 
 3027              	.LVL352:
 786:C:/Users/stapi/OneDrive/Desktop/GD32VW553/V1_MQTT_OK/GD32VW55X_Wifi_BLE_SDK/GD32VW55x_RELEASE_V1.0.2/MSDK/cloud/alicloud/src/protocol/alcs\alcs_mqtt.c ****     alcs_mqtt_ctx_t *ctx =  __alcs_mqtt_get_ctx();
 3028              		.loc 1 786 5 is_stmt 1
  26:C:/Users/stapi/OneDrive/Desktop/GD32VW553/V1_MQTT_OK/GD32VW55X_Wifi_BLE_SDK/GD32VW55x_RELEASE_V1.0.2/MSDK/cloud/alicloud/src/protocol/alcs\alcs_mqtt.c **** }
 3029              		.loc 1 26 5
 787:C:/Users/stapi/OneDrive/Desktop/GD32VW553/V1_MQTT_OK/GD32VW55X_Wifi_BLE_SDK/GD32VW55x_RELEASE_V1.0.2/MSDK/cloud/alicloud/src/protocol/alcs\alcs_mqtt.c ****     int id = ctx->send_id++;
 3030              		.loc 1 787 5
 3031              		.loc 1 788 5
 3032              		.loc 1 788 17 is_stmt 0
 3033 0028 832A8405 		lw	s5,88(s0)
 3034              		.loc 1 788 26
 3035 002c 93871A00 		addi	a5,s5,1
 3036 0030 3CCC     		sw	a5,88(s0)
 3037              	.LVL353:
 789:C:/Users/stapi/OneDrive/Desktop/GD32VW553/V1_MQTT_OK/GD32VW55X_Wifi_BLE_SDK/GD32VW55x_RELEASE_V1.0.2/MSDK/cloud/alicloud/src/protocol/alcs\alcs_mqtt.c **** 
 790:C:/Users/stapi/OneDrive/Desktop/GD32VW553/V1_MQTT_OK/GD32VW55X_Wifi_BLE_SDK/GD32VW55x_RELEASE_V1.0.2/MSDK/cloud/alicloud/src/protocol/alcs\alcs_mqtt.c ****     if (product_key == NULL || strlen(product_key) > PRODUCT_KEY_LEN ||
 3038              		.loc 1 790 5 is_stmt 1
 3039              		.loc 1 790 8 is_stmt 0
 3040 0032 63190900 		bne	s2,zero,.L240
 3041              	.LVL354:
 3042              	.L242:
 791:C:/Users/stapi/OneDrive/Desktop/GD32VW553/V1_MQTT_OK/GD32VW55X_Wifi_BLE_SDK/GD32VW55x_RELEASE_V1.0.2/MSDK/cloud/alicloud/src/protocol/alcs\alcs_mqtt.c ****         device_name == NULL || strlen(device_name) > DEVICE_NAME_LEN) {
 792:C:/Users/stapi/OneDrive/Desktop/GD32VW553/V1_MQTT_OK/GD32VW55X_Wifi_BLE_SDK/GD32VW55x_RELEASE_V1.0.2/MSDK/cloud/alicloud/src/protocol/alcs\alcs_mqtt.c ****         return ALCS_MQTT_STATUS_ERROR;
 3043              		.loc 1 792 16
 3044 0036 0544     		li	s0,1
 3045              	.LVL355:
 3046              	.L239:
 793:C:/Users/stapi/OneDrive/Desktop/GD32VW553/V1_MQTT_OK/GD32VW55X_Wifi_BLE_SDK/GD32VW55x_RELEASE_V1.0.2/MSDK/cloud/alicloud/src/protocol/alcs\alcs_mqtt.c ****     }
 794:C:/Users/stapi/OneDrive/Desktop/GD32VW553/V1_MQTT_OK/GD32VW55X_Wifi_BLE_SDK/GD32VW55x_RELEASE_V1.0.2/MSDK/cloud/alicloud/src/protocol/alcs\alcs_mqtt.c **** 
 795:C:/Users/stapi/OneDrive/Desktop/GD32VW553/V1_MQTT_OK/GD32VW55X_Wifi_BLE_SDK/GD32VW55x_RELEASE_V1.0.2/MSDK/cloud/alicloud/src/protocol/alcs\alcs_mqtt.c ****     COAP_INFO("Subdevice, PK: %s, DN: %s\n", product_key, device_name);
 796:C:/Users/stapi/OneDrive/Desktop/GD32VW553/V1_MQTT_OK/GD32VW55X_Wifi_BLE_SDK/GD32VW55x_RELEASE_V1.0.2/MSDK/cloud/alicloud/src/protocol/alcs\alcs_mqtt.c ****     snprintf(topic, ALCS_MQTT_TOPIC_MAX_LEN, ALCS_MQTT_PREFIX ALCS_MQTT_THING_LAN_PREFIX_GET_FMT,
 797:C:/Users/stapi/OneDrive/Desktop/GD32VW553/V1_MQTT_OK/GD32VW55X_Wifi_BLE_SDK/GD32VW55x_RELEASE_V1.0.2/MSDK/cloud/alicloud/src/protocol/alcs\alcs_mqtt.c ****              ctx->product_key, ctx->device_name);
 798:C:/Users/stapi/OneDrive/Desktop/GD32VW553/V1_MQTT_OK/GD32VW55X_Wifi_BLE_SDK/GD32VW55x_RELEASE_V1.0.2/MSDK/cloud/alicloud/src/protocol/alcs\alcs_mqtt.c **** 
 799:C:/Users/stapi/OneDrive/Desktop/GD32VW553/V1_MQTT_OK/GD32VW55X_Wifi_BLE_SDK/GD32VW55x_RELEASE_V1.0.2/MSDK/cloud/alicloud/src/protocol/alcs\alcs_mqtt.c ****     msg_len = strlen(ALCS_MQTT_THING_ALCS_SUBDEV_REQUEST) + 10 + strlen(product_key) + strlen(devic
 800:C:/Users/stapi/OneDrive/Desktop/GD32VW553/V1_MQTT_OK/GD32VW55X_Wifi_BLE_SDK/GD32VW55x_RELEASE_V1.0.2/MSDK/cloud/alicloud/src/protocol/alcs\alcs_mqtt.c ****     if ((msg_pub = ALCS_ADAPTER_malloc(msg_len)) == NULL) {
 801:C:/Users/stapi/OneDrive/Desktop/GD32VW553/V1_MQTT_OK/GD32VW55X_Wifi_BLE_SDK/GD32VW55x_RELEASE_V1.0.2/MSDK/cloud/alicloud/src/protocol/alcs\alcs_mqtt.c ****         return ALCS_MQTT_STATUS_ERROR;
 802:C:/Users/stapi/OneDrive/Desktop/GD32VW553/V1_MQTT_OK/GD32VW55X_Wifi_BLE_SDK/GD32VW55x_RELEASE_V1.0.2/MSDK/cloud/alicloud/src/protocol/alcs\alcs_mqtt.c ****     }
 803:C:/Users/stapi/OneDrive/Desktop/GD32VW553/V1_MQTT_OK/GD32VW55X_Wifi_BLE_SDK/GD32VW55x_RELEASE_V1.0.2/MSDK/cloud/alicloud/src/protocol/alcs\alcs_mqtt.c **** 
 804:C:/Users/stapi/OneDrive/Desktop/GD32VW553/V1_MQTT_OK/GD32VW55X_Wifi_BLE_SDK/GD32VW55x_RELEASE_V1.0.2/MSDK/cloud/alicloud/src/protocol/alcs\alcs_mqtt.c ****     snprintf(msg_pub, msg_len, ALCS_MQTT_THING_ALCS_SUBDEV_REQUEST, id,
 805:C:/Users/stapi/OneDrive/Desktop/GD32VW553/V1_MQTT_OK/GD32VW55X_Wifi_BLE_SDK/GD32VW55x_RELEASE_V1.0.2/MSDK/cloud/alicloud/src/protocol/alcs\alcs_mqtt.c ****              (int)strlen(product_key), product_key, (int)strlen(device_name), device_name);
 806:C:/Users/stapi/OneDrive/Desktop/GD32VW553/V1_MQTT_OK/GD32VW55X_Wifi_BLE_SDK/GD32VW55x_RELEASE_V1.0.2/MSDK/cloud/alicloud/src/protocol/alcs\alcs_mqtt.c **** 
 807:C:/Users/stapi/OneDrive/Desktop/GD32VW553/V1_MQTT_OK/GD32VW55X_Wifi_BLE_SDK/GD32VW55x_RELEASE_V1.0.2/MSDK/cloud/alicloud/src/protocol/alcs\alcs_mqtt.c ****     COAP_ERR("ALCS Prefix Get, Topic: %s, Payload: %s", topic, msg_pub);
 808:C:/Users/stapi/OneDrive/Desktop/GD32VW553/V1_MQTT_OK/GD32VW55X_Wifi_BLE_SDK/GD32VW55x_RELEASE_V1.0.2/MSDK/cloud/alicloud/src/protocol/alcs\alcs_mqtt.c ****     status = __alcs_mqtt_publish(topic, 1, msg_pub, strlen(msg_pub));
 809:C:/Users/stapi/OneDrive/Desktop/GD32VW553/V1_MQTT_OK/GD32VW55X_Wifi_BLE_SDK/GD32VW55x_RELEASE_V1.0.2/MSDK/cloud/alicloud/src/protocol/alcs\alcs_mqtt.c **** 
 810:C:/Users/stapi/OneDrive/Desktop/GD32VW553/V1_MQTT_OK/GD32VW55X_Wifi_BLE_SDK/GD32VW55x_RELEASE_V1.0.2/MSDK/cloud/alicloud/src/protocol/alcs\alcs_mqtt.c ****     LITE_free(msg_pub);
 811:C:/Users/stapi/OneDrive/Desktop/GD32VW553/V1_MQTT_OK/GD32VW55X_Wifi_BLE_SDK/GD32VW55x_RELEASE_V1.0.2/MSDK/cloud/alicloud/src/protocol/alcs\alcs_mqtt.c **** 
 812:C:/Users/stapi/OneDrive/Desktop/GD32VW553/V1_MQTT_OK/GD32VW55X_Wifi_BLE_SDK/GD32VW55x_RELEASE_V1.0.2/MSDK/cloud/alicloud/src/protocol/alcs\alcs_mqtt.c ****     return status;
 813:C:/Users/stapi/OneDrive/Desktop/GD32VW553/V1_MQTT_OK/GD32VW55X_Wifi_BLE_SDK/GD32VW55x_RELEASE_V1.0.2/MSDK/cloud/alicloud/src/protocol/alcs\alcs_mqtt.c **** }
 3047              		.loc 1 813 1
 3048 0038 2285     		mv	a0,s0
 3049 003a 4961     		addi	sp,sp,144
 3050              		.cfi_remember_state
 3051              		.cfi_def_cfa_offset 0
 3052 003c 17030000 		tail	__riscv_restore_6
 3052      67000300 
 3053              		.cfi_restore 21
 3054              		.cfi_restore 20
 3055              		.cfi_restore 19
 3056              		.cfi_restore 18
 3057              		.cfi_restore 9
 3058              		.cfi_restore 8
 3059              		.cfi_restore 1
 3060              		.cfi_def_cfa_offset -32
 3061              	.LVL356:
 3062              	.L240:
 3063              		.cfi_restore_state
 790:C:/Users/stapi/OneDrive/Desktop/GD32VW553/V1_MQTT_OK/GD32VW55X_Wifi_BLE_SDK/GD32VW55x_RELEASE_V1.0.2/MSDK/cloud/alicloud/src/protocol/alcs\alcs_mqtt.c ****         device_name == NULL || strlen(device_name) > DEVICE_NAME_LEN) {
 3064              		.loc 1 790 32 discriminator 1
 3065 0044 4A85     		mv	a0,s2
 3066 0046 97000000 		call	strlen
 3066      E7800000 
 3067              	.LVL357:
 790:C:/Users/stapi/OneDrive/Desktop/GD32VW553/V1_MQTT_OK/GD32VW55X_Wifi_BLE_SDK/GD32VW55x_RELEASE_V1.0.2/MSDK/cloud/alicloud/src/protocol/alcs\alcs_mqtt.c ****         device_name == NULL || strlen(device_name) > DEVICE_NAME_LEN) {
 3068              		.loc 1 790 29 discriminator 1
 3069 004e D147     		li	a5,20
 3070 0050 E3E3A7FE 		bgtu	a0,a5,.L242
 790:C:/Users/stapi/OneDrive/Desktop/GD32VW553/V1_MQTT_OK/GD32VW55X_Wifi_BLE_SDK/GD32VW55x_RELEASE_V1.0.2/MSDK/cloud/alicloud/src/protocol/alcs\alcs_mqtt.c ****         device_name == NULL || strlen(device_name) > DEVICE_NAME_LEN) {
 3071              		.loc 1 790 70 discriminator 2
 3072 0054 E38109FE 		beq	s3,zero,.L242
 791:C:/Users/stapi/OneDrive/Desktop/GD32VW553/V1_MQTT_OK/GD32VW55X_Wifi_BLE_SDK/GD32VW55x_RELEASE_V1.0.2/MSDK/cloud/alicloud/src/protocol/alcs\alcs_mqtt.c ****         device_name == NULL || strlen(device_name) > DEVICE_NAME_LEN) {
 3073              		.loc 1 791 32
 3074 0058 4E85     		mv	a0,s3
 3075 005a 97000000 		call	strlen
 3075      E7800000 
 3076              	.LVL358:
 791:C:/Users/stapi/OneDrive/Desktop/GD32VW553/V1_MQTT_OK/GD32VW55X_Wifi_BLE_SDK/GD32VW55x_RELEASE_V1.0.2/MSDK/cloud/alicloud/src/protocol/alcs\alcs_mqtt.c ****         device_name == NULL || strlen(device_name) > DEVICE_NAME_LEN) {
 3077              		.loc 1 791 29
 3078 0062 93070002 		li	a5,32
 3079 0066 E3E8A7FC 		bgtu	a0,a5,.L242
 795:C:/Users/stapi/OneDrive/Desktop/GD32VW553/V1_MQTT_OK/GD32VW55X_Wifi_BLE_SDK/GD32VW55x_RELEASE_V1.0.2/MSDK/cloud/alicloud/src/protocol/alcs\alcs_mqtt.c ****     snprintf(topic, ALCS_MQTT_TOPIC_MAX_LEN, ALCS_MQTT_PREFIX ALCS_MQTT_THING_LAN_PREFIX_GET_FMT,
 3080              		.loc 1 795 5 is_stmt 1
 795:C:/Users/stapi/OneDrive/Desktop/GD32VW553/V1_MQTT_OK/GD32VW55X_Wifi_BLE_SDK/GD32VW55x_RELEASE_V1.0.2/MSDK/cloud/alicloud/src/protocol/alcs\alcs_mqtt.c ****     snprintf(topic, ALCS_MQTT_TOPIC_MAX_LEN, ALCS_MQTT_PREFIX ALCS_MQTT_THING_LAN_PREFIX_GET_FMT,
 3081              		.loc 1 795 5
 3082 006a 37050000 		lui	a0,%hi(.LC0)
 3083 006e 13050500 		addi	a0,a0,%lo(.LC0)
 3084 0072 97000000 		call	HAL_Printf
 3084      E7800000 
 3085              	.LVL359:
 795:C:/Users/stapi/OneDrive/Desktop/GD32VW553/V1_MQTT_OK/GD32VW55X_Wifi_BLE_SDK/GD32VW55x_RELEASE_V1.0.2/MSDK/cloud/alicloud/src/protocol/alcs\alcs_mqtt.c ****     snprintf(topic, ALCS_MQTT_TOPIC_MAX_LEN, ALCS_MQTT_PREFIX ALCS_MQTT_THING_LAN_PREFIX_GET_FMT,
 3086              		.loc 1 795 5
 3087 007a 37050000 		lui	a0,%hi(.LC41)
 3088 007e 4E86     		mv	a2,s3
 3089 0080 CA85     		mv	a1,s2
 3090 0082 13050500 		addi	a0,a0,%lo(.LC41)
 3091 0086 97000000 		call	HAL_Printf
 3091      E7800000 
 3092              	.LVL360:
 795:C:/Users/stapi/OneDrive/Desktop/GD32VW553/V1_MQTT_OK/GD32VW55X_Wifi_BLE_SDK/GD32VW55x_RELEASE_V1.0.2/MSDK/cloud/alicloud/src/protocol/alcs\alcs_mqtt.c ****     snprintf(topic, ALCS_MQTT_TOPIC_MAX_LEN, ALCS_MQTT_PREFIX ALCS_MQTT_THING_LAN_PREFIX_GET_FMT,
 3093              		.loc 1 795 5
 3094 008e 370A0000 		lui	s4,%hi(.LC2)
 3095 0092 13050A00 		addi	a0,s4,%lo(.LC2)
 3096 0096 97000000 		call	HAL_Printf
 3096      E7800000 
 3097              	.LVL361:
 795:C:/Users/stapi/OneDrive/Desktop/GD32VW553/V1_MQTT_OK/GD32VW55X_Wifi_BLE_SDK/GD32VW55x_RELEASE_V1.0.2/MSDK/cloud/alicloud/src/protocol/alcs\alcs_mqtt.c ****     snprintf(topic, ALCS_MQTT_TOPIC_MAX_LEN, ALCS_MQTT_PREFIX ALCS_MQTT_THING_LAN_PREFIX_GET_FMT,
 3098              		.loc 1 795 5
 796:C:/Users/stapi/OneDrive/Desktop/GD32VW553/V1_MQTT_OK/GD32VW55X_Wifi_BLE_SDK/GD32VW55x_RELEASE_V1.0.2/MSDK/cloud/alicloud/src/protocol/alcs\alcs_mqtt.c ****              ctx->product_key, ctx->device_name);
 3099              		.loc 1 796 5
 3100 009e 37060000 		lui	a2,%hi(.LC37)
 3101 00a2 13078401 		addi	a4,s0,24
 3102 00a6 93064400 		addi	a3,s0,4
 3103 00aa 13060600 		addi	a2,a2,%lo(.LC37)
 3104 00ae 93050008 		li	a1,128
 3105 00b2 0808     		addi	a0,sp,16
 3106 00b4 97000000 		call	snprintf
 3106      E7800000 
 3107              	.LVL362:
 799:C:/Users/stapi/OneDrive/Desktop/GD32VW553/V1_MQTT_OK/GD32VW55X_Wifi_BLE_SDK/GD32VW55x_RELEASE_V1.0.2/MSDK/cloud/alicloud/src/protocol/alcs\alcs_mqtt.c ****     if ((msg_pub = ALCS_ADAPTER_malloc(msg_len)) == NULL) {
 3108              		.loc 1 799 5
 799:C:/Users/stapi/OneDrive/Desktop/GD32VW553/V1_MQTT_OK/GD32VW55X_Wifi_BLE_SDK/GD32VW55x_RELEASE_V1.0.2/MSDK/cloud/alicloud/src/protocol/alcs\alcs_mqtt.c ****     if ((msg_pub = ALCS_ADAPTER_malloc(msg_len)) == NULL) {
 3109              		.loc 1 799 66 is_stmt 0
 3110 00bc 4A85     		mv	a0,s2
 3111 00be 97000000 		call	strlen
 3111      E7800000 
 3112              	.LVL363:
 3113 00c6 2A84     		mv	s0,a0
 799:C:/Users/stapi/OneDrive/Desktop/GD32VW553/V1_MQTT_OK/GD32VW55X_Wifi_BLE_SDK/GD32VW55x_RELEASE_V1.0.2/MSDK/cloud/alicloud/src/protocol/alcs\alcs_mqtt.c ****     if ((msg_pub = ALCS_ADAPTER_malloc(msg_len)) == NULL) {
 3114              		.loc 1 799 88
 3115 00c8 4E85     		mv	a0,s3
 3116 00ca 97000000 		call	strlen
 3116      E7800000 
 3117              	.LVL364:
 799:C:/Users/stapi/OneDrive/Desktop/GD32VW553/V1_MQTT_OK/GD32VW55X_Wifi_BLE_SDK/GD32VW55x_RELEASE_V1.0.2/MSDK/cloud/alicloud/src/protocol/alcs\alcs_mqtt.c ****     if ((msg_pub = ALCS_ADAPTER_malloc(msg_len)) == NULL) {
 3118              		.loc 1 799 86
 3119 00d2 2A94     		add	s0,s0,a0
 799:C:/Users/stapi/OneDrive/Desktop/GD32VW553/V1_MQTT_OK/GD32VW55X_Wifi_BLE_SDK/GD32VW55x_RELEASE_V1.0.2/MSDK/cloud/alicloud/src/protocol/alcs\alcs_mqtt.c ****     if ((msg_pub = ALCS_ADAPTER_malloc(msg_len)) == NULL) {
 3120              		.loc 1 799 13
 3121 00d4 13049407 		addi	s0,s0,121
 800:C:/Users/stapi/OneDrive/Desktop/GD32VW553/V1_MQTT_OK/GD32VW55X_Wifi_BLE_SDK/GD32VW55x_RELEASE_V1.0.2/MSDK/cloud/alicloud/src/protocol/alcs\alcs_mqtt.c ****         return ALCS_MQTT_STATUS_ERROR;
 3122              		.loc 1 800 20
 3123 00d8 8145     		li	a1,0
 3124 00da 0145     		li	a0,0
 799:C:/Users/stapi/OneDrive/Desktop/GD32VW553/V1_MQTT_OK/GD32VW55X_Wifi_BLE_SDK/GD32VW55x_RELEASE_V1.0.2/MSDK/cloud/alicloud/src/protocol/alcs\alcs_mqtt.c ****     if ((msg_pub = ALCS_ADAPTER_malloc(msg_len)) == NULL) {
 3125              		.loc 1 799 13
 3126 00dc 33440408 		zext.h	s0,s0
 3127              	.LVL365:
 800:C:/Users/stapi/OneDrive/Desktop/GD32VW553/V1_MQTT_OK/GD32VW55X_Wifi_BLE_SDK/GD32VW55x_RELEASE_V1.0.2/MSDK/cloud/alicloud/src/protocol/alcs\alcs_mqtt.c ****         return ALCS_MQTT_STATUS_ERROR;
 3128              		.loc 1 800 5 is_stmt 1
 800:C:/Users/stapi/OneDrive/Desktop/GD32VW553/V1_MQTT_OK/GD32VW55X_Wifi_BLE_SDK/GD32VW55x_RELEASE_V1.0.2/MSDK/cloud/alicloud/src/protocol/alcs\alcs_mqtt.c ****         return ALCS_MQTT_STATUS_ERROR;
 3129              		.loc 1 800 20 is_stmt 0
 3130 00e0 2286     		mv	a2,s0
 3131 00e2 97000000 		call	LITE_malloc_internal
 3131      E7800000 
 3132              	.LVL366:
 3133 00ea AA84     		mv	s1,a0
 3134              	.LVL367:
 800:C:/Users/stapi/OneDrive/Desktop/GD32VW553/V1_MQTT_OK/GD32VW55X_Wifi_BLE_SDK/GD32VW55x_RELEASE_V1.0.2/MSDK/cloud/alicloud/src/protocol/alcs\alcs_mqtt.c ****         return ALCS_MQTT_STATUS_ERROR;
 3135              		.loc 1 800 8
 3136 00ec 29D5     		beq	a0,zero,.L242
 804:C:/Users/stapi/OneDrive/Desktop/GD32VW553/V1_MQTT_OK/GD32VW55X_Wifi_BLE_SDK/GD32VW55x_RELEASE_V1.0.2/MSDK/cloud/alicloud/src/protocol/alcs\alcs_mqtt.c ****              (int)strlen(product_key), product_key, (int)strlen(device_name), device_name);
 3137              		.loc 1 804 5 is_stmt 1
 805:C:/Users/stapi/OneDrive/Desktop/GD32VW553/V1_MQTT_OK/GD32VW55X_Wifi_BLE_SDK/GD32VW55x_RELEASE_V1.0.2/MSDK/cloud/alicloud/src/protocol/alcs\alcs_mqtt.c **** 
 3138              		.loc 1 805 19 is_stmt 0
 3139 00ee 4A85     		mv	a0,s2
 3140 00f0 97000000 		call	strlen
 3140      E7800000 
 3141              	.LVL368:
 3142 00f8 2AC6     		sw	a0,12(sp)
 805:C:/Users/stapi/OneDrive/Desktop/GD32VW553/V1_MQTT_OK/GD32VW55X_Wifi_BLE_SDK/GD32VW55x_RELEASE_V1.0.2/MSDK/cloud/alicloud/src/protocol/alcs\alcs_mqtt.c **** 
 3143              		.loc 1 805 58
 3144 00fa 4E85     		mv	a0,s3
 3145 00fc 97000000 		call	strlen
 3145      E7800000 
 3146              	.LVL369:
 804:C:/Users/stapi/OneDrive/Desktop/GD32VW553/V1_MQTT_OK/GD32VW55X_Wifi_BLE_SDK/GD32VW55x_RELEASE_V1.0.2/MSDK/cloud/alicloud/src/protocol/alcs\alcs_mqtt.c ****              (int)strlen(product_key), product_key, (int)strlen(device_name), device_name);
 3147              		.loc 1 804 5
 3148 0104 3247     		lw	a4,12(sp)
 3149 0106 37060000 		lui	a2,%hi(.LC42)
 3150 010a 2A88     		mv	a6,a0
 3151 010c CE88     		mv	a7,s3
 3152 010e CA87     		mv	a5,s2
 3153 0110 D686     		mv	a3,s5
 3154 0112 A285     		mv	a1,s0
 3155 0114 13060600 		addi	a2,a2,%lo(.LC42)
 3156 0118 2685     		mv	a0,s1
 3157 011a 97000000 		call	snprintf
 3157      E7800000 
 3158              	.LVL370:
 807:C:/Users/stapi/OneDrive/Desktop/GD32VW553/V1_MQTT_OK/GD32VW55X_Wifi_BLE_SDK/GD32VW55x_RELEASE_V1.0.2/MSDK/cloud/alicloud/src/protocol/alcs\alcs_mqtt.c ****     status = __alcs_mqtt_publish(topic, 1, msg_pub, strlen(msg_pub));
 3159              		.loc 1 807 5 is_stmt 1
 807:C:/Users/stapi/OneDrive/Desktop/GD32VW553/V1_MQTT_OK/GD32VW55X_Wifi_BLE_SDK/GD32VW55x_RELEASE_V1.0.2/MSDK/cloud/alicloud/src/protocol/alcs\alcs_mqtt.c ****     status = __alcs_mqtt_publish(topic, 1, msg_pub, strlen(msg_pub));
 3160              		.loc 1 807 5
 3161 0122 37050000 		lui	a0,%hi(.LC7)
 3162 0126 13050500 		addi	a0,a0,%lo(.LC7)
 3163 012a 97000000 		call	HAL_Printf
 3163      E7800000 
 3164              	.LVL371:
 807:C:/Users/stapi/OneDrive/Desktop/GD32VW553/V1_MQTT_OK/GD32VW55X_Wifi_BLE_SDK/GD32VW55x_RELEASE_V1.0.2/MSDK/cloud/alicloud/src/protocol/alcs\alcs_mqtt.c ****     status = __alcs_mqtt_publish(topic, 1, msg_pub, strlen(msg_pub));
 3165              		.loc 1 807 5
 3166 0132 37050000 		lui	a0,%hi(.LC39)
 3167 0136 2686     		mv	a2,s1
 3168 0138 0C08     		addi	a1,sp,16
 3169 013a 13050500 		addi	a0,a0,%lo(.LC39)
 3170 013e 97000000 		call	HAL_Printf
 3170      E7800000 
 3171              	.LVL372:
 807:C:/Users/stapi/OneDrive/Desktop/GD32VW553/V1_MQTT_OK/GD32VW55X_Wifi_BLE_SDK/GD32VW55x_RELEASE_V1.0.2/MSDK/cloud/alicloud/src/protocol/alcs\alcs_mqtt.c ****     status = __alcs_mqtt_publish(topic, 1, msg_pub, strlen(msg_pub));
 3172              		.loc 1 807 5
 3173 0146 13050A00 		addi	a0,s4,%lo(.LC2)
 3174 014a 97000000 		call	HAL_Printf
 3174      E7800000 
 3175              	.LVL373:
 807:C:/Users/stapi/OneDrive/Desktop/GD32VW553/V1_MQTT_OK/GD32VW55X_Wifi_BLE_SDK/GD32VW55x_RELEASE_V1.0.2/MSDK/cloud/alicloud/src/protocol/alcs\alcs_mqtt.c ****     status = __alcs_mqtt_publish(topic, 1, msg_pub, strlen(msg_pub));
 3176              		.loc 1 807 5
 808:C:/Users/stapi/OneDrive/Desktop/GD32VW553/V1_MQTT_OK/GD32VW55X_Wifi_BLE_SDK/GD32VW55x_RELEASE_V1.0.2/MSDK/cloud/alicloud/src/protocol/alcs\alcs_mqtt.c **** 
 3177              		.loc 1 808 5
 808:C:/Users/stapi/OneDrive/Desktop/GD32VW553/V1_MQTT_OK/GD32VW55X_Wifi_BLE_SDK/GD32VW55x_RELEASE_V1.0.2/MSDK/cloud/alicloud/src/protocol/alcs\alcs_mqtt.c **** 
 3178              		.loc 1 808 53 is_stmt 0
 3179 0152 2685     		mv	a0,s1
 3180 0154 97000000 		call	strlen
 3180      E7800000 
 3181              	.LVL374:
 3182 015c 2A87     		mv	a4,a0
 3183              	.LVL375:
 3184              	.LBB53:
 3185              	.LBB54:
  31:C:/Users/stapi/OneDrive/Desktop/GD32VW553/V1_MQTT_OK/GD32VW55X_Wifi_BLE_SDK/GD32VW55x_RELEASE_V1.0.2/MSDK/cloud/alicloud/src/protocol/alcs\alcs_mqtt.c **** }
 3186              		.loc 1 31 5 is_stmt 1
  31:C:/Users/stapi/OneDrive/Desktop/GD32VW553/V1_MQTT_OK/GD32VW55X_Wifi_BLE_SDK/GD32VW55x_RELEASE_V1.0.2/MSDK/cloud/alicloud/src/protocol/alcs\alcs_mqtt.c **** }
 3187              		.loc 1 31 13 is_stmt 0
 3188 015e A686     		mv	a3,s1
 3189 0160 0546     		li	a2,1
 3190 0162 0C08     		addi	a1,sp,16
 3191              	.LVL376:
 3192 0164 0145     		li	a0,0
 3193              	.LVL377:
 3194 0166 97000000 		call	IOT_MQTT_Publish_Simple
 3194      E7800000 
 3195              	.LVL378:
  31:C:/Users/stapi/OneDrive/Desktop/GD32VW553/V1_MQTT_OK/GD32VW55X_Wifi_BLE_SDK/GD32VW55x_RELEASE_V1.0.2/MSDK/cloud/alicloud/src/protocol/alcs\alcs_mqtt.c **** }
 3196              		.loc 1 31 96
 3197 016e 1354F501 		srli	s0,a0,31
 3198              	.LVL379:
 3199              	.LBE54:
 3200              	.LBE53:
 810:C:/Users/stapi/OneDrive/Desktop/GD32VW553/V1_MQTT_OK/GD32VW55X_Wifi_BLE_SDK/GD32VW55x_RELEASE_V1.0.2/MSDK/cloud/alicloud/src/protocol/alcs\alcs_mqtt.c **** 
 3201              		.loc 1 810 5 is_stmt 1
 3202 0172 2685     		mv	a0,s1
 3203 0174 97000000 		call	LITE_free_internal
 3203      E7800000 
 3204              	.LVL380:
 812:C:/Users/stapi/OneDrive/Desktop/GD32VW553/V1_MQTT_OK/GD32VW55X_Wifi_BLE_SDK/GD32VW55x_RELEASE_V1.0.2/MSDK/cloud/alicloud/src/protocol/alcs\alcs_mqtt.c **** }
 3205              		.loc 1 812 5
 812:C:/Users/stapi/OneDrive/Desktop/GD32VW553/V1_MQTT_OK/GD32VW55X_Wifi_BLE_SDK/GD32VW55x_RELEASE_V1.0.2/MSDK/cloud/alicloud/src/protocol/alcs\alcs_mqtt.c **** }
 3206              		.loc 1 812 12 is_stmt 0
 3207 017c 75BD     		j	.L239
 3208              		.cfi_endproc
 3209              	.LFE39:
 3211              		.section	.bss.g_alcs_mqtt_ctx,"aw",@nobits
 3212              		.align	2
 3213              		.set	.LANCHOR0,. + 0
 3216              	g_alcs_mqtt_ctx:
 3217 0000 00000000 		.zero	92
 3217      00000000 
 3217      00000000 
 3217      00000000 
 3217      00000000 
 3218              		.section	.sbss.b_prefixkey,"aw",@nobits
 3219              		.align	2
 3220              		.set	.LANCHOR1,. + 0
 3223              	b_prefixkey:
 3224 0000 00000000 		.zero	4
 3225              		.section	.sbss.b_retry_ms,"aw",@nobits
 3226              		.align	3
 3227              		.set	.LANCHOR2,. + 0
 3230              	b_retry_ms:
 3231 0000 00000000 		.zero	8
 3231      00000000 
 3232              		.text
 3233              	.Letext0:
 3234              		.file 2 "c:\\users\\stapi\\onedrive\\desktop\\gd32vw553\\embeddedbuilder_v1.4.7.26843\\tools\\nucl
 3235              		.file 3 "c:\\users\\stapi\\onedrive\\desktop\\gd32vw553\\embeddedbuilder_v1.4.7.26843\\tools\\nucl
 3236              		.file 4 "..\\..\\..\\..\\cloud\\alicloud\\include/exports/iot_export_mqtt.h"
 3237              		.file 5 "C:/Users/stapi/OneDrive/Desktop/GD32VW553/V1_MQTT_OK/GD32VW55X_Wifi_BLE_SDK/GD32VW55x_REL
 3238              		.file 6 "C:/Users/stapi/OneDrive/Desktop/GD32VW553/V1_MQTT_OK/GD32VW55X_Wifi_BLE_SDK/GD32VW55x_REL
 3239              		.file 7 "c:\\users\\stapi\\onedrive\\desktop\\gd32vw553\\embeddedbuilder_v1.4.7.26843\\tools\\nucl
 3240              		.file 8 "..\\..\\..\\..\\cloud\\alicloud\\include/iot_import.h"
 3241              		.file 9 "c:\\users\\stapi\\onedrive\\desktop\\gd32vw553\\embeddedbuilder_v1.4.7.26843\\tools\\nucl
 3242              		.file 10 "..\\..\\..\\..\\cloud\\alicloud\\src\\infra\\utils/iotx_utils.h"
 3243              		.file 11 "..\\..\\..\\..\\cloud\\alicloud\\include/imports/iot_import_product.h"
 3244              		.file 12 "<built-in>"
 3245              		.file 13 "..\\..\\..\\..\\cloud\\alicloud\\src\\infra\\utils\\misc/json_parser.h"
 3246              		.file 14 "c:\\users\\stapi\\onedrive\\desktop\\gd32vw553\\embeddedbuilder_v1.4.7.26843\\tools\\nuc
 3247              		.file 15 "..\\..\\..\\..\\cloud\\alicloud\\src\\infra\\utils\\digest/utils_md5.h"
 3248              		.file 16 "..\\..\\..\\..\\cloud\\alicloud\\include/imports/iot_import_kv.h"
 3249              		.file 17 "..\\..\\..\\..\\cloud\\alicloud\\src\\protocol\\coap\\local/CoAPExport.h"
DEFINED SYMBOLS
                            *ABS*:0000000000000000 alcs_mqtt.c
C:\Users\stapi\AppData\Local\Temp\cc63Vocw.s:22     .text.__alcs_mqtt_kv_del:0000000000000000 __alcs_mqtt_kv_del
C:\Users\stapi\AppData\Local\Temp\cc63Vocw.s:26     .text.__alcs_mqtt_kv_del:0000000000000000 .L0 
C:\Users\stapi\AppData\Local\Temp\cc63Vocw.s:28     .text.__alcs_mqtt_kv_del:0000000000000000 .L0 
C:\Users\stapi\AppData\Local\Temp\cc63Vocw.s:29     .text.__alcs_mqtt_kv_del:0000000000000008 .L0 
C:\Users\stapi\AppData\Local\Temp\cc63Vocw.s:30     .text.__alcs_mqtt_kv_del:0000000000000008 .L0 
C:\Users\stapi\AppData\Local\Temp\cc63Vocw.s:31     .text.__alcs_mqtt_kv_del:0000000000000008 .L0 
C:\Users\stapi\AppData\Local\Temp\cc63Vocw.s:33     .text.__alcs_mqtt_kv_del:0000000000000008 .L0 
C:\Users\stapi\AppData\Local\Temp\cc63Vocw.s:34     .text.__alcs_mqtt_kv_del:0000000000000008 .L0 
C:\Users\stapi\AppData\Local\Temp\cc63Vocw.s:36     .text.__alcs_mqtt_kv_del:000000000000000a .L0 
C:\Users\stapi\AppData\Local\Temp\cc63Vocw.s:39     .text.__alcs_mqtt_kv_del:0000000000000012 .L0 
C:\Users\stapi\AppData\Local\Temp\cc63Vocw.s:44     .text.__alcs_mqtt_kv_del:0000000000000014 .L0 
C:\Users\stapi\AppData\Local\Temp\cc63Vocw.s:45     .text.__alcs_mqtt_kv_del:0000000000000014 .L0 
C:\Users\stapi\AppData\Local\Temp\cc63Vocw.s:50     .text.__alcs_mqtt_kv_del:0000000000000024 .L0 
C:\Users\stapi\AppData\Local\Temp\cc63Vocw.s:56     .text.__alcs_mqtt_kv_del:0000000000000036 .L0 
C:\Users\stapi\AppData\Local\Temp\cc63Vocw.s:61     .text.__alcs_mqtt_kv_del:0000000000000046 .L0 
C:\Users\stapi\AppData\Local\Temp\cc63Vocw.s:62     .text.__alcs_mqtt_kv_del:0000000000000046 .L0 
C:\Users\stapi\AppData\Local\Temp\cc63Vocw.s:63     .text.__alcs_mqtt_kv_del:0000000000000046 .L0 
C:\Users\stapi\AppData\Local\Temp\cc63Vocw.s:68     .text.__alcs_mqtt_kv_del:0000000000000048 .L0 
C:\Users\stapi\AppData\Local\Temp\cc63Vocw.s:69     .text.__alcs_mqtt_kv_del:0000000000000050 .L0 
C:\Users\stapi\AppData\Local\Temp\cc63Vocw.s:70     .text.__alcs_mqtt_kv_del:0000000000000050 .L0 
C:\Users\stapi\AppData\Local\Temp\cc63Vocw.s:71     .text.__alcs_mqtt_kv_del:0000000000000050 .L0 
C:\Users\stapi\AppData\Local\Temp\cc63Vocw.s:72     .text.__alcs_mqtt_kv_del:0000000000000050 .L0 
C:\Users\stapi\AppData\Local\Temp\cc63Vocw.s:74     .text.__alcs_mqtt_kv_del:0000000000000050 .L0 
C:\Users\stapi\AppData\Local\Temp\cc63Vocw.s:76     .text.__alcs_mqtt_kv_del:0000000000000050 .L0 
C:\Users\stapi\AppData\Local\Temp\cc63Vocw.s:78     .text.__alcs_mqtt_kv_del:0000000000000054 .L0 
C:\Users\stapi\AppData\Local\Temp\cc63Vocw.s:88     .text.__alcs_mqtt_kv_get:0000000000000000 __alcs_mqtt_kv_get
C:\Users\stapi\AppData\Local\Temp\cc63Vocw.s:91     .text.__alcs_mqtt_kv_get:0000000000000000 .L0 
C:\Users\stapi\AppData\Local\Temp\cc63Vocw.s:93     .text.__alcs_mqtt_kv_get:0000000000000000 .L0 
C:\Users\stapi\AppData\Local\Temp\cc63Vocw.s:94     .text.__alcs_mqtt_kv_get:0000000000000008 .L0 
C:\Users\stapi\AppData\Local\Temp\cc63Vocw.s:95     .text.__alcs_mqtt_kv_get:0000000000000008 .L0 
C:\Users\stapi\AppData\Local\Temp\cc63Vocw.s:96     .text.__alcs_mqtt_kv_get:0000000000000008 .L0 
C:\Users\stapi\AppData\Local\Temp\cc63Vocw.s:98     .text.__alcs_mqtt_kv_get:0000000000000008 .L0 
C:\Users\stapi\AppData\Local\Temp\cc63Vocw.s:100    .text.__alcs_mqtt_kv_get:000000000000000a .L0 
C:\Users\stapi\AppData\Local\Temp\cc63Vocw.s:101    .text.__alcs_mqtt_kv_get:000000000000000a .L0 
C:\Users\stapi\AppData\Local\Temp\cc63Vocw.s:104    .text.__alcs_mqtt_kv_get:0000000000000012 .L0 
C:\Users\stapi\AppData\Local\Temp\cc63Vocw.s:109    .text.__alcs_mqtt_kv_get:0000000000000014 .L0 
C:\Users\stapi\AppData\Local\Temp\cc63Vocw.s:110    .text.__alcs_mqtt_kv_get:0000000000000014 .L0 
C:\Users\stapi\AppData\Local\Temp\cc63Vocw.s:115    .text.__alcs_mqtt_kv_get:0000000000000024 .L0 
C:\Users\stapi\AppData\Local\Temp\cc63Vocw.s:121    .text.__alcs_mqtt_kv_get:0000000000000036 .L0 
C:\Users\stapi\AppData\Local\Temp\cc63Vocw.s:126    .text.__alcs_mqtt_kv_get:0000000000000046 .L0 
C:\Users\stapi\AppData\Local\Temp\cc63Vocw.s:127    .text.__alcs_mqtt_kv_get:0000000000000046 .L0 
C:\Users\stapi\AppData\Local\Temp\cc63Vocw.s:128    .text.__alcs_mqtt_kv_get:0000000000000046 .L0 
C:\Users\stapi\AppData\Local\Temp\cc63Vocw.s:133    .text.__alcs_mqtt_kv_get:0000000000000048 .L0 
C:\Users\stapi\AppData\Local\Temp\cc63Vocw.s:134    .text.__alcs_mqtt_kv_get:0000000000000050 .L0 
C:\Users\stapi\AppData\Local\Temp\cc63Vocw.s:135    .text.__alcs_mqtt_kv_get:0000000000000050 .L0 
C:\Users\stapi\AppData\Local\Temp\cc63Vocw.s:136    .text.__alcs_mqtt_kv_get:0000000000000050 .L0 
C:\Users\stapi\AppData\Local\Temp\cc63Vocw.s:137    .text.__alcs_mqtt_kv_get:0000000000000050 .L0 
C:\Users\stapi\AppData\Local\Temp\cc63Vocw.s:139    .text.__alcs_mqtt_kv_get:0000000000000050 .L0 
C:\Users\stapi\AppData\Local\Temp\cc63Vocw.s:141    .text.__alcs_mqtt_kv_get:0000000000000050 .L0 
C:\Users\stapi\AppData\Local\Temp\cc63Vocw.s:143    .text.__alcs_mqtt_kv_get:0000000000000054 .L0 
C:\Users\stapi\AppData\Local\Temp\cc63Vocw.s:149    .text.__alcs_mqtt_subscribe.constprop.0:0000000000000000 __alcs_mqtt_subscribe.constprop.0
C:\Users\stapi\AppData\Local\Temp\cc63Vocw.s:152    .text.__alcs_mqtt_subscribe.constprop.0:0000000000000000 .L0 
C:\Users\stapi\AppData\Local\Temp\cc63Vocw.s:154    .text.__alcs_mqtt_subscribe.constprop.0:0000000000000000 .L0 
C:\Users\stapi\AppData\Local\Temp\cc63Vocw.s:155    .text.__alcs_mqtt_subscribe.constprop.0:0000000000000008 .L0 
C:\Users\stapi\AppData\Local\Temp\cc63Vocw.s:156    .text.__alcs_mqtt_subscribe.constprop.0:0000000000000008 .L0 
C:\Users\stapi\AppData\Local\Temp\cc63Vocw.s:159    .text.__alcs_mqtt_subscribe.constprop.0:0000000000000008 .L0 
C:\Users\stapi\AppData\Local\Temp\cc63Vocw.s:160    .text.__alcs_mqtt_subscribe.constprop.0:0000000000000008 .L0 
C:\Users\stapi\AppData\Local\Temp\cc63Vocw.s:978    .text.__alcs_mqtt_subscribe_callback:0000000000000000 __alcs_mqtt_subscribe_callback
C:\Users\stapi\AppData\Local\Temp\cc63Vocw.s:163    .text.__alcs_mqtt_subscribe.constprop.0:0000000000000010 .L0 
C:\Users\stapi\AppData\Local\Temp\cc63Vocw.s:165    .text.__alcs_mqtt_subscribe.constprop.0:0000000000000012 .L0 
C:\Users\stapi\AppData\Local\Temp\cc63Vocw.s:173    .text.__alcs_mqtt_subscribe.constprop.0:0000000000000026 .L0 
C:\Users\stapi\AppData\Local\Temp\cc63Vocw.s:175    .text.__alcs_mqtt_subscribe.constprop.0:0000000000000030 .L0 
C:\Users\stapi\AppData\Local\Temp\cc63Vocw.s:176    .text.__alcs_mqtt_subscribe.constprop.0:0000000000000030 .L0 
C:\Users\stapi\AppData\Local\Temp\cc63Vocw.s:177    .text.__alcs_mqtt_subscribe.constprop.0:0000000000000030 .L0 
C:\Users\stapi\AppData\Local\Temp\cc63Vocw.s:187    .text.__alcs_mqtt_kv_set.constprop.0:0000000000000000 __alcs_mqtt_kv_set.constprop.0
C:\Users\stapi\AppData\Local\Temp\cc63Vocw.s:190    .text.__alcs_mqtt_kv_set.constprop.0:0000000000000000 .L0 
C:\Users\stapi\AppData\Local\Temp\cc63Vocw.s:192    .text.__alcs_mqtt_kv_set.constprop.0:0000000000000000 .L0 
C:\Users\stapi\AppData\Local\Temp\cc63Vocw.s:193    .text.__alcs_mqtt_kv_set.constprop.0:0000000000000008 .L0 
C:\Users\stapi\AppData\Local\Temp\cc63Vocw.s:194    .text.__alcs_mqtt_kv_set.constprop.0:0000000000000008 .L0 
C:\Users\stapi\AppData\Local\Temp\cc63Vocw.s:195    .text.__alcs_mqtt_kv_set.constprop.0:0000000000000008 .L0 
C:\Users\stapi\AppData\Local\Temp\cc63Vocw.s:196    .text.__alcs_mqtt_kv_set.constprop.0:0000000000000008 .L0 
C:\Users\stapi\AppData\Local\Temp\cc63Vocw.s:198    .text.__alcs_mqtt_kv_set.constprop.0:0000000000000008 .L0 
C:\Users\stapi\AppData\Local\Temp\cc63Vocw.s:200    .text.__alcs_mqtt_kv_set.constprop.0:000000000000000a .L0 
C:\Users\stapi\AppData\Local\Temp\cc63Vocw.s:203    .text.__alcs_mqtt_kv_set.constprop.0:000000000000000c .L0 
C:\Users\stapi\AppData\Local\Temp\cc63Vocw.s:204    .text.__alcs_mqtt_kv_set.constprop.0:000000000000000c .L0 
C:\Users\stapi\AppData\Local\Temp\cc63Vocw.s:206    .text.__alcs_mqtt_kv_set.constprop.0:000000000000000e .L0 
C:\Users\stapi\AppData\Local\Temp\cc63Vocw.s:209    .text.__alcs_mqtt_kv_set.constprop.0:0000000000000016 .L0 
C:\Users\stapi\AppData\Local\Temp\cc63Vocw.s:214    .text.__alcs_mqtt_kv_set.constprop.0:0000000000000018 .L0 
C:\Users\stapi\AppData\Local\Temp\cc63Vocw.s:215    .text.__alcs_mqtt_kv_set.constprop.0:0000000000000018 .L0 
C:\Users\stapi\AppData\Local\Temp\cc63Vocw.s:220    .text.__alcs_mqtt_kv_set.constprop.0:0000000000000028 .L0 
C:\Users\stapi\AppData\Local\Temp\cc63Vocw.s:227    .text.__alcs_mqtt_kv_set.constprop.0:000000000000003c .L0 
C:\Users\stapi\AppData\Local\Temp\cc63Vocw.s:232    .text.__alcs_mqtt_kv_set.constprop.0:000000000000004c .L0 
C:\Users\stapi\AppData\Local\Temp\cc63Vocw.s:233    .text.__alcs_mqtt_kv_set.constprop.0:000000000000004c .L0 
C:\Users\stapi\AppData\Local\Temp\cc63Vocw.s:234    .text.__alcs_mqtt_kv_set.constprop.0:000000000000004c .L0 
C:\Users\stapi\AppData\Local\Temp\cc63Vocw.s:239    .text.__alcs_mqtt_kv_set.constprop.0:000000000000004e .L0 
C:\Users\stapi\AppData\Local\Temp\cc63Vocw.s:240    .text.__alcs_mqtt_kv_set.constprop.0:0000000000000056 .L0 
C:\Users\stapi\AppData\Local\Temp\cc63Vocw.s:241    .text.__alcs_mqtt_kv_set.constprop.0:0000000000000056 .L0 
C:\Users\stapi\AppData\Local\Temp\cc63Vocw.s:242    .text.__alcs_mqtt_kv_set.constprop.0:0000000000000056 .L0 
C:\Users\stapi\AppData\Local\Temp\cc63Vocw.s:243    .text.__alcs_mqtt_kv_set.constprop.0:0000000000000056 .L0 
C:\Users\stapi\AppData\Local\Temp\cc63Vocw.s:244    .text.__alcs_mqtt_kv_set.constprop.0:0000000000000056 .L0 
C:\Users\stapi\AppData\Local\Temp\cc63Vocw.s:246    .text.__alcs_mqtt_kv_set.constprop.0:0000000000000056 .L0 
C:\Users\stapi\AppData\Local\Temp\cc63Vocw.s:248    .text.__alcs_mqtt_kv_set.constprop.0:0000000000000056 .L0 
C:\Users\stapi\AppData\Local\Temp\cc63Vocw.s:250    .text.__alcs_mqtt_kv_set.constprop.0:000000000000005a .L0 
C:\Users\stapi\AppData\Local\Temp\cc63Vocw.s:263    .text.__alcs_mqtt_send_response.constprop.0.isra.0:0000000000000000 __alcs_mqtt_send_response.constprop.0.isra.0
C:\Users\stapi\AppData\Local\Temp\cc63Vocw.s:266    .text.__alcs_mqtt_send_response.constprop.0.isra.0:0000000000000000 .L0 
C:\Users\stapi\AppData\Local\Temp\cc63Vocw.s:268    .text.__alcs_mqtt_send_response.constprop.0.isra.0:0000000000000000 .L0 
C:\Users\stapi\AppData\Local\Temp\cc63Vocw.s:269    .text.__alcs_mqtt_send_response.constprop.0.isra.0:0000000000000008 .L0 
C:\Users\stapi\AppData\Local\Temp\cc63Vocw.s:270    .text.__alcs_mqtt_send_response.constprop.0.isra.0:0000000000000008 .L0 
C:\Users\stapi\AppData\Local\Temp\cc63Vocw.s:271    .text.__alcs_mqtt_send_response.constprop.0.isra.0:0000000000000008 .L0 
C:\Users\stapi\AppData\Local\Temp\cc63Vocw.s:272    .text.__alcs_mqtt_send_response.constprop.0.isra.0:0000000000000008 .L0 
C:\Users\stapi\AppData\Local\Temp\cc63Vocw.s:275    .text.__alcs_mqtt_send_response.constprop.0.isra.0:0000000000000008 .L0 
C:\Users\stapi\AppData\Local\Temp\cc63Vocw.s:276    .text.__alcs_mqtt_send_response.constprop.0.isra.0:0000000000000008 .L0 
C:\Users\stapi\AppData\Local\Temp\cc63Vocw.s:277    .text.__alcs_mqtt_send_response.constprop.0.isra.0:0000000000000008 .L0 
C:\Users\stapi\AppData\Local\Temp\cc63Vocw.s:278    .text.__alcs_mqtt_send_response.constprop.0.isra.0:0000000000000008 .L0 
C:\Users\stapi\AppData\Local\Temp\cc63Vocw.s:279    .text.__alcs_mqtt_send_response.constprop.0.isra.0:0000000000000008 .L0 
C:\Users\stapi\AppData\Local\Temp\cc63Vocw.s:280    .text.__alcs_mqtt_send_response.constprop.0.isra.0:0000000000000008 .L0 
C:\Users\stapi\AppData\Local\Temp\cc63Vocw.s:281    .text.__alcs_mqtt_send_response.constprop.0.isra.0:0000000000000008 .L0 
C:\Users\stapi\AppData\Local\Temp\cc63Vocw.s:282    .text.__alcs_mqtt_send_response.constprop.0.isra.0:0000000000000008 .L0 
C:\Users\stapi\AppData\Local\Temp\cc63Vocw.s:283    .text.__alcs_mqtt_send_response.constprop.0.isra.0:000000000000000a .L0 
C:\Users\stapi\AppData\Local\Temp\cc63Vocw.s:285    .text.__alcs_mqtt_send_response.constprop.0.isra.0:000000000000000a .L0 
C:\Users\stapi\AppData\Local\Temp\cc63Vocw.s:288    .text.__alcs_mqtt_send_response.constprop.0.isra.0:000000000000000e .L0 
C:\Users\stapi\AppData\Local\Temp\cc63Vocw.s:296    .text.__alcs_mqtt_send_response.constprop.0.isra.0:000000000000001e .L0 
C:\Users\stapi\AppData\Local\Temp\cc63Vocw.s:298    .text.__alcs_mqtt_send_response.constprop.0.isra.0:0000000000000020 .L0 
C:\Users\stapi\AppData\Local\Temp\cc63Vocw.s:307    .text.__alcs_mqtt_send_response.constprop.0.isra.0:000000000000003c .L0 
C:\Users\stapi\AppData\Local\Temp\cc63Vocw.s:310    .text.__alcs_mqtt_send_response.constprop.0.isra.0:0000000000000044 .L0 
C:\Users\stapi\AppData\Local\Temp\cc63Vocw.s:311    .text.__alcs_mqtt_send_response.constprop.0.isra.0:0000000000000044 .L0 
C:\Users\stapi\AppData\Local\Temp\cc63Vocw.s:319    .text.__alcs_mqtt_send_response.constprop.0.isra.0:0000000000000050 .L0 
C:\Users\stapi\AppData\Local\Temp\cc63Vocw.s:320    .text.__alcs_mqtt_send_response.constprop.0.isra.0:0000000000000050 .L0 
C:\Users\stapi\AppData\Local\Temp\cc63Vocw.s:330    .text.__alcs_mqtt_send_response.constprop.0.isra.0:0000000000000060 .L0 
C:\Users\stapi\AppData\Local\Temp\cc63Vocw.s:335    .text.__alcs_mqtt_send_response.constprop.0.isra.0:000000000000006a .L0 
C:\Users\stapi\AppData\Local\Temp\cc63Vocw.s:336    .text.__alcs_mqtt_send_response.constprop.0.isra.0:000000000000006a .L0 
C:\Users\stapi\AppData\Local\Temp\cc63Vocw.s:337    .text.__alcs_mqtt_send_response.constprop.0.isra.0:000000000000006c .L0 
C:\Users\stapi\AppData\Local\Temp\cc63Vocw.s:340    .text.__alcs_mqtt_send_response.constprop.0.isra.0:0000000000000074 .L0 
C:\Users\stapi\AppData\Local\Temp\cc63Vocw.s:341    .text.__alcs_mqtt_send_response.constprop.0.isra.0:0000000000000074 .L0 
C:\Users\stapi\AppData\Local\Temp\cc63Vocw.s:342    .text.__alcs_mqtt_send_response.constprop.0.isra.0:0000000000000074 .L0 
C:\Users\stapi\AppData\Local\Temp\cc63Vocw.s:343    .text.__alcs_mqtt_send_response.constprop.0.isra.0:0000000000000074 .L0 
C:\Users\stapi\AppData\Local\Temp\cc63Vocw.s:344    .text.__alcs_mqtt_send_response.constprop.0.isra.0:0000000000000074 .L0 
C:\Users\stapi\AppData\Local\Temp\cc63Vocw.s:370    .text.__alcs_mqtt_prefix_secret_save:0000000000000000 __alcs_mqtt_prefix_secret_save
C:\Users\stapi\AppData\Local\Temp\cc63Vocw.s:373    .text.__alcs_mqtt_prefix_secret_save:0000000000000000 .L0 
C:\Users\stapi\AppData\Local\Temp\cc63Vocw.s:375    .text.__alcs_mqtt_prefix_secret_save:0000000000000000 .L0 
C:\Users\stapi\AppData\Local\Temp\cc63Vocw.s:376    .text.__alcs_mqtt_prefix_secret_save:0000000000000008 .L0 
C:\Users\stapi\AppData\Local\Temp\cc63Vocw.s:377    .text.__alcs_mqtt_prefix_secret_save:0000000000000008 .L0 
C:\Users\stapi\AppData\Local\Temp\cc63Vocw.s:378    .text.__alcs_mqtt_prefix_secret_save:0000000000000008 .L0 
C:\Users\stapi\AppData\Local\Temp\cc63Vocw.s:379    .text.__alcs_mqtt_prefix_secret_save:0000000000000008 .L0 
C:\Users\stapi\AppData\Local\Temp\cc63Vocw.s:380    .text.__alcs_mqtt_prefix_secret_save:0000000000000008 .L0 
C:\Users\stapi\AppData\Local\Temp\cc63Vocw.s:381    .text.__alcs_mqtt_prefix_secret_save:0000000000000008 .L0 
C:\Users\stapi\AppData\Local\Temp\cc63Vocw.s:382    .text.__alcs_mqtt_prefix_secret_save:0000000000000008 .L0 
C:\Users\stapi\AppData\Local\Temp\cc63Vocw.s:383    .text.__alcs_mqtt_prefix_secret_save:0000000000000008 .L0 
C:\Users\stapi\AppData\Local\Temp\cc63Vocw.s:384    .text.__alcs_mqtt_prefix_secret_save:0000000000000008 .L0 
C:\Users\stapi\AppData\Local\Temp\cc63Vocw.s:385    .text.__alcs_mqtt_prefix_secret_save:0000000000000008 .L0 
C:\Users\stapi\AppData\Local\Temp\cc63Vocw.s:386    .text.__alcs_mqtt_prefix_secret_save:0000000000000008 .L0 
C:\Users\stapi\AppData\Local\Temp\cc63Vocw.s:387    .text.__alcs_mqtt_prefix_secret_save:0000000000000008 .L0 
C:\Users\stapi\AppData\Local\Temp\cc63Vocw.s:390    .text.__alcs_mqtt_prefix_secret_save:0000000000000008 .L0 
C:\Users\stapi\AppData\Local\Temp\cc63Vocw.s:391    .text.__alcs_mqtt_prefix_secret_save:0000000000000008 .L0 
C:\Users\stapi\AppData\Local\Temp\cc63Vocw.s:392    .text.__alcs_mqtt_prefix_secret_save:0000000000000008 .L0 
C:\Users\stapi\AppData\Local\Temp\cc63Vocw.s:393    .text.__alcs_mqtt_prefix_secret_save:000000000000000a .L0 
C:\Users\stapi\AppData\Local\Temp\cc63Vocw.s:395    .text.__alcs_mqtt_prefix_secret_save:000000000000000a .L0 
C:\Users\stapi\AppData\Local\Temp\cc63Vocw.s:399    .text.__alcs_mqtt_prefix_secret_save:0000000000000010 .L0 
C:\Users\stapi\AppData\Local\Temp\cc63Vocw.s:406    .text.__alcs_mqtt_prefix_secret_save:0000000000000016 .L0 
C:\Users\stapi\AppData\Local\Temp\cc63Vocw.s:412    .text.__alcs_mqtt_prefix_secret_save:0000000000000020 .L0 
C:\Users\stapi\AppData\Local\Temp\cc63Vocw.s:417    .text.__alcs_mqtt_prefix_secret_save:0000000000000028 .L0 
C:\Users\stapi\AppData\Local\Temp\cc63Vocw.s:418    .text.__alcs_mqtt_prefix_secret_save:0000000000000028 .L0 
C:\Users\stapi\AppData\Local\Temp\cc63Vocw.s:422    .text.__alcs_mqtt_prefix_secret_save:0000000000000032 .L0 
C:\Users\stapi\AppData\Local\Temp\cc63Vocw.s:423    .text.__alcs_mqtt_prefix_secret_save:0000000000000032 .L0 
C:\Users\stapi\AppData\Local\Temp\cc63Vocw.s:424    .text.__alcs_mqtt_prefix_secret_save:0000000000000032 .L0 
C:\Users\stapi\AppData\Local\Temp\cc63Vocw.s:426    .text.__alcs_mqtt_prefix_secret_save:0000000000000036 .L0 
C:\Users\stapi\AppData\Local\Temp\cc63Vocw.s:429    .text.__alcs_mqtt_prefix_secret_save:000000000000003c .L0 
C:\Users\stapi\AppData\Local\Temp\cc63Vocw.s:431    .text.__alcs_mqtt_prefix_secret_save:0000000000000040 .L0 
C:\Users\stapi\AppData\Local\Temp\cc63Vocw.s:434    .text.__alcs_mqtt_prefix_secret_save:0000000000000048 .L0 
C:\Users\stapi\AppData\Local\Temp\cc63Vocw.s:436    .text.__alcs_mqtt_prefix_secret_save:000000000000004c .L0 
C:\Users\stapi\AppData\Local\Temp\cc63Vocw.s:439    .text.__alcs_mqtt_prefix_secret_save:0000000000000050 .L0 
C:\Users\stapi\AppData\Local\Temp\cc63Vocw.s:440    .text.__alcs_mqtt_prefix_secret_save:0000000000000050 .L0 
C:\Users\stapi\AppData\Local\Temp\cc63Vocw.s:445    .text.__alcs_mqtt_prefix_secret_save:0000000000000060 .L0 
C:\Users\stapi\AppData\Local\Temp\cc63Vocw.s:450    .text.__alcs_mqtt_prefix_secret_save:0000000000000068 .L0 
C:\Users\stapi\AppData\Local\Temp\cc63Vocw.s:453    .text.__alcs_mqtt_prefix_secret_save:0000000000000070 .L0 
C:\Users\stapi\AppData\Local\Temp\cc63Vocw.s:458    .text.__alcs_mqtt_prefix_secret_save:0000000000000080 .L0 
C:\Users\stapi\AppData\Local\Temp\cc63Vocw.s:460    .text.__alcs_mqtt_prefix_secret_save:0000000000000080 .L0 
C:\Users\stapi\AppData\Local\Temp\cc63Vocw.s:461    .text.__alcs_mqtt_prefix_secret_save:0000000000000080 .L0 
C:\Users\stapi\AppData\Local\Temp\cc63Vocw.s:462    .text.__alcs_mqtt_prefix_secret_save:0000000000000080 .L0 
C:\Users\stapi\AppData\Local\Temp\cc63Vocw.s:465    .text.__alcs_mqtt_prefix_secret_save:0000000000000082 .L0 
C:\Users\stapi\AppData\Local\Temp\cc63Vocw.s:467    .text.__alcs_mqtt_prefix_secret_save:0000000000000086 .L0 
C:\Users\stapi\AppData\Local\Temp\cc63Vocw.s:468    .text.__alcs_mqtt_prefix_secret_save:0000000000000086 .L0 
C:\Users\stapi\AppData\Local\Temp\cc63Vocw.s:470    .text.__alcs_mqtt_prefix_secret_save:000000000000008e .L0 
C:\Users\stapi\AppData\Local\Temp\cc63Vocw.s:471    .text.__alcs_mqtt_prefix_secret_save:000000000000008e .L0 
C:\Users\stapi\AppData\Local\Temp\cc63Vocw.s:472    .text.__alcs_mqtt_prefix_secret_save:000000000000008e .L0 
C:\Users\stapi\AppData\Local\Temp\cc63Vocw.s:473    .text.__alcs_mqtt_prefix_secret_save:000000000000008e .L0 
C:\Users\stapi\AppData\Local\Temp\cc63Vocw.s:474    .text.__alcs_mqtt_prefix_secret_save:000000000000008e .L0 
C:\Users\stapi\AppData\Local\Temp\cc63Vocw.s:475    .text.__alcs_mqtt_prefix_secret_save:000000000000008e .L0 
C:\Users\stapi\AppData\Local\Temp\cc63Vocw.s:476    .text.__alcs_mqtt_prefix_secret_save:000000000000008e .L0 
C:\Users\stapi\AppData\Local\Temp\cc63Vocw.s:477    .text.__alcs_mqtt_prefix_secret_save:000000000000008e .L0 
C:\Users\stapi\AppData\Local\Temp\cc63Vocw.s:478    .text.__alcs_mqtt_prefix_secret_save:000000000000008e .L0 
C:\Users\stapi\AppData\Local\Temp\cc63Vocw.s:479    .text.__alcs_mqtt_prefix_secret_save:000000000000008e .L0 
C:\Users\stapi\AppData\Local\Temp\cc63Vocw.s:480    .text.__alcs_mqtt_prefix_secret_save:000000000000008e .L0 
C:\Users\stapi\AppData\Local\Temp\cc63Vocw.s:481    .text.__alcs_mqtt_prefix_secret_save:000000000000008e .L0 
C:\Users\stapi\AppData\Local\Temp\cc63Vocw.s:484    .text.__alcs_mqtt_prefix_secret_save:000000000000008e .L0 
C:\Users\stapi\AppData\Local\Temp\cc63Vocw.s:486    .text.__alcs_mqtt_prefix_secret_save:000000000000008e .L0 
C:\Users\stapi\AppData\Local\Temp\cc63Vocw.s:487    .text.__alcs_mqtt_prefix_secret_save:000000000000008e .L0 
C:\Users\stapi\AppData\Local\Temp\cc63Vocw.s:497    .text.__alcs_mqtt_prefix_secret_save:00000000000000a4 .L0 
C:\Users\stapi\AppData\Local\Temp\cc63Vocw.s:498    .text.__alcs_mqtt_prefix_secret_save:00000000000000a4 .L0 
C:\Users\stapi\AppData\Local\Temp\cc63Vocw.s:500    .text.__alcs_mqtt_prefix_secret_save:00000000000000a6 .L0 
C:\Users\stapi\AppData\Local\Temp\cc63Vocw.s:501    .text.__alcs_mqtt_prefix_secret_save:00000000000000a6 .L0 
C:\Users\stapi\AppData\Local\Temp\cc63Vocw.s:506    .text.__alcs_mqtt_prefix_secret_save:00000000000000b6 .L0 
C:\Users\stapi\AppData\Local\Temp\cc63Vocw.s:511    .text.__alcs_mqtt_prefix_secret_save:00000000000000c0 .L0 
C:\Users\stapi\AppData\Local\Temp\cc63Vocw.s:516    .text.__alcs_mqtt_prefix_secret_save:00000000000000cc .L0 
C:\Users\stapi\AppData\Local\Temp\cc63Vocw.s:528    .text.__alcs_mqtt_prefix_secret_save:00000000000000e8 .L0 
C:\Users\stapi\AppData\Local\Temp\cc63Vocw.s:537    .text.__alcs_mqtt_prefix_secret_save:0000000000000100 .L0 
C:\Users\stapi\AppData\Local\Temp\cc63Vocw.s:540    .text.__alcs_mqtt_prefix_secret_save:0000000000000104 .L0 
C:\Users\stapi\AppData\Local\Temp\cc63Vocw.s:542    .text.__alcs_mqtt_prefix_secret_save:0000000000000108 .L0 
C:\Users\stapi\AppData\Local\Temp\cc63Vocw.s:545    .text.__alcs_mqtt_prefix_secret_save:0000000000000110 .L0 
C:\Users\stapi\AppData\Local\Temp\cc63Vocw.s:546    .text.__alcs_mqtt_prefix_secret_save:0000000000000110 .L0 
C:\Users\stapi\AppData\Local\Temp\cc63Vocw.s:555    .text.__alcs_mqtt_prefix_secret_save:0000000000000124 .L0 
C:\Users\stapi\AppData\Local\Temp\cc63Vocw.s:556    .text.__alcs_mqtt_prefix_secret_save:0000000000000124 .L0 
C:\Users\stapi\AppData\Local\Temp\cc63Vocw.s:558    .text.__alcs_mqtt_prefix_secret_save:0000000000000126 .L0 
C:\Users\stapi\AppData\Local\Temp\cc63Vocw.s:559    .text.__alcs_mqtt_prefix_secret_save:0000000000000126 .L0 
C:\Users\stapi\AppData\Local\Temp\cc63Vocw.s:564    .text.__alcs_mqtt_prefix_secret_save:0000000000000136 .L0 
C:\Users\stapi\AppData\Local\Temp\cc63Vocw.s:569    .text.__alcs_mqtt_prefix_secret_save:0000000000000146 .L0 
C:\Users\stapi\AppData\Local\Temp\cc63Vocw.s:574    .text.__alcs_mqtt_prefix_secret_save:0000000000000156 .L0 
C:\Users\stapi\AppData\Local\Temp\cc63Vocw.s:575    .text.__alcs_mqtt_prefix_secret_save:0000000000000156 .L0 
C:\Users\stapi\AppData\Local\Temp\cc63Vocw.s:578    .text.__alcs_mqtt_prefix_secret_save:0000000000000158 .L0 
C:\Users\stapi\AppData\Local\Temp\cc63Vocw.s:583    .text.__alcs_mqtt_prefix_secret_save:0000000000000162 .L0 
C:\Users\stapi\AppData\Local\Temp\cc63Vocw.s:588    .text.__alcs_mqtt_prefix_secret_save:000000000000016e .L0 
C:\Users\stapi\AppData\Local\Temp\cc63Vocw.s:589    .text.__alcs_mqtt_prefix_secret_save:000000000000016e .L0 
C:\Users\stapi\AppData\Local\Temp\cc63Vocw.s:596    .text.__alcs_mqtt_prefix_secret_save:000000000000017e .L0 
C:\Users\stapi\AppData\Local\Temp\cc63Vocw.s:598    .text.__alcs_mqtt_prefix_secret_save:0000000000000182 .L0 
C:\Users\stapi\AppData\Local\Temp\cc63Vocw.s:599    .text.__alcs_mqtt_prefix_secret_save:0000000000000182 .L0 
C:\Users\stapi\AppData\Local\Temp\cc63Vocw.s:601    .text.__alcs_mqtt_prefix_secret_save:0000000000000186 .L0 
C:\Users\stapi\AppData\Local\Temp\cc63Vocw.s:605    .text.__alcs_mqtt_prefix_secret_save:0000000000000192 .L0 
C:\Users\stapi\AppData\Local\Temp\cc63Vocw.s:609    .text.__alcs_mqtt_prefix_secret_save:000000000000019c .L0 
C:\Users\stapi\AppData\Local\Temp\cc63Vocw.s:610    .text.__alcs_mqtt_prefix_secret_save:000000000000019c .L0 
C:\Users\stapi\AppData\Local\Temp\cc63Vocw.s:618    .text.__alcs_mqtt_prefix_secret_save:00000000000001b2 .L0 
C:\Users\stapi\AppData\Local\Temp\cc63Vocw.s:620    .text.__alcs_mqtt_prefix_secret_save:00000000000001b4 .L0 
C:\Users\stapi\AppData\Local\Temp\cc63Vocw.s:621    .text.__alcs_mqtt_prefix_secret_save:00000000000001b4 .L0 
C:\Users\stapi\AppData\Local\Temp\cc63Vocw.s:626    .text.__alcs_mqtt_prefix_secret_save:00000000000001c4 .L0 
C:\Users\stapi\AppData\Local\Temp\cc63Vocw.s:631    .text.__alcs_mqtt_prefix_secret_save:00000000000001d4 .L0 
C:\Users\stapi\AppData\Local\Temp\cc63Vocw.s:636    .text.__alcs_mqtt_prefix_secret_save:00000000000001e4 .L0 
C:\Users\stapi\AppData\Local\Temp\cc63Vocw.s:637    .text.__alcs_mqtt_prefix_secret_save:00000000000001e4 .L0 
C:\Users\stapi\AppData\Local\Temp\cc63Vocw.s:641    .text.__alcs_mqtt_prefix_secret_save:00000000000001ee .L0 
C:\Users\stapi\AppData\Local\Temp\cc63Vocw.s:645    .text.__alcs_mqtt_prefix_secret_save:00000000000001f2 .L0 
C:\Users\stapi\AppData\Local\Temp\cc63Vocw.s:649    .text.__alcs_mqtt_prefix_secret_save:00000000000001fc .L0 
C:\Users\stapi\AppData\Local\Temp\cc63Vocw.s:653    .text.__alcs_mqtt_prefix_secret_save:0000000000000206 .L0 
C:\Users\stapi\AppData\Local\Temp\cc63Vocw.s:654    .text.__alcs_mqtt_prefix_secret_save:0000000000000206 .L0 
C:\Users\stapi\AppData\Local\Temp\cc63Vocw.s:655    .text.__alcs_mqtt_prefix_secret_save:0000000000000208 .L0 
C:\Users\stapi\AppData\Local\Temp\cc63Vocw.s:666    .text.alcs_mqtt_prefix_secret_load:0000000000000000 alcs_mqtt_prefix_secret_load
C:\Users\stapi\AppData\Local\Temp\cc63Vocw.s:669    .text.alcs_mqtt_prefix_secret_load:0000000000000000 .L0 
C:\Users\stapi\AppData\Local\Temp\cc63Vocw.s:671    .text.alcs_mqtt_prefix_secret_load:0000000000000000 .L0 
C:\Users\stapi\AppData\Local\Temp\cc63Vocw.s:672    .text.alcs_mqtt_prefix_secret_load:0000000000000008 .L0 
C:\Users\stapi\AppData\Local\Temp\cc63Vocw.s:673    .text.alcs_mqtt_prefix_secret_load:0000000000000008 .L0 
C:\Users\stapi\AppData\Local\Temp\cc63Vocw.s:674    .text.alcs_mqtt_prefix_secret_load:0000000000000008 .L0 
C:\Users\stapi\AppData\Local\Temp\cc63Vocw.s:675    .text.alcs_mqtt_prefix_secret_load:0000000000000008 .L0 
C:\Users\stapi\AppData\Local\Temp\cc63Vocw.s:676    .text.alcs_mqtt_prefix_secret_load:0000000000000008 .L0 
C:\Users\stapi\AppData\Local\Temp\cc63Vocw.s:677    .text.alcs_mqtt_prefix_secret_load:0000000000000008 .L0 
C:\Users\stapi\AppData\Local\Temp\cc63Vocw.s:678    .text.alcs_mqtt_prefix_secret_load:0000000000000008 .L0 
C:\Users\stapi\AppData\Local\Temp\cc63Vocw.s:679    .text.alcs_mqtt_prefix_secret_load:0000000000000008 .L0 
C:\Users\stapi\AppData\Local\Temp\cc63Vocw.s:680    .text.alcs_mqtt_prefix_secret_load:0000000000000008 .L0 
C:\Users\stapi\AppData\Local\Temp\cc63Vocw.s:681    .text.alcs_mqtt_prefix_secret_load:0000000000000008 .L0 
C:\Users\stapi\AppData\Local\Temp\cc63Vocw.s:684    .text.alcs_mqtt_prefix_secret_load:0000000000000008 .L0 
C:\Users\stapi\AppData\Local\Temp\cc63Vocw.s:685    .text.alcs_mqtt_prefix_secret_load:0000000000000008 .L0 
C:\Users\stapi\AppData\Local\Temp\cc63Vocw.s:686    .text.alcs_mqtt_prefix_secret_load:0000000000000008 .L0 
C:\Users\stapi\AppData\Local\Temp\cc63Vocw.s:687    .text.alcs_mqtt_prefix_secret_load:000000000000000a .L0 
C:\Users\stapi\AppData\Local\Temp\cc63Vocw.s:689    .text.alcs_mqtt_prefix_secret_load:000000000000000a .L0 
C:\Users\stapi\AppData\Local\Temp\cc63Vocw.s:693    .text.alcs_mqtt_prefix_secret_load:0000000000000010 .L0 
C:\Users\stapi\AppData\Local\Temp\cc63Vocw.s:700    .text.alcs_mqtt_prefix_secret_load:0000000000000016 .L0 
C:\Users\stapi\AppData\Local\Temp\cc63Vocw.s:704    .text.alcs_mqtt_prefix_secret_load:000000000000001c .L0 
C:\Users\stapi\AppData\Local\Temp\cc63Vocw.s:709    .text.alcs_mqtt_prefix_secret_load:0000000000000024 .L0 
C:\Users\stapi\AppData\Local\Temp\cc63Vocw.s:710    .text.alcs_mqtt_prefix_secret_load:0000000000000024 .L0 
C:\Users\stapi\AppData\Local\Temp\cc63Vocw.s:714    .text.alcs_mqtt_prefix_secret_load:000000000000002e .L0 
C:\Users\stapi\AppData\Local\Temp\cc63Vocw.s:715    .text.alcs_mqtt_prefix_secret_load:000000000000002e .L0 
C:\Users\stapi\AppData\Local\Temp\cc63Vocw.s:722    .text.alcs_mqtt_prefix_secret_load:0000000000000040 .L0 
C:\Users\stapi\AppData\Local\Temp\cc63Vocw.s:723    .text.alcs_mqtt_prefix_secret_load:0000000000000040 .L0 
C:\Users\stapi\AppData\Local\Temp\cc63Vocw.s:726    .text.alcs_mqtt_prefix_secret_load:0000000000000046 .L0 
C:\Users\stapi\AppData\Local\Temp\cc63Vocw.s:727    .text.alcs_mqtt_prefix_secret_load:0000000000000046 .L0 
C:\Users\stapi\AppData\Local\Temp\cc63Vocw.s:729    .text.alcs_mqtt_prefix_secret_load:000000000000004a .L0 
C:\Users\stapi\AppData\Local\Temp\cc63Vocw.s:733    .text.alcs_mqtt_prefix_secret_load:0000000000000054 .L0 
C:\Users\stapi\AppData\Local\Temp\cc63Vocw.s:736    .text.alcs_mqtt_prefix_secret_load:000000000000005a .L0 
C:\Users\stapi\AppData\Local\Temp\cc63Vocw.s:738    .text.alcs_mqtt_prefix_secret_load:000000000000005e .L0 
C:\Users\stapi\AppData\Local\Temp\cc63Vocw.s:742    .text.alcs_mqtt_prefix_secret_load:0000000000000068 .L0 
C:\Users\stapi\AppData\Local\Temp\cc63Vocw.s:745    .text.alcs_mqtt_prefix_secret_load:0000000000000070 .L0 
C:\Users\stapi\AppData\Local\Temp\cc63Vocw.s:747    .text.alcs_mqtt_prefix_secret_load:0000000000000074 .L0 
C:\Users\stapi\AppData\Local\Temp\cc63Vocw.s:750    .text.alcs_mqtt_prefix_secret_load:0000000000000078 .L0 
C:\Users\stapi\AppData\Local\Temp\cc63Vocw.s:751    .text.alcs_mqtt_prefix_secret_load:0000000000000078 .L0 
C:\Users\stapi\AppData\Local\Temp\cc63Vocw.s:756    .text.alcs_mqtt_prefix_secret_load:0000000000000088 .L0 
C:\Users\stapi\AppData\Local\Temp\cc63Vocw.s:761    .text.alcs_mqtt_prefix_secret_load:0000000000000090 .L0 
C:\Users\stapi\AppData\Local\Temp\cc63Vocw.s:764    .text.alcs_mqtt_prefix_secret_load:0000000000000098 .L0 
C:\Users\stapi\AppData\Local\Temp\cc63Vocw.s:769    .text.alcs_mqtt_prefix_secret_load:00000000000000a8 .L0 
C:\Users\stapi\AppData\Local\Temp\cc63Vocw.s:771    .text.alcs_mqtt_prefix_secret_load:00000000000000a8 .L0 
C:\Users\stapi\AppData\Local\Temp\cc63Vocw.s:772    .text.alcs_mqtt_prefix_secret_load:00000000000000a8 .L0 
C:\Users\stapi\AppData\Local\Temp\cc63Vocw.s:773    .text.alcs_mqtt_prefix_secret_load:00000000000000a8 .L0 
C:\Users\stapi\AppData\Local\Temp\cc63Vocw.s:777    .text.alcs_mqtt_prefix_secret_load:00000000000000aa .L0 
C:\Users\stapi\AppData\Local\Temp\cc63Vocw.s:779    .text.alcs_mqtt_prefix_secret_load:00000000000000ae .L0 
C:\Users\stapi\AppData\Local\Temp\cc63Vocw.s:780    .text.alcs_mqtt_prefix_secret_load:00000000000000ae .L0 
C:\Users\stapi\AppData\Local\Temp\cc63Vocw.s:782    .text.alcs_mqtt_prefix_secret_load:00000000000000b6 .L0 
C:\Users\stapi\AppData\Local\Temp\cc63Vocw.s:783    .text.alcs_mqtt_prefix_secret_load:00000000000000b6 .L0 
C:\Users\stapi\AppData\Local\Temp\cc63Vocw.s:784    .text.alcs_mqtt_prefix_secret_load:00000000000000b6 .L0 
C:\Users\stapi\AppData\Local\Temp\cc63Vocw.s:785    .text.alcs_mqtt_prefix_secret_load:00000000000000b6 .L0 
C:\Users\stapi\AppData\Local\Temp\cc63Vocw.s:786    .text.alcs_mqtt_prefix_secret_load:00000000000000b6 .L0 
C:\Users\stapi\AppData\Local\Temp\cc63Vocw.s:787    .text.alcs_mqtt_prefix_secret_load:00000000000000b6 .L0 
C:\Users\stapi\AppData\Local\Temp\cc63Vocw.s:788    .text.alcs_mqtt_prefix_secret_load:00000000000000b6 .L0 
C:\Users\stapi\AppData\Local\Temp\cc63Vocw.s:789    .text.alcs_mqtt_prefix_secret_load:00000000000000b6 .L0 
C:\Users\stapi\AppData\Local\Temp\cc63Vocw.s:790    .text.alcs_mqtt_prefix_secret_load:00000000000000b6 .L0 
C:\Users\stapi\AppData\Local\Temp\cc63Vocw.s:791    .text.alcs_mqtt_prefix_secret_load:00000000000000b6 .L0 
C:\Users\stapi\AppData\Local\Temp\cc63Vocw.s:794    .text.alcs_mqtt_prefix_secret_load:00000000000000b6 .L0 
C:\Users\stapi\AppData\Local\Temp\cc63Vocw.s:796    .text.alcs_mqtt_prefix_secret_load:00000000000000b6 .L0 
C:\Users\stapi\AppData\Local\Temp\cc63Vocw.s:797    .text.alcs_mqtt_prefix_secret_load:00000000000000b6 .L0 
C:\Users\stapi\AppData\Local\Temp\cc63Vocw.s:807    .text.alcs_mqtt_prefix_secret_load:00000000000000cc .L0 
C:\Users\stapi\AppData\Local\Temp\cc63Vocw.s:808    .text.alcs_mqtt_prefix_secret_load:00000000000000cc .L0 
C:\Users\stapi\AppData\Local\Temp\cc63Vocw.s:810    .text.alcs_mqtt_prefix_secret_load:00000000000000ce .L0 
C:\Users\stapi\AppData\Local\Temp\cc63Vocw.s:811    .text.alcs_mqtt_prefix_secret_load:00000000000000ce .L0 
C:\Users\stapi\AppData\Local\Temp\cc63Vocw.s:816    .text.alcs_mqtt_prefix_secret_load:00000000000000de .L0 
C:\Users\stapi\AppData\Local\Temp\cc63Vocw.s:821    .text.alcs_mqtt_prefix_secret_load:00000000000000e8 .L0 
C:\Users\stapi\AppData\Local\Temp\cc63Vocw.s:826    .text.alcs_mqtt_prefix_secret_load:00000000000000f4 .L0 
C:\Users\stapi\AppData\Local\Temp\cc63Vocw.s:837    .text.alcs_mqtt_prefix_secret_load:0000000000000110 .L0 
C:\Users\stapi\AppData\Local\Temp\cc63Vocw.s:846    .text.alcs_mqtt_prefix_secret_load:0000000000000128 .L0 
C:\Users\stapi\AppData\Local\Temp\cc63Vocw.s:851    .text.alcs_mqtt_prefix_secret_load:0000000000000134 .L0 
C:\Users\stapi\AppData\Local\Temp\cc63Vocw.s:852    .text.alcs_mqtt_prefix_secret_load:0000000000000134 .L0 
C:\Users\stapi\AppData\Local\Temp\cc63Vocw.s:860    .text.alcs_mqtt_prefix_secret_load:000000000000014a .L0 
C:\Users\stapi\AppData\Local\Temp\cc63Vocw.s:862    .text.alcs_mqtt_prefix_secret_load:000000000000014c .L0 
C:\Users\stapi\AppData\Local\Temp\cc63Vocw.s:863    .text.alcs_mqtt_prefix_secret_load:000000000000014c .L0 
C:\Users\stapi\AppData\Local\Temp\cc63Vocw.s:868    .text.alcs_mqtt_prefix_secret_load:000000000000015c .L0 
C:\Users\stapi\AppData\Local\Temp\cc63Vocw.s:873    .text.alcs_mqtt_prefix_secret_load:000000000000016c .L0 
C:\Users\stapi\AppData\Local\Temp\cc63Vocw.s:878    .text.alcs_mqtt_prefix_secret_load:000000000000017c .L0 
C:\Users\stapi\AppData\Local\Temp\cc63Vocw.s:879    .text.alcs_mqtt_prefix_secret_load:000000000000017c .L0 
C:\Users\stapi\AppData\Local\Temp\cc63Vocw.s:885    .text.alcs_mqtt_prefix_secret_load:0000000000000188 .L0 
C:\Users\stapi\AppData\Local\Temp\cc63Vocw.s:886    .text.alcs_mqtt_prefix_secret_load:0000000000000188 .L0 
C:\Users\stapi\AppData\Local\Temp\cc63Vocw.s:889    .text.alcs_mqtt_prefix_secret_load:000000000000018c .L0 
C:\Users\stapi\AppData\Local\Temp\cc63Vocw.s:895    .text.alcs_mqtt_prefix_secret_load:000000000000019c .L0 
C:\Users\stapi\AppData\Local\Temp\cc63Vocw.s:897    .text.alcs_mqtt_prefix_secret_load:000000000000019e .L0 
C:\Users\stapi\AppData\Local\Temp\cc63Vocw.s:899    .text.alcs_mqtt_prefix_secret_load:00000000000001a2 .L0 
C:\Users\stapi\AppData\Local\Temp\cc63Vocw.s:905    .text.alcs_mqtt_prefix_secret_load:00000000000001b2 .L0 
C:\Users\stapi\AppData\Local\Temp\cc63Vocw.s:909    .text.alcs_mqtt_prefix_secret_load:00000000000001bc .L0 
C:\Users\stapi\AppData\Local\Temp\cc63Vocw.s:910    .text.alcs_mqtt_prefix_secret_load:00000000000001bc .L0 
C:\Users\stapi\AppData\Local\Temp\cc63Vocw.s:911    .text.alcs_mqtt_prefix_secret_load:00000000000001be .L0 
C:\Users\stapi\AppData\Local\Temp\cc63Vocw.s:981    .text.__alcs_mqtt_subscribe_callback:0000000000000000 .L0 
C:\Users\stapi\AppData\Local\Temp\cc63Vocw.s:983    .text.__alcs_mqtt_subscribe_callback:0000000000000000 .L0 
C:\Users\stapi\AppData\Local\Temp\cc63Vocw.s:984    .text.__alcs_mqtt_subscribe_callback:0000000000000008 .L0 
C:\Users\stapi\AppData\Local\Temp\cc63Vocw.s:985    .text.__alcs_mqtt_subscribe_callback:0000000000000008 .L0 
C:\Users\stapi\AppData\Local\Temp\cc63Vocw.s:986    .text.__alcs_mqtt_subscribe_callback:0000000000000008 .L0 
C:\Users\stapi\AppData\Local\Temp\cc63Vocw.s:987    .text.__alcs_mqtt_subscribe_callback:0000000000000008 .L0 
C:\Users\stapi\AppData\Local\Temp\cc63Vocw.s:988    .text.__alcs_mqtt_subscribe_callback:0000000000000008 .L0 
C:\Users\stapi\AppData\Local\Temp\cc63Vocw.s:989    .text.__alcs_mqtt_subscribe_callback:0000000000000008 .L0 
C:\Users\stapi\AppData\Local\Temp\cc63Vocw.s:990    .text.__alcs_mqtt_subscribe_callback:0000000000000008 .L0 
C:\Users\stapi\AppData\Local\Temp\cc63Vocw.s:991    .text.__alcs_mqtt_subscribe_callback:0000000000000008 .L0 
C:\Users\stapi\AppData\Local\Temp\cc63Vocw.s:992    .text.__alcs_mqtt_subscribe_callback:0000000000000008 .L0 
C:\Users\stapi\AppData\Local\Temp\cc63Vocw.s:993    .text.__alcs_mqtt_subscribe_callback:0000000000000008 .L0 
C:\Users\stapi\AppData\Local\Temp\cc63Vocw.s:994    .text.__alcs_mqtt_subscribe_callback:0000000000000008 .L0 
C:\Users\stapi\AppData\Local\Temp\cc63Vocw.s:996    .text.__alcs_mqtt_subscribe_callback:0000000000000008 .L0 
C:\Users\stapi\AppData\Local\Temp\cc63Vocw.s:997    .text.__alcs_mqtt_subscribe_callback:0000000000000008 .L0 
C:\Users\stapi\AppData\Local\Temp\cc63Vocw.s:998    .text.__alcs_mqtt_subscribe_callback:000000000000000a .L0 
C:\Users\stapi\AppData\Local\Temp\cc63Vocw.s:1000   .text.__alcs_mqtt_subscribe_callback:000000000000000a .L0 
C:\Users\stapi\AppData\Local\Temp\cc63Vocw.s:1003   .text.__alcs_mqtt_subscribe_callback:000000000000000e .L0 
C:\Users\stapi\AppData\Local\Temp\cc63Vocw.s:1013   .text.__alcs_mqtt_subscribe_callback:0000000000000020 .L0 
C:\Users\stapi\AppData\Local\Temp\cc63Vocw.s:1014   .text.__alcs_mqtt_subscribe_callback:0000000000000020 .L0 
C:\Users\stapi\AppData\Local\Temp\cc63Vocw.s:1019   .text.__alcs_mqtt_subscribe_callback:0000000000000028 .L0 
C:\Users\stapi\AppData\Local\Temp\cc63Vocw.s:1020   .text.__alcs_mqtt_subscribe_callback:0000000000000028 .L0 
C:\Users\stapi\AppData\Local\Temp\cc63Vocw.s:1021   .text.__alcs_mqtt_subscribe_callback:0000000000000028 .L0 
C:\Users\stapi\AppData\Local\Temp\cc63Vocw.s:1022   .text.__alcs_mqtt_subscribe_callback:0000000000000028 .L0 
C:\Users\stapi\AppData\Local\Temp\cc63Vocw.s:1023   .text.__alcs_mqtt_subscribe_callback:0000000000000028 .L0 
C:\Users\stapi\AppData\Local\Temp\cc63Vocw.s:1024   .text.__alcs_mqtt_subscribe_callback:0000000000000028 .L0 
C:\Users\stapi\AppData\Local\Temp\cc63Vocw.s:1027   .text.__alcs_mqtt_subscribe_callback:000000000000002c .L0 
C:\Users\stapi\AppData\Local\Temp\cc63Vocw.s:1028   .text.__alcs_mqtt_subscribe_callback:000000000000002c .L0 
C:\Users\stapi\AppData\Local\Temp\cc63Vocw.s:1029   .text.__alcs_mqtt_subscribe_callback:000000000000002c .L0 
C:\Users\stapi\AppData\Local\Temp\cc63Vocw.s:1033   .text.__alcs_mqtt_subscribe_callback:0000000000000034 .L0 
C:\Users\stapi\AppData\Local\Temp\cc63Vocw.s:1035   .text.__alcs_mqtt_subscribe_callback:0000000000000036 .L0 
C:\Users\stapi\AppData\Local\Temp\cc63Vocw.s:1036   .text.__alcs_mqtt_subscribe_callback:0000000000000036 .L0 
C:\Users\stapi\AppData\Local\Temp\cc63Vocw.s:1039   .text.__alcs_mqtt_subscribe_callback:000000000000003a .L0 
C:\Users\stapi\AppData\Local\Temp\cc63Vocw.s:1040   .text.__alcs_mqtt_subscribe_callback:000000000000003a .L0 
C:\Users\stapi\AppData\Local\Temp\cc63Vocw.s:1041   .text.__alcs_mqtt_subscribe_callback:000000000000003a .L0 
C:\Users\stapi\AppData\Local\Temp\cc63Vocw.s:1042   .text.__alcs_mqtt_subscribe_callback:000000000000003a .L0 
C:\Users\stapi\AppData\Local\Temp\cc63Vocw.s:1043   .text.__alcs_mqtt_subscribe_callback:000000000000003a .L0 
C:\Users\stapi\AppData\Local\Temp\cc63Vocw.s:1044   .text.__alcs_mqtt_subscribe_callback:000000000000003a .L0 
C:\Users\stapi\AppData\Local\Temp\cc63Vocw.s:1046   .text.__alcs_mqtt_subscribe_callback:000000000000003e .L0 
C:\Users\stapi\AppData\Local\Temp\cc63Vocw.s:1048   .text.__alcs_mqtt_subscribe_callback:0000000000000042 .L0 
C:\Users\stapi\AppData\Local\Temp\cc63Vocw.s:1050   .text.__alcs_mqtt_subscribe_callback:0000000000000046 .L0 
C:\Users\stapi\AppData\Local\Temp\cc63Vocw.s:1052   .text.__alcs_mqtt_subscribe_callback:000000000000004a .L0 
C:\Users\stapi\AppData\Local\Temp\cc63Vocw.s:1054   .text.__alcs_mqtt_subscribe_callback:000000000000004e .L0 
C:\Users\stapi\AppData\Local\Temp\cc63Vocw.s:1056   .text.__alcs_mqtt_subscribe_callback:0000000000000052 .L0 
C:\Users\stapi\AppData\Local\Temp\cc63Vocw.s:1058   .text.__alcs_mqtt_subscribe_callback:0000000000000056 .L0 
C:\Users\stapi\AppData\Local\Temp\cc63Vocw.s:1064   .text.__alcs_mqtt_subscribe_callback:0000000000000066 .L0 
C:\Users\stapi\AppData\Local\Temp\cc63Vocw.s:1065   .text.__alcs_mqtt_subscribe_callback:0000000000000066 .L0 
C:\Users\stapi\AppData\Local\Temp\cc63Vocw.s:1067   .text.__alcs_mqtt_subscribe_callback:000000000000006a .L0 
C:\Users\stapi\AppData\Local\Temp\cc63Vocw.s:1069   .text.__alcs_mqtt_subscribe_callback:000000000000006e .L0 
C:\Users\stapi\AppData\Local\Temp\cc63Vocw.s:1078   .text.__alcs_mqtt_subscribe_callback:0000000000000088 .L0 
C:\Users\stapi\AppData\Local\Temp\cc63Vocw.s:1079   .text.__alcs_mqtt_subscribe_callback:0000000000000088 .L0 
C:\Users\stapi\AppData\Local\Temp\cc63Vocw.s:1084   .text.__alcs_mqtt_subscribe_callback:0000000000000098 .L0 
C:\Users\stapi\AppData\Local\Temp\cc63Vocw.s:1091   .text.__alcs_mqtt_subscribe_callback:00000000000000ac .L0 
C:\Users\stapi\AppData\Local\Temp\cc63Vocw.s:1097   .text.__alcs_mqtt_subscribe_callback:00000000000000bc .L0 
C:\Users\stapi\AppData\Local\Temp\cc63Vocw.s:1098   .text.__alcs_mqtt_subscribe_callback:00000000000000bc .L0 
C:\Users\stapi\AppData\Local\Temp\cc63Vocw.s:1099   .text.__alcs_mqtt_subscribe_callback:00000000000000bc .L0 
C:\Users\stapi\AppData\Local\Temp\cc63Vocw.s:1104   .text.__alcs_mqtt_subscribe_callback:00000000000000c8 .L0 
C:\Users\stapi\AppData\Local\Temp\cc63Vocw.s:1106   .text.__alcs_mqtt_subscribe_callback:00000000000000cc .L0 
C:\Users\stapi\AppData\Local\Temp\cc63Vocw.s:1111   .text.__alcs_mqtt_subscribe_callback:00000000000000d8 .L0 
C:\Users\stapi\AppData\Local\Temp\cc63Vocw.s:1114   .text.__alcs_mqtt_subscribe_callback:00000000000000dc .L0 
C:\Users\stapi\AppData\Local\Temp\cc63Vocw.s:1115   .text.__alcs_mqtt_subscribe_callback:00000000000000dc .L0 
C:\Users\stapi\AppData\Local\Temp\cc63Vocw.s:1122   .text.__alcs_mqtt_subscribe_callback:00000000000000ec .L0 
C:\Users\stapi\AppData\Local\Temp\cc63Vocw.s:1124   .text.__alcs_mqtt_subscribe_callback:00000000000000ee .L0 
C:\Users\stapi\AppData\Local\Temp\cc63Vocw.s:1126   .text.__alcs_mqtt_subscribe_callback:00000000000000f0 .L0 
C:\Users\stapi\AppData\Local\Temp\cc63Vocw.s:1128   .text.__alcs_mqtt_subscribe_callback:00000000000000f2 .L0 
C:\Users\stapi\AppData\Local\Temp\cc63Vocw.s:1130   .text.__alcs_mqtt_subscribe_callback:00000000000000f4 .L0 
C:\Users\stapi\AppData\Local\Temp\cc63Vocw.s:1133   .text.__alcs_mqtt_subscribe_callback:00000000000000f8 .L0 
C:\Users\stapi\AppData\Local\Temp\cc63Vocw.s:1134   .text.__alcs_mqtt_subscribe_callback:00000000000000f8 .L0 
C:\Users\stapi\AppData\Local\Temp\cc63Vocw.s:1135   .text.__alcs_mqtt_subscribe_callback:00000000000000f8 .L0 
C:\Users\stapi\AppData\Local\Temp\cc63Vocw.s:1140   .text.__alcs_mqtt_subscribe_callback:0000000000000102 .L0 
C:\Users\stapi\AppData\Local\Temp\cc63Vocw.s:1143   .text.__alcs_mqtt_subscribe_callback:0000000000000106 .L0 
C:\Users\stapi\AppData\Local\Temp\cc63Vocw.s:1145   .text.__alcs_mqtt_subscribe_callback:000000000000010a .L0 
C:\Users\stapi\AppData\Local\Temp\cc63Vocw.s:1147   .text.__alcs_mqtt_subscribe_callback:000000000000010c .L0 
C:\Users\stapi\AppData\Local\Temp\cc63Vocw.s:1150   .text.__alcs_mqtt_subscribe_callback:0000000000000110 .L0 
C:\Users\stapi\AppData\Local\Temp\cc63Vocw.s:1151   .text.__alcs_mqtt_subscribe_callback:0000000000000110 .L0 
C:\Users\stapi\AppData\Local\Temp\cc63Vocw.s:1152   .text.__alcs_mqtt_subscribe_callback:0000000000000110 .L0 
C:\Users\stapi\AppData\Local\Temp\cc63Vocw.s:1159   .text.__alcs_mqtt_subscribe_callback:0000000000000122 .L0 
C:\Users\stapi\AppData\Local\Temp\cc63Vocw.s:1162   .text.__alcs_mqtt_subscribe_callback:0000000000000128 .L0 
C:\Users\stapi\AppData\Local\Temp\cc63Vocw.s:1165   .text.__alcs_mqtt_subscribe_callback:000000000000012a .L0 
C:\Users\stapi\AppData\Local\Temp\cc63Vocw.s:1166   .text.__alcs_mqtt_subscribe_callback:000000000000012a .L0 
C:\Users\stapi\AppData\Local\Temp\cc63Vocw.s:1174   .text.__alcs_mqtt_subscribe_callback:000000000000013c .L0 
C:\Users\stapi\AppData\Local\Temp\cc63Vocw.s:1180   .text.__alcs_mqtt_subscribe_callback:000000000000014a .L0 
C:\Users\stapi\AppData\Local\Temp\cc63Vocw.s:1183   .text.__alcs_mqtt_subscribe_callback:000000000000014c .L0 
C:\Users\stapi\AppData\Local\Temp\cc63Vocw.s:1184   .text.__alcs_mqtt_subscribe_callback:000000000000014c .L0 
C:\Users\stapi\AppData\Local\Temp\cc63Vocw.s:1189   .text.__alcs_mqtt_subscribe_callback:0000000000000156 .L0 
C:\Users\stapi\AppData\Local\Temp\cc63Vocw.s:1195   .text.__alcs_mqtt_subscribe_callback:0000000000000164 .L0 
C:\Users\stapi\AppData\Local\Temp\cc63Vocw.s:1198   .text.__alcs_mqtt_subscribe_callback:0000000000000166 .L0 
C:\Users\stapi\AppData\Local\Temp\cc63Vocw.s:1199   .text.__alcs_mqtt_subscribe_callback:0000000000000166 .L0 
C:\Users\stapi\AppData\Local\Temp\cc63Vocw.s:1206   .text.__alcs_mqtt_subscribe_callback:0000000000000172 .L0 
C:\Users\stapi\AppData\Local\Temp\cc63Vocw.s:1207   .text.__alcs_mqtt_subscribe_callback:0000000000000172 .L0 
C:\Users\stapi\AppData\Local\Temp\cc63Vocw.s:1212   .text.__alcs_mqtt_subscribe_callback:000000000000017e .L0 
C:\Users\stapi\AppData\Local\Temp\cc63Vocw.s:1223   .text.__alcs_mqtt_subscribe_callback:000000000000019c .L0 
C:\Users\stapi\AppData\Local\Temp\cc63Vocw.s:1227   .text.__alcs_mqtt_subscribe_callback:00000000000001a8 .L0 
C:\Users\stapi\AppData\Local\Temp\cc63Vocw.s:1228   .text.__alcs_mqtt_subscribe_callback:00000000000001a8 .L0 
C:\Users\stapi\AppData\Local\Temp\cc63Vocw.s:1229   .text.__alcs_mqtt_subscribe_callback:00000000000001a8 .L0 
C:\Users\stapi\AppData\Local\Temp\cc63Vocw.s:1232   .text.__alcs_mqtt_subscribe_callback:00000000000001ac .L0 
C:\Users\stapi\AppData\Local\Temp\cc63Vocw.s:1234   .text.__alcs_mqtt_subscribe_callback:00000000000001b0 .L0 
C:\Users\stapi\AppData\Local\Temp\cc63Vocw.s:1236   .text.__alcs_mqtt_subscribe_callback:00000000000001b4 .L0 
C:\Users\stapi\AppData\Local\Temp\cc63Vocw.s:1237   .text.__alcs_mqtt_subscribe_callback:00000000000001b4 .L0 
C:\Users\stapi\AppData\Local\Temp\cc63Vocw.s:1239   .text.__alcs_mqtt_subscribe_callback:00000000000001b6 .L0 
C:\Users\stapi\AppData\Local\Temp\cc63Vocw.s:1242   .text.__alcs_mqtt_subscribe_callback:00000000000001ba .L0 
C:\Users\stapi\AppData\Local\Temp\cc63Vocw.s:1244   .text.__alcs_mqtt_subscribe_callback:00000000000001bc .L0 
C:\Users\stapi\AppData\Local\Temp\cc63Vocw.s:1247   .text.__alcs_mqtt_subscribe_callback:00000000000001c0 .L0 
C:\Users\stapi\AppData\Local\Temp\cc63Vocw.s:1248   .text.__alcs_mqtt_subscribe_callback:00000000000001c0 .L0 
C:\Users\stapi\AppData\Local\Temp\cc63Vocw.s:1250   .text.__alcs_mqtt_subscribe_callback:00000000000001c4 .L0 
C:\Users\stapi\AppData\Local\Temp\cc63Vocw.s:1251   .text.__alcs_mqtt_subscribe_callback:00000000000001c4 .L0 
C:\Users\stapi\AppData\Local\Temp\cc63Vocw.s:1253   .text.__alcs_mqtt_subscribe_callback:00000000000001c6 .L0 
C:\Users\stapi\AppData\Local\Temp\cc63Vocw.s:1255   .text.__alcs_mqtt_subscribe_callback:00000000000001c8 .L0 
C:\Users\stapi\AppData\Local\Temp\cc63Vocw.s:1257   .text.__alcs_mqtt_subscribe_callback:00000000000001ca .L0 
C:\Users\stapi\AppData\Local\Temp\cc63Vocw.s:1260   .text.__alcs_mqtt_subscribe_callback:00000000000001ce .L0 
C:\Users\stapi\AppData\Local\Temp\cc63Vocw.s:1261   .text.__alcs_mqtt_subscribe_callback:00000000000001ce .L0 
C:\Users\stapi\AppData\Local\Temp\cc63Vocw.s:1263   .text.__alcs_mqtt_subscribe_callback:00000000000001d2 .L0 
C:\Users\stapi\AppData\Local\Temp\cc63Vocw.s:1267   .text.__alcs_mqtt_subscribe_callback:00000000000001dc .L0 
C:\Users\stapi\AppData\Local\Temp\cc63Vocw.s:1268   .text.__alcs_mqtt_subscribe_callback:00000000000001dc .L0 
C:\Users\stapi\AppData\Local\Temp\cc63Vocw.s:1270   .text.__alcs_mqtt_subscribe_callback:00000000000001de .L0 
C:\Users\stapi\AppData\Local\Temp\cc63Vocw.s:1272   .text.__alcs_mqtt_subscribe_callback:00000000000001e0 .L0 
C:\Users\stapi\AppData\Local\Temp\cc63Vocw.s:1274   .text.__alcs_mqtt_subscribe_callback:00000000000001e2 .L0 
C:\Users\stapi\AppData\Local\Temp\cc63Vocw.s:1277   .text.__alcs_mqtt_subscribe_callback:00000000000001e8 .L0 
C:\Users\stapi\AppData\Local\Temp\cc63Vocw.s:1278   .text.__alcs_mqtt_subscribe_callback:00000000000001e8 .L0 
C:\Users\stapi\AppData\Local\Temp\cc63Vocw.s:1280   .text.__alcs_mqtt_subscribe_callback:00000000000001ea .L0 
C:\Users\stapi\AppData\Local\Temp\cc63Vocw.s:1283   .text.__alcs_mqtt_subscribe_callback:00000000000001ee .L0 
C:\Users\stapi\AppData\Local\Temp\cc63Vocw.s:1286   .text.__alcs_mqtt_subscribe_callback:00000000000001f4 .L0 
C:\Users\stapi\AppData\Local\Temp\cc63Vocw.s:1287   .text.__alcs_mqtt_subscribe_callback:00000000000001f4 .L0 
C:\Users\stapi\AppData\Local\Temp\cc63Vocw.s:1290   .text.__alcs_mqtt_subscribe_callback:00000000000001fc .L0 
C:\Users\stapi\AppData\Local\Temp\cc63Vocw.s:1301   .text.__alcs_mqtt_subscribe_callback:0000000000000216 .L0 
C:\Users\stapi\AppData\Local\Temp\cc63Vocw.s:1302   .text.__alcs_mqtt_subscribe_callback:0000000000000218 .L0 
C:\Users\stapi\AppData\Local\Temp\cc63Vocw.s:1303   .text.__alcs_mqtt_subscribe_callback:0000000000000218 .L0 
C:\Users\stapi\AppData\Local\Temp\cc63Vocw.s:1305   .text.__alcs_mqtt_subscribe_callback:0000000000000220 .L0 
C:\Users\stapi\AppData\Local\Temp\cc63Vocw.s:1306   .text.__alcs_mqtt_subscribe_callback:0000000000000220 .L0 
C:\Users\stapi\AppData\Local\Temp\cc63Vocw.s:1307   .text.__alcs_mqtt_subscribe_callback:0000000000000220 .L0 
C:\Users\stapi\AppData\Local\Temp\cc63Vocw.s:1308   .text.__alcs_mqtt_subscribe_callback:0000000000000220 .L0 
C:\Users\stapi\AppData\Local\Temp\cc63Vocw.s:1309   .text.__alcs_mqtt_subscribe_callback:0000000000000220 .L0 
C:\Users\stapi\AppData\Local\Temp\cc63Vocw.s:1310   .text.__alcs_mqtt_subscribe_callback:0000000000000220 .L0 
C:\Users\stapi\AppData\Local\Temp\cc63Vocw.s:1311   .text.__alcs_mqtt_subscribe_callback:0000000000000220 .L0 
C:\Users\stapi\AppData\Local\Temp\cc63Vocw.s:1312   .text.__alcs_mqtt_subscribe_callback:0000000000000220 .L0 
C:\Users\stapi\AppData\Local\Temp\cc63Vocw.s:1313   .text.__alcs_mqtt_subscribe_callback:0000000000000220 .L0 
C:\Users\stapi\AppData\Local\Temp\cc63Vocw.s:1314   .text.__alcs_mqtt_subscribe_callback:0000000000000220 .L0 
C:\Users\stapi\AppData\Local\Temp\cc63Vocw.s:1315   .text.__alcs_mqtt_subscribe_callback:0000000000000220 .L0 
C:\Users\stapi\AppData\Local\Temp\cc63Vocw.s:1318   .text.__alcs_mqtt_subscribe_callback:0000000000000220 .L0 
C:\Users\stapi\AppData\Local\Temp\cc63Vocw.s:1321   .text.__alcs_mqtt_subscribe_callback:0000000000000220 .L0 
C:\Users\stapi\AppData\Local\Temp\cc63Vocw.s:1322   .text.__alcs_mqtt_subscribe_callback:0000000000000220 .L0 
C:\Users\stapi\AppData\Local\Temp\cc63Vocw.s:1328   .text.__alcs_mqtt_subscribe_callback:0000000000000230 .L0 
C:\Users\stapi\AppData\Local\Temp\cc63Vocw.s:1330   .text.__alcs_mqtt_subscribe_callback:0000000000000232 .L0 
C:\Users\stapi\AppData\Local\Temp\cc63Vocw.s:1337   .text.__alcs_mqtt_subscribe_callback:0000000000000246 .L0 
C:\Users\stapi\AppData\Local\Temp\cc63Vocw.s:1339   .text.__alcs_mqtt_subscribe_callback:0000000000000248 .L0 
C:\Users\stapi\AppData\Local\Temp\cc63Vocw.s:1340   .text.__alcs_mqtt_subscribe_callback:0000000000000248 .L0 
C:\Users\stapi\AppData\Local\Temp\cc63Vocw.s:1342   .text.__alcs_mqtt_subscribe_callback:000000000000024a .L0 
C:\Users\stapi\AppData\Local\Temp\cc63Vocw.s:1344   .text.__alcs_mqtt_subscribe_callback:000000000000024c .L0 
C:\Users\stapi\AppData\Local\Temp\cc63Vocw.s:1347   .text.__alcs_mqtt_subscribe_callback:0000000000000250 .L0 
C:\Users\stapi\AppData\Local\Temp\cc63Vocw.s:1350   .text.__alcs_mqtt_subscribe_callback:0000000000000254 .L0 
C:\Users\stapi\AppData\Local\Temp\cc63Vocw.s:1356   .text.__alcs_mqtt_subscribe_callback:0000000000000262 .L0 
C:\Users\stapi\AppData\Local\Temp\cc63Vocw.s:1361   .text.__alcs_mqtt_subscribe_callback:0000000000000264 .L0 
C:\Users\stapi\AppData\Local\Temp\cc63Vocw.s:1367   .text.__alcs_mqtt_subscribe_callback:0000000000000274 .L0 
C:\Users\stapi\AppData\Local\Temp\cc63Vocw.s:1376   .text.__alcs_mqtt_subscribe_callback:000000000000028e .L0 
C:\Users\stapi\AppData\Local\Temp\cc63Vocw.s:1377   .text.__alcs_mqtt_subscribe_callback:000000000000028e .L0 
C:\Users\stapi\AppData\Local\Temp\cc63Vocw.s:1381   .text.__alcs_mqtt_subscribe_callback:0000000000000298 .L0 
C:\Users\stapi\AppData\Local\Temp\cc63Vocw.s:1383   .text.__alcs_mqtt_subscribe_callback:000000000000029c .L0 
C:\Users\stapi\AppData\Local\Temp\cc63Vocw.s:1389   .text.__alcs_mqtt_subscribe_callback:00000000000002aa .L0 
C:\Users\stapi\AppData\Local\Temp\cc63Vocw.s:1392   .text.__alcs_mqtt_subscribe_callback:00000000000002ae .L0 
C:\Users\stapi\AppData\Local\Temp\cc63Vocw.s:1393   .text.__alcs_mqtt_subscribe_callback:00000000000002ae .L0 
C:\Users\stapi\AppData\Local\Temp\cc63Vocw.s:1400   .text.__alcs_mqtt_subscribe_callback:00000000000002be .L0 
C:\Users\stapi\AppData\Local\Temp\cc63Vocw.s:1402   .text.__alcs_mqtt_subscribe_callback:00000000000002c0 .L0 
C:\Users\stapi\AppData\Local\Temp\cc63Vocw.s:1404   .text.__alcs_mqtt_subscribe_callback:00000000000002c2 .L0 
C:\Users\stapi\AppData\Local\Temp\cc63Vocw.s:1407   .text.__alcs_mqtt_subscribe_callback:00000000000002c4 .L0 
C:\Users\stapi\AppData\Local\Temp\cc63Vocw.s:1408   .text.__alcs_mqtt_subscribe_callback:00000000000002c4 .L0 
C:\Users\stapi\AppData\Local\Temp\cc63Vocw.s:1409   .text.__alcs_mqtt_subscribe_callback:00000000000002c4 .L0 
C:\Users\stapi\AppData\Local\Temp\cc63Vocw.s:1410   .text.__alcs_mqtt_subscribe_callback:00000000000002c4 .L0 
C:\Users\stapi\AppData\Local\Temp\cc63Vocw.s:1415   .text.__alcs_mqtt_subscribe_callback:00000000000002ce .L0 
C:\Users\stapi\AppData\Local\Temp\cc63Vocw.s:1416   .text.__alcs_mqtt_subscribe_callback:00000000000002ce .L0 
C:\Users\stapi\AppData\Local\Temp\cc63Vocw.s:1418   .text.__alcs_mqtt_subscribe_callback:00000000000002d0 .L0 
C:\Users\stapi\AppData\Local\Temp\cc63Vocw.s:1421   .text.__alcs_mqtt_subscribe_callback:00000000000002d4 .L0 
C:\Users\stapi\AppData\Local\Temp\cc63Vocw.s:1428   .text.__alcs_mqtt_subscribe_callback:00000000000002e0 .L0 
C:\Users\stapi\AppData\Local\Temp\cc63Vocw.s:1429   .text.__alcs_mqtt_subscribe_callback:00000000000002e0 .L0 
C:\Users\stapi\AppData\Local\Temp\cc63Vocw.s:1438   .text.__alcs_mqtt_subscribe_callback:00000000000002f8 .L0 
C:\Users\stapi\AppData\Local\Temp\cc63Vocw.s:1439   .text.__alcs_mqtt_subscribe_callback:00000000000002f8 .L0 
C:\Users\stapi\AppData\Local\Temp\cc63Vocw.s:1441   .text.__alcs_mqtt_subscribe_callback:00000000000002fa .L0 
C:\Users\stapi\AppData\Local\Temp\cc63Vocw.s:1443   .text.__alcs_mqtt_subscribe_callback:00000000000002fc .L0 
C:\Users\stapi\AppData\Local\Temp\cc63Vocw.s:1446   .text.__alcs_mqtt_subscribe_callback:00000000000002fe .L0 
C:\Users\stapi\AppData\Local\Temp\cc63Vocw.s:1447   .text.__alcs_mqtt_subscribe_callback:00000000000002fe .L0 
C:\Users\stapi\AppData\Local\Temp\cc63Vocw.s:1454   .text.__alcs_mqtt_subscribe_callback:0000000000000312 .L0 
C:\Users\stapi\AppData\Local\Temp\cc63Vocw.s:1456   .text.__alcs_mqtt_subscribe_callback:0000000000000314 .L0 
C:\Users\stapi\AppData\Local\Temp\cc63Vocw.s:1459   .text.__alcs_mqtt_subscribe_callback:0000000000000316 .L0 
C:\Users\stapi\AppData\Local\Temp\cc63Vocw.s:1460   .text.__alcs_mqtt_subscribe_callback:0000000000000316 .L0 
C:\Users\stapi\AppData\Local\Temp\cc63Vocw.s:1462   .text.__alcs_mqtt_subscribe_callback:000000000000031a .L0 
C:\Users\stapi\AppData\Local\Temp\cc63Vocw.s:1465   .text.__alcs_mqtt_subscribe_callback:000000000000031e .L0 
C:\Users\stapi\AppData\Local\Temp\cc63Vocw.s:1466   .text.__alcs_mqtt_subscribe_callback:000000000000031e .L0 
C:\Users\stapi\AppData\Local\Temp\cc63Vocw.s:1474   .text.__alcs_mqtt_subscribe_callback:0000000000000330 .L0 
C:\Users\stapi\AppData\Local\Temp\cc63Vocw.s:1475   .text.__alcs_mqtt_subscribe_callback:0000000000000330 .L0 
C:\Users\stapi\AppData\Local\Temp\cc63Vocw.s:1482   .text.__alcs_mqtt_subscribe_callback:0000000000000344 .L0 
C:\Users\stapi\AppData\Local\Temp\cc63Vocw.s:1483   .text.__alcs_mqtt_subscribe_callback:0000000000000344 .L0 
C:\Users\stapi\AppData\Local\Temp\cc63Vocw.s:1487   .text.__alcs_mqtt_subscribe_callback:000000000000034a .L0 
C:\Users\stapi\AppData\Local\Temp\cc63Vocw.s:1494   .text.__alcs_mqtt_subscribe_callback:0000000000000358 .L0 
C:\Users\stapi\AppData\Local\Temp\cc63Vocw.s:1495   .text.__alcs_mqtt_subscribe_callback:0000000000000358 .L0 
C:\Users\stapi\AppData\Local\Temp\cc63Vocw.s:1499   .text.__alcs_mqtt_subscribe_callback:0000000000000362 .L0 
C:\Users\stapi\AppData\Local\Temp\cc63Vocw.s:1500   .text.__alcs_mqtt_subscribe_callback:0000000000000362 .L0 
C:\Users\stapi\AppData\Local\Temp\cc63Vocw.s:1504   .text.__alcs_mqtt_subscribe_callback:000000000000036c .L0 
C:\Users\stapi\AppData\Local\Temp\cc63Vocw.s:1508   .text.__alcs_mqtt_subscribe_callback:0000000000000376 .L0 
C:\Users\stapi\AppData\Local\Temp\cc63Vocw.s:1509   .text.__alcs_mqtt_subscribe_callback:0000000000000376 .L0 
C:\Users\stapi\AppData\Local\Temp\cc63Vocw.s:1513   .text.__alcs_mqtt_subscribe_callback:0000000000000380 .L0 
C:\Users\stapi\AppData\Local\Temp\cc63Vocw.s:1516   .text.__alcs_mqtt_subscribe_callback:0000000000000384 .L0 
C:\Users\stapi\AppData\Local\Temp\cc63Vocw.s:1517   .text.__alcs_mqtt_subscribe_callback:0000000000000384 .L0 
C:\Users\stapi\AppData\Local\Temp\cc63Vocw.s:1521   .text.__alcs_mqtt_subscribe_callback:000000000000038e .L0 
C:\Users\stapi\AppData\Local\Temp\cc63Vocw.s:1524   .text.__alcs_mqtt_subscribe_callback:0000000000000392 .L0 
C:\Users\stapi\AppData\Local\Temp\cc63Vocw.s:1525   .text.__alcs_mqtt_subscribe_callback:0000000000000392 .L0 
C:\Users\stapi\AppData\Local\Temp\cc63Vocw.s:1534   .text.__alcs_mqtt_subscribe_callback:00000000000003a6 .L0 
C:\Users\stapi\AppData\Local\Temp\cc63Vocw.s:1537   .text.__alcs_mqtt_subscribe_callback:00000000000003a8 .L0 
C:\Users\stapi\AppData\Local\Temp\cc63Vocw.s:1538   .text.__alcs_mqtt_subscribe_callback:00000000000003a8 .L0 
C:\Users\stapi\AppData\Local\Temp\cc63Vocw.s:1540   .text.__alcs_mqtt_subscribe_callback:00000000000003aa .L0 
C:\Users\stapi\AppData\Local\Temp\cc63Vocw.s:1543   .text.__alcs_mqtt_subscribe_callback:00000000000003ae .L0 
C:\Users\stapi\AppData\Local\Temp\cc63Vocw.s:1545   .text.__alcs_mqtt_subscribe_callback:00000000000003b0 .L0 
C:\Users\stapi\AppData\Local\Temp\cc63Vocw.s:1548   .text.__alcs_mqtt_subscribe_callback:00000000000003b4 .L0 
C:\Users\stapi\AppData\Local\Temp\cc63Vocw.s:1549   .text.__alcs_mqtt_subscribe_callback:00000000000003b4 .L0 
C:\Users\stapi\AppData\Local\Temp\cc63Vocw.s:1551   .text.__alcs_mqtt_subscribe_callback:00000000000003b8 .L0 
C:\Users\stapi\AppData\Local\Temp\cc63Vocw.s:1556   .text.__alcs_mqtt_subscribe_callback:00000000000003c4 .L0 
C:\Users\stapi\AppData\Local\Temp\cc63Vocw.s:1557   .text.__alcs_mqtt_subscribe_callback:00000000000003c4 .L0 
C:\Users\stapi\AppData\Local\Temp\cc63Vocw.s:1559   .text.__alcs_mqtt_subscribe_callback:00000000000003c6 .L0 
C:\Users\stapi\AppData\Local\Temp\cc63Vocw.s:1561   .text.__alcs_mqtt_subscribe_callback:00000000000003c8 .L0 
C:\Users\stapi\AppData\Local\Temp\cc63Vocw.s:1564   .text.__alcs_mqtt_subscribe_callback:00000000000003ce .L0 
C:\Users\stapi\AppData\Local\Temp\cc63Vocw.s:1565   .text.__alcs_mqtt_subscribe_callback:00000000000003ce .L0 
C:\Users\stapi\AppData\Local\Temp\cc63Vocw.s:1568   .text.__alcs_mqtt_subscribe_callback:00000000000003d6 .L0 
C:\Users\stapi\AppData\Local\Temp\cc63Vocw.s:1579   .text.__alcs_mqtt_subscribe_callback:00000000000003f4 .L0 
C:\Users\stapi\AppData\Local\Temp\cc63Vocw.s:1581   .text.__alcs_mqtt_subscribe_callback:00000000000003f6 .L0 
C:\Users\stapi\AppData\Local\Temp\cc63Vocw.s:1582   .text.__alcs_mqtt_subscribe_callback:00000000000003f6 .L0 
C:\Users\stapi\AppData\Local\Temp\cc63Vocw.s:1586   .text.__alcs_mqtt_subscribe_callback:0000000000000402 .L0 
C:\Users\stapi\AppData\Local\Temp\cc63Vocw.s:1593   .text.__alcs_mqtt_subscribe_callback:000000000000040a .L0 
C:\Users\stapi\AppData\Local\Temp\cc63Vocw.s:1596   .text.__alcs_mqtt_subscribe_callback:0000000000000412 .L0 
C:\Users\stapi\AppData\Local\Temp\cc63Vocw.s:1600   .text.__alcs_mqtt_subscribe_callback:000000000000041e .L0 
C:\Users\stapi\AppData\Local\Temp\cc63Vocw.s:1601   .text.__alcs_mqtt_subscribe_callback:000000000000041e .L0 
C:\Users\stapi\AppData\Local\Temp\cc63Vocw.s:1602   .text.__alcs_mqtt_subscribe_callback:000000000000041e .L0 
C:\Users\stapi\AppData\Local\Temp\cc63Vocw.s:1609   .text.__alcs_mqtt_subscribe_callback:0000000000000432 .L0 
C:\Users\stapi\AppData\Local\Temp\cc63Vocw.s:1620   .text.__alcs_mqtt_subscribe_callback:000000000000043e .L0 
C:\Users\stapi\AppData\Local\Temp\cc63Vocw.s:1625   .text.__alcs_mqtt_subscribe_callback:000000000000044c .L0 
C:\Users\stapi\AppData\Local\Temp\cc63Vocw.s:1634   .text.__alcs_mqtt_subscribe_callback:0000000000000462 .L0 
C:\Users\stapi\AppData\Local\Temp\cc63Vocw.s:1643   .text.__alcs_mqtt_subscribe_callback:0000000000000464 .L0 
C:\Users\stapi\AppData\Local\Temp\cc63Vocw.s:1644   .text.__alcs_mqtt_subscribe_callback:0000000000000464 .L0 
C:\Users\stapi\AppData\Local\Temp\cc63Vocw.s:1649   .text.__alcs_mqtt_subscribe_callback:0000000000000474 .L0 
C:\Users\stapi\AppData\Local\Temp\cc63Vocw.s:1656   .text.__alcs_mqtt_subscribe_callback:000000000000047e .L0 
C:\Users\stapi\AppData\Local\Temp\cc63Vocw.s:1657   .text.__alcs_mqtt_subscribe_callback:000000000000047e .L0 
C:\Users\stapi\AppData\Local\Temp\cc63Vocw.s:1662   .text.__alcs_mqtt_subscribe_callback:000000000000048e .L0 
C:\Users\stapi\AppData\Local\Temp\cc63Vocw.s:1669   .text.__alcs_mqtt_subscribe_callback:0000000000000498 .L0 
C:\Users\stapi\AppData\Local\Temp\cc63Vocw.s:1670   .text.__alcs_mqtt_subscribe_callback:0000000000000498 .L0 
C:\Users\stapi\AppData\Local\Temp\cc63Vocw.s:1676   .text.__alcs_mqtt_subscribe_callback:00000000000004a8 .L0 
C:\Users\stapi\AppData\Local\Temp\cc63Vocw.s:1684   .text.__alcs_mqtt_subscribe_callback:00000000000004b2 .L0 
C:\Users\stapi\AppData\Local\Temp\cc63Vocw.s:1690   .text.__alcs_mqtt_subscribe_callback:00000000000004c2 .L0 
C:\Users\stapi\AppData\Local\Temp\cc63Vocw.s:1699   .text.__alcs_mqtt_subscribe_callback:00000000000004dc .L0 
C:\Users\stapi\AppData\Local\Temp\cc63Vocw.s:1700   .text.__alcs_mqtt_subscribe_callback:00000000000004dc .L0 
C:\Users\stapi\AppData\Local\Temp\cc63Vocw.s:1704   .text.__alcs_mqtt_subscribe_callback:00000000000004e6 .L0 
C:\Users\stapi\AppData\Local\Temp\cc63Vocw.s:1706   .text.__alcs_mqtt_subscribe_callback:00000000000004ea .L0 
C:\Users\stapi\AppData\Local\Temp\cc63Vocw.s:1712   .text.__alcs_mqtt_subscribe_callback:00000000000004f8 .L0 
C:\Users\stapi\AppData\Local\Temp\cc63Vocw.s:1715   .text.__alcs_mqtt_subscribe_callback:00000000000004fc .L0 
C:\Users\stapi\AppData\Local\Temp\cc63Vocw.s:1716   .text.__alcs_mqtt_subscribe_callback:00000000000004fc .L0 
C:\Users\stapi\AppData\Local\Temp\cc63Vocw.s:1723   .text.__alcs_mqtt_subscribe_callback:000000000000050c .L0 
C:\Users\stapi\AppData\Local\Temp\cc63Vocw.s:1725   .text.__alcs_mqtt_subscribe_callback:000000000000050e .L0 
C:\Users\stapi\AppData\Local\Temp\cc63Vocw.s:1727   .text.__alcs_mqtt_subscribe_callback:0000000000000510 .L0 
C:\Users\stapi\AppData\Local\Temp\cc63Vocw.s:1730   .text.__alcs_mqtt_subscribe_callback:0000000000000512 .L0 
C:\Users\stapi\AppData\Local\Temp\cc63Vocw.s:1731   .text.__alcs_mqtt_subscribe_callback:0000000000000512 .L0 
C:\Users\stapi\AppData\Local\Temp\cc63Vocw.s:1732   .text.__alcs_mqtt_subscribe_callback:0000000000000512 .L0 
C:\Users\stapi\AppData\Local\Temp\cc63Vocw.s:1737   .text.__alcs_mqtt_subscribe_callback:000000000000051c .L0 
C:\Users\stapi\AppData\Local\Temp\cc63Vocw.s:1738   .text.__alcs_mqtt_subscribe_callback:000000000000051c .L0 
C:\Users\stapi\AppData\Local\Temp\cc63Vocw.s:1740   .text.__alcs_mqtt_subscribe_callback:000000000000051e .L0 
C:\Users\stapi\AppData\Local\Temp\cc63Vocw.s:1743   .text.__alcs_mqtt_subscribe_callback:0000000000000522 .L0 
C:\Users\stapi\AppData\Local\Temp\cc63Vocw.s:1750   .text.__alcs_mqtt_subscribe_callback:000000000000052e .L0 
C:\Users\stapi\AppData\Local\Temp\cc63Vocw.s:1751   .text.__alcs_mqtt_subscribe_callback:000000000000052e .L0 
C:\Users\stapi\AppData\Local\Temp\cc63Vocw.s:1760   .text.__alcs_mqtt_subscribe_callback:0000000000000546 .L0 
C:\Users\stapi\AppData\Local\Temp\cc63Vocw.s:1762   .text.__alcs_mqtt_subscribe_callback:000000000000054a .L0 
C:\Users\stapi\AppData\Local\Temp\cc63Vocw.s:1764   .text.__alcs_mqtt_subscribe_callback:000000000000054c .L0 
C:\Users\stapi\AppData\Local\Temp\cc63Vocw.s:1766   .text.__alcs_mqtt_subscribe_callback:000000000000054e .L0 
C:\Users\stapi\AppData\Local\Temp\cc63Vocw.s:1769   .text.__alcs_mqtt_subscribe_callback:0000000000000550 .L0 
C:\Users\stapi\AppData\Local\Temp\cc63Vocw.s:1770   .text.__alcs_mqtt_subscribe_callback:0000000000000550 .L0 
C:\Users\stapi\AppData\Local\Temp\cc63Vocw.s:1778   .text.__alcs_mqtt_subscribe_callback:0000000000000562 .L0 
C:\Users\stapi\AppData\Local\Temp\cc63Vocw.s:1779   .text.__alcs_mqtt_subscribe_callback:0000000000000562 .L0 
C:\Users\stapi\AppData\Local\Temp\cc63Vocw.s:1782   .text.__alcs_mqtt_subscribe_callback:0000000000000564 .L0 
C:\Users\stapi\AppData\Local\Temp\cc63Vocw.s:1784   .text.__alcs_mqtt_subscribe_callback:0000000000000566 .L0 
C:\Users\stapi\AppData\Local\Temp\cc63Vocw.s:1786   .text.__alcs_mqtt_subscribe_callback:0000000000000568 .L0 
C:\Users\stapi\AppData\Local\Temp\cc63Vocw.s:1790   .text.__alcs_mqtt_subscribe_callback:0000000000000572 .L0 
C:\Users\stapi\AppData\Local\Temp\cc63Vocw.s:1791   .text.__alcs_mqtt_subscribe_callback:0000000000000572 .L0 
C:\Users\stapi\AppData\Local\Temp\cc63Vocw.s:1797   .text.__alcs_mqtt_subscribe_callback:0000000000000582 .L0 
C:\Users\stapi\AppData\Local\Temp\cc63Vocw.s:1799   .text.__alcs_mqtt_subscribe_callback:0000000000000584 .L0 
C:\Users\stapi\AppData\Local\Temp\cc63Vocw.s:1800   .text.__alcs_mqtt_subscribe_callback:0000000000000584 .L0 
C:\Users\stapi\AppData\Local\Temp\cc63Vocw.s:1805   .text.__alcs_mqtt_subscribe_callback:0000000000000594 .L0 
C:\Users\stapi\AppData\Local\Temp\cc63Vocw.s:1810   .text.__alcs_mqtt_subscribe_callback:00000000000005a4 .L0 
C:\Users\stapi\AppData\Local\Temp\cc63Vocw.s:1815   .text.__alcs_mqtt_subscribe_callback:00000000000005b0 .L0 
C:\Users\stapi\AppData\Local\Temp\cc63Vocw.s:1816   .text.__alcs_mqtt_subscribe_callback:00000000000005b0 .L0 
C:\Users\stapi\AppData\Local\Temp\cc63Vocw.s:1817   .text.__alcs_mqtt_subscribe_callback:00000000000005b0 .L0 
C:\Users\stapi\AppData\Local\Temp\cc63Vocw.s:1824   .text.__alcs_mqtt_subscribe_callback:00000000000005c4 .L0 
C:\Users\stapi\AppData\Local\Temp\cc63Vocw.s:1833   .text.__alcs_mqtt_subscribe_callback:00000000000005d2 .L0 
C:\Users\stapi\AppData\Local\Temp\cc63Vocw.s:1834   .text.__alcs_mqtt_subscribe_callback:00000000000005d2 .L0 
C:\Users\stapi\AppData\Local\Temp\cc63Vocw.s:1841   .text.__alcs_mqtt_subscribe_callback:00000000000005e2 .L0 
C:\Users\stapi\AppData\Local\Temp\cc63Vocw.s:1843   .text.__alcs_mqtt_subscribe_callback:00000000000005e6 .L0 
C:\Users\stapi\AppData\Local\Temp\cc63Vocw.s:1844   .text.__alcs_mqtt_subscribe_callback:00000000000005e6 .L0 
C:\Users\stapi\AppData\Local\Temp\cc63Vocw.s:1846   .text.__alcs_mqtt_subscribe_callback:00000000000005e8 .L0 
C:\Users\stapi\AppData\Local\Temp\cc63Vocw.s:1848   .text.__alcs_mqtt_subscribe_callback:00000000000005ec .L0 
C:\Users\stapi\AppData\Local\Temp\cc63Vocw.s:1852   .text.__alcs_mqtt_subscribe_callback:00000000000005f6 .L0 
C:\Users\stapi\AppData\Local\Temp\cc63Vocw.s:1854   .text.__alcs_mqtt_subscribe_callback:00000000000005f8 .L0 
C:\Users\stapi\AppData\Local\Temp\cc63Vocw.s:1861   .text.alcs_mqtt_prefix_secret_del:0000000000000000 alcs_mqtt_prefix_secret_del
C:\Users\stapi\AppData\Local\Temp\cc63Vocw.s:1864   .text.alcs_mqtt_prefix_secret_del:0000000000000000 .L0 
C:\Users\stapi\AppData\Local\Temp\cc63Vocw.s:1866   .text.alcs_mqtt_prefix_secret_del:0000000000000000 .L0 
C:\Users\stapi\AppData\Local\Temp\cc63Vocw.s:1867   .text.alcs_mqtt_prefix_secret_del:0000000000000008 .L0 
C:\Users\stapi\AppData\Local\Temp\cc63Vocw.s:1868   .text.alcs_mqtt_prefix_secret_del:0000000000000008 .L0 
C:\Users\stapi\AppData\Local\Temp\cc63Vocw.s:1869   .text.alcs_mqtt_prefix_secret_del:0000000000000008 .L0 
C:\Users\stapi\AppData\Local\Temp\cc63Vocw.s:1870   .text.alcs_mqtt_prefix_secret_del:0000000000000008 .L0 
C:\Users\stapi\AppData\Local\Temp\cc63Vocw.s:1871   .text.alcs_mqtt_prefix_secret_del:0000000000000008 .L0 
C:\Users\stapi\AppData\Local\Temp\cc63Vocw.s:1872   .text.alcs_mqtt_prefix_secret_del:0000000000000008 .L0 
C:\Users\stapi\AppData\Local\Temp\cc63Vocw.s:1873   .text.alcs_mqtt_prefix_secret_del:0000000000000008 .L0 
C:\Users\stapi\AppData\Local\Temp\cc63Vocw.s:1874   .text.alcs_mqtt_prefix_secret_del:0000000000000008 .L0 
C:\Users\stapi\AppData\Local\Temp\cc63Vocw.s:1877   .text.alcs_mqtt_prefix_secret_del:0000000000000008 .L0 
C:\Users\stapi\AppData\Local\Temp\cc63Vocw.s:1878   .text.alcs_mqtt_prefix_secret_del:0000000000000008 .L0 
C:\Users\stapi\AppData\Local\Temp\cc63Vocw.s:1879   .text.alcs_mqtt_prefix_secret_del:0000000000000008 .L0 
C:\Users\stapi\AppData\Local\Temp\cc63Vocw.s:1880   .text.alcs_mqtt_prefix_secret_del:000000000000000a .L0 
C:\Users\stapi\AppData\Local\Temp\cc63Vocw.s:1882   .text.alcs_mqtt_prefix_secret_del:000000000000000a .L0 
C:\Users\stapi\AppData\Local\Temp\cc63Vocw.s:1886   .text.alcs_mqtt_prefix_secret_del:0000000000000010 .L0 
C:\Users\stapi\AppData\Local\Temp\cc63Vocw.s:1893   .text.alcs_mqtt_prefix_secret_del:0000000000000016 .L0 
C:\Users\stapi\AppData\Local\Temp\cc63Vocw.s:1895   .text.alcs_mqtt_prefix_secret_del:0000000000000018 .L0 
C:\Users\stapi\AppData\Local\Temp\cc63Vocw.s:1900   .text.alcs_mqtt_prefix_secret_del:0000000000000020 .L0 
C:\Users\stapi\AppData\Local\Temp\cc63Vocw.s:1901   .text.alcs_mqtt_prefix_secret_del:0000000000000020 .L0 
C:\Users\stapi\AppData\Local\Temp\cc63Vocw.s:1905   .text.alcs_mqtt_prefix_secret_del:000000000000002a .L0 
C:\Users\stapi\AppData\Local\Temp\cc63Vocw.s:1906   .text.alcs_mqtt_prefix_secret_del:000000000000002a .L0 
C:\Users\stapi\AppData\Local\Temp\cc63Vocw.s:1908   .text.alcs_mqtt_prefix_secret_del:000000000000002e .L0 
C:\Users\stapi\AppData\Local\Temp\cc63Vocw.s:1912   .text.alcs_mqtt_prefix_secret_del:0000000000000038 .L0 
C:\Users\stapi\AppData\Local\Temp\cc63Vocw.s:1915   .text.alcs_mqtt_prefix_secret_del:000000000000003e .L0 
C:\Users\stapi\AppData\Local\Temp\cc63Vocw.s:1917   .text.alcs_mqtt_prefix_secret_del:0000000000000042 .L0 
C:\Users\stapi\AppData\Local\Temp\cc63Vocw.s:1921   .text.alcs_mqtt_prefix_secret_del:000000000000004c .L0 
C:\Users\stapi\AppData\Local\Temp\cc63Vocw.s:1925   .text.alcs_mqtt_prefix_secret_del:0000000000000054 .L0 
C:\Users\stapi\AppData\Local\Temp\cc63Vocw.s:1926   .text.alcs_mqtt_prefix_secret_del:0000000000000054 .L0 
C:\Users\stapi\AppData\Local\Temp\cc63Vocw.s:1931   .text.alcs_mqtt_prefix_secret_del:0000000000000064 .L0 
C:\Users\stapi\AppData\Local\Temp\cc63Vocw.s:1936   .text.alcs_mqtt_prefix_secret_del:000000000000006c .L0 
C:\Users\stapi\AppData\Local\Temp\cc63Vocw.s:1939   .text.alcs_mqtt_prefix_secret_del:0000000000000074 .L0 
C:\Users\stapi\AppData\Local\Temp\cc63Vocw.s:1944   .text.alcs_mqtt_prefix_secret_del:0000000000000084 .L0 
C:\Users\stapi\AppData\Local\Temp\cc63Vocw.s:1946   .text.alcs_mqtt_prefix_secret_del:0000000000000084 .L0 
C:\Users\stapi\AppData\Local\Temp\cc63Vocw.s:1947   .text.alcs_mqtt_prefix_secret_del:0000000000000084 .L0 
C:\Users\stapi\AppData\Local\Temp\cc63Vocw.s:1948   .text.alcs_mqtt_prefix_secret_del:0000000000000084 .L0 
C:\Users\stapi\AppData\Local\Temp\cc63Vocw.s:1951   .text.alcs_mqtt_prefix_secret_del:0000000000000086 .L0 
C:\Users\stapi\AppData\Local\Temp\cc63Vocw.s:1953   .text.alcs_mqtt_prefix_secret_del:000000000000008a .L0 
C:\Users\stapi\AppData\Local\Temp\cc63Vocw.s:1954   .text.alcs_mqtt_prefix_secret_del:000000000000008a .L0 
C:\Users\stapi\AppData\Local\Temp\cc63Vocw.s:1956   .text.alcs_mqtt_prefix_secret_del:0000000000000092 .L0 
C:\Users\stapi\AppData\Local\Temp\cc63Vocw.s:1957   .text.alcs_mqtt_prefix_secret_del:0000000000000092 .L0 
C:\Users\stapi\AppData\Local\Temp\cc63Vocw.s:1958   .text.alcs_mqtt_prefix_secret_del:0000000000000092 .L0 
C:\Users\stapi\AppData\Local\Temp\cc63Vocw.s:1959   .text.alcs_mqtt_prefix_secret_del:0000000000000092 .L0 
C:\Users\stapi\AppData\Local\Temp\cc63Vocw.s:1960   .text.alcs_mqtt_prefix_secret_del:0000000000000092 .L0 
C:\Users\stapi\AppData\Local\Temp\cc63Vocw.s:1961   .text.alcs_mqtt_prefix_secret_del:0000000000000092 .L0 
C:\Users\stapi\AppData\Local\Temp\cc63Vocw.s:1962   .text.alcs_mqtt_prefix_secret_del:0000000000000092 .L0 
C:\Users\stapi\AppData\Local\Temp\cc63Vocw.s:1963   .text.alcs_mqtt_prefix_secret_del:0000000000000092 .L0 
C:\Users\stapi\AppData\Local\Temp\cc63Vocw.s:1966   .text.alcs_mqtt_prefix_secret_del:0000000000000092 .L0 
C:\Users\stapi\AppData\Local\Temp\cc63Vocw.s:1968   .text.alcs_mqtt_prefix_secret_del:0000000000000092 .L0 
C:\Users\stapi\AppData\Local\Temp\cc63Vocw.s:1969   .text.alcs_mqtt_prefix_secret_del:0000000000000092 .L0 
C:\Users\stapi\AppData\Local\Temp\cc63Vocw.s:1979   .text.alcs_mqtt_prefix_secret_del:00000000000000a8 .L0 
C:\Users\stapi\AppData\Local\Temp\cc63Vocw.s:1980   .text.alcs_mqtt_prefix_secret_del:00000000000000a8 .L0 
C:\Users\stapi\AppData\Local\Temp\cc63Vocw.s:1982   .text.alcs_mqtt_prefix_secret_del:00000000000000aa .L0 
C:\Users\stapi\AppData\Local\Temp\cc63Vocw.s:1983   .text.alcs_mqtt_prefix_secret_del:00000000000000aa .L0 
C:\Users\stapi\AppData\Local\Temp\cc63Vocw.s:1988   .text.alcs_mqtt_prefix_secret_del:00000000000000ba .L0 
C:\Users\stapi\AppData\Local\Temp\cc63Vocw.s:1993   .text.alcs_mqtt_prefix_secret_del:00000000000000c4 .L0 
C:\Users\stapi\AppData\Local\Temp\cc63Vocw.s:1998   .text.alcs_mqtt_prefix_secret_del:00000000000000d0 .L0 
C:\Users\stapi\AppData\Local\Temp\cc63Vocw.s:2009   .text.alcs_mqtt_prefix_secret_del:00000000000000ec .L0 
C:\Users\stapi\AppData\Local\Temp\cc63Vocw.s:2018   .text.alcs_mqtt_prefix_secret_del:0000000000000104 .L0 
C:\Users\stapi\AppData\Local\Temp\cc63Vocw.s:2023   .text.alcs_mqtt_prefix_secret_del:0000000000000110 .L0 
C:\Users\stapi\AppData\Local\Temp\cc63Vocw.s:2024   .text.alcs_mqtt_prefix_secret_del:0000000000000110 .L0 
C:\Users\stapi\AppData\Local\Temp\cc63Vocw.s:2030   .text.alcs_mqtt_prefix_secret_del:0000000000000122 .L0 
C:\Users\stapi\AppData\Local\Temp\cc63Vocw.s:2032   .text.alcs_mqtt_prefix_secret_del:0000000000000124 .L0 
C:\Users\stapi\AppData\Local\Temp\cc63Vocw.s:2033   .text.alcs_mqtt_prefix_secret_del:0000000000000124 .L0 
C:\Users\stapi\AppData\Local\Temp\cc63Vocw.s:2038   .text.alcs_mqtt_prefix_secret_del:0000000000000134 .L0 
C:\Users\stapi\AppData\Local\Temp\cc63Vocw.s:2043   .text.alcs_mqtt_prefix_secret_del:0000000000000144 .L0 
C:\Users\stapi\AppData\Local\Temp\cc63Vocw.s:2048   .text.alcs_mqtt_prefix_secret_del:0000000000000154 .L0 
C:\Users\stapi\AppData\Local\Temp\cc63Vocw.s:2049   .text.alcs_mqtt_prefix_secret_del:0000000000000154 .L0 
C:\Users\stapi\AppData\Local\Temp\cc63Vocw.s:2055   .text.alcs_mqtt_prefix_secret_del:0000000000000160 .L0 
C:\Users\stapi\AppData\Local\Temp\cc63Vocw.s:2059   .text.alcs_mqtt_prefix_secret_del:000000000000016a .L0 
C:\Users\stapi\AppData\Local\Temp\cc63Vocw.s:2060   .text.alcs_mqtt_prefix_secret_del:000000000000016a .L0 
C:\Users\stapi\AppData\Local\Temp\cc63Vocw.s:2061   .text.alcs_mqtt_prefix_secret_del:000000000000016c .L0 
C:\Users\stapi\AppData\Local\Temp\cc63Vocw.s:2068   .text.alcs_mqtt_deinit:0000000000000000 alcs_mqtt_deinit
C:\Users\stapi\AppData\Local\Temp\cc63Vocw.s:2071   .text.alcs_mqtt_deinit:0000000000000000 .L0 
C:\Users\stapi\AppData\Local\Temp\cc63Vocw.s:2073   .text.alcs_mqtt_deinit:0000000000000000 .L0 
C:\Users\stapi\AppData\Local\Temp\cc63Vocw.s:2074   .text.alcs_mqtt_deinit:0000000000000000 .L0 
C:\Users\stapi\AppData\Local\Temp\cc63Vocw.s:2075   .text.alcs_mqtt_deinit:0000000000000000 .L0 
C:\Users\stapi\AppData\Local\Temp\cc63Vocw.s:2078   .text.alcs_mqtt_deinit:0000000000000004 .L0 
C:\Users\stapi\AppData\Local\Temp\cc63Vocw.s:2085   .text.alcs_mqtt_add_srv_key:0000000000000000 alcs_mqtt_add_srv_key
C:\Users\stapi\AppData\Local\Temp\cc63Vocw.s:2088   .text.alcs_mqtt_add_srv_key:0000000000000000 .L0 
C:\Users\stapi\AppData\Local\Temp\cc63Vocw.s:2090   .text.alcs_mqtt_add_srv_key:0000000000000000 .L0 
C:\Users\stapi\AppData\Local\Temp\cc63Vocw.s:2091   .text.alcs_mqtt_add_srv_key:0000000000000000 .L0 
C:\Users\stapi\AppData\Local\Temp\cc63Vocw.s:2092   .text.alcs_mqtt_add_srv_key:0000000000000000 .L0 
C:\Users\stapi\AppData\Local\Temp\cc63Vocw.s:2093   .text.alcs_mqtt_add_srv_key:0000000000000000 .L0 
C:\Users\stapi\AppData\Local\Temp\cc63Vocw.s:2095   .text.alcs_mqtt_add_srv_key:0000000000000004 .L0 
C:\Users\stapi\AppData\Local\Temp\cc63Vocw.s:2097   .text.alcs_mqtt_add_srv_key:0000000000000006 .L0 
C:\Users\stapi\AppData\Local\Temp\cc63Vocw.s:2104   .text.alcs_mqtt_add_srv_key:0000000000000016 .L0 
C:\Users\stapi\AppData\Local\Temp\cc63Vocw.s:2111   .text.alcs_mqtt_remove_srv_key:0000000000000000 alcs_mqtt_remove_srv_key
C:\Users\stapi\AppData\Local\Temp\cc63Vocw.s:2114   .text.alcs_mqtt_remove_srv_key:0000000000000000 .L0 
C:\Users\stapi\AppData\Local\Temp\cc63Vocw.s:2116   .text.alcs_mqtt_remove_srv_key:0000000000000000 .L0 
C:\Users\stapi\AppData\Local\Temp\cc63Vocw.s:2117   .text.alcs_mqtt_remove_srv_key:0000000000000000 .L0 
C:\Users\stapi\AppData\Local\Temp\cc63Vocw.s:2118   .text.alcs_mqtt_remove_srv_key:0000000000000000 .L0 
C:\Users\stapi\AppData\Local\Temp\cc63Vocw.s:2119   .text.alcs_mqtt_remove_srv_key:0000000000000000 .L0 
C:\Users\stapi\AppData\Local\Temp\cc63Vocw.s:2121   .text.alcs_mqtt_remove_srv_key:0000000000000004 .L0 
C:\Users\stapi\AppData\Local\Temp\cc63Vocw.s:2123   .text.alcs_mqtt_remove_srv_key:0000000000000006 .L0 
C:\Users\stapi\AppData\Local\Temp\cc63Vocw.s:2127   .text.alcs_mqtt_remove_srv_key:0000000000000012 .L0 
C:\Users\stapi\AppData\Local\Temp\cc63Vocw.s:2138   .text.alcs_mqtt_blacklist_update:0000000000000000 alcs_mqtt_blacklist_update
C:\Users\stapi\AppData\Local\Temp\cc63Vocw.s:2141   .text.alcs_mqtt_blacklist_update:0000000000000000 .L0 
C:\Users\stapi\AppData\Local\Temp\cc63Vocw.s:2143   .text.alcs_mqtt_blacklist_update:0000000000000000 .L0 
C:\Users\stapi\AppData\Local\Temp\cc63Vocw.s:2144   .text.alcs_mqtt_blacklist_update:0000000000000008 .L0 
C:\Users\stapi\AppData\Local\Temp\cc63Vocw.s:2145   .text.alcs_mqtt_blacklist_update:0000000000000008 .L0 
C:\Users\stapi\AppData\Local\Temp\cc63Vocw.s:2146   .text.alcs_mqtt_blacklist_update:0000000000000008 .L0 
C:\Users\stapi\AppData\Local\Temp\cc63Vocw.s:2147   .text.alcs_mqtt_blacklist_update:0000000000000008 .L0 
C:\Users\stapi\AppData\Local\Temp\cc63Vocw.s:2149   .text.alcs_mqtt_blacklist_update:0000000000000008 .L0 
C:\Users\stapi\AppData\Local\Temp\cc63Vocw.s:2150   .text.alcs_mqtt_blacklist_update:0000000000000008 .L0 
C:\Users\stapi\AppData\Local\Temp\cc63Vocw.s:2151   .text.alcs_mqtt_blacklist_update:000000000000000a .L0 
C:\Users\stapi\AppData\Local\Temp\cc63Vocw.s:2153   .text.alcs_mqtt_blacklist_update:000000000000000a .L0 
C:\Users\stapi\AppData\Local\Temp\cc63Vocw.s:2156   .text.alcs_mqtt_blacklist_update:000000000000000c .L0 
C:\Users\stapi\AppData\Local\Temp\cc63Vocw.s:2157   .text.alcs_mqtt_blacklist_update:000000000000000c .L0 
C:\Users\stapi\AppData\Local\Temp\cc63Vocw.s:2165   .text.alcs_mqtt_blacklist_update:000000000000001e .L0 
C:\Users\stapi\AppData\Local\Temp\cc63Vocw.s:2166   .text.alcs_mqtt_blacklist_update:000000000000001e .L0 
C:\Users\stapi\AppData\Local\Temp\cc63Vocw.s:2169   .text.alcs_mqtt_blacklist_update:0000000000000024 .L0 
C:\Users\stapi\AppData\Local\Temp\cc63Vocw.s:2170   .text.alcs_mqtt_blacklist_update:0000000000000024 .L0 
C:\Users\stapi\AppData\Local\Temp\cc63Vocw.s:2172   .text.alcs_mqtt_blacklist_update:0000000000000026 .L0 
C:\Users\stapi\AppData\Local\Temp\cc63Vocw.s:2174   .text.alcs_mqtt_blacklist_update:0000000000000028 .L0 
C:\Users\stapi\AppData\Local\Temp\cc63Vocw.s:2175   .text.alcs_mqtt_blacklist_update:0000000000000028 .L0 
C:\Users\stapi\AppData\Local\Temp\cc63Vocw.s:2183   .text.alcs_mqtt_blacklist_update:000000000000003e .L0 
C:\Users\stapi\AppData\Local\Temp\cc63Vocw.s:2186   .text.alcs_mqtt_blacklist_update:0000000000000040 .L0 
C:\Users\stapi\AppData\Local\Temp\cc63Vocw.s:2189   .text.alcs_mqtt_blacklist_update:0000000000000042 .L0 
C:\Users\stapi\AppData\Local\Temp\cc63Vocw.s:2191   .text.alcs_mqtt_blacklist_update:0000000000000046 .L0 
C:\Users\stapi\AppData\Local\Temp\cc63Vocw.s:2192   .text.alcs_mqtt_blacklist_update:0000000000000046 .L0 
C:\Users\stapi\AppData\Local\Temp\cc63Vocw.s:2194   .text.alcs_mqtt_blacklist_update:000000000000004e .L0 
C:\Users\stapi\AppData\Local\Temp\cc63Vocw.s:2195   .text.alcs_mqtt_blacklist_update:000000000000004e .L0 
C:\Users\stapi\AppData\Local\Temp\cc63Vocw.s:2196   .text.alcs_mqtt_blacklist_update:000000000000004e .L0 
C:\Users\stapi\AppData\Local\Temp\cc63Vocw.s:2197   .text.alcs_mqtt_blacklist_update:000000000000004e .L0 
C:\Users\stapi\AppData\Local\Temp\cc63Vocw.s:2199   .text.alcs_mqtt_blacklist_update:000000000000004e .L0 
C:\Users\stapi\AppData\Local\Temp\cc63Vocw.s:2201   .text.alcs_mqtt_blacklist_update:000000000000004e .L0 
C:\Users\stapi\AppData\Local\Temp\cc63Vocw.s:2202   .text.alcs_mqtt_blacklist_update:000000000000004e .L0 
C:\Users\stapi\AppData\Local\Temp\cc63Vocw.s:2207   .text.alcs_mqtt_blacklist_update:000000000000005e .L0 
C:\Users\stapi\AppData\Local\Temp\cc63Vocw.s:2214   .text.alcs_mqtt_blacklist_update:0000000000000072 .L0 
C:\Users\stapi\AppData\Local\Temp\cc63Vocw.s:2219   .text.alcs_mqtt_blacklist_update:0000000000000082 .L0 
C:\Users\stapi\AppData\Local\Temp\cc63Vocw.s:2220   .text.alcs_mqtt_blacklist_update:0000000000000082 .L0 
C:\Users\stapi\AppData\Local\Temp\cc63Vocw.s:2221   .text.alcs_mqtt_blacklist_update:0000000000000082 .L0 
C:\Users\stapi\AppData\Local\Temp\cc63Vocw.s:2224   .text.alcs_mqtt_blacklist_update:0000000000000086 .L0 
C:\Users\stapi\AppData\Local\Temp\cc63Vocw.s:2229   .text.alcs_mqtt_blacklist_update:0000000000000092 .L0 
C:\Users\stapi\AppData\Local\Temp\cc63Vocw.s:2230   .text.alcs_mqtt_blacklist_update:0000000000000092 .L0 
C:\Users\stapi\AppData\Local\Temp\cc63Vocw.s:2231   .text.alcs_mqtt_blacklist_update:0000000000000094 .L0 
C:\Users\stapi\AppData\Local\Temp\cc63Vocw.s:2245   .text.alcs_mqtt_prefixkey_update:0000000000000000 alcs_mqtt_prefixkey_update
C:\Users\stapi\AppData\Local\Temp\cc63Vocw.s:2248   .text.alcs_mqtt_prefixkey_update:0000000000000000 .L0 
C:\Users\stapi\AppData\Local\Temp\cc63Vocw.s:2250   .text.alcs_mqtt_prefixkey_update:0000000000000000 .L0 
C:\Users\stapi\AppData\Local\Temp\cc63Vocw.s:2251   .text.alcs_mqtt_prefixkey_update:0000000000000008 .L0 
C:\Users\stapi\AppData\Local\Temp\cc63Vocw.s:2252   .text.alcs_mqtt_prefixkey_update:0000000000000008 .L0 
C:\Users\stapi\AppData\Local\Temp\cc63Vocw.s:2253   .text.alcs_mqtt_prefixkey_update:0000000000000008 .L0 
C:\Users\stapi\AppData\Local\Temp\cc63Vocw.s:2254   .text.alcs_mqtt_prefixkey_update:0000000000000008 .L0 
C:\Users\stapi\AppData\Local\Temp\cc63Vocw.s:2255   .text.alcs_mqtt_prefixkey_update:0000000000000008 .L0 
C:\Users\stapi\AppData\Local\Temp\cc63Vocw.s:2256   .text.alcs_mqtt_prefixkey_update:0000000000000008 .L0 
C:\Users\stapi\AppData\Local\Temp\cc63Vocw.s:2258   .text.alcs_mqtt_prefixkey_update:0000000000000008 .L0 
C:\Users\stapi\AppData\Local\Temp\cc63Vocw.s:2259   .text.alcs_mqtt_prefixkey_update:0000000000000008 .L0 
C:\Users\stapi\AppData\Local\Temp\cc63Vocw.s:2260   .text.alcs_mqtt_prefixkey_update:000000000000000a .L0 
C:\Users\stapi\AppData\Local\Temp\cc63Vocw.s:2262   .text.alcs_mqtt_prefixkey_update:000000000000000a .L0 
C:\Users\stapi\AppData\Local\Temp\cc63Vocw.s:2265   .text.alcs_mqtt_prefixkey_update:000000000000000c .L0 
C:\Users\stapi\AppData\Local\Temp\cc63Vocw.s:2266   .text.alcs_mqtt_prefixkey_update:000000000000000c .L0 
C:\Users\stapi\AppData\Local\Temp\cc63Vocw.s:2274   .text.alcs_mqtt_prefixkey_update:000000000000001e .L0 
C:\Users\stapi\AppData\Local\Temp\cc63Vocw.s:2275   .text.alcs_mqtt_prefixkey_update:000000000000001e .L0 
C:\Users\stapi\AppData\Local\Temp\cc63Vocw.s:2282   .text.alcs_mqtt_prefixkey_update:0000000000000030 .L0 
C:\Users\stapi\AppData\Local\Temp\cc63Vocw.s:2283   .text.alcs_mqtt_prefixkey_update:0000000000000030 .L0 
C:\Users\stapi\AppData\Local\Temp\cc63Vocw.s:2287   .text.alcs_mqtt_prefixkey_update:0000000000000036 .L0 
C:\Users\stapi\AppData\Local\Temp\cc63Vocw.s:2294   .text.alcs_mqtt_prefixkey_update:0000000000000044 .L0 
C:\Users\stapi\AppData\Local\Temp\cc63Vocw.s:2295   .text.alcs_mqtt_prefixkey_update:0000000000000044 .L0 
C:\Users\stapi\AppData\Local\Temp\cc63Vocw.s:2299   .text.alcs_mqtt_prefixkey_update:000000000000004e .L0 
C:\Users\stapi\AppData\Local\Temp\cc63Vocw.s:2300   .text.alcs_mqtt_prefixkey_update:000000000000004e .L0 
C:\Users\stapi\AppData\Local\Temp\cc63Vocw.s:2301   .text.alcs_mqtt_prefixkey_update:000000000000004e .L0 
C:\Users\stapi\AppData\Local\Temp\cc63Vocw.s:2303   .text.alcs_mqtt_prefixkey_update:0000000000000050 .L0 
C:\Users\stapi\AppData\Local\Temp\cc63Vocw.s:2304   .text.alcs_mqtt_prefixkey_update:0000000000000050 .L0 
C:\Users\stapi\AppData\Local\Temp\cc63Vocw.s:2309   .text.alcs_mqtt_prefixkey_update:0000000000000060 .L0 
C:\Users\stapi\AppData\Local\Temp\cc63Vocw.s:2314   .text.alcs_mqtt_prefixkey_update:0000000000000070 .L0 
C:\Users\stapi\AppData\Local\Temp\cc63Vocw.s:2319   .text.alcs_mqtt_prefixkey_update:0000000000000080 .L0 
C:\Users\stapi\AppData\Local\Temp\cc63Vocw.s:2320   .text.alcs_mqtt_prefixkey_update:0000000000000080 .L0 
C:\Users\stapi\AppData\Local\Temp\cc63Vocw.s:2324   .text.alcs_mqtt_prefixkey_update:000000000000008a .L0 
C:\Users\stapi\AppData\Local\Temp\cc63Vocw.s:2328   .text.alcs_mqtt_prefixkey_update:0000000000000094 .L0 
C:\Users\stapi\AppData\Local\Temp\cc63Vocw.s:2329   .text.alcs_mqtt_prefixkey_update:0000000000000094 .L0 
C:\Users\stapi\AppData\Local\Temp\cc63Vocw.s:2335   .text.alcs_mqtt_prefixkey_update:00000000000000a0 .L0 
C:\Users\stapi\AppData\Local\Temp\cc63Vocw.s:2336   .text.alcs_mqtt_prefixkey_update:00000000000000a0 .L0 
C:\Users\stapi\AppData\Local\Temp\cc63Vocw.s:2340   .text.alcs_mqtt_prefixkey_update:00000000000000aa .L0 
C:\Users\stapi\AppData\Local\Temp\cc63Vocw.s:2341   .text.alcs_mqtt_prefixkey_update:00000000000000aa .L0 
C:\Users\stapi\AppData\Local\Temp\cc63Vocw.s:2353   .text.alcs_mqtt_prefixkey_update:00000000000000c4 .L0 
C:\Users\stapi\AppData\Local\Temp\cc63Vocw.s:2355   .text.alcs_mqtt_prefixkey_update:00000000000000c6 .L0 
C:\Users\stapi\AppData\Local\Temp\cc63Vocw.s:2363   .text.alcs_mqtt_prefixkey_update:00000000000000d6 .L0 
C:\Users\stapi\AppData\Local\Temp\cc63Vocw.s:2364   .text.alcs_mqtt_prefixkey_update:00000000000000d6 .L0 
C:\Users\stapi\AppData\Local\Temp\cc63Vocw.s:2366   .text.alcs_mqtt_prefixkey_update:00000000000000da .L0 
C:\Users\stapi\AppData\Local\Temp\cc63Vocw.s:2367   .text.alcs_mqtt_prefixkey_update:00000000000000da .L0 
C:\Users\stapi\AppData\Local\Temp\cc63Vocw.s:2369   .text.alcs_mqtt_prefixkey_update:00000000000000e2 .L0 
C:\Users\stapi\AppData\Local\Temp\cc63Vocw.s:2370   .text.alcs_mqtt_prefixkey_update:00000000000000e2 .L0 
C:\Users\stapi\AppData\Local\Temp\cc63Vocw.s:2371   .text.alcs_mqtt_prefixkey_update:00000000000000e2 .L0 
C:\Users\stapi\AppData\Local\Temp\cc63Vocw.s:2372   .text.alcs_mqtt_prefixkey_update:00000000000000e2 .L0 
C:\Users\stapi\AppData\Local\Temp\cc63Vocw.s:2373   .text.alcs_mqtt_prefixkey_update:00000000000000e2 .L0 
C:\Users\stapi\AppData\Local\Temp\cc63Vocw.s:2374   .text.alcs_mqtt_prefixkey_update:00000000000000e2 .L0 
C:\Users\stapi\AppData\Local\Temp\cc63Vocw.s:2376   .text.alcs_mqtt_prefixkey_update:00000000000000e2 .L0 
C:\Users\stapi\AppData\Local\Temp\cc63Vocw.s:2378   .text.alcs_mqtt_prefixkey_update:00000000000000e2 .L0 
C:\Users\stapi\AppData\Local\Temp\cc63Vocw.s:2379   .text.alcs_mqtt_prefixkey_update:00000000000000e2 .L0 
C:\Users\stapi\AppData\Local\Temp\cc63Vocw.s:2383   .text.alcs_mqtt_prefixkey_update:00000000000000ee .L0 
C:\Users\stapi\AppData\Local\Temp\cc63Vocw.s:2388   .text.alcs_mqtt_prefixkey_update:00000000000000fe .L0 
C:\Users\stapi\AppData\Local\Temp\cc63Vocw.s:2392   .text.alcs_mqtt_prefixkey_update:000000000000010a .L0 
C:\Users\stapi\AppData\Local\Temp\cc63Vocw.s:2394   .text.alcs_mqtt_prefixkey_update:000000000000010a .L0 
C:\Users\stapi\AppData\Local\Temp\cc63Vocw.s:2395   .text.alcs_mqtt_prefixkey_update:000000000000010a .L0 
C:\Users\stapi\AppData\Local\Temp\cc63Vocw.s:2397   .text.alcs_mqtt_prefixkey_update:000000000000010e .L0 
C:\Users\stapi\AppData\Local\Temp\cc63Vocw.s:2414   .text.alcs_prefixkey_get:0000000000000000 alcs_prefixkey_get
C:\Users\stapi\AppData\Local\Temp\cc63Vocw.s:2417   .text.alcs_prefixkey_get:0000000000000000 .L0 
C:\Users\stapi\AppData\Local\Temp\cc63Vocw.s:2419   .text.alcs_prefixkey_get:0000000000000000 .L0 
C:\Users\stapi\AppData\Local\Temp\cc63Vocw.s:2420   .text.alcs_prefixkey_get:0000000000000008 .L0 
C:\Users\stapi\AppData\Local\Temp\cc63Vocw.s:2421   .text.alcs_prefixkey_get:0000000000000008 .L0 
C:\Users\stapi\AppData\Local\Temp\cc63Vocw.s:2422   .text.alcs_prefixkey_get:0000000000000008 .L0 
C:\Users\stapi\AppData\Local\Temp\cc63Vocw.s:2423   .text.alcs_prefixkey_get:0000000000000008 .L0 
C:\Users\stapi\AppData\Local\Temp\cc63Vocw.s:2424   .text.alcs_prefixkey_get:0000000000000008 .L0 
C:\Users\stapi\AppData\Local\Temp\cc63Vocw.s:2427   .text.alcs_prefixkey_get:0000000000000008 .L0 
C:\Users\stapi\AppData\Local\Temp\cc63Vocw.s:2428   .text.alcs_prefixkey_get:0000000000000008 .L0 
C:\Users\stapi\AppData\Local\Temp\cc63Vocw.s:2429   .text.alcs_prefixkey_get:0000000000000008 .L0 
C:\Users\stapi\AppData\Local\Temp\cc63Vocw.s:2430   .text.alcs_prefixkey_get:0000000000000008 .L0 
C:\Users\stapi\AppData\Local\Temp\cc63Vocw.s:2431   .text.alcs_prefixkey_get:000000000000000a .L0 
C:\Users\stapi\AppData\Local\Temp\cc63Vocw.s:2433   .text.alcs_prefixkey_get:000000000000000a .L0 
C:\Users\stapi\AppData\Local\Temp\cc63Vocw.s:2436   .text.alcs_prefixkey_get:000000000000000e .L0 
C:\Users\stapi\AppData\Local\Temp\cc63Vocw.s:2445   .text.alcs_prefixkey_get:0000000000000020 .L0 
C:\Users\stapi\AppData\Local\Temp\cc63Vocw.s:2446   .text.alcs_prefixkey_get:0000000000000020 .L0 
C:\Users\stapi\AppData\Local\Temp\cc63Vocw.s:2447   .text.alcs_prefixkey_get:0000000000000020 .L0 
C:\Users\stapi\AppData\Local\Temp\cc63Vocw.s:2448   .text.alcs_prefixkey_get:0000000000000020 .L0 
C:\Users\stapi\AppData\Local\Temp\cc63Vocw.s:2449   .text.alcs_prefixkey_get:0000000000000020 .L0 
C:\Users\stapi\AppData\Local\Temp\cc63Vocw.s:2453   .text.alcs_prefixkey_get:000000000000002c .L0 
C:\Users\stapi\AppData\Local\Temp\cc63Vocw.s:2457   .text.alcs_prefixkey_get:0000000000000032 .L0 
C:\Users\stapi\AppData\Local\Temp\cc63Vocw.s:2458   .text.alcs_prefixkey_get:0000000000000032 .L0 
C:\Users\stapi\AppData\Local\Temp\cc63Vocw.s:2462   .text.alcs_prefixkey_get:0000000000000034 .L0 
C:\Users\stapi\AppData\Local\Temp\cc63Vocw.s:2466   .text.alcs_prefixkey_get:0000000000000036 .L0 
C:\Users\stapi\AppData\Local\Temp\cc63Vocw.s:2468   .text.alcs_prefixkey_get:000000000000003a .L0 
C:\Users\stapi\AppData\Local\Temp\cc63Vocw.s:2469   .text.alcs_prefixkey_get:000000000000003a .L0 
C:\Users\stapi\AppData\Local\Temp\cc63Vocw.s:2471   .text.alcs_prefixkey_get:0000000000000042 .L0 
C:\Users\stapi\AppData\Local\Temp\cc63Vocw.s:2472   .text.alcs_prefixkey_get:0000000000000042 .L0 
C:\Users\stapi\AppData\Local\Temp\cc63Vocw.s:2473   .text.alcs_prefixkey_get:0000000000000042 .L0 
C:\Users\stapi\AppData\Local\Temp\cc63Vocw.s:2474   .text.alcs_prefixkey_get:0000000000000042 .L0 
C:\Users\stapi\AppData\Local\Temp\cc63Vocw.s:2475   .text.alcs_prefixkey_get:0000000000000042 .L0 
C:\Users\stapi\AppData\Local\Temp\cc63Vocw.s:2478   .text.alcs_prefixkey_get:0000000000000042 .L0 
C:\Users\stapi\AppData\Local\Temp\cc63Vocw.s:2480   .text.alcs_prefixkey_get:0000000000000042 .L0 
C:\Users\stapi\AppData\Local\Temp\cc63Vocw.s:2484   .text.alcs_prefixkey_get:000000000000004c .L0 
C:\Users\stapi\AppData\Local\Temp\cc63Vocw.s:2487   .text.alcs_prefixkey_get:0000000000000052 .L0 
C:\Users\stapi\AppData\Local\Temp\cc63Vocw.s:2489   .text.alcs_prefixkey_get:0000000000000054 .L0 
C:\Users\stapi\AppData\Local\Temp\cc63Vocw.s:2493   .text.alcs_prefixkey_get:000000000000005e .L0 
C:\Users\stapi\AppData\Local\Temp\cc63Vocw.s:2496   .text.alcs_prefixkey_get:0000000000000066 .L0 
C:\Users\stapi\AppData\Local\Temp\cc63Vocw.s:2505   .text.alcs_prefixkey_get:0000000000000080 .L0 
C:\Users\stapi\AppData\Local\Temp\cc63Vocw.s:2506   .text.alcs_prefixkey_get:0000000000000080 .L0 
C:\Users\stapi\AppData\Local\Temp\cc63Vocw.s:2507   .text.alcs_prefixkey_get:0000000000000080 .L0 
C:\Users\stapi\AppData\Local\Temp\cc63Vocw.s:2515   .text.alcs_prefixkey_get:0000000000000092 .L0 
C:\Users\stapi\AppData\Local\Temp\cc63Vocw.s:2517   .text.alcs_prefixkey_get:0000000000000094 .L0 
C:\Users\stapi\AppData\Local\Temp\cc63Vocw.s:2524   .text.alcs_prefixkey_get:00000000000000aa .L0 
C:\Users\stapi\AppData\Local\Temp\cc63Vocw.s:2525   .text.alcs_prefixkey_get:00000000000000aa .L0 
C:\Users\stapi\AppData\Local\Temp\cc63Vocw.s:2530   .text.alcs_prefixkey_get:00000000000000ba .L0 
C:\Users\stapi\AppData\Local\Temp\cc63Vocw.s:2537   .text.alcs_prefixkey_get:00000000000000ce .L0 
C:\Users\stapi\AppData\Local\Temp\cc63Vocw.s:2542   .text.alcs_prefixkey_get:00000000000000de .L0 
C:\Users\stapi\AppData\Local\Temp\cc63Vocw.s:2543   .text.alcs_prefixkey_get:00000000000000de .L0 
C:\Users\stapi\AppData\Local\Temp\cc63Vocw.s:2544   .text.alcs_prefixkey_get:00000000000000de .L0 
C:\Users\stapi\AppData\Local\Temp\cc63Vocw.s:2552   .text.alcs_prefixkey_get:00000000000000ea .L0 
C:\Users\stapi\AppData\Local\Temp\cc63Vocw.s:2553   .text.alcs_prefixkey_get:00000000000000ea .L0 
C:\Users\stapi\AppData\Local\Temp\cc63Vocw.s:2561   .text.alcs_prefixkey_get:00000000000000fa .L0 
C:\Users\stapi\AppData\Local\Temp\cc63Vocw.s:2566   .text.alcs_prefixkey_get:00000000000000fe .L0 
C:\Users\stapi\AppData\Local\Temp\cc63Vocw.s:2570   .text.alcs_prefixkey_get:0000000000000108 .L0 
C:\Users\stapi\AppData\Local\Temp\cc63Vocw.s:2571   .text.alcs_prefixkey_get:0000000000000108 .L0 
C:\Users\stapi\AppData\Local\Temp\cc63Vocw.s:2572   .text.alcs_prefixkey_get:000000000000010a .L0 
C:\Users\stapi\AppData\Local\Temp\cc63Vocw.s:2579   .text.iotx_alcs_get_prefixkey:0000000000000000 iotx_alcs_get_prefixkey
C:\Users\stapi\AppData\Local\Temp\cc63Vocw.s:2582   .text.iotx_alcs_get_prefixkey:0000000000000000 .L0 
C:\Users\stapi\AppData\Local\Temp\cc63Vocw.s:2583   .text.iotx_alcs_get_prefixkey:0000000000000000 .L0 
C:\Users\stapi\AppData\Local\Temp\cc63Vocw.s:2584   .text.iotx_alcs_get_prefixkey:0000000000000000 .L0 
C:\Users\stapi\AppData\Local\Temp\cc63Vocw.s:2585   .text.iotx_alcs_get_prefixkey:0000000000000000 .L0 
C:\Users\stapi\AppData\Local\Temp\cc63Vocw.s:2589   .text.iotx_alcs_get_prefixkey:000000000000000a .L0 
C:\Users\stapi\AppData\Local\Temp\cc63Vocw.s:2590   .text.iotx_alcs_get_prefixkey:0000000000000012 .L0 
C:\Users\stapi\AppData\Local\Temp\cc63Vocw.s:2591   .text.iotx_alcs_get_prefixkey:0000000000000012 .L0 
C:\Users\stapi\AppData\Local\Temp\cc63Vocw.s:2592   .text.iotx_alcs_get_prefixkey:0000000000000012 .L0 
C:\Users\stapi\AppData\Local\Temp\cc63Vocw.s:2593   .text.iotx_alcs_get_prefixkey:0000000000000012 .L0 
C:\Users\stapi\AppData\Local\Temp\cc63Vocw.s:2594   .text.iotx_alcs_get_prefixkey:0000000000000012 .L0 
C:\Users\stapi\AppData\Local\Temp\cc63Vocw.s:2598   .text.iotx_alcs_get_prefixkey:0000000000000012 .L0 
C:\Users\stapi\AppData\Local\Temp\cc63Vocw.s:2599   .text.iotx_alcs_get_prefixkey:0000000000000012 .L0 
C:\Users\stapi\AppData\Local\Temp\cc63Vocw.s:2600   .text.iotx_alcs_get_prefixkey:0000000000000014 .L0 
C:\Users\stapi\AppData\Local\Temp\cc63Vocw.s:2603   .text.iotx_alcs_get_prefixkey:0000000000000014 .L0 
C:\Users\stapi\AppData\Local\Temp\cc63Vocw.s:2606   .text.iotx_alcs_get_prefixkey:000000000000001c .L0 
C:\Users\stapi\AppData\Local\Temp\cc63Vocw.s:2611   .text.iotx_alcs_get_prefixkey:0000000000000028 .L0 
C:\Users\stapi\AppData\Local\Temp\cc63Vocw.s:2615   .text.iotx_alcs_get_prefixkey:000000000000002c .L0 
C:\Users\stapi\AppData\Local\Temp\cc63Vocw.s:2617   .text.iotx_alcs_get_prefixkey:0000000000000030 .L0 
C:\Users\stapi\AppData\Local\Temp\cc63Vocw.s:2622   .text.iotx_alcs_get_prefixkey:000000000000003c .L0 
C:\Users\stapi\AppData\Local\Temp\cc63Vocw.s:2626   .text.iotx_alcs_get_prefixkey:0000000000000048 .L0 
C:\Users\stapi\AppData\Local\Temp\cc63Vocw.s:2633   .text.iotx_alcs_get_prefixkey:0000000000000056 .L0 
C:\Users\stapi\AppData\Local\Temp\cc63Vocw.s:2634   .text.iotx_alcs_get_prefixkey:0000000000000058 .L0 
C:\Users\stapi\AppData\Local\Temp\cc63Vocw.s:2635   .text.iotx_alcs_get_prefixkey:0000000000000058 .L0 
C:\Users\stapi\AppData\Local\Temp\cc63Vocw.s:2637   .text.iotx_alcs_get_prefixkey:0000000000000060 .L0 
C:\Users\stapi\AppData\Local\Temp\cc63Vocw.s:2638   .text.iotx_alcs_get_prefixkey:0000000000000060 .L0 
C:\Users\stapi\AppData\Local\Temp\cc63Vocw.s:2639   .text.iotx_alcs_get_prefixkey:0000000000000060 .L0 
C:\Users\stapi\AppData\Local\Temp\cc63Vocw.s:2640   .text.iotx_alcs_get_prefixkey:0000000000000060 .L0 
C:\Users\stapi\AppData\Local\Temp\cc63Vocw.s:2641   .text.iotx_alcs_get_prefixkey:0000000000000060 .L0 
C:\Users\stapi\AppData\Local\Temp\cc63Vocw.s:2643   .text.iotx_alcs_get_prefixkey:0000000000000060 .L0 
C:\Users\stapi\AppData\Local\Temp\cc63Vocw.s:2646   .text.iotx_alcs_get_prefixkey:0000000000000060 .L0 
C:\Users\stapi\AppData\Local\Temp\cc63Vocw.s:2653   .text.iotx_alcs_get_prefixkey:0000000000000074 .L0 
C:\Users\stapi\AppData\Local\Temp\cc63Vocw.s:2660   .text.iotx_alcs_get_prefixkey:0000000000000080 .L0 
C:\Users\stapi\AppData\Local\Temp\cc63Vocw.s:2661   .text.iotx_alcs_get_prefixkey:0000000000000080 .L0 
C:\Users\stapi\AppData\Local\Temp\cc63Vocw.s:2665   .text.iotx_alcs_get_prefixkey:0000000000000086 .L0 
C:\Users\stapi\AppData\Local\Temp\cc63Vocw.s:2672   .text.iotx_alcs_get_prefixkey:0000000000000094 .L0 
C:\Users\stapi\AppData\Local\Temp\cc63Vocw.s:2673   .text.iotx_alcs_get_prefixkey:0000000000000094 .L0 
C:\Users\stapi\AppData\Local\Temp\cc63Vocw.s:2677   .text.iotx_alcs_get_prefixkey:000000000000009e .L0 
C:\Users\stapi\AppData\Local\Temp\cc63Vocw.s:2681   .text.iotx_alcs_get_prefixkey:00000000000000a8 .L0 
C:\Users\stapi\AppData\Local\Temp\cc63Vocw.s:2685   .text.iotx_alcs_get_prefixkey:00000000000000b2 .L0 
C:\Users\stapi\AppData\Local\Temp\cc63Vocw.s:2690   .text.iotx_alcs_get_prefixkey:00000000000000be .L0 
C:\Users\stapi\AppData\Local\Temp\cc63Vocw.s:2691   .text.iotx_alcs_get_prefixkey:00000000000000be .L0 
C:\Users\stapi\AppData\Local\Temp\cc63Vocw.s:2696   .text.iotx_alcs_get_prefixkey:00000000000000c6 .L0 
C:\Users\stapi\AppData\Local\Temp\cc63Vocw.s:2699   .text.iotx_alcs_get_prefixkey:00000000000000c8 .L0 
C:\Users\stapi\AppData\Local\Temp\cc63Vocw.s:2700   .text.iotx_alcs_get_prefixkey:00000000000000c8 .L0 
C:\Users\stapi\AppData\Local\Temp\cc63Vocw.s:2701   .text.iotx_alcs_get_prefixkey:00000000000000c8 .L0 
C:\Users\stapi\AppData\Local\Temp\cc63Vocw.s:2702   .text.iotx_alcs_get_prefixkey:00000000000000c8 .L0 
C:\Users\stapi\AppData\Local\Temp\cc63Vocw.s:2703   .text.iotx_alcs_get_prefixkey:00000000000000c8 .L0 
C:\Users\stapi\AppData\Local\Temp\cc63Vocw.s:2705   .text.iotx_alcs_get_prefixkey:00000000000000ca .L0 
C:\Users\stapi\AppData\Local\Temp\cc63Vocw.s:2716   .text.alcs_mqtt_init:0000000000000000 alcs_mqtt_init
C:\Users\stapi\AppData\Local\Temp\cc63Vocw.s:2719   .text.alcs_mqtt_init:0000000000000000 .L0 
C:\Users\stapi\AppData\Local\Temp\cc63Vocw.s:2721   .text.alcs_mqtt_init:0000000000000000 .L0 
C:\Users\stapi\AppData\Local\Temp\cc63Vocw.s:2722   .text.alcs_mqtt_init:0000000000000008 .L0 
C:\Users\stapi\AppData\Local\Temp\cc63Vocw.s:2723   .text.alcs_mqtt_init:0000000000000008 .L0 
C:\Users\stapi\AppData\Local\Temp\cc63Vocw.s:2724   .text.alcs_mqtt_init:0000000000000008 .L0 
C:\Users\stapi\AppData\Local\Temp\cc63Vocw.s:2725   .text.alcs_mqtt_init:0000000000000008 .L0 
C:\Users\stapi\AppData\Local\Temp\cc63Vocw.s:2726   .text.alcs_mqtt_init:0000000000000008 .L0 
C:\Users\stapi\AppData\Local\Temp\cc63Vocw.s:2727   .text.alcs_mqtt_init:0000000000000008 .L0 
C:\Users\stapi\AppData\Local\Temp\cc63Vocw.s:2728   .text.alcs_mqtt_init:0000000000000008 .L0 
C:\Users\stapi\AppData\Local\Temp\cc63Vocw.s:2729   .text.alcs_mqtt_init:0000000000000008 .L0 
C:\Users\stapi\AppData\Local\Temp\cc63Vocw.s:2731   .text.alcs_mqtt_init:0000000000000008 .L0 
C:\Users\stapi\AppData\Local\Temp\cc63Vocw.s:2732   .text.alcs_mqtt_init:0000000000000008 .L0 
C:\Users\stapi\AppData\Local\Temp\cc63Vocw.s:2733   .text.alcs_mqtt_init:000000000000000a .L0 
C:\Users\stapi\AppData\Local\Temp\cc63Vocw.s:2735   .text.alcs_mqtt_init:000000000000000a .L0 
C:\Users\stapi\AppData\Local\Temp\cc63Vocw.s:2739   .text.alcs_mqtt_init:0000000000000010 .L0 
C:\Users\stapi\AppData\Local\Temp\cc63Vocw.s:2747   .text.alcs_mqtt_init:000000000000001a .L0 
C:\Users\stapi\AppData\Local\Temp\cc63Vocw.s:2749   .text.alcs_mqtt_init:000000000000001c .L0 
C:\Users\stapi\AppData\Local\Temp\cc63Vocw.s:2752   .text.alcs_mqtt_init:0000000000000024 .L0 
C:\Users\stapi\AppData\Local\Temp\cc63Vocw.s:2753   .text.alcs_mqtt_init:0000000000000024 .L0 
C:\Users\stapi\AppData\Local\Temp\cc63Vocw.s:2754   .text.alcs_mqtt_init:0000000000000024 .L0 
C:\Users\stapi\AppData\Local\Temp\cc63Vocw.s:2755   .text.alcs_mqtt_init:0000000000000024 .L0 
C:\Users\stapi\AppData\Local\Temp\cc63Vocw.s:2756   .text.alcs_mqtt_init:0000000000000024 .L0 
C:\Users\stapi\AppData\Local\Temp\cc63Vocw.s:2758   .text.alcs_mqtt_init:0000000000000028 .L0 
C:\Users\stapi\AppData\Local\Temp\cc63Vocw.s:2760   .text.alcs_mqtt_init:000000000000002c .L0 
C:\Users\stapi\AppData\Local\Temp\cc63Vocw.s:2764   .text.alcs_mqtt_init:0000000000000036 .L0 
C:\Users\stapi\AppData\Local\Temp\cc63Vocw.s:2767   .text.alcs_mqtt_init:000000000000003c .L0 
C:\Users\stapi\AppData\Local\Temp\cc63Vocw.s:2769   .text.alcs_mqtt_init:0000000000000040 .L0 
C:\Users\stapi\AppData\Local\Temp\cc63Vocw.s:2773   .text.alcs_mqtt_init:000000000000004a .L0 
C:\Users\stapi\AppData\Local\Temp\cc63Vocw.s:2776   .text.alcs_mqtt_init:0000000000000052 .L0 
C:\Users\stapi\AppData\Local\Temp\cc63Vocw.s:2785   .text.alcs_mqtt_init:000000000000006e .L0 
C:\Users\stapi\AppData\Local\Temp\cc63Vocw.s:2786   .text.alcs_mqtt_init:000000000000006e .L0 
C:\Users\stapi\AppData\Local\Temp\cc63Vocw.s:2788   .text.alcs_mqtt_init:0000000000000070 .L0 
C:\Users\stapi\AppData\Local\Temp\cc63Vocw.s:2790   .text.alcs_mqtt_init:0000000000000074 .L0 
C:\Users\stapi\AppData\Local\Temp\cc63Vocw.s:2798   .text.alcs_mqtt_init:000000000000008a .L0 
C:\Users\stapi\AppData\Local\Temp\cc63Vocw.s:2808   .text.alcs_mqtt_init:00000000000000a4 .L0 
C:\Users\stapi\AppData\Local\Temp\cc63Vocw.s:2814   .text.alcs_mqtt_init:00000000000000b4 .L0 
C:\Users\stapi\AppData\Local\Temp\cc63Vocw.s:2823   .text.alcs_mqtt_init:00000000000000ce .L0 
C:\Users\stapi\AppData\Local\Temp\cc63Vocw.s:2824   .text.alcs_mqtt_init:00000000000000ce .L0 
C:\Users\stapi\AppData\Local\Temp\cc63Vocw.s:2836   .text.alcs_mqtt_init:00000000000000ee .L0 
C:\Users\stapi\AppData\Local\Temp\cc63Vocw.s:2838   .text.alcs_mqtt_init:00000000000000f0 .L0 
C:\Users\stapi\AppData\Local\Temp\cc63Vocw.s:2839   .text.alcs_mqtt_init:00000000000000f0 .L0 
C:\Users\stapi\AppData\Local\Temp\cc63Vocw.s:2844   .text.alcs_mqtt_init:0000000000000100 .L0 
C:\Users\stapi\AppData\Local\Temp\cc63Vocw.s:2850   .text.alcs_mqtt_init:0000000000000112 .L0 
C:\Users\stapi\AppData\Local\Temp\cc63Vocw.s:2855   .text.alcs_mqtt_init:0000000000000122 .L0 
C:\Users\stapi\AppData\Local\Temp\cc63Vocw.s:2856   .text.alcs_mqtt_init:0000000000000122 .L0 
C:\Users\stapi\AppData\Local\Temp\cc63Vocw.s:2857   .text.alcs_mqtt_init:0000000000000122 .L0 
C:\Users\stapi\AppData\Local\Temp\cc63Vocw.s:2861   .text.alcs_mqtt_init:0000000000000124 .L0 
C:\Users\stapi\AppData\Local\Temp\cc63Vocw.s:2867   .text.alcs_mqtt_init:0000000000000134 .L0 
C:\Users\stapi\AppData\Local\Temp\cc63Vocw.s:2876   .text.alcs_mqtt_init:000000000000014e .L0 
C:\Users\stapi\AppData\Local\Temp\cc63Vocw.s:2877   .text.alcs_mqtt_init:000000000000014e .L0 
C:\Users\stapi\AppData\Local\Temp\cc63Vocw.s:2881   .text.alcs_mqtt_init:0000000000000158 .L0 
C:\Users\stapi\AppData\Local\Temp\cc63Vocw.s:2883   .text.alcs_mqtt_init:000000000000015a .L0 
C:\Users\stapi\AppData\Local\Temp\cc63Vocw.s:2884   .text.alcs_mqtt_init:000000000000015a .L0 
C:\Users\stapi\AppData\Local\Temp\cc63Vocw.s:2889   .text.alcs_mqtt_init:000000000000016a .L0 
C:\Users\stapi\AppData\Local\Temp\cc63Vocw.s:2895   .text.alcs_mqtt_init:000000000000017c .L0 
C:\Users\stapi\AppData\Local\Temp\cc63Vocw.s:2900   .text.alcs_mqtt_init:000000000000018c .L0 
C:\Users\stapi\AppData\Local\Temp\cc63Vocw.s:2901   .text.alcs_mqtt_init:000000000000018c .L0 
C:\Users\stapi\AppData\Local\Temp\cc63Vocw.s:2902   .text.alcs_mqtt_init:000000000000018c .L0 
C:\Users\stapi\AppData\Local\Temp\cc63Vocw.s:2906   .text.alcs_mqtt_init:000000000000018e .L0 
C:\Users\stapi\AppData\Local\Temp\cc63Vocw.s:2912   .text.alcs_mqtt_init:000000000000019e .L0 
C:\Users\stapi\AppData\Local\Temp\cc63Vocw.s:2921   .text.alcs_mqtt_init:00000000000001b8 .L0 
C:\Users\stapi\AppData\Local\Temp\cc63Vocw.s:2922   .text.alcs_mqtt_init:00000000000001b8 .L0 
C:\Users\stapi\AppData\Local\Temp\cc63Vocw.s:2926   .text.alcs_mqtt_init:00000000000001c2 .L0 
C:\Users\stapi\AppData\Local\Temp\cc63Vocw.s:2928   .text.alcs_mqtt_init:00000000000001c4 .L0 
C:\Users\stapi\AppData\Local\Temp\cc63Vocw.s:2929   .text.alcs_mqtt_init:00000000000001c4 .L0 
C:\Users\stapi\AppData\Local\Temp\cc63Vocw.s:2934   .text.alcs_mqtt_init:00000000000001d4 .L0 
C:\Users\stapi\AppData\Local\Temp\cc63Vocw.s:2940   .text.alcs_mqtt_init:00000000000001e6 .L0 
C:\Users\stapi\AppData\Local\Temp\cc63Vocw.s:2945   .text.alcs_mqtt_init:00000000000001f6 .L0 
C:\Users\stapi\AppData\Local\Temp\cc63Vocw.s:2946   .text.alcs_mqtt_init:00000000000001f6 .L0 
C:\Users\stapi\AppData\Local\Temp\cc63Vocw.s:2947   .text.alcs_mqtt_init:00000000000001f6 .L0 
C:\Users\stapi\AppData\Local\Temp\cc63Vocw.s:2951   .text.alcs_mqtt_init:00000000000001f8 .L0 
C:\Users\stapi\AppData\Local\Temp\cc63Vocw.s:2955   .text.alcs_mqtt_init:0000000000000204 .L0 
C:\Users\stapi\AppData\Local\Temp\cc63Vocw.s:2959   .text.alcs_mqtt_init:0000000000000210 .L0 
C:\Users\stapi\AppData\Local\Temp\cc63Vocw.s:2965   .text.alcs_mqtt_init:000000000000021c .L0 
C:\Users\stapi\AppData\Local\Temp\cc63Vocw.s:2966   .text.alcs_mqtt_init:000000000000021c .L0 
C:\Users\stapi\AppData\Local\Temp\cc63Vocw.s:2968   .text.alcs_mqtt_init:0000000000000220 .L0 
C:\Users\stapi\AppData\Local\Temp\cc63Vocw.s:2970   .text.alcs_mqtt_init:0000000000000228 .L0 
C:\Users\stapi\AppData\Local\Temp\cc63Vocw.s:2971   .text.alcs_mqtt_init:0000000000000228 .L0 
C:\Users\stapi\AppData\Local\Temp\cc63Vocw.s:2972   .text.alcs_mqtt_init:0000000000000228 .L0 
C:\Users\stapi\AppData\Local\Temp\cc63Vocw.s:2973   .text.alcs_mqtt_init:0000000000000228 .L0 
C:\Users\stapi\AppData\Local\Temp\cc63Vocw.s:2974   .text.alcs_mqtt_init:0000000000000228 .L0 
C:\Users\stapi\AppData\Local\Temp\cc63Vocw.s:2975   .text.alcs_mqtt_init:0000000000000228 .L0 
C:\Users\stapi\AppData\Local\Temp\cc63Vocw.s:2976   .text.alcs_mqtt_init:0000000000000228 .L0 
C:\Users\stapi\AppData\Local\Temp\cc63Vocw.s:2977   .text.alcs_mqtt_init:0000000000000228 .L0 
C:\Users\stapi\AppData\Local\Temp\cc63Vocw.s:2978   .text.alcs_mqtt_init:0000000000000228 .L0 
C:\Users\stapi\AppData\Local\Temp\cc63Vocw.s:2992   .text.alcs_mqtt_subdev_prefix_get:0000000000000000 alcs_mqtt_subdev_prefix_get
C:\Users\stapi\AppData\Local\Temp\cc63Vocw.s:2995   .text.alcs_mqtt_subdev_prefix_get:0000000000000000 .L0 
C:\Users\stapi\AppData\Local\Temp\cc63Vocw.s:2997   .text.alcs_mqtt_subdev_prefix_get:0000000000000000 .L0 
C:\Users\stapi\AppData\Local\Temp\cc63Vocw.s:2998   .text.alcs_mqtt_subdev_prefix_get:0000000000000008 .L0 
C:\Users\stapi\AppData\Local\Temp\cc63Vocw.s:2999   .text.alcs_mqtt_subdev_prefix_get:0000000000000008 .L0 
C:\Users\stapi\AppData\Local\Temp\cc63Vocw.s:3000   .text.alcs_mqtt_subdev_prefix_get:0000000000000008 .L0 
C:\Users\stapi\AppData\Local\Temp\cc63Vocw.s:3001   .text.alcs_mqtt_subdev_prefix_get:0000000000000008 .L0 
C:\Users\stapi\AppData\Local\Temp\cc63Vocw.s:3002   .text.alcs_mqtt_subdev_prefix_get:0000000000000008 .L0 
C:\Users\stapi\AppData\Local\Temp\cc63Vocw.s:3003   .text.alcs_mqtt_subdev_prefix_get:0000000000000008 .L0 
C:\Users\stapi\AppData\Local\Temp\cc63Vocw.s:3004   .text.alcs_mqtt_subdev_prefix_get:0000000000000008 .L0 
C:\Users\stapi\AppData\Local\Temp\cc63Vocw.s:3005   .text.alcs_mqtt_subdev_prefix_get:0000000000000008 .L0 
C:\Users\stapi\AppData\Local\Temp\cc63Vocw.s:3008   .text.alcs_mqtt_subdev_prefix_get:0000000000000008 .L0 
C:\Users\stapi\AppData\Local\Temp\cc63Vocw.s:3009   .text.alcs_mqtt_subdev_prefix_get:0000000000000008 .L0 
C:\Users\stapi\AppData\Local\Temp\cc63Vocw.s:3010   .text.alcs_mqtt_subdev_prefix_get:0000000000000008 .L0 
C:\Users\stapi\AppData\Local\Temp\cc63Vocw.s:3011   .text.alcs_mqtt_subdev_prefix_get:0000000000000008 .L0 
C:\Users\stapi\AppData\Local\Temp\cc63Vocw.s:3012   .text.alcs_mqtt_subdev_prefix_get:000000000000000a .L0 
C:\Users\stapi\AppData\Local\Temp\cc63Vocw.s:3014   .text.alcs_mqtt_subdev_prefix_get:000000000000000a .L0 
C:\Users\stapi\AppData\Local\Temp\cc63Vocw.s:3017   .text.alcs_mqtt_subdev_prefix_get:0000000000000012 .L0 
C:\Users\stapi\AppData\Local\Temp\cc63Vocw.s:3020   .text.alcs_mqtt_subdev_prefix_get:0000000000000016 .L0 
C:\Users\stapi\AppData\Local\Temp\cc63Vocw.s:3029   .text.alcs_mqtt_subdev_prefix_get:0000000000000028 .L0 
C:\Users\stapi\AppData\Local\Temp\cc63Vocw.s:3030   .text.alcs_mqtt_subdev_prefix_get:0000000000000028 .L0 
C:\Users\stapi\AppData\Local\Temp\cc63Vocw.s:3031   .text.alcs_mqtt_subdev_prefix_get:0000000000000028 .L0 
C:\Users\stapi\AppData\Local\Temp\cc63Vocw.s:3032   .text.alcs_mqtt_subdev_prefix_get:0000000000000028 .L0 
C:\Users\stapi\AppData\Local\Temp\cc63Vocw.s:3033   .text.alcs_mqtt_subdev_prefix_get:0000000000000028 .L0 
C:\Users\stapi\AppData\Local\Temp\cc63Vocw.s:3035   .text.alcs_mqtt_subdev_prefix_get:000000000000002c .L0 
C:\Users\stapi\AppData\Local\Temp\cc63Vocw.s:3039   .text.alcs_mqtt_subdev_prefix_get:0000000000000032 .L0 
C:\Users\stapi\AppData\Local\Temp\cc63Vocw.s:3040   .text.alcs_mqtt_subdev_prefix_get:0000000000000032 .L0 
C:\Users\stapi\AppData\Local\Temp\cc63Vocw.s:3044   .text.alcs_mqtt_subdev_prefix_get:0000000000000036 .L0 
C:\Users\stapi\AppData\Local\Temp\cc63Vocw.s:3048   .text.alcs_mqtt_subdev_prefix_get:0000000000000038 .L0 
C:\Users\stapi\AppData\Local\Temp\cc63Vocw.s:3050   .text.alcs_mqtt_subdev_prefix_get:000000000000003c .L0 
C:\Users\stapi\AppData\Local\Temp\cc63Vocw.s:3051   .text.alcs_mqtt_subdev_prefix_get:000000000000003c .L0 
C:\Users\stapi\AppData\Local\Temp\cc63Vocw.s:3053   .text.alcs_mqtt_subdev_prefix_get:0000000000000044 .L0 
C:\Users\stapi\AppData\Local\Temp\cc63Vocw.s:3054   .text.alcs_mqtt_subdev_prefix_get:0000000000000044 .L0 
C:\Users\stapi\AppData\Local\Temp\cc63Vocw.s:3055   .text.alcs_mqtt_subdev_prefix_get:0000000000000044 .L0 
C:\Users\stapi\AppData\Local\Temp\cc63Vocw.s:3056   .text.alcs_mqtt_subdev_prefix_get:0000000000000044 .L0 
C:\Users\stapi\AppData\Local\Temp\cc63Vocw.s:3057   .text.alcs_mqtt_subdev_prefix_get:0000000000000044 .L0 
C:\Users\stapi\AppData\Local\Temp\cc63Vocw.s:3058   .text.alcs_mqtt_subdev_prefix_get:0000000000000044 .L0 
C:\Users\stapi\AppData\Local\Temp\cc63Vocw.s:3059   .text.alcs_mqtt_subdev_prefix_get:0000000000000044 .L0 
C:\Users\stapi\AppData\Local\Temp\cc63Vocw.s:3060   .text.alcs_mqtt_subdev_prefix_get:0000000000000044 .L0 
C:\Users\stapi\AppData\Local\Temp\cc63Vocw.s:3063   .text.alcs_mqtt_subdev_prefix_get:0000000000000044 .L0 
C:\Users\stapi\AppData\Local\Temp\cc63Vocw.s:3065   .text.alcs_mqtt_subdev_prefix_get:0000000000000044 .L0 
C:\Users\stapi\AppData\Local\Temp\cc63Vocw.s:3069   .text.alcs_mqtt_subdev_prefix_get:000000000000004e .L0 
C:\Users\stapi\AppData\Local\Temp\cc63Vocw.s:3072   .text.alcs_mqtt_subdev_prefix_get:0000000000000054 .L0 
C:\Users\stapi\AppData\Local\Temp\cc63Vocw.s:3074   .text.alcs_mqtt_subdev_prefix_get:0000000000000058 .L0 
C:\Users\stapi\AppData\Local\Temp\cc63Vocw.s:3078   .text.alcs_mqtt_subdev_prefix_get:0000000000000062 .L0 
C:\Users\stapi\AppData\Local\Temp\cc63Vocw.s:3081   .text.alcs_mqtt_subdev_prefix_get:000000000000006a .L0 
C:\Users\stapi\AppData\Local\Temp\cc63Vocw.s:3082   .text.alcs_mqtt_subdev_prefix_get:000000000000006a .L0 
C:\Users\stapi\AppData\Local\Temp\cc63Vocw.s:3087   .text.alcs_mqtt_subdev_prefix_get:000000000000007a .L0 
C:\Users\stapi\AppData\Local\Temp\cc63Vocw.s:3094   .text.alcs_mqtt_subdev_prefix_get:000000000000008e .L0 
C:\Users\stapi\AppData\Local\Temp\cc63Vocw.s:3099   .text.alcs_mqtt_subdev_prefix_get:000000000000009e .L0 
C:\Users\stapi\AppData\Local\Temp\cc63Vocw.s:3100   .text.alcs_mqtt_subdev_prefix_get:000000000000009e .L0 
C:\Users\stapi\AppData\Local\Temp\cc63Vocw.s:3109   .text.alcs_mqtt_subdev_prefix_get:00000000000000bc .L0 
C:\Users\stapi\AppData\Local\Temp\cc63Vocw.s:3110   .text.alcs_mqtt_subdev_prefix_get:00000000000000bc .L0 
C:\Users\stapi\AppData\Local\Temp\cc63Vocw.s:3115   .text.alcs_mqtt_subdev_prefix_get:00000000000000c8 .L0 
C:\Users\stapi\AppData\Local\Temp\cc63Vocw.s:3119   .text.alcs_mqtt_subdev_prefix_get:00000000000000d2 .L0 
C:\Users\stapi\AppData\Local\Temp\cc63Vocw.s:3121   .text.alcs_mqtt_subdev_prefix_get:00000000000000d4 .L0 
C:\Users\stapi\AppData\Local\Temp\cc63Vocw.s:3123   .text.alcs_mqtt_subdev_prefix_get:00000000000000d8 .L0 
C:\Users\stapi\AppData\Local\Temp\cc63Vocw.s:3126   .text.alcs_mqtt_subdev_prefix_get:00000000000000dc .L0 
C:\Users\stapi\AppData\Local\Temp\cc63Vocw.s:3129   .text.alcs_mqtt_subdev_prefix_get:00000000000000e0 .L0 
C:\Users\stapi\AppData\Local\Temp\cc63Vocw.s:3130   .text.alcs_mqtt_subdev_prefix_get:00000000000000e0 .L0 
C:\Users\stapi\AppData\Local\Temp\cc63Vocw.s:3136   .text.alcs_mqtt_subdev_prefix_get:00000000000000ec .L0 
C:\Users\stapi\AppData\Local\Temp\cc63Vocw.s:3138   .text.alcs_mqtt_subdev_prefix_get:00000000000000ee .L0 
C:\Users\stapi\AppData\Local\Temp\cc63Vocw.s:3139   .text.alcs_mqtt_subdev_prefix_get:00000000000000ee .L0 
C:\Users\stapi\AppData\Local\Temp\cc63Vocw.s:3144   .text.alcs_mqtt_subdev_prefix_get:00000000000000fa .L0 
C:\Users\stapi\AppData\Local\Temp\cc63Vocw.s:3148   .text.alcs_mqtt_subdev_prefix_get:0000000000000104 .L0 
C:\Users\stapi\AppData\Local\Temp\cc63Vocw.s:3160   .text.alcs_mqtt_subdev_prefix_get:0000000000000122 .L0 
C:\Users\stapi\AppData\Local\Temp\cc63Vocw.s:3161   .text.alcs_mqtt_subdev_prefix_get:0000000000000122 .L0 
C:\Users\stapi\AppData\Local\Temp\cc63Vocw.s:3166   .text.alcs_mqtt_subdev_prefix_get:0000000000000132 .L0 
C:\Users\stapi\AppData\Local\Temp\cc63Vocw.s:3173   .text.alcs_mqtt_subdev_prefix_get:0000000000000146 .L0 
C:\Users\stapi\AppData\Local\Temp\cc63Vocw.s:3177   .text.alcs_mqtt_subdev_prefix_get:0000000000000152 .L0 
C:\Users\stapi\AppData\Local\Temp\cc63Vocw.s:3178   .text.alcs_mqtt_subdev_prefix_get:0000000000000152 .L0 
C:\Users\stapi\AppData\Local\Temp\cc63Vocw.s:3179   .text.alcs_mqtt_subdev_prefix_get:0000000000000152 .L0 
C:\Users\stapi\AppData\Local\Temp\cc63Vocw.s:3187   .text.alcs_mqtt_subdev_prefix_get:000000000000015e .L0 
C:\Users\stapi\AppData\Local\Temp\cc63Vocw.s:3188   .text.alcs_mqtt_subdev_prefix_get:000000000000015e .L0 
C:\Users\stapi\AppData\Local\Temp\cc63Vocw.s:3197   .text.alcs_mqtt_subdev_prefix_get:000000000000016e .L0 
C:\Users\stapi\AppData\Local\Temp\cc63Vocw.s:3202   .text.alcs_mqtt_subdev_prefix_get:0000000000000172 .L0 
C:\Users\stapi\AppData\Local\Temp\cc63Vocw.s:3206   .text.alcs_mqtt_subdev_prefix_get:000000000000017c .L0 
C:\Users\stapi\AppData\Local\Temp\cc63Vocw.s:3207   .text.alcs_mqtt_subdev_prefix_get:000000000000017c .L0 
C:\Users\stapi\AppData\Local\Temp\cc63Vocw.s:3208   .text.alcs_mqtt_subdev_prefix_get:000000000000017e .L0 
C:\Users\stapi\AppData\Local\Temp\cc63Vocw.s:3213   .bss.g_alcs_mqtt_ctx:0000000000000000 .LANCHOR0
C:\Users\stapi\AppData\Local\Temp\cc63Vocw.s:3216   .bss.g_alcs_mqtt_ctx:0000000000000000 g_alcs_mqtt_ctx
C:\Users\stapi\AppData\Local\Temp\cc63Vocw.s:3220   .sbss.b_prefixkey:0000000000000000 .LANCHOR1
C:\Users\stapi\AppData\Local\Temp\cc63Vocw.s:3223   .sbss.b_prefixkey:0000000000000000 b_prefixkey
C:\Users\stapi\AppData\Local\Temp\cc63Vocw.s:3227   .sbss.b_retry_ms:0000000000000000 .LANCHOR2
C:\Users\stapi\AppData\Local\Temp\cc63Vocw.s:3230   .sbss.b_retry_ms:0000000000000000 b_retry_ms
C:\Users\stapi\AppData\Local\Temp\cc63Vocw.s:81     .text.__alcs_mqtt_kv_del:0000000000000054 .L0 
C:\Users\stapi\AppData\Local\Temp\cc63Vocw.s:146    .text.__alcs_mqtt_kv_get:0000000000000054 .L0 
C:\Users\stapi\AppData\Local\Temp\cc63Vocw.s:180    .text.__alcs_mqtt_subscribe.constprop.0:0000000000000030 .L0 
C:\Users\stapi\AppData\Local\Temp\cc63Vocw.s:253    .text.__alcs_mqtt_kv_set.constprop.0:000000000000005a .L0 
C:\Users\stapi\AppData\Local\Temp\cc63Vocw.s:347    .text.__alcs_mqtt_send_response.constprop.0.isra.0:0000000000000074 .L0 
C:\Users\stapi\AppData\Local\Temp\cc63Vocw.s:658    .text.__alcs_mqtt_prefix_secret_save:0000000000000208 .L0 
C:\Users\stapi\AppData\Local\Temp\cc63Vocw.s:914    .text.alcs_mqtt_prefix_secret_load:00000000000001be .L0 
C:\Users\stapi\AppData\Local\Temp\cc63Vocw.s:1857   .text.__alcs_mqtt_subscribe_callback:00000000000005f8 .L0 
C:\Users\stapi\AppData\Local\Temp\cc63Vocw.s:2064   .text.alcs_mqtt_prefix_secret_del:000000000000016c .L0 
C:\Users\stapi\AppData\Local\Temp\cc63Vocw.s:2081   .text.alcs_mqtt_deinit:0000000000000004 .L0 
C:\Users\stapi\AppData\Local\Temp\cc63Vocw.s:2107   .text.alcs_mqtt_add_srv_key:0000000000000016 .L0 
C:\Users\stapi\AppData\Local\Temp\cc63Vocw.s:2130   .text.alcs_mqtt_remove_srv_key:0000000000000012 .L0 
C:\Users\stapi\AppData\Local\Temp\cc63Vocw.s:2234   .text.alcs_mqtt_blacklist_update:0000000000000094 .L0 
C:\Users\stapi\AppData\Local\Temp\cc63Vocw.s:2400   .text.alcs_mqtt_prefixkey_update:000000000000010e .L0 
C:\Users\stapi\AppData\Local\Temp\cc63Vocw.s:2575   .text.alcs_prefixkey_get:000000000000010a .L0 
C:\Users\stapi\AppData\Local\Temp\cc63Vocw.s:2708   .text.iotx_alcs_get_prefixkey:00000000000000ca .L0 
C:\Users\stapi\AppData\Local\Temp\cc63Vocw.s:2981   .text.alcs_mqtt_init:0000000000000228 .L0 
C:\Users\stapi\AppData\Local\Temp\cc63Vocw.s:3211   .text.alcs_mqtt_subdev_prefix_get:000000000000017e .L0 
                     .debug_frame:0000000000000000 .L0 
C:\Users\stapi\AppData\Local\Temp\cc63Vocw.s:11     .rodata.__alcs_mqtt_kv_del.str1.4:0000000000000000 .LC0
C:\Users\stapi\AppData\Local\Temp\cc63Vocw.s:14     .rodata.__alcs_mqtt_kv_del.str1.4:0000000000000008 .LC1
C:\Users\stapi\AppData\Local\Temp\cc63Vocw.s:17     .rodata.__alcs_mqtt_kv_del.str1.4:0000000000000020 .LC2
C:\Users\stapi\AppData\Local\Temp\cc63Vocw.s:73     .text.__alcs_mqtt_kv_del:0000000000000050 .L3
C:\Users\stapi\AppData\Local\Temp\cc63Vocw.s:64     .text.__alcs_mqtt_kv_del:0000000000000048 .L1
C:\Users\stapi\AppData\Local\Temp\cc63Vocw.s:83     .rodata.__alcs_mqtt_kv_get.str1.4:0000000000000000 .LC3
C:\Users\stapi\AppData\Local\Temp\cc63Vocw.s:138    .text.__alcs_mqtt_kv_get:0000000000000050 .L7
C:\Users\stapi\AppData\Local\Temp\cc63Vocw.s:129    .text.__alcs_mqtt_kv_get:0000000000000048 .L5
C:\Users\stapi\AppData\Local\Temp\cc63Vocw.s:182    .rodata.__alcs_mqtt_kv_set.constprop.0.str1.4:0000000000000000 .LC4
C:\Users\stapi\AppData\Local\Temp\cc63Vocw.s:245    .text.__alcs_mqtt_kv_set.constprop.0:0000000000000056 .L13
C:\Users\stapi\AppData\Local\Temp\cc63Vocw.s:235    .text.__alcs_mqtt_kv_set.constprop.0:000000000000004e .L11
C:\Users\stapi\AppData\Local\Temp\cc63Vocw.s:255    .rodata.__alcs_mqtt_send_response.constprop.0.isra.0.str1.4:0000000000000000 .LC5
C:\Users\stapi\AppData\Local\Temp\cc63Vocw.s:258    .rodata.__alcs_mqtt_send_response.constprop.0.isra.0.str1.4:0000000000000004 .LC6
C:\Users\stapi\AppData\Local\Temp\cc63Vocw.s:334    .text.__alcs_mqtt_send_response.constprop.0.isra.0:000000000000006a .L15
C:\Users\stapi\AppData\Local\Temp\cc63Vocw.s:349    .rodata.__alcs_mqtt_prefix_secret_save.str1.4:0000000000000000 .LC7
C:\Users\stapi\AppData\Local\Temp\cc63Vocw.s:352    .rodata.__alcs_mqtt_prefix_secret_save.str1.4:0000000000000008 .LC8
C:\Users\stapi\AppData\Local\Temp\cc63Vocw.s:355    .rodata.__alcs_mqtt_prefix_secret_save.str1.4:000000000000001c .LC9
C:\Users\stapi\AppData\Local\Temp\cc63Vocw.s:358    .rodata.__alcs_mqtt_prefix_secret_save.str1.4:0000000000000030 .LC10
C:\Users\stapi\AppData\Local\Temp\cc63Vocw.s:361    .rodata.__alcs_mqtt_prefix_secret_save.str1.4:000000000000003c .LC11
C:\Users\stapi\AppData\Local\Temp\cc63Vocw.s:364    .rodata.__alcs_mqtt_prefix_secret_save.str1.4:0000000000000048 .LC12
C:\Users\stapi\AppData\Local\Temp\cc63Vocw.s:437    .text.__alcs_mqtt_prefix_secret_save:0000000000000050 .L22
C:\Users\stapi\AppData\Local\Temp\cc63Vocw.s:483    .text.__alcs_mqtt_prefix_secret_save:000000000000008e .L23
C:\Users\stapi\AppData\Local\Temp\cc63Vocw.s:509    .text.__alcs_mqtt_prefix_secret_save:00000000000000c0 .L25
C:\Users\stapi\AppData\Local\Temp\cc63Vocw.s:448    .text.__alcs_mqtt_prefix_secret_save:0000000000000068 .L40
C:\Users\stapi\AppData\Local\Temp\cc63Vocw.s:581    .text.__alcs_mqtt_prefix_secret_save:0000000000000162 .L26
C:\Users\stapi\AppData\Local\Temp\cc63Vocw.s:459    .text.__alcs_mqtt_prefix_secret_save:0000000000000080 .L39
C:\Users\stapi\AppData\Local\Temp\cc63Vocw.s:643    .text.__alcs_mqtt_prefix_secret_save:00000000000001f2 .L27
C:\Users\stapi\AppData\Local\Temp\cc63Vocw.s:576    .text.__alcs_mqtt_prefix_secret_save:0000000000000158 .L38
C:\Users\stapi\AppData\Local\Temp\cc63Vocw.s:463    .text.__alcs_mqtt_prefix_secret_save:0000000000000082 .L21
C:\Users\stapi\AppData\Local\Temp\cc63Vocw.s:660    .rodata.alcs_mqtt_prefix_secret_load.str1.4:0000000000000000 .LC13
C:\Users\stapi\AppData\Local\Temp\cc63Vocw.s:748    .text.alcs_mqtt_prefix_secret_load:0000000000000078 .L42
C:\Users\stapi\AppData\Local\Temp\cc63Vocw.s:793    .text.alcs_mqtt_prefix_secret_load:00000000000000b6 .L43
C:\Users\stapi\AppData\Local\Temp\cc63Vocw.s:819    .text.alcs_mqtt_prefix_secret_load:00000000000000e8 .L45
C:\Users\stapi\AppData\Local\Temp\cc63Vocw.s:759    .text.alcs_mqtt_prefix_secret_load:0000000000000090 .L58
C:\Users\stapi\AppData\Local\Temp\cc63Vocw.s:883    .text.alcs_mqtt_prefix_secret_load:0000000000000188 .L46
C:\Users\stapi\AppData\Local\Temp\cc63Vocw.s:770    .text.alcs_mqtt_prefix_secret_load:00000000000000a8 .L57
C:\Users\stapi\AppData\Local\Temp\cc63Vocw.s:775    .text.alcs_mqtt_prefix_secret_load:00000000000000aa .L41
C:\Users\stapi\AppData\Local\Temp\cc63Vocw.s:916    .rodata.__alcs_mqtt_subscribe_callback.str1.4:0000000000000000 .LC14
C:\Users\stapi\AppData\Local\Temp\cc63Vocw.s:919    .rodata.__alcs_mqtt_subscribe_callback.str1.4:0000000000000028 .LC15
C:\Users\stapi\AppData\Local\Temp\cc63Vocw.s:922    .rodata.__alcs_mqtt_subscribe_callback.str1.4:0000000000000048 .LC16
C:\Users\stapi\AppData\Local\Temp\cc63Vocw.s:925    .rodata.__alcs_mqtt_subscribe_callback.str1.4:0000000000000050 .LC17
C:\Users\stapi\AppData\Local\Temp\cc63Vocw.s:928    .rodata.__alcs_mqtt_subscribe_callback.str1.4:0000000000000058 .LC18
C:\Users\stapi\AppData\Local\Temp\cc63Vocw.s:931    .rodata.__alcs_mqtt_subscribe_callback.str1.4:0000000000000068 .LC19
C:\Users\stapi\AppData\Local\Temp\cc63Vocw.s:934    .rodata.__alcs_mqtt_subscribe_callback.str1.4:0000000000000074 .LC20
C:\Users\stapi\AppData\Local\Temp\cc63Vocw.s:937    .rodata.__alcs_mqtt_subscribe_callback.str1.4:0000000000000080 .LC21
C:\Users\stapi\AppData\Local\Temp\cc63Vocw.s:940    .rodata.__alcs_mqtt_subscribe_callback.str1.4:00000000000000c4 .LC22
C:\Users\stapi\AppData\Local\Temp\cc63Vocw.s:943    .rodata.__alcs_mqtt_subscribe_callback.str1.4:00000000000000e8 .LC23
C:\Users\stapi\AppData\Local\Temp\cc63Vocw.s:946    .rodata.__alcs_mqtt_subscribe_callback.str1.4:00000000000000ec .LC24
C:\Users\stapi\AppData\Local\Temp\cc63Vocw.s:949    .rodata.__alcs_mqtt_subscribe_callback.str1.4:00000000000000f4 .LC25
C:\Users\stapi\AppData\Local\Temp\cc63Vocw.s:961    .rodata.__alcs_mqtt_subscribe_callback.str1.4:0000000000000164 .LC29
C:\Users\stapi\AppData\Local\Temp\cc63Vocw.s:952    .rodata.__alcs_mqtt_subscribe_callback.str1.4:0000000000000104 .LC26
C:\Users\stapi\AppData\Local\Temp\cc63Vocw.s:955    .rodata.__alcs_mqtt_subscribe_callback.str1.4:0000000000000118 .LC27
C:\Users\stapi\AppData\Local\Temp\cc63Vocw.s:958    .rodata.__alcs_mqtt_subscribe_callback.str1.4:000000000000013c .LC28
C:\Users\stapi\AppData\Local\Temp\cc63Vocw.s:964    .rodata.__alcs_mqtt_subscribe_callback.str1.4:0000000000000190 .LC30
C:\Users\stapi\AppData\Local\Temp\cc63Vocw.s:967    .rodata.__alcs_mqtt_subscribe_callback.str1.4:00000000000001b8 .LC31
C:\Users\stapi\AppData\Local\Temp\cc63Vocw.s:970    .rodata.__alcs_mqtt_subscribe_callback.str1.4:00000000000001c4 .LC32
C:\Users\stapi\AppData\Local\Temp\cc63Vocw.s:973    .rodata.__alcs_mqtt_subscribe_callback.str1.4:00000000000001e4 .LC33
C:\Users\stapi\AppData\Local\Temp\cc63Vocw.s:1297   .text.__alcs_mqtt_subscribe_callback:0000000000000216 .L59
C:\Users\stapi\AppData\Local\Temp\cc63Vocw.s:1358   .text.__alcs_mqtt_subscribe_callback:0000000000000264 .L61
C:\Users\stapi\AppData\Local\Temp\cc63Vocw.s:1317   .text.__alcs_mqtt_subscribe_callback:0000000000000220 .L62
C:\Users\stapi\AppData\Local\Temp\cc63Vocw.s:1680   .text.__alcs_mqtt_subscribe_callback:00000000000004b2 .L66
C:\Users\stapi\AppData\Local\Temp\cc63Vocw.s:1426   .text.__alcs_mqtt_subscribe_callback:00000000000002e0 .L67
C:\Users\stapi\AppData\Local\Temp\cc63Vocw.s:1666   .text.__alcs_mqtt_subscribe_callback:0000000000000498 .L69
C:\Users\stapi\AppData\Local\Temp\cc63Vocw.s:1653   .text.__alcs_mqtt_subscribe_callback:000000000000047e .L70
C:\Users\stapi\AppData\Local\Temp\cc63Vocw.s:1636   .text.__alcs_mqtt_subscribe_callback:0000000000000464 .L71
C:\Users\stapi\AppData\Local\Temp\cc63Vocw.s:1589   .text.__alcs_mqtt_subscribe_callback:000000000000040a .L158
C:\Users\stapi\AppData\Local\Temp\cc63Vocw.s:1748   .text.__alcs_mqtt_subscribe_callback:000000000000052e .L75
C:\Users\stapi\AppData\Local\Temp\cc63Vocw.s:1830   .text.__alcs_mqtt_subscribe_callback:00000000000005d2 .L76
C:\Users\stapi\AppData\Local\Temp\cc63Vocw.s:1813   .text.__alcs_mqtt_subscribe_callback:00000000000005b0 .L78
C:\Users\stapi\AppData\Local\Temp\cc63Vocw.s:1614   .text.__alcs_mqtt_subscribe_callback:000000000000043e .L159
C:\Users\stapi\AppData\Local\Temp\cc63Vocw.s:1923   .text.alcs_mqtt_prefix_secret_del:0000000000000054 .L161
C:\Users\stapi\AppData\Local\Temp\cc63Vocw.s:1965   .text.alcs_mqtt_prefix_secret_del:0000000000000092 .L162
C:\Users\stapi\AppData\Local\Temp\cc63Vocw.s:1991   .text.alcs_mqtt_prefix_secret_del:00000000000000c4 .L164
C:\Users\stapi\AppData\Local\Temp\cc63Vocw.s:1934   .text.alcs_mqtt_prefix_secret_del:000000000000006c .L174
C:\Users\stapi\AppData\Local\Temp\cc63Vocw.s:2053   .text.alcs_mqtt_prefix_secret_del:0000000000000160 .L165
C:\Users\stapi\AppData\Local\Temp\cc63Vocw.s:1945   .text.alcs_mqtt_prefix_secret_del:0000000000000084 .L173
C:\Users\stapi\AppData\Local\Temp\cc63Vocw.s:1949   .text.alcs_mqtt_prefix_secret_del:0000000000000086 .L160
C:\Users\stapi\AppData\Local\Temp\cc63Vocw.s:2132   .rodata.alcs_mqtt_blacklist_update.str1.4:0000000000000000 .LC34
C:\Users\stapi\AppData\Local\Temp\cc63Vocw.s:2187   .text.alcs_mqtt_blacklist_update:0000000000000042 .L180
C:\Users\stapi\AppData\Local\Temp\cc63Vocw.s:2198   .text.alcs_mqtt_blacklist_update:000000000000004e .L182
C:\Users\stapi\AppData\Local\Temp\cc63Vocw.s:2184   .text.alcs_mqtt_blacklist_update:0000000000000040 .L183
C:\Users\stapi\AppData\Local\Temp\cc63Vocw.s:2236   .rodata.alcs_mqtt_prefixkey_update.str1.4:0000000000000000 .LC35
C:\Users\stapi\AppData\Local\Temp\cc63Vocw.s:2239   .rodata.alcs_mqtt_prefixkey_update.str1.4:0000000000000020 .LC36
C:\Users\stapi\AppData\Local\Temp\cc63Vocw.s:2393   .text.alcs_mqtt_prefixkey_update:000000000000010a .L192
C:\Users\stapi\AppData\Local\Temp\cc63Vocw.s:2375   .text.alcs_mqtt_prefixkey_update:00000000000000e2 .L191
C:\Users\stapi\AppData\Local\Temp\cc63Vocw.s:2362   .text.alcs_mqtt_prefixkey_update:00000000000000d6 .L189
C:\Users\stapi\AppData\Local\Temp\cc63Vocw.s:2402   .rodata.alcs_prefixkey_get.str1.4:0000000000000000 .LC37
C:\Users\stapi\AppData\Local\Temp\cc63Vocw.s:2405   .rodata.alcs_prefixkey_get.str1.4:0000000000000020 .LC38
C:\Users\stapi\AppData\Local\Temp\cc63Vocw.s:2408   .rodata.alcs_prefixkey_get.str1.4:000000000000006c .LC39
C:\Users\stapi\AppData\Local\Temp\cc63Vocw.s:2477   .text.alcs_prefixkey_get:0000000000000042 .L195
C:\Users\stapi\AppData\Local\Temp\cc63Vocw.s:2460   .text.alcs_prefixkey_get:0000000000000034 .L197
C:\Users\stapi\AppData\Local\Temp\cc63Vocw.s:2464   .text.alcs_prefixkey_get:0000000000000036 .L194
C:\Users\stapi\AppData\Local\Temp\cc63Vocw.s:2698   .text.iotx_alcs_get_prefixkey:00000000000000c8 .L216
C:\Users\stapi\AppData\Local\Temp\cc63Vocw.s:2620   .text.iotx_alcs_get_prefixkey:000000000000003c .L214
C:\Users\stapi\AppData\Local\Temp\cc63Vocw.s:2642   .text.iotx_alcs_get_prefixkey:0000000000000060 .L208
C:\Users\stapi\AppData\Local\Temp\cc63Vocw.s:2657   .text.iotx_alcs_get_prefixkey:0000000000000080 .L210
C:\Users\stapi\AppData\Local\Temp\cc63Vocw.s:2630   .text.iotx_alcs_get_prefixkey:0000000000000056 .L205
C:\Users\stapi\AppData\Local\Temp\cc63Vocw.s:2710   .rodata.alcs_mqtt_init.str1.4:0000000000000000 .LC40
C:\Users\stapi\AppData\Local\Temp\cc63Vocw.s:2964   .text.alcs_mqtt_init:000000000000021c .L219
C:\Users\stapi\AppData\Local\Temp\cc63Vocw.s:2859   .text.alcs_mqtt_init:0000000000000124 .L221
C:\Users\stapi\AppData\Local\Temp\cc63Vocw.s:2904   .text.alcs_mqtt_init:000000000000018e .L222
C:\Users\stapi\AppData\Local\Temp\cc63Vocw.s:2949   .text.alcs_mqtt_init:00000000000001f8 .L223
C:\Users\stapi\AppData\Local\Temp\cc63Vocw.s:2983   .rodata.alcs_mqtt_subdev_prefix_get.str1.4:0000000000000000 .LC41
C:\Users\stapi\AppData\Local\Temp\cc63Vocw.s:2986   .rodata.alcs_mqtt_subdev_prefix_get.str1.4:000000000000001c .LC42
C:\Users\stapi\AppData\Local\Temp\cc63Vocw.s:3062   .text.alcs_mqtt_subdev_prefix_get:0000000000000044 .L240
C:\Users\stapi\AppData\Local\Temp\cc63Vocw.s:3042   .text.alcs_mqtt_subdev_prefix_get:0000000000000036 .L242
C:\Users\stapi\AppData\Local\Temp\cc63Vocw.s:3046   .text.alcs_mqtt_subdev_prefix_get:0000000000000038 .L239
C:\Users\stapi\AppData\Local\Temp\cc63Vocw.s:9553   .debug_abbrev:0000000000000000 .Ldebug_abbrev0
C:\Users\stapi\AppData\Local\Temp\cc63Vocw.s:12335  .debug_str:000000000000099a .LASF154
C:\Users\stapi\AppData\Local\Temp\cc63Vocw.s:12205  .debug_str:00000000000005a4 .LASF155
C:\Users\stapi\AppData\Local\Temp\cc63Vocw.s:12143  .debug_str:000000000000032b .LASF156
C:\Users\stapi\AppData\Local\Temp\cc63Vocw.s:11941  .debug_ranges:0000000000000000 .Ldebug_ranges0
C:\Users\stapi\AppData\Local\Temp\cc63Vocw.s:12031  .debug_line:0000000000000000 .Ldebug_line0
C:\Users\stapi\AppData\Local\Temp\cc63Vocw.s:12085  .debug_str:000000000000017d .LASF0
C:\Users\stapi\AppData\Local\Temp\cc63Vocw.s:12047  .debug_str:0000000000000062 .LASF3
C:\Users\stapi\AppData\Local\Temp\cc63Vocw.s:12239  .debug_str:0000000000000718 .LASF1
C:\Users\stapi\AppData\Local\Temp\cc63Vocw.s:12247  .debug_str:000000000000074c .LASF2
C:\Users\stapi\AppData\Local\Temp\cc63Vocw.s:12275  .debug_str:000000000000081b .LASF4
C:\Users\stapi\AppData\Local\Temp\cc63Vocw.s:12155  .debug_str:0000000000000415 .LASF5
C:\Users\stapi\AppData\Local\Temp\cc63Vocw.s:12095  .debug_str:00000000000001b6 .LASF6
C:\Users\stapi\AppData\Local\Temp\cc63Vocw.s:12125  .debug_str:00000000000002b4 .LASF7
C:\Users\stapi\AppData\Local\Temp\cc63Vocw.s:12139  .debug_str:0000000000000308 .LASF8
C:\Users\stapi\AppData\Local\Temp\cc63Vocw.s:12083  .debug_str:000000000000016f .LASF9
C:\Users\stapi\AppData\Local\Temp\cc63Vocw.s:12217  .debug_str:000000000000067a .LASF10
C:\Users\stapi\AppData\Local\Temp\cc63Vocw.s:12063  .debug_str:00000000000000c3 .LASF11
C:\Users\stapi\AppData\Local\Temp\cc63Vocw.s:12271  .debug_str:00000000000007fc .LASF12
C:\Users\stapi\AppData\Local\Temp\cc63Vocw.s:12269  .debug_str:00000000000007f7 .LASF13
C:\Users\stapi\AppData\Local\Temp\cc63Vocw.s:12317  .debug_str:000000000000092f .LASF14
C:\Users\stapi\AppData\Local\Temp\cc63Vocw.s:12105  .debug_str:000000000000020d .LASF15
C:\Users\stapi\AppData\Local\Temp\cc63Vocw.s:12265  .debug_str:00000000000007cd .LASF16
C:\Users\stapi\AppData\Local\Temp\cc63Vocw.s:12207  .debug_str:000000000000063b .LASF17
C:\Users\stapi\AppData\Local\Temp\cc63Vocw.s:12323  .debug_str:0000000000000947 .LASF18
C:\Users\stapi\AppData\Local\Temp\cc63Vocw.s:12325  .debug_str:0000000000000956 .LASF19
C:\Users\stapi\AppData\Local\Temp\cc63Vocw.s:12145  .debug_str:00000000000003bc .LASF20
C:\Users\stapi\AppData\Local\Temp\cc63Vocw.s:12123  .debug_str:000000000000029b .LASF21
C:\Users\stapi\AppData\Local\Temp\cc63Vocw.s:12107  .debug_str:0000000000000216 .LASF22
C:\Users\stapi\AppData\Local\Temp\cc63Vocw.s:12175  .debug_str:00000000000004b2 .LASF23
C:\Users\stapi\AppData\Local\Temp\cc63Vocw.s:12341  .debug_str:0000000000000a9d .LASF24
C:\Users\stapi\AppData\Local\Temp\cc63Vocw.s:12189  .debug_str:0000000000000535 .LASF25
C:\Users\stapi\AppData\Local\Temp\cc63Vocw.s:12267  .debug_str:00000000000007d6 .LASF26
C:\Users\stapi\AppData\Local\Temp\cc63Vocw.s:12345  .debug_str:0000000000000ac8 .LASF27
C:\Users\stapi\AppData\Local\Temp\cc63Vocw.s:12229  .debug_str:00000000000006c1 .LASF28
C:\Users\stapi\AppData\Local\Temp\cc63Vocw.s:12351  .debug_str:0000000000000b20 .LASF29
C:\Users\stapi\AppData\Local\Temp\cc63Vocw.s:12101  .debug_str:00000000000001cd .LASF30
C:\Users\stapi\AppData\Local\Temp\cc63Vocw.s:12103  .debug_str:00000000000001ed .LASF31
C:\Users\stapi\AppData\Local\Temp\cc63Vocw.s:12315  .debug_str:000000000000090f .LASF32
C:\Users\stapi\AppData\Local\Temp\cc63Vocw.s:12079  .debug_str:000000000000013e .LASF33
C:\Users\stapi\AppData\Local\Temp\cc63Vocw.s:12347  .debug_str:0000000000000ae6 .LASF34
C:\Users\stapi\AppData\Local\Temp\cc63Vocw.s:12159  .debug_str:0000000000000438 .LASF35
C:\Users\stapi\AppData\Local\Temp\cc63Vocw.s:12149  .debug_str:00000000000003e7 .LASF36
C:\Users\stapi\AppData\Local\Temp\cc63Vocw.s:12209  .debug_str:0000000000000644 .LASF37
C:\Users\stapi\AppData\Local\Temp\cc63Vocw.s:12059  .debug_str:00000000000000ab .LASF38
C:\Users\stapi\AppData\Local\Temp\cc63Vocw.s:12089  .debug_str:0000000000000192 .LASF39
C:\Users\stapi\AppData\Local\Temp\cc63Vocw.s:12295  .debug_str:00000000000008a0 .LASF40
C:\Users\stapi\AppData\Local\Temp\cc63Vocw.s:12277  .debug_str:0000000000000826 .LASF41
C:\Users\stapi\AppData\Local\Temp\cc63Vocw.s:12201  .debug_str:0000000000000596 .LASF42
C:\Users\stapi\AppData\Local\Temp\cc63Vocw.s:12049  .debug_str:000000000000006c .LASF43
C:\Users\stapi\AppData\Local\Temp\cc63Vocw.s:12319  .debug_str:0000000000000937 .LASF44
C:\Users\stapi\AppData\Local\Temp\cc63Vocw.s:12177  .debug_str:00000000000004cd .LASF45
C:\Users\stapi\AppData\Local\Temp\cc63Vocw.s:12261  .debug_str:00000000000007b3 .LASF46
C:\Users\stapi\AppData\Local\Temp\cc63Vocw.s:12197  .debug_str:0000000000000577 .LASF157
C:\Users\stapi\AppData\Local\Temp\cc63Vocw.s:12219  .debug_str:0000000000000685 .LASF47
C:\Users\stapi\AppData\Local\Temp\cc63Vocw.s:12195  .debug_str:000000000000056c .LASF48
C:\Users\stapi\AppData\Local\Temp\cc63Vocw.s:12233  .debug_str:0000000000000700 .LASF49
C:\Users\stapi\AppData\Local\Temp\cc63Vocw.s:12121  .debug_str:0000000000000282 .LASF50
C:\Users\stapi\AppData\Local\Temp\cc63Vocw.s:12135  .debug_str:00000000000002ea .LASF51
C:\Users\stapi\AppData\Local\Temp\cc63Vocw.s:12311  .debug_str:00000000000008f5 .LASF52
C:\Users\stapi\AppData\Local\Temp\cc63Vocw.s:12169  .debug_str:0000000000000485 .LASF53
C:\Users\stapi\AppData\Local\Temp\cc63Vocw.s:12051  .debug_str:0000000000000084 .LASF54
C:\Users\stapi\AppData\Local\Temp\cc63Vocw.s:12119  .debug_str:0000000000000276 .LASF55
C:\Users\stapi\AppData\Local\Temp\cc63Vocw.s:12057  .debug_str:00000000000000a3 .LASF56
C:\Users\stapi\AppData\Local\Temp\cc63Vocw.s:12039  .debug_str:000000000000002c .LASF57
C:\Users\stapi\AppData\Local\Temp\cc63Vocw.s:12157  .debug_str:0000000000000428 .LASF58
C:\Users\stapi\AppData\Local\Temp\cc63Vocw.s:12193  .debug_str:0000000000000560 .LASF59
C:\Users\stapi\AppData\Local\Temp\cc63Vocw.s:12329  .debug_str:0000000000000973 .LASF60
C:\Users\stapi\AppData\Local\Temp\cc63Vocw.s:12147  .debug_str:00000000000003cb .LASF65
C:\Users\stapi\AppData\Local\Temp\cc63Vocw.s:2993   .text.alcs_mqtt_subdev_prefix_get:0000000000000000 .LFB39
C:\Users\stapi\AppData\Local\Temp\cc63Vocw.s:3209   .text.alcs_mqtt_subdev_prefix_get:000000000000017e .LFE39
C:\Users\stapi\AppData\Local\Temp\cc63Vocw.s:10422  .debug_loc:0000000000000000 .LLST95
C:\Users\stapi\AppData\Local\Temp\cc63Vocw.s:10433  .debug_loc:000000000000001e .LLST96
C:\Users\stapi\AppData\Local\Temp\cc63Vocw.s:12211  .debug_str:000000000000064e .LASF61
C:\Users\stapi\AppData\Local\Temp\cc63Vocw.s:10444  .debug_loc:000000000000003c .LLST97
C:\Users\stapi\AppData\Local\Temp\cc63Vocw.s:12097  .debug_str:00000000000001bf .LASF62
C:\Users\stapi\AppData\Local\Temp\cc63Vocw.s:10461  .debug_loc:0000000000000067 .LLST98
C:\Users\stapi\AppData\Local\Temp\cc63Vocw.s:12099  .debug_str:00000000000001c7 .LASF63
C:\Users\stapi\AppData\Local\Temp\cc63Vocw.s:12313  .debug_str:0000000000000908 .LASF64
C:\Users\stapi\AppData\Local\Temp\cc63Vocw.s:10478  .debug_loc:0000000000000092 .LLST99
C:\Users\stapi\AppData\Local\Temp\cc63Vocw.s:3184   .text.alcs_mqtt_subdev_prefix_get:000000000000015e .LBB53
C:\Users\stapi\AppData\Local\Temp\cc63Vocw.s:3200   .text.alcs_mqtt_subdev_prefix_get:0000000000000172 .LBE53
C:\Users\stapi\AppData\Local\Temp\cc63Vocw.s:10495  .debug_loc:00000000000000bd .LLST100
C:\Users\stapi\AppData\Local\Temp\cc63Vocw.s:10506  .debug_loc:00000000000000db .LLST101
C:\Users\stapi\AppData\Local\Temp\cc63Vocw.s:10513  .debug_loc:00000000000000ee .LLST102
C:\Users\stapi\AppData\Local\Temp\cc63Vocw.s:10521  .debug_loc:0000000000000102 .LLST103
C:\Users\stapi\AppData\Local\Temp\cc63Vocw.s:3195   .text.alcs_mqtt_subdev_prefix_get:000000000000016e .LVL378
C:\Users\stapi\AppData\Local\Temp\cc63Vocw.s:3027   .text.alcs_mqtt_subdev_prefix_get:0000000000000028 .LVL352
C:\Users\stapi\AppData\Local\Temp\cc63Vocw.s:3067   .text.alcs_mqtt_subdev_prefix_get:000000000000004e .LVL357
C:\Users\stapi\AppData\Local\Temp\cc63Vocw.s:3076   .text.alcs_mqtt_subdev_prefix_get:0000000000000062 .LVL358
C:\Users\stapi\AppData\Local\Temp\cc63Vocw.s:3085   .text.alcs_mqtt_subdev_prefix_get:000000000000007a .LVL359
C:\Users\stapi\AppData\Local\Temp\cc63Vocw.s:3092   .text.alcs_mqtt_subdev_prefix_get:000000000000008e .LVL360
C:\Users\stapi\AppData\Local\Temp\cc63Vocw.s:3097   .text.alcs_mqtt_subdev_prefix_get:000000000000009e .LVL361
C:\Users\stapi\AppData\Local\Temp\cc63Vocw.s:3107   .text.alcs_mqtt_subdev_prefix_get:00000000000000bc .LVL362
C:\Users\stapi\AppData\Local\Temp\cc63Vocw.s:3112   .text.alcs_mqtt_subdev_prefix_get:00000000000000c6 .LVL363
C:\Users\stapi\AppData\Local\Temp\cc63Vocw.s:3117   .text.alcs_mqtt_subdev_prefix_get:00000000000000d2 .LVL364
C:\Users\stapi\AppData\Local\Temp\cc63Vocw.s:3132   .text.alcs_mqtt_subdev_prefix_get:00000000000000ea .LVL366
C:\Users\stapi\AppData\Local\Temp\cc63Vocw.s:3141   .text.alcs_mqtt_subdev_prefix_get:00000000000000f8 .LVL368
C:\Users\stapi\AppData\Local\Temp\cc63Vocw.s:3146   .text.alcs_mqtt_subdev_prefix_get:0000000000000104 .LVL369
C:\Users\stapi\AppData\Local\Temp\cc63Vocw.s:3158   .text.alcs_mqtt_subdev_prefix_get:0000000000000122 .LVL370
C:\Users\stapi\AppData\Local\Temp\cc63Vocw.s:3164   .text.alcs_mqtt_subdev_prefix_get:0000000000000132 .LVL371
C:\Users\stapi\AppData\Local\Temp\cc63Vocw.s:3171   .text.alcs_mqtt_subdev_prefix_get:0000000000000146 .LVL372
C:\Users\stapi\AppData\Local\Temp\cc63Vocw.s:3175   .text.alcs_mqtt_subdev_prefix_get:0000000000000152 .LVL373
C:\Users\stapi\AppData\Local\Temp\cc63Vocw.s:3181   .text.alcs_mqtt_subdev_prefix_get:000000000000015c .LVL374
C:\Users\stapi\AppData\Local\Temp\cc63Vocw.s:3204   .text.alcs_mqtt_subdev_prefix_get:000000000000017c .LVL380
C:\Users\stapi\AppData\Local\Temp\cc63Vocw.s:12127  .debug_str:00000000000002bf .LASF66
C:\Users\stapi\AppData\Local\Temp\cc63Vocw.s:2415   .text.alcs_prefixkey_get:0000000000000000 .LFB38
C:\Users\stapi\AppData\Local\Temp\cc63Vocw.s:2573   .text.alcs_prefixkey_get:000000000000010a .LFE38
C:\Users\stapi\AppData\Local\Temp\cc63Vocw.s:10540  .debug_loc:0000000000000131 .LLST81
C:\Users\stapi\AppData\Local\Temp\cc63Vocw.s:10569  .debug_loc:0000000000000176 .LLST82
C:\Users\stapi\AppData\Local\Temp\cc63Vocw.s:10598  .debug_loc:00000000000001bb .LLST83
C:\Users\stapi\AppData\Local\Temp\cc63Vocw.s:10615  .debug_loc:00000000000001e6 .LLST84
C:\Users\stapi\AppData\Local\Temp\cc63Vocw.s:10634  .debug_loc:0000000000000213 .LLST85
C:\Users\stapi\AppData\Local\Temp\cc63Vocw.s:2549   .text.alcs_prefixkey_get:00000000000000ea .LBB45
C:\Users\stapi\AppData\Local\Temp\cc63Vocw.s:2564   .text.alcs_prefixkey_get:00000000000000fe .LBE45
C:\Users\stapi\AppData\Local\Temp\cc63Vocw.s:10651  .debug_loc:000000000000023e .LLST86
C:\Users\stapi\AppData\Local\Temp\cc63Vocw.s:10662  .debug_loc:000000000000025c .LLST87
C:\Users\stapi\AppData\Local\Temp\cc63Vocw.s:10669  .debug_loc:000000000000026f .LLST88
C:\Users\stapi\AppData\Local\Temp\cc63Vocw.s:10677  .debug_loc:0000000000000283 .LLST89
C:\Users\stapi\AppData\Local\Temp\cc63Vocw.s:2559   .text.alcs_prefixkey_get:00000000000000fa .LVL300
C:\Users\stapi\AppData\Local\Temp\cc63Vocw.s:2443   .text.alcs_prefixkey_get:0000000000000020 .LVL283
C:\Users\stapi\AppData\Local\Temp\cc63Vocw.s:2482   .text.alcs_prefixkey_get:000000000000004c .LVL288
C:\Users\stapi\AppData\Local\Temp\cc63Vocw.s:2491   .text.alcs_prefixkey_get:000000000000005e .LVL289
C:\Users\stapi\AppData\Local\Temp\cc63Vocw.s:2503   .text.alcs_prefixkey_get:0000000000000080 .LVL290
C:\Users\stapi\AppData\Local\Temp\cc63Vocw.s:2511   .text.alcs_prefixkey_get:0000000000000090 .LVL291
C:\Users\stapi\AppData\Local\Temp\cc63Vocw.s:2522   .text.alcs_prefixkey_get:00000000000000aa .LVL293
C:\Users\stapi\AppData\Local\Temp\cc63Vocw.s:2528   .text.alcs_prefixkey_get:00000000000000ba .LVL294
C:\Users\stapi\AppData\Local\Temp\cc63Vocw.s:2535   .text.alcs_prefixkey_get:00000000000000ce .LVL295
C:\Users\stapi\AppData\Local\Temp\cc63Vocw.s:2540   .text.alcs_prefixkey_get:00000000000000de .LVL296
C:\Users\stapi\AppData\Local\Temp\cc63Vocw.s:2546   .text.alcs_prefixkey_get:00000000000000e8 .LVL297
C:\Users\stapi\AppData\Local\Temp\cc63Vocw.s:2568   .text.alcs_prefixkey_get:0000000000000108 .LVL302
C:\Users\stapi\AppData\Local\Temp\cc63Vocw.s:12287  .debug_str:000000000000085c .LASF67
C:\Users\stapi\AppData\Local\Temp\cc63Vocw.s:2246   .text.alcs_mqtt_prefixkey_update:0000000000000000 .LFB37
C:\Users\stapi\AppData\Local\Temp\cc63Vocw.s:2398   .text.alcs_mqtt_prefixkey_update:000000000000010e .LFE37
C:\Users\stapi\AppData\Local\Temp\cc63Vocw.s:10684  .debug_loc:0000000000000296 .LLST77
C:\Users\stapi\AppData\Local\Temp\cc63Vocw.s:12293  .debug_str:0000000000000898 .LASF68
C:\Users\stapi\AppData\Local\Temp\cc63Vocw.s:10695  .debug_loc:00000000000002b4 .LLST78
C:\Users\stapi\AppData\Local\Temp\cc63Vocw.s:12183  .debug_str:0000000000000511 .LASF69
C:\Users\stapi\AppData\Local\Temp\cc63Vocw.s:12187  .debug_str:000000000000052e .LASF70
C:\Users\stapi\AppData\Local\Temp\cc63Vocw.s:12299  .debug_str:00000000000008b4 .LASF71
C:\Users\stapi\AppData\Local\Temp\cc63Vocw.s:10706  .debug_loc:00000000000002d2 .LLST79
C:\Users\stapi\AppData\Local\Temp\cc63Vocw.s:12033  .debug_str:0000000000000000 .LASF72
C:\Users\stapi\AppData\Local\Temp\cc63Vocw.s:10718  .debug_loc:00000000000002f1 .LLST80
C:\Users\stapi\AppData\Local\Temp\cc63Vocw.s:2272   .text.alcs_mqtt_prefixkey_update:000000000000001e .LVL261
C:\Users\stapi\AppData\Local\Temp\cc63Vocw.s:2280   .text.alcs_mqtt_prefixkey_update:0000000000000030 .LVL262
C:\Users\stapi\AppData\Local\Temp\cc63Vocw.s:2297   .text.alcs_mqtt_prefixkey_update:000000000000004e .LVL263
C:\Users\stapi\AppData\Local\Temp\cc63Vocw.s:2307   .text.alcs_mqtt_prefixkey_update:0000000000000060 .LVL264
C:\Users\stapi\AppData\Local\Temp\cc63Vocw.s:2312   .text.alcs_mqtt_prefixkey_update:0000000000000070 .LVL265
C:\Users\stapi\AppData\Local\Temp\cc63Vocw.s:2317   .text.alcs_mqtt_prefixkey_update:0000000000000080 .LVL266
C:\Users\stapi\AppData\Local\Temp\cc63Vocw.s:2322   .text.alcs_mqtt_prefixkey_update:000000000000008a .LVL267
C:\Users\stapi\AppData\Local\Temp\cc63Vocw.s:2326   .text.alcs_mqtt_prefixkey_update:0000000000000094 .LVL268
C:\Users\stapi\AppData\Local\Temp\cc63Vocw.s:2331   .text.alcs_mqtt_prefixkey_update:000000000000009e .LVL269
C:\Users\stapi\AppData\Local\Temp\cc63Vocw.s:2338   .text.alcs_mqtt_prefixkey_update:00000000000000aa .LVL271
C:\Users\stapi\AppData\Local\Temp\cc63Vocw.s:2349   .text.alcs_mqtt_prefixkey_update:00000000000000c2 .LVL273
C:\Users\stapi\AppData\Local\Temp\cc63Vocw.s:2360   .text.alcs_mqtt_prefixkey_update:00000000000000d6 .LVL275
C:\Users\stapi\AppData\Local\Temp\cc63Vocw.s:2381   .text.alcs_mqtt_prefixkey_update:00000000000000ee .LVL276
C:\Users\stapi\AppData\Local\Temp\cc63Vocw.s:2386   .text.alcs_mqtt_prefixkey_update:00000000000000fe .LVL277
C:\Users\stapi\AppData\Local\Temp\cc63Vocw.s:2390   .text.alcs_mqtt_prefixkey_update:000000000000010a .LVL278
C:\Users\stapi\AppData\Local\Temp\cc63Vocw.s:12073  .debug_str:00000000000000fe .LASF73
C:\Users\stapi\AppData\Local\Temp\cc63Vocw.s:2139   .text.alcs_mqtt_blacklist_update:0000000000000000 .LFB36
C:\Users\stapi\AppData\Local\Temp\cc63Vocw.s:2232   .text.alcs_mqtt_blacklist_update:0000000000000094 .LFE36
C:\Users\stapi\AppData\Local\Temp\cc63Vocw.s:10734  .debug_loc:000000000000031b .LLST75
C:\Users\stapi\AppData\Local\Temp\cc63Vocw.s:10745  .debug_loc:0000000000000339 .LLST76
C:\Users\stapi\AppData\Local\Temp\cc63Vocw.s:12037  .debug_str:0000000000000022 .LASF74
C:\Users\stapi\AppData\Local\Temp\cc63Vocw.s:12179  .debug_str:00000000000004e4 .LASF75
C:\Users\stapi\AppData\Local\Temp\cc63Vocw.s:2163   .text.alcs_mqtt_blacklist_update:000000000000001e .LVL252
C:\Users\stapi\AppData\Local\Temp\cc63Vocw.s:2180   .text.alcs_mqtt_blacklist_update:000000000000003c .LVL253
C:\Users\stapi\AppData\Local\Temp\cc63Vocw.s:2205   .text.alcs_mqtt_blacklist_update:000000000000005e .LVL254
C:\Users\stapi\AppData\Local\Temp\cc63Vocw.s:2212   .text.alcs_mqtt_blacklist_update:0000000000000072 .LVL255
C:\Users\stapi\AppData\Local\Temp\cc63Vocw.s:2217   .text.alcs_mqtt_blacklist_update:0000000000000082 .LVL256
C:\Users\stapi\AppData\Local\Temp\cc63Vocw.s:2227   .text.alcs_mqtt_blacklist_update:0000000000000092 .LVL257
C:\Users\stapi\AppData\Local\Temp\cc63Vocw.s:12349  .debug_str:0000000000000b07 .LASF77
C:\Users\stapi\AppData\Local\Temp\cc63Vocw.s:2112   .text.alcs_mqtt_remove_srv_key:0000000000000000 .LFB35
C:\Users\stapi\AppData\Local\Temp\cc63Vocw.s:2128   .text.alcs_mqtt_remove_srv_key:0000000000000012 .LFE35
C:\Users\stapi\AppData\Local\Temp\cc63Vocw.s:10756  .debug_loc:0000000000000357 .LLST74
C:\Users\stapi\AppData\Local\Temp\cc63Vocw.s:12327  .debug_str:0000000000000965 .LASF76
C:\Users\stapi\AppData\Local\Temp\cc63Vocw.s:2126   .text.alcs_mqtt_remove_srv_key:0000000000000012 .LVL248
C:\Users\stapi\AppData\Local\Temp\cc63Vocw.s:12035  .debug_str:000000000000000c .LASF78
C:\Users\stapi\AppData\Local\Temp\cc63Vocw.s:2086   .text.alcs_mqtt_add_srv_key:0000000000000000 .LFB34
C:\Users\stapi\AppData\Local\Temp\cc63Vocw.s:2105   .text.alcs_mqtt_add_srv_key:0000000000000016 .LFE34
C:\Users\stapi\AppData\Local\Temp\cc63Vocw.s:10774  .debug_loc:0000000000000383 .LLST72
C:\Users\stapi\AppData\Local\Temp\cc63Vocw.s:10792  .debug_loc:00000000000003af .LLST73
C:\Users\stapi\AppData\Local\Temp\cc63Vocw.s:2103   .text.alcs_mqtt_add_srv_key:0000000000000016 .LVL245
C:\Users\stapi\AppData\Local\Temp\cc63Vocw.s:12043  .debug_str:0000000000000049 .LASF79
C:\Users\stapi\AppData\Local\Temp\cc63Vocw.s:2069   .text.alcs_mqtt_deinit:0000000000000000 .LFB33
C:\Users\stapi\AppData\Local\Temp\cc63Vocw.s:2079   .text.alcs_mqtt_deinit:0000000000000004 .LFE33
C:\Users\stapi\AppData\Local\Temp\cc63Vocw.s:12337  .debug_str:0000000000000a81 .LASF80
C:\Users\stapi\AppData\Local\Temp\cc63Vocw.s:10810  .debug_loc:00000000000003db .LLST71
C:\Users\stapi\AppData\Local\Temp\cc63Vocw.s:12161  .debug_str:0000000000000458 .LASF81
C:\Users\stapi\AppData\Local\Temp\cc63Vocw.s:2717   .text.alcs_mqtt_init:0000000000000000 .LFB32
C:\Users\stapi\AppData\Local\Temp\cc63Vocw.s:2979   .text.alcs_mqtt_init:0000000000000228 .LFE32
C:\Users\stapi\AppData\Local\Temp\cc63Vocw.s:10824  .debug_loc:00000000000003fc .LLST91
C:\Users\stapi\AppData\Local\Temp\cc63Vocw.s:10835  .debug_loc:000000000000041a .LLST92
C:\Users\stapi\AppData\Local\Temp\cc63Vocw.s:10853  .debug_loc:0000000000000446 .LLST93
C:\Users\stapi\AppData\Local\Temp\cc63Vocw.s:10871  .debug_loc:0000000000000472 .LLST94
C:\Users\stapi\AppData\Local\Temp\cc63Vocw.s:2750   .text.alcs_mqtt_init:0000000000000024 .LVL314
C:\Users\stapi\AppData\Local\Temp\cc63Vocw.s:2762   .text.alcs_mqtt_init:0000000000000036 .LVL315
C:\Users\stapi\AppData\Local\Temp\cc63Vocw.s:2771   .text.alcs_mqtt_init:000000000000004a .LVL316
C:\Users\stapi\AppData\Local\Temp\cc63Vocw.s:2783   .text.alcs_mqtt_init:000000000000006e .LVL317
C:\Users\stapi\AppData\Local\Temp\cc63Vocw.s:2791   .text.alcs_mqtt_init:000000000000007c .LVL318
C:\Users\stapi\AppData\Local\Temp\cc63Vocw.s:2796   .text.alcs_mqtt_init:000000000000008a .LVL319
C:\Users\stapi\AppData\Local\Temp\cc63Vocw.s:2800   .text.alcs_mqtt_init:0000000000000094 .LVL320
C:\Users\stapi\AppData\Local\Temp\cc63Vocw.s:2806   .text.alcs_mqtt_init:00000000000000a4 .LVL321
C:\Users\stapi\AppData\Local\Temp\cc63Vocw.s:2812   .text.alcs_mqtt_init:00000000000000b4 .LVL322
C:\Users\stapi\AppData\Local\Temp\cc63Vocw.s:2821   .text.alcs_mqtt_init:00000000000000ce .LVL323
C:\Users\stapi\AppData\Local\Temp\cc63Vocw.s:2826   .text.alcs_mqtt_init:00000000000000d8 .LVL324
C:\Users\stapi\AppData\Local\Temp\cc63Vocw.s:2842   .text.alcs_mqtt_init:0000000000000100 .LVL327
C:\Users\stapi\AppData\Local\Temp\cc63Vocw.s:2848   .text.alcs_mqtt_init:0000000000000112 .LVL328
C:\Users\stapi\AppData\Local\Temp\cc63Vocw.s:2853   .text.alcs_mqtt_init:0000000000000122 .LVL329
C:\Users\stapi\AppData\Local\Temp\cc63Vocw.s:2865   .text.alcs_mqtt_init:0000000000000134 .LVL331
C:\Users\stapi\AppData\Local\Temp\cc63Vocw.s:2874   .text.alcs_mqtt_init:000000000000014e .LVL332
C:\Users\stapi\AppData\Local\Temp\cc63Vocw.s:2879   .text.alcs_mqtt_init:0000000000000158 .LVL333
C:\Users\stapi\AppData\Local\Temp\cc63Vocw.s:2887   .text.alcs_mqtt_init:000000000000016a .LVL334
C:\Users\stapi\AppData\Local\Temp\cc63Vocw.s:2893   .text.alcs_mqtt_init:000000000000017c .LVL335
C:\Users\stapi\AppData\Local\Temp\cc63Vocw.s:2898   .text.alcs_mqtt_init:000000000000018c .LVL336
C:\Users\stapi\AppData\Local\Temp\cc63Vocw.s:2910   .text.alcs_mqtt_init:000000000000019e .LVL338
C:\Users\stapi\AppData\Local\Temp\cc63Vocw.s:2919   .text.alcs_mqtt_init:00000000000001b8 .LVL339
C:\Users\stapi\AppData\Local\Temp\cc63Vocw.s:2924   .text.alcs_mqtt_init:00000000000001c2 .LVL340
C:\Users\stapi\AppData\Local\Temp\cc63Vocw.s:2932   .text.alcs_mqtt_init:00000000000001d4 .LVL341
C:\Users\stapi\AppData\Local\Temp\cc63Vocw.s:2938   .text.alcs_mqtt_init:00000000000001e6 .LVL342
C:\Users\stapi\AppData\Local\Temp\cc63Vocw.s:2943   .text.alcs_mqtt_init:00000000000001f6 .LVL343
C:\Users\stapi\AppData\Local\Temp\cc63Vocw.s:2953   .text.alcs_mqtt_init:0000000000000204 .LVL345
C:\Users\stapi\AppData\Local\Temp\cc63Vocw.s:2957   .text.alcs_mqtt_init:0000000000000210 .LVL346
C:\Users\stapi\AppData\Local\Temp\cc63Vocw.s:2962   .text.alcs_mqtt_init:000000000000021c .LVL347
C:\Users\stapi\AppData\Local\Temp\cc63Vocw.s:12307  .debug_str:00000000000008d2 .LASF82
C:\Users\stapi\AppData\Local\Temp\cc63Vocw.s:2580   .text.iotx_alcs_get_prefixkey:0000000000000000 .LFB31
C:\Users\stapi\AppData\Local\Temp\cc63Vocw.s:2706   .text.iotx_alcs_get_prefixkey:00000000000000ca .LFE31
C:\Users\stapi\AppData\Local\Temp\cc63Vocw.s:12221  .debug_str:0000000000000692 .LASF83
C:\Users\stapi\AppData\Local\Temp\cc63Vocw.s:10906  .debug_loc:00000000000004cb .LLST90
C:\Users\stapi\AppData\Local\Temp\cc63Vocw.s:2658   .text.iotx_alcs_get_prefixkey:0000000000000080 .LBB48
C:\Users\stapi\AppData\Local\Temp\cc63Vocw.s:2693   .text.iotx_alcs_get_prefixkey:00000000000000c6 .LBE48
C:\Users\stapi\AppData\Local\Temp\cc63Vocw.s:2675   .text.iotx_alcs_get_prefixkey:000000000000009e .LVL305
C:\Users\stapi\AppData\Local\Temp\cc63Vocw.s:2679   .text.iotx_alcs_get_prefixkey:00000000000000a8 .LVL306
C:\Users\stapi\AppData\Local\Temp\cc63Vocw.s:2683   .text.iotx_alcs_get_prefixkey:00000000000000b2 .LVL307
C:\Users\stapi\AppData\Local\Temp\cc63Vocw.s:2688   .text.iotx_alcs_get_prefixkey:00000000000000be .LVL308
C:\Users\stapi\AppData\Local\Temp\cc63Vocw.s:2604   .text.iotx_alcs_get_prefixkey:000000000000001c .LVL303
C:\Users\stapi\AppData\Local\Temp\cc63Vocw.s:12185  .debug_str:0000000000000518 .LASF117
C:\Users\stapi\AppData\Local\Temp\cc63Vocw.s:12077  .debug_str:000000000000011f .LASF158
C:\Users\stapi\AppData\Local\Temp\cc63Vocw.s:979    .text.__alcs_mqtt_subscribe_callback:0000000000000000 .LFB29
C:\Users\stapi\AppData\Local\Temp\cc63Vocw.s:1855   .text.__alcs_mqtt_subscribe_callback:00000000000005f8 .LFE29
C:\Users\stapi\AppData\Local\Temp\cc63Vocw.s:12087  .debug_str:0000000000000189 .LASF84
C:\Users\stapi\AppData\Local\Temp\cc63Vocw.s:10918  .debug_loc:00000000000004e3 .LLST41
C:\Users\stapi\AppData\Local\Temp\cc63Vocw.s:12225  .debug_str:00000000000006ae .LASF85
C:\Users\stapi\AppData\Local\Temp\cc63Vocw.s:10929  .debug_loc:0000000000000501 .LLST42
C:\Users\stapi\AppData\Local\Temp\cc63Vocw.s:10943  .debug_loc:0000000000000522 .LLST43
C:\Users\stapi\AppData\Local\Temp\cc63Vocw.s:12167  .debug_str:0000000000000477 .LASF86
C:\Users\stapi\AppData\Local\Temp\cc63Vocw.s:12305  .debug_str:00000000000008cc .LASF87
C:\Users\stapi\AppData\Local\Temp\cc63Vocw.s:10961  .debug_loc:000000000000054e .LLST44
C:\Users\stapi\AppData\Local\Temp\cc63Vocw.s:10976  .debug_loc:0000000000000577 .LLST45
C:\Users\stapi\AppData\Local\Temp\cc63Vocw.s:10993  .debug_loc:0000000000000595 .LLST46
C:\Users\stapi\AppData\Local\Temp\cc63Vocw.s:11004  .debug_loc:00000000000005ac .LLST47
C:\Users\stapi\AppData\Local\Temp\cc63Vocw.s:11015  .debug_loc:00000000000005c3 .LLST48
C:\Users\stapi\AppData\Local\Temp\cc63Vocw.s:12215  .debug_str:000000000000066e .LASF88
C:\Users\stapi\AppData\Local\Temp\cc63Vocw.s:11026  .debug_loc:00000000000005e1 .LLST49
C:\Users\stapi\AppData\Local\Temp\cc63Vocw.s:12253  .debug_str:0000000000000781 .LASF89
C:\Users\stapi\AppData\Local\Temp\cc63Vocw.s:12133  .debug_str:00000000000002df .LASF90
C:\Users\stapi\AppData\Local\Temp\cc63Vocw.s:12309  .debug_str:00000000000008ea .LASF91
C:\Users\stapi\AppData\Local\Temp\cc63Vocw.s:12093  .debug_str:00000000000001a7 .LASF92
C:\Users\stapi\AppData\Local\Temp\cc63Vocw.s:12257  .debug_str:0000000000000799 .LASF93
C:\Users\stapi\AppData\Local\Temp\cc63Vocw.s:12067  .debug_str:00000000000000e7 .LASF94
C:\Users\stapi\AppData\Local\Temp\cc63Vocw.s:11034  .debug_loc:00000000000005f5 .LLST50
C:\Users\stapi\AppData\Local\Temp\cc63Vocw.s:11054  .debug_loc:000000000000062a .LLST51
C:\Users\stapi\AppData\Local\Temp\cc63Vocw.s:11075  .debug_loc:0000000000000660 .LLST52
C:\Users\stapi\AppData\Local\Temp\cc63Vocw.s:12259  .debug_str:00000000000007a8 .LASF95
C:\Users\stapi\AppData\Local\Temp\cc63Vocw.s:11096  .debug_loc:0000000000000696 .LLST53
C:\Users\stapi\AppData\Local\Temp\cc63Vocw.s:12117  .debug_str:000000000000026b .LASF96
C:\Users\stapi\AppData\Local\Temp\cc63Vocw.s:11117  .debug_loc:00000000000006cc .LLST54
C:\Users\stapi\AppData\Local\Temp\cc63Vocw.s:1148   .text.__alcs_mqtt_subscribe_callback:0000000000000110 .LBB29
C:\Users\stapi\AppData\Local\Temp\cc63Vocw.s:1298   .text.__alcs_mqtt_subscribe_callback:0000000000000216 .LBE29
C:\Users\stapi\AppData\Local\Temp\cc63Vocw.s:12237  .debug_str:0000000000000712 .LASF97
C:\Users\stapi\AppData\Local\Temp\cc63Vocw.s:11138  .debug_loc:0000000000000702 .LLST55
C:\Users\stapi\AppData\Local\Temp\cc63Vocw.s:12075  .debug_str:0000000000000119 .LASF98
C:\Users\stapi\AppData\Local\Temp\cc63Vocw.s:11145  .debug_loc:0000000000000715 .LLST56
C:\Users\stapi\AppData\Local\Temp\cc63Vocw.s:1157   .text.__alcs_mqtt_subscribe_callback:0000000000000122 .LVL122
C:\Users\stapi\AppData\Local\Temp\cc63Vocw.s:1172   .text.__alcs_mqtt_subscribe_callback:000000000000013c .LVL125
C:\Users\stapi\AppData\Local\Temp\cc63Vocw.s:1187   .text.__alcs_mqtt_subscribe_callback:0000000000000156 .LVL128
C:\Users\stapi\AppData\Local\Temp\cc63Vocw.s:1202   .text.__alcs_mqtt_subscribe_callback:0000000000000170 .LVL131
C:\Users\stapi\AppData\Local\Temp\cc63Vocw.s:1210   .text.__alcs_mqtt_subscribe_callback:000000000000017e .LVL134
C:\Users\stapi\AppData\Local\Temp\cc63Vocw.s:1221   .text.__alcs_mqtt_subscribe_callback:000000000000019c .LVL135
C:\Users\stapi\AppData\Local\Temp\cc63Vocw.s:1225   .text.__alcs_mqtt_subscribe_callback:00000000000001a8 .LVL136
C:\Users\stapi\AppData\Local\Temp\cc63Vocw.s:1265   .text.__alcs_mqtt_subscribe_callback:00000000000001dc .LVL139
C:\Users\stapi\AppData\Local\Temp\cc63Vocw.s:1296   .text.__alcs_mqtt_subscribe_callback:0000000000000216 .LVL140
C:\Users\stapi\AppData\Local\Temp\cc63Vocw.s:1136   .text.__alcs_mqtt_subscribe_callback:0000000000000100 .LVL119
C:\Users\stapi\AppData\Local\Temp\cc63Vocw.s:1326   .text.__alcs_mqtt_subscribe_callback:0000000000000230 .LVL142
C:\Users\stapi\AppData\Local\Temp\cc63Vocw.s:1335   .text.__alcs_mqtt_subscribe_callback:0000000000000246 .LVL143
C:\Users\stapi\AppData\Local\Temp\cc63Vocw.s:1354   .text.__alcs_mqtt_subscribe_callback:0000000000000262 .LVL144
C:\Users\stapi\AppData\Local\Temp\cc63Vocw.s:12331  .debug_str:000000000000097e .LASF99
C:\Users\stapi\AppData\Local\Temp\cc63Vocw.s:12109  .debug_str:000000000000022c .LASF100
C:\Users\stapi\AppData\Local\Temp\cc63Vocw.s:12203  .debug_str:000000000000059e .LASF101
C:\Users\stapi\AppData\Local\Temp\cc63Vocw.s:11152  .debug_loc:0000000000000728 .LLST57
C:\Users\stapi\AppData\Local\Temp\cc63Vocw.s:11164  .debug_loc:0000000000000747 .LLST58
C:\Users\stapi\AppData\Local\Temp\cc63Vocw.s:11192  .debug_loc:0000000000000792 .LLST59
C:\Users\stapi\AppData\Local\Temp\cc63Vocw.s:12151  .debug_str:00000000000003fe .LASF102
C:\Users\stapi\AppData\Local\Temp\cc63Vocw.s:12163  .debug_str:0000000000000467 .LASF103
C:\Users\stapi\AppData\Local\Temp\cc63Vocw.s:12165  .debug_str:000000000000046f .LASF104
C:\Users\stapi\AppData\Local\Temp\cc63Vocw.s:12045  .debug_str:000000000000005a .LASF105
C:\Users\stapi\AppData\Local\Temp\cc63Vocw.s:11208  .debug_loc:00000000000007bc .LLST60
C:\Users\stapi\AppData\Local\Temp\cc63Vocw.s:12115  .debug_str:0000000000000263 .LASF106
C:\Users\stapi\AppData\Local\Temp\cc63Vocw.s:11224  .debug_loc:00000000000007e6 .LLST61
C:\Users\stapi\AppData\Local\Temp\cc63Vocw.s:11240  .debug_loc:0000000000000810 .LLST62
C:\Users\stapi\AppData\Local\Temp\cc63Vocw.s:1554   .text.__alcs_mqtt_subscribe_callback:00000000000003c4 .LVL170
C:\Users\stapi\AppData\Local\Temp\cc63Vocw.s:1566   .text.__alcs_mqtt_subscribe_callback:00000000000003d6 .LVL171
C:\Users\stapi\AppData\Local\Temp\cc63Vocw.s:1577   .text.__alcs_mqtt_subscribe_callback:00000000000003f4 .LVL172
C:\Users\stapi\AppData\Local\Temp\cc63Vocw.s:1584   .text.__alcs_mqtt_subscribe_callback:0000000000000402 .LVL173
C:\Users\stapi\AppData\Local\Temp\cc63Vocw.s:1647   .text.__alcs_mqtt_subscribe_callback:0000000000000474 .LVL183
C:\Users\stapi\AppData\Local\Temp\cc63Vocw.s:1472   .text.__alcs_mqtt_subscribe_callback:0000000000000330 .LVL159
C:\Users\stapi\AppData\Local\Temp\cc63Vocw.s:1480   .text.__alcs_mqtt_subscribe_callback:0000000000000344 .LVL160
C:\Users\stapi\AppData\Local\Temp\cc63Vocw.s:1497   .text.__alcs_mqtt_subscribe_callback:0000000000000362 .LVL161
C:\Users\stapi\AppData\Local\Temp\cc63Vocw.s:1502   .text.__alcs_mqtt_subscribe_callback:000000000000036c .LVL162
C:\Users\stapi\AppData\Local\Temp\cc63Vocw.s:1506   .text.__alcs_mqtt_subscribe_callback:0000000000000376 .LVL163
C:\Users\stapi\AppData\Local\Temp\cc63Vocw.s:1511   .text.__alcs_mqtt_subscribe_callback:0000000000000380 .LVL164
C:\Users\stapi\AppData\Local\Temp\cc63Vocw.s:1519   .text.__alcs_mqtt_subscribe_callback:000000000000038e .LVL166
C:\Users\stapi\AppData\Local\Temp\cc63Vocw.s:1532   .text.__alcs_mqtt_subscribe_callback:00000000000003a6 .LVL168
C:\Users\stapi\AppData\Local\Temp\cc63Vocw.s:1660   .text.__alcs_mqtt_subscribe_callback:000000000000048e .LVL185
C:\Users\stapi\AppData\Local\Temp\cc63Vocw.s:1452   .text.__alcs_mqtt_subscribe_callback:0000000000000312 .LVL156
C:\Users\stapi\AppData\Local\Temp\cc63Vocw.s:1594   .text.__alcs_mqtt_subscribe_callback:0000000000000412 .LVL175
C:\Users\stapi\AppData\Local\Temp\cc63Vocw.s:1598   .text.__alcs_mqtt_subscribe_callback:000000000000041e .LVL176
C:\Users\stapi\AppData\Local\Temp\cc63Vocw.s:1607   .text.__alcs_mqtt_subscribe_callback:0000000000000432 .LVL177
C:\Users\stapi\AppData\Local\Temp\cc63Vocw.s:1674   .text.__alcs_mqtt_subscribe_callback:00000000000004a8 .LVL188
C:\Users\stapi\AppData\Local\Temp\cc63Vocw.s:1411   .text.__alcs_mqtt_subscribe_callback:00000000000002cc .LVL151
C:\Users\stapi\AppData\Local\Temp\cc63Vocw.s:1425   .text.__alcs_mqtt_subscribe_callback:00000000000002e0 .LVL154
C:\Users\stapi\AppData\Local\Temp\cc63Vocw.s:1436   .text.__alcs_mqtt_subscribe_callback:00000000000002f8 .LVL155
C:\Users\stapi\AppData\Local\Temp\cc63Vocw.s:11251  .debug_loc:000000000000082e .LLST63
C:\Users\stapi\AppData\Local\Temp\cc63Vocw.s:11267  .debug_loc:0000000000000858 .LLST64
C:\Users\stapi\AppData\Local\Temp\cc63Vocw.s:11293  .debug_loc:000000000000089b .LLST65
C:\Users\stapi\AppData\Local\Temp\cc63Vocw.s:1623   .text.__alcs_mqtt_subscribe_callback:000000000000044c .LVL179
C:\Users\stapi\AppData\Local\Temp\cc63Vocw.s:1627   .text.__alcs_mqtt_subscribe_callback:0000000000000456 .LVL180
C:\Users\stapi\AppData\Local\Temp\cc63Vocw.s:1631   .text.__alcs_mqtt_subscribe_callback:0000000000000462 .LVL181
C:\Users\stapi\AppData\Local\Temp\cc63Vocw.s:1774   .text.__alcs_mqtt_subscribe_callback:0000000000000560 .LVL200
C:\Users\stapi\AppData\Local\Temp\cc63Vocw.s:1788   .text.__alcs_mqtt_subscribe_callback:0000000000000572 .LVL203
C:\Users\stapi\AppData\Local\Temp\cc63Vocw.s:1795   .text.__alcs_mqtt_subscribe_callback:0000000000000582 .LVL204
C:\Users\stapi\AppData\Local\Temp\cc63Vocw.s:1803   .text.__alcs_mqtt_subscribe_callback:0000000000000594 .LVL205
C:\Users\stapi\AppData\Local\Temp\cc63Vocw.s:1808   .text.__alcs_mqtt_subscribe_callback:00000000000005a4 .LVL206
C:\Users\stapi\AppData\Local\Temp\cc63Vocw.s:1812   .text.__alcs_mqtt_subscribe_callback:00000000000005b0 .LVL207
C:\Users\stapi\AppData\Local\Temp\cc63Vocw.s:1822   .text.__alcs_mqtt_subscribe_callback:00000000000005c4 .LVL208
C:\Users\stapi\AppData\Local\Temp\cc63Vocw.s:1733   .text.__alcs_mqtt_subscribe_callback:000000000000051a .LVL195
C:\Users\stapi\AppData\Local\Temp\cc63Vocw.s:1747   .text.__alcs_mqtt_subscribe_callback:000000000000052e .LVL198
C:\Users\stapi\AppData\Local\Temp\cc63Vocw.s:1758   .text.__alcs_mqtt_subscribe_callback:0000000000000546 .LVL199
C:\Users\stapi\AppData\Local\Temp\cc63Vocw.s:1839   .text.__alcs_mqtt_subscribe_callback:00000000000005e2 .LVL211
C:\Users\stapi\AppData\Local\Temp\cc63Vocw.s:1850   .text.__alcs_mqtt_subscribe_callback:00000000000005f6 .LVL212
C:\Users\stapi\AppData\Local\Temp\cc63Vocw.s:1011   .text.__alcs_mqtt_subscribe_callback:0000000000000020 .LVL107
C:\Users\stapi\AppData\Local\Temp\cc63Vocw.s:1062   .text.__alcs_mqtt_subscribe_callback:0000000000000066 .LVL110
C:\Users\stapi\AppData\Local\Temp\cc63Vocw.s:1076   .text.__alcs_mqtt_subscribe_callback:0000000000000088 .LVL111
C:\Users\stapi\AppData\Local\Temp\cc63Vocw.s:1082   .text.__alcs_mqtt_subscribe_callback:0000000000000098 .LVL112
C:\Users\stapi\AppData\Local\Temp\cc63Vocw.s:1089   .text.__alcs_mqtt_subscribe_callback:00000000000000ac .LVL113
C:\Users\stapi\AppData\Local\Temp\cc63Vocw.s:1095   .text.__alcs_mqtt_subscribe_callback:00000000000000bc .LVL115
C:\Users\stapi\AppData\Local\Temp\cc63Vocw.s:1101   .text.__alcs_mqtt_subscribe_callback:00000000000000c6 .LVL116
C:\Users\stapi\AppData\Local\Temp\cc63Vocw.s:1109   .text.__alcs_mqtt_subscribe_callback:00000000000000d8 .LVL117
C:\Users\stapi\AppData\Local\Temp\cc63Vocw.s:1365   .text.__alcs_mqtt_subscribe_callback:0000000000000274 .LVL146
C:\Users\stapi\AppData\Local\Temp\cc63Vocw.s:1374   .text.__alcs_mqtt_subscribe_callback:000000000000028e .LVL147
C:\Users\stapi\AppData\Local\Temp\cc63Vocw.s:1379   .text.__alcs_mqtt_subscribe_callback:0000000000000298 .LVL148
C:\Users\stapi\AppData\Local\Temp\cc63Vocw.s:1387   .text.__alcs_mqtt_subscribe_callback:00000000000002aa .LVL149
C:\Users\stapi\AppData\Local\Temp\cc63Vocw.s:1688   .text.__alcs_mqtt_subscribe_callback:00000000000004c2 .LVL190
C:\Users\stapi\AppData\Local\Temp\cc63Vocw.s:1697   .text.__alcs_mqtt_subscribe_callback:00000000000004dc .LVL191
C:\Users\stapi\AppData\Local\Temp\cc63Vocw.s:1702   .text.__alcs_mqtt_subscribe_callback:00000000000004e6 .LVL192
C:\Users\stapi\AppData\Local\Temp\cc63Vocw.s:1710   .text.__alcs_mqtt_subscribe_callback:00000000000004f8 .LVL193
C:\Users\stapi\AppData\Local\Temp\cc63Vocw.s:12231  .debug_str:00000000000006e4 .LASF107
C:\Users\stapi\AppData\Local\Temp\cc63Vocw.s:1862   .text.alcs_mqtt_prefix_secret_del:0000000000000000 .LFB28
C:\Users\stapi\AppData\Local\Temp\cc63Vocw.s:2062   .text.alcs_mqtt_prefix_secret_del:000000000000016c .LFE28
C:\Users\stapi\AppData\Local\Temp\cc63Vocw.s:11309  .debug_loc:00000000000008c5 .LLST66
C:\Users\stapi\AppData\Local\Temp\cc63Vocw.s:12069  .debug_str:00000000000000ec .LASF108
C:\Users\stapi\AppData\Local\Temp\cc63Vocw.s:11320  .debug_loc:00000000000008e3 .LLST67
C:\Users\stapi\AppData\Local\Temp\cc63Vocw.s:11334  .debug_loc:0000000000000904 .LLST68
C:\Users\stapi\AppData\Local\Temp\cc63Vocw.s:12131  .debug_str:00000000000002d8 .LASF109
C:\Users\stapi\AppData\Local\Temp\cc63Vocw.s:11345  .debug_loc:0000000000000922 .LLST69
C:\Users\stapi\AppData\Local\Temp\cc63Vocw.s:12071  .debug_str:00000000000000f3 .LASF110
C:\Users\stapi\AppData\Local\Temp\cc63Vocw.s:11359  .debug_loc:0000000000000943 .LLST70
C:\Users\stapi\AppData\Local\Temp\cc63Vocw.s:12297  .debug_str:00000000000008ac .LASF111
C:\Users\stapi\AppData\Local\Temp\cc63Vocw.s:12255  .debug_str:000000000000078a .LASF112
C:\Users\stapi\AppData\Local\Temp\cc63Vocw.s:1903   .text.alcs_mqtt_prefix_secret_del:000000000000002a .LVL218
C:\Users\stapi\AppData\Local\Temp\cc63Vocw.s:1910   .text.alcs_mqtt_prefix_secret_del:0000000000000038 .LVL219
C:\Users\stapi\AppData\Local\Temp\cc63Vocw.s:1919   .text.alcs_mqtt_prefix_secret_del:000000000000004c .LVL220
C:\Users\stapi\AppData\Local\Temp\cc63Vocw.s:1929   .text.alcs_mqtt_prefix_secret_del:0000000000000064 .LVL221
C:\Users\stapi\AppData\Local\Temp\cc63Vocw.s:1937   .text.alcs_mqtt_prefix_secret_del:0000000000000074 .LVL223
C:\Users\stapi\AppData\Local\Temp\cc63Vocw.s:1942   .text.alcs_mqtt_prefix_secret_del:0000000000000084 .LVL224
C:\Users\stapi\AppData\Local\Temp\cc63Vocw.s:1975   .text.alcs_mqtt_prefix_secret_del:00000000000000a6 .LVL226
C:\Users\stapi\AppData\Local\Temp\cc63Vocw.s:1986   .text.alcs_mqtt_prefix_secret_del:00000000000000ba .LVL228
C:\Users\stapi\AppData\Local\Temp\cc63Vocw.s:1996   .text.alcs_mqtt_prefix_secret_del:00000000000000d0 .LVL229
C:\Users\stapi\AppData\Local\Temp\cc63Vocw.s:2007   .text.alcs_mqtt_prefix_secret_del:00000000000000ec .LVL230
C:\Users\stapi\AppData\Local\Temp\cc63Vocw.s:2011   .text.alcs_mqtt_prefix_secret_del:00000000000000f6 .LVL231
C:\Users\stapi\AppData\Local\Temp\cc63Vocw.s:2016   .text.alcs_mqtt_prefix_secret_del:0000000000000104 .LVL232
C:\Users\stapi\AppData\Local\Temp\cc63Vocw.s:2021   .text.alcs_mqtt_prefix_secret_del:0000000000000110 .LVL233
C:\Users\stapi\AppData\Local\Temp\cc63Vocw.s:2027   .text.alcs_mqtt_prefix_secret_del:0000000000000120 .LVL234
C:\Users\stapi\AppData\Local\Temp\cc63Vocw.s:2036   .text.alcs_mqtt_prefix_secret_del:0000000000000134 .LVL235
C:\Users\stapi\AppData\Local\Temp\cc63Vocw.s:2041   .text.alcs_mqtt_prefix_secret_del:0000000000000144 .LVL236
C:\Users\stapi\AppData\Local\Temp\cc63Vocw.s:2046   .text.alcs_mqtt_prefix_secret_del:0000000000000154 .LVL237
C:\Users\stapi\AppData\Local\Temp\cc63Vocw.s:2051   .text.alcs_mqtt_prefix_secret_del:000000000000015e .LVL238
C:\Users\stapi\AppData\Local\Temp\cc63Vocw.s:2057   .text.alcs_mqtt_prefix_secret_del:000000000000016a .LVL239
C:\Users\stapi\AppData\Local\Temp\cc63Vocw.s:12111  .debug_str:0000000000000233 .LASF113
C:\Users\stapi\AppData\Local\Temp\cc63Vocw.s:667    .text.alcs_mqtt_prefix_secret_load:0000000000000000 .LFB27
C:\Users\stapi\AppData\Local\Temp\cc63Vocw.s:912    .text.alcs_mqtt_prefix_secret_load:00000000000001be .LFE27
C:\Users\stapi\AppData\Local\Temp\cc63Vocw.s:11376  .debug_loc:000000000000096e .LLST34
C:\Users\stapi\AppData\Local\Temp\cc63Vocw.s:11405  .debug_loc:00000000000009b3 .LLST35
C:\Users\stapi\AppData\Local\Temp\cc63Vocw.s:11419  .debug_loc:00000000000009d4 .LLST36
C:\Users\stapi\AppData\Local\Temp\cc63Vocw.s:11430  .debug_loc:00000000000009f2 .LLST37
C:\Users\stapi\AppData\Local\Temp\cc63Vocw.s:11444  .debug_loc:0000000000000a13 .LLST38
C:\Users\stapi\AppData\Local\Temp\cc63Vocw.s:11455  .debug_loc:0000000000000a31 .LLST39
C:\Users\stapi\AppData\Local\Temp\cc63Vocw.s:11466  .debug_loc:0000000000000a4f .LLST40
C:\Users\stapi\AppData\Local\Temp\cc63Vocw.s:12129  .debug_str:00000000000002d2 .LASF114
C:\Users\stapi\AppData\Local\Temp\cc63Vocw.s:12241  .debug_str:0000000000000726 .LASF115
C:\Users\stapi\AppData\Local\Temp\cc63Vocw.s:712    .text.alcs_mqtt_prefix_secret_load:000000000000002e .LVL76
C:\Users\stapi\AppData\Local\Temp\cc63Vocw.s:720    .text.alcs_mqtt_prefix_secret_load:0000000000000040 .LVL77
C:\Users\stapi\AppData\Local\Temp\cc63Vocw.s:731    .text.alcs_mqtt_prefix_secret_load:0000000000000054 .LVL78
C:\Users\stapi\AppData\Local\Temp\cc63Vocw.s:740    .text.alcs_mqtt_prefix_secret_load:0000000000000068 .LVL79
C:\Users\stapi\AppData\Local\Temp\cc63Vocw.s:754    .text.alcs_mqtt_prefix_secret_load:0000000000000088 .LVL80
C:\Users\stapi\AppData\Local\Temp\cc63Vocw.s:762    .text.alcs_mqtt_prefix_secret_load:0000000000000098 .LVL82
C:\Users\stapi\AppData\Local\Temp\cc63Vocw.s:767    .text.alcs_mqtt_prefix_secret_load:00000000000000a8 .LVL83
C:\Users\stapi\AppData\Local\Temp\cc63Vocw.s:803    .text.alcs_mqtt_prefix_secret_load:00000000000000ca .LVL86
C:\Users\stapi\AppData\Local\Temp\cc63Vocw.s:814    .text.alcs_mqtt_prefix_secret_load:00000000000000de .LVL88
C:\Users\stapi\AppData\Local\Temp\cc63Vocw.s:824    .text.alcs_mqtt_prefix_secret_load:00000000000000f4 .LVL89
C:\Users\stapi\AppData\Local\Temp\cc63Vocw.s:835    .text.alcs_mqtt_prefix_secret_load:0000000000000110 .LVL90
C:\Users\stapi\AppData\Local\Temp\cc63Vocw.s:839    .text.alcs_mqtt_prefix_secret_load:000000000000011a .LVL91
C:\Users\stapi\AppData\Local\Temp\cc63Vocw.s:844    .text.alcs_mqtt_prefix_secret_load:0000000000000128 .LVL92
C:\Users\stapi\AppData\Local\Temp\cc63Vocw.s:849    .text.alcs_mqtt_prefix_secret_load:0000000000000134 .LVL93
C:\Users\stapi\AppData\Local\Temp\cc63Vocw.s:857    .text.alcs_mqtt_prefix_secret_load:0000000000000148 .LVL94
C:\Users\stapi\AppData\Local\Temp\cc63Vocw.s:866    .text.alcs_mqtt_prefix_secret_load:000000000000015c .LVL95
C:\Users\stapi\AppData\Local\Temp\cc63Vocw.s:871    .text.alcs_mqtt_prefix_secret_load:000000000000016c .LVL96
C:\Users\stapi\AppData\Local\Temp\cc63Vocw.s:876    .text.alcs_mqtt_prefix_secret_load:000000000000017c .LVL97
C:\Users\stapi\AppData\Local\Temp\cc63Vocw.s:881    .text.alcs_mqtt_prefix_secret_load:0000000000000186 .LVL98
C:\Users\stapi\AppData\Local\Temp\cc63Vocw.s:893    .text.alcs_mqtt_prefix_secret_load:000000000000019c .LVL100
C:\Users\stapi\AppData\Local\Temp\cc63Vocw.s:903    .text.alcs_mqtt_prefix_secret_load:00000000000001b2 .LVL101
C:\Users\stapi\AppData\Local\Temp\cc63Vocw.s:907    .text.alcs_mqtt_prefix_secret_load:00000000000001bc .LVL102
C:\Users\stapi\AppData\Local\Temp\cc63Vocw.s:12181  .debug_str:00000000000004f2 .LASF116
C:\Users\stapi\AppData\Local\Temp\cc63Vocw.s:371    .text.__alcs_mqtt_prefix_secret_save:0000000000000000 .LFB26
C:\Users\stapi\AppData\Local\Temp\cc63Vocw.s:656    .text.__alcs_mqtt_prefix_secret_save:0000000000000208 .LFE26
C:\Users\stapi\AppData\Local\Temp\cc63Vocw.s:11483  .debug_loc:0000000000000a7a .LLST24
C:\Users\stapi\AppData\Local\Temp\cc63Vocw.s:11516  .debug_loc:0000000000000aca .LLST25
C:\Users\stapi\AppData\Local\Temp\cc63Vocw.s:11530  .debug_loc:0000000000000aeb .LLST26
C:\Users\stapi\AppData\Local\Temp\cc63Vocw.s:11541  .debug_loc:0000000000000b09 .LLST27
C:\Users\stapi\AppData\Local\Temp\cc63Vocw.s:11555  .debug_loc:0000000000000b2a .LLST28
C:\Users\stapi\AppData\Local\Temp\cc63Vocw.s:11566  .debug_loc:0000000000000b48 .LLST29
C:\Users\stapi\AppData\Local\Temp\cc63Vocw.s:11580  .debug_loc:0000000000000b69 .LLST30
C:\Users\stapi\AppData\Local\Temp\cc63Vocw.s:11591  .debug_loc:0000000000000b87 .LLST31
C:\Users\stapi\AppData\Local\Temp\cc63Vocw.s:11605  .debug_loc:0000000000000ba8 .LLST32
C:\Users\stapi\AppData\Local\Temp\cc63Vocw.s:11622  .debug_loc:0000000000000bd3 .LLST33
C:\Users\stapi\AppData\Local\Temp\cc63Vocw.s:420    .text.__alcs_mqtt_prefix_secret_save:0000000000000032 .LVL40
C:\Users\stapi\AppData\Local\Temp\cc63Vocw.s:443    .text.__alcs_mqtt_prefix_secret_save:0000000000000060 .LVL41
C:\Users\stapi\AppData\Local\Temp\cc63Vocw.s:451    .text.__alcs_mqtt_prefix_secret_save:0000000000000070 .LVL43
C:\Users\stapi\AppData\Local\Temp\cc63Vocw.s:456    .text.__alcs_mqtt_prefix_secret_save:0000000000000080 .LVL44
C:\Users\stapi\AppData\Local\Temp\cc63Vocw.s:493    .text.__alcs_mqtt_prefix_secret_save:00000000000000a2 .LVL46
C:\Users\stapi\AppData\Local\Temp\cc63Vocw.s:504    .text.__alcs_mqtt_prefix_secret_save:00000000000000b6 .LVL48
C:\Users\stapi\AppData\Local\Temp\cc63Vocw.s:514    .text.__alcs_mqtt_prefix_secret_save:00000000000000cc .LVL49
C:\Users\stapi\AppData\Local\Temp\cc63Vocw.s:526    .text.__alcs_mqtt_prefix_secret_save:00000000000000e8 .LVL51
C:\Users\stapi\AppData\Local\Temp\cc63Vocw.s:530    .text.__alcs_mqtt_prefix_secret_save:00000000000000f2 .LVL52
C:\Users\stapi\AppData\Local\Temp\cc63Vocw.s:535    .text.__alcs_mqtt_prefix_secret_save:0000000000000100 .LVL53
C:\Users\stapi\AppData\Local\Temp\cc63Vocw.s:543    .text.__alcs_mqtt_prefix_secret_save:0000000000000110 .LVL54
C:\Users\stapi\AppData\Local\Temp\cc63Vocw.s:551    .text.__alcs_mqtt_prefix_secret_save:0000000000000122 .LVL55
C:\Users\stapi\AppData\Local\Temp\cc63Vocw.s:562    .text.__alcs_mqtt_prefix_secret_save:0000000000000136 .LVL57
C:\Users\stapi\AppData\Local\Temp\cc63Vocw.s:567    .text.__alcs_mqtt_prefix_secret_save:0000000000000146 .LVL58
C:\Users\stapi\AppData\Local\Temp\cc63Vocw.s:572    .text.__alcs_mqtt_prefix_secret_save:0000000000000156 .LVL59
C:\Users\stapi\AppData\Local\Temp\cc63Vocw.s:579    .text.__alcs_mqtt_prefix_secret_save:0000000000000160 .LVL60
C:\Users\stapi\AppData\Local\Temp\cc63Vocw.s:586    .text.__alcs_mqtt_prefix_secret_save:000000000000016e .LVL61
C:\Users\stapi\AppData\Local\Temp\cc63Vocw.s:603    .text.__alcs_mqtt_prefix_secret_save:0000000000000192 .LVL62
C:\Users\stapi\AppData\Local\Temp\cc63Vocw.s:607    .text.__alcs_mqtt_prefix_secret_save:000000000000019c .LVL63
C:\Users\stapi\AppData\Local\Temp\cc63Vocw.s:615    .text.__alcs_mqtt_prefix_secret_save:00000000000001b0 .LVL64
C:\Users\stapi\AppData\Local\Temp\cc63Vocw.s:624    .text.__alcs_mqtt_prefix_secret_save:00000000000001c4 .LVL65
C:\Users\stapi\AppData\Local\Temp\cc63Vocw.s:629    .text.__alcs_mqtt_prefix_secret_save:00000000000001d4 .LVL66
C:\Users\stapi\AppData\Local\Temp\cc63Vocw.s:634    .text.__alcs_mqtt_prefix_secret_save:00000000000001e4 .LVL67
C:\Users\stapi\AppData\Local\Temp\cc63Vocw.s:639    .text.__alcs_mqtt_prefix_secret_save:00000000000001ee .LVL68
C:\Users\stapi\AppData\Local\Temp\cc63Vocw.s:647    .text.__alcs_mqtt_prefix_secret_save:00000000000001fc .LVL69
C:\Users\stapi\AppData\Local\Temp\cc63Vocw.s:651    .text.__alcs_mqtt_prefix_secret_save:0000000000000206 .LVL70
C:\Users\stapi\AppData\Local\Temp\cc63Vocw.s:12223  .debug_str:000000000000069b .LASF118
C:\Users\stapi\AppData\Local\Temp\cc63Vocw.s:12173  .debug_str:000000000000049f .LASF119
C:\Users\stapi\AppData\Local\Temp\cc63Vocw.s:12283  .debug_str:000000000000084c .LASF120
C:\Users\stapi\AppData\Local\Temp\cc63Vocw.s:12091  .debug_str:000000000000019c .LASF121
C:\Users\stapi\AppData\Local\Temp\cc63Vocw.s:12199  .debug_str:0000000000000583 .LASF122
C:\Users\stapi\AppData\Local\Temp\cc63Vocw.s:12321  .debug_str:0000000000000942 .LASF123
C:\Users\stapi\AppData\Local\Temp\cc63Vocw.s:12289  .debug_str:0000000000000877 .LASF124
C:\Users\stapi\AppData\Local\Temp\cc63Vocw.s:12301  .debug_str:00000000000008c0 .LASF125
C:\Users\stapi\AppData\Local\Temp\cc63Vocw.s:12279  .debug_str:000000000000082d .LASF126
C:\Users\stapi\AppData\Local\Temp\cc63Vocw.s:12251  .debug_str:000000000000076d .LASF159
C:\Users\stapi\AppData\Local\Temp\cc63Vocw.s:23     .text.__alcs_mqtt_kv_del:0000000000000000 .LFB25
C:\Users\stapi\AppData\Local\Temp\cc63Vocw.s:79     .text.__alcs_mqtt_kv_del:0000000000000054 .LFE25
C:\Users\stapi\AppData\Local\Temp\cc63Vocw.s:11639  .debug_loc:0000000000000bfe .LLST0
C:\Users\stapi\AppData\Local\Temp\cc63Vocw.s:41     .text.__alcs_mqtt_kv_del:0000000000000014 .LBB14
C:\Users\stapi\AppData\Local\Temp\cc63Vocw.s:66     .text.__alcs_mqtt_kv_del:0000000000000048 .LBE14
C:\Users\stapi\AppData\Local\Temp\cc63Vocw.s:11650  .debug_loc:0000000000000c1c .LLST1
C:\Users\stapi\AppData\Local\Temp\cc63Vocw.s:48     .text.__alcs_mqtt_kv_del:0000000000000024 .LVL3
C:\Users\stapi\AppData\Local\Temp\cc63Vocw.s:54     .text.__alcs_mqtt_kv_del:0000000000000036 .LVL4
C:\Users\stapi\AppData\Local\Temp\cc63Vocw.s:59     .text.__alcs_mqtt_kv_del:0000000000000046 .LVL5
C:\Users\stapi\AppData\Local\Temp\cc63Vocw.s:37     .text.__alcs_mqtt_kv_del:0000000000000012 .LVL1
C:\Users\stapi\AppData\Local\Temp\cc63Vocw.s:89     .text.__alcs_mqtt_kv_get:0000000000000000 .LFB24
C:\Users\stapi\AppData\Local\Temp\cc63Vocw.s:144    .text.__alcs_mqtt_kv_get:0000000000000054 .LFE24
C:\Users\stapi\AppData\Local\Temp\cc63Vocw.s:11657  .debug_loc:0000000000000c2f .LLST2
C:\Users\stapi\AppData\Local\Temp\cc63Vocw.s:11668  .debug_loc:0000000000000c4d .LLST3
C:\Users\stapi\AppData\Local\Temp\cc63Vocw.s:11682  .debug_loc:0000000000000c6e .LLST4
C:\Users\stapi\AppData\Local\Temp\cc63Vocw.s:106    .text.__alcs_mqtt_kv_get:0000000000000014 .LBB18
C:\Users\stapi\AppData\Local\Temp\cc63Vocw.s:131    .text.__alcs_mqtt_kv_get:0000000000000048 .LBE18
C:\Users\stapi\AppData\Local\Temp\cc63Vocw.s:11696  .debug_loc:0000000000000c8f .LLST5
C:\Users\stapi\AppData\Local\Temp\cc63Vocw.s:11706  .debug_loc:0000000000000ca5 .LLST6
C:\Users\stapi\AppData\Local\Temp\cc63Vocw.s:11716  .debug_loc:0000000000000cbb .LLST7
C:\Users\stapi\AppData\Local\Temp\cc63Vocw.s:113    .text.__alcs_mqtt_kv_get:0000000000000024 .LVL9
C:\Users\stapi\AppData\Local\Temp\cc63Vocw.s:119    .text.__alcs_mqtt_kv_get:0000000000000036 .LVL10
C:\Users\stapi\AppData\Local\Temp\cc63Vocw.s:124    .text.__alcs_mqtt_kv_get:0000000000000046 .LVL11
C:\Users\stapi\AppData\Local\Temp\cc63Vocw.s:102    .text.__alcs_mqtt_kv_get:0000000000000012 .LVL7
C:\Users\stapi\AppData\Local\Temp\cc63Vocw.s:150    .text.__alcs_mqtt_subscribe.constprop.0:0000000000000000 .LFB45
C:\Users\stapi\AppData\Local\Temp\cc63Vocw.s:178    .text.__alcs_mqtt_subscribe.constprop.0:0000000000000030 .LFE45
C:\Users\stapi\AppData\Local\Temp\cc63Vocw.s:11723  .debug_loc:0000000000000cce .LLST8
C:\Users\stapi\AppData\Local\Temp\cc63Vocw.s:171    .text.__alcs_mqtt_subscribe.constprop.0:0000000000000026 .LVL15
C:\Users\stapi\AppData\Local\Temp\cc63Vocw.s:188    .text.__alcs_mqtt_kv_set.constprop.0:0000000000000000 .LFB44
C:\Users\stapi\AppData\Local\Temp\cc63Vocw.s:251    .text.__alcs_mqtt_kv_set.constprop.0:000000000000005a .LFE44
C:\Users\stapi\AppData\Local\Temp\cc63Vocw.s:11741  .debug_loc:0000000000000cfa .LLST9
C:\Users\stapi\AppData\Local\Temp\cc63Vocw.s:11752  .debug_loc:0000000000000d18 .LLST10
C:\Users\stapi\AppData\Local\Temp\cc63Vocw.s:11766  .debug_loc:0000000000000d39 .LLST11
C:\Users\stapi\AppData\Local\Temp\cc63Vocw.s:211    .text.__alcs_mqtt_kv_set.constprop.0:0000000000000018 .LBB22
C:\Users\stapi\AppData\Local\Temp\cc63Vocw.s:237    .text.__alcs_mqtt_kv_set.constprop.0:000000000000004e .LBE22
C:\Users\stapi\AppData\Local\Temp\cc63Vocw.s:11777  .debug_loc:0000000000000d57 .LLST12
C:\Users\stapi\AppData\Local\Temp\cc63Vocw.s:11787  .debug_loc:0000000000000d6d .LLST13
C:\Users\stapi\AppData\Local\Temp\cc63Vocw.s:11795  .debug_loc:0000000000000d81 .LLST14
C:\Users\stapi\AppData\Local\Temp\cc63Vocw.s:11802  .debug_loc:0000000000000d94 .LLST15
C:\Users\stapi\AppData\Local\Temp\cc63Vocw.s:218    .text.__alcs_mqtt_kv_set.constprop.0:0000000000000028 .LVL20
C:\Users\stapi\AppData\Local\Temp\cc63Vocw.s:225    .text.__alcs_mqtt_kv_set.constprop.0:000000000000003c .LVL21
C:\Users\stapi\AppData\Local\Temp\cc63Vocw.s:230    .text.__alcs_mqtt_kv_set.constprop.0:000000000000004c .LVL22
C:\Users\stapi\AppData\Local\Temp\cc63Vocw.s:207    .text.__alcs_mqtt_kv_set.constprop.0:0000000000000016 .LVL18
C:\Users\stapi\AppData\Local\Temp\cc63Vocw.s:264    .text.__alcs_mqtt_send_response.constprop.0.isra.0:0000000000000000 .LFB46
C:\Users\stapi\AppData\Local\Temp\cc63Vocw.s:345    .text.__alcs_mqtt_send_response.constprop.0.isra.0:0000000000000074 .LFE46
C:\Users\stapi\AppData\Local\Temp\cc63Vocw.s:11809  .debug_loc:0000000000000da7 .LLST16
C:\Users\stapi\AppData\Local\Temp\cc63Vocw.s:11820  .debug_loc:0000000000000dc5 .LLST17
C:\Users\stapi\AppData\Local\Temp\cc63Vocw.s:11837  .debug_loc:0000000000000df0 .LLST18
C:\Users\stapi\AppData\Local\Temp\cc63Vocw.s:11853  .debug_loc:0000000000000e1a .LLST19
C:\Users\stapi\AppData\Local\Temp\cc63Vocw.s:316    .text.__alcs_mqtt_send_response.constprop.0.isra.0:0000000000000050 .LBB26
C:\Users\stapi\AppData\Local\Temp\cc63Vocw.s:328    .text.__alcs_mqtt_send_response.constprop.0.isra.0:0000000000000060 .LBE26
C:\Users\stapi\AppData\Local\Temp\cc63Vocw.s:11861  .debug_loc:0000000000000e2e .LLST20
C:\Users\stapi\AppData\Local\Temp\cc63Vocw.s:11872  .debug_loc:0000000000000e4c .LLST21
C:\Users\stapi\AppData\Local\Temp\cc63Vocw.s:11879  .debug_loc:0000000000000e5f .LLST22
C:\Users\stapi\AppData\Local\Temp\cc63Vocw.s:11887  .debug_loc:0000000000000e73 .LLST23
C:\Users\stapi\AppData\Local\Temp\cc63Vocw.s:326    .text.__alcs_mqtt_send_response.constprop.0.isra.0:0000000000000060 .LVL32
C:\Users\stapi\AppData\Local\Temp\cc63Vocw.s:294    .text.__alcs_mqtt_send_response.constprop.0.isra.0:000000000000001e .LVL27
C:\Users\stapi\AppData\Local\Temp\cc63Vocw.s:308    .text.__alcs_mqtt_send_response.constprop.0.isra.0:0000000000000044 .LVL28
C:\Users\stapi\AppData\Local\Temp\cc63Vocw.s:313    .text.__alcs_mqtt_send_response.constprop.0.isra.0:000000000000004e .LVL29
C:\Users\stapi\AppData\Local\Temp\cc63Vocw.s:332    .text.__alcs_mqtt_send_response.constprop.0.isra.0:000000000000006a .LVL33
C:\Users\stapi\AppData\Local\Temp\cc63Vocw.s:12213  .debug_str:0000000000000656 .LASF127
C:\Users\stapi\AppData\Local\Temp\cc63Vocw.s:12303  .debug_str:00000000000008c5 .LASF138
C:\Users\stapi\AppData\Local\Temp\cc63Vocw.s:12061  .debug_str:00000000000000b2 .LASF140
C:\Users\stapi\AppData\Local\Temp\cc63Vocw.s:12137  .debug_str:0000000000000301 .LASF128
C:\Users\stapi\AppData\Local\Temp\cc63Vocw.s:12055  .debug_str:0000000000000098 .LASF129
C:\Users\stapi\AppData\Local\Temp\cc63Vocw.s:12285  .debug_str:0000000000000853 .LASF130
C:\Users\stapi\AppData\Local\Temp\cc63Vocw.s:12339  .debug_str:0000000000000a88 .LASF131
C:\Users\stapi\AppData\Local\Temp\cc63Vocw.s:12113  .debug_str:0000000000000250 .LASF132
C:\Users\stapi\AppData\Local\Temp\cc63Vocw.s:12333  .debug_str:0000000000000988 .LASF133
C:\Users\stapi\AppData\Local\Temp\cc63Vocw.s:12273  .debug_str:0000000000000809 .LASF134
C:\Users\stapi\AppData\Local\Temp\cc63Vocw.s:12343  .debug_str:0000000000000ab7 .LASF135
C:\Users\stapi\AppData\Local\Temp\cc63Vocw.s:12243  .debug_str:0000000000000730 .LASF136
C:\Users\stapi\AppData\Local\Temp\cc63Vocw.s:12081  .debug_str:000000000000015b .LASF137
C:\Users\stapi\AppData\Local\Temp\cc63Vocw.s:12291  .debug_str:0000000000000891 .LASF139
C:\Users\stapi\AppData\Local\Temp\cc63Vocw.s:12171  .debug_str:000000000000048e .LASF141
C:\Users\stapi\AppData\Local\Temp\cc63Vocw.s:12041  .debug_str:000000000000003c .LASF142
C:\Users\stapi\AppData\Local\Temp\cc63Vocw.s:12249  .debug_str:0000000000000756 .LASF143
C:\Users\stapi\AppData\Local\Temp\cc63Vocw.s:12053  .debug_str:0000000000000090 .LASF144
C:\Users\stapi\AppData\Local\Temp\cc63Vocw.s:12235  .debug_str:000000000000070d .LASF145
C:\Users\stapi\AppData\Local\Temp\cc63Vocw.s:12245  .debug_str:0000000000000744 .LASF146
C:\Users\stapi\AppData\Local\Temp\cc63Vocw.s:12065  .debug_str:00000000000000da .LASF147
C:\Users\stapi\AppData\Local\Temp\cc63Vocw.s:12191  .debug_str:0000000000000556 .LASF148
C:\Users\stapi\AppData\Local\Temp\cc63Vocw.s:12141  .debug_str:000000000000031a .LASF149
C:\Users\stapi\AppData\Local\Temp\cc63Vocw.s:12153  .debug_str:000000000000040a .LASF150
C:\Users\stapi\AppData\Local\Temp\cc63Vocw.s:12281  .debug_str:0000000000000841 .LASF151
C:\Users\stapi\AppData\Local\Temp\cc63Vocw.s:12263  .debug_str:00000000000007ba .LASF152
C:\Users\stapi\AppData\Local\Temp\cc63Vocw.s:12227  .debug_str:00000000000006b6 .LASF153
C:\Users\stapi\AppData\Local\Temp\cc63Vocw.s:2996   .text.alcs_mqtt_subdev_prefix_get:0000000000000000 .LVL348
C:\Users\stapi\AppData\Local\Temp\cc63Vocw.s:3024   .text.alcs_mqtt_subdev_prefix_get:000000000000001e .LVL351
C:\Users\stapi\AppData\Local\Temp\cc63Vocw.s:3022   .text.alcs_mqtt_subdev_prefix_get:000000000000001c .LVL350
C:\Users\stapi\AppData\Local\Temp\cc63Vocw.s:3007   .text.alcs_mqtt_subdev_prefix_get:0000000000000008 .LVL349
C:\Users\stapi\AppData\Local\Temp\cc63Vocw.s:3041   .text.alcs_mqtt_subdev_prefix_get:0000000000000036 .LVL354
C:\Users\stapi\AppData\Local\Temp\cc63Vocw.s:3061   .text.alcs_mqtt_subdev_prefix_get:0000000000000044 .LVL356
C:\Users\stapi\AppData\Local\Temp\cc63Vocw.s:3134   .text.alcs_mqtt_subdev_prefix_get:00000000000000ec .LVL367
C:\Users\stapi\AppData\Local\Temp\cc63Vocw.s:3127   .text.alcs_mqtt_subdev_prefix_get:00000000000000e0 .LVL365
C:\Users\stapi\AppData\Local\Temp\cc63Vocw.s:3198   .text.alcs_mqtt_subdev_prefix_get:0000000000000172 .LVL379
C:\Users\stapi\AppData\Local\Temp\cc63Vocw.s:3045   .text.alcs_mqtt_subdev_prefix_get:0000000000000038 .LVL355
C:\Users\stapi\AppData\Local\Temp\cc63Vocw.s:3183   .text.alcs_mqtt_subdev_prefix_get:000000000000015e .LVL375
C:\Users\stapi\AppData\Local\Temp\cc63Vocw.s:3193   .text.alcs_mqtt_subdev_prefix_get:0000000000000166 .LVL377
C:\Users\stapi\AppData\Local\Temp\cc63Vocw.s:3191   .text.alcs_mqtt_subdev_prefix_get:0000000000000164 .LVL376
C:\Users\stapi\AppData\Local\Temp\cc63Vocw.s:2418   .text.alcs_prefixkey_get:0000000000000000 .LVL279
C:\Users\stapi\AppData\Local\Temp\cc63Vocw.s:2440   .text.alcs_prefixkey_get:0000000000000016 .LVL282
C:\Users\stapi\AppData\Local\Temp\cc63Vocw.s:2459   .text.alcs_prefixkey_get:0000000000000034 .LVL285
C:\Users\stapi\AppData\Local\Temp\cc63Vocw.s:2476   .text.alcs_prefixkey_get:0000000000000042 .LVL287
C:\Users\stapi\AppData\Local\Temp\cc63Vocw.s:2513   .text.alcs_prefixkey_get:0000000000000092 .LVL292
C:\Users\stapi\AppData\Local\Temp\cc63Vocw.s:2438   .text.alcs_prefixkey_get:0000000000000014 .LVL281
C:\Users\stapi\AppData\Local\Temp\cc63Vocw.s:2463   .text.alcs_prefixkey_get:0000000000000036 .LVL286
C:\Users\stapi\AppData\Local\Temp\cc63Vocw.s:2562   .text.alcs_prefixkey_get:00000000000000fe .LVL301
C:\Users\stapi\AppData\Local\Temp\cc63Vocw.s:2426   .text.alcs_prefixkey_get:0000000000000008 .LVL280
C:\Users\stapi\AppData\Local\Temp\cc63Vocw.s:2548   .text.alcs_prefixkey_get:00000000000000ea .LVL298
C:\Users\stapi\AppData\Local\Temp\cc63Vocw.s:2557   .text.alcs_prefixkey_get:00000000000000f2 .LVL299
C:\Users\stapi\AppData\Local\Temp\cc63Vocw.s:2249   .text.alcs_mqtt_prefixkey_update:0000000000000000 .LVL258
C:\Users\stapi\AppData\Local\Temp\cc63Vocw.s:2269   .text.alcs_mqtt_prefixkey_update:0000000000000014 .LVL260
C:\Users\stapi\AppData\Local\Temp\cc63Vocw.s:2263   .text.alcs_mqtt_prefixkey_update:000000000000000c .LVL259
C:\Users\stapi\AppData\Local\Temp\cc63Vocw.s:2333   .text.alcs_mqtt_prefixkey_update:00000000000000a0 .LVL270
C:\Users\stapi\AppData\Local\Temp\cc63Vocw.s:2351   .text.alcs_mqtt_prefixkey_update:00000000000000c4 .LVL274
C:\Users\stapi\AppData\Local\Temp\cc63Vocw.s:2346   .text.alcs_mqtt_prefixkey_update:00000000000000b6 .LVL272
C:\Users\stapi\AppData\Local\Temp\cc63Vocw.s:2142   .text.alcs_mqtt_blacklist_update:0000000000000000 .LVL249
C:\Users\stapi\AppData\Local\Temp\cc63Vocw.s:2160   .text.alcs_mqtt_blacklist_update:0000000000000014 .LVL251
C:\Users\stapi\AppData\Local\Temp\cc63Vocw.s:2154   .text.alcs_mqtt_blacklist_update:000000000000000c .LVL250
C:\Users\stapi\AppData\Local\Temp\cc63Vocw.s:2115   .text.alcs_mqtt_remove_srv_key:0000000000000000 .LVL246
C:\Users\stapi\AppData\Local\Temp\cc63Vocw.s:2124   .text.alcs_mqtt_remove_srv_key:000000000000000a .LVL247
C:\Users\stapi\AppData\Local\Temp\cc63Vocw.s:2089   .text.alcs_mqtt_add_srv_key:0000000000000000 .LVL242
C:\Users\stapi\AppData\Local\Temp\cc63Vocw.s:2100   .text.alcs_mqtt_add_srv_key:000000000000000c .LVL244
C:\Users\stapi\AppData\Local\Temp\cc63Vocw.s:2098   .text.alcs_mqtt_add_srv_key:0000000000000008 .LVL243
C:\Users\stapi\AppData\Local\Temp\cc63Vocw.s:2072   .text.alcs_mqtt_deinit:0000000000000000 .LVL240
C:\Users\stapi\AppData\Local\Temp\cc63Vocw.s:2076   .text.alcs_mqtt_deinit:0000000000000002 .LVL241
C:\Users\stapi\AppData\Local\Temp\cc63Vocw.s:2720   .text.alcs_mqtt_init:0000000000000000 .LVL310
C:\Users\stapi\AppData\Local\Temp\cc63Vocw.s:2744   .text.alcs_mqtt_init:0000000000000018 .LVL313
C:\Users\stapi\AppData\Local\Temp\cc63Vocw.s:2740   .text.alcs_mqtt_init:0000000000000012 .LVL311
C:\Users\stapi\AppData\Local\Temp\cc63Vocw.s:2830   .text.alcs_mqtt_init:00000000000000e0 .LVL326
C:\Users\stapi\AppData\Local\Temp\cc63Vocw.s:2742   .text.alcs_mqtt_init:0000000000000016 .LVL312
C:\Users\stapi\AppData\Local\Temp\cc63Vocw.s:2828   .text.alcs_mqtt_init:00000000000000dc .LVL325
C:\Users\stapi\AppData\Local\Temp\cc63Vocw.s:2858   .text.alcs_mqtt_init:0000000000000124 .LVL330
C:\Users\stapi\AppData\Local\Temp\cc63Vocw.s:2903   .text.alcs_mqtt_init:000000000000018e .LVL337
C:\Users\stapi\AppData\Local\Temp\cc63Vocw.s:2948   .text.alcs_mqtt_init:00000000000001f8 .LVL344
C:\Users\stapi\AppData\Local\Temp\cc63Vocw.s:2613   .text.iotx_alcs_get_prefixkey:000000000000002c .LVL304
C:\Users\stapi\AppData\Local\Temp\cc63Vocw.s:2697   .text.iotx_alcs_get_prefixkey:00000000000000c8 .LVL309
C:\Users\stapi\AppData\Local\Temp\cc63Vocw.s:982    .text.__alcs_mqtt_subscribe_callback:0000000000000000 .LVL103
C:\Users\stapi\AppData\Local\Temp\cc63Vocw.s:1008   .text.__alcs_mqtt_subscribe_callback:0000000000000016 .LVL106
C:\Users\stapi\AppData\Local\Temp\cc63Vocw.s:1004   .text.__alcs_mqtt_subscribe_callback:0000000000000010 .LVL104
C:\Users\stapi\AppData\Local\Temp\cc63Vocw.s:1006   .text.__alcs_mqtt_subscribe_callback:0000000000000014 .LVL105
C:\Users\stapi\AppData\Local\Temp\cc63Vocw.s:1092   .text.__alcs_mqtt_subscribe_callback:00000000000000b0 .LVL114
C:\Users\stapi\AppData\Local\Temp\cc63Vocw.s:1037   .text.__alcs_mqtt_subscribe_callback:000000000000003a .LVL109
C:\Users\stapi\AppData\Local\Temp\cc63Vocw.s:1316   .text.__alcs_mqtt_subscribe_callback:0000000000000220 .LVL141
C:\Users\stapi\AppData\Local\Temp\cc63Vocw.s:1546   .text.__alcs_mqtt_subscribe_callback:00000000000003b4 .LVL169
C:\Users\stapi\AppData\Local\Temp\cc63Vocw.s:1652   .text.__alcs_mqtt_subscribe_callback:000000000000047e .LVL184
C:\Users\stapi\AppData\Local\Temp\cc63Vocw.s:1026   .text.__alcs_mqtt_subscribe_callback:000000000000002c .LVL108
C:\Users\stapi\AppData\Local\Temp\cc63Vocw.s:1132   .text.__alcs_mqtt_subscribe_callback:00000000000000f8 .LVL118
C:\Users\stapi\AppData\Local\Temp\cc63Vocw.s:1138   .text.__alcs_mqtt_subscribe_callback:0000000000000102 .LVL120
C:\Users\stapi\AppData\Local\Temp\cc63Vocw.s:1141   .text.__alcs_mqtt_subscribe_callback:0000000000000106 .LVL121
C:\Users\stapi\AppData\Local\Temp\cc63Vocw.s:1204   .text.__alcs_mqtt_subscribe_callback:0000000000000172 .LVL132
C:\Users\stapi\AppData\Local\Temp\cc63Vocw.s:1357   .text.__alcs_mqtt_subscribe_callback:0000000000000264 .LVL145
C:\Users\stapi\AppData\Local\Temp\cc63Vocw.s:1163   .text.__alcs_mqtt_subscribe_callback:000000000000012a .LVL123
C:\Users\stapi\AppData\Local\Temp\cc63Vocw.s:1170   .text.__alcs_mqtt_subscribe_callback:0000000000000134 .LVL124
C:\Users\stapi\AppData\Local\Temp\cc63Vocw.s:1181   .text.__alcs_mqtt_subscribe_callback:000000000000014c .LVL126
C:\Users\stapi\AppData\Local\Temp\cc63Vocw.s:1185   .text.__alcs_mqtt_subscribe_callback:000000000000014e .LVL127
C:\Users\stapi\AppData\Local\Temp\cc63Vocw.s:1196   .text.__alcs_mqtt_subscribe_callback:0000000000000166 .LVL129
C:\Users\stapi\AppData\Local\Temp\cc63Vocw.s:1200   .text.__alcs_mqtt_subscribe_callback:0000000000000168 .LVL130
C:\Users\stapi\AppData\Local\Temp\cc63Vocw.s:1208   .text.__alcs_mqtt_subscribe_callback:0000000000000176 .LVL133
C:\Users\stapi\AppData\Local\Temp\cc63Vocw.s:1245   .text.__alcs_mqtt_subscribe_callback:00000000000001c0 .LVL137
C:\Users\stapi\AppData\Local\Temp\cc63Vocw.s:1258   .text.__alcs_mqtt_subscribe_callback:00000000000001ce .LVL138
C:\Users\stapi\AppData\Local\Temp\cc63Vocw.s:1406   .text.__alcs_mqtt_subscribe_callback:00000000000002c4 .LVL150
C:\Users\stapi\AppData\Local\Temp\cc63Vocw.s:1457   .text.__alcs_mqtt_subscribe_callback:0000000000000316 .LVL157
C:\Users\stapi\AppData\Local\Temp\cc63Vocw.s:1469   .text.__alcs_mqtt_subscribe_callback:0000000000000326 .LVL158
C:\Users\stapi\AppData\Local\Temp\cc63Vocw.s:1613   .text.__alcs_mqtt_subscribe_callback:000000000000043e .LVL178
C:\Users\stapi\AppData\Local\Temp\cc63Vocw.s:1635   .text.__alcs_mqtt_subscribe_callback:0000000000000464 .LVL182
C:\Users\stapi\AppData\Local\Temp\cc63Vocw.s:1665   .text.__alcs_mqtt_subscribe_callback:0000000000000498 .LVL186
C:\Users\stapi\AppData\Local\Temp\cc63Vocw.s:1671   .text.__alcs_mqtt_subscribe_callback:000000000000049c .LVL187
C:\Users\stapi\AppData\Local\Temp\cc63Vocw.s:1679   .text.__alcs_mqtt_subscribe_callback:00000000000004b2 .LVL189
C:\Users\stapi\AppData\Local\Temp\cc63Vocw.s:1413   .text.__alcs_mqtt_subscribe_callback:00000000000002ce .LVL152
C:\Users\stapi\AppData\Local\Temp\cc63Vocw.s:1423   .text.__alcs_mqtt_subscribe_callback:00000000000002d8 .LVL153
C:\Users\stapi\AppData\Local\Temp\cc63Vocw.s:1514   .text.__alcs_mqtt_subscribe_callback:0000000000000384 .LVL165
C:\Users\stapi\AppData\Local\Temp\cc63Vocw.s:1588   .text.__alcs_mqtt_subscribe_callback:000000000000040a .LVL174
C:\Users\stapi\AppData\Local\Temp\cc63Vocw.s:1522   .text.__alcs_mqtt_subscribe_callback:0000000000000392 .LVL167
C:\Users\stapi\AppData\Local\Temp\cc63Vocw.s:1729   .text.__alcs_mqtt_subscribe_callback:0000000000000512 .LVL194
C:\Users\stapi\AppData\Local\Temp\cc63Vocw.s:1829   .text.__alcs_mqtt_subscribe_callback:00000000000005d2 .LVL209
C:\Users\stapi\AppData\Local\Temp\cc63Vocw.s:1837   .text.__alcs_mqtt_subscribe_callback:00000000000005da .LVL210
C:\Users\stapi\AppData\Local\Temp\cc63Vocw.s:1776   .text.__alcs_mqtt_subscribe_callback:0000000000000562 .LVL201
C:\Users\stapi\AppData\Local\Temp\cc63Vocw.s:1780   .text.__alcs_mqtt_subscribe_callback:0000000000000564 .LVL202
C:\Users\stapi\AppData\Local\Temp\cc63Vocw.s:1735   .text.__alcs_mqtt_subscribe_callback:000000000000051c .LVL196
C:\Users\stapi\AppData\Local\Temp\cc63Vocw.s:1745   .text.__alcs_mqtt_subscribe_callback:0000000000000526 .LVL197
C:\Users\stapi\AppData\Local\Temp\cc63Vocw.s:1865   .text.alcs_mqtt_prefix_secret_del:0000000000000000 .LVL213
C:\Users\stapi\AppData\Local\Temp\cc63Vocw.s:1891   .text.alcs_mqtt_prefix_secret_del:0000000000000016 .LVL217
C:\Users\stapi\AppData\Local\Temp\cc63Vocw.s:1887   .text.alcs_mqtt_prefix_secret_del:0000000000000012 .LVL215
C:\Users\stapi\AppData\Local\Temp\cc63Vocw.s:1889   .text.alcs_mqtt_prefix_secret_del:0000000000000014 .LVL216
C:\Users\stapi\AppData\Local\Temp\cc63Vocw.s:1876   .text.alcs_mqtt_prefix_secret_del:0000000000000008 .LVL214
C:\Users\stapi\AppData\Local\Temp\cc63Vocw.s:1933   .text.alcs_mqtt_prefix_secret_del:000000000000006c .LVL222
C:\Users\stapi\AppData\Local\Temp\cc63Vocw.s:1964   .text.alcs_mqtt_prefix_secret_del:0000000000000092 .LVL225
C:\Users\stapi\AppData\Local\Temp\cc63Vocw.s:1977   .text.alcs_mqtt_prefix_secret_del:00000000000000a8 .LVL227
C:\Users\stapi\AppData\Local\Temp\cc63Vocw.s:670    .text.alcs_mqtt_prefix_secret_load:0000000000000000 .LVL71
C:\Users\stapi\AppData\Local\Temp\cc63Vocw.s:698    .text.alcs_mqtt_prefix_secret_load:0000000000000016 .LVL75
C:\Users\stapi\AppData\Local\Temp\cc63Vocw.s:774    .text.alcs_mqtt_prefix_secret_load:00000000000000aa .LVL84
C:\Users\stapi\AppData\Local\Temp\cc63Vocw.s:792    .text.alcs_mqtt_prefix_secret_load:00000000000000b6 .LVL85
C:\Users\stapi\AppData\Local\Temp\cc63Vocw.s:887    .text.alcs_mqtt_prefix_secret_load:000000000000018c .LVL99
C:\Users\stapi\AppData\Local\Temp\cc63Vocw.s:694    .text.alcs_mqtt_prefix_secret_load:0000000000000012 .LVL73
C:\Users\stapi\AppData\Local\Temp\cc63Vocw.s:696    .text.alcs_mqtt_prefix_secret_load:0000000000000014 .LVL74
C:\Users\stapi\AppData\Local\Temp\cc63Vocw.s:683    .text.alcs_mqtt_prefix_secret_load:0000000000000008 .LVL72
C:\Users\stapi\AppData\Local\Temp\cc63Vocw.s:758    .text.alcs_mqtt_prefix_secret_load:0000000000000090 .LVL81
C:\Users\stapi\AppData\Local\Temp\cc63Vocw.s:805    .text.alcs_mqtt_prefix_secret_load:00000000000000cc .LVL87
C:\Users\stapi\AppData\Local\Temp\cc63Vocw.s:374    .text.__alcs_mqtt_prefix_secret_save:0000000000000000 .LVL35
C:\Users\stapi\AppData\Local\Temp\cc63Vocw.s:404    .text.__alcs_mqtt_prefix_secret_save:0000000000000016 .LVL39
C:\Users\stapi\AppData\Local\Temp\cc63Vocw.s:482    .text.__alcs_mqtt_prefix_secret_save:000000000000008e .LVL45
C:\Users\stapi\AppData\Local\Temp\cc63Vocw.s:518    .text.__alcs_mqtt_prefix_secret_save:00000000000000d2 .LVL50
C:\Users\stapi\AppData\Local\Temp\cc63Vocw.s:400    .text.__alcs_mqtt_prefix_secret_save:0000000000000012 .LVL37
C:\Users\stapi\AppData\Local\Temp\cc63Vocw.s:402    .text.__alcs_mqtt_prefix_secret_save:0000000000000014 .LVL38
C:\Users\stapi\AppData\Local\Temp\cc63Vocw.s:389    .text.__alcs_mqtt_prefix_secret_save:0000000000000008 .LVL36
C:\Users\stapi\AppData\Local\Temp\cc63Vocw.s:447    .text.__alcs_mqtt_prefix_secret_save:0000000000000068 .LVL42
C:\Users\stapi\AppData\Local\Temp\cc63Vocw.s:495    .text.__alcs_mqtt_prefix_secret_save:00000000000000a4 .LVL47
C:\Users\stapi\AppData\Local\Temp\cc63Vocw.s:553    .text.__alcs_mqtt_prefix_secret_save:0000000000000124 .LVL56
C:\Users\stapi\AppData\Local\Temp\cc63Vocw.s:27     .text.__alcs_mqtt_kv_del:0000000000000000 .LVL0
C:\Users\stapi\AppData\Local\Temp\cc63Vocw.s:40     .text.__alcs_mqtt_kv_del:0000000000000014 .LVL2
C:\Users\stapi\AppData\Local\Temp\cc63Vocw.s:92     .text.__alcs_mqtt_kv_get:0000000000000000 .LVL6
C:\Users\stapi\AppData\Local\Temp\cc63Vocw.s:105    .text.__alcs_mqtt_kv_get:0000000000000014 .LVL8
C:\Users\stapi\AppData\Local\Temp\cc63Vocw.s:153    .text.__alcs_mqtt_subscribe.constprop.0:0000000000000000 .LVL12
C:\Users\stapi\AppData\Local\Temp\cc63Vocw.s:169    .text.__alcs_mqtt_subscribe.constprop.0:000000000000001e .LVL14
C:\Users\stapi\AppData\Local\Temp\cc63Vocw.s:191    .text.__alcs_mqtt_kv_set.constprop.0:0000000000000000 .LVL16
C:\Users\stapi\AppData\Local\Temp\cc63Vocw.s:210    .text.__alcs_mqtt_kv_set.constprop.0:0000000000000018 .LVL19
C:\Users\stapi\AppData\Local\Temp\cc63Vocw.s:267    .text.__alcs_mqtt_send_response.constprop.0.isra.0:0000000000000000 .LVL23
C:\Users\stapi\AppData\Local\Temp\cc63Vocw.s:292    .text.__alcs_mqtt_send_response.constprop.0.isra.0:0000000000000016 .LVL26
C:\Users\stapi\AppData\Local\Temp\cc63Vocw.s:290    .text.__alcs_mqtt_send_response.constprop.0.isra.0:0000000000000014 .LVL25
C:\Users\stapi\AppData\Local\Temp\cc63Vocw.s:338    .text.__alcs_mqtt_send_response.constprop.0.isra.0:000000000000006c .LVL34
C:\Users\stapi\AppData\Local\Temp\cc63Vocw.s:273    .text.__alcs_mqtt_send_response.constprop.0.isra.0:0000000000000008 .LVL24
C:\Users\stapi\AppData\Local\Temp\cc63Vocw.s:315    .text.__alcs_mqtt_send_response.constprop.0.isra.0:0000000000000050 .LVL30
C:\Users\stapi\AppData\Local\Temp\cc63Vocw.s:324    .text.__alcs_mqtt_send_response.constprop.0.isra.0:0000000000000058 .LVL31
C:\Users\stapi\AppData\Local\Temp\cc63Vocw.s:3251   .debug_info:0000000000000000 .Ldebug_info0
C:\Users\stapi\AppData\Local\Temp\cc63Vocw.s:1112   .text.__alcs_mqtt_subscribe_callback:00000000000000dc .LBB28
C:\Users\stapi\AppData\Local\Temp\cc63Vocw.s:1299   .text.__alcs_mqtt_subscribe_callback:0000000000000216 .LBE28
C:\Users\stapi\AppData\Local\Temp\cc63Vocw.s:1319   .text.__alcs_mqtt_subscribe_callback:0000000000000220 .LBB30
C:\Users\stapi\AppData\Local\Temp\cc63Vocw.s:1359   .text.__alcs_mqtt_subscribe_callback:0000000000000264 .LBE30
C:\Users\stapi\AppData\Local\Temp\cc63Vocw.s:1390   .text.__alcs_mqtt_subscribe_callback:00000000000002ae .LBB31
C:\Users\stapi\AppData\Local\Temp\cc63Vocw.s:1616   .text.__alcs_mqtt_subscribe_callback:000000000000043e .LBE31
C:\Users\stapi\AppData\Local\Temp\cc63Vocw.s:1638   .text.__alcs_mqtt_subscribe_callback:0000000000000464 .LBB41
C:\Users\stapi\AppData\Local\Temp\cc63Vocw.s:1682   .text.__alcs_mqtt_subscribe_callback:00000000000004b2 .LBE41
C:\Users\stapi\AppData\Local\Temp\cc63Vocw.s:1444   .text.__alcs_mqtt_subscribe_callback:00000000000002fe .LBB32
C:\Users\stapi\AppData\Local\Temp\cc63Vocw.s:1615   .text.__alcs_mqtt_subscribe_callback:000000000000043e .LBE32
C:\Users\stapi\AppData\Local\Temp\cc63Vocw.s:1639   .text.__alcs_mqtt_subscribe_callback:0000000000000464 .LBB37
C:\Users\stapi\AppData\Local\Temp\cc63Vocw.s:1681   .text.__alcs_mqtt_subscribe_callback:00000000000004b2 .LBE37
C:\Users\stapi\AppData\Local\Temp\cc63Vocw.s:1463   .text.__alcs_mqtt_subscribe_callback:000000000000031e .LBB33
C:\Users\stapi\AppData\Local\Temp\cc63Vocw.s:1591   .text.__alcs_mqtt_subscribe_callback:000000000000040a .LBE33
C:\Users\stapi\AppData\Local\Temp\cc63Vocw.s:1640   .text.__alcs_mqtt_subscribe_callback:0000000000000464 .LBB36
C:\Users\stapi\AppData\Local\Temp\cc63Vocw.s:1667   .text.__alcs_mqtt_subscribe_callback:0000000000000498 .LBE36
C:\Users\stapi\AppData\Local\Temp\cc63Vocw.s:1535   .text.__alcs_mqtt_subscribe_callback:00000000000003a8 .LBB34
C:\Users\stapi\AppData\Local\Temp\cc63Vocw.s:1590   .text.__alcs_mqtt_subscribe_callback:000000000000040a .LBE34
C:\Users\stapi\AppData\Local\Temp\cc63Vocw.s:1641   .text.__alcs_mqtt_subscribe_callback:0000000000000464 .LBB35
C:\Users\stapi\AppData\Local\Temp\cc63Vocw.s:1654   .text.__alcs_mqtt_subscribe_callback:000000000000047e .LBE35
C:\Users\stapi\AppData\Local\Temp\cc63Vocw.s:1617   .text.__alcs_mqtt_subscribe_callback:000000000000043e .LBB38
C:\Users\stapi\AppData\Local\Temp\cc63Vocw.s:1637   .text.__alcs_mqtt_subscribe_callback:0000000000000464 .LBE38
C:\Users\stapi\AppData\Local\Temp\cc63Vocw.s:1713   .text.__alcs_mqtt_subscribe_callback:00000000000004fc .LBB42
C:\Users\stapi\AppData\Local\Temp\cc63Vocw.s:1853   .text.__alcs_mqtt_subscribe_callback:00000000000005f8 .LBE42
C:\Users\stapi\AppData\Local\Temp\cc63Vocw.s:1618   .text.__alcs_mqtt_subscribe_callback:000000000000043e .LBB39
C:\Users\stapi\AppData\Local\Temp\cc63Vocw.s:1632   .text.__alcs_mqtt_subscribe_callback:0000000000000462 .LBE39
C:\Users\stapi\AppData\Local\Temp\cc63Vocw.s:1767   .text.__alcs_mqtt_subscribe_callback:0000000000000550 .LBB40
C:\Users\stapi\AppData\Local\Temp\cc63Vocw.s:1831   .text.__alcs_mqtt_subscribe_callback:00000000000005d2 .LBE40
C:\Users\stapi\AppData\Local\Temp\cc63Vocw.s:2595   .text.iotx_alcs_get_prefixkey:0000000000000012 .LBB47
C:\Users\stapi\AppData\Local\Temp\cc63Vocw.s:2597   .text.iotx_alcs_get_prefixkey:0000000000000012 .LBE47
C:\Users\stapi\AppData\Local\Temp\cc63Vocw.s:2601   .text.iotx_alcs_get_prefixkey:0000000000000014 .LBB49
C:\Users\stapi\AppData\Local\Temp\cc63Vocw.s:2631   .text.iotx_alcs_get_prefixkey:0000000000000056 .LBE49
C:\Users\stapi\AppData\Local\Temp\cc63Vocw.s:2644   .text.iotx_alcs_get_prefixkey:0000000000000060 .LBB50
C:\Users\stapi\AppData\Local\Temp\cc63Vocw.s:2694   .text.iotx_alcs_get_prefixkey:00000000000000c6 .LBE50

UNDEFINED SYMBOLS
__riscv_save_1
aos_kv_del
HAL_Printf
__riscv_restore_1
aos_kv_get
__riscv_save_0
IOT_MQTT_Subscribe
__riscv_restore_0
__riscv_save_2
aos_kv_set
__riscv_restore_2
LITE_malloc_internal
snprintf
strlen
IOT_MQTT_Publish_Simple
LITE_free_internal
__riscv_save_10
memset
__riscv_restore_10
HAL_Snprintf
utils_md5
utils_md5_hexstr
__riscv_save_8
__riscv_restore_8
memcpy
__riscv_save_9
strncmp
json_get_value_by_name
alcs_add_svr_key
__riscv_restore_9
strncpy
HAL_GetProductKey
HAL_GetDeviceName
atoi
alcs_set_revocation
__riscv_save_6
__riscv_restore_6
alcs_remove_svr_key
__riscv_save_4
__riscv_restore_4
__riscv_save_3
__riscv_restore_3
HAL_UptimeMs
