   1              		.file	"CoAPSerialize.c"
   2              		.option nopic
   3              		.attribute arch, "rv32i2p0_m2p0_a2p0_f2p0_c2p0_b_p0p94"
   4              		.attribute unaligned_access, 0
   5              		.attribute stack_align, 16
   6              		.text
   7              	.Ltext0:
   8              		.cfi_sections	.debug_frame
   9              		.section	.text.CoAPSerialize_Header,"ax",@progbits
  10              		.align	1
  11              		.globl	CoAPSerialize_Header
  13              	CoAPSerialize_Header:
  14              	.LFB20:
  15              		.file 1 "C:/Users/stapi/OneDrive/Desktop/GD32VW553/V1_MQTT_OK/GD32VW55X_Wifi_BLE_SDK/GD32VW55x_REL
   1:C:/Users/stapi/OneDrive/Desktop/GD32VW553/V1_MQTT_OK/GD32VW55X_Wifi_BLE_SDK/GD32VW55x_RELEASE_V1.0.2/MSDK/cloud/alicloud/src/protocol/coap/local\CoAPSerialize.c **** /*
   2:C:/Users/stapi/OneDrive/Desktop/GD32VW553/V1_MQTT_OK/GD32VW55X_Wifi_BLE_SDK/GD32VW55x_RELEASE_V1.0.2/MSDK/cloud/alicloud/src/protocol/coap/local\CoAPSerialize.c ****  * Copyright (C) 2015-2018 Alibaba Group Holding Limited
   3:C:/Users/stapi/OneDrive/Desktop/GD32VW553/V1_MQTT_OK/GD32VW55X_Wifi_BLE_SDK/GD32VW55x_RELEASE_V1.0.2/MSDK/cloud/alicloud/src/protocol/coap/local\CoAPSerialize.c ****  */
   4:C:/Users/stapi/OneDrive/Desktop/GD32VW553/V1_MQTT_OK/GD32VW55X_Wifi_BLE_SDK/GD32VW55x_RELEASE_V1.0.2/MSDK/cloud/alicloud/src/protocol/coap/local\CoAPSerialize.c **** 
   5:C:/Users/stapi/OneDrive/Desktop/GD32VW553/V1_MQTT_OK/GD32VW55X_Wifi_BLE_SDK/GD32VW55x_RELEASE_V1.0.2/MSDK/cloud/alicloud/src/protocol/coap/local\CoAPSerialize.c **** 
   6:C:/Users/stapi/OneDrive/Desktop/GD32VW553/V1_MQTT_OK/GD32VW55X_Wifi_BLE_SDK/GD32VW55x_RELEASE_V1.0.2/MSDK/cloud/alicloud/src/protocol/coap/local\CoAPSerialize.c **** 
   7:C:/Users/stapi/OneDrive/Desktop/GD32VW553/V1_MQTT_OK/GD32VW55X_Wifi_BLE_SDK/GD32VW55x_RELEASE_V1.0.2/MSDK/cloud/alicloud/src/protocol/coap/local\CoAPSerialize.c **** 
   8:C:/Users/stapi/OneDrive/Desktop/GD32VW553/V1_MQTT_OK/GD32VW55X_Wifi_BLE_SDK/GD32VW55x_RELEASE_V1.0.2/MSDK/cloud/alicloud/src/protocol/coap/local\CoAPSerialize.c **** #include <stdio.h>
   9:C:/Users/stapi/OneDrive/Desktop/GD32VW553/V1_MQTT_OK/GD32VW55X_Wifi_BLE_SDK/GD32VW55x_RELEASE_V1.0.2/MSDK/cloud/alicloud/src/protocol/coap/local\CoAPSerialize.c **** #include <string.h>
  10:C:/Users/stapi/OneDrive/Desktop/GD32VW553/V1_MQTT_OK/GD32VW55X_Wifi_BLE_SDK/GD32VW55x_RELEASE_V1.0.2/MSDK/cloud/alicloud/src/protocol/coap/local\CoAPSerialize.c **** #include "CoAPSerialize.h"
  11:C:/Users/stapi/OneDrive/Desktop/GD32VW553/V1_MQTT_OK/GD32VW55X_Wifi_BLE_SDK/GD32VW55x_RELEASE_V1.0.2/MSDK/cloud/alicloud/src/protocol/coap/local\CoAPSerialize.c **** #include "lite-list.h"
  12:C:/Users/stapi/OneDrive/Desktop/GD32VW553/V1_MQTT_OK/GD32VW55X_Wifi_BLE_SDK/GD32VW55x_RELEASE_V1.0.2/MSDK/cloud/alicloud/src/protocol/coap/local\CoAPSerialize.c **** #include "CoAPExport.h"
  13:C:/Users/stapi/OneDrive/Desktop/GD32VW553/V1_MQTT_OK/GD32VW55X_Wifi_BLE_SDK/GD32VW55x_RELEASE_V1.0.2/MSDK/cloud/alicloud/src/protocol/coap/local\CoAPSerialize.c **** 
  14:C:/Users/stapi/OneDrive/Desktop/GD32VW553/V1_MQTT_OK/GD32VW55X_Wifi_BLE_SDK/GD32VW55x_RELEASE_V1.0.2/MSDK/cloud/alicloud/src/protocol/coap/local\CoAPSerialize.c **** int CoAPSerialize_Header(CoAPMessage *msg, unsigned char *buf, unsigned short buflen)
  15:C:/Users/stapi/OneDrive/Desktop/GD32VW553/V1_MQTT_OK/GD32VW55X_Wifi_BLE_SDK/GD32VW55x_RELEASE_V1.0.2/MSDK/cloud/alicloud/src/protocol/coap/local\CoAPSerialize.c **** {
  16              		.loc 1 15 1
  17              		.cfi_startproc
  18              	.LVL0:
  16:C:/Users/stapi/OneDrive/Desktop/GD32VW553/V1_MQTT_OK/GD32VW55X_Wifi_BLE_SDK/GD32VW55x_RELEASE_V1.0.2/MSDK/cloud/alicloud/src/protocol/coap/local\CoAPSerialize.c ****     if(4 > buflen){
  19              		.loc 1 16 5
  20              		.loc 1 16 7 is_stmt 0
  21 0000 8D47     		li	a5,3
  22 0002 63FFC702 		bleu	a2,a5,.L3
  23              	.LVL1:
  24              	.LBB4:
  25              	.LBB5:
  17:C:/Users/stapi/OneDrive/Desktop/GD32VW553/V1_MQTT_OK/GD32VW55X_Wifi_BLE_SDK/GD32VW55x_RELEASE_V1.0.2/MSDK/cloud/alicloud/src/protocol/coap/local\CoAPSerialize.c ****         return 0;
  18:C:/Users/stapi/OneDrive/Desktop/GD32VW553/V1_MQTT_OK/GD32VW55X_Wifi_BLE_SDK/GD32VW55x_RELEASE_V1.0.2/MSDK/cloud/alicloud/src/protocol/coap/local\CoAPSerialize.c ****     }
  19:C:/Users/stapi/OneDrive/Desktop/GD32VW553/V1_MQTT_OK/GD32VW55X_Wifi_BLE_SDK/GD32VW55x_RELEASE_V1.0.2/MSDK/cloud/alicloud/src/protocol/coap/local\CoAPSerialize.c ****     buf[0] = (((msg->header.version & 0x3) << 6) | ((msg->header.type & 0x3) << 4))
  26              		.loc 1 19 5 is_stmt 1
  27              		.loc 1 19 28 is_stmt 0
  28 0006 1841     		lw	a4,0(a0)
  29 0008 93773700 		andi	a5,a4,3
  30              		.loc 1 19 65
  31 000c 93162700 		slli	a3,a4,2
  32              		.loc 1 19 78
  33 0010 93F60603 		andi	a3,a3,48
  34              		.loc 1 19 44
  35 0014 9A07     		slli	a5,a5,6
  20:C:/Users/stapi/OneDrive/Desktop/GD32VW553/V1_MQTT_OK/GD32VW55X_Wifi_BLE_SDK/GD32VW55x_RELEASE_V1.0.2/MSDK/cloud/alicloud/src/protocol/coap/local\CoAPSerialize.c ****                 | (msg->header.tokenlen & 0x0F);
  36              		.loc 1 20 31
  37 0016 1183     		srli	a4,a4,4
  19:C:/Users/stapi/OneDrive/Desktop/GD32VW553/V1_MQTT_OK/GD32VW55X_Wifi_BLE_SDK/GD32VW55x_RELEASE_V1.0.2/MSDK/cloud/alicloud/src/protocol/coap/local\CoAPSerialize.c ****                 | (msg->header.tokenlen & 0x0F);
  38              		.loc 1 19 50
  39 0018 D58F     		or	a5,a5,a3
  40              		.loc 1 20 31
  41 001a 3D8B     		andi	a4,a4,15
  42              		.loc 1 20 17
  43 001c D98F     		or	a5,a5,a4
  19:C:/Users/stapi/OneDrive/Desktop/GD32VW553/V1_MQTT_OK/GD32VW55X_Wifi_BLE_SDK/GD32VW55x_RELEASE_V1.0.2/MSDK/cloud/alicloud/src/protocol/coap/local\CoAPSerialize.c ****                 | (msg->header.tokenlen & 0x0F);
  44              		.loc 1 19 12
  45 001e 2380F500 		sb	a5,0(a1)
  21:C:/Users/stapi/OneDrive/Desktop/GD32VW553/V1_MQTT_OK/GD32VW55X_Wifi_BLE_SDK/GD32VW55x_RELEASE_V1.0.2/MSDK/cloud/alicloud/src/protocol/coap/local\CoAPSerialize.c **** 
  22:C:/Users/stapi/OneDrive/Desktop/GD32VW553/V1_MQTT_OK/GD32VW55X_Wifi_BLE_SDK/GD32VW55x_RELEASE_V1.0.2/MSDK/cloud/alicloud/src/protocol/coap/local\CoAPSerialize.c ****     buf[1] = msg->header.code;
  46              		.loc 1 22 5 is_stmt 1
  47              		.loc 1 22 25 is_stmt 0
  48 0022 83471500 		lbu	a5,1(a0)
  49              		.loc 1 22 12
  50 0026 A380F500 		sb	a5,1(a1)
  23:C:/Users/stapi/OneDrive/Desktop/GD32VW553/V1_MQTT_OK/GD32VW55X_Wifi_BLE_SDK/GD32VW55x_RELEASE_V1.0.2/MSDK/cloud/alicloud/src/protocol/coap/local\CoAPSerialize.c ****     buf[2] = (msg->header.msgid & 0xFF00) >> 8;
  51              		.loc 1 23 5 is_stmt 1
  52              		.loc 1 23 43 is_stmt 0
  53 002a 83572500 		lhu	a5,2(a0)
  54 002e A183     		srli	a5,a5,8
  55              		.loc 1 23 12
  56 0030 2381F500 		sb	a5,2(a1)
  24:C:/Users/stapi/OneDrive/Desktop/GD32VW553/V1_MQTT_OK/GD32VW55X_Wifi_BLE_SDK/GD32VW55x_RELEASE_V1.0.2/MSDK/cloud/alicloud/src/protocol/coap/local\CoAPSerialize.c ****     buf[3] = (msg->header.msgid & 0x00FF);
  57              		.loc 1 24 5 is_stmt 1
  58              		.loc 1 24 12 is_stmt 0
  59 0034 83572500 		lhu	a5,2(a0)
  60 0038 1145     		li	a0,4
  61              	.LVL2:
  62 003a A381F500 		sb	a5,3(a1)
  25:C:/Users/stapi/OneDrive/Desktop/GD32VW553/V1_MQTT_OK/GD32VW55X_Wifi_BLE_SDK/GD32VW55x_RELEASE_V1.0.2/MSDK/cloud/alicloud/src/protocol/coap/local\CoAPSerialize.c **** 
  26:C:/Users/stapi/OneDrive/Desktop/GD32VW553/V1_MQTT_OK/GD32VW55X_Wifi_BLE_SDK/GD32VW55x_RELEASE_V1.0.2/MSDK/cloud/alicloud/src/protocol/coap/local\CoAPSerialize.c ****     return 4;
  63              		.loc 1 26 5 is_stmt 1
  64              	.LVL3:
  65 003e 8280     		ret
  66              	.LVL4:
  67              	.L3:
  68              	.LBE5:
  69              	.LBE4:
  17:C:/Users/stapi/OneDrive/Desktop/GD32VW553/V1_MQTT_OK/GD32VW55X_Wifi_BLE_SDK/GD32VW55x_RELEASE_V1.0.2/MSDK/cloud/alicloud/src/protocol/coap/local\CoAPSerialize.c ****     }
  70              		.loc 1 17 16 is_stmt 0
  71 0040 0145     		li	a0,0
  72              	.LVL5:
  27:C:/Users/stapi/OneDrive/Desktop/GD32VW553/V1_MQTT_OK/GD32VW55X_Wifi_BLE_SDK/GD32VW55x_RELEASE_V1.0.2/MSDK/cloud/alicloud/src/protocol/coap/local\CoAPSerialize.c **** }
  73              		.loc 1 27 1
  74 0042 8280     		ret
  75              		.cfi_endproc
  76              	.LFE20:
  78              		.section	.text.CoAPSerialize_Token,"ax",@progbits
  79              		.align	1
  80              		.globl	CoAPSerialize_Token
  82              	CoAPSerialize_Token:
  83              	.LFB21:
  28:C:/Users/stapi/OneDrive/Desktop/GD32VW553/V1_MQTT_OK/GD32VW55X_Wifi_BLE_SDK/GD32VW55x_RELEASE_V1.0.2/MSDK/cloud/alicloud/src/protocol/coap/local\CoAPSerialize.c **** 
  29:C:/Users/stapi/OneDrive/Desktop/GD32VW553/V1_MQTT_OK/GD32VW55X_Wifi_BLE_SDK/GD32VW55x_RELEASE_V1.0.2/MSDK/cloud/alicloud/src/protocol/coap/local\CoAPSerialize.c **** int CoAPSerialize_Token(CoAPMessage *msg, unsigned char * buf, unsigned short buflen)
  30:C:/Users/stapi/OneDrive/Desktop/GD32VW553/V1_MQTT_OK/GD32VW55X_Wifi_BLE_SDK/GD32VW55x_RELEASE_V1.0.2/MSDK/cloud/alicloud/src/protocol/coap/local\CoAPSerialize.c **** {
  84              		.loc 1 30 1 is_stmt 1
  85              		.cfi_startproc
  86              	.LVL6:
  31:C:/Users/stapi/OneDrive/Desktop/GD32VW553/V1_MQTT_OK/GD32VW55X_Wifi_BLE_SDK/GD32VW55x_RELEASE_V1.0.2/MSDK/cloud/alicloud/src/protocol/coap/local\CoAPSerialize.c ****     int i = 0;
  87              		.loc 1 31 5
  32:C:/Users/stapi/OneDrive/Desktop/GD32VW553/V1_MQTT_OK/GD32VW55X_Wifi_BLE_SDK/GD32VW55x_RELEASE_V1.0.2/MSDK/cloud/alicloud/src/protocol/coap/local\CoAPSerialize.c **** 
  33:C:/Users/stapi/OneDrive/Desktop/GD32VW553/V1_MQTT_OK/GD32VW55X_Wifi_BLE_SDK/GD32VW55x_RELEASE_V1.0.2/MSDK/cloud/alicloud/src/protocol/coap/local\CoAPSerialize.c ****     if(buflen < msg->header.tokenlen){
  88              		.loc 1 33 5
  89              		.loc 1 33 28 is_stmt 0
  90 0000 1C41     		lw	a5,0(a0)
  30:C:/Users/stapi/OneDrive/Desktop/GD32VW553/V1_MQTT_OK/GD32VW55X_Wifi_BLE_SDK/GD32VW55x_RELEASE_V1.0.2/MSDK/cloud/alicloud/src/protocol/coap/local\CoAPSerialize.c ****     int i = 0;
  91              		.loc 1 30 1
  92 0002 AA86     		mv	a3,a0
  93              	.LBB8:
  94              	.LBB9:
  34:C:/Users/stapi/OneDrive/Desktop/GD32VW553/V1_MQTT_OK/GD32VW55X_Wifi_BLE_SDK/GD32VW55x_RELEASE_V1.0.2/MSDK/cloud/alicloud/src/protocol/coap/local\CoAPSerialize.c ****         return 0;
  35:C:/Users/stapi/OneDrive/Desktop/GD32VW553/V1_MQTT_OK/GD32VW55X_Wifi_BLE_SDK/GD32VW55x_RELEASE_V1.0.2/MSDK/cloud/alicloud/src/protocol/coap/local\CoAPSerialize.c ****     }
  36:C:/Users/stapi/OneDrive/Desktop/GD32VW553/V1_MQTT_OK/GD32VW55X_Wifi_BLE_SDK/GD32VW55x_RELEASE_V1.0.2/MSDK/cloud/alicloud/src/protocol/coap/local\CoAPSerialize.c ****     for (i = 0; i < msg->header.tokenlen; i++){
  95              		.loc 1 36 12
  96 0004 0147     		li	a4,0
  97              	.LBE9:
  98              	.LBE8:
  33:C:/Users/stapi/OneDrive/Desktop/GD32VW553/V1_MQTT_OK/GD32VW55X_Wifi_BLE_SDK/GD32VW55x_RELEASE_V1.0.2/MSDK/cloud/alicloud/src/protocol/coap/local\CoAPSerialize.c ****         return 0;
  99              		.loc 1 33 28
 100 0006 9183     		srli	a5,a5,4
  33:C:/Users/stapi/OneDrive/Desktop/GD32VW553/V1_MQTT_OK/GD32VW55X_Wifi_BLE_SDK/GD32VW55x_RELEASE_V1.0.2/MSDK/cloud/alicloud/src/protocol/coap/local\CoAPSerialize.c ****         return 0;
 101              		.loc 1 33 7
 102 0008 BD8B     		andi	a5,a5,15
 103 000a 637DF600 		bleu	a5,a2,.L6
  34:C:/Users/stapi/OneDrive/Desktop/GD32VW553/V1_MQTT_OK/GD32VW55X_Wifi_BLE_SDK/GD32VW55x_RELEASE_V1.0.2/MSDK/cloud/alicloud/src/protocol/coap/local\CoAPSerialize.c ****         return 0;
 104              		.loc 1 34 16
 105 000e 0145     		li	a0,0
 106              	.LVL7:
  37:C:/Users/stapi/OneDrive/Desktop/GD32VW553/V1_MQTT_OK/GD32VW55X_Wifi_BLE_SDK/GD32VW55x_RELEASE_V1.0.2/MSDK/cloud/alicloud/src/protocol/coap/local\CoAPSerialize.c ****         buf[i] = msg->token[i];
  38:C:/Users/stapi/OneDrive/Desktop/GD32VW553/V1_MQTT_OK/GD32VW55X_Wifi_BLE_SDK/GD32VW55x_RELEASE_V1.0.2/MSDK/cloud/alicloud/src/protocol/coap/local\CoAPSerialize.c ****     }
  39:C:/Users/stapi/OneDrive/Desktop/GD32VW553/V1_MQTT_OK/GD32VW55X_Wifi_BLE_SDK/GD32VW55x_RELEASE_V1.0.2/MSDK/cloud/alicloud/src/protocol/coap/local\CoAPSerialize.c ****     return msg->header.tokenlen;
  40:C:/Users/stapi/OneDrive/Desktop/GD32VW553/V1_MQTT_OK/GD32VW55X_Wifi_BLE_SDK/GD32VW55x_RELEASE_V1.0.2/MSDK/cloud/alicloud/src/protocol/coap/local\CoAPSerialize.c **** }
 107              		.loc 1 40 1
 108 0010 8280     		ret
 109              	.LVL8:
 110              	.L7:
 111              	.LBB11:
 112              	.LBB10:
  37:C:/Users/stapi/OneDrive/Desktop/GD32VW553/V1_MQTT_OK/GD32VW55X_Wifi_BLE_SDK/GD32VW55x_RELEASE_V1.0.2/MSDK/cloud/alicloud/src/protocol/coap/local\CoAPSerialize.c ****         buf[i] = msg->token[i];
 113              		.loc 1 37 9 is_stmt 1
  37:C:/Users/stapi/OneDrive/Desktop/GD32VW553/V1_MQTT_OK/GD32VW55X_Wifi_BLE_SDK/GD32VW55x_RELEASE_V1.0.2/MSDK/cloud/alicloud/src/protocol/coap/local\CoAPSerialize.c ****         buf[i] = msg->token[i];
 114              		.loc 1 37 28 is_stmt 0
 115 0012 B387E600 		add	a5,a3,a4
 116 0016 03C64700 		lbu	a2,4(a5)
  37:C:/Users/stapi/OneDrive/Desktop/GD32VW553/V1_MQTT_OK/GD32VW55X_Wifi_BLE_SDK/GD32VW55x_RELEASE_V1.0.2/MSDK/cloud/alicloud/src/protocol/coap/local\CoAPSerialize.c ****         buf[i] = msg->token[i];
 117              		.loc 1 37 16
 118 001a B387E500 		add	a5,a1,a4
  36:C:/Users/stapi/OneDrive/Desktop/GD32VW553/V1_MQTT_OK/GD32VW55X_Wifi_BLE_SDK/GD32VW55x_RELEASE_V1.0.2/MSDK/cloud/alicloud/src/protocol/coap/local\CoAPSerialize.c ****         buf[i] = msg->token[i];
 119              		.loc 1 36 44
 120 001e 0507     		addi	a4,a4,1
 121              	.LVL9:
  37:C:/Users/stapi/OneDrive/Desktop/GD32VW553/V1_MQTT_OK/GD32VW55X_Wifi_BLE_SDK/GD32VW55x_RELEASE_V1.0.2/MSDK/cloud/alicloud/src/protocol/coap/local\CoAPSerialize.c ****         buf[i] = msg->token[i];
 122              		.loc 1 37 16
 123 0020 2380C700 		sb	a2,0(a5)
  36:C:/Users/stapi/OneDrive/Desktop/GD32VW553/V1_MQTT_OK/GD32VW55X_Wifi_BLE_SDK/GD32VW55x_RELEASE_V1.0.2/MSDK/cloud/alicloud/src/protocol/coap/local\CoAPSerialize.c ****         buf[i] = msg->token[i];
 124              		.loc 1 36 43 is_stmt 1
 125              	.LVL10:
 126              	.L6:
  36:C:/Users/stapi/OneDrive/Desktop/GD32VW553/V1_MQTT_OK/GD32VW55X_Wifi_BLE_SDK/GD32VW55x_RELEASE_V1.0.2/MSDK/cloud/alicloud/src/protocol/coap/local\CoAPSerialize.c ****         buf[i] = msg->token[i];
 127              		.loc 1 36 17
  36:C:/Users/stapi/OneDrive/Desktop/GD32VW553/V1_MQTT_OK/GD32VW55X_Wifi_BLE_SDK/GD32VW55x_RELEASE_V1.0.2/MSDK/cloud/alicloud/src/protocol/coap/local\CoAPSerialize.c ****         buf[i] = msg->token[i];
 128              		.loc 1 36 32 is_stmt 0
 129 0024 9C42     		lw	a5,0(a3)
 130 0026 9183     		srli	a5,a5,4
 131 0028 13F5F700 		andi	a0,a5,15
  36:C:/Users/stapi/OneDrive/Desktop/GD32VW553/V1_MQTT_OK/GD32VW55X_Wifi_BLE_SDK/GD32VW55x_RELEASE_V1.0.2/MSDK/cloud/alicloud/src/protocol/coap/local\CoAPSerialize.c ****         buf[i] = msg->token[i];
 132              		.loc 1 36 5
 133 002c E343A7FE 		blt	a4,a0,.L7
 134 0030 8280     		ret
 135              	.LBE10:
 136              	.LBE11:
 137              		.cfi_endproc
 138              	.LFE21:
 140              		.section	.text.CoAPSerialize_Options,"ax",@progbits
 141              		.align	1
 142              		.globl	CoAPSerialize_Options
 144              	CoAPSerialize_Options:
 145              	.LFB23:
  41:C:/Users/stapi/OneDrive/Desktop/GD32VW553/V1_MQTT_OK/GD32VW55X_Wifi_BLE_SDK/GD32VW55x_RELEASE_V1.0.2/MSDK/cloud/alicloud/src/protocol/coap/local\CoAPSerialize.c **** 
  42:C:/Users/stapi/OneDrive/Desktop/GD32VW553/V1_MQTT_OK/GD32VW55X_Wifi_BLE_SDK/GD32VW55x_RELEASE_V1.0.2/MSDK/cloud/alicloud/src/protocol/coap/local\CoAPSerialize.c **** static unsigned short CoAPSerialize_Option(CoAPMsgOption *option, unsigned char *buf)
  43:C:/Users/stapi/OneDrive/Desktop/GD32VW553/V1_MQTT_OK/GD32VW55X_Wifi_BLE_SDK/GD32VW55x_RELEASE_V1.0.2/MSDK/cloud/alicloud/src/protocol/coap/local\CoAPSerialize.c **** {
  44:C:/Users/stapi/OneDrive/Desktop/GD32VW553/V1_MQTT_OK/GD32VW55X_Wifi_BLE_SDK/GD32VW55x_RELEASE_V1.0.2/MSDK/cloud/alicloud/src/protocol/coap/local\CoAPSerialize.c ****     unsigned char *ptr   = buf;
  45:C:/Users/stapi/OneDrive/Desktop/GD32VW553/V1_MQTT_OK/GD32VW55X_Wifi_BLE_SDK/GD32VW55x_RELEASE_V1.0.2/MSDK/cloud/alicloud/src/protocol/coap/local\CoAPSerialize.c **** 
  46:C:/Users/stapi/OneDrive/Desktop/GD32VW553/V1_MQTT_OK/GD32VW55X_Wifi_BLE_SDK/GD32VW55x_RELEASE_V1.0.2/MSDK/cloud/alicloud/src/protocol/coap/local\CoAPSerialize.c ****     if(269 <= option->num){
  47:C:/Users/stapi/OneDrive/Desktop/GD32VW553/V1_MQTT_OK/GD32VW55X_Wifi_BLE_SDK/GD32VW55x_RELEASE_V1.0.2/MSDK/cloud/alicloud/src/protocol/coap/local\CoAPSerialize.c ****         *ptr = ((14 & 0x0F) << 4);
  48:C:/Users/stapi/OneDrive/Desktop/GD32VW553/V1_MQTT_OK/GD32VW55X_Wifi_BLE_SDK/GD32VW55x_RELEASE_V1.0.2/MSDK/cloud/alicloud/src/protocol/coap/local\CoAPSerialize.c ****     }
  49:C:/Users/stapi/OneDrive/Desktop/GD32VW553/V1_MQTT_OK/GD32VW55X_Wifi_BLE_SDK/GD32VW55x_RELEASE_V1.0.2/MSDK/cloud/alicloud/src/protocol/coap/local\CoAPSerialize.c ****     else if(13 <= option->num){
  50:C:/Users/stapi/OneDrive/Desktop/GD32VW553/V1_MQTT_OK/GD32VW55X_Wifi_BLE_SDK/GD32VW55x_RELEASE_V1.0.2/MSDK/cloud/alicloud/src/protocol/coap/local\CoAPSerialize.c ****         *ptr = ((13 & 0x0F) << 4);
  51:C:/Users/stapi/OneDrive/Desktop/GD32VW553/V1_MQTT_OK/GD32VW55X_Wifi_BLE_SDK/GD32VW55x_RELEASE_V1.0.2/MSDK/cloud/alicloud/src/protocol/coap/local\CoAPSerialize.c ****     }
  52:C:/Users/stapi/OneDrive/Desktop/GD32VW553/V1_MQTT_OK/GD32VW55X_Wifi_BLE_SDK/GD32VW55x_RELEASE_V1.0.2/MSDK/cloud/alicloud/src/protocol/coap/local\CoAPSerialize.c ****     else{
  53:C:/Users/stapi/OneDrive/Desktop/GD32VW553/V1_MQTT_OK/GD32VW55X_Wifi_BLE_SDK/GD32VW55x_RELEASE_V1.0.2/MSDK/cloud/alicloud/src/protocol/coap/local\CoAPSerialize.c ****         *ptr = option->num << 4;
  54:C:/Users/stapi/OneDrive/Desktop/GD32VW553/V1_MQTT_OK/GD32VW55X_Wifi_BLE_SDK/GD32VW55x_RELEASE_V1.0.2/MSDK/cloud/alicloud/src/protocol/coap/local\CoAPSerialize.c ****     }
  55:C:/Users/stapi/OneDrive/Desktop/GD32VW553/V1_MQTT_OK/GD32VW55X_Wifi_BLE_SDK/GD32VW55x_RELEASE_V1.0.2/MSDK/cloud/alicloud/src/protocol/coap/local\CoAPSerialize.c **** 
  56:C:/Users/stapi/OneDrive/Desktop/GD32VW553/V1_MQTT_OK/GD32VW55X_Wifi_BLE_SDK/GD32VW55x_RELEASE_V1.0.2/MSDK/cloud/alicloud/src/protocol/coap/local\CoAPSerialize.c ****     if (269 <= option->len){
  57:C:/Users/stapi/OneDrive/Desktop/GD32VW553/V1_MQTT_OK/GD32VW55X_Wifi_BLE_SDK/GD32VW55x_RELEASE_V1.0.2/MSDK/cloud/alicloud/src/protocol/coap/local\CoAPSerialize.c ****         *ptr |=  (14 & 0x0F);
  58:C:/Users/stapi/OneDrive/Desktop/GD32VW553/V1_MQTT_OK/GD32VW55X_Wifi_BLE_SDK/GD32VW55x_RELEASE_V1.0.2/MSDK/cloud/alicloud/src/protocol/coap/local\CoAPSerialize.c ****     }
  59:C:/Users/stapi/OneDrive/Desktop/GD32VW553/V1_MQTT_OK/GD32VW55X_Wifi_BLE_SDK/GD32VW55x_RELEASE_V1.0.2/MSDK/cloud/alicloud/src/protocol/coap/local\CoAPSerialize.c ****     else if(13 <= option->len){
  60:C:/Users/stapi/OneDrive/Desktop/GD32VW553/V1_MQTT_OK/GD32VW55X_Wifi_BLE_SDK/GD32VW55x_RELEASE_V1.0.2/MSDK/cloud/alicloud/src/protocol/coap/local\CoAPSerialize.c ****         *ptr |= (13 & 0x0F);
  61:C:/Users/stapi/OneDrive/Desktop/GD32VW553/V1_MQTT_OK/GD32VW55X_Wifi_BLE_SDK/GD32VW55x_RELEASE_V1.0.2/MSDK/cloud/alicloud/src/protocol/coap/local\CoAPSerialize.c ****     }
  62:C:/Users/stapi/OneDrive/Desktop/GD32VW553/V1_MQTT_OK/GD32VW55X_Wifi_BLE_SDK/GD32VW55x_RELEASE_V1.0.2/MSDK/cloud/alicloud/src/protocol/coap/local\CoAPSerialize.c ****     else{
  63:C:/Users/stapi/OneDrive/Desktop/GD32VW553/V1_MQTT_OK/GD32VW55X_Wifi_BLE_SDK/GD32VW55x_RELEASE_V1.0.2/MSDK/cloud/alicloud/src/protocol/coap/local\CoAPSerialize.c ****         *ptr |= (option->len & 0x0F);
  64:C:/Users/stapi/OneDrive/Desktop/GD32VW553/V1_MQTT_OK/GD32VW55X_Wifi_BLE_SDK/GD32VW55x_RELEASE_V1.0.2/MSDK/cloud/alicloud/src/protocol/coap/local\CoAPSerialize.c ****     }
  65:C:/Users/stapi/OneDrive/Desktop/GD32VW553/V1_MQTT_OK/GD32VW55X_Wifi_BLE_SDK/GD32VW55x_RELEASE_V1.0.2/MSDK/cloud/alicloud/src/protocol/coap/local\CoAPSerialize.c ****     ptr ++;
  66:C:/Users/stapi/OneDrive/Desktop/GD32VW553/V1_MQTT_OK/GD32VW55X_Wifi_BLE_SDK/GD32VW55x_RELEASE_V1.0.2/MSDK/cloud/alicloud/src/protocol/coap/local\CoAPSerialize.c **** 
  67:C:/Users/stapi/OneDrive/Desktop/GD32VW553/V1_MQTT_OK/GD32VW55X_Wifi_BLE_SDK/GD32VW55x_RELEASE_V1.0.2/MSDK/cloud/alicloud/src/protocol/coap/local\CoAPSerialize.c ****     if (269 <= option->num){
  68:C:/Users/stapi/OneDrive/Desktop/GD32VW553/V1_MQTT_OK/GD32VW55X_Wifi_BLE_SDK/GD32VW55x_RELEASE_V1.0.2/MSDK/cloud/alicloud/src/protocol/coap/local\CoAPSerialize.c ****         *ptr     = (unsigned char)(((option->num - 269) & 0xFF00) >> 8);
  69:C:/Users/stapi/OneDrive/Desktop/GD32VW553/V1_MQTT_OK/GD32VW55X_Wifi_BLE_SDK/GD32VW55x_RELEASE_V1.0.2/MSDK/cloud/alicloud/src/protocol/coap/local\CoAPSerialize.c ****         *(ptr+1) = (unsigned char)(((option->num - 269) & 0x00FF));
  70:C:/Users/stapi/OneDrive/Desktop/GD32VW553/V1_MQTT_OK/GD32VW55X_Wifi_BLE_SDK/GD32VW55x_RELEASE_V1.0.2/MSDK/cloud/alicloud/src/protocol/coap/local\CoAPSerialize.c ****         ptr += 2;
  71:C:/Users/stapi/OneDrive/Desktop/GD32VW553/V1_MQTT_OK/GD32VW55X_Wifi_BLE_SDK/GD32VW55x_RELEASE_V1.0.2/MSDK/cloud/alicloud/src/protocol/coap/local\CoAPSerialize.c ****     }
  72:C:/Users/stapi/OneDrive/Desktop/GD32VW553/V1_MQTT_OK/GD32VW55X_Wifi_BLE_SDK/GD32VW55x_RELEASE_V1.0.2/MSDK/cloud/alicloud/src/protocol/coap/local\CoAPSerialize.c ****     else if(13 <= option->num){
  73:C:/Users/stapi/OneDrive/Desktop/GD32VW553/V1_MQTT_OK/GD32VW55X_Wifi_BLE_SDK/GD32VW55x_RELEASE_V1.0.2/MSDK/cloud/alicloud/src/protocol/coap/local\CoAPSerialize.c ****         *ptr    = (unsigned char)(option->num - 13);
  74:C:/Users/stapi/OneDrive/Desktop/GD32VW553/V1_MQTT_OK/GD32VW55X_Wifi_BLE_SDK/GD32VW55x_RELEASE_V1.0.2/MSDK/cloud/alicloud/src/protocol/coap/local\CoAPSerialize.c ****         ptr ++;
  75:C:/Users/stapi/OneDrive/Desktop/GD32VW553/V1_MQTT_OK/GD32VW55X_Wifi_BLE_SDK/GD32VW55x_RELEASE_V1.0.2/MSDK/cloud/alicloud/src/protocol/coap/local\CoAPSerialize.c ****     }
  76:C:/Users/stapi/OneDrive/Desktop/GD32VW553/V1_MQTT_OK/GD32VW55X_Wifi_BLE_SDK/GD32VW55x_RELEASE_V1.0.2/MSDK/cloud/alicloud/src/protocol/coap/local\CoAPSerialize.c **** 
  77:C:/Users/stapi/OneDrive/Desktop/GD32VW553/V1_MQTT_OK/GD32VW55X_Wifi_BLE_SDK/GD32VW55x_RELEASE_V1.0.2/MSDK/cloud/alicloud/src/protocol/coap/local\CoAPSerialize.c **** 
  78:C:/Users/stapi/OneDrive/Desktop/GD32VW553/V1_MQTT_OK/GD32VW55X_Wifi_BLE_SDK/GD32VW55x_RELEASE_V1.0.2/MSDK/cloud/alicloud/src/protocol/coap/local\CoAPSerialize.c ****     if (269 <= option->len){
  79:C:/Users/stapi/OneDrive/Desktop/GD32VW553/V1_MQTT_OK/GD32VW55X_Wifi_BLE_SDK/GD32VW55x_RELEASE_V1.0.2/MSDK/cloud/alicloud/src/protocol/coap/local\CoAPSerialize.c ****         *ptr     = (unsigned char)(((option->len - 269) & 0xFF00) >> 8);
  80:C:/Users/stapi/OneDrive/Desktop/GD32VW553/V1_MQTT_OK/GD32VW55X_Wifi_BLE_SDK/GD32VW55x_RELEASE_V1.0.2/MSDK/cloud/alicloud/src/protocol/coap/local\CoAPSerialize.c ****         *(ptr+1) = (unsigned char)(((option->len - 269) & 0x00FF));
  81:C:/Users/stapi/OneDrive/Desktop/GD32VW553/V1_MQTT_OK/GD32VW55X_Wifi_BLE_SDK/GD32VW55x_RELEASE_V1.0.2/MSDK/cloud/alicloud/src/protocol/coap/local\CoAPSerialize.c ****         ptr += 2;
  82:C:/Users/stapi/OneDrive/Desktop/GD32VW553/V1_MQTT_OK/GD32VW55X_Wifi_BLE_SDK/GD32VW55x_RELEASE_V1.0.2/MSDK/cloud/alicloud/src/protocol/coap/local\CoAPSerialize.c ****     }
  83:C:/Users/stapi/OneDrive/Desktop/GD32VW553/V1_MQTT_OK/GD32VW55X_Wifi_BLE_SDK/GD32VW55x_RELEASE_V1.0.2/MSDK/cloud/alicloud/src/protocol/coap/local\CoAPSerialize.c ****     else if(13 <= option->len){
  84:C:/Users/stapi/OneDrive/Desktop/GD32VW553/V1_MQTT_OK/GD32VW55X_Wifi_BLE_SDK/GD32VW55x_RELEASE_V1.0.2/MSDK/cloud/alicloud/src/protocol/coap/local\CoAPSerialize.c ****         *ptr = (unsigned char)(option->len - 13);
  85:C:/Users/stapi/OneDrive/Desktop/GD32VW553/V1_MQTT_OK/GD32VW55X_Wifi_BLE_SDK/GD32VW55x_RELEASE_V1.0.2/MSDK/cloud/alicloud/src/protocol/coap/local\CoAPSerialize.c ****         ptr ++;
  86:C:/Users/stapi/OneDrive/Desktop/GD32VW553/V1_MQTT_OK/GD32VW55X_Wifi_BLE_SDK/GD32VW55x_RELEASE_V1.0.2/MSDK/cloud/alicloud/src/protocol/coap/local\CoAPSerialize.c ****     }
  87:C:/Users/stapi/OneDrive/Desktop/GD32VW553/V1_MQTT_OK/GD32VW55X_Wifi_BLE_SDK/GD32VW55x_RELEASE_V1.0.2/MSDK/cloud/alicloud/src/protocol/coap/local\CoAPSerialize.c **** 
  88:C:/Users/stapi/OneDrive/Desktop/GD32VW553/V1_MQTT_OK/GD32VW55X_Wifi_BLE_SDK/GD32VW55x_RELEASE_V1.0.2/MSDK/cloud/alicloud/src/protocol/coap/local\CoAPSerialize.c **** 
  89:C:/Users/stapi/OneDrive/Desktop/GD32VW553/V1_MQTT_OK/GD32VW55X_Wifi_BLE_SDK/GD32VW55x_RELEASE_V1.0.2/MSDK/cloud/alicloud/src/protocol/coap/local\CoAPSerialize.c ****     memcpy(ptr, option->val, option->len);
  90:C:/Users/stapi/OneDrive/Desktop/GD32VW553/V1_MQTT_OK/GD32VW55X_Wifi_BLE_SDK/GD32VW55x_RELEASE_V1.0.2/MSDK/cloud/alicloud/src/protocol/coap/local\CoAPSerialize.c ****     ptr += option->len;
  91:C:/Users/stapi/OneDrive/Desktop/GD32VW553/V1_MQTT_OK/GD32VW55X_Wifi_BLE_SDK/GD32VW55x_RELEASE_V1.0.2/MSDK/cloud/alicloud/src/protocol/coap/local\CoAPSerialize.c **** 
  92:C:/Users/stapi/OneDrive/Desktop/GD32VW553/V1_MQTT_OK/GD32VW55X_Wifi_BLE_SDK/GD32VW55x_RELEASE_V1.0.2/MSDK/cloud/alicloud/src/protocol/coap/local\CoAPSerialize.c ****     return (int)(ptr - buf);
  93:C:/Users/stapi/OneDrive/Desktop/GD32VW553/V1_MQTT_OK/GD32VW55X_Wifi_BLE_SDK/GD32VW55x_RELEASE_V1.0.2/MSDK/cloud/alicloud/src/protocol/coap/local\CoAPSerialize.c **** }
  94:C:/Users/stapi/OneDrive/Desktop/GD32VW553/V1_MQTT_OK/GD32VW55X_Wifi_BLE_SDK/GD32VW55x_RELEASE_V1.0.2/MSDK/cloud/alicloud/src/protocol/coap/local\CoAPSerialize.c **** 
  95:C:/Users/stapi/OneDrive/Desktop/GD32VW553/V1_MQTT_OK/GD32VW55X_Wifi_BLE_SDK/GD32VW55x_RELEASE_V1.0.2/MSDK/cloud/alicloud/src/protocol/coap/local\CoAPSerialize.c **** unsigned short CoAPSerialize_Options(CoAPMessage *msg,  unsigned char * buf, unsigned short buflen)
  96:C:/Users/stapi/OneDrive/Desktop/GD32VW553/V1_MQTT_OK/GD32VW55X_Wifi_BLE_SDK/GD32VW55x_RELEASE_V1.0.2/MSDK/cloud/alicloud/src/protocol/coap/local\CoAPSerialize.c **** {
 146              		.loc 1 96 1 is_stmt 1
 147              		.cfi_startproc
 148              	.LVL11:
 149 0000 17030000 		call	t0,__riscv_save_12
 149      E7020300 
 150              		.cfi_offset 27, -52
 151              		.cfi_offset 26, -48
 152              		.cfi_offset 25, -44
 153              		.cfi_offset 24, -40
 154              		.cfi_offset 23, -36
 155              		.cfi_offset 22, -32
 156              		.cfi_offset 21, -28
 157              		.cfi_offset 20, -24
 158              		.cfi_offset 19, -20
 159              		.cfi_offset 18, -16
 160              		.cfi_offset 9, -12
 161              		.cfi_offset 8, -8
 162              		.cfi_offset 1, -4
 163              		.cfi_def_cfa_offset 64
  97:C:/Users/stapi/OneDrive/Desktop/GD32VW553/V1_MQTT_OK/GD32VW55X_Wifi_BLE_SDK/GD32VW55x_RELEASE_V1.0.2/MSDK/cloud/alicloud/src/protocol/coap/local\CoAPSerialize.c ****     int i      = 0;
 164              		.loc 1 97 5
 165              	.LVL12:
  98:C:/Users/stapi/OneDrive/Desktop/GD32VW553/V1_MQTT_OK/GD32VW55X_Wifi_BLE_SDK/GD32VW55x_RELEASE_V1.0.2/MSDK/cloud/alicloud/src/protocol/coap/local\CoAPSerialize.c ****     unsigned short count  = 0;
 166              		.loc 1 98 5
  99:C:/Users/stapi/OneDrive/Desktop/GD32VW553/V1_MQTT_OK/GD32VW55X_Wifi_BLE_SDK/GD32VW55x_RELEASE_V1.0.2/MSDK/cloud/alicloud/src/protocol/coap/local\CoAPSerialize.c ****     unsigned short optdelta = 0;
 167              		.loc 1 99 5
 100:C:/Users/stapi/OneDrive/Desktop/GD32VW553/V1_MQTT_OK/GD32VW55X_Wifi_BLE_SDK/GD32VW55x_RELEASE_V1.0.2/MSDK/cloud/alicloud/src/protocol/coap/local\CoAPSerialize.c ****     unsigned short opt_num;
 168              		.loc 1 100 5
 101:C:/Users/stapi/OneDrive/Desktop/GD32VW553/V1_MQTT_OK/GD32VW55X_Wifi_BLE_SDK/GD32VW55x_RELEASE_V1.0.2/MSDK/cloud/alicloud/src/protocol/coap/local\CoAPSerialize.c ****     CoAPMsgOption  option;
 169              		.loc 1 101 5
 102:C:/Users/stapi/OneDrive/Desktop/GD32VW553/V1_MQTT_OK/GD32VW55X_Wifi_BLE_SDK/GD32VW55x_RELEASE_V1.0.2/MSDK/cloud/alicloud/src/protocol/coap/local\CoAPSerialize.c ****     
 103:C:/Users/stapi/OneDrive/Desktop/GD32VW553/V1_MQTT_OK/GD32VW55X_Wifi_BLE_SDK/GD32VW55x_RELEASE_V1.0.2/MSDK/cloud/alicloud/src/protocol/coap/local\CoAPSerialize.c ****     for (i = 0; i < msg->optcount; i++)
 170              		.loc 1 103 5
  96:C:/Users/stapi/OneDrive/Desktop/GD32VW553/V1_MQTT_OK/GD32VW55X_Wifi_BLE_SDK/GD32VW55x_RELEASE_V1.0.2/MSDK/cloud/alicloud/src/protocol/coap/local\CoAPSerialize.c ****     int i      = 0;
 171              		.loc 1 96 1 is_stmt 0
 172 0008 4111     		addi	sp,sp,-16
 173              		.cfi_def_cfa_offset 80
  96:C:/Users/stapi/OneDrive/Desktop/GD32VW553/V1_MQTT_OK/GD32VW55X_Wifi_BLE_SDK/GD32VW55x_RELEASE_V1.0.2/MSDK/cloud/alicloud/src/protocol/coap/local\CoAPSerialize.c ****     int i      = 0;
 174              		.loc 1 96 1
 175 000a AA84     		mv	s1,a0
 176 000c 2E89     		mv	s2,a1
 177 000e 930CC500 		addi	s9,a0,12
  99:C:/Users/stapi/OneDrive/Desktop/GD32VW553/V1_MQTT_OK/GD32VW55X_Wifi_BLE_SDK/GD32VW55x_RELEASE_V1.0.2/MSDK/cloud/alicloud/src/protocol/coap/local\CoAPSerialize.c ****     unsigned short opt_num;
 178              		.loc 1 99 20
 179 0012 0144     		li	s0,0
  98:C:/Users/stapi/OneDrive/Desktop/GD32VW553/V1_MQTT_OK/GD32VW55X_Wifi_BLE_SDK/GD32VW55x_RELEASE_V1.0.2/MSDK/cloud/alicloud/src/protocol/coap/local\CoAPSerialize.c ****     unsigned short optdelta = 0;
 180              		.loc 1 98 20
 181 0014 814D     		li	s11,0
 182              		.loc 1 103 12
 183 0016 014C     		li	s8,0
 184              	.LBB15:
 185              	.LBB16:
 186              	.LBB17:
  46:C:/Users/stapi/OneDrive/Desktop/GD32VW553/V1_MQTT_OK/GD32VW55X_Wifi_BLE_SDK/GD32VW55x_RELEASE_V1.0.2/MSDK/cloud/alicloud/src/protocol/coap/local\CoAPSerialize.c ****         *ptr = ((14 & 0x0F) << 4);
 187              		.loc 1 46 7
 188 0018 130BC010 		li	s6,268
  49:C:/Users/stapi/OneDrive/Desktop/GD32VW553/V1_MQTT_OK/GD32VW55X_Wifi_BLE_SDK/GD32VW55x_RELEASE_V1.0.2/MSDK/cloud/alicloud/src/protocol/coap/local\CoAPSerialize.c ****         *ptr = ((13 & 0x0F) << 4);
 189              		.loc 1 49 12
 190 001c B14B     		li	s7,12
  50:C:/Users/stapi/OneDrive/Desktop/GD32VW553/V1_MQTT_OK/GD32VW55X_Wifi_BLE_SDK/GD32VW55x_RELEASE_V1.0.2/MSDK/cloud/alicloud/src/protocol/coap/local\CoAPSerialize.c ****     }
 191              		.loc 1 50 14
 192 001e 930900FD 		li	s3,-48
  47:C:/Users/stapi/OneDrive/Desktop/GD32VW553/V1_MQTT_OK/GD32VW55X_Wifi_BLE_SDK/GD32VW55x_RELEASE_V1.0.2/MSDK/cloud/alicloud/src/protocol/coap/local\CoAPSerialize.c ****     }
 193              		.loc 1 47 14
 194 0022 015A     		li	s4,-32
 195              	.LVL13:
 196              	.L10:
 197              	.LBE17:
 198              	.LBE16:
 199              	.LBE15:
 200              		.loc 1 103 17 is_stmt 1 discriminator 1
 201              		.loc 1 103 24 is_stmt 0 discriminator 1
 202 0024 83C7C406 		lbu	a5,108(s1)
 203              		.loc 1 103 5 discriminator 1
 204 0028 6348FC00 		bgt	a5,s8,.L23
 205 002c 6E85     		mv	a0,s11
 206              	.LVL14:
 207              	.L22:
 104:C:/Users/stapi/OneDrive/Desktop/GD32VW553/V1_MQTT_OK/GD32VW55X_Wifi_BLE_SDK/GD32VW55x_RELEASE_V1.0.2/MSDK/cloud/alicloud/src/protocol/coap/local\CoAPSerialize.c ****     {
 105:C:/Users/stapi/OneDrive/Desktop/GD32VW553/V1_MQTT_OK/GD32VW55X_Wifi_BLE_SDK/GD32VW55x_RELEASE_V1.0.2/MSDK/cloud/alicloud/src/protocol/coap/local\CoAPSerialize.c ****         unsigned short len = 0;
 106:C:/Users/stapi/OneDrive/Desktop/GD32VW553/V1_MQTT_OK/GD32VW55X_Wifi_BLE_SDK/GD32VW55x_RELEASE_V1.0.2/MSDK/cloud/alicloud/src/protocol/coap/local\CoAPSerialize.c ****         memcpy (&option, &msg->options[i], sizeof(CoAPMsgOption));
 107:C:/Users/stapi/OneDrive/Desktop/GD32VW553/V1_MQTT_OK/GD32VW55X_Wifi_BLE_SDK/GD32VW55x_RELEASE_V1.0.2/MSDK/cloud/alicloud/src/protocol/coap/local\CoAPSerialize.c ****         opt_num = option.num;
 108:C:/Users/stapi/OneDrive/Desktop/GD32VW553/V1_MQTT_OK/GD32VW55X_Wifi_BLE_SDK/GD32VW55x_RELEASE_V1.0.2/MSDK/cloud/alicloud/src/protocol/coap/local\CoAPSerialize.c ****         option.num = option.num - optdelta;
 109:C:/Users/stapi/OneDrive/Desktop/GD32VW553/V1_MQTT_OK/GD32VW55X_Wifi_BLE_SDK/GD32VW55x_RELEASE_V1.0.2/MSDK/cloud/alicloud/src/protocol/coap/local\CoAPSerialize.c ****         optdelta = opt_num;
 110:C:/Users/stapi/OneDrive/Desktop/GD32VW553/V1_MQTT_OK/GD32VW55X_Wifi_BLE_SDK/GD32VW55x_RELEASE_V1.0.2/MSDK/cloud/alicloud/src/protocol/coap/local\CoAPSerialize.c ****         
 111:C:/Users/stapi/OneDrive/Desktop/GD32VW553/V1_MQTT_OK/GD32VW55X_Wifi_BLE_SDK/GD32VW55x_RELEASE_V1.0.2/MSDK/cloud/alicloud/src/protocol/coap/local\CoAPSerialize.c ****         len = CoAPSerialize_Option(&option, &buf[count]);
 112:C:/Users/stapi/OneDrive/Desktop/GD32VW553/V1_MQTT_OK/GD32VW55X_Wifi_BLE_SDK/GD32VW55x_RELEASE_V1.0.2/MSDK/cloud/alicloud/src/protocol/coap/local\CoAPSerialize.c ****         if (0 < len){
 113:C:/Users/stapi/OneDrive/Desktop/GD32VW553/V1_MQTT_OK/GD32VW55X_Wifi_BLE_SDK/GD32VW55x_RELEASE_V1.0.2/MSDK/cloud/alicloud/src/protocol/coap/local\CoAPSerialize.c ****             count += len;
 114:C:/Users/stapi/OneDrive/Desktop/GD32VW553/V1_MQTT_OK/GD32VW55X_Wifi_BLE_SDK/GD32VW55x_RELEASE_V1.0.2/MSDK/cloud/alicloud/src/protocol/coap/local\CoAPSerialize.c ****         }
 115:C:/Users/stapi/OneDrive/Desktop/GD32VW553/V1_MQTT_OK/GD32VW55X_Wifi_BLE_SDK/GD32VW55x_RELEASE_V1.0.2/MSDK/cloud/alicloud/src/protocol/coap/local\CoAPSerialize.c ****         else{
 116:C:/Users/stapi/OneDrive/Desktop/GD32VW553/V1_MQTT_OK/GD32VW55X_Wifi_BLE_SDK/GD32VW55x_RELEASE_V1.0.2/MSDK/cloud/alicloud/src/protocol/coap/local\CoAPSerialize.c ****             return 0;
 117:C:/Users/stapi/OneDrive/Desktop/GD32VW553/V1_MQTT_OK/GD32VW55X_Wifi_BLE_SDK/GD32VW55x_RELEASE_V1.0.2/MSDK/cloud/alicloud/src/protocol/coap/local\CoAPSerialize.c ****         }
 118:C:/Users/stapi/OneDrive/Desktop/GD32VW553/V1_MQTT_OK/GD32VW55X_Wifi_BLE_SDK/GD32VW55x_RELEASE_V1.0.2/MSDK/cloud/alicloud/src/protocol/coap/local\CoAPSerialize.c ****     }
 119:C:/Users/stapi/OneDrive/Desktop/GD32VW553/V1_MQTT_OK/GD32VW55X_Wifi_BLE_SDK/GD32VW55x_RELEASE_V1.0.2/MSDK/cloud/alicloud/src/protocol/coap/local\CoAPSerialize.c **** 
 120:C:/Users/stapi/OneDrive/Desktop/GD32VW553/V1_MQTT_OK/GD32VW55X_Wifi_BLE_SDK/GD32VW55x_RELEASE_V1.0.2/MSDK/cloud/alicloud/src/protocol/coap/local\CoAPSerialize.c ****     return count;
 121:C:/Users/stapi/OneDrive/Desktop/GD32VW553/V1_MQTT_OK/GD32VW55X_Wifi_BLE_SDK/GD32VW55x_RELEASE_V1.0.2/MSDK/cloud/alicloud/src/protocol/coap/local\CoAPSerialize.c **** }
 208              		.loc 1 121 1
 209 002e 4101     		addi	sp,sp,16
 210              		.cfi_remember_state
 211              		.cfi_def_cfa_offset 0
 212 0030 17030000 		tail	__riscv_restore_12
 212      67000300 
 213              		.cfi_restore 27
 214              		.cfi_restore 26
 215              		.cfi_restore 25
 216              		.cfi_restore 24
 217              		.cfi_restore 23
 218              		.cfi_restore 22
 219              		.cfi_restore 21
 220              		.cfi_restore 20
 221              		.cfi_restore 19
 222              		.cfi_restore 18
 223              		.cfi_restore 9
 224              		.cfi_restore 8
 225              		.cfi_restore 1
 226              		.cfi_def_cfa_offset -64
 227              	.LVL15:
 228              	.L23:
 229              		.cfi_restore_state
 230              	.LBB24:
 105:C:/Users/stapi/OneDrive/Desktop/GD32VW553/V1_MQTT_OK/GD32VW55X_Wifi_BLE_SDK/GD32VW55x_RELEASE_V1.0.2/MSDK/cloud/alicloud/src/protocol/coap/local\CoAPSerialize.c ****         memcpy (&option, &msg->options[i], sizeof(CoAPMsgOption));
 231              		.loc 1 105 9 is_stmt 1
 106:C:/Users/stapi/OneDrive/Desktop/GD32VW553/V1_MQTT_OK/GD32VW55X_Wifi_BLE_SDK/GD32VW55x_RELEASE_V1.0.2/MSDK/cloud/alicloud/src/protocol/coap/local\CoAPSerialize.c ****         opt_num = option.num;
 232              		.loc 1 106 9
 233 0038 2146     		li	a2,8
 234 003a E685     		mv	a1,s9
 235 003c 2800     		addi	a0,sp,8
 236 003e 97000000 		call	memcpy
 236      E7800000 
 237              	.LVL16:
 107:C:/Users/stapi/OneDrive/Desktop/GD32VW553/V1_MQTT_OK/GD32VW55X_Wifi_BLE_SDK/GD32VW55x_RELEASE_V1.0.2/MSDK/cloud/alicloud/src/protocol/coap/local\CoAPSerialize.c ****         option.num = option.num - optdelta;
 238              		.loc 1 107 9
 107:C:/Users/stapi/OneDrive/Desktop/GD32VW553/V1_MQTT_OK/GD32VW55X_Wifi_BLE_SDK/GD32VW55x_RELEASE_V1.0.2/MSDK/cloud/alicloud/src/protocol/coap/local\CoAPSerialize.c ****         option.num = option.num - optdelta;
 239              		.loc 1 107 17 is_stmt 0
 240 0046 035D8100 		lhu	s10,8(sp)
 241              	.LVL17:
 108:C:/Users/stapi/OneDrive/Desktop/GD32VW553/V1_MQTT_OK/GD32VW55X_Wifi_BLE_SDK/GD32VW55x_RELEASE_V1.0.2/MSDK/cloud/alicloud/src/protocol/coap/local\CoAPSerialize.c ****         optdelta = opt_num;
 242              		.loc 1 108 9 is_stmt 1
 108:C:/Users/stapi/OneDrive/Desktop/GD32VW553/V1_MQTT_OK/GD32VW55X_Wifi_BLE_SDK/GD32VW55x_RELEASE_V1.0.2/MSDK/cloud/alicloud/src/protocol/coap/local\CoAPSerialize.c ****         optdelta = opt_num;
 243              		.loc 1 108 33 is_stmt 0
 244 004a 33078D40 		sub	a4,s10,s0
 245 004e 33470708 		zext.h	a4,a4
 108:C:/Users/stapi/OneDrive/Desktop/GD32VW553/V1_MQTT_OK/GD32VW55X_Wifi_BLE_SDK/GD32VW55x_RELEASE_V1.0.2/MSDK/cloud/alicloud/src/protocol/coap/local\CoAPSerialize.c ****         optdelta = opt_num;
 246              		.loc 1 108 20
 247 0052 2314E100 		sh	a4,8(sp)
 109:C:/Users/stapi/OneDrive/Desktop/GD32VW553/V1_MQTT_OK/GD32VW55X_Wifi_BLE_SDK/GD32VW55x_RELEASE_V1.0.2/MSDK/cloud/alicloud/src/protocol/coap/local\CoAPSerialize.c ****         
 248              		.loc 1 109 9 is_stmt 1
 249              	.LVL18:
 111:C:/Users/stapi/OneDrive/Desktop/GD32VW553/V1_MQTT_OK/GD32VW55X_Wifi_BLE_SDK/GD32VW55x_RELEASE_V1.0.2/MSDK/cloud/alicloud/src/protocol/coap/local\CoAPSerialize.c ****         if (0 < len){
 250              		.loc 1 111 9
 111:C:/Users/stapi/OneDrive/Desktop/GD32VW553/V1_MQTT_OK/GD32VW55X_Wifi_BLE_SDK/GD32VW55x_RELEASE_V1.0.2/MSDK/cloud/alicloud/src/protocol/coap/local\CoAPSerialize.c ****         if (0 < len){
 251              		.loc 1 111 15 is_stmt 0
 252 0056 3304B901 		add	s0,s2,s11
 253              	.LVL19:
 254              	.LBB21:
 255              	.LBB18:
  44:C:/Users/stapi/OneDrive/Desktop/GD32VW553/V1_MQTT_OK/GD32VW55X_Wifi_BLE_SDK/GD32VW55x_RELEASE_V1.0.2/MSDK/cloud/alicloud/src/protocol/coap/local\CoAPSerialize.c **** 
 256              		.loc 1 44 5 is_stmt 1
  46:C:/Users/stapi/OneDrive/Desktop/GD32VW553/V1_MQTT_OK/GD32VW55X_Wifi_BLE_SDK/GD32VW55x_RELEASE_V1.0.2/MSDK/cloud/alicloud/src/protocol/coap/local\CoAPSerialize.c ****         *ptr = ((14 & 0x0F) << 4);
 257              		.loc 1 46 5
  46:C:/Users/stapi/OneDrive/Desktop/GD32VW553/V1_MQTT_OK/GD32VW55X_Wifi_BLE_SDK/GD32VW55x_RELEASE_V1.0.2/MSDK/cloud/alicloud/src/protocol/coap/local\CoAPSerialize.c ****         *ptr = ((14 & 0x0F) << 4);
 258              		.loc 1 46 7 is_stmt 0
 259 005a 637BEB06 		bleu	a4,s6,.L11
  47:C:/Users/stapi/OneDrive/Desktop/GD32VW553/V1_MQTT_OK/GD32VW55X_Wifi_BLE_SDK/GD32VW55x_RELEASE_V1.0.2/MSDK/cloud/alicloud/src/protocol/coap/local\CoAPSerialize.c ****     }
 260              		.loc 1 47 9 is_stmt 1
  47:C:/Users/stapi/OneDrive/Desktop/GD32VW553/V1_MQTT_OK/GD32VW55X_Wifi_BLE_SDK/GD32VW55x_RELEASE_V1.0.2/MSDK/cloud/alicloud/src/protocol/coap/local\CoAPSerialize.c ****     }
 261              		.loc 1 47 14 is_stmt 0
 262 005e 23004401 		sb	s4,0(s0)
 263              	.L12:
  56:C:/Users/stapi/OneDrive/Desktop/GD32VW553/V1_MQTT_OK/GD32VW55X_Wifi_BLE_SDK/GD32VW55x_RELEASE_V1.0.2/MSDK/cloud/alicloud/src/protocol/coap/local\CoAPSerialize.c ****         *ptr |=  (14 & 0x0F);
 264              		.loc 1 56 5 is_stmt 1
  56:C:/Users/stapi/OneDrive/Desktop/GD32VW553/V1_MQTT_OK/GD32VW55X_Wifi_BLE_SDK/GD32VW55x_RELEASE_V1.0.2/MSDK/cloud/alicloud/src/protocol/coap/local\CoAPSerialize.c ****         *ptr |=  (14 & 0x0F);
 265              		.loc 1 56 22 is_stmt 0
 266 0062 835AA100 		lhu	s5,10(sp)
  57:C:/Users/stapi/OneDrive/Desktop/GD32VW553/V1_MQTT_OK/GD32VW55X_Wifi_BLE_SDK/GD32VW55x_RELEASE_V1.0.2/MSDK/cloud/alicloud/src/protocol/coap/local\CoAPSerialize.c ****     }
 267              		.loc 1 57 14
 268 0066 83460400 		lbu	a3,0(s0)
  56:C:/Users/stapi/OneDrive/Desktop/GD32VW553/V1_MQTT_OK/GD32VW55X_Wifi_BLE_SDK/GD32VW55x_RELEASE_V1.0.2/MSDK/cloud/alicloud/src/protocol/coap/local\CoAPSerialize.c ****         *ptr |=  (14 & 0x0F);
 269              		.loc 1 56 8
 270 006a 637D5B07 		bleu	s5,s6,.L14
  57:C:/Users/stapi/OneDrive/Desktop/GD32VW553/V1_MQTT_OK/GD32VW55X_Wifi_BLE_SDK/GD32VW55x_RELEASE_V1.0.2/MSDK/cloud/alicloud/src/protocol/coap/local\CoAPSerialize.c ****     }
 271              		.loc 1 57 9 is_stmt 1
  57:C:/Users/stapi/OneDrive/Desktop/GD32VW553/V1_MQTT_OK/GD32VW55X_Wifi_BLE_SDK/GD32VW55x_RELEASE_V1.0.2/MSDK/cloud/alicloud/src/protocol/coap/local\CoAPSerialize.c ****     }
 272              		.loc 1 57 14 is_stmt 0
 273 006e 93E6E600 		ori	a3,a3,14
 274              	.L28:
  63:C:/Users/stapi/OneDrive/Desktop/GD32VW553/V1_MQTT_OK/GD32VW55X_Wifi_BLE_SDK/GD32VW55x_RELEASE_V1.0.2/MSDK/cloud/alicloud/src/protocol/coap/local\CoAPSerialize.c ****     }
 275              		.loc 1 63 14
 276 0072 2300D400 		sb	a3,0(s0)
  65:C:/Users/stapi/OneDrive/Desktop/GD32VW553/V1_MQTT_OK/GD32VW55X_Wifi_BLE_SDK/GD32VW55x_RELEASE_V1.0.2/MSDK/cloud/alicloud/src/protocol/coap/local\CoAPSerialize.c **** 
 277              		.loc 1 65 5 is_stmt 1
 278              	.LVL20:
  67:C:/Users/stapi/OneDrive/Desktop/GD32VW553/V1_MQTT_OK/GD32VW55X_Wifi_BLE_SDK/GD32VW55x_RELEASE_V1.0.2/MSDK/cloud/alicloud/src/protocol/coap/local\CoAPSerialize.c ****         *ptr     = (unsigned char)(((option->num - 269) & 0xFF00) >> 8);
 279              		.loc 1 67 5
  67:C:/Users/stapi/OneDrive/Desktop/GD32VW553/V1_MQTT_OK/GD32VW55X_Wifi_BLE_SDK/GD32VW55x_RELEASE_V1.0.2/MSDK/cloud/alicloud/src/protocol/coap/local\CoAPSerialize.c ****         *ptr     = (unsigned char)(((option->num - 269) & 0xFF00) >> 8);
 280              		.loc 1 67 8 is_stmt 0
 281 0076 637FEB06 		bleu	a4,s6,.L17
  68:C:/Users/stapi/OneDrive/Desktop/GD32VW553/V1_MQTT_OK/GD32VW55X_Wifi_BLE_SDK/GD32VW55x_RELEASE_V1.0.2/MSDK/cloud/alicloud/src/protocol/coap/local\CoAPSerialize.c ****         *(ptr+1) = (unsigned char)(((option->num - 269) & 0x00FF));
 282              		.loc 1 68 9 is_stmt 1
  68:C:/Users/stapi/OneDrive/Desktop/GD32VW553/V1_MQTT_OK/GD32VW55X_Wifi_BLE_SDK/GD32VW55x_RELEASE_V1.0.2/MSDK/cloud/alicloud/src/protocol/coap/local\CoAPSerialize.c ****         *(ptr+1) = (unsigned char)(((option->num - 269) & 0x00FF));
 283              		.loc 1 68 50 is_stmt 0
 284 007a 930737EF 		addi	a5,a4,-269
  68:C:/Users/stapi/OneDrive/Desktop/GD32VW553/V1_MQTT_OK/GD32VW55X_Wifi_BLE_SDK/GD32VW55x_RELEASE_V1.0.2/MSDK/cloud/alicloud/src/protocol/coap/local\CoAPSerialize.c ****         *(ptr+1) = (unsigned char)(((option->num - 269) & 0x00FF));
 285              		.loc 1 68 67
 286 007e A187     		srai	a5,a5,8
  69:C:/Users/stapi/OneDrive/Desktop/GD32VW553/V1_MQTT_OK/GD32VW55X_Wifi_BLE_SDK/GD32VW55x_RELEASE_V1.0.2/MSDK/cloud/alicloud/src/protocol/coap/local\CoAPSerialize.c ****         ptr += 2;
 287              		.loc 1 69 50
 288 0080 4D17     		addi	a4,a4,-13
  68:C:/Users/stapi/OneDrive/Desktop/GD32VW553/V1_MQTT_OK/GD32VW55X_Wifi_BLE_SDK/GD32VW55x_RELEASE_V1.0.2/MSDK/cloud/alicloud/src/protocol/coap/local\CoAPSerialize.c ****         *(ptr+1) = (unsigned char)(((option->num - 269) & 0x00FF));
 289              		.loc 1 68 20
 290 0082 A300F400 		sb	a5,1(s0)
  69:C:/Users/stapi/OneDrive/Desktop/GD32VW553/V1_MQTT_OK/GD32VW55X_Wifi_BLE_SDK/GD32VW55x_RELEASE_V1.0.2/MSDK/cloud/alicloud/src/protocol/coap/local\CoAPSerialize.c ****         ptr += 2;
 291              		.loc 1 69 9 is_stmt 1
  69:C:/Users/stapi/OneDrive/Desktop/GD32VW553/V1_MQTT_OK/GD32VW55X_Wifi_BLE_SDK/GD32VW55x_RELEASE_V1.0.2/MSDK/cloud/alicloud/src/protocol/coap/local\CoAPSerialize.c ****         ptr += 2;
 292              		.loc 1 69 18 is_stmt 0
 293 0086 2301E400 		sb	a4,2(s0)
  70:C:/Users/stapi/OneDrive/Desktop/GD32VW553/V1_MQTT_OK/GD32VW55X_Wifi_BLE_SDK/GD32VW55x_RELEASE_V1.0.2/MSDK/cloud/alicloud/src/protocol/coap/local\CoAPSerialize.c ****     }
 294              		.loc 1 70 9 is_stmt 1
  70:C:/Users/stapi/OneDrive/Desktop/GD32VW553/V1_MQTT_OK/GD32VW55X_Wifi_BLE_SDK/GD32VW55x_RELEASE_V1.0.2/MSDK/cloud/alicloud/src/protocol/coap/local\CoAPSerialize.c ****     }
 295              		.loc 1 70 13 is_stmt 0
 296 008a 93073400 		addi	a5,s0,3
 297              	.LVL21:
 298              	.L18:
  78:C:/Users/stapi/OneDrive/Desktop/GD32VW553/V1_MQTT_OK/GD32VW55X_Wifi_BLE_SDK/GD32VW55x_RELEASE_V1.0.2/MSDK/cloud/alicloud/src/protocol/coap/local\CoAPSerialize.c ****         *ptr     = (unsigned char)(((option->len - 269) & 0xFF00) >> 8);
 299              		.loc 1 78 5 is_stmt 1
  78:C:/Users/stapi/OneDrive/Desktop/GD32VW553/V1_MQTT_OK/GD32VW55X_Wifi_BLE_SDK/GD32VW55x_RELEASE_V1.0.2/MSDK/cloud/alicloud/src/protocol/coap/local\CoAPSerialize.c ****         *ptr     = (unsigned char)(((option->len - 269) & 0xFF00) >> 8);
 300              		.loc 1 78 8 is_stmt 0
 301 008e 637D5B07 		bleu	s5,s6,.L20
  79:C:/Users/stapi/OneDrive/Desktop/GD32VW553/V1_MQTT_OK/GD32VW55X_Wifi_BLE_SDK/GD32VW55x_RELEASE_V1.0.2/MSDK/cloud/alicloud/src/protocol/coap/local\CoAPSerialize.c ****         *(ptr+1) = (unsigned char)(((option->len - 269) & 0x00FF));
 302              		.loc 1 79 9 is_stmt 1
  79:C:/Users/stapi/OneDrive/Desktop/GD32VW553/V1_MQTT_OK/GD32VW55X_Wifi_BLE_SDK/GD32VW55x_RELEASE_V1.0.2/MSDK/cloud/alicloud/src/protocol/coap/local\CoAPSerialize.c ****         *(ptr+1) = (unsigned char)(((option->len - 269) & 0x00FF));
 303              		.loc 1 79 50 is_stmt 0
 304 0092 13873AEF 		addi	a4,s5,-269
  79:C:/Users/stapi/OneDrive/Desktop/GD32VW553/V1_MQTT_OK/GD32VW55X_Wifi_BLE_SDK/GD32VW55x_RELEASE_V1.0.2/MSDK/cloud/alicloud/src/protocol/coap/local\CoAPSerialize.c ****         *(ptr+1) = (unsigned char)(((option->len - 269) & 0x00FF));
 305              		.loc 1 79 67
 306 0096 2187     		srai	a4,a4,8
  79:C:/Users/stapi/OneDrive/Desktop/GD32VW553/V1_MQTT_OK/GD32VW55X_Wifi_BLE_SDK/GD32VW55x_RELEASE_V1.0.2/MSDK/cloud/alicloud/src/protocol/coap/local\CoAPSerialize.c ****         *(ptr+1) = (unsigned char)(((option->len - 269) & 0x00FF));
 307              		.loc 1 79 20
 308 0098 2380E700 		sb	a4,0(a5)
  80:C:/Users/stapi/OneDrive/Desktop/GD32VW553/V1_MQTT_OK/GD32VW55X_Wifi_BLE_SDK/GD32VW55x_RELEASE_V1.0.2/MSDK/cloud/alicloud/src/protocol/coap/local\CoAPSerialize.c ****         ptr += 2;
 309              		.loc 1 80 9 is_stmt 1
  80:C:/Users/stapi/OneDrive/Desktop/GD32VW553/V1_MQTT_OK/GD32VW55X_Wifi_BLE_SDK/GD32VW55x_RELEASE_V1.0.2/MSDK/cloud/alicloud/src/protocol/coap/local\CoAPSerialize.c ****         ptr += 2;
 310              		.loc 1 80 50 is_stmt 0
 311 009c 13873AFF 		addi	a4,s5,-13
  80:C:/Users/stapi/OneDrive/Desktop/GD32VW553/V1_MQTT_OK/GD32VW55X_Wifi_BLE_SDK/GD32VW55x_RELEASE_V1.0.2/MSDK/cloud/alicloud/src/protocol/coap/local\CoAPSerialize.c ****         ptr += 2;
 312              		.loc 1 80 18
 313 00a0 A380E700 		sb	a4,1(a5)
  81:C:/Users/stapi/OneDrive/Desktop/GD32VW553/V1_MQTT_OK/GD32VW55X_Wifi_BLE_SDK/GD32VW55x_RELEASE_V1.0.2/MSDK/cloud/alicloud/src/protocol/coap/local\CoAPSerialize.c ****     }
 314              		.loc 1 81 9 is_stmt 1
  81:C:/Users/stapi/OneDrive/Desktop/GD32VW553/V1_MQTT_OK/GD32VW55X_Wifi_BLE_SDK/GD32VW55x_RELEASE_V1.0.2/MSDK/cloud/alicloud/src/protocol/coap/local\CoAPSerialize.c ****     }
 315              		.loc 1 81 13 is_stmt 0
 316 00a4 8907     		addi	a5,a5,2
 317              	.LVL22:
 318              	.L21:
  89:C:/Users/stapi/OneDrive/Desktop/GD32VW553/V1_MQTT_OK/GD32VW55X_Wifi_BLE_SDK/GD32VW55x_RELEASE_V1.0.2/MSDK/cloud/alicloud/src/protocol/coap/local\CoAPSerialize.c ****     ptr += option->len;
 319              		.loc 1 89 5 is_stmt 1
 320 00a6 B245     		lw	a1,12(sp)
 321 00a8 5686     		mv	a2,s5
 322 00aa 3E85     		mv	a0,a5
 323 00ac 97000000 		call	memcpy
 323      E7800000 
 324              	.LVL23:
  90:C:/Users/stapi/OneDrive/Desktop/GD32VW553/V1_MQTT_OK/GD32VW55X_Wifi_BLE_SDK/GD32VW55x_RELEASE_V1.0.2/MSDK/cloud/alicloud/src/protocol/coap/local\CoAPSerialize.c **** 
 325              		.loc 1 90 5
  92:C:/Users/stapi/OneDrive/Desktop/GD32VW553/V1_MQTT_OK/GD32VW55X_Wifi_BLE_SDK/GD32VW55x_RELEASE_V1.0.2/MSDK/cloud/alicloud/src/protocol/coap/local\CoAPSerialize.c **** }
 326              		.loc 1 92 5
  90:C:/Users/stapi/OneDrive/Desktop/GD32VW553/V1_MQTT_OK/GD32VW55X_Wifi_BLE_SDK/GD32VW55x_RELEASE_V1.0.2/MSDK/cloud/alicloud/src/protocol/coap/local\CoAPSerialize.c **** 
 327              		.loc 1 90 9 is_stmt 0
 328 00b4 33065501 		add	a2,a0,s5
 329              	.LVL24:
  92:C:/Users/stapi/OneDrive/Desktop/GD32VW553/V1_MQTT_OK/GD32VW55X_Wifi_BLE_SDK/GD32VW55x_RELEASE_V1.0.2/MSDK/cloud/alicloud/src/protocol/coap/local\CoAPSerialize.c **** }
 330              		.loc 1 92 12
 331 00b8 018E     		sub	a2,a2,s0
 332              	.LVL25:
 333              	.LBE18:
 334              	.LBE21:
 112:C:/Users/stapi/OneDrive/Desktop/GD32VW553/V1_MQTT_OK/GD32VW55X_Wifi_BLE_SDK/GD32VW55x_RELEASE_V1.0.2/MSDK/cloud/alicloud/src/protocol/coap/local\CoAPSerialize.c ****             count += len;
 335              		.loc 1 112 12
 336 00ba A10C     		addi	s9,s9,8
 337              	.LBB22:
 338              	.LBB19:
  92:C:/Users/stapi/OneDrive/Desktop/GD32VW553/V1_MQTT_OK/GD32VW55X_Wifi_BLE_SDK/GD32VW55x_RELEASE_V1.0.2/MSDK/cloud/alicloud/src/protocol/coap/local\CoAPSerialize.c **** }
 339              		.loc 1 92 12
 340 00bc 33450608 		zext.h	a0,a2
 341              	.LVL26:
 342              	.LBE19:
 343              	.LBE22:
 112:C:/Users/stapi/OneDrive/Desktop/GD32VW553/V1_MQTT_OK/GD32VW55X_Wifi_BLE_SDK/GD32VW55x_RELEASE_V1.0.2/MSDK/cloud/alicloud/src/protocol/coap/local\CoAPSerialize.c ****             count += len;
 344              		.loc 1 112 9 is_stmt 1
 112:C:/Users/stapi/OneDrive/Desktop/GD32VW553/V1_MQTT_OK/GD32VW55X_Wifi_BLE_SDK/GD32VW55x_RELEASE_V1.0.2/MSDK/cloud/alicloud/src/protocol/coap/local\CoAPSerialize.c ****             count += len;
 345              		.loc 1 112 12 is_stmt 0
 346 00c0 3DD5     		beq	a0,zero,.L22
 113:C:/Users/stapi/OneDrive/Desktop/GD32VW553/V1_MQTT_OK/GD32VW55X_Wifi_BLE_SDK/GD32VW55x_RELEASE_V1.0.2/MSDK/cloud/alicloud/src/protocol/coap/local\CoAPSerialize.c ****         }
 347              		.loc 1 113 13 is_stmt 1
 113:C:/Users/stapi/OneDrive/Desktop/GD32VW553/V1_MQTT_OK/GD32VW55X_Wifi_BLE_SDK/GD32VW55x_RELEASE_V1.0.2/MSDK/cloud/alicloud/src/protocol/coap/local\CoAPSerialize.c ****         }
 348              		.loc 1 113 19 is_stmt 0
 349 00c2 B387AD00 		add	a5,s11,a0
 350              	.LBE24:
 103:C:/Users/stapi/OneDrive/Desktop/GD32VW553/V1_MQTT_OK/GD32VW55X_Wifi_BLE_SDK/GD32VW55x_RELEASE_V1.0.2/MSDK/cloud/alicloud/src/protocol/coap/local\CoAPSerialize.c ****     {
 351              		.loc 1 103 37
 352 00c6 050C     		addi	s8,s8,1
 353              	.LVL27:
 354              	.LBB25:
 109:C:/Users/stapi/OneDrive/Desktop/GD32VW553/V1_MQTT_OK/GD32VW55X_Wifi_BLE_SDK/GD32VW55x_RELEASE_V1.0.2/MSDK/cloud/alicloud/src/protocol/coap/local\CoAPSerialize.c ****         
 355              		.loc 1 109 18
 356 00c8 6A84     		mv	s0,s10
 113:C:/Users/stapi/OneDrive/Desktop/GD32VW553/V1_MQTT_OK/GD32VW55X_Wifi_BLE_SDK/GD32VW55x_RELEASE_V1.0.2/MSDK/cloud/alicloud/src/protocol/coap/local\CoAPSerialize.c ****         }
 357              		.loc 1 113 19
 358 00ca B3CD0708 		zext.h	s11,a5
 359              	.LVL28:
 360              	.LBE25:
 103:C:/Users/stapi/OneDrive/Desktop/GD32VW553/V1_MQTT_OK/GD32VW55X_Wifi_BLE_SDK/GD32VW55x_RELEASE_V1.0.2/MSDK/cloud/alicloud/src/protocol/coap/local\CoAPSerialize.c ****     {
 361              		.loc 1 103 36 is_stmt 1
 362 00ce 99BF     		j	.L10
 363              	.LVL29:
 364              	.L11:
 365              	.LBB26:
 366              	.LBB23:
 367              	.LBB20:
  49:C:/Users/stapi/OneDrive/Desktop/GD32VW553/V1_MQTT_OK/GD32VW55X_Wifi_BLE_SDK/GD32VW55x_RELEASE_V1.0.2/MSDK/cloud/alicloud/src/protocol/coap/local\CoAPSerialize.c ****         *ptr = ((13 & 0x0F) << 4);
 368              		.loc 1 49 10
  49:C:/Users/stapi/OneDrive/Desktop/GD32VW553/V1_MQTT_OK/GD32VW55X_Wifi_BLE_SDK/GD32VW55x_RELEASE_V1.0.2/MSDK/cloud/alicloud/src/protocol/coap/local\CoAPSerialize.c ****         *ptr = ((13 & 0x0F) << 4);
 369              		.loc 1 49 12 is_stmt 0
 370 00d0 63F5EB00 		bleu	a4,s7,.L13
  50:C:/Users/stapi/OneDrive/Desktop/GD32VW553/V1_MQTT_OK/GD32VW55X_Wifi_BLE_SDK/GD32VW55x_RELEASE_V1.0.2/MSDK/cloud/alicloud/src/protocol/coap/local\CoAPSerialize.c ****     }
 371              		.loc 1 50 9 is_stmt 1
  50:C:/Users/stapi/OneDrive/Desktop/GD32VW553/V1_MQTT_OK/GD32VW55X_Wifi_BLE_SDK/GD32VW55x_RELEASE_V1.0.2/MSDK/cloud/alicloud/src/protocol/coap/local\CoAPSerialize.c ****     }
 372              		.loc 1 50 14 is_stmt 0
 373 00d4 23003401 		sb	s3,0(s0)
 374 00d8 69B7     		j	.L12
 375              	.L13:
  53:C:/Users/stapi/OneDrive/Desktop/GD32VW553/V1_MQTT_OK/GD32VW55X_Wifi_BLE_SDK/GD32VW55x_RELEASE_V1.0.2/MSDK/cloud/alicloud/src/protocol/coap/local\CoAPSerialize.c ****     }
 376              		.loc 1 53 9 is_stmt 1
  53:C:/Users/stapi/OneDrive/Desktop/GD32VW553/V1_MQTT_OK/GD32VW55X_Wifi_BLE_SDK/GD32VW55x_RELEASE_V1.0.2/MSDK/cloud/alicloud/src/protocol/coap/local\CoAPSerialize.c ****     }
 377              		.loc 1 53 28 is_stmt 0
 378 00da 93174700 		slli	a5,a4,4
  53:C:/Users/stapi/OneDrive/Desktop/GD32VW553/V1_MQTT_OK/GD32VW55X_Wifi_BLE_SDK/GD32VW55x_RELEASE_V1.0.2/MSDK/cloud/alicloud/src/protocol/coap/local\CoAPSerialize.c ****     }
 379              		.loc 1 53 14
 380 00de 2300F400 		sb	a5,0(s0)
 381 00e2 41B7     		j	.L12
 382              	.L14:
  59:C:/Users/stapi/OneDrive/Desktop/GD32VW553/V1_MQTT_OK/GD32VW55X_Wifi_BLE_SDK/GD32VW55x_RELEASE_V1.0.2/MSDK/cloud/alicloud/src/protocol/coap/local\CoAPSerialize.c ****         *ptr |= (13 & 0x0F);
 383              		.loc 1 59 10 is_stmt 1
  59:C:/Users/stapi/OneDrive/Desktop/GD32VW553/V1_MQTT_OK/GD32VW55X_Wifi_BLE_SDK/GD32VW55x_RELEASE_V1.0.2/MSDK/cloud/alicloud/src/protocol/coap/local\CoAPSerialize.c ****         *ptr |= (13 & 0x0F);
 384              		.loc 1 59 12 is_stmt 0
 385 00e4 63F55B01 		bleu	s5,s7,.L16
  60:C:/Users/stapi/OneDrive/Desktop/GD32VW553/V1_MQTT_OK/GD32VW55X_Wifi_BLE_SDK/GD32VW55x_RELEASE_V1.0.2/MSDK/cloud/alicloud/src/protocol/coap/local\CoAPSerialize.c ****     }
 386              		.loc 1 60 9 is_stmt 1
  60:C:/Users/stapi/OneDrive/Desktop/GD32VW553/V1_MQTT_OK/GD32VW55X_Wifi_BLE_SDK/GD32VW55x_RELEASE_V1.0.2/MSDK/cloud/alicloud/src/protocol/coap/local\CoAPSerialize.c ****     }
 387              		.loc 1 60 14 is_stmt 0
 388 00e8 93E6D600 		ori	a3,a3,13
 389 00ec 59B7     		j	.L28
 390              	.L16:
  63:C:/Users/stapi/OneDrive/Desktop/GD32VW553/V1_MQTT_OK/GD32VW55X_Wifi_BLE_SDK/GD32VW55x_RELEASE_V1.0.2/MSDK/cloud/alicloud/src/protocol/coap/local\CoAPSerialize.c ****     }
 391              		.loc 1 63 9 is_stmt 1
  63:C:/Users/stapi/OneDrive/Desktop/GD32VW553/V1_MQTT_OK/GD32VW55X_Wifi_BLE_SDK/GD32VW55x_RELEASE_V1.0.2/MSDK/cloud/alicloud/src/protocol/coap/local\CoAPSerialize.c ****     }
 392              		.loc 1 63 14 is_stmt 0
 393 00ee B3E65601 		or	a3,a3,s5
 394 00f2 41B7     		j	.L28
 395              	.LVL30:
 396              	.L17:
  72:C:/Users/stapi/OneDrive/Desktop/GD32VW553/V1_MQTT_OK/GD32VW55X_Wifi_BLE_SDK/GD32VW55x_RELEASE_V1.0.2/MSDK/cloud/alicloud/src/protocol/coap/local\CoAPSerialize.c ****         *ptr    = (unsigned char)(option->num - 13);
 397              		.loc 1 72 10 is_stmt 1
  65:C:/Users/stapi/OneDrive/Desktop/GD32VW553/V1_MQTT_OK/GD32VW55X_Wifi_BLE_SDK/GD32VW55x_RELEASE_V1.0.2/MSDK/cloud/alicloud/src/protocol/coap/local\CoAPSerialize.c **** 
 398              		.loc 1 65 9 is_stmt 0
 399 00f4 93071400 		addi	a5,s0,1
  72:C:/Users/stapi/OneDrive/Desktop/GD32VW553/V1_MQTT_OK/GD32VW55X_Wifi_BLE_SDK/GD32VW55x_RELEASE_V1.0.2/MSDK/cloud/alicloud/src/protocol/coap/local\CoAPSerialize.c ****         *ptr    = (unsigned char)(option->num - 13);
 400              		.loc 1 72 12
 401 00f8 E3FBEBF8 		bleu	a4,s7,.L18
  73:C:/Users/stapi/OneDrive/Desktop/GD32VW553/V1_MQTT_OK/GD32VW55X_Wifi_BLE_SDK/GD32VW55x_RELEASE_V1.0.2/MSDK/cloud/alicloud/src/protocol/coap/local\CoAPSerialize.c ****         ptr ++;
 402              		.loc 1 73 9 is_stmt 1
  73:C:/Users/stapi/OneDrive/Desktop/GD32VW553/V1_MQTT_OK/GD32VW55X_Wifi_BLE_SDK/GD32VW55x_RELEASE_V1.0.2/MSDK/cloud/alicloud/src/protocol/coap/local\CoAPSerialize.c ****         ptr ++;
 403              		.loc 1 73 19 is_stmt 0
 404 00fc 4D17     		addi	a4,a4,-13
  73:C:/Users/stapi/OneDrive/Desktop/GD32VW553/V1_MQTT_OK/GD32VW55X_Wifi_BLE_SDK/GD32VW55x_RELEASE_V1.0.2/MSDK/cloud/alicloud/src/protocol/coap/local\CoAPSerialize.c ****         ptr ++;
 405              		.loc 1 73 17
 406 00fe A300E400 		sb	a4,1(s0)
  74:C:/Users/stapi/OneDrive/Desktop/GD32VW553/V1_MQTT_OK/GD32VW55X_Wifi_BLE_SDK/GD32VW55x_RELEASE_V1.0.2/MSDK/cloud/alicloud/src/protocol/coap/local\CoAPSerialize.c ****     }
 407              		.loc 1 74 9 is_stmt 1
  74:C:/Users/stapi/OneDrive/Desktop/GD32VW553/V1_MQTT_OK/GD32VW55X_Wifi_BLE_SDK/GD32VW55x_RELEASE_V1.0.2/MSDK/cloud/alicloud/src/protocol/coap/local\CoAPSerialize.c ****     }
 408              		.loc 1 74 13 is_stmt 0
 409 0102 93072400 		addi	a5,s0,2
 410              	.LVL31:
 411 0106 61B7     		j	.L18
 412              	.L20:
  83:C:/Users/stapi/OneDrive/Desktop/GD32VW553/V1_MQTT_OK/GD32VW55X_Wifi_BLE_SDK/GD32VW55x_RELEASE_V1.0.2/MSDK/cloud/alicloud/src/protocol/coap/local\CoAPSerialize.c ****         *ptr = (unsigned char)(option->len - 13);
 413              		.loc 1 83 10 is_stmt 1
  83:C:/Users/stapi/OneDrive/Desktop/GD32VW553/V1_MQTT_OK/GD32VW55X_Wifi_BLE_SDK/GD32VW55x_RELEASE_V1.0.2/MSDK/cloud/alicloud/src/protocol/coap/local\CoAPSerialize.c ****         *ptr = (unsigned char)(option->len - 13);
 414              		.loc 1 83 12 is_stmt 0
 415 0108 E3FF5BF9 		bleu	s5,s7,.L21
  84:C:/Users/stapi/OneDrive/Desktop/GD32VW553/V1_MQTT_OK/GD32VW55X_Wifi_BLE_SDK/GD32VW55x_RELEASE_V1.0.2/MSDK/cloud/alicloud/src/protocol/coap/local\CoAPSerialize.c ****         ptr ++;
 416              		.loc 1 84 9 is_stmt 1
  84:C:/Users/stapi/OneDrive/Desktop/GD32VW553/V1_MQTT_OK/GD32VW55X_Wifi_BLE_SDK/GD32VW55x_RELEASE_V1.0.2/MSDK/cloud/alicloud/src/protocol/coap/local\CoAPSerialize.c ****         ptr ++;
 417              		.loc 1 84 16 is_stmt 0
 418 010c 13873AFF 		addi	a4,s5,-13
  84:C:/Users/stapi/OneDrive/Desktop/GD32VW553/V1_MQTT_OK/GD32VW55X_Wifi_BLE_SDK/GD32VW55x_RELEASE_V1.0.2/MSDK/cloud/alicloud/src/protocol/coap/local\CoAPSerialize.c ****         ptr ++;
 419              		.loc 1 84 14
 420 0110 2380E700 		sb	a4,0(a5)
  85:C:/Users/stapi/OneDrive/Desktop/GD32VW553/V1_MQTT_OK/GD32VW55X_Wifi_BLE_SDK/GD32VW55x_RELEASE_V1.0.2/MSDK/cloud/alicloud/src/protocol/coap/local\CoAPSerialize.c ****     }
 421              		.loc 1 85 9 is_stmt 1
  85:C:/Users/stapi/OneDrive/Desktop/GD32VW553/V1_MQTT_OK/GD32VW55X_Wifi_BLE_SDK/GD32VW55x_RELEASE_V1.0.2/MSDK/cloud/alicloud/src/protocol/coap/local\CoAPSerialize.c ****     }
 422              		.loc 1 85 13 is_stmt 0
 423 0114 8507     		addi	a5,a5,1
 424              	.LVL32:
 425 0116 41BF     		j	.L21
 426              	.LBE20:
 427              	.LBE23:
 428              	.LBE26:
 429              		.cfi_endproc
 430              	.LFE23:
 432              		.section	.text.CoAPSerialize_OptionsLen,"ax",@progbits
 433              		.align	1
 434              		.globl	CoAPSerialize_OptionsLen
 436              	CoAPSerialize_OptionsLen:
 437              	.LFB25:
 122:C:/Users/stapi/OneDrive/Desktop/GD32VW553/V1_MQTT_OK/GD32VW55X_Wifi_BLE_SDK/GD32VW55x_RELEASE_V1.0.2/MSDK/cloud/alicloud/src/protocol/coap/local\CoAPSerialize.c **** 
 123:C:/Users/stapi/OneDrive/Desktop/GD32VW553/V1_MQTT_OK/GD32VW55X_Wifi_BLE_SDK/GD32VW55x_RELEASE_V1.0.2/MSDK/cloud/alicloud/src/protocol/coap/local\CoAPSerialize.c **** static unsigned short CoAPSerialize_OptionLen(CoAPMsgOption *option)
 124:C:/Users/stapi/OneDrive/Desktop/GD32VW553/V1_MQTT_OK/GD32VW55X_Wifi_BLE_SDK/GD32VW55x_RELEASE_V1.0.2/MSDK/cloud/alicloud/src/protocol/coap/local\CoAPSerialize.c **** {
 125:C:/Users/stapi/OneDrive/Desktop/GD32VW553/V1_MQTT_OK/GD32VW55X_Wifi_BLE_SDK/GD32VW55x_RELEASE_V1.0.2/MSDK/cloud/alicloud/src/protocol/coap/local\CoAPSerialize.c ****     unsigned short  len  = 1;
 126:C:/Users/stapi/OneDrive/Desktop/GD32VW553/V1_MQTT_OK/GD32VW55X_Wifi_BLE_SDK/GD32VW55x_RELEASE_V1.0.2/MSDK/cloud/alicloud/src/protocol/coap/local\CoAPSerialize.c **** 
 127:C:/Users/stapi/OneDrive/Desktop/GD32VW553/V1_MQTT_OK/GD32VW55X_Wifi_BLE_SDK/GD32VW55x_RELEASE_V1.0.2/MSDK/cloud/alicloud/src/protocol/coap/local\CoAPSerialize.c ****     if(269 <= option->num){
 128:C:/Users/stapi/OneDrive/Desktop/GD32VW553/V1_MQTT_OK/GD32VW55X_Wifi_BLE_SDK/GD32VW55x_RELEASE_V1.0.2/MSDK/cloud/alicloud/src/protocol/coap/local\CoAPSerialize.c ****         len += 2;
 129:C:/Users/stapi/OneDrive/Desktop/GD32VW553/V1_MQTT_OK/GD32VW55X_Wifi_BLE_SDK/GD32VW55x_RELEASE_V1.0.2/MSDK/cloud/alicloud/src/protocol/coap/local\CoAPSerialize.c ****     }
 130:C:/Users/stapi/OneDrive/Desktop/GD32VW553/V1_MQTT_OK/GD32VW55X_Wifi_BLE_SDK/GD32VW55x_RELEASE_V1.0.2/MSDK/cloud/alicloud/src/protocol/coap/local\CoAPSerialize.c ****     else if(13 <= option->num){
 131:C:/Users/stapi/OneDrive/Desktop/GD32VW553/V1_MQTT_OK/GD32VW55X_Wifi_BLE_SDK/GD32VW55x_RELEASE_V1.0.2/MSDK/cloud/alicloud/src/protocol/coap/local\CoAPSerialize.c ****         len += 1;
 132:C:/Users/stapi/OneDrive/Desktop/GD32VW553/V1_MQTT_OK/GD32VW55X_Wifi_BLE_SDK/GD32VW55x_RELEASE_V1.0.2/MSDK/cloud/alicloud/src/protocol/coap/local\CoAPSerialize.c ****     }
 133:C:/Users/stapi/OneDrive/Desktop/GD32VW553/V1_MQTT_OK/GD32VW55X_Wifi_BLE_SDK/GD32VW55x_RELEASE_V1.0.2/MSDK/cloud/alicloud/src/protocol/coap/local\CoAPSerialize.c ****     else{
 134:C:/Users/stapi/OneDrive/Desktop/GD32VW553/V1_MQTT_OK/GD32VW55X_Wifi_BLE_SDK/GD32VW55x_RELEASE_V1.0.2/MSDK/cloud/alicloud/src/protocol/coap/local\CoAPSerialize.c ****     }
 135:C:/Users/stapi/OneDrive/Desktop/GD32VW553/V1_MQTT_OK/GD32VW55X_Wifi_BLE_SDK/GD32VW55x_RELEASE_V1.0.2/MSDK/cloud/alicloud/src/protocol/coap/local\CoAPSerialize.c **** 
 136:C:/Users/stapi/OneDrive/Desktop/GD32VW553/V1_MQTT_OK/GD32VW55X_Wifi_BLE_SDK/GD32VW55x_RELEASE_V1.0.2/MSDK/cloud/alicloud/src/protocol/coap/local\CoAPSerialize.c ****     if (269 <= option->len){
 137:C:/Users/stapi/OneDrive/Desktop/GD32VW553/V1_MQTT_OK/GD32VW55X_Wifi_BLE_SDK/GD32VW55x_RELEASE_V1.0.2/MSDK/cloud/alicloud/src/protocol/coap/local\CoAPSerialize.c ****         len += 2;
 138:C:/Users/stapi/OneDrive/Desktop/GD32VW553/V1_MQTT_OK/GD32VW55X_Wifi_BLE_SDK/GD32VW55x_RELEASE_V1.0.2/MSDK/cloud/alicloud/src/protocol/coap/local\CoAPSerialize.c ****     }
 139:C:/Users/stapi/OneDrive/Desktop/GD32VW553/V1_MQTT_OK/GD32VW55X_Wifi_BLE_SDK/GD32VW55x_RELEASE_V1.0.2/MSDK/cloud/alicloud/src/protocol/coap/local\CoAPSerialize.c ****     else if(13 <= option->len){
 140:C:/Users/stapi/OneDrive/Desktop/GD32VW553/V1_MQTT_OK/GD32VW55X_Wifi_BLE_SDK/GD32VW55x_RELEASE_V1.0.2/MSDK/cloud/alicloud/src/protocol/coap/local\CoAPSerialize.c ****         len += 1;
 141:C:/Users/stapi/OneDrive/Desktop/GD32VW553/V1_MQTT_OK/GD32VW55X_Wifi_BLE_SDK/GD32VW55x_RELEASE_V1.0.2/MSDK/cloud/alicloud/src/protocol/coap/local\CoAPSerialize.c ****     }
 142:C:/Users/stapi/OneDrive/Desktop/GD32VW553/V1_MQTT_OK/GD32VW55X_Wifi_BLE_SDK/GD32VW55x_RELEASE_V1.0.2/MSDK/cloud/alicloud/src/protocol/coap/local\CoAPSerialize.c ****     else{
 143:C:/Users/stapi/OneDrive/Desktop/GD32VW553/V1_MQTT_OK/GD32VW55X_Wifi_BLE_SDK/GD32VW55x_RELEASE_V1.0.2/MSDK/cloud/alicloud/src/protocol/coap/local\CoAPSerialize.c ****     }
 144:C:/Users/stapi/OneDrive/Desktop/GD32VW553/V1_MQTT_OK/GD32VW55X_Wifi_BLE_SDK/GD32VW55x_RELEASE_V1.0.2/MSDK/cloud/alicloud/src/protocol/coap/local\CoAPSerialize.c **** 
 145:C:/Users/stapi/OneDrive/Desktop/GD32VW553/V1_MQTT_OK/GD32VW55X_Wifi_BLE_SDK/GD32VW55x_RELEASE_V1.0.2/MSDK/cloud/alicloud/src/protocol/coap/local\CoAPSerialize.c ****     len += option->len;
 146:C:/Users/stapi/OneDrive/Desktop/GD32VW553/V1_MQTT_OK/GD32VW55X_Wifi_BLE_SDK/GD32VW55x_RELEASE_V1.0.2/MSDK/cloud/alicloud/src/protocol/coap/local\CoAPSerialize.c ****     return len;
 147:C:/Users/stapi/OneDrive/Desktop/GD32VW553/V1_MQTT_OK/GD32VW55X_Wifi_BLE_SDK/GD32VW55x_RELEASE_V1.0.2/MSDK/cloud/alicloud/src/protocol/coap/local\CoAPSerialize.c **** }
 148:C:/Users/stapi/OneDrive/Desktop/GD32VW553/V1_MQTT_OK/GD32VW55X_Wifi_BLE_SDK/GD32VW55x_RELEASE_V1.0.2/MSDK/cloud/alicloud/src/protocol/coap/local\CoAPSerialize.c **** 
 149:C:/Users/stapi/OneDrive/Desktop/GD32VW553/V1_MQTT_OK/GD32VW55X_Wifi_BLE_SDK/GD32VW55x_RELEASE_V1.0.2/MSDK/cloud/alicloud/src/protocol/coap/local\CoAPSerialize.c **** 
 150:C:/Users/stapi/OneDrive/Desktop/GD32VW553/V1_MQTT_OK/GD32VW55X_Wifi_BLE_SDK/GD32VW55x_RELEASE_V1.0.2/MSDK/cloud/alicloud/src/protocol/coap/local\CoAPSerialize.c **** unsigned short CoAPSerialize_OptionsLen(CoAPMessage *msg)
 151:C:/Users/stapi/OneDrive/Desktop/GD32VW553/V1_MQTT_OK/GD32VW55X_Wifi_BLE_SDK/GD32VW55x_RELEASE_V1.0.2/MSDK/cloud/alicloud/src/protocol/coap/local\CoAPSerialize.c **** {
 438              		.loc 1 151 1 is_stmt 1
 439              		.cfi_startproc
 440              	.LVL33:
 441 0000 17030000 		call	t0,__riscv_save_7
 441      E7020300 
 442              		.cfi_offset 22, -32
 443              		.cfi_offset 21, -28
 444              		.cfi_offset 20, -24
 445              		.cfi_offset 19, -20
 446              		.cfi_offset 18, -16
 447              		.cfi_offset 9, -12
 448              		.cfi_offset 8, -8
 449              		.cfi_offset 1, -4
 450              		.cfi_def_cfa_offset 32
 152:C:/Users/stapi/OneDrive/Desktop/GD32VW553/V1_MQTT_OK/GD32VW55X_Wifi_BLE_SDK/GD32VW55x_RELEASE_V1.0.2/MSDK/cloud/alicloud/src/protocol/coap/local\CoAPSerialize.c ****     int i      = 0;
 451              		.loc 1 152 5
 452              	.LVL34:
 153:C:/Users/stapi/OneDrive/Desktop/GD32VW553/V1_MQTT_OK/GD32VW55X_Wifi_BLE_SDK/GD32VW55x_RELEASE_V1.0.2/MSDK/cloud/alicloud/src/protocol/coap/local\CoAPSerialize.c ****     unsigned short count  = 0;
 453              		.loc 1 153 5
 154:C:/Users/stapi/OneDrive/Desktop/GD32VW553/V1_MQTT_OK/GD32VW55X_Wifi_BLE_SDK/GD32VW55x_RELEASE_V1.0.2/MSDK/cloud/alicloud/src/protocol/coap/local\CoAPSerialize.c ****     unsigned short optdelta = 0;
 454              		.loc 1 154 5
 155:C:/Users/stapi/OneDrive/Desktop/GD32VW553/V1_MQTT_OK/GD32VW55X_Wifi_BLE_SDK/GD32VW55x_RELEASE_V1.0.2/MSDK/cloud/alicloud/src/protocol/coap/local\CoAPSerialize.c ****     unsigned short opt_num;
 455              		.loc 1 155 5
 156:C:/Users/stapi/OneDrive/Desktop/GD32VW553/V1_MQTT_OK/GD32VW55X_Wifi_BLE_SDK/GD32VW55x_RELEASE_V1.0.2/MSDK/cloud/alicloud/src/protocol/coap/local\CoAPSerialize.c ****     CoAPMsgOption  option;
 456              		.loc 1 156 5
 157:C:/Users/stapi/OneDrive/Desktop/GD32VW553/V1_MQTT_OK/GD32VW55X_Wifi_BLE_SDK/GD32VW55x_RELEASE_V1.0.2/MSDK/cloud/alicloud/src/protocol/coap/local\CoAPSerialize.c ****     
 158:C:/Users/stapi/OneDrive/Desktop/GD32VW553/V1_MQTT_OK/GD32VW55X_Wifi_BLE_SDK/GD32VW55x_RELEASE_V1.0.2/MSDK/cloud/alicloud/src/protocol/coap/local\CoAPSerialize.c ****     for (i = 0; i < msg->optcount; i++) {
 457              		.loc 1 158 5
 151:C:/Users/stapi/OneDrive/Desktop/GD32VW553/V1_MQTT_OK/GD32VW55X_Wifi_BLE_SDK/GD32VW55x_RELEASE_V1.0.2/MSDK/cloud/alicloud/src/protocol/coap/local\CoAPSerialize.c ****     int i      = 0;
 458              		.loc 1 151 1 is_stmt 0
 459 0008 4111     		addi	sp,sp,-16
 460              		.cfi_def_cfa_offset 48
 151:C:/Users/stapi/OneDrive/Desktop/GD32VW553/V1_MQTT_OK/GD32VW55X_Wifi_BLE_SDK/GD32VW55x_RELEASE_V1.0.2/MSDK/cloud/alicloud/src/protocol/coap/local\CoAPSerialize.c ****     int i      = 0;
 461              		.loc 1 151 1
 462 000a 2A89     		mv	s2,a0
 463 000c 130AC500 		addi	s4,a0,12
 154:C:/Users/stapi/OneDrive/Desktop/GD32VW553/V1_MQTT_OK/GD32VW55X_Wifi_BLE_SDK/GD32VW55x_RELEASE_V1.0.2/MSDK/cloud/alicloud/src/protocol/coap/local\CoAPSerialize.c ****     unsigned short opt_num;
 464              		.loc 1 154 20
 465 0010 0144     		li	s0,0
 153:C:/Users/stapi/OneDrive/Desktop/GD32VW553/V1_MQTT_OK/GD32VW55X_Wifi_BLE_SDK/GD32VW55x_RELEASE_V1.0.2/MSDK/cloud/alicloud/src/protocol/coap/local\CoAPSerialize.c ****     unsigned short optdelta = 0;
 466              		.loc 1 153 20
 467 0012 8144     		li	s1,0
 468              		.loc 1 158 12
 469 0014 8149     		li	s3,0
 470              	.LBB30:
 471              	.LBB31:
 472              	.LBB32:
 127:C:/Users/stapi/OneDrive/Desktop/GD32VW553/V1_MQTT_OK/GD32VW55X_Wifi_BLE_SDK/GD32VW55x_RELEASE_V1.0.2/MSDK/cloud/alicloud/src/protocol/coap/local\CoAPSerialize.c ****         len += 2;
 473              		.loc 1 127 7
 474 0016 930AC010 		li	s5,268
 130:C:/Users/stapi/OneDrive/Desktop/GD32VW553/V1_MQTT_OK/GD32VW55X_Wifi_BLE_SDK/GD32VW55x_RELEASE_V1.0.2/MSDK/cloud/alicloud/src/protocol/coap/local\CoAPSerialize.c ****         len += 1;
 475              		.loc 1 130 12
 476 001a 314B     		li	s6,12
 477              	.LVL35:
 478              	.L30:
 479              	.LBE32:
 480              	.LBE31:
 481              	.LBE30:
 482              		.loc 1 158 17 is_stmt 1 discriminator 1
 483              		.loc 1 158 24 is_stmt 0 discriminator 1
 484 001c 8347C906 		lbu	a5,108(s2)
 485              		.loc 1 158 5 discriminator 1
 486 0020 63C8F900 		bgt	a5,s3,.L35
 487 0024 2685     		mv	a0,s1
 488              	.LVL36:
 489              	.L34:
 159:C:/Users/stapi/OneDrive/Desktop/GD32VW553/V1_MQTT_OK/GD32VW55X_Wifi_BLE_SDK/GD32VW55x_RELEASE_V1.0.2/MSDK/cloud/alicloud/src/protocol/coap/local\CoAPSerialize.c ****         unsigned short len = 0;
 160:C:/Users/stapi/OneDrive/Desktop/GD32VW553/V1_MQTT_OK/GD32VW55X_Wifi_BLE_SDK/GD32VW55x_RELEASE_V1.0.2/MSDK/cloud/alicloud/src/protocol/coap/local\CoAPSerialize.c ****         memcpy (&option, &msg->options[i], sizeof(CoAPMsgOption));
 161:C:/Users/stapi/OneDrive/Desktop/GD32VW553/V1_MQTT_OK/GD32VW55X_Wifi_BLE_SDK/GD32VW55x_RELEASE_V1.0.2/MSDK/cloud/alicloud/src/protocol/coap/local\CoAPSerialize.c ****         opt_num = option.num;
 162:C:/Users/stapi/OneDrive/Desktop/GD32VW553/V1_MQTT_OK/GD32VW55X_Wifi_BLE_SDK/GD32VW55x_RELEASE_V1.0.2/MSDK/cloud/alicloud/src/protocol/coap/local\CoAPSerialize.c ****         option.num = option.num - optdelta;
 163:C:/Users/stapi/OneDrive/Desktop/GD32VW553/V1_MQTT_OK/GD32VW55X_Wifi_BLE_SDK/GD32VW55x_RELEASE_V1.0.2/MSDK/cloud/alicloud/src/protocol/coap/local\CoAPSerialize.c ****         optdelta = opt_num;
 164:C:/Users/stapi/OneDrive/Desktop/GD32VW553/V1_MQTT_OK/GD32VW55X_Wifi_BLE_SDK/GD32VW55x_RELEASE_V1.0.2/MSDK/cloud/alicloud/src/protocol/coap/local\CoAPSerialize.c ****         
 165:C:/Users/stapi/OneDrive/Desktop/GD32VW553/V1_MQTT_OK/GD32VW55X_Wifi_BLE_SDK/GD32VW55x_RELEASE_V1.0.2/MSDK/cloud/alicloud/src/protocol/coap/local\CoAPSerialize.c ****         len = CoAPSerialize_OptionLen(&option);
 166:C:/Users/stapi/OneDrive/Desktop/GD32VW553/V1_MQTT_OK/GD32VW55X_Wifi_BLE_SDK/GD32VW55x_RELEASE_V1.0.2/MSDK/cloud/alicloud/src/protocol/coap/local\CoAPSerialize.c ****         if (0 < len){
 167:C:/Users/stapi/OneDrive/Desktop/GD32VW553/V1_MQTT_OK/GD32VW55X_Wifi_BLE_SDK/GD32VW55x_RELEASE_V1.0.2/MSDK/cloud/alicloud/src/protocol/coap/local\CoAPSerialize.c ****             count += len;
 168:C:/Users/stapi/OneDrive/Desktop/GD32VW553/V1_MQTT_OK/GD32VW55X_Wifi_BLE_SDK/GD32VW55x_RELEASE_V1.0.2/MSDK/cloud/alicloud/src/protocol/coap/local\CoAPSerialize.c ****         }
 169:C:/Users/stapi/OneDrive/Desktop/GD32VW553/V1_MQTT_OK/GD32VW55X_Wifi_BLE_SDK/GD32VW55x_RELEASE_V1.0.2/MSDK/cloud/alicloud/src/protocol/coap/local\CoAPSerialize.c ****         else{
 170:C:/Users/stapi/OneDrive/Desktop/GD32VW553/V1_MQTT_OK/GD32VW55X_Wifi_BLE_SDK/GD32VW55x_RELEASE_V1.0.2/MSDK/cloud/alicloud/src/protocol/coap/local\CoAPSerialize.c ****             return 0;
 171:C:/Users/stapi/OneDrive/Desktop/GD32VW553/V1_MQTT_OK/GD32VW55X_Wifi_BLE_SDK/GD32VW55x_RELEASE_V1.0.2/MSDK/cloud/alicloud/src/protocol/coap/local\CoAPSerialize.c ****         }
 172:C:/Users/stapi/OneDrive/Desktop/GD32VW553/V1_MQTT_OK/GD32VW55X_Wifi_BLE_SDK/GD32VW55x_RELEASE_V1.0.2/MSDK/cloud/alicloud/src/protocol/coap/local\CoAPSerialize.c ****     }
 173:C:/Users/stapi/OneDrive/Desktop/GD32VW553/V1_MQTT_OK/GD32VW55X_Wifi_BLE_SDK/GD32VW55x_RELEASE_V1.0.2/MSDK/cloud/alicloud/src/protocol/coap/local\CoAPSerialize.c **** 
 174:C:/Users/stapi/OneDrive/Desktop/GD32VW553/V1_MQTT_OK/GD32VW55X_Wifi_BLE_SDK/GD32VW55x_RELEASE_V1.0.2/MSDK/cloud/alicloud/src/protocol/coap/local\CoAPSerialize.c ****     return count;
 175:C:/Users/stapi/OneDrive/Desktop/GD32VW553/V1_MQTT_OK/GD32VW55X_Wifi_BLE_SDK/GD32VW55x_RELEASE_V1.0.2/MSDK/cloud/alicloud/src/protocol/coap/local\CoAPSerialize.c **** }
 490              		.loc 1 175 1
 491 0026 4101     		addi	sp,sp,16
 492              		.cfi_remember_state
 493              		.cfi_def_cfa_offset 0
 494 0028 17030000 		tail	__riscv_restore_7
 494      67000300 
 495              		.cfi_restore 22
 496              		.cfi_restore 21
 497              		.cfi_restore 20
 498              		.cfi_restore 19
 499              		.cfi_restore 18
 500              		.cfi_restore 9
 501              		.cfi_restore 8
 502              		.cfi_restore 1
 503              		.cfi_def_cfa_offset -32
 504              	.LVL37:
 505              	.L35:
 506              		.cfi_restore_state
 507              	.LBB41:
 159:C:/Users/stapi/OneDrive/Desktop/GD32VW553/V1_MQTT_OK/GD32VW55X_Wifi_BLE_SDK/GD32VW55x_RELEASE_V1.0.2/MSDK/cloud/alicloud/src/protocol/coap/local\CoAPSerialize.c ****         unsigned short len = 0;
 508              		.loc 1 159 9 is_stmt 1
 160:C:/Users/stapi/OneDrive/Desktop/GD32VW553/V1_MQTT_OK/GD32VW55X_Wifi_BLE_SDK/GD32VW55x_RELEASE_V1.0.2/MSDK/cloud/alicloud/src/protocol/coap/local\CoAPSerialize.c ****         opt_num = option.num;
 509              		.loc 1 160 9
 510 0030 2146     		li	a2,8
 511 0032 D285     		mv	a1,s4
 512 0034 2800     		addi	a0,sp,8
 513 0036 97000000 		call	memcpy
 513      E7800000 
 514              	.LVL38:
 161:C:/Users/stapi/OneDrive/Desktop/GD32VW553/V1_MQTT_OK/GD32VW55X_Wifi_BLE_SDK/GD32VW55x_RELEASE_V1.0.2/MSDK/cloud/alicloud/src/protocol/coap/local\CoAPSerialize.c ****         option.num = option.num - optdelta;
 515              		.loc 1 161 9
 161:C:/Users/stapi/OneDrive/Desktop/GD32VW553/V1_MQTT_OK/GD32VW55X_Wifi_BLE_SDK/GD32VW55x_RELEASE_V1.0.2/MSDK/cloud/alicloud/src/protocol/coap/local\CoAPSerialize.c ****         option.num = option.num - optdelta;
 516              		.loc 1 161 17 is_stmt 0
 517 003e 03568100 		lhu	a2,8(sp)
 518              	.LVL39:
 162:C:/Users/stapi/OneDrive/Desktop/GD32VW553/V1_MQTT_OK/GD32VW55X_Wifi_BLE_SDK/GD32VW55x_RELEASE_V1.0.2/MSDK/cloud/alicloud/src/protocol/coap/local\CoAPSerialize.c ****         optdelta = opt_num;
 519              		.loc 1 162 9 is_stmt 1
 520 0042 0357A100 		lhu	a4,10(sp)
 521              	.LBB37:
 522              	.LBB33:
 128:C:/Users/stapi/OneDrive/Desktop/GD32VW553/V1_MQTT_OK/GD32VW55X_Wifi_BLE_SDK/GD32VW55x_RELEASE_V1.0.2/MSDK/cloud/alicloud/src/protocol/coap/local\CoAPSerialize.c ****     }
 523              		.loc 1 128 13 is_stmt 0
 524 0046 8D47     		li	a5,3
 525              	.LBE33:
 526              	.LBE37:
 162:C:/Users/stapi/OneDrive/Desktop/GD32VW553/V1_MQTT_OK/GD32VW55X_Wifi_BLE_SDK/GD32VW55x_RELEASE_V1.0.2/MSDK/cloud/alicloud/src/protocol/coap/local\CoAPSerialize.c ****         optdelta = opt_num;
 527              		.loc 1 162 33
 528 0048 B3068640 		sub	a3,a2,s0
 529 004c B3C60608 		zext.h	a3,a3
 162:C:/Users/stapi/OneDrive/Desktop/GD32VW553/V1_MQTT_OK/GD32VW55X_Wifi_BLE_SDK/GD32VW55x_RELEASE_V1.0.2/MSDK/cloud/alicloud/src/protocol/coap/local\CoAPSerialize.c ****         optdelta = opt_num;
 530              		.loc 1 162 20
 531 0050 2314D100 		sh	a3,8(sp)
 163:C:/Users/stapi/OneDrive/Desktop/GD32VW553/V1_MQTT_OK/GD32VW55X_Wifi_BLE_SDK/GD32VW55x_RELEASE_V1.0.2/MSDK/cloud/alicloud/src/protocol/coap/local\CoAPSerialize.c ****         
 532              		.loc 1 163 9 is_stmt 1
 533              	.LVL40:
 165:C:/Users/stapi/OneDrive/Desktop/GD32VW553/V1_MQTT_OK/GD32VW55X_Wifi_BLE_SDK/GD32VW55x_RELEASE_V1.0.2/MSDK/cloud/alicloud/src/protocol/coap/local\CoAPSerialize.c ****         if (0 < len){
 534              		.loc 1 165 9
 535              	.LBB38:
 536              	.LBB34:
 125:C:/Users/stapi/OneDrive/Desktop/GD32VW553/V1_MQTT_OK/GD32VW55X_Wifi_BLE_SDK/GD32VW55x_RELEASE_V1.0.2/MSDK/cloud/alicloud/src/protocol/coap/local\CoAPSerialize.c **** 
 537              		.loc 1 125 5
 127:C:/Users/stapi/OneDrive/Desktop/GD32VW553/V1_MQTT_OK/GD32VW55X_Wifi_BLE_SDK/GD32VW55x_RELEASE_V1.0.2/MSDK/cloud/alicloud/src/protocol/coap/local\CoAPSerialize.c ****         len += 2;
 538              		.loc 1 127 5
 127:C:/Users/stapi/OneDrive/Desktop/GD32VW553/V1_MQTT_OK/GD32VW55X_Wifi_BLE_SDK/GD32VW55x_RELEASE_V1.0.2/MSDK/cloud/alicloud/src/protocol/coap/local\CoAPSerialize.c ****         len += 2;
 539              		.loc 1 127 7 is_stmt 0
 540 0054 63E5DA00 		bgtu	a3,s5,.L31
 130:C:/Users/stapi/OneDrive/Desktop/GD32VW553/V1_MQTT_OK/GD32VW55X_Wifi_BLE_SDK/GD32VW55x_RELEASE_V1.0.2/MSDK/cloud/alicloud/src/protocol/coap/local\CoAPSerialize.c ****         len += 1;
 541              		.loc 1 130 10 is_stmt 1
 131:C:/Users/stapi/OneDrive/Desktop/GD32VW553/V1_MQTT_OK/GD32VW55X_Wifi_BLE_SDK/GD32VW55x_RELEASE_V1.0.2/MSDK/cloud/alicloud/src/protocol/coap/local\CoAPSerialize.c ****     }
 542              		.loc 1 131 13 is_stmt 0
 543 0058 B337DB00 		sgtu	a5,a3,s6
 544 005c 8507     		addi	a5,a5,1
 545              	.L31:
 546              	.LVL41:
 134:C:/Users/stapi/OneDrive/Desktop/GD32VW553/V1_MQTT_OK/GD32VW55X_Wifi_BLE_SDK/GD32VW55x_RELEASE_V1.0.2/MSDK/cloud/alicloud/src/protocol/coap/local\CoAPSerialize.c **** 
 547              		.loc 1 134 5 is_stmt 1
 136:C:/Users/stapi/OneDrive/Desktop/GD32VW553/V1_MQTT_OK/GD32VW55X_Wifi_BLE_SDK/GD32VW55x_RELEASE_V1.0.2/MSDK/cloud/alicloud/src/protocol/coap/local\CoAPSerialize.c ****         len += 2;
 548              		.loc 1 136 5
 136:C:/Users/stapi/OneDrive/Desktop/GD32VW553/V1_MQTT_OK/GD32VW55X_Wifi_BLE_SDK/GD32VW55x_RELEASE_V1.0.2/MSDK/cloud/alicloud/src/protocol/coap/local\CoAPSerialize.c ****         len += 2;
 549              		.loc 1 136 8 is_stmt 0
 550 005e 63F0EA02 		bleu	a4,s5,.L32
 137:C:/Users/stapi/OneDrive/Desktop/GD32VW553/V1_MQTT_OK/GD32VW55X_Wifi_BLE_SDK/GD32VW55x_RELEASE_V1.0.2/MSDK/cloud/alicloud/src/protocol/coap/local\CoAPSerialize.c ****     }
 551              		.loc 1 137 9 is_stmt 1
 137:C:/Users/stapi/OneDrive/Desktop/GD32VW553/V1_MQTT_OK/GD32VW55X_Wifi_BLE_SDK/GD32VW55x_RELEASE_V1.0.2/MSDK/cloud/alicloud/src/protocol/coap/local\CoAPSerialize.c ****     }
 552              		.loc 1 137 13 is_stmt 0
 553 0062 8907     		addi	a5,a5,2
 554              	.LVL42:
 555              	.L42:
 140:C:/Users/stapi/OneDrive/Desktop/GD32VW553/V1_MQTT_OK/GD32VW55X_Wifi_BLE_SDK/GD32VW55x_RELEASE_V1.0.2/MSDK/cloud/alicloud/src/protocol/coap/local\CoAPSerialize.c ****     }
 556              		.loc 1 140 13
 557 0064 B3C70708 		zext.h	a5,a5
 558              	.LVL43:
 559              	.L33:
 143:C:/Users/stapi/OneDrive/Desktop/GD32VW553/V1_MQTT_OK/GD32VW55X_Wifi_BLE_SDK/GD32VW55x_RELEASE_V1.0.2/MSDK/cloud/alicloud/src/protocol/coap/local\CoAPSerialize.c **** 
 560              		.loc 1 143 5 is_stmt 1
 145:C:/Users/stapi/OneDrive/Desktop/GD32VW553/V1_MQTT_OK/GD32VW55X_Wifi_BLE_SDK/GD32VW55x_RELEASE_V1.0.2/MSDK/cloud/alicloud/src/protocol/coap/local\CoAPSerialize.c ****     return len;
 561              		.loc 1 145 5
 145:C:/Users/stapi/OneDrive/Desktop/GD32VW553/V1_MQTT_OK/GD32VW55X_Wifi_BLE_SDK/GD32VW55x_RELEASE_V1.0.2/MSDK/cloud/alicloud/src/protocol/coap/local\CoAPSerialize.c ****     return len;
 562              		.loc 1 145 9 is_stmt 0
 563 0068 BA97     		add	a5,a4,a5
 564              	.LVL44:
 565              	.LBE34:
 566              	.LBE38:
 166:C:/Users/stapi/OneDrive/Desktop/GD32VW553/V1_MQTT_OK/GD32VW55X_Wifi_BLE_SDK/GD32VW55x_RELEASE_V1.0.2/MSDK/cloud/alicloud/src/protocol/coap/local\CoAPSerialize.c ****             count += len;
 567              		.loc 1 166 12
 568 006a 210A     		addi	s4,s4,8
 569              	.LBB39:
 570              	.LBB35:
 145:C:/Users/stapi/OneDrive/Desktop/GD32VW553/V1_MQTT_OK/GD32VW55X_Wifi_BLE_SDK/GD32VW55x_RELEASE_V1.0.2/MSDK/cloud/alicloud/src/protocol/coap/local\CoAPSerialize.c ****     return len;
 571              		.loc 1 145 9
 572 006c 33C50708 		zext.h	a0,a5
 573              	.LVL45:
 146:C:/Users/stapi/OneDrive/Desktop/GD32VW553/V1_MQTT_OK/GD32VW55X_Wifi_BLE_SDK/GD32VW55x_RELEASE_V1.0.2/MSDK/cloud/alicloud/src/protocol/coap/local\CoAPSerialize.c **** }
 574              		.loc 1 146 5 is_stmt 1
 575              	.LBE35:
 576              	.LBE39:
 166:C:/Users/stapi/OneDrive/Desktop/GD32VW553/V1_MQTT_OK/GD32VW55X_Wifi_BLE_SDK/GD32VW55x_RELEASE_V1.0.2/MSDK/cloud/alicloud/src/protocol/coap/local\CoAPSerialize.c ****             count += len;
 577              		.loc 1 166 9
 166:C:/Users/stapi/OneDrive/Desktop/GD32VW553/V1_MQTT_OK/GD32VW55X_Wifi_BLE_SDK/GD32VW55x_RELEASE_V1.0.2/MSDK/cloud/alicloud/src/protocol/coap/local\CoAPSerialize.c ****             count += len;
 578              		.loc 1 166 12 is_stmt 0
 579 0070 5DD9     		beq	a0,zero,.L34
 167:C:/Users/stapi/OneDrive/Desktop/GD32VW553/V1_MQTT_OK/GD32VW55X_Wifi_BLE_SDK/GD32VW55x_RELEASE_V1.0.2/MSDK/cloud/alicloud/src/protocol/coap/local\CoAPSerialize.c ****         }
 580              		.loc 1 167 13 is_stmt 1
 167:C:/Users/stapi/OneDrive/Desktop/GD32VW553/V1_MQTT_OK/GD32VW55X_Wifi_BLE_SDK/GD32VW55x_RELEASE_V1.0.2/MSDK/cloud/alicloud/src/protocol/coap/local\CoAPSerialize.c ****         }
 581              		.loc 1 167 19 is_stmt 0
 582 0072 AA94     		add	s1,s1,a0
 583              	.LVL46:
 584              	.LBE41:
 158:C:/Users/stapi/OneDrive/Desktop/GD32VW553/V1_MQTT_OK/GD32VW55X_Wifi_BLE_SDK/GD32VW55x_RELEASE_V1.0.2/MSDK/cloud/alicloud/src/protocol/coap/local\CoAPSerialize.c ****         unsigned short len = 0;
 585              		.loc 1 158 37
 586 0074 8509     		addi	s3,s3,1
 587              	.LVL47:
 588              	.LBB42:
 163:C:/Users/stapi/OneDrive/Desktop/GD32VW553/V1_MQTT_OK/GD32VW55X_Wifi_BLE_SDK/GD32VW55x_RELEASE_V1.0.2/MSDK/cloud/alicloud/src/protocol/coap/local\CoAPSerialize.c ****         
 589              		.loc 1 163 18
 590 0076 3284     		mv	s0,a2
 167:C:/Users/stapi/OneDrive/Desktop/GD32VW553/V1_MQTT_OK/GD32VW55X_Wifi_BLE_SDK/GD32VW55x_RELEASE_V1.0.2/MSDK/cloud/alicloud/src/protocol/coap/local\CoAPSerialize.c ****         }
 591              		.loc 1 167 19
 592 0078 B3C40408 		zext.h	s1,s1
 593              	.LVL48:
 594              	.LBE42:
 158:C:/Users/stapi/OneDrive/Desktop/GD32VW553/V1_MQTT_OK/GD32VW55X_Wifi_BLE_SDK/GD32VW55x_RELEASE_V1.0.2/MSDK/cloud/alicloud/src/protocol/coap/local\CoAPSerialize.c ****         unsigned short len = 0;
 595              		.loc 1 158 36 is_stmt 1
 596 007c 45B7     		j	.L30
 597              	.LVL49:
 598              	.L32:
 599              	.LBB43:
 600              	.LBB40:
 601              	.LBB36:
 139:C:/Users/stapi/OneDrive/Desktop/GD32VW553/V1_MQTT_OK/GD32VW55X_Wifi_BLE_SDK/GD32VW55x_RELEASE_V1.0.2/MSDK/cloud/alicloud/src/protocol/coap/local\CoAPSerialize.c ****         len += 1;
 602              		.loc 1 139 10
 139:C:/Users/stapi/OneDrive/Desktop/GD32VW553/V1_MQTT_OK/GD32VW55X_Wifi_BLE_SDK/GD32VW55x_RELEASE_V1.0.2/MSDK/cloud/alicloud/src/protocol/coap/local\CoAPSerialize.c ****         len += 1;
 603              		.loc 1 139 12 is_stmt 0
 604 007e E375EBFE 		bleu	a4,s6,.L33
 140:C:/Users/stapi/OneDrive/Desktop/GD32VW553/V1_MQTT_OK/GD32VW55X_Wifi_BLE_SDK/GD32VW55x_RELEASE_V1.0.2/MSDK/cloud/alicloud/src/protocol/coap/local\CoAPSerialize.c ****     }
 605              		.loc 1 140 9 is_stmt 1
 140:C:/Users/stapi/OneDrive/Desktop/GD32VW553/V1_MQTT_OK/GD32VW55X_Wifi_BLE_SDK/GD32VW55x_RELEASE_V1.0.2/MSDK/cloud/alicloud/src/protocol/coap/local\CoAPSerialize.c ****     }
 606              		.loc 1 140 13 is_stmt 0
 607 0082 8507     		addi	a5,a5,1
 608              	.LVL50:
 609 0084 C5B7     		j	.L42
 610              	.LBE36:
 611              	.LBE40:
 612              	.LBE43:
 613              		.cfi_endproc
 614              	.LFE25:
 616              		.section	.text.CoAPSerialize_Payload,"ax",@progbits
 617              		.align	1
 618              		.globl	CoAPSerialize_Payload
 620              	CoAPSerialize_Payload:
 621              	.LFB26:
 176:C:/Users/stapi/OneDrive/Desktop/GD32VW553/V1_MQTT_OK/GD32VW55X_Wifi_BLE_SDK/GD32VW55x_RELEASE_V1.0.2/MSDK/cloud/alicloud/src/protocol/coap/local\CoAPSerialize.c **** 
 177:C:/Users/stapi/OneDrive/Desktop/GD32VW553/V1_MQTT_OK/GD32VW55X_Wifi_BLE_SDK/GD32VW55x_RELEASE_V1.0.2/MSDK/cloud/alicloud/src/protocol/coap/local\CoAPSerialize.c **** 
 178:C:/Users/stapi/OneDrive/Desktop/GD32VW553/V1_MQTT_OK/GD32VW55X_Wifi_BLE_SDK/GD32VW55x_RELEASE_V1.0.2/MSDK/cloud/alicloud/src/protocol/coap/local\CoAPSerialize.c **** int CoAPSerialize_Payload(CoAPMessage *msg, unsigned char *buf, int buflen)
 179:C:/Users/stapi/OneDrive/Desktop/GD32VW553/V1_MQTT_OK/GD32VW55X_Wifi_BLE_SDK/GD32VW55x_RELEASE_V1.0.2/MSDK/cloud/alicloud/src/protocol/coap/local\CoAPSerialize.c **** {
 622              		.loc 1 179 1 is_stmt 1
 623              		.cfi_startproc
 624              	.LVL51:
 180:C:/Users/stapi/OneDrive/Desktop/GD32VW553/V1_MQTT_OK/GD32VW55X_Wifi_BLE_SDK/GD32VW55x_RELEASE_V1.0.2/MSDK/cloud/alicloud/src/protocol/coap/local\CoAPSerialize.c ****     if(msg->payloadlen + 1 > buflen){
 625              		.loc 1 180 5
 626              		.loc 1 180 11 is_stmt 0
 627 0000 0357E506 		lhu	a4,110(a0)
 628              		.loc 1 180 7
 629 0004 635FC702 		bge	a4,a2,.L45
 179:C:/Users/stapi/OneDrive/Desktop/GD32VW553/V1_MQTT_OK/GD32VW55X_Wifi_BLE_SDK/GD32VW55x_RELEASE_V1.0.2/MSDK/cloud/alicloud/src/protocol/coap/local\CoAPSerialize.c ****     if(msg->payloadlen + 1 > buflen){
 630              		.loc 1 179 1
 631 0008 17030000 		call	t0,__riscv_save_1
 631      E7020300 
 632              		.cfi_offset 8, -8
 633              		.cfi_offset 1, -4
 634              		.cfi_def_cfa_offset 16
 635 0010 2A84     		mv	s0,a0
 181:C:/Users/stapi/OneDrive/Desktop/GD32VW553/V1_MQTT_OK/GD32VW55X_Wifi_BLE_SDK/GD32VW55x_RELEASE_V1.0.2/MSDK/cloud/alicloud/src/protocol/coap/local\CoAPSerialize.c ****         return 0;
 182:C:/Users/stapi/OneDrive/Desktop/GD32VW553/V1_MQTT_OK/GD32VW55X_Wifi_BLE_SDK/GD32VW55x_RELEASE_V1.0.2/MSDK/cloud/alicloud/src/protocol/coap/local\CoAPSerialize.c ****     }
 183:C:/Users/stapi/OneDrive/Desktop/GD32VW553/V1_MQTT_OK/GD32VW55X_Wifi_BLE_SDK/GD32VW55x_RELEASE_V1.0.2/MSDK/cloud/alicloud/src/protocol/coap/local\CoAPSerialize.c ****     if(msg->payloadlen > 0 && NULL != msg->payload)
 636              		.loc 1 183 5 is_stmt 1
 181:C:/Users/stapi/OneDrive/Desktop/GD32VW553/V1_MQTT_OK/GD32VW55X_Wifi_BLE_SDK/GD32VW55x_RELEASE_V1.0.2/MSDK/cloud/alicloud/src/protocol/coap/local\CoAPSerialize.c ****         return 0;
 637              		.loc 1 181 16 is_stmt 0
 638 0012 0145     		li	a0,0
 639              	.LVL52:
 640              		.loc 1 183 7
 641 0014 1DC3     		beq	a4,zero,.L43
 642              		.loc 1 183 28 discriminator 1
 643 0016 3858     		lw	a4,112(s0)
 644 0018 0DC3     		beq	a4,zero,.L43
 645              	.LBB46:
 646              	.LBB47:
 184:C:/Users/stapi/OneDrive/Desktop/GD32VW553/V1_MQTT_OK/GD32VW55X_Wifi_BLE_SDK/GD32VW55x_RELEASE_V1.0.2/MSDK/cloud/alicloud/src/protocol/coap/local\CoAPSerialize.c ****     {
 185:C:/Users/stapi/OneDrive/Desktop/GD32VW553/V1_MQTT_OK/GD32VW55X_Wifi_BLE_SDK/GD32VW55x_RELEASE_V1.0.2/MSDK/cloud/alicloud/src/protocol/coap/local\CoAPSerialize.c ****         *buf = 0xFF;
 647              		.loc 1 185 14
 648 001a 7D57     		li	a4,-1
 649 001c 2380E500 		sb	a4,0(a1)
 650 0020 AE87     		mv	a5,a1
 651              	.LVL53:
 652              		.loc 1 185 9 is_stmt 1
 186:C:/Users/stapi/OneDrive/Desktop/GD32VW553/V1_MQTT_OK/GD32VW55X_Wifi_BLE_SDK/GD32VW55x_RELEASE_V1.0.2/MSDK/cloud/alicloud/src/protocol/coap/local\CoAPSerialize.c ****         buf ++;
 653              		.loc 1 186 9
 187:C:/Users/stapi/OneDrive/Desktop/GD32VW553/V1_MQTT_OK/GD32VW55X_Wifi_BLE_SDK/GD32VW55x_RELEASE_V1.0.2/MSDK/cloud/alicloud/src/protocol/coap/local\CoAPSerialize.c ****         memcpy(buf, msg->payload, msg->payloadlen);
 654              		.loc 1 187 9
 655 0022 0356E406 		lhu	a2,110(s0)
 656              	.LVL54:
 657 0026 2C58     		lw	a1,112(s0)
 658              	.LVL55:
 659 0028 13851700 		addi	a0,a5,1
 660              	.LVL56:
 661 002c 97000000 		call	memcpy
 661      E7800000 
 662              	.LVL57:
 188:C:/Users/stapi/OneDrive/Desktop/GD32VW553/V1_MQTT_OK/GD32VW55X_Wifi_BLE_SDK/GD32VW55x_RELEASE_V1.0.2/MSDK/cloud/alicloud/src/protocol/coap/local\CoAPSerialize.c ****         return msg->payloadlen + 1;
 663              		.loc 1 188 9
 664              		.loc 1 188 19 is_stmt 0
 665 0034 0355E406 		lhu	a0,110(s0)
 666              		.loc 1 188 32
 667 0038 0505     		addi	a0,a0,1
 668              	.LVL58:
 669              	.L43:
 670              	.LBE47:
 671              	.LBE46:
 189:C:/Users/stapi/OneDrive/Desktop/GD32VW553/V1_MQTT_OK/GD32VW55X_Wifi_BLE_SDK/GD32VW55x_RELEASE_V1.0.2/MSDK/cloud/alicloud/src/protocol/coap/local\CoAPSerialize.c ****     }
 190:C:/Users/stapi/OneDrive/Desktop/GD32VW553/V1_MQTT_OK/GD32VW55X_Wifi_BLE_SDK/GD32VW55x_RELEASE_V1.0.2/MSDK/cloud/alicloud/src/protocol/coap/local\CoAPSerialize.c ****     else{
 191:C:/Users/stapi/OneDrive/Desktop/GD32VW553/V1_MQTT_OK/GD32VW55X_Wifi_BLE_SDK/GD32VW55x_RELEASE_V1.0.2/MSDK/cloud/alicloud/src/protocol/coap/local\CoAPSerialize.c ****         return 0;
 192:C:/Users/stapi/OneDrive/Desktop/GD32VW553/V1_MQTT_OK/GD32VW55X_Wifi_BLE_SDK/GD32VW55x_RELEASE_V1.0.2/MSDK/cloud/alicloud/src/protocol/coap/local\CoAPSerialize.c ****     }
 193:C:/Users/stapi/OneDrive/Desktop/GD32VW553/V1_MQTT_OK/GD32VW55X_Wifi_BLE_SDK/GD32VW55x_RELEASE_V1.0.2/MSDK/cloud/alicloud/src/protocol/coap/local\CoAPSerialize.c **** }
 672              		.loc 1 193 1
 673 003a 17030000 		tail	__riscv_restore_1
 673      67000300 
 674              		.cfi_restore 8
 675              		.cfi_restore 1
 676              		.cfi_def_cfa_offset 0
 677              	.LVL59:
 678              	.L45:
 181:C:/Users/stapi/OneDrive/Desktop/GD32VW553/V1_MQTT_OK/GD32VW55X_Wifi_BLE_SDK/GD32VW55x_RELEASE_V1.0.2/MSDK/cloud/alicloud/src/protocol/coap/local\CoAPSerialize.c ****     }
 679              		.loc 1 181 16
 680 0042 0145     		li	a0,0
 681              	.LVL60:
 682              		.loc 1 193 1
 683 0044 8280     		ret
 684              		.cfi_endproc
 685              	.LFE26:
 687              		.section	.text.CoAPSerialize_MessageLength,"ax",@progbits
 688              		.align	1
 689              		.globl	CoAPSerialize_MessageLength
 691              	CoAPSerialize_MessageLength:
 692              	.LFB27:
 194:C:/Users/stapi/OneDrive/Desktop/GD32VW553/V1_MQTT_OK/GD32VW55X_Wifi_BLE_SDK/GD32VW55x_RELEASE_V1.0.2/MSDK/cloud/alicloud/src/protocol/coap/local\CoAPSerialize.c **** 
 195:C:/Users/stapi/OneDrive/Desktop/GD32VW553/V1_MQTT_OK/GD32VW55X_Wifi_BLE_SDK/GD32VW55x_RELEASE_V1.0.2/MSDK/cloud/alicloud/src/protocol/coap/local\CoAPSerialize.c **** 
 196:C:/Users/stapi/OneDrive/Desktop/GD32VW553/V1_MQTT_OK/GD32VW55X_Wifi_BLE_SDK/GD32VW55x_RELEASE_V1.0.2/MSDK/cloud/alicloud/src/protocol/coap/local\CoAPSerialize.c **** unsigned short CoAPSerialize_MessageLength(CoAPMessage *msg)
 197:C:/Users/stapi/OneDrive/Desktop/GD32VW553/V1_MQTT_OK/GD32VW55X_Wifi_BLE_SDK/GD32VW55x_RELEASE_V1.0.2/MSDK/cloud/alicloud/src/protocol/coap/local\CoAPSerialize.c **** {
 693              		.loc 1 197 1 is_stmt 1
 694              		.cfi_startproc
 695              	.LVL61:
 696 0000 17030000 		call	t0,__riscv_save_2
 696      E7020300 
 697              		.cfi_offset 9, -12
 698              		.cfi_offset 8, -8
 699              		.cfi_offset 1, -4
 700              		.cfi_def_cfa_offset 16
 198:C:/Users/stapi/OneDrive/Desktop/GD32VW553/V1_MQTT_OK/GD32VW55X_Wifi_BLE_SDK/GD32VW55x_RELEASE_V1.0.2/MSDK/cloud/alicloud/src/protocol/coap/local\CoAPSerialize.c ****     unsigned short msglen = 4;
 701              		.loc 1 198 5
 702              	.LVL62:
 199:C:/Users/stapi/OneDrive/Desktop/GD32VW553/V1_MQTT_OK/GD32VW55X_Wifi_BLE_SDK/GD32VW55x_RELEASE_V1.0.2/MSDK/cloud/alicloud/src/protocol/coap/local\CoAPSerialize.c **** 
 200:C:/Users/stapi/OneDrive/Desktop/GD32VW553/V1_MQTT_OK/GD32VW55X_Wifi_BLE_SDK/GD32VW55x_RELEASE_V1.0.2/MSDK/cloud/alicloud/src/protocol/coap/local\CoAPSerialize.c ****     msglen += msg->header.tokenlen;
 703              		.loc 1 200 5
 704              		.loc 1 200 26 is_stmt 0
 705 0008 0041     		lw	s0,0(a0)
 197:C:/Users/stapi/OneDrive/Desktop/GD32VW553/V1_MQTT_OK/GD32VW55X_Wifi_BLE_SDK/GD32VW55x_RELEASE_V1.0.2/MSDK/cloud/alicloud/src/protocol/coap/local\CoAPSerialize.c ****     unsigned short msglen = 4;
 706              		.loc 1 197 1
 707 000a AA84     		mv	s1,a0
 201:C:/Users/stapi/OneDrive/Desktop/GD32VW553/V1_MQTT_OK/GD32VW55X_Wifi_BLE_SDK/GD32VW55x_RELEASE_V1.0.2/MSDK/cloud/alicloud/src/protocol/coap/local\CoAPSerialize.c ****     msglen += CoAPSerialize_OptionsLen(msg);
 708              		.loc 1 201 15
 709 000c 97000000 		call	CoAPSerialize_OptionsLen
 709      E7800000 
 710              	.LVL63:
 200:C:/Users/stapi/OneDrive/Desktop/GD32VW553/V1_MQTT_OK/GD32VW55X_Wifi_BLE_SDK/GD32VW55x_RELEASE_V1.0.2/MSDK/cloud/alicloud/src/protocol/coap/local\CoAPSerialize.c ****     msglen += CoAPSerialize_OptionsLen(msg);
 711              		.loc 1 200 26
 712 0014 1180     		srli	s0,s0,4
 713 0016 3D88     		andi	s0,s0,15
 202:C:/Users/stapi/OneDrive/Desktop/GD32VW553/V1_MQTT_OK/GD32VW55X_Wifi_BLE_SDK/GD32VW55x_RELEASE_V1.0.2/MSDK/cloud/alicloud/src/protocol/coap/local\CoAPSerialize.c **** 
 203:C:/Users/stapi/OneDrive/Desktop/GD32VW553/V1_MQTT_OK/GD32VW55X_Wifi_BLE_SDK/GD32VW55x_RELEASE_V1.0.2/MSDK/cloud/alicloud/src/protocol/coap/local\CoAPSerialize.c ****     if(0 < msg->payloadlen){
 714              		.loc 1 203 15
 715 0018 83D7E406 		lhu	a5,110(s1)
 200:C:/Users/stapi/OneDrive/Desktop/GD32VW553/V1_MQTT_OK/GD32VW55X_Wifi_BLE_SDK/GD32VW55x_RELEASE_V1.0.2/MSDK/cloud/alicloud/src/protocol/coap/local\CoAPSerialize.c ****     msglen += CoAPSerialize_OptionsLen(msg);
 716              		.loc 1 200 12
 717 001c 1104     		addi	s0,s0,4
 718              	.LVL64:
 201:C:/Users/stapi/OneDrive/Desktop/GD32VW553/V1_MQTT_OK/GD32VW55X_Wifi_BLE_SDK/GD32VW55x_RELEASE_V1.0.2/MSDK/cloud/alicloud/src/protocol/coap/local\CoAPSerialize.c **** 
 719              		.loc 1 201 5 is_stmt 1
 201:C:/Users/stapi/OneDrive/Desktop/GD32VW553/V1_MQTT_OK/GD32VW55X_Wifi_BLE_SDK/GD32VW55x_RELEASE_V1.0.2/MSDK/cloud/alicloud/src/protocol/coap/local\CoAPSerialize.c **** 
 720              		.loc 1 201 12 is_stmt 0
 721 001e 2295     		add	a0,s0,a0
 722 0020 33450508 		zext.h	a0,a0
 723              	.LVL65:
 724              		.loc 1 203 5 is_stmt 1
 725              		.loc 1 203 7 is_stmt 0
 726 0024 89C7     		beq	a5,zero,.L54
 204:C:/Users/stapi/OneDrive/Desktop/GD32VW553/V1_MQTT_OK/GD32VW55X_Wifi_BLE_SDK/GD32VW55x_RELEASE_V1.0.2/MSDK/cloud/alicloud/src/protocol/coap/local\CoAPSerialize.c ****         msglen += msg->payloadlen;
 727              		.loc 1 204 9 is_stmt 1
 728              	.LVL66:
 205:C:/Users/stapi/OneDrive/Desktop/GD32VW553/V1_MQTT_OK/GD32VW55X_Wifi_BLE_SDK/GD32VW55x_RELEASE_V1.0.2/MSDK/cloud/alicloud/src/protocol/coap/local\CoAPSerialize.c ****         msglen += 1; /*CoAP payload marker*/
 729              		.loc 1 205 9
 730              		.loc 1 205 16 is_stmt 0
 731 0026 8507     		addi	a5,a5,1
 732              	.LVL67:
 733 0028 3E95     		add	a0,a0,a5
 734              	.LVL68:
 735 002a 33450508 		zext.h	a0,a0
 736              	.LVL69:
 737              	.L54:
 206:C:/Users/stapi/OneDrive/Desktop/GD32VW553/V1_MQTT_OK/GD32VW55X_Wifi_BLE_SDK/GD32VW55x_RELEASE_V1.0.2/MSDK/cloud/alicloud/src/protocol/coap/local\CoAPSerialize.c ****     }
 207:C:/Users/stapi/OneDrive/Desktop/GD32VW553/V1_MQTT_OK/GD32VW55X_Wifi_BLE_SDK/GD32VW55x_RELEASE_V1.0.2/MSDK/cloud/alicloud/src/protocol/coap/local\CoAPSerialize.c **** 
 208:C:/Users/stapi/OneDrive/Desktop/GD32VW553/V1_MQTT_OK/GD32VW55X_Wifi_BLE_SDK/GD32VW55x_RELEASE_V1.0.2/MSDK/cloud/alicloud/src/protocol/coap/local\CoAPSerialize.c ****     return msglen;
 738              		.loc 1 208 5 is_stmt 1
 209:C:/Users/stapi/OneDrive/Desktop/GD32VW553/V1_MQTT_OK/GD32VW55X_Wifi_BLE_SDK/GD32VW55x_RELEASE_V1.0.2/MSDK/cloud/alicloud/src/protocol/coap/local\CoAPSerialize.c **** }
 739              		.loc 1 209 1 is_stmt 0
 740 002e 17030000 		tail	__riscv_restore_2
 740      67000300 
 741              		.cfi_restore 9
 742              		.cfi_restore 8
 743              		.cfi_restore 1
 744              		.cfi_def_cfa_offset 0
 745              		.cfi_endproc
 746              	.LFE27:
 748              		.section	.text.CoAPSerialize_Message,"ax",@progbits
 749              		.align	1
 750              		.globl	CoAPSerialize_Message
 752              	CoAPSerialize_Message:
 753              	.LFB28:
 210:C:/Users/stapi/OneDrive/Desktop/GD32VW553/V1_MQTT_OK/GD32VW55X_Wifi_BLE_SDK/GD32VW55x_RELEASE_V1.0.2/MSDK/cloud/alicloud/src/protocol/coap/local\CoAPSerialize.c **** 
 211:C:/Users/stapi/OneDrive/Desktop/GD32VW553/V1_MQTT_OK/GD32VW55X_Wifi_BLE_SDK/GD32VW55x_RELEASE_V1.0.2/MSDK/cloud/alicloud/src/protocol/coap/local\CoAPSerialize.c **** int CoAPSerialize_Message(CoAPMessage *msg, unsigned char *buf, unsigned short buflen)
 212:C:/Users/stapi/OneDrive/Desktop/GD32VW553/V1_MQTT_OK/GD32VW55X_Wifi_BLE_SDK/GD32VW55x_RELEASE_V1.0.2/MSDK/cloud/alicloud/src/protocol/coap/local\CoAPSerialize.c **** {
 754              		.loc 1 212 1 is_stmt 1
 755              		.cfi_startproc
 756              	.LVL70:
 213:C:/Users/stapi/OneDrive/Desktop/GD32VW553/V1_MQTT_OK/GD32VW55X_Wifi_BLE_SDK/GD32VW55x_RELEASE_V1.0.2/MSDK/cloud/alicloud/src/protocol/coap/local\CoAPSerialize.c ****     unsigned char *ptr   = buf;
 757              		.loc 1 213 5
 214:C:/Users/stapi/OneDrive/Desktop/GD32VW553/V1_MQTT_OK/GD32VW55X_Wifi_BLE_SDK/GD32VW55x_RELEASE_V1.0.2/MSDK/cloud/alicloud/src/protocol/coap/local\CoAPSerialize.c ****     unsigned short count = 0;
 758              		.loc 1 214 5
 215:C:/Users/stapi/OneDrive/Desktop/GD32VW553/V1_MQTT_OK/GD32VW55X_Wifi_BLE_SDK/GD32VW55x_RELEASE_V1.0.2/MSDK/cloud/alicloud/src/protocol/coap/local\CoAPSerialize.c ****     unsigned short remlen  = buflen;
 759              		.loc 1 215 5
 216:C:/Users/stapi/OneDrive/Desktop/GD32VW553/V1_MQTT_OK/GD32VW55X_Wifi_BLE_SDK/GD32VW55x_RELEASE_V1.0.2/MSDK/cloud/alicloud/src/protocol/coap/local\CoAPSerialize.c **** 
 217:C:/Users/stapi/OneDrive/Desktop/GD32VW553/V1_MQTT_OK/GD32VW55X_Wifi_BLE_SDK/GD32VW55x_RELEASE_V1.0.2/MSDK/cloud/alicloud/src/protocol/coap/local\CoAPSerialize.c ****     if(NULL == buf || NULL == msg){
 760              		.loc 1 217 5
 761              		.loc 1 217 7 is_stmt 0
 762 0000 D1C1     		beq	a1,zero,.L61
 212:C:/Users/stapi/OneDrive/Desktop/GD32VW553/V1_MQTT_OK/GD32VW55X_Wifi_BLE_SDK/GD32VW55x_RELEASE_V1.0.2/MSDK/cloud/alicloud/src/protocol/coap/local\CoAPSerialize.c ****     unsigned char *ptr   = buf;
 763              		.loc 1 212 1 discriminator 1
 764 0002 17030000 		call	t0,__riscv_save_5
 764      E7020300 
 765              		.cfi_offset 20, -24
 766              		.cfi_offset 19, -20
 767              		.cfi_offset 18, -16
 768              		.cfi_offset 9, -12
 769              		.cfi_offset 8, -8
 770              		.cfi_offset 1, -4
 771              		.cfi_def_cfa_offset 32
 772 000a 2A89     		mv	s2,a0
 218:C:/Users/stapi/OneDrive/Desktop/GD32VW553/V1_MQTT_OK/GD32VW55X_Wifi_BLE_SDK/GD32VW55x_RELEASE_V1.0.2/MSDK/cloud/alicloud/src/protocol/coap/local\CoAPSerialize.c ****         return COAP_ERROR_INVALID_PARAM;
 773              		.loc 1 218 16 discriminator 1
 774 000c 93071010 		li	a5,257
 217:C:/Users/stapi/OneDrive/Desktop/GD32VW553/V1_MQTT_OK/GD32VW55X_Wifi_BLE_SDK/GD32VW55x_RELEASE_V1.0.2/MSDK/cloud/alicloud/src/protocol/coap/local\CoAPSerialize.c ****         return COAP_ERROR_INVALID_PARAM;
 775              		.loc 1 217 20 discriminator 1
 776 0010 2DC5     		beq	a0,zero,.L59
 219:C:/Users/stapi/OneDrive/Desktop/GD32VW553/V1_MQTT_OK/GD32VW55X_Wifi_BLE_SDK/GD32VW55x_RELEASE_V1.0.2/MSDK/cloud/alicloud/src/protocol/coap/local\CoAPSerialize.c ****     }
 220:C:/Users/stapi/OneDrive/Desktop/GD32VW553/V1_MQTT_OK/GD32VW55X_Wifi_BLE_SDK/GD32VW55x_RELEASE_V1.0.2/MSDK/cloud/alicloud/src/protocol/coap/local\CoAPSerialize.c **** 
 221:C:/Users/stapi/OneDrive/Desktop/GD32VW553/V1_MQTT_OK/GD32VW55X_Wifi_BLE_SDK/GD32VW55x_RELEASE_V1.0.2/MSDK/cloud/alicloud/src/protocol/coap/local\CoAPSerialize.c ****     count = CoAPSerialize_Header(msg, ptr, remlen);
 222:C:/Users/stapi/OneDrive/Desktop/GD32VW553/V1_MQTT_OK/GD32VW55X_Wifi_BLE_SDK/GD32VW55x_RELEASE_V1.0.2/MSDK/cloud/alicloud/src/protocol/coap/local\CoAPSerialize.c ****     ptr += count;
 777              		.loc 1 222 9
 778 0012 416A     		li	s4,65536
 779 0014 2E84     		mv	s0,a1
 780 0016 B284     		mv	s1,a2
 221:C:/Users/stapi/OneDrive/Desktop/GD32VW553/V1_MQTT_OK/GD32VW55X_Wifi_BLE_SDK/GD32VW55x_RELEASE_V1.0.2/MSDK/cloud/alicloud/src/protocol/coap/local\CoAPSerialize.c ****     ptr += count;
 781              		.loc 1 221 5 is_stmt 1
 782              		.loc 1 222 9 is_stmt 0
 783 0018 7D1A     		addi	s4,s4,-1
 221:C:/Users/stapi/OneDrive/Desktop/GD32VW553/V1_MQTT_OK/GD32VW55X_Wifi_BLE_SDK/GD32VW55x_RELEASE_V1.0.2/MSDK/cloud/alicloud/src/protocol/coap/local\CoAPSerialize.c ****     ptr += count;
 784              		.loc 1 221 13
 785 001a 97000000 		call	CoAPSerialize_Header
 785      E7800000 
 786              	.LVL71:
 787              		.loc 1 222 5 is_stmt 1
 788              		.loc 1 222 9 is_stmt 0
 789 0022 B3794501 		and	s3,a0,s4
 790 0026 A299     		add	s3,s0,s3
 791              	.LVL72:
 223:C:/Users/stapi/OneDrive/Desktop/GD32VW553/V1_MQTT_OK/GD32VW55X_Wifi_BLE_SDK/GD32VW55x_RELEASE_V1.0.2/MSDK/cloud/alicloud/src/protocol/coap/local\CoAPSerialize.c ****     remlen -= count;
 792              		.loc 1 223 5 is_stmt 1
 793              		.loc 1 223 12 is_stmt 0
 794 0028 3384A440 		sub	s0,s1,a0
 795              	.LVL73:
 224:C:/Users/stapi/OneDrive/Desktop/GD32VW553/V1_MQTT_OK/GD32VW55X_Wifi_BLE_SDK/GD32VW55x_RELEASE_V1.0.2/MSDK/cloud/alicloud/src/protocol/coap/local\CoAPSerialize.c **** 
 225:C:/Users/stapi/OneDrive/Desktop/GD32VW553/V1_MQTT_OK/GD32VW55X_Wifi_BLE_SDK/GD32VW55x_RELEASE_V1.0.2/MSDK/cloud/alicloud/src/protocol/coap/local\CoAPSerialize.c ****     count = CoAPSerialize_Token(msg, ptr, remlen);
 796              		.loc 1 225 13
 797 002c CE85     		mv	a1,s3
 223:C:/Users/stapi/OneDrive/Desktop/GD32VW553/V1_MQTT_OK/GD32VW55X_Wifi_BLE_SDK/GD32VW55x_RELEASE_V1.0.2/MSDK/cloud/alicloud/src/protocol/coap/local\CoAPSerialize.c ****     remlen -= count;
 798              		.loc 1 223 12
 799 002e 33440408 		zext.h	s0,s0
 800              	.LVL74:
 801              		.loc 1 225 5 is_stmt 1
 802              		.loc 1 225 13 is_stmt 0
 803 0032 4A85     		mv	a0,s2
 804              	.LVL75:
 805 0034 2286     		mv	a2,s0
 806 0036 97000000 		call	CoAPSerialize_Token
 806      E7800000 
 807              	.LVL76:
 226:C:/Users/stapi/OneDrive/Desktop/GD32VW553/V1_MQTT_OK/GD32VW55X_Wifi_BLE_SDK/GD32VW55x_RELEASE_V1.0.2/MSDK/cloud/alicloud/src/protocol/coap/local\CoAPSerialize.c ****     ptr += count;
 808              		.loc 1 226 5 is_stmt 1
 809              		.loc 1 226 9 is_stmt 0
 810 003e 337A4501 		and	s4,a0,s4
 811 0042 D299     		add	s3,s3,s4
 812              	.LVL77:
 227:C:/Users/stapi/OneDrive/Desktop/GD32VW553/V1_MQTT_OK/GD32VW55X_Wifi_BLE_SDK/GD32VW55x_RELEASE_V1.0.2/MSDK/cloud/alicloud/src/protocol/coap/local\CoAPSerialize.c ****     remlen -= count;
 813              		.loc 1 227 5 is_stmt 1
 814              		.loc 1 227 12 is_stmt 0
 815 0044 098C     		sub	s0,s0,a0
 816              	.LVL78:
 228:C:/Users/stapi/OneDrive/Desktop/GD32VW553/V1_MQTT_OK/GD32VW55X_Wifi_BLE_SDK/GD32VW55x_RELEASE_V1.0.2/MSDK/cloud/alicloud/src/protocol/coap/local\CoAPSerialize.c **** 
 229:C:/Users/stapi/OneDrive/Desktop/GD32VW553/V1_MQTT_OK/GD32VW55X_Wifi_BLE_SDK/GD32VW55x_RELEASE_V1.0.2/MSDK/cloud/alicloud/src/protocol/coap/local\CoAPSerialize.c ****     count = CoAPSerialize_Options(msg, ptr, remlen);
 817              		.loc 1 229 13
 818 0046 CE85     		mv	a1,s3
 227:C:/Users/stapi/OneDrive/Desktop/GD32VW553/V1_MQTT_OK/GD32VW55X_Wifi_BLE_SDK/GD32VW55x_RELEASE_V1.0.2/MSDK/cloud/alicloud/src/protocol/coap/local\CoAPSerialize.c ****     remlen -= count;
 819              		.loc 1 227 12
 820 0048 33440408 		zext.h	s0,s0
 821              	.LVL79:
 822              		.loc 1 229 5 is_stmt 1
 823              		.loc 1 229 13 is_stmt 0
 824 004c 4A85     		mv	a0,s2
 825              	.LVL80:
 826 004e 2286     		mv	a2,s0
 827 0050 97000000 		call	CoAPSerialize_Options
 827      E7800000 
 828              	.LVL81:
 230:C:/Users/stapi/OneDrive/Desktop/GD32VW553/V1_MQTT_OK/GD32VW55X_Wifi_BLE_SDK/GD32VW55x_RELEASE_V1.0.2/MSDK/cloud/alicloud/src/protocol/coap/local\CoAPSerialize.c ****     ptr += count;
 829              		.loc 1 230 5 is_stmt 1
 231:C:/Users/stapi/OneDrive/Desktop/GD32VW553/V1_MQTT_OK/GD32VW55X_Wifi_BLE_SDK/GD32VW55x_RELEASE_V1.0.2/MSDK/cloud/alicloud/src/protocol/coap/local\CoAPSerialize.c ****     remlen -= count;
 830              		.loc 1 231 5
 831              		.loc 1 231 12 is_stmt 0
 832 0058 098C     		sub	s0,s0,a0
 833              	.LVL82:
 232:C:/Users/stapi/OneDrive/Desktop/GD32VW553/V1_MQTT_OK/GD32VW55X_Wifi_BLE_SDK/GD32VW55x_RELEASE_V1.0.2/MSDK/cloud/alicloud/src/protocol/coap/local\CoAPSerialize.c **** 
 233:C:/Users/stapi/OneDrive/Desktop/GD32VW553/V1_MQTT_OK/GD32VW55X_Wifi_BLE_SDK/GD32VW55x_RELEASE_V1.0.2/MSDK/cloud/alicloud/src/protocol/coap/local\CoAPSerialize.c ****     count = CoAPSerialize_Payload(msg, ptr, remlen);
 834              		.loc 1 233 13
 835 005a B385A900 		add	a1,s3,a0
 231:C:/Users/stapi/OneDrive/Desktop/GD32VW553/V1_MQTT_OK/GD32VW55X_Wifi_BLE_SDK/GD32VW55x_RELEASE_V1.0.2/MSDK/cloud/alicloud/src/protocol/coap/local\CoAPSerialize.c ****     remlen -= count;
 836              		.loc 1 231 12
 837 005e 33440408 		zext.h	s0,s0
 838              	.LVL83:
 839              		.loc 1 233 5 is_stmt 1
 840              		.loc 1 233 13 is_stmt 0
 841 0062 4A85     		mv	a0,s2
 842              	.LVL84:
 843 0064 2286     		mv	a2,s0
 844 0066 97000000 		call	CoAPSerialize_Payload
 844      E7800000 
 845              	.LVL85:
 234:C:/Users/stapi/OneDrive/Desktop/GD32VW553/V1_MQTT_OK/GD32VW55X_Wifi_BLE_SDK/GD32VW55x_RELEASE_V1.0.2/MSDK/cloud/alicloud/src/protocol/coap/local\CoAPSerialize.c ****     ptr += count;
 846              		.loc 1 234 5 is_stmt 1
 235:C:/Users/stapi/OneDrive/Desktop/GD32VW553/V1_MQTT_OK/GD32VW55X_Wifi_BLE_SDK/GD32VW55x_RELEASE_V1.0.2/MSDK/cloud/alicloud/src/protocol/coap/local\CoAPSerialize.c ****     remlen -= count;
 847              		.loc 1 235 5
 236:C:/Users/stapi/OneDrive/Desktop/GD32VW553/V1_MQTT_OK/GD32VW55X_Wifi_BLE_SDK/GD32VW55x_RELEASE_V1.0.2/MSDK/cloud/alicloud/src/protocol/coap/local\CoAPSerialize.c **** 
 237:C:/Users/stapi/OneDrive/Desktop/GD32VW553/V1_MQTT_OK/GD32VW55X_Wifi_BLE_SDK/GD32VW55x_RELEASE_V1.0.2/MSDK/cloud/alicloud/src/protocol/coap/local\CoAPSerialize.c ****     return (buflen-remlen);
 848              		.loc 1 237 5
 235:C:/Users/stapi/OneDrive/Desktop/GD32VW553/V1_MQTT_OK/GD32VW55X_Wifi_BLE_SDK/GD32VW55x_RELEASE_V1.0.2/MSDK/cloud/alicloud/src/protocol/coap/local\CoAPSerialize.c ****     remlen -= count;
 849              		.loc 1 235 12 is_stmt 0
 850 006e B307A440 		sub	a5,s0,a0
 851              		.loc 1 237 19
 852 0072 B3C70708 		zext.h	a5,a5
 853 0076 B387F440 		sub	a5,s1,a5
 854              	.LVL86:
 855              	.L59:
 238:C:/Users/stapi/OneDrive/Desktop/GD32VW553/V1_MQTT_OK/GD32VW55X_Wifi_BLE_SDK/GD32VW55x_RELEASE_V1.0.2/MSDK/cloud/alicloud/src/protocol/coap/local\CoAPSerialize.c **** }
 856              		.loc 1 238 1
 857 007a 3E85     		mv	a0,a5
 858 007c 17030000 		tail	__riscv_restore_5
 858      67000300 
 859              		.cfi_restore 20
 860              		.cfi_restore 19
 861              		.cfi_restore 18
 862              		.cfi_restore 9
 863              		.cfi_restore 8
 864              		.cfi_restore 1
 865              		.cfi_def_cfa_offset 0
 866              	.LVL87:
 867              	.L61:
 218:C:/Users/stapi/OneDrive/Desktop/GD32VW553/V1_MQTT_OK/GD32VW55X_Wifi_BLE_SDK/GD32VW55x_RELEASE_V1.0.2/MSDK/cloud/alicloud/src/protocol/coap/local\CoAPSerialize.c ****     }
 868              		.loc 1 218 16
 869 0084 93071010 		li	a5,257
 870              		.loc 1 238 1
 871 0088 3E85     		mv	a0,a5
 872              	.LVL88:
 873 008a 8280     		ret
 874              		.cfi_endproc
 875              	.LFE28:
 877              		.text
 878              	.Letext0:
 879              		.file 2 "c:\\users\\stapi\\onedrive\\desktop\\gd32vw553\\embeddedbuilder_v1.4.7.26843\\tools\\nucl
 880              		.file 3 "c:\\users\\stapi\\onedrive\\desktop\\gd32vw553\\embeddedbuilder_v1.4.7.26843\\tools\\nucl
 881              		.file 4 "..\\..\\..\\..\\cloud\\alicloud\\include/iot_import.h"
 882              		.file 5 "C:/Users/stapi/OneDrive/Desktop/GD32VW553/V1_MQTT_OK/GD32VW55X_Wifi_BLE_SDK/GD32VW55x_REL
 883              		.file 6 "<built-in>"
DEFINED SYMBOLS
                            *ABS*:0000000000000000 CoAPSerialize.c
C:\Users\stapi\AppData\Local\Temp\ccdlrCM9.s:13     .text.CoAPSerialize_Header:0000000000000000 CoAPSerialize_Header
C:\Users\stapi\AppData\Local\Temp\ccdlrCM9.s:17     .text.CoAPSerialize_Header:0000000000000000 .L0 
C:\Users\stapi\AppData\Local\Temp\ccdlrCM9.s:19     .text.CoAPSerialize_Header:0000000000000000 .L0 
C:\Users\stapi\AppData\Local\Temp\ccdlrCM9.s:20     .text.CoAPSerialize_Header:0000000000000000 .L0 
C:\Users\stapi\AppData\Local\Temp\ccdlrCM9.s:21     .text.CoAPSerialize_Header:0000000000000000 .L0 
C:\Users\stapi\AppData\Local\Temp\ccdlrCM9.s:27     .text.CoAPSerialize_Header:0000000000000006 .L0 
C:\Users\stapi\AppData\Local\Temp\ccdlrCM9.s:28     .text.CoAPSerialize_Header:0000000000000006 .L0 
C:\Users\stapi\AppData\Local\Temp\ccdlrCM9.s:31     .text.CoAPSerialize_Header:000000000000000c .L0 
C:\Users\stapi\AppData\Local\Temp\ccdlrCM9.s:33     .text.CoAPSerialize_Header:0000000000000010 .L0 
C:\Users\stapi\AppData\Local\Temp\ccdlrCM9.s:35     .text.CoAPSerialize_Header:0000000000000014 .L0 
C:\Users\stapi\AppData\Local\Temp\ccdlrCM9.s:37     .text.CoAPSerialize_Header:0000000000000016 .L0 
C:\Users\stapi\AppData\Local\Temp\ccdlrCM9.s:39     .text.CoAPSerialize_Header:0000000000000018 .L0 
C:\Users\stapi\AppData\Local\Temp\ccdlrCM9.s:41     .text.CoAPSerialize_Header:000000000000001a .L0 
C:\Users\stapi\AppData\Local\Temp\ccdlrCM9.s:43     .text.CoAPSerialize_Header:000000000000001c .L0 
C:\Users\stapi\AppData\Local\Temp\ccdlrCM9.s:45     .text.CoAPSerialize_Header:000000000000001e .L0 
C:\Users\stapi\AppData\Local\Temp\ccdlrCM9.s:47     .text.CoAPSerialize_Header:0000000000000022 .L0 
C:\Users\stapi\AppData\Local\Temp\ccdlrCM9.s:48     .text.CoAPSerialize_Header:0000000000000022 .L0 
C:\Users\stapi\AppData\Local\Temp\ccdlrCM9.s:50     .text.CoAPSerialize_Header:0000000000000026 .L0 
C:\Users\stapi\AppData\Local\Temp\ccdlrCM9.s:52     .text.CoAPSerialize_Header:000000000000002a .L0 
C:\Users\stapi\AppData\Local\Temp\ccdlrCM9.s:53     .text.CoAPSerialize_Header:000000000000002a .L0 
C:\Users\stapi\AppData\Local\Temp\ccdlrCM9.s:56     .text.CoAPSerialize_Header:0000000000000030 .L0 
C:\Users\stapi\AppData\Local\Temp\ccdlrCM9.s:58     .text.CoAPSerialize_Header:0000000000000034 .L0 
C:\Users\stapi\AppData\Local\Temp\ccdlrCM9.s:59     .text.CoAPSerialize_Header:0000000000000034 .L0 
C:\Users\stapi\AppData\Local\Temp\ccdlrCM9.s:65     .text.CoAPSerialize_Header:000000000000003e .L0 
C:\Users\stapi\AppData\Local\Temp\ccdlrCM9.s:71     .text.CoAPSerialize_Header:0000000000000040 .L0 
C:\Users\stapi\AppData\Local\Temp\ccdlrCM9.s:74     .text.CoAPSerialize_Header:0000000000000042 .L0 
C:\Users\stapi\AppData\Local\Temp\ccdlrCM9.s:75     .text.CoAPSerialize_Header:0000000000000044 .L0 
C:\Users\stapi\AppData\Local\Temp\ccdlrCM9.s:82     .text.CoAPSerialize_Token:0000000000000000 CoAPSerialize_Token
C:\Users\stapi\AppData\Local\Temp\ccdlrCM9.s:85     .text.CoAPSerialize_Token:0000000000000000 .L0 
C:\Users\stapi\AppData\Local\Temp\ccdlrCM9.s:87     .text.CoAPSerialize_Token:0000000000000000 .L0 
C:\Users\stapi\AppData\Local\Temp\ccdlrCM9.s:88     .text.CoAPSerialize_Token:0000000000000000 .L0 
C:\Users\stapi\AppData\Local\Temp\ccdlrCM9.s:89     .text.CoAPSerialize_Token:0000000000000000 .L0 
C:\Users\stapi\AppData\Local\Temp\ccdlrCM9.s:90     .text.CoAPSerialize_Token:0000000000000000 .L0 
C:\Users\stapi\AppData\Local\Temp\ccdlrCM9.s:92     .text.CoAPSerialize_Token:0000000000000002 .L0 
C:\Users\stapi\AppData\Local\Temp\ccdlrCM9.s:96     .text.CoAPSerialize_Token:0000000000000004 .L0 
C:\Users\stapi\AppData\Local\Temp\ccdlrCM9.s:100    .text.CoAPSerialize_Token:0000000000000006 .L0 
C:\Users\stapi\AppData\Local\Temp\ccdlrCM9.s:102    .text.CoAPSerialize_Token:0000000000000008 .L0 
C:\Users\stapi\AppData\Local\Temp\ccdlrCM9.s:105    .text.CoAPSerialize_Token:000000000000000e .L0 
C:\Users\stapi\AppData\Local\Temp\ccdlrCM9.s:108    .text.CoAPSerialize_Token:0000000000000010 .L0 
C:\Users\stapi\AppData\Local\Temp\ccdlrCM9.s:114    .text.CoAPSerialize_Token:0000000000000012 .L0 
C:\Users\stapi\AppData\Local\Temp\ccdlrCM9.s:115    .text.CoAPSerialize_Token:0000000000000012 .L0 
C:\Users\stapi\AppData\Local\Temp\ccdlrCM9.s:118    .text.CoAPSerialize_Token:000000000000001a .L0 
C:\Users\stapi\AppData\Local\Temp\ccdlrCM9.s:120    .text.CoAPSerialize_Token:000000000000001e .L0 
C:\Users\stapi\AppData\Local\Temp\ccdlrCM9.s:123    .text.CoAPSerialize_Token:0000000000000020 .L0 
C:\Users\stapi\AppData\Local\Temp\ccdlrCM9.s:127    .text.CoAPSerialize_Token:0000000000000024 .L0 
C:\Users\stapi\AppData\Local\Temp\ccdlrCM9.s:128    .text.CoAPSerialize_Token:0000000000000024 .L0 
C:\Users\stapi\AppData\Local\Temp\ccdlrCM9.s:129    .text.CoAPSerialize_Token:0000000000000024 .L0 
C:\Users\stapi\AppData\Local\Temp\ccdlrCM9.s:133    .text.CoAPSerialize_Token:000000000000002c .L0 
C:\Users\stapi\AppData\Local\Temp\ccdlrCM9.s:137    .text.CoAPSerialize_Token:0000000000000032 .L0 
C:\Users\stapi\AppData\Local\Temp\ccdlrCM9.s:144    .text.CoAPSerialize_Options:0000000000000000 CoAPSerialize_Options
C:\Users\stapi\AppData\Local\Temp\ccdlrCM9.s:147    .text.CoAPSerialize_Options:0000000000000000 .L0 
C:\Users\stapi\AppData\Local\Temp\ccdlrCM9.s:149    .text.CoAPSerialize_Options:0000000000000000 .L0 
C:\Users\stapi\AppData\Local\Temp\ccdlrCM9.s:150    .text.CoAPSerialize_Options:0000000000000008 .L0 
C:\Users\stapi\AppData\Local\Temp\ccdlrCM9.s:151    .text.CoAPSerialize_Options:0000000000000008 .L0 
C:\Users\stapi\AppData\Local\Temp\ccdlrCM9.s:152    .text.CoAPSerialize_Options:0000000000000008 .L0 
C:\Users\stapi\AppData\Local\Temp\ccdlrCM9.s:153    .text.CoAPSerialize_Options:0000000000000008 .L0 
C:\Users\stapi\AppData\Local\Temp\ccdlrCM9.s:154    .text.CoAPSerialize_Options:0000000000000008 .L0 
C:\Users\stapi\AppData\Local\Temp\ccdlrCM9.s:155    .text.CoAPSerialize_Options:0000000000000008 .L0 
C:\Users\stapi\AppData\Local\Temp\ccdlrCM9.s:156    .text.CoAPSerialize_Options:0000000000000008 .L0 
C:\Users\stapi\AppData\Local\Temp\ccdlrCM9.s:157    .text.CoAPSerialize_Options:0000000000000008 .L0 
C:\Users\stapi\AppData\Local\Temp\ccdlrCM9.s:158    .text.CoAPSerialize_Options:0000000000000008 .L0 
C:\Users\stapi\AppData\Local\Temp\ccdlrCM9.s:159    .text.CoAPSerialize_Options:0000000000000008 .L0 
C:\Users\stapi\AppData\Local\Temp\ccdlrCM9.s:160    .text.CoAPSerialize_Options:0000000000000008 .L0 
C:\Users\stapi\AppData\Local\Temp\ccdlrCM9.s:161    .text.CoAPSerialize_Options:0000000000000008 .L0 
C:\Users\stapi\AppData\Local\Temp\ccdlrCM9.s:162    .text.CoAPSerialize_Options:0000000000000008 .L0 
C:\Users\stapi\AppData\Local\Temp\ccdlrCM9.s:163    .text.CoAPSerialize_Options:0000000000000008 .L0 
C:\Users\stapi\AppData\Local\Temp\ccdlrCM9.s:166    .text.CoAPSerialize_Options:0000000000000008 .L0 
C:\Users\stapi\AppData\Local\Temp\ccdlrCM9.s:167    .text.CoAPSerialize_Options:0000000000000008 .L0 
C:\Users\stapi\AppData\Local\Temp\ccdlrCM9.s:168    .text.CoAPSerialize_Options:0000000000000008 .L0 
C:\Users\stapi\AppData\Local\Temp\ccdlrCM9.s:169    .text.CoAPSerialize_Options:0000000000000008 .L0 
C:\Users\stapi\AppData\Local\Temp\ccdlrCM9.s:170    .text.CoAPSerialize_Options:0000000000000008 .L0 
C:\Users\stapi\AppData\Local\Temp\ccdlrCM9.s:171    .text.CoAPSerialize_Options:0000000000000008 .L0 
C:\Users\stapi\AppData\Local\Temp\ccdlrCM9.s:172    .text.CoAPSerialize_Options:0000000000000008 .L0 
C:\Users\stapi\AppData\Local\Temp\ccdlrCM9.s:173    .text.CoAPSerialize_Options:000000000000000a .L0 
C:\Users\stapi\AppData\Local\Temp\ccdlrCM9.s:175    .text.CoAPSerialize_Options:000000000000000a .L0 
C:\Users\stapi\AppData\Local\Temp\ccdlrCM9.s:179    .text.CoAPSerialize_Options:0000000000000012 .L0 
C:\Users\stapi\AppData\Local\Temp\ccdlrCM9.s:181    .text.CoAPSerialize_Options:0000000000000014 .L0 
C:\Users\stapi\AppData\Local\Temp\ccdlrCM9.s:183    .text.CoAPSerialize_Options:0000000000000016 .L0 
C:\Users\stapi\AppData\Local\Temp\ccdlrCM9.s:188    .text.CoAPSerialize_Options:0000000000000018 .L0 
C:\Users\stapi\AppData\Local\Temp\ccdlrCM9.s:190    .text.CoAPSerialize_Options:000000000000001c .L0 
C:\Users\stapi\AppData\Local\Temp\ccdlrCM9.s:192    .text.CoAPSerialize_Options:000000000000001e .L0 
C:\Users\stapi\AppData\Local\Temp\ccdlrCM9.s:194    .text.CoAPSerialize_Options:0000000000000022 .L0 
C:\Users\stapi\AppData\Local\Temp\ccdlrCM9.s:201    .text.CoAPSerialize_Options:0000000000000024 .L0 
C:\Users\stapi\AppData\Local\Temp\ccdlrCM9.s:202    .text.CoAPSerialize_Options:0000000000000024 .L0 
C:\Users\stapi\AppData\Local\Temp\ccdlrCM9.s:204    .text.CoAPSerialize_Options:0000000000000028 .L0 
C:\Users\stapi\AppData\Local\Temp\ccdlrCM9.s:209    .text.CoAPSerialize_Options:000000000000002e .L0 
C:\Users\stapi\AppData\Local\Temp\ccdlrCM9.s:210    .text.CoAPSerialize_Options:0000000000000030 .L0 
C:\Users\stapi\AppData\Local\Temp\ccdlrCM9.s:211    .text.CoAPSerialize_Options:0000000000000030 .L0 
C:\Users\stapi\AppData\Local\Temp\ccdlrCM9.s:213    .text.CoAPSerialize_Options:0000000000000038 .L0 
C:\Users\stapi\AppData\Local\Temp\ccdlrCM9.s:214    .text.CoAPSerialize_Options:0000000000000038 .L0 
C:\Users\stapi\AppData\Local\Temp\ccdlrCM9.s:215    .text.CoAPSerialize_Options:0000000000000038 .L0 
C:\Users\stapi\AppData\Local\Temp\ccdlrCM9.s:216    .text.CoAPSerialize_Options:0000000000000038 .L0 
C:\Users\stapi\AppData\Local\Temp\ccdlrCM9.s:217    .text.CoAPSerialize_Options:0000000000000038 .L0 
C:\Users\stapi\AppData\Local\Temp\ccdlrCM9.s:218    .text.CoAPSerialize_Options:0000000000000038 .L0 
C:\Users\stapi\AppData\Local\Temp\ccdlrCM9.s:219    .text.CoAPSerialize_Options:0000000000000038 .L0 
C:\Users\stapi\AppData\Local\Temp\ccdlrCM9.s:220    .text.CoAPSerialize_Options:0000000000000038 .L0 
C:\Users\stapi\AppData\Local\Temp\ccdlrCM9.s:221    .text.CoAPSerialize_Options:0000000000000038 .L0 
C:\Users\stapi\AppData\Local\Temp\ccdlrCM9.s:222    .text.CoAPSerialize_Options:0000000000000038 .L0 
C:\Users\stapi\AppData\Local\Temp\ccdlrCM9.s:223    .text.CoAPSerialize_Options:0000000000000038 .L0 
C:\Users\stapi\AppData\Local\Temp\ccdlrCM9.s:224    .text.CoAPSerialize_Options:0000000000000038 .L0 
C:\Users\stapi\AppData\Local\Temp\ccdlrCM9.s:225    .text.CoAPSerialize_Options:0000000000000038 .L0 
C:\Users\stapi\AppData\Local\Temp\ccdlrCM9.s:226    .text.CoAPSerialize_Options:0000000000000038 .L0 
C:\Users\stapi\AppData\Local\Temp\ccdlrCM9.s:229    .text.CoAPSerialize_Options:0000000000000038 .L0 
C:\Users\stapi\AppData\Local\Temp\ccdlrCM9.s:232    .text.CoAPSerialize_Options:0000000000000038 .L0 
C:\Users\stapi\AppData\Local\Temp\ccdlrCM9.s:233    .text.CoAPSerialize_Options:0000000000000038 .L0 
C:\Users\stapi\AppData\Local\Temp\ccdlrCM9.s:239    .text.CoAPSerialize_Options:0000000000000046 .L0 
C:\Users\stapi\AppData\Local\Temp\ccdlrCM9.s:240    .text.CoAPSerialize_Options:0000000000000046 .L0 
C:\Users\stapi\AppData\Local\Temp\ccdlrCM9.s:243    .text.CoAPSerialize_Options:000000000000004a .L0 
C:\Users\stapi\AppData\Local\Temp\ccdlrCM9.s:244    .text.CoAPSerialize_Options:000000000000004a .L0 
C:\Users\stapi\AppData\Local\Temp\ccdlrCM9.s:247    .text.CoAPSerialize_Options:0000000000000052 .L0 
C:\Users\stapi\AppData\Local\Temp\ccdlrCM9.s:250    .text.CoAPSerialize_Options:0000000000000056 .L0 
C:\Users\stapi\AppData\Local\Temp\ccdlrCM9.s:251    .text.CoAPSerialize_Options:0000000000000056 .L0 
C:\Users\stapi\AppData\Local\Temp\ccdlrCM9.s:252    .text.CoAPSerialize_Options:0000000000000056 .L0 
C:\Users\stapi\AppData\Local\Temp\ccdlrCM9.s:257    .text.CoAPSerialize_Options:000000000000005a .L0 
C:\Users\stapi\AppData\Local\Temp\ccdlrCM9.s:258    .text.CoAPSerialize_Options:000000000000005a .L0 
C:\Users\stapi\AppData\Local\Temp\ccdlrCM9.s:259    .text.CoAPSerialize_Options:000000000000005a .L0 
C:\Users\stapi\AppData\Local\Temp\ccdlrCM9.s:261    .text.CoAPSerialize_Options:000000000000005e .L0 
C:\Users\stapi\AppData\Local\Temp\ccdlrCM9.s:262    .text.CoAPSerialize_Options:000000000000005e .L0 
C:\Users\stapi\AppData\Local\Temp\ccdlrCM9.s:265    .text.CoAPSerialize_Options:0000000000000062 .L0 
C:\Users\stapi\AppData\Local\Temp\ccdlrCM9.s:266    .text.CoAPSerialize_Options:0000000000000062 .L0 
C:\Users\stapi\AppData\Local\Temp\ccdlrCM9.s:268    .text.CoAPSerialize_Options:0000000000000066 .L0 
C:\Users\stapi\AppData\Local\Temp\ccdlrCM9.s:270    .text.CoAPSerialize_Options:000000000000006a .L0 
C:\Users\stapi\AppData\Local\Temp\ccdlrCM9.s:272    .text.CoAPSerialize_Options:000000000000006e .L0 
C:\Users\stapi\AppData\Local\Temp\ccdlrCM9.s:273    .text.CoAPSerialize_Options:000000000000006e .L0 
C:\Users\stapi\AppData\Local\Temp\ccdlrCM9.s:276    .text.CoAPSerialize_Options:0000000000000072 .L0 
C:\Users\stapi\AppData\Local\Temp\ccdlrCM9.s:279    .text.CoAPSerialize_Options:0000000000000076 .L0 
C:\Users\stapi\AppData\Local\Temp\ccdlrCM9.s:280    .text.CoAPSerialize_Options:0000000000000076 .L0 
C:\Users\stapi\AppData\Local\Temp\ccdlrCM9.s:281    .text.CoAPSerialize_Options:0000000000000076 .L0 
C:\Users\stapi\AppData\Local\Temp\ccdlrCM9.s:283    .text.CoAPSerialize_Options:000000000000007a .L0 
C:\Users\stapi\AppData\Local\Temp\ccdlrCM9.s:284    .text.CoAPSerialize_Options:000000000000007a .L0 
C:\Users\stapi\AppData\Local\Temp\ccdlrCM9.s:286    .text.CoAPSerialize_Options:000000000000007e .L0 
C:\Users\stapi\AppData\Local\Temp\ccdlrCM9.s:288    .text.CoAPSerialize_Options:0000000000000080 .L0 
C:\Users\stapi\AppData\Local\Temp\ccdlrCM9.s:290    .text.CoAPSerialize_Options:0000000000000082 .L0 
C:\Users\stapi\AppData\Local\Temp\ccdlrCM9.s:292    .text.CoAPSerialize_Options:0000000000000086 .L0 
C:\Users\stapi\AppData\Local\Temp\ccdlrCM9.s:293    .text.CoAPSerialize_Options:0000000000000086 .L0 
C:\Users\stapi\AppData\Local\Temp\ccdlrCM9.s:295    .text.CoAPSerialize_Options:000000000000008a .L0 
C:\Users\stapi\AppData\Local\Temp\ccdlrCM9.s:296    .text.CoAPSerialize_Options:000000000000008a .L0 
C:\Users\stapi\AppData\Local\Temp\ccdlrCM9.s:300    .text.CoAPSerialize_Options:000000000000008e .L0 
C:\Users\stapi\AppData\Local\Temp\ccdlrCM9.s:301    .text.CoAPSerialize_Options:000000000000008e .L0 
C:\Users\stapi\AppData\Local\Temp\ccdlrCM9.s:303    .text.CoAPSerialize_Options:0000000000000092 .L0 
C:\Users\stapi\AppData\Local\Temp\ccdlrCM9.s:304    .text.CoAPSerialize_Options:0000000000000092 .L0 
C:\Users\stapi\AppData\Local\Temp\ccdlrCM9.s:306    .text.CoAPSerialize_Options:0000000000000096 .L0 
C:\Users\stapi\AppData\Local\Temp\ccdlrCM9.s:308    .text.CoAPSerialize_Options:0000000000000098 .L0 
C:\Users\stapi\AppData\Local\Temp\ccdlrCM9.s:310    .text.CoAPSerialize_Options:000000000000009c .L0 
C:\Users\stapi\AppData\Local\Temp\ccdlrCM9.s:311    .text.CoAPSerialize_Options:000000000000009c .L0 
C:\Users\stapi\AppData\Local\Temp\ccdlrCM9.s:313    .text.CoAPSerialize_Options:00000000000000a0 .L0 
C:\Users\stapi\AppData\Local\Temp\ccdlrCM9.s:315    .text.CoAPSerialize_Options:00000000000000a4 .L0 
C:\Users\stapi\AppData\Local\Temp\ccdlrCM9.s:316    .text.CoAPSerialize_Options:00000000000000a4 .L0 
C:\Users\stapi\AppData\Local\Temp\ccdlrCM9.s:320    .text.CoAPSerialize_Options:00000000000000a6 .L0 
C:\Users\stapi\AppData\Local\Temp\ccdlrCM9.s:326    .text.CoAPSerialize_Options:00000000000000b4 .L0 
C:\Users\stapi\AppData\Local\Temp\ccdlrCM9.s:327    .text.CoAPSerialize_Options:00000000000000b4 .L0 
C:\Users\stapi\AppData\Local\Temp\ccdlrCM9.s:328    .text.CoAPSerialize_Options:00000000000000b4 .L0 
C:\Users\stapi\AppData\Local\Temp\ccdlrCM9.s:331    .text.CoAPSerialize_Options:00000000000000b8 .L0 
C:\Users\stapi\AppData\Local\Temp\ccdlrCM9.s:336    .text.CoAPSerialize_Options:00000000000000ba .L0 
C:\Users\stapi\AppData\Local\Temp\ccdlrCM9.s:340    .text.CoAPSerialize_Options:00000000000000bc .L0 
C:\Users\stapi\AppData\Local\Temp\ccdlrCM9.s:345    .text.CoAPSerialize_Options:00000000000000c0 .L0 
C:\Users\stapi\AppData\Local\Temp\ccdlrCM9.s:346    .text.CoAPSerialize_Options:00000000000000c0 .L0 
C:\Users\stapi\AppData\Local\Temp\ccdlrCM9.s:348    .text.CoAPSerialize_Options:00000000000000c2 .L0 
C:\Users\stapi\AppData\Local\Temp\ccdlrCM9.s:349    .text.CoAPSerialize_Options:00000000000000c2 .L0 
C:\Users\stapi\AppData\Local\Temp\ccdlrCM9.s:352    .text.CoAPSerialize_Options:00000000000000c6 .L0 
C:\Users\stapi\AppData\Local\Temp\ccdlrCM9.s:356    .text.CoAPSerialize_Options:00000000000000c8 .L0 
C:\Users\stapi\AppData\Local\Temp\ccdlrCM9.s:358    .text.CoAPSerialize_Options:00000000000000ca .L0 
C:\Users\stapi\AppData\Local\Temp\ccdlrCM9.s:362    .text.CoAPSerialize_Options:00000000000000ce .L0 
C:\Users\stapi\AppData\Local\Temp\ccdlrCM9.s:369    .text.CoAPSerialize_Options:00000000000000d0 .L0 
C:\Users\stapi\AppData\Local\Temp\ccdlrCM9.s:370    .text.CoAPSerialize_Options:00000000000000d0 .L0 
C:\Users\stapi\AppData\Local\Temp\ccdlrCM9.s:372    .text.CoAPSerialize_Options:00000000000000d4 .L0 
C:\Users\stapi\AppData\Local\Temp\ccdlrCM9.s:373    .text.CoAPSerialize_Options:00000000000000d4 .L0 
C:\Users\stapi\AppData\Local\Temp\ccdlrCM9.s:377    .text.CoAPSerialize_Options:00000000000000da .L0 
C:\Users\stapi\AppData\Local\Temp\ccdlrCM9.s:378    .text.CoAPSerialize_Options:00000000000000da .L0 
C:\Users\stapi\AppData\Local\Temp\ccdlrCM9.s:380    .text.CoAPSerialize_Options:00000000000000de .L0 
C:\Users\stapi\AppData\Local\Temp\ccdlrCM9.s:384    .text.CoAPSerialize_Options:00000000000000e4 .L0 
C:\Users\stapi\AppData\Local\Temp\ccdlrCM9.s:385    .text.CoAPSerialize_Options:00000000000000e4 .L0 
C:\Users\stapi\AppData\Local\Temp\ccdlrCM9.s:387    .text.CoAPSerialize_Options:00000000000000e8 .L0 
C:\Users\stapi\AppData\Local\Temp\ccdlrCM9.s:388    .text.CoAPSerialize_Options:00000000000000e8 .L0 
C:\Users\stapi\AppData\Local\Temp\ccdlrCM9.s:392    .text.CoAPSerialize_Options:00000000000000ee .L0 
C:\Users\stapi\AppData\Local\Temp\ccdlrCM9.s:393    .text.CoAPSerialize_Options:00000000000000ee .L0 
C:\Users\stapi\AppData\Local\Temp\ccdlrCM9.s:398    .text.CoAPSerialize_Options:00000000000000f4 .L0 
C:\Users\stapi\AppData\Local\Temp\ccdlrCM9.s:399    .text.CoAPSerialize_Options:00000000000000f4 .L0 
C:\Users\stapi\AppData\Local\Temp\ccdlrCM9.s:401    .text.CoAPSerialize_Options:00000000000000f8 .L0 
C:\Users\stapi\AppData\Local\Temp\ccdlrCM9.s:403    .text.CoAPSerialize_Options:00000000000000fc .L0 
C:\Users\stapi\AppData\Local\Temp\ccdlrCM9.s:404    .text.CoAPSerialize_Options:00000000000000fc .L0 
C:\Users\stapi\AppData\Local\Temp\ccdlrCM9.s:406    .text.CoAPSerialize_Options:00000000000000fe .L0 
C:\Users\stapi\AppData\Local\Temp\ccdlrCM9.s:408    .text.CoAPSerialize_Options:0000000000000102 .L0 
C:\Users\stapi\AppData\Local\Temp\ccdlrCM9.s:409    .text.CoAPSerialize_Options:0000000000000102 .L0 
C:\Users\stapi\AppData\Local\Temp\ccdlrCM9.s:414    .text.CoAPSerialize_Options:0000000000000108 .L0 
C:\Users\stapi\AppData\Local\Temp\ccdlrCM9.s:415    .text.CoAPSerialize_Options:0000000000000108 .L0 
C:\Users\stapi\AppData\Local\Temp\ccdlrCM9.s:417    .text.CoAPSerialize_Options:000000000000010c .L0 
C:\Users\stapi\AppData\Local\Temp\ccdlrCM9.s:418    .text.CoAPSerialize_Options:000000000000010c .L0 
C:\Users\stapi\AppData\Local\Temp\ccdlrCM9.s:420    .text.CoAPSerialize_Options:0000000000000110 .L0 
C:\Users\stapi\AppData\Local\Temp\ccdlrCM9.s:422    .text.CoAPSerialize_Options:0000000000000114 .L0 
C:\Users\stapi\AppData\Local\Temp\ccdlrCM9.s:423    .text.CoAPSerialize_Options:0000000000000114 .L0 
C:\Users\stapi\AppData\Local\Temp\ccdlrCM9.s:429    .text.CoAPSerialize_Options:0000000000000118 .L0 
C:\Users\stapi\AppData\Local\Temp\ccdlrCM9.s:436    .text.CoAPSerialize_OptionsLen:0000000000000000 CoAPSerialize_OptionsLen
C:\Users\stapi\AppData\Local\Temp\ccdlrCM9.s:439    .text.CoAPSerialize_OptionsLen:0000000000000000 .L0 
C:\Users\stapi\AppData\Local\Temp\ccdlrCM9.s:441    .text.CoAPSerialize_OptionsLen:0000000000000000 .L0 
C:\Users\stapi\AppData\Local\Temp\ccdlrCM9.s:442    .text.CoAPSerialize_OptionsLen:0000000000000008 .L0 
C:\Users\stapi\AppData\Local\Temp\ccdlrCM9.s:443    .text.CoAPSerialize_OptionsLen:0000000000000008 .L0 
C:\Users\stapi\AppData\Local\Temp\ccdlrCM9.s:444    .text.CoAPSerialize_OptionsLen:0000000000000008 .L0 
C:\Users\stapi\AppData\Local\Temp\ccdlrCM9.s:445    .text.CoAPSerialize_OptionsLen:0000000000000008 .L0 
C:\Users\stapi\AppData\Local\Temp\ccdlrCM9.s:446    .text.CoAPSerialize_OptionsLen:0000000000000008 .L0 
C:\Users\stapi\AppData\Local\Temp\ccdlrCM9.s:447    .text.CoAPSerialize_OptionsLen:0000000000000008 .L0 
C:\Users\stapi\AppData\Local\Temp\ccdlrCM9.s:448    .text.CoAPSerialize_OptionsLen:0000000000000008 .L0 
C:\Users\stapi\AppData\Local\Temp\ccdlrCM9.s:449    .text.CoAPSerialize_OptionsLen:0000000000000008 .L0 
C:\Users\stapi\AppData\Local\Temp\ccdlrCM9.s:450    .text.CoAPSerialize_OptionsLen:0000000000000008 .L0 
C:\Users\stapi\AppData\Local\Temp\ccdlrCM9.s:453    .text.CoAPSerialize_OptionsLen:0000000000000008 .L0 
C:\Users\stapi\AppData\Local\Temp\ccdlrCM9.s:454    .text.CoAPSerialize_OptionsLen:0000000000000008 .L0 
C:\Users\stapi\AppData\Local\Temp\ccdlrCM9.s:455    .text.CoAPSerialize_OptionsLen:0000000000000008 .L0 
C:\Users\stapi\AppData\Local\Temp\ccdlrCM9.s:456    .text.CoAPSerialize_OptionsLen:0000000000000008 .L0 
C:\Users\stapi\AppData\Local\Temp\ccdlrCM9.s:457    .text.CoAPSerialize_OptionsLen:0000000000000008 .L0 
C:\Users\stapi\AppData\Local\Temp\ccdlrCM9.s:458    .text.CoAPSerialize_OptionsLen:0000000000000008 .L0 
C:\Users\stapi\AppData\Local\Temp\ccdlrCM9.s:459    .text.CoAPSerialize_OptionsLen:0000000000000008 .L0 
C:\Users\stapi\AppData\Local\Temp\ccdlrCM9.s:460    .text.CoAPSerialize_OptionsLen:000000000000000a .L0 
C:\Users\stapi\AppData\Local\Temp\ccdlrCM9.s:462    .text.CoAPSerialize_OptionsLen:000000000000000a .L0 
C:\Users\stapi\AppData\Local\Temp\ccdlrCM9.s:465    .text.CoAPSerialize_OptionsLen:0000000000000010 .L0 
C:\Users\stapi\AppData\Local\Temp\ccdlrCM9.s:467    .text.CoAPSerialize_OptionsLen:0000000000000012 .L0 
C:\Users\stapi\AppData\Local\Temp\ccdlrCM9.s:469    .text.CoAPSerialize_OptionsLen:0000000000000014 .L0 
C:\Users\stapi\AppData\Local\Temp\ccdlrCM9.s:474    .text.CoAPSerialize_OptionsLen:0000000000000016 .L0 
C:\Users\stapi\AppData\Local\Temp\ccdlrCM9.s:476    .text.CoAPSerialize_OptionsLen:000000000000001a .L0 
C:\Users\stapi\AppData\Local\Temp\ccdlrCM9.s:483    .text.CoAPSerialize_OptionsLen:000000000000001c .L0 
C:\Users\stapi\AppData\Local\Temp\ccdlrCM9.s:484    .text.CoAPSerialize_OptionsLen:000000000000001c .L0 
C:\Users\stapi\AppData\Local\Temp\ccdlrCM9.s:486    .text.CoAPSerialize_OptionsLen:0000000000000020 .L0 
C:\Users\stapi\AppData\Local\Temp\ccdlrCM9.s:491    .text.CoAPSerialize_OptionsLen:0000000000000026 .L0 
C:\Users\stapi\AppData\Local\Temp\ccdlrCM9.s:492    .text.CoAPSerialize_OptionsLen:0000000000000028 .L0 
C:\Users\stapi\AppData\Local\Temp\ccdlrCM9.s:493    .text.CoAPSerialize_OptionsLen:0000000000000028 .L0 
C:\Users\stapi\AppData\Local\Temp\ccdlrCM9.s:495    .text.CoAPSerialize_OptionsLen:0000000000000030 .L0 
C:\Users\stapi\AppData\Local\Temp\ccdlrCM9.s:496    .text.CoAPSerialize_OptionsLen:0000000000000030 .L0 
C:\Users\stapi\AppData\Local\Temp\ccdlrCM9.s:497    .text.CoAPSerialize_OptionsLen:0000000000000030 .L0 
C:\Users\stapi\AppData\Local\Temp\ccdlrCM9.s:498    .text.CoAPSerialize_OptionsLen:0000000000000030 .L0 
C:\Users\stapi\AppData\Local\Temp\ccdlrCM9.s:499    .text.CoAPSerialize_OptionsLen:0000000000000030 .L0 
C:\Users\stapi\AppData\Local\Temp\ccdlrCM9.s:500    .text.CoAPSerialize_OptionsLen:0000000000000030 .L0 
C:\Users\stapi\AppData\Local\Temp\ccdlrCM9.s:501    .text.CoAPSerialize_OptionsLen:0000000000000030 .L0 
C:\Users\stapi\AppData\Local\Temp\ccdlrCM9.s:502    .text.CoAPSerialize_OptionsLen:0000000000000030 .L0 
C:\Users\stapi\AppData\Local\Temp\ccdlrCM9.s:503    .text.CoAPSerialize_OptionsLen:0000000000000030 .L0 
C:\Users\stapi\AppData\Local\Temp\ccdlrCM9.s:506    .text.CoAPSerialize_OptionsLen:0000000000000030 .L0 
C:\Users\stapi\AppData\Local\Temp\ccdlrCM9.s:509    .text.CoAPSerialize_OptionsLen:0000000000000030 .L0 
C:\Users\stapi\AppData\Local\Temp\ccdlrCM9.s:510    .text.CoAPSerialize_OptionsLen:0000000000000030 .L0 
C:\Users\stapi\AppData\Local\Temp\ccdlrCM9.s:516    .text.CoAPSerialize_OptionsLen:000000000000003e .L0 
C:\Users\stapi\AppData\Local\Temp\ccdlrCM9.s:517    .text.CoAPSerialize_OptionsLen:000000000000003e .L0 
C:\Users\stapi\AppData\Local\Temp\ccdlrCM9.s:520    .text.CoAPSerialize_OptionsLen:0000000000000042 .L0 
C:\Users\stapi\AppData\Local\Temp\ccdlrCM9.s:524    .text.CoAPSerialize_OptionsLen:0000000000000046 .L0 
C:\Users\stapi\AppData\Local\Temp\ccdlrCM9.s:528    .text.CoAPSerialize_OptionsLen:0000000000000048 .L0 
C:\Users\stapi\AppData\Local\Temp\ccdlrCM9.s:531    .text.CoAPSerialize_OptionsLen:0000000000000050 .L0 
C:\Users\stapi\AppData\Local\Temp\ccdlrCM9.s:534    .text.CoAPSerialize_OptionsLen:0000000000000054 .L0 
C:\Users\stapi\AppData\Local\Temp\ccdlrCM9.s:537    .text.CoAPSerialize_OptionsLen:0000000000000054 .L0 
C:\Users\stapi\AppData\Local\Temp\ccdlrCM9.s:538    .text.CoAPSerialize_OptionsLen:0000000000000054 .L0 
C:\Users\stapi\AppData\Local\Temp\ccdlrCM9.s:539    .text.CoAPSerialize_OptionsLen:0000000000000054 .L0 
C:\Users\stapi\AppData\Local\Temp\ccdlrCM9.s:540    .text.CoAPSerialize_OptionsLen:0000000000000054 .L0 
C:\Users\stapi\AppData\Local\Temp\ccdlrCM9.s:542    .text.CoAPSerialize_OptionsLen:0000000000000058 .L0 
C:\Users\stapi\AppData\Local\Temp\ccdlrCM9.s:543    .text.CoAPSerialize_OptionsLen:0000000000000058 .L0 
C:\Users\stapi\AppData\Local\Temp\ccdlrCM9.s:548    .text.CoAPSerialize_OptionsLen:000000000000005e .L0 
C:\Users\stapi\AppData\Local\Temp\ccdlrCM9.s:549    .text.CoAPSerialize_OptionsLen:000000000000005e .L0 
C:\Users\stapi\AppData\Local\Temp\ccdlrCM9.s:550    .text.CoAPSerialize_OptionsLen:000000000000005e .L0 
C:\Users\stapi\AppData\Local\Temp\ccdlrCM9.s:552    .text.CoAPSerialize_OptionsLen:0000000000000062 .L0 
C:\Users\stapi\AppData\Local\Temp\ccdlrCM9.s:553    .text.CoAPSerialize_OptionsLen:0000000000000062 .L0 
C:\Users\stapi\AppData\Local\Temp\ccdlrCM9.s:557    .text.CoAPSerialize_OptionsLen:0000000000000064 .L0 
C:\Users\stapi\AppData\Local\Temp\ccdlrCM9.s:561    .text.CoAPSerialize_OptionsLen:0000000000000068 .L0 
C:\Users\stapi\AppData\Local\Temp\ccdlrCM9.s:562    .text.CoAPSerialize_OptionsLen:0000000000000068 .L0 
C:\Users\stapi\AppData\Local\Temp\ccdlrCM9.s:563    .text.CoAPSerialize_OptionsLen:0000000000000068 .L0 
C:\Users\stapi\AppData\Local\Temp\ccdlrCM9.s:568    .text.CoAPSerialize_OptionsLen:000000000000006a .L0 
C:\Users\stapi\AppData\Local\Temp\ccdlrCM9.s:572    .text.CoAPSerialize_OptionsLen:000000000000006c .L0 
C:\Users\stapi\AppData\Local\Temp\ccdlrCM9.s:577    .text.CoAPSerialize_OptionsLen:0000000000000070 .L0 
C:\Users\stapi\AppData\Local\Temp\ccdlrCM9.s:578    .text.CoAPSerialize_OptionsLen:0000000000000070 .L0 
C:\Users\stapi\AppData\Local\Temp\ccdlrCM9.s:579    .text.CoAPSerialize_OptionsLen:0000000000000070 .L0 
C:\Users\stapi\AppData\Local\Temp\ccdlrCM9.s:581    .text.CoAPSerialize_OptionsLen:0000000000000072 .L0 
C:\Users\stapi\AppData\Local\Temp\ccdlrCM9.s:582    .text.CoAPSerialize_OptionsLen:0000000000000072 .L0 
C:\Users\stapi\AppData\Local\Temp\ccdlrCM9.s:586    .text.CoAPSerialize_OptionsLen:0000000000000074 .L0 
C:\Users\stapi\AppData\Local\Temp\ccdlrCM9.s:590    .text.CoAPSerialize_OptionsLen:0000000000000076 .L0 
C:\Users\stapi\AppData\Local\Temp\ccdlrCM9.s:592    .text.CoAPSerialize_OptionsLen:0000000000000078 .L0 
C:\Users\stapi\AppData\Local\Temp\ccdlrCM9.s:596    .text.CoAPSerialize_OptionsLen:000000000000007c .L0 
C:\Users\stapi\AppData\Local\Temp\ccdlrCM9.s:603    .text.CoAPSerialize_OptionsLen:000000000000007e .L0 
C:\Users\stapi\AppData\Local\Temp\ccdlrCM9.s:604    .text.CoAPSerialize_OptionsLen:000000000000007e .L0 
C:\Users\stapi\AppData\Local\Temp\ccdlrCM9.s:606    .text.CoAPSerialize_OptionsLen:0000000000000082 .L0 
C:\Users\stapi\AppData\Local\Temp\ccdlrCM9.s:607    .text.CoAPSerialize_OptionsLen:0000000000000082 .L0 
C:\Users\stapi\AppData\Local\Temp\ccdlrCM9.s:613    .text.CoAPSerialize_OptionsLen:0000000000000086 .L0 
C:\Users\stapi\AppData\Local\Temp\ccdlrCM9.s:620    .text.CoAPSerialize_Payload:0000000000000000 CoAPSerialize_Payload
C:\Users\stapi\AppData\Local\Temp\ccdlrCM9.s:623    .text.CoAPSerialize_Payload:0000000000000000 .L0 
C:\Users\stapi\AppData\Local\Temp\ccdlrCM9.s:625    .text.CoAPSerialize_Payload:0000000000000000 .L0 
C:\Users\stapi\AppData\Local\Temp\ccdlrCM9.s:626    .text.CoAPSerialize_Payload:0000000000000000 .L0 
C:\Users\stapi\AppData\Local\Temp\ccdlrCM9.s:627    .text.CoAPSerialize_Payload:0000000000000000 .L0 
C:\Users\stapi\AppData\Local\Temp\ccdlrCM9.s:629    .text.CoAPSerialize_Payload:0000000000000004 .L0 
C:\Users\stapi\AppData\Local\Temp\ccdlrCM9.s:631    .text.CoAPSerialize_Payload:0000000000000008 .L0 
C:\Users\stapi\AppData\Local\Temp\ccdlrCM9.s:632    .text.CoAPSerialize_Payload:0000000000000010 .L0 
C:\Users\stapi\AppData\Local\Temp\ccdlrCM9.s:633    .text.CoAPSerialize_Payload:0000000000000010 .L0 
C:\Users\stapi\AppData\Local\Temp\ccdlrCM9.s:634    .text.CoAPSerialize_Payload:0000000000000010 .L0 
C:\Users\stapi\AppData\Local\Temp\ccdlrCM9.s:637    .text.CoAPSerialize_Payload:0000000000000012 .L0 
C:\Users\stapi\AppData\Local\Temp\ccdlrCM9.s:638    .text.CoAPSerialize_Payload:0000000000000012 .L0 
C:\Users\stapi\AppData\Local\Temp\ccdlrCM9.s:641    .text.CoAPSerialize_Payload:0000000000000014 .L0 
C:\Users\stapi\AppData\Local\Temp\ccdlrCM9.s:643    .text.CoAPSerialize_Payload:0000000000000016 .L0 
C:\Users\stapi\AppData\Local\Temp\ccdlrCM9.s:648    .text.CoAPSerialize_Payload:000000000000001a .L0 
C:\Users\stapi\AppData\Local\Temp\ccdlrCM9.s:653    .text.CoAPSerialize_Payload:0000000000000022 .L0 
C:\Users\stapi\AppData\Local\Temp\ccdlrCM9.s:654    .text.CoAPSerialize_Payload:0000000000000022 .L0 
C:\Users\stapi\AppData\Local\Temp\ccdlrCM9.s:655    .text.CoAPSerialize_Payload:0000000000000022 .L0 
C:\Users\stapi\AppData\Local\Temp\ccdlrCM9.s:664    .text.CoAPSerialize_Payload:0000000000000034 .L0 
C:\Users\stapi\AppData\Local\Temp\ccdlrCM9.s:665    .text.CoAPSerialize_Payload:0000000000000034 .L0 
C:\Users\stapi\AppData\Local\Temp\ccdlrCM9.s:667    .text.CoAPSerialize_Payload:0000000000000038 .L0 
C:\Users\stapi\AppData\Local\Temp\ccdlrCM9.s:673    .text.CoAPSerialize_Payload:000000000000003a .L0 
C:\Users\stapi\AppData\Local\Temp\ccdlrCM9.s:674    .text.CoAPSerialize_Payload:0000000000000042 .L0 
C:\Users\stapi\AppData\Local\Temp\ccdlrCM9.s:675    .text.CoAPSerialize_Payload:0000000000000042 .L0 
C:\Users\stapi\AppData\Local\Temp\ccdlrCM9.s:676    .text.CoAPSerialize_Payload:0000000000000042 .L0 
C:\Users\stapi\AppData\Local\Temp\ccdlrCM9.s:680    .text.CoAPSerialize_Payload:0000000000000042 .L0 
C:\Users\stapi\AppData\Local\Temp\ccdlrCM9.s:683    .text.CoAPSerialize_Payload:0000000000000044 .L0 
C:\Users\stapi\AppData\Local\Temp\ccdlrCM9.s:684    .text.CoAPSerialize_Payload:0000000000000046 .L0 
C:\Users\stapi\AppData\Local\Temp\ccdlrCM9.s:691    .text.CoAPSerialize_MessageLength:0000000000000000 CoAPSerialize_MessageLength
C:\Users\stapi\AppData\Local\Temp\ccdlrCM9.s:694    .text.CoAPSerialize_MessageLength:0000000000000000 .L0 
C:\Users\stapi\AppData\Local\Temp\ccdlrCM9.s:696    .text.CoAPSerialize_MessageLength:0000000000000000 .L0 
C:\Users\stapi\AppData\Local\Temp\ccdlrCM9.s:697    .text.CoAPSerialize_MessageLength:0000000000000008 .L0 
C:\Users\stapi\AppData\Local\Temp\ccdlrCM9.s:698    .text.CoAPSerialize_MessageLength:0000000000000008 .L0 
C:\Users\stapi\AppData\Local\Temp\ccdlrCM9.s:699    .text.CoAPSerialize_MessageLength:0000000000000008 .L0 
C:\Users\stapi\AppData\Local\Temp\ccdlrCM9.s:700    .text.CoAPSerialize_MessageLength:0000000000000008 .L0 
C:\Users\stapi\AppData\Local\Temp\ccdlrCM9.s:703    .text.CoAPSerialize_MessageLength:0000000000000008 .L0 
C:\Users\stapi\AppData\Local\Temp\ccdlrCM9.s:704    .text.CoAPSerialize_MessageLength:0000000000000008 .L0 
C:\Users\stapi\AppData\Local\Temp\ccdlrCM9.s:705    .text.CoAPSerialize_MessageLength:0000000000000008 .L0 
C:\Users\stapi\AppData\Local\Temp\ccdlrCM9.s:707    .text.CoAPSerialize_MessageLength:000000000000000a .L0 
C:\Users\stapi\AppData\Local\Temp\ccdlrCM9.s:709    .text.CoAPSerialize_MessageLength:000000000000000c .L0 
C:\Users\stapi\AppData\Local\Temp\ccdlrCM9.s:712    .text.CoAPSerialize_MessageLength:0000000000000014 .L0 
C:\Users\stapi\AppData\Local\Temp\ccdlrCM9.s:715    .text.CoAPSerialize_MessageLength:0000000000000018 .L0 
C:\Users\stapi\AppData\Local\Temp\ccdlrCM9.s:717    .text.CoAPSerialize_MessageLength:000000000000001c .L0 
C:\Users\stapi\AppData\Local\Temp\ccdlrCM9.s:720    .text.CoAPSerialize_MessageLength:000000000000001e .L0 
C:\Users\stapi\AppData\Local\Temp\ccdlrCM9.s:721    .text.CoAPSerialize_MessageLength:000000000000001e .L0 
C:\Users\stapi\AppData\Local\Temp\ccdlrCM9.s:725    .text.CoAPSerialize_MessageLength:0000000000000024 .L0 
C:\Users\stapi\AppData\Local\Temp\ccdlrCM9.s:726    .text.CoAPSerialize_MessageLength:0000000000000024 .L0 
C:\Users\stapi\AppData\Local\Temp\ccdlrCM9.s:729    .text.CoAPSerialize_MessageLength:0000000000000026 .L0 
C:\Users\stapi\AppData\Local\Temp\ccdlrCM9.s:730    .text.CoAPSerialize_MessageLength:0000000000000026 .L0 
C:\Users\stapi\AppData\Local\Temp\ccdlrCM9.s:731    .text.CoAPSerialize_MessageLength:0000000000000026 .L0 
C:\Users\stapi\AppData\Local\Temp\ccdlrCM9.s:739    .text.CoAPSerialize_MessageLength:000000000000002e .L0 
C:\Users\stapi\AppData\Local\Temp\ccdlrCM9.s:740    .text.CoAPSerialize_MessageLength:000000000000002e .L0 
C:\Users\stapi\AppData\Local\Temp\ccdlrCM9.s:741    .text.CoAPSerialize_MessageLength:0000000000000036 .L0 
C:\Users\stapi\AppData\Local\Temp\ccdlrCM9.s:742    .text.CoAPSerialize_MessageLength:0000000000000036 .L0 
C:\Users\stapi\AppData\Local\Temp\ccdlrCM9.s:743    .text.CoAPSerialize_MessageLength:0000000000000036 .L0 
C:\Users\stapi\AppData\Local\Temp\ccdlrCM9.s:744    .text.CoAPSerialize_MessageLength:0000000000000036 .L0 
C:\Users\stapi\AppData\Local\Temp\ccdlrCM9.s:745    .text.CoAPSerialize_MessageLength:0000000000000036 .L0 
C:\Users\stapi\AppData\Local\Temp\ccdlrCM9.s:752    .text.CoAPSerialize_Message:0000000000000000 CoAPSerialize_Message
C:\Users\stapi\AppData\Local\Temp\ccdlrCM9.s:755    .text.CoAPSerialize_Message:0000000000000000 .L0 
C:\Users\stapi\AppData\Local\Temp\ccdlrCM9.s:757    .text.CoAPSerialize_Message:0000000000000000 .L0 
C:\Users\stapi\AppData\Local\Temp\ccdlrCM9.s:758    .text.CoAPSerialize_Message:0000000000000000 .L0 
C:\Users\stapi\AppData\Local\Temp\ccdlrCM9.s:759    .text.CoAPSerialize_Message:0000000000000000 .L0 
C:\Users\stapi\AppData\Local\Temp\ccdlrCM9.s:760    .text.CoAPSerialize_Message:0000000000000000 .L0 
C:\Users\stapi\AppData\Local\Temp\ccdlrCM9.s:761    .text.CoAPSerialize_Message:0000000000000000 .L0 
C:\Users\stapi\AppData\Local\Temp\ccdlrCM9.s:762    .text.CoAPSerialize_Message:0000000000000000 .L0 
C:\Users\stapi\AppData\Local\Temp\ccdlrCM9.s:764    .text.CoAPSerialize_Message:0000000000000002 .L0 
C:\Users\stapi\AppData\Local\Temp\ccdlrCM9.s:765    .text.CoAPSerialize_Message:000000000000000a .L0 
C:\Users\stapi\AppData\Local\Temp\ccdlrCM9.s:766    .text.CoAPSerialize_Message:000000000000000a .L0 
C:\Users\stapi\AppData\Local\Temp\ccdlrCM9.s:767    .text.CoAPSerialize_Message:000000000000000a .L0 
C:\Users\stapi\AppData\Local\Temp\ccdlrCM9.s:768    .text.CoAPSerialize_Message:000000000000000a .L0 
C:\Users\stapi\AppData\Local\Temp\ccdlrCM9.s:769    .text.CoAPSerialize_Message:000000000000000a .L0 
C:\Users\stapi\AppData\Local\Temp\ccdlrCM9.s:770    .text.CoAPSerialize_Message:000000000000000a .L0 
C:\Users\stapi\AppData\Local\Temp\ccdlrCM9.s:771    .text.CoAPSerialize_Message:000000000000000a .L0 
C:\Users\stapi\AppData\Local\Temp\ccdlrCM9.s:774    .text.CoAPSerialize_Message:000000000000000c .L0 
C:\Users\stapi\AppData\Local\Temp\ccdlrCM9.s:776    .text.CoAPSerialize_Message:0000000000000010 .L0 
C:\Users\stapi\AppData\Local\Temp\ccdlrCM9.s:778    .text.CoAPSerialize_Message:0000000000000012 .L0 
C:\Users\stapi\AppData\Local\Temp\ccdlrCM9.s:782    .text.CoAPSerialize_Message:0000000000000018 .L0 
C:\Users\stapi\AppData\Local\Temp\ccdlrCM9.s:783    .text.CoAPSerialize_Message:0000000000000018 .L0 
C:\Users\stapi\AppData\Local\Temp\ccdlrCM9.s:785    .text.CoAPSerialize_Message:000000000000001a .L0 
C:\Users\stapi\AppData\Local\Temp\ccdlrCM9.s:788    .text.CoAPSerialize_Message:0000000000000022 .L0 
C:\Users\stapi\AppData\Local\Temp\ccdlrCM9.s:789    .text.CoAPSerialize_Message:0000000000000022 .L0 
C:\Users\stapi\AppData\Local\Temp\ccdlrCM9.s:793    .text.CoAPSerialize_Message:0000000000000028 .L0 
C:\Users\stapi\AppData\Local\Temp\ccdlrCM9.s:794    .text.CoAPSerialize_Message:0000000000000028 .L0 
C:\Users\stapi\AppData\Local\Temp\ccdlrCM9.s:797    .text.CoAPSerialize_Message:000000000000002c .L0 
C:\Users\stapi\AppData\Local\Temp\ccdlrCM9.s:799    .text.CoAPSerialize_Message:000000000000002e .L0 
C:\Users\stapi\AppData\Local\Temp\ccdlrCM9.s:802    .text.CoAPSerialize_Message:0000000000000032 .L0 
C:\Users\stapi\AppData\Local\Temp\ccdlrCM9.s:803    .text.CoAPSerialize_Message:0000000000000032 .L0 
C:\Users\stapi\AppData\Local\Temp\ccdlrCM9.s:809    .text.CoAPSerialize_Message:000000000000003e .L0 
C:\Users\stapi\AppData\Local\Temp\ccdlrCM9.s:810    .text.CoAPSerialize_Message:000000000000003e .L0 
C:\Users\stapi\AppData\Local\Temp\ccdlrCM9.s:814    .text.CoAPSerialize_Message:0000000000000044 .L0 
C:\Users\stapi\AppData\Local\Temp\ccdlrCM9.s:815    .text.CoAPSerialize_Message:0000000000000044 .L0 
C:\Users\stapi\AppData\Local\Temp\ccdlrCM9.s:818    .text.CoAPSerialize_Message:0000000000000046 .L0 
C:\Users\stapi\AppData\Local\Temp\ccdlrCM9.s:820    .text.CoAPSerialize_Message:0000000000000048 .L0 
C:\Users\stapi\AppData\Local\Temp\ccdlrCM9.s:823    .text.CoAPSerialize_Message:000000000000004c .L0 
C:\Users\stapi\AppData\Local\Temp\ccdlrCM9.s:824    .text.CoAPSerialize_Message:000000000000004c .L0 
C:\Users\stapi\AppData\Local\Temp\ccdlrCM9.s:830    .text.CoAPSerialize_Message:0000000000000058 .L0 
C:\Users\stapi\AppData\Local\Temp\ccdlrCM9.s:831    .text.CoAPSerialize_Message:0000000000000058 .L0 
C:\Users\stapi\AppData\Local\Temp\ccdlrCM9.s:832    .text.CoAPSerialize_Message:0000000000000058 .L0 
C:\Users\stapi\AppData\Local\Temp\ccdlrCM9.s:835    .text.CoAPSerialize_Message:000000000000005a .L0 
C:\Users\stapi\AppData\Local\Temp\ccdlrCM9.s:837    .text.CoAPSerialize_Message:000000000000005e .L0 
C:\Users\stapi\AppData\Local\Temp\ccdlrCM9.s:840    .text.CoAPSerialize_Message:0000000000000062 .L0 
C:\Users\stapi\AppData\Local\Temp\ccdlrCM9.s:841    .text.CoAPSerialize_Message:0000000000000062 .L0 
C:\Users\stapi\AppData\Local\Temp\ccdlrCM9.s:847    .text.CoAPSerialize_Message:000000000000006e .L0 
C:\Users\stapi\AppData\Local\Temp\ccdlrCM9.s:848    .text.CoAPSerialize_Message:000000000000006e .L0 
C:\Users\stapi\AppData\Local\Temp\ccdlrCM9.s:849    .text.CoAPSerialize_Message:000000000000006e .L0 
C:\Users\stapi\AppData\Local\Temp\ccdlrCM9.s:850    .text.CoAPSerialize_Message:000000000000006e .L0 
C:\Users\stapi\AppData\Local\Temp\ccdlrCM9.s:852    .text.CoAPSerialize_Message:0000000000000072 .L0 
C:\Users\stapi\AppData\Local\Temp\ccdlrCM9.s:857    .text.CoAPSerialize_Message:000000000000007a .L0 
C:\Users\stapi\AppData\Local\Temp\ccdlrCM9.s:859    .text.CoAPSerialize_Message:0000000000000084 .L0 
C:\Users\stapi\AppData\Local\Temp\ccdlrCM9.s:860    .text.CoAPSerialize_Message:0000000000000084 .L0 
C:\Users\stapi\AppData\Local\Temp\ccdlrCM9.s:861    .text.CoAPSerialize_Message:0000000000000084 .L0 
C:\Users\stapi\AppData\Local\Temp\ccdlrCM9.s:862    .text.CoAPSerialize_Message:0000000000000084 .L0 
C:\Users\stapi\AppData\Local\Temp\ccdlrCM9.s:863    .text.CoAPSerialize_Message:0000000000000084 .L0 
C:\Users\stapi\AppData\Local\Temp\ccdlrCM9.s:864    .text.CoAPSerialize_Message:0000000000000084 .L0 
C:\Users\stapi\AppData\Local\Temp\ccdlrCM9.s:865    .text.CoAPSerialize_Message:0000000000000084 .L0 
C:\Users\stapi\AppData\Local\Temp\ccdlrCM9.s:869    .text.CoAPSerialize_Message:0000000000000084 .L0 
C:\Users\stapi\AppData\Local\Temp\ccdlrCM9.s:871    .text.CoAPSerialize_Message:0000000000000088 .L0 
C:\Users\stapi\AppData\Local\Temp\ccdlrCM9.s:874    .text.CoAPSerialize_Message:000000000000008c .L0 
C:\Users\stapi\AppData\Local\Temp\ccdlrCM9.s:78     .text.CoAPSerialize_Header:0000000000000044 .L0 
C:\Users\stapi\AppData\Local\Temp\ccdlrCM9.s:140    .text.CoAPSerialize_Token:0000000000000032 .L0 
C:\Users\stapi\AppData\Local\Temp\ccdlrCM9.s:432    .text.CoAPSerialize_Options:0000000000000118 .L0 
C:\Users\stapi\AppData\Local\Temp\ccdlrCM9.s:616    .text.CoAPSerialize_OptionsLen:0000000000000086 .L0 
C:\Users\stapi\AppData\Local\Temp\ccdlrCM9.s:687    .text.CoAPSerialize_Payload:0000000000000046 .L0 
C:\Users\stapi\AppData\Local\Temp\ccdlrCM9.s:748    .text.CoAPSerialize_MessageLength:0000000000000036 .L0 
C:\Users\stapi\AppData\Local\Temp\ccdlrCM9.s:877    .text.CoAPSerialize_Message:000000000000008c .L0 
                     .debug_frame:0000000000000000 .L0 
C:\Users\stapi\AppData\Local\Temp\ccdlrCM9.s:67     .text.CoAPSerialize_Header:0000000000000040 .L3
C:\Users\stapi\AppData\Local\Temp\ccdlrCM9.s:126    .text.CoAPSerialize_Token:0000000000000024 .L6
C:\Users\stapi\AppData\Local\Temp\ccdlrCM9.s:110    .text.CoAPSerialize_Token:0000000000000012 .L7
C:\Users\stapi\AppData\Local\Temp\ccdlrCM9.s:228    .text.CoAPSerialize_Options:0000000000000038 .L23
C:\Users\stapi\AppData\Local\Temp\ccdlrCM9.s:364    .text.CoAPSerialize_Options:00000000000000d0 .L11
C:\Users\stapi\AppData\Local\Temp\ccdlrCM9.s:382    .text.CoAPSerialize_Options:00000000000000e4 .L14
C:\Users\stapi\AppData\Local\Temp\ccdlrCM9.s:396    .text.CoAPSerialize_Options:00000000000000f4 .L17
C:\Users\stapi\AppData\Local\Temp\ccdlrCM9.s:412    .text.CoAPSerialize_Options:0000000000000108 .L20
C:\Users\stapi\AppData\Local\Temp\ccdlrCM9.s:207    .text.CoAPSerialize_Options:000000000000002e .L22
C:\Users\stapi\AppData\Local\Temp\ccdlrCM9.s:196    .text.CoAPSerialize_Options:0000000000000024 .L10
C:\Users\stapi\AppData\Local\Temp\ccdlrCM9.s:375    .text.CoAPSerialize_Options:00000000000000da .L13
C:\Users\stapi\AppData\Local\Temp\ccdlrCM9.s:263    .text.CoAPSerialize_Options:0000000000000062 .L12
C:\Users\stapi\AppData\Local\Temp\ccdlrCM9.s:390    .text.CoAPSerialize_Options:00000000000000ee .L16
C:\Users\stapi\AppData\Local\Temp\ccdlrCM9.s:274    .text.CoAPSerialize_Options:0000000000000072 .L28
C:\Users\stapi\AppData\Local\Temp\ccdlrCM9.s:298    .text.CoAPSerialize_Options:000000000000008e .L18
C:\Users\stapi\AppData\Local\Temp\ccdlrCM9.s:318    .text.CoAPSerialize_Options:00000000000000a6 .L21
C:\Users\stapi\AppData\Local\Temp\ccdlrCM9.s:505    .text.CoAPSerialize_OptionsLen:0000000000000030 .L35
C:\Users\stapi\AppData\Local\Temp\ccdlrCM9.s:545    .text.CoAPSerialize_OptionsLen:000000000000005e .L31
C:\Users\stapi\AppData\Local\Temp\ccdlrCM9.s:598    .text.CoAPSerialize_OptionsLen:000000000000007e .L32
C:\Users\stapi\AppData\Local\Temp\ccdlrCM9.s:489    .text.CoAPSerialize_OptionsLen:0000000000000026 .L34
C:\Users\stapi\AppData\Local\Temp\ccdlrCM9.s:478    .text.CoAPSerialize_OptionsLen:000000000000001c .L30
C:\Users\stapi\AppData\Local\Temp\ccdlrCM9.s:559    .text.CoAPSerialize_OptionsLen:0000000000000068 .L33
C:\Users\stapi\AppData\Local\Temp\ccdlrCM9.s:555    .text.CoAPSerialize_OptionsLen:0000000000000064 .L42
C:\Users\stapi\AppData\Local\Temp\ccdlrCM9.s:678    .text.CoAPSerialize_Payload:0000000000000042 .L45
C:\Users\stapi\AppData\Local\Temp\ccdlrCM9.s:669    .text.CoAPSerialize_Payload:000000000000003a .L43
C:\Users\stapi\AppData\Local\Temp\ccdlrCM9.s:737    .text.CoAPSerialize_MessageLength:000000000000002e .L54
C:\Users\stapi\AppData\Local\Temp\ccdlrCM9.s:867    .text.CoAPSerialize_Message:0000000000000084 .L61
C:\Users\stapi\AppData\Local\Temp\ccdlrCM9.s:855    .text.CoAPSerialize_Message:000000000000007a .L59
C:\Users\stapi\AppData\Local\Temp\ccdlrCM9.s:1935   .debug_abbrev:0000000000000000 .Ldebug_abbrev0
C:\Users\stapi\AppData\Local\Temp\ccdlrCM9.s:3443   .debug_str:00000000000001da .LASF55
C:\Users\stapi\AppData\Local\Temp\ccdlrCM9.s:3419   .debug_str:000000000000002e .LASF56
C:\Users\stapi\AppData\Local\Temp\ccdlrCM9.s:3441   .debug_str:0000000000000149 .LASF57
C:\Users\stapi\AppData\Local\Temp\ccdlrCM9.s:3341   .debug_ranges:0000000000000000 .Ldebug_ranges0
C:\Users\stapi\AppData\Local\Temp\ccdlrCM9.s:3407   .debug_line:0000000000000000 .Ldebug_line0
C:\Users\stapi\AppData\Local\Temp\ccdlrCM9.s:3471   .debug_str:000000000000034d .LASF0
C:\Users\stapi\AppData\Local\Temp\ccdlrCM9.s:3467   .debug_str:0000000000000338 .LASF1
C:\Users\stapi\AppData\Local\Temp\ccdlrCM9.s:3427   .debug_str:00000000000000f5 .LASF2
C:\Users\stapi\AppData\Local\Temp\ccdlrCM9.s:3497   .debug_str:00000000000003dd .LASF3
C:\Users\stapi\AppData\Local\Temp\ccdlrCM9.s:3457   .debug_str:000000000000030d .LASF4
C:\Users\stapi\AppData\Local\Temp\ccdlrCM9.s:3507   .debug_str:000000000000042a .LASF5
C:\Users\stapi\AppData\Local\Temp\ccdlrCM9.s:3449   .debug_str:00000000000002de .LASF6
C:\Users\stapi\AppData\Local\Temp\ccdlrCM9.s:3499   .debug_str:00000000000003f0 .LASF10
C:\Users\stapi\AppData\Local\Temp\ccdlrCM9.s:3473   .debug_str:0000000000000359 .LASF7
C:\Users\stapi\AppData\Local\Temp\ccdlrCM9.s:3477   .debug_str:0000000000000375 .LASF8
C:\Users\stapi\AppData\Local\Temp\ccdlrCM9.s:3491   .debug_str:00000000000003ae .LASF9
C:\Users\stapi\AppData\Local\Temp\ccdlrCM9.s:3425   .debug_str:00000000000000ec .LASF11
C:\Users\stapi\AppData\Local\Temp\ccdlrCM9.s:3453   .debug_str:00000000000002f4 .LASF27
C:\Users\stapi\AppData\Local\Temp\ccdlrCM9.s:3459   .debug_str:0000000000000316 .LASF12
C:\Users\stapi\AppData\Local\Temp\ccdlrCM9.s:3503   .debug_str:0000000000000411 .LASF13
C:\Users\stapi\AppData\Local\Temp\ccdlrCM9.s:3433   .debug_str:0000000000000115 .LASF14
C:\Users\stapi\AppData\Local\Temp\ccdlrCM9.s:3513   .debug_str:0000000000000455 .LASF15
C:\Users\stapi\AppData\Local\Temp\ccdlrCM9.s:3495   .debug_str:00000000000003c6 .LASF16
C:\Users\stapi\AppData\Local\Temp\ccdlrCM9.s:3493   .debug_str:00000000000003b3 .LASF17
C:\Users\stapi\AppData\Local\Temp\ccdlrCM9.s:3417   .debug_str:0000000000000020 .LASF18
C:\Users\stapi\AppData\Local\Temp\ccdlrCM9.s:3415   .debug_str:0000000000000018 .LASF19
C:\Users\stapi\AppData\Local\Temp\ccdlrCM9.s:3475   .debug_str:0000000000000370 .LASF20
C:\Users\stapi\AppData\Local\Temp\ccdlrCM9.s:3455   .debug_str:0000000000000304 .LASF21
C:\Users\stapi\AppData\Local\Temp\ccdlrCM9.s:3483   .debug_str:0000000000000391 .LASF22
C:\Users\stapi\AppData\Local\Temp\ccdlrCM9.s:3481   .debug_str:000000000000038b .LASF23
C:\Users\stapi\AppData\Local\Temp\ccdlrCM9.s:3517   .debug_str:000000000000047f .LASF24
C:\Users\stapi\AppData\Local\Temp\ccdlrCM9.s:3523   .debug_str:00000000000004b2 .LASF25
C:\Users\stapi\AppData\Local\Temp\ccdlrCM9.s:3489   .debug_str:00000000000003a2 .LASF58
C:\Users\stapi\AppData\Local\Temp\ccdlrCM9.s:3465   .debug_str:000000000000032c .LASF26
C:\Users\stapi\AppData\Local\Temp\ccdlrCM9.s:3409   .debug_str:0000000000000000 .LASF28
C:\Users\stapi\AppData\Local\Temp\ccdlrCM9.s:3461   .debug_str:000000000000031b .LASF29
C:\Users\stapi\AppData\Local\Temp\ccdlrCM9.s:3451   .debug_str:00000000000002ec .LASF30
C:\Users\stapi\AppData\Local\Temp\ccdlrCM9.s:3479   .debug_str:0000000000000382 .LASF31
C:\Users\stapi\AppData\Local\Temp\ccdlrCM9.s:3519   .debug_str:000000000000048d .LASF32
C:\Users\stapi\AppData\Local\Temp\ccdlrCM9.s:3463   .debug_str:0000000000000321 .LASF33
C:\Users\stapi\AppData\Local\Temp\ccdlrCM9.s:3529   .debug_str:00000000000004ee .LASF34
C:\Users\stapi\AppData\Local\Temp\ccdlrCM9.s:3439   .debug_str:0000000000000141 .LASF35
C:\Users\stapi\AppData\Local\Temp\ccdlrCM9.s:3485   .debug_str:0000000000000396 .LASF36
C:\Users\stapi\AppData\Local\Temp\ccdlrCM9.s:3429   .debug_str:00000000000000ff .LASF37
C:\Users\stapi\AppData\Local\Temp\ccdlrCM9.s:3413   .debug_str:000000000000000e .LASF38
C:\Users\stapi\AppData\Local\Temp\ccdlrCM9.s:3511   .debug_str:0000000000000442 .LASF39
C:\Users\stapi\AppData\Local\Temp\ccdlrCM9.s:3501   .debug_str:00000000000003fb .LASF43
C:\Users\stapi\AppData\Local\Temp\ccdlrCM9.s:753    .text.CoAPSerialize_Message:0000000000000000 .LFB28
C:\Users\stapi\AppData\Local\Temp\ccdlrCM9.s:875    .text.CoAPSerialize_Message:000000000000008c .LFE28
C:\Users\stapi\AppData\Local\Temp\ccdlrCM9.s:2593   .debug_loc:0000000000000000 .LLST32
C:\Users\stapi\AppData\Local\Temp\ccdlrCM9.s:2615   .debug_loc:0000000000000037 .LLST33
C:\Users\stapi\AppData\Local\Temp\ccdlrCM9.s:3411   .debug_str:0000000000000007 .LASF40
C:\Users\stapi\AppData\Local\Temp\ccdlrCM9.s:2637   .debug_loc:000000000000006e .LLST34
C:\Users\stapi\AppData\Local\Temp\ccdlrCM9.s:2655   .debug_loc:000000000000009a .LLST35
C:\Users\stapi\AppData\Local\Temp\ccdlrCM9.s:3509   .debug_str:000000000000043c .LASF41
C:\Users\stapi\AppData\Local\Temp\ccdlrCM9.s:2686   .debug_loc:00000000000000e2 .LLST36
C:\Users\stapi\AppData\Local\Temp\ccdlrCM9.s:3487   .debug_str:000000000000039b .LASF42
C:\Users\stapi\AppData\Local\Temp\ccdlrCM9.s:2715   .debug_loc:000000000000012e .LLST37
C:\Users\stapi\AppData\Local\Temp\ccdlrCM9.s:786    .text.CoAPSerialize_Message:0000000000000022 .LVL71
C:\Users\stapi\AppData\Local\Temp\ccdlrCM9.s:807    .text.CoAPSerialize_Message:000000000000003e .LVL76
C:\Users\stapi\AppData\Local\Temp\ccdlrCM9.s:828    .text.CoAPSerialize_Message:0000000000000058 .LVL81
C:\Users\stapi\AppData\Local\Temp\ccdlrCM9.s:845    .text.CoAPSerialize_Message:000000000000006e .LVL85
C:\Users\stapi\AppData\Local\Temp\ccdlrCM9.s:3521   .debug_str:0000000000000496 .LASF44
C:\Users\stapi\AppData\Local\Temp\ccdlrCM9.s:692    .text.CoAPSerialize_MessageLength:0000000000000000 .LFB27
C:\Users\stapi\AppData\Local\Temp\ccdlrCM9.s:746    .text.CoAPSerialize_MessageLength:0000000000000036 .LFE27
C:\Users\stapi\AppData\Local\Temp\ccdlrCM9.s:2754   .debug_loc:000000000000018b .LLST30
C:\Users\stapi\AppData\Local\Temp\ccdlrCM9.s:3469   .debug_str:0000000000000346 .LASF45
C:\Users\stapi\AppData\Local\Temp\ccdlrCM9.s:2765   .debug_loc:00000000000001a9 .LLST31
C:\Users\stapi\AppData\Local\Temp\ccdlrCM9.s:710    .text.CoAPSerialize_MessageLength:0000000000000014 .LVL63
C:\Users\stapi\AppData\Local\Temp\ccdlrCM9.s:3527   .debug_str:00000000000004d8 .LASF52
C:\Users\stapi\AppData\Local\Temp\ccdlrCM9.s:3437   .debug_str:0000000000000128 .LASF46
C:\Users\stapi\AppData\Local\Temp\ccdlrCM9.s:437    .text.CoAPSerialize_OptionsLen:0000000000000000 .LFB25
C:\Users\stapi\AppData\Local\Temp\ccdlrCM9.s:614    .text.CoAPSerialize_OptionsLen:0000000000000086 .LFE25
C:\Users\stapi\AppData\Local\Temp\ccdlrCM9.s:2803   .debug_loc:00000000000001fe .LLST17
C:\Users\stapi\AppData\Local\Temp\ccdlrCM9.s:2814   .debug_loc:000000000000021c .LLST18
C:\Users\stapi\AppData\Local\Temp\ccdlrCM9.s:2836   .debug_loc:0000000000000253 .LLST19
C:\Users\stapi\AppData\Local\Temp\ccdlrCM9.s:2852   .debug_loc:000000000000027d .LLST20
C:\Users\stapi\AppData\Local\Temp\ccdlrCM9.s:3423   .debug_str:00000000000000e4 .LASF47
C:\Users\stapi\AppData\Local\Temp\ccdlrCM9.s:3445   .debug_str:00000000000002c1 .LASF48
C:\Users\stapi\AppData\Local\Temp\ccdlrCM9.s:2872   .debug_loc:00000000000002b2 .LLST21
C:\Users\stapi\AppData\Local\Temp\ccdlrCM9.s:471    .text.CoAPSerialize_OptionsLen:0000000000000016 .LBB31
C:\Users\stapi\AppData\Local\Temp\ccdlrCM9.s:2889   .debug_loc:00000000000002dd .LLST22
C:\Users\stapi\AppData\Local\Temp\ccdlrCM9.s:2904   .debug_loc:00000000000002ff .LLST23
C:\Users\stapi\AppData\Local\Temp\ccdlrCM9.s:514    .text.CoAPSerialize_OptionsLen:000000000000003e .LVL38
C:\Users\stapi\AppData\Local\Temp\ccdlrCM9.s:3525   .debug_str:00000000000004c0 .LASF50
C:\Users\stapi\AppData\Local\Temp\ccdlrCM9.s:3447   .debug_str:00000000000002c8 .LASF49
C:\Users\stapi\AppData\Local\Temp\ccdlrCM9.s:145    .text.CoAPSerialize_Options:0000000000000000 .LFB23
C:\Users\stapi\AppData\Local\Temp\ccdlrCM9.s:430    .text.CoAPSerialize_Options:0000000000000118 .LFE23
C:\Users\stapi\AppData\Local\Temp\ccdlrCM9.s:2924   .debug_loc:0000000000000334 .LLST7
C:\Users\stapi\AppData\Local\Temp\ccdlrCM9.s:2935   .debug_loc:0000000000000352 .LLST8
C:\Users\stapi\AppData\Local\Temp\ccdlrCM9.s:2946   .debug_loc:0000000000000370 .LLST9
C:\Users\stapi\AppData\Local\Temp\ccdlrCM9.s:2960   .debug_loc:0000000000000391 .LLST10
C:\Users\stapi\AppData\Local\Temp\ccdlrCM9.s:2982   .debug_loc:00000000000003c8 .LLST11
C:\Users\stapi\AppData\Local\Temp\ccdlrCM9.s:2994   .debug_loc:00000000000003e7 .LLST12
C:\Users\stapi\AppData\Local\Temp\ccdlrCM9.s:3014   .debug_loc:000000000000041c .LLST13
C:\Users\stapi\AppData\Local\Temp\ccdlrCM9.s:185    .text.CoAPSerialize_Options:0000000000000018 .LBB16
C:\Users\stapi\AppData\Local\Temp\ccdlrCM9.s:3031   .debug_loc:0000000000000447 .LLST14
C:\Users\stapi\AppData\Local\Temp\ccdlrCM9.s:3042   .debug_loc:0000000000000465 .LLST15
C:\Users\stapi\AppData\Local\Temp\ccdlrCM9.s:3057   .debug_loc:0000000000000487 .LLST16
C:\Users\stapi\AppData\Local\Temp\ccdlrCM9.s:324    .text.CoAPSerialize_Options:00000000000000b4 .LVL23
C:\Users\stapi\AppData\Local\Temp\ccdlrCM9.s:237    .text.CoAPSerialize_Options:0000000000000046 .LVL16
C:\Users\stapi\AppData\Local\Temp\ccdlrCM9.s:3515   .debug_str:000000000000046a .LASF51
C:\Users\stapi\AppData\Local\Temp\ccdlrCM9.s:3505   .debug_str:0000000000000416 .LASF53
C:\Users\stapi\AppData\Local\Temp\ccdlrCM9.s:3421   .debug_str:00000000000000cf .LASF54
C:\Users\stapi\AppData\Local\Temp\ccdlrCM9.s:14     .text.CoAPSerialize_Header:0000000000000000 .LFB20
C:\Users\stapi\AppData\Local\Temp\ccdlrCM9.s:76     .text.CoAPSerialize_Header:0000000000000044 .LFE20
C:\Users\stapi\AppData\Local\Temp\ccdlrCM9.s:3110   .debug_loc:0000000000000500 .LLST0
C:\Users\stapi\AppData\Local\Temp\ccdlrCM9.s:24     .text.CoAPSerialize_Header:0000000000000006 .LBB4
C:\Users\stapi\AppData\Local\Temp\ccdlrCM9.s:69     .text.CoAPSerialize_Header:0000000000000040 .LBE4
C:\Users\stapi\AppData\Local\Temp\ccdlrCM9.s:3135   .debug_loc:000000000000053a .LLST1
C:\Users\stapi\AppData\Local\Temp\ccdlrCM9.s:3142   .debug_loc:000000000000054d .LLST2
C:\Users\stapi\AppData\Local\Temp\ccdlrCM9.s:3149   .debug_loc:0000000000000560 .LLST3
C:\Users\stapi\AppData\Local\Temp\ccdlrCM9.s:83     .text.CoAPSerialize_Token:0000000000000000 .LFB21
C:\Users\stapi\AppData\Local\Temp\ccdlrCM9.s:138    .text.CoAPSerialize_Token:0000000000000032 .LFE21
C:\Users\stapi\AppData\Local\Temp\ccdlrCM9.s:3163   .debug_loc:0000000000000581 .LLST4
C:\Users\stapi\AppData\Local\Temp\ccdlrCM9.s:3174   .debug_loc:000000000000059f .LLST5
C:\Users\stapi\AppData\Local\Temp\ccdlrCM9.s:93     .text.CoAPSerialize_Token:0000000000000004 .LBB8
C:\Users\stapi\AppData\Local\Temp\ccdlrCM9.s:3188   .debug_loc:00000000000005c0 .LLST6
C:\Users\stapi\AppData\Local\Temp\ccdlrCM9.s:621    .text.CoAPSerialize_Payload:0000000000000000 .LFB26
C:\Users\stapi\AppData\Local\Temp\ccdlrCM9.s:685    .text.CoAPSerialize_Payload:0000000000000046 .LFE26
C:\Users\stapi\AppData\Local\Temp\ccdlrCM9.s:3205   .debug_loc:00000000000005eb .LLST24
C:\Users\stapi\AppData\Local\Temp\ccdlrCM9.s:3227   .debug_loc:0000000000000622 .LLST25
C:\Users\stapi\AppData\Local\Temp\ccdlrCM9.s:3249   .debug_loc:0000000000000659 .LLST26
C:\Users\stapi\AppData\Local\Temp\ccdlrCM9.s:645    .text.CoAPSerialize_Payload:000000000000001a .LBB46
C:\Users\stapi\AppData\Local\Temp\ccdlrCM9.s:671    .text.CoAPSerialize_Payload:000000000000003a .LBE46
C:\Users\stapi\AppData\Local\Temp\ccdlrCM9.s:3267   .debug_loc:0000000000000685 .LLST27
C:\Users\stapi\AppData\Local\Temp\ccdlrCM9.s:3281   .debug_loc:00000000000006a6 .LLST28
C:\Users\stapi\AppData\Local\Temp\ccdlrCM9.s:3309   .debug_loc:00000000000006e3 .LLST29
C:\Users\stapi\AppData\Local\Temp\ccdlrCM9.s:662    .text.CoAPSerialize_Payload:0000000000000034 .LVL57
C:\Users\stapi\AppData\Local\Temp\ccdlrCM9.s:3435   .debug_str:0000000000000121 .LASF59
C:\Users\stapi\AppData\Local\Temp\ccdlrCM9.s:3431   .debug_str:0000000000000104 .LASF60
C:\Users\stapi\AppData\Local\Temp\ccdlrCM9.s:756    .text.CoAPSerialize_Message:0000000000000000 .LVL70
C:\Users\stapi\AppData\Local\Temp\ccdlrCM9.s:866    .text.CoAPSerialize_Message:0000000000000084 .LVL87
C:\Users\stapi\AppData\Local\Temp\ccdlrCM9.s:872    .text.CoAPSerialize_Message:000000000000008a .LVL88
C:\Users\stapi\AppData\Local\Temp\ccdlrCM9.s:795    .text.CoAPSerialize_Message:000000000000002c .LVL73
C:\Users\stapi\AppData\Local\Temp\ccdlrCM9.s:791    .text.CoAPSerialize_Message:0000000000000028 .LVL72
C:\Users\stapi\AppData\Local\Temp\ccdlrCM9.s:842    .text.CoAPSerialize_Message:0000000000000064 .LVL84
C:\Users\stapi\AppData\Local\Temp\ccdlrCM9.s:804    .text.CoAPSerialize_Message:0000000000000034 .LVL75
C:\Users\stapi\AppData\Local\Temp\ccdlrCM9.s:825    .text.CoAPSerialize_Message:000000000000004e .LVL80
C:\Users\stapi\AppData\Local\Temp\ccdlrCM9.s:854    .text.CoAPSerialize_Message:000000000000007a .LVL86
C:\Users\stapi\AppData\Local\Temp\ccdlrCM9.s:800    .text.CoAPSerialize_Message:0000000000000032 .LVL74
C:\Users\stapi\AppData\Local\Temp\ccdlrCM9.s:816    .text.CoAPSerialize_Message:0000000000000046 .LVL78
C:\Users\stapi\AppData\Local\Temp\ccdlrCM9.s:821    .text.CoAPSerialize_Message:000000000000004c .LVL79
C:\Users\stapi\AppData\Local\Temp\ccdlrCM9.s:833    .text.CoAPSerialize_Message:000000000000005a .LVL82
C:\Users\stapi\AppData\Local\Temp\ccdlrCM9.s:838    .text.CoAPSerialize_Message:0000000000000062 .LVL83
C:\Users\stapi\AppData\Local\Temp\ccdlrCM9.s:695    .text.CoAPSerialize_MessageLength:0000000000000000 .LVL61
C:\Users\stapi\AppData\Local\Temp\ccdlrCM9.s:702    .text.CoAPSerialize_MessageLength:0000000000000008 .LVL62
C:\Users\stapi\AppData\Local\Temp\ccdlrCM9.s:718    .text.CoAPSerialize_MessageLength:000000000000001e .LVL64
C:\Users\stapi\AppData\Local\Temp\ccdlrCM9.s:723    .text.CoAPSerialize_MessageLength:0000000000000024 .LVL65
C:\Users\stapi\AppData\Local\Temp\ccdlrCM9.s:728    .text.CoAPSerialize_MessageLength:0000000000000026 .LVL66
C:\Users\stapi\AppData\Local\Temp\ccdlrCM9.s:732    .text.CoAPSerialize_MessageLength:0000000000000028 .LVL67
C:\Users\stapi\AppData\Local\Temp\ccdlrCM9.s:734    .text.CoAPSerialize_MessageLength:000000000000002a .LVL68
C:\Users\stapi\AppData\Local\Temp\ccdlrCM9.s:736    .text.CoAPSerialize_MessageLength:000000000000002e .LVL69
C:\Users\stapi\AppData\Local\Temp\ccdlrCM9.s:440    .text.CoAPSerialize_OptionsLen:0000000000000000 .LVL33
C:\Users\stapi\AppData\Local\Temp\ccdlrCM9.s:477    .text.CoAPSerialize_OptionsLen:000000000000001c .LVL35
C:\Users\stapi\AppData\Local\Temp\ccdlrCM9.s:452    .text.CoAPSerialize_OptionsLen:0000000000000008 .LVL34
C:\Users\stapi\AppData\Local\Temp\ccdlrCM9.s:587    .text.CoAPSerialize_OptionsLen:0000000000000076 .LVL47
C:\Users\stapi\AppData\Local\Temp\ccdlrCM9.s:593    .text.CoAPSerialize_OptionsLen:000000000000007c .LVL48
C:\Users\stapi\AppData\Local\Temp\ccdlrCM9.s:583    .text.CoAPSerialize_OptionsLen:0000000000000074 .LVL46
C:\Users\stapi\AppData\Local\Temp\ccdlrCM9.s:488    .text.CoAPSerialize_OptionsLen:0000000000000026 .LVL36
C:\Users\stapi\AppData\Local\Temp\ccdlrCM9.s:504    .text.CoAPSerialize_OptionsLen:0000000000000030 .LVL37
C:\Users\stapi\AppData\Local\Temp\ccdlrCM9.s:533    .text.CoAPSerialize_OptionsLen:0000000000000054 .LVL40
C:\Users\stapi\AppData\Local\Temp\ccdlrCM9.s:573    .text.CoAPSerialize_OptionsLen:0000000000000070 .LVL45
C:\Users\stapi\AppData\Local\Temp\ccdlrCM9.s:597    .text.CoAPSerialize_OptionsLen:000000000000007e .LVL49
C:\Users\stapi\AppData\Local\Temp\ccdlrCM9.s:546    .text.CoAPSerialize_OptionsLen:000000000000005e .LVL41
C:\Users\stapi\AppData\Local\Temp\ccdlrCM9.s:554    .text.CoAPSerialize_OptionsLen:0000000000000064 .LVL42
C:\Users\stapi\AppData\Local\Temp\ccdlrCM9.s:558    .text.CoAPSerialize_OptionsLen:0000000000000068 .LVL43
C:\Users\stapi\AppData\Local\Temp\ccdlrCM9.s:564    .text.CoAPSerialize_OptionsLen:000000000000006a .LVL44
C:\Users\stapi\AppData\Local\Temp\ccdlrCM9.s:608    .text.CoAPSerialize_OptionsLen:0000000000000084 .LVL50
C:\Users\stapi\AppData\Local\Temp\ccdlrCM9.s:148    .text.CoAPSerialize_Options:0000000000000000 .LVL11
C:\Users\stapi\AppData\Local\Temp\ccdlrCM9.s:195    .text.CoAPSerialize_Options:0000000000000024 .LVL13
C:\Users\stapi\AppData\Local\Temp\ccdlrCM9.s:165    .text.CoAPSerialize_Options:0000000000000008 .LVL12
C:\Users\stapi\AppData\Local\Temp\ccdlrCM9.s:353    .text.CoAPSerialize_Options:00000000000000c8 .LVL27
C:\Users\stapi\AppData\Local\Temp\ccdlrCM9.s:359    .text.CoAPSerialize_Options:00000000000000ce .LVL28
C:\Users\stapi\AppData\Local\Temp\ccdlrCM9.s:206    .text.CoAPSerialize_Options:000000000000002e .LVL14
C:\Users\stapi\AppData\Local\Temp\ccdlrCM9.s:227    .text.CoAPSerialize_Options:0000000000000038 .LVL15
C:\Users\stapi\AppData\Local\Temp\ccdlrCM9.s:249    .text.CoAPSerialize_Options:0000000000000056 .LVL18
C:\Users\stapi\AppData\Local\Temp\ccdlrCM9.s:341    .text.CoAPSerialize_Options:00000000000000c0 .LVL26
C:\Users\stapi\AppData\Local\Temp\ccdlrCM9.s:363    .text.CoAPSerialize_Options:00000000000000d0 .LVL29
C:\Users\stapi\AppData\Local\Temp\ccdlrCM9.s:253    .text.CoAPSerialize_Options:000000000000005a .LVL19
C:\Users\stapi\AppData\Local\Temp\ccdlrCM9.s:278    .text.CoAPSerialize_Options:0000000000000076 .LVL20
C:\Users\stapi\AppData\Local\Temp\ccdlrCM9.s:297    .text.CoAPSerialize_Options:000000000000008e .LVL21
C:\Users\stapi\AppData\Local\Temp\ccdlrCM9.s:329    .text.CoAPSerialize_Options:00000000000000b8 .LVL24
C:\Users\stapi\AppData\Local\Temp\ccdlrCM9.s:332    .text.CoAPSerialize_Options:00000000000000ba .LVL25
C:\Users\stapi\AppData\Local\Temp\ccdlrCM9.s:395    .text.CoAPSerialize_Options:00000000000000f4 .LVL30
C:\Users\stapi\AppData\Local\Temp\ccdlrCM9.s:410    .text.CoAPSerialize_Options:0000000000000106 .LVL31
C:\Users\stapi\AppData\Local\Temp\ccdlrCM9.s:18     .text.CoAPSerialize_Header:0000000000000000 .LVL0
C:\Users\stapi\AppData\Local\Temp\ccdlrCM9.s:61     .text.CoAPSerialize_Header:000000000000003a .LVL2
C:\Users\stapi\AppData\Local\Temp\ccdlrCM9.s:66     .text.CoAPSerialize_Header:0000000000000040 .LVL4
C:\Users\stapi\AppData\Local\Temp\ccdlrCM9.s:72     .text.CoAPSerialize_Header:0000000000000042 .LVL5
C:\Users\stapi\AppData\Local\Temp\ccdlrCM9.s:23     .text.CoAPSerialize_Header:0000000000000006 .LVL1
C:\Users\stapi\AppData\Local\Temp\ccdlrCM9.s:64     .text.CoAPSerialize_Header:000000000000003e .LVL3
C:\Users\stapi\AppData\Local\Temp\ccdlrCM9.s:86     .text.CoAPSerialize_Token:0000000000000000 .LVL6
C:\Users\stapi\AppData\Local\Temp\ccdlrCM9.s:106    .text.CoAPSerialize_Token:0000000000000010 .LVL7
C:\Users\stapi\AppData\Local\Temp\ccdlrCM9.s:109    .text.CoAPSerialize_Token:0000000000000012 .LVL8
C:\Users\stapi\AppData\Local\Temp\ccdlrCM9.s:121    .text.CoAPSerialize_Token:0000000000000020 .LVL9
C:\Users\stapi\AppData\Local\Temp\ccdlrCM9.s:125    .text.CoAPSerialize_Token:0000000000000024 .LVL10
C:\Users\stapi\AppData\Local\Temp\ccdlrCM9.s:624    .text.CoAPSerialize_Payload:0000000000000000 .LVL51
C:\Users\stapi\AppData\Local\Temp\ccdlrCM9.s:639    .text.CoAPSerialize_Payload:0000000000000014 .LVL52
C:\Users\stapi\AppData\Local\Temp\ccdlrCM9.s:677    .text.CoAPSerialize_Payload:0000000000000042 .LVL59
C:\Users\stapi\AppData\Local\Temp\ccdlrCM9.s:681    .text.CoAPSerialize_Payload:0000000000000044 .LVL60
C:\Users\stapi\AppData\Local\Temp\ccdlrCM9.s:658    .text.CoAPSerialize_Payload:0000000000000028 .LVL55
C:\Users\stapi\AppData\Local\Temp\ccdlrCM9.s:656    .text.CoAPSerialize_Payload:0000000000000026 .LVL54
C:\Users\stapi\AppData\Local\Temp\ccdlrCM9.s:651    .text.CoAPSerialize_Payload:0000000000000022 .LVL53
C:\Users\stapi\AppData\Local\Temp\ccdlrCM9.s:668    .text.CoAPSerialize_Payload:000000000000003a .LVL58
C:\Users\stapi\AppData\Local\Temp\ccdlrCM9.s:660    .text.CoAPSerialize_Payload:000000000000002c .LVL56
C:\Users\stapi\AppData\Local\Temp\ccdlrCM9.s:885    .debug_info:0000000000000000 .Ldebug_info0
C:\Users\stapi\AppData\Local\Temp\ccdlrCM9.s:98     .text.CoAPSerialize_Token:0000000000000006 .LBE8
C:\Users\stapi\AppData\Local\Temp\ccdlrCM9.s:111    .text.CoAPSerialize_Token:0000000000000012 .LBB11
C:\Users\stapi\AppData\Local\Temp\ccdlrCM9.s:136    .text.CoAPSerialize_Token:0000000000000032 .LBE11
C:\Users\stapi\AppData\Local\Temp\ccdlrCM9.s:184    .text.CoAPSerialize_Options:0000000000000018 .LBB15
C:\Users\stapi\AppData\Local\Temp\ccdlrCM9.s:199    .text.CoAPSerialize_Options:0000000000000024 .LBE15
C:\Users\stapi\AppData\Local\Temp\ccdlrCM9.s:230    .text.CoAPSerialize_Options:0000000000000038 .LBB24
C:\Users\stapi\AppData\Local\Temp\ccdlrCM9.s:350    .text.CoAPSerialize_Options:00000000000000c6 .LBE24
C:\Users\stapi\AppData\Local\Temp\ccdlrCM9.s:354    .text.CoAPSerialize_Options:00000000000000c8 .LBB25
C:\Users\stapi\AppData\Local\Temp\ccdlrCM9.s:360    .text.CoAPSerialize_Options:00000000000000ce .LBE25
C:\Users\stapi\AppData\Local\Temp\ccdlrCM9.s:365    .text.CoAPSerialize_Options:00000000000000d0 .LBB26
C:\Users\stapi\AppData\Local\Temp\ccdlrCM9.s:428    .text.CoAPSerialize_Options:0000000000000118 .LBE26
C:\Users\stapi\AppData\Local\Temp\ccdlrCM9.s:198    .text.CoAPSerialize_Options:0000000000000024 .LBE16
C:\Users\stapi\AppData\Local\Temp\ccdlrCM9.s:254    .text.CoAPSerialize_Options:000000000000005a .LBB21
C:\Users\stapi\AppData\Local\Temp\ccdlrCM9.s:334    .text.CoAPSerialize_Options:00000000000000ba .LBE21
C:\Users\stapi\AppData\Local\Temp\ccdlrCM9.s:337    .text.CoAPSerialize_Options:00000000000000bc .LBB22
C:\Users\stapi\AppData\Local\Temp\ccdlrCM9.s:343    .text.CoAPSerialize_Options:00000000000000c0 .LBE22
C:\Users\stapi\AppData\Local\Temp\ccdlrCM9.s:366    .text.CoAPSerialize_Options:00000000000000d0 .LBB23
C:\Users\stapi\AppData\Local\Temp\ccdlrCM9.s:427    .text.CoAPSerialize_Options:0000000000000118 .LBE23
C:\Users\stapi\AppData\Local\Temp\ccdlrCM9.s:470    .text.CoAPSerialize_OptionsLen:0000000000000016 .LBB30
C:\Users\stapi\AppData\Local\Temp\ccdlrCM9.s:481    .text.CoAPSerialize_OptionsLen:000000000000001c .LBE30
C:\Users\stapi\AppData\Local\Temp\ccdlrCM9.s:507    .text.CoAPSerialize_OptionsLen:0000000000000030 .LBB41
C:\Users\stapi\AppData\Local\Temp\ccdlrCM9.s:584    .text.CoAPSerialize_OptionsLen:0000000000000074 .LBE41
C:\Users\stapi\AppData\Local\Temp\ccdlrCM9.s:588    .text.CoAPSerialize_OptionsLen:0000000000000076 .LBB42
C:\Users\stapi\AppData\Local\Temp\ccdlrCM9.s:594    .text.CoAPSerialize_OptionsLen:000000000000007c .LBE42
C:\Users\stapi\AppData\Local\Temp\ccdlrCM9.s:599    .text.CoAPSerialize_OptionsLen:000000000000007e .LBB43
C:\Users\stapi\AppData\Local\Temp\ccdlrCM9.s:612    .text.CoAPSerialize_OptionsLen:0000000000000086 .LBE43
C:\Users\stapi\AppData\Local\Temp\ccdlrCM9.s:480    .text.CoAPSerialize_OptionsLen:000000000000001c .LBE31
C:\Users\stapi\AppData\Local\Temp\ccdlrCM9.s:521    .text.CoAPSerialize_OptionsLen:0000000000000046 .LBB37
C:\Users\stapi\AppData\Local\Temp\ccdlrCM9.s:526    .text.CoAPSerialize_OptionsLen:0000000000000048 .LBE37
C:\Users\stapi\AppData\Local\Temp\ccdlrCM9.s:535    .text.CoAPSerialize_OptionsLen:0000000000000054 .LBB38
C:\Users\stapi\AppData\Local\Temp\ccdlrCM9.s:566    .text.CoAPSerialize_OptionsLen:000000000000006a .LBE38
C:\Users\stapi\AppData\Local\Temp\ccdlrCM9.s:569    .text.CoAPSerialize_OptionsLen:000000000000006c .LBB39
C:\Users\stapi\AppData\Local\Temp\ccdlrCM9.s:576    .text.CoAPSerialize_OptionsLen:0000000000000070 .LBE39
C:\Users\stapi\AppData\Local\Temp\ccdlrCM9.s:600    .text.CoAPSerialize_OptionsLen:000000000000007e .LBB40
C:\Users\stapi\AppData\Local\Temp\ccdlrCM9.s:611    .text.CoAPSerialize_OptionsLen:0000000000000086 .LBE40

UNDEFINED SYMBOLS
__riscv_save_12
__riscv_restore_12
memcpy
__riscv_save_7
__riscv_restore_7
__riscv_save_1
__riscv_restore_1
__riscv_save_2
__riscv_restore_2
__riscv_save_5
__riscv_restore_5
