   1              		.file	"CoAPExport.c"
   2              		.option nopic
   3              		.attribute arch, "rv32i2p0_m2p0_a2p0_f2p0_c2p0_b_p0p94"
   4              		.attribute unaligned_access, 0
   5              		.attribute stack_align, 16
   6              		.text
   7              	.Ltext0:
   8              		.cfi_sections	.debug_frame
   9              		.section	.rodata.CoAPContext_create.str1.4,"aMS",@progbits,1
  10              		.align	2
  11              	.LC0:
  12 0000 5B657272 		.string	"[err] "
  12      5D2000
  13 0007 00       		.align	2
  14              	.LC1:
  15 0008 6D616C6C 		.string	"malloc for coap context failed"
  15      6F632066 
  15      6F722063 
  15      6F617020 
  15      636F6E74 
  16 0027 00       		.align	2
  17              	.LC2:
  18 0028 0D0A00   		.string	"\r\n"
  19 002b 00       		.align	2
  20              	.LC3:
  21 002c 53656E64 		.string	"Send List Max-Count:      %d"
  21      204C6973 
  21      74204D61 
  21      782D436F 
  21      756E743A 
  22 0049 000000   		.align	2
  23              	.LC4:
  24 004c 636F6170 		.string	"coap_local"
  24      5F6C6F63 
  24      616C00
  25 0057 00       		.align	2
  26              	.LC5:
  27 0058 4F627365 		.string	"Observe Server Max-Count: %d"
  27      72766520 
  27      53657276 
  27      6572204D 
  27      61782D43 
  28 0075 000000   		.align	2
  29              	.LC6:
  30 0078 4F627365 		.string	"Observe Client Max-Count: %d"
  30      72766520 
  30      436C6965 
  30      6E74204D 
  30      61782D43 
  31 0095 000000   		.align	2
  32              	.LC7:
  33 0098 5265736F 		.string	"Resource Max-Count:       %d"
  33      75726365 
  33      204D6178 
  33      2D436F75 
  33      6E743A20 
  34 00b5 000000   		.align	2
  35              	.LC8:
  36 00b8 4D756C74 		.string	"MultiCast Address:        %s:%d"
  36      69436173 
  36      74204164 
  36      64726573 
  36      733A2020 
  37              		.align	2
  38              	.LC9:
  39 00d8 53656E64 		.string	"Send/Recv Wait time:      %dms"
  39      2F526563 
  39      76205761 
  39      69742074 
  39      696D653A 
  40 00f7 00       		.align	2
  41              	.LC10:
  42 00f8 6E6F7420 		.string	"not enough memory"
  42      656E6F75 
  42      6768206D 
  42      656D6F72 
  42      7900
  43 010a 0000     		.align	2
  44              	.LC11:
  45 010c 4D757465 		.string	"Mutex Create failed"
  45      78204372 
  45      65617465 
  45      20666169 
  45      6C656400 
  46              		.align	2
  47              	.LC12:
  48 0120 436F4150 		.string	"CoAP Network init failed, exit"
  48      204E6574 
  48      776F726B 
  48      20696E69 
  48      74206661 
  49              		.section	.text.CoAPContext_create,"ax",@progbits
  50              		.align	1
  51              		.globl	CoAPContext_create
  53              	CoAPContext_create:
  54              	.LFB20:
  55              		.file 1 "C:/Users/stapi/OneDrive/Desktop/GD32VW553/V1_MQTT_OK/GD32VW55X_Wifi_BLE_SDK/GD32VW55x_REL
   1:C:/Users/stapi/OneDrive/Desktop/GD32VW553/V1_MQTT_OK/GD32VW55X_Wifi_BLE_SDK/GD32VW55x_RELEASE_V1.0.2/MSDK/cloud/alicloud/src/protocol/coap/local\CoAPExport.c **** /*
   2:C:/Users/stapi/OneDrive/Desktop/GD32VW553/V1_MQTT_OK/GD32VW55X_Wifi_BLE_SDK/GD32VW55x_RELEASE_V1.0.2/MSDK/cloud/alicloud/src/protocol/coap/local\CoAPExport.c ****  * Copyright (C) 2015-2018 Alibaba Group Holding Limited
   3:C:/Users/stapi/OneDrive/Desktop/GD32VW553/V1_MQTT_OK/GD32VW55X_Wifi_BLE_SDK/GD32VW55x_RELEASE_V1.0.2/MSDK/cloud/alicloud/src/protocol/coap/local\CoAPExport.c ****  */
   4:C:/Users/stapi/OneDrive/Desktop/GD32VW553/V1_MQTT_OK/GD32VW55X_Wifi_BLE_SDK/GD32VW55x_RELEASE_V1.0.2/MSDK/cloud/alicloud/src/protocol/coap/local\CoAPExport.c **** 
   5:C:/Users/stapi/OneDrive/Desktop/GD32VW553/V1_MQTT_OK/GD32VW55X_Wifi_BLE_SDK/GD32VW55x_RELEASE_V1.0.2/MSDK/cloud/alicloud/src/protocol/coap/local\CoAPExport.c **** 
   6:C:/Users/stapi/OneDrive/Desktop/GD32VW553/V1_MQTT_OK/GD32VW55X_Wifi_BLE_SDK/GD32VW55x_RELEASE_V1.0.2/MSDK/cloud/alicloud/src/protocol/coap/local\CoAPExport.c **** 
   7:C:/Users/stapi/OneDrive/Desktop/GD32VW553/V1_MQTT_OK/GD32VW55X_Wifi_BLE_SDK/GD32VW55x_RELEASE_V1.0.2/MSDK/cloud/alicloud/src/protocol/coap/local\CoAPExport.c **** 
   8:C:/Users/stapi/OneDrive/Desktop/GD32VW553/V1_MQTT_OK/GD32VW55X_Wifi_BLE_SDK/GD32VW55x_RELEASE_V1.0.2/MSDK/cloud/alicloud/src/protocol/coap/local\CoAPExport.c **** #include <stdio.h>
   9:C:/Users/stapi/OneDrive/Desktop/GD32VW553/V1_MQTT_OK/GD32VW55X_Wifi_BLE_SDK/GD32VW55x_RELEASE_V1.0.2/MSDK/cloud/alicloud/src/protocol/coap/local\CoAPExport.c **** #include <stdlib.h>
  10:C:/Users/stapi/OneDrive/Desktop/GD32VW553/V1_MQTT_OK/GD32VW55X_Wifi_BLE_SDK/GD32VW55x_RELEASE_V1.0.2/MSDK/cloud/alicloud/src/protocol/coap/local\CoAPExport.c **** #include <string.h>
  11:C:/Users/stapi/OneDrive/Desktop/GD32VW553/V1_MQTT_OK/GD32VW55X_Wifi_BLE_SDK/GD32VW55x_RELEASE_V1.0.2/MSDK/cloud/alicloud/src/protocol/coap/local\CoAPExport.c **** #include "ctype.h"
  12:C:/Users/stapi/OneDrive/Desktop/GD32VW553/V1_MQTT_OK/GD32VW55X_Wifi_BLE_SDK/GD32VW55x_RELEASE_V1.0.2/MSDK/cloud/alicloud/src/protocol/coap/local\CoAPExport.c **** #include "iot_import.h"
  13:C:/Users/stapi/OneDrive/Desktop/GD32VW553/V1_MQTT_OK/GD32VW55X_Wifi_BLE_SDK/GD32VW55x_RELEASE_V1.0.2/MSDK/cloud/alicloud/src/protocol/coap/local\CoAPExport.c **** #include "CoAPPlatform.h"
  14:C:/Users/stapi/OneDrive/Desktop/GD32VW553/V1_MQTT_OK/GD32VW55X_Wifi_BLE_SDK/GD32VW55x_RELEASE_V1.0.2/MSDK/cloud/alicloud/src/protocol/coap/local\CoAPExport.c **** #include "CoAPInternal.h"
  15:C:/Users/stapi/OneDrive/Desktop/GD32VW553/V1_MQTT_OK/GD32VW55X_Wifi_BLE_SDK/GD32VW55x_RELEASE_V1.0.2/MSDK/cloud/alicloud/src/protocol/coap/local\CoAPExport.c **** #include "CoAPNetwork.h"
  16:C:/Users/stapi/OneDrive/Desktop/GD32VW553/V1_MQTT_OK/GD32VW55X_Wifi_BLE_SDK/GD32VW55x_RELEASE_V1.0.2/MSDK/cloud/alicloud/src/protocol/coap/local\CoAPExport.c **** #include "CoAPExport.h"
  17:C:/Users/stapi/OneDrive/Desktop/GD32VW553/V1_MQTT_OK/GD32VW55X_Wifi_BLE_SDK/GD32VW55x_RELEASE_V1.0.2/MSDK/cloud/alicloud/src/protocol/coap/local\CoAPExport.c **** #include "CoAPObserve.h"
  18:C:/Users/stapi/OneDrive/Desktop/GD32VW553/V1_MQTT_OK/GD32VW55X_Wifi_BLE_SDK/GD32VW55x_RELEASE_V1.0.2/MSDK/cloud/alicloud/src/protocol/coap/local\CoAPExport.c **** 
  19:C:/Users/stapi/OneDrive/Desktop/GD32VW553/V1_MQTT_OK/GD32VW55X_Wifi_BLE_SDK/GD32VW55x_RELEASE_V1.0.2/MSDK/cloud/alicloud/src/protocol/coap/local\CoAPExport.c **** #define COAP_DEFAULT_PORT           5683 /* CoAP default UDP port */
  20:C:/Users/stapi/OneDrive/Desktop/GD32VW553/V1_MQTT_OK/GD32VW55X_Wifi_BLE_SDK/GD32VW55x_RELEASE_V1.0.2/MSDK/cloud/alicloud/src/protocol/coap/local\CoAPExport.c **** #define COAPS_DEFAULT_PORT          5684 /* CoAP default UDP port for secure transmission */
  21:C:/Users/stapi/OneDrive/Desktop/GD32VW553/V1_MQTT_OK/GD32VW55X_Wifi_BLE_SDK/GD32VW55x_RELEASE_V1.0.2/MSDK/cloud/alicloud/src/protocol/coap/local\CoAPExport.c **** #define COAP_DEFAULT_SENDLIST_MAXCOUNT  8
  22:C:/Users/stapi/OneDrive/Desktop/GD32VW553/V1_MQTT_OK/GD32VW55X_Wifi_BLE_SDK/GD32VW55x_RELEASE_V1.0.2/MSDK/cloud/alicloud/src/protocol/coap/local\CoAPExport.c **** #define COAP_DEFAULT_RES_MAXCOUNT       8
  23:C:/Users/stapi/OneDrive/Desktop/GD32VW553/V1_MQTT_OK/GD32VW55X_Wifi_BLE_SDK/GD32VW55x_RELEASE_V1.0.2/MSDK/cloud/alicloud/src/protocol/coap/local\CoAPExport.c **** #define COAP_DEFAULT_OBS_MAXCOUNT       8
  24:C:/Users/stapi/OneDrive/Desktop/GD32VW553/V1_MQTT_OK/GD32VW55X_Wifi_BLE_SDK/GD32VW55x_RELEASE_V1.0.2/MSDK/cloud/alicloud/src/protocol/coap/local\CoAPExport.c **** 
  25:C:/Users/stapi/OneDrive/Desktop/GD32VW553/V1_MQTT_OK/GD32VW55X_Wifi_BLE_SDK/GD32VW55x_RELEASE_V1.0.2/MSDK/cloud/alicloud/src/protocol/coap/local\CoAPExport.c **** #define COAP_DEFAULT_SCHEME         "coap" /* the default scheme for CoAP URIs */
  26:C:/Users/stapi/OneDrive/Desktop/GD32VW553/V1_MQTT_OK/GD32VW55X_Wifi_BLE_SDK/GD32VW55x_RELEASE_V1.0.2/MSDK/cloud/alicloud/src/protocol/coap/local\CoAPExport.c **** #define COAP_DEFAULT_HOST_LEN       128
  27:C:/Users/stapi/OneDrive/Desktop/GD32VW553/V1_MQTT_OK/GD32VW55X_Wifi_BLE_SDK/GD32VW55x_RELEASE_V1.0.2/MSDK/cloud/alicloud/src/protocol/coap/local\CoAPExport.c **** #define COAP_DEFAULT_WAIT_TIME_MS   2000
  28:C:/Users/stapi/OneDrive/Desktop/GD32VW553/V1_MQTT_OK/GD32VW55X_Wifi_BLE_SDK/GD32VW55x_RELEASE_V1.0.2/MSDK/cloud/alicloud/src/protocol/coap/local\CoAPExport.c **** 
  29:C:/Users/stapi/OneDrive/Desktop/GD32VW553/V1_MQTT_OK/GD32VW55X_Wifi_BLE_SDK/GD32VW55x_RELEASE_V1.0.2/MSDK/cloud/alicloud/src/protocol/coap/local\CoAPExport.c **** 
  30:C:/Users/stapi/OneDrive/Desktop/GD32VW553/V1_MQTT_OK/GD32VW55X_Wifi_BLE_SDK/GD32VW55x_RELEASE_V1.0.2/MSDK/cloud/alicloud/src/protocol/coap/local\CoAPExport.c **** CoAPContext *CoAPContext_create(CoAPInitParam *param)
  31:C:/Users/stapi/OneDrive/Desktop/GD32VW553/V1_MQTT_OK/GD32VW55X_Wifi_BLE_SDK/GD32VW55x_RELEASE_V1.0.2/MSDK/cloud/alicloud/src/protocol/coap/local\CoAPExport.c **** {
  56              		.loc 1 31 1
  57              		.cfi_startproc
  58              	.LVL0:
  59 0000 17030000 		call	t0,__riscv_save_4
  59      E7020300 
  60              		.cfi_offset 19, -20
  61              		.cfi_offset 18, -16
  62              		.cfi_offset 9, -12
  63              		.cfi_offset 8, -8
  64              		.cfi_offset 1, -4
  65              		.cfi_def_cfa_offset 32
  32:C:/Users/stapi/OneDrive/Desktop/GD32VW553/V1_MQTT_OK/GD32VW55X_Wifi_BLE_SDK/GD32VW55x_RELEASE_V1.0.2/MSDK/cloud/alicloud/src/protocol/coap/local\CoAPExport.c ****     CoAPIntContext    *p_ctx = NULL;
  66              		.loc 1 32 5
  67              	.LVL1:
  33:C:/Users/stapi/OneDrive/Desktop/GD32VW553/V1_MQTT_OK/GD32VW55X_Wifi_BLE_SDK/GD32VW55x_RELEASE_V1.0.2/MSDK/cloud/alicloud/src/protocol/coap/local\CoAPExport.c ****     NetworkInit    network_param;
  68              		.loc 1 33 5
  34:C:/Users/stapi/OneDrive/Desktop/GD32VW553/V1_MQTT_OK/GD32VW55X_Wifi_BLE_SDK/GD32VW55x_RELEASE_V1.0.2/MSDK/cloud/alicloud/src/protocol/coap/local\CoAPExport.c **** 
  35:C:/Users/stapi/OneDrive/Desktop/GD32VW553/V1_MQTT_OK/GD32VW55X_Wifi_BLE_SDK/GD32VW55x_RELEASE_V1.0.2/MSDK/cloud/alicloud/src/protocol/coap/local\CoAPExport.c ****     memset(&network_param, 0x00, sizeof(NetworkInit));
  69              		.loc 1 35 5
  31:C:/Users/stapi/OneDrive/Desktop/GD32VW553/V1_MQTT_OK/GD32VW55X_Wifi_BLE_SDK/GD32VW55x_RELEASE_V1.0.2/MSDK/cloud/alicloud/src/protocol/coap/local\CoAPExport.c ****     CoAPIntContext    *p_ctx = NULL;
  70              		.loc 1 31 1 is_stmt 0
  71 0008 4111     		addi	sp,sp,-16
  72              		.cfi_def_cfa_offset 48
  31:C:/Users/stapi/OneDrive/Desktop/GD32VW553/V1_MQTT_OK/GD32VW55X_Wifi_BLE_SDK/GD32VW55x_RELEASE_V1.0.2/MSDK/cloud/alicloud/src/protocol/coap/local\CoAPExport.c ****     CoAPIntContext    *p_ctx = NULL;
  73              		.loc 1 31 1
  74 000a AA84     		mv	s1,a0
  36:C:/Users/stapi/OneDrive/Desktop/GD32VW553/V1_MQTT_OK/GD32VW55X_Wifi_BLE_SDK/GD32VW55x_RELEASE_V1.0.2/MSDK/cloud/alicloud/src/protocol/coap/local\CoAPExport.c ****     p_ctx = coap_malloc(sizeof(CoAPIntContext));
  75              		.loc 1 36 13
  76 000c 13060006 		li	a2,96
  77 0010 8145     		li	a1,0
  78 0012 0145     		li	a0,0
  79              	.LVL2:
  35:C:/Users/stapi/OneDrive/Desktop/GD32VW553/V1_MQTT_OK/GD32VW55X_Wifi_BLE_SDK/GD32VW55x_RELEASE_V1.0.2/MSDK/cloud/alicloud/src/protocol/coap/local\CoAPExport.c ****     p_ctx = coap_malloc(sizeof(CoAPIntContext));
  80              		.loc 1 35 5
  81 0014 02C2     		sw	zero,4(sp)
  82 0016 02C4     		sw	zero,8(sp)
  83 0018 02C6     		sw	zero,12(sp)
  84              		.loc 1 36 5 is_stmt 1
  85              		.loc 1 36 13 is_stmt 0
  86 001a 97000000 		call	LITE_malloc_internal
  86      E7800000 
  87              	.LVL3:
  88 0022 2A84     		mv	s0,a0
  89              	.LVL4:
  37:C:/Users/stapi/OneDrive/Desktop/GD32VW553/V1_MQTT_OK/GD32VW55X_Wifi_BLE_SDK/GD32VW55x_RELEASE_V1.0.2/MSDK/cloud/alicloud/src/protocol/coap/local\CoAPExport.c ****     if (NULL == p_ctx) {
  90              		.loc 1 37 5 is_stmt 1
  91              		.loc 1 37 8 is_stmt 0
  92 0024 1DED     		bne	a0,zero,.L2
  38:C:/Users/stapi/OneDrive/Desktop/GD32VW553/V1_MQTT_OK/GD32VW55X_Wifi_BLE_SDK/GD32VW55x_RELEASE_V1.0.2/MSDK/cloud/alicloud/src/protocol/coap/local\CoAPExport.c ****         COAP_ERR("malloc for coap context failed");
  93              		.loc 1 38 9 is_stmt 1
  94              		.loc 1 38 9
  95 0026 37050000 		lui	a0,%hi(.LC0)
  96 002a 13050500 		addi	a0,a0,%lo(.LC0)
  97 002e 97000000 		call	HAL_Printf
  97      E7800000 
  98              	.LVL5:
  99              		.loc 1 38 9
 100 0036 37050000 		lui	a0,%hi(.LC1)
 101 003a 13050500 		addi	a0,a0,%lo(.LC1)
 102 003e 97000000 		call	HAL_Printf
 102      E7800000 
 103              	.LVL6:
 104              		.loc 1 38 9
 105 0046 37050000 		lui	a0,%hi(.LC2)
 106 004a 13050500 		addi	a0,a0,%lo(.LC2)
 107 004e 97000000 		call	HAL_Printf
 107      E7800000 
 108              	.LVL7:
 109              		.loc 1 38 9
  39:C:/Users/stapi/OneDrive/Desktop/GD32VW553/V1_MQTT_OK/GD32VW55X_Wifi_BLE_SDK/GD32VW55x_RELEASE_V1.0.2/MSDK/cloud/alicloud/src/protocol/coap/local\CoAPExport.c ****         goto err;
 110              		.loc 1 39 9
  40:C:/Users/stapi/OneDrive/Desktop/GD32VW553/V1_MQTT_OK/GD32VW55X_Wifi_BLE_SDK/GD32VW55x_RELEASE_V1.0.2/MSDK/cloud/alicloud/src/protocol/coap/local\CoAPExport.c ****     }
  41:C:/Users/stapi/OneDrive/Desktop/GD32VW553/V1_MQTT_OK/GD32VW55X_Wifi_BLE_SDK/GD32VW55x_RELEASE_V1.0.2/MSDK/cloud/alicloud/src/protocol/coap/local\CoAPExport.c ****     COAP_DEBUG("Send List Max-Count:      %d", param->send_maxcount);
  42:C:/Users/stapi/OneDrive/Desktop/GD32VW553/V1_MQTT_OK/GD32VW55X_Wifi_BLE_SDK/GD32VW55x_RELEASE_V1.0.2/MSDK/cloud/alicloud/src/protocol/coap/local\CoAPExport.c ****     COAP_DEBUG("Observe Server Max-Count: %d", param->obs_maxcount);
  43:C:/Users/stapi/OneDrive/Desktop/GD32VW553/V1_MQTT_OK/GD32VW55X_Wifi_BLE_SDK/GD32VW55x_RELEASE_V1.0.2/MSDK/cloud/alicloud/src/protocol/coap/local\CoAPExport.c ****     COAP_DEBUG("Observe Client Max-Count: %d", param->obs_maxcount);
  44:C:/Users/stapi/OneDrive/Desktop/GD32VW553/V1_MQTT_OK/GD32VW55X_Wifi_BLE_SDK/GD32VW55x_RELEASE_V1.0.2/MSDK/cloud/alicloud/src/protocol/coap/local\CoAPExport.c ****     COAP_DEBUG("Resource Max-Count:       %d", param->res_maxcount);
  45:C:/Users/stapi/OneDrive/Desktop/GD32VW553/V1_MQTT_OK/GD32VW55X_Wifi_BLE_SDK/GD32VW55x_RELEASE_V1.0.2/MSDK/cloud/alicloud/src/protocol/coap/local\CoAPExport.c ****     COAP_DEBUG("MultiCast Address:        %s:%d", param->group, param->port);
  46:C:/Users/stapi/OneDrive/Desktop/GD32VW553/V1_MQTT_OK/GD32VW55X_Wifi_BLE_SDK/GD32VW55x_RELEASE_V1.0.2/MSDK/cloud/alicloud/src/protocol/coap/local\CoAPExport.c ****     COAP_DEBUG("Send/Recv Wait time:      %dms", param->waittime);
  47:C:/Users/stapi/OneDrive/Desktop/GD32VW553/V1_MQTT_OK/GD32VW55X_Wifi_BLE_SDK/GD32VW55x_RELEASE_V1.0.2/MSDK/cloud/alicloud/src/protocol/coap/local\CoAPExport.c **** 
  48:C:/Users/stapi/OneDrive/Desktop/GD32VW553/V1_MQTT_OK/GD32VW55X_Wifi_BLE_SDK/GD32VW55x_RELEASE_V1.0.2/MSDK/cloud/alicloud/src/protocol/coap/local\CoAPExport.c ****     memset(p_ctx, 0, sizeof(CoAPIntContext));
  49:C:/Users/stapi/OneDrive/Desktop/GD32VW553/V1_MQTT_OK/GD32VW55X_Wifi_BLE_SDK/GD32VW55x_RELEASE_V1.0.2/MSDK/cloud/alicloud/src/protocol/coap/local\CoAPExport.c ****     p_ctx->message_id = 1;
  50:C:/Users/stapi/OneDrive/Desktop/GD32VW553/V1_MQTT_OK/GD32VW55X_Wifi_BLE_SDK/GD32VW55x_RELEASE_V1.0.2/MSDK/cloud/alicloud/src/protocol/coap/local\CoAPExport.c ****     p_ctx->notifier = param->notifier;
  51:C:/Users/stapi/OneDrive/Desktop/GD32VW553/V1_MQTT_OK/GD32VW55X_Wifi_BLE_SDK/GD32VW55x_RELEASE_V1.0.2/MSDK/cloud/alicloud/src/protocol/coap/local\CoAPExport.c ****     p_ctx->appdata = param->appdata;
  52:C:/Users/stapi/OneDrive/Desktop/GD32VW553/V1_MQTT_OK/GD32VW55X_Wifi_BLE_SDK/GD32VW55x_RELEASE_V1.0.2/MSDK/cloud/alicloud/src/protocol/coap/local\CoAPExport.c **** 
  53:C:/Users/stapi/OneDrive/Desktop/GD32VW553/V1_MQTT_OK/GD32VW55X_Wifi_BLE_SDK/GD32VW55x_RELEASE_V1.0.2/MSDK/cloud/alicloud/src/protocol/coap/local\CoAPExport.c **** #ifdef USE_SENDBUFF
  54:C:/Users/stapi/OneDrive/Desktop/GD32VW553/V1_MQTT_OK/GD32VW55X_Wifi_BLE_SDK/GD32VW55x_RELEASE_V1.0.2/MSDK/cloud/alicloud/src/protocol/coap/local\CoAPExport.c ****     p_ctx->sendbuf = coap_malloc(COAP_MSG_MAX_PDU_LEN);
  55:C:/Users/stapi/OneDrive/Desktop/GD32VW553/V1_MQTT_OK/GD32VW55X_Wifi_BLE_SDK/GD32VW55x_RELEASE_V1.0.2/MSDK/cloud/alicloud/src/protocol/coap/local\CoAPExport.c ****     if (NULL == p_ctx->sendbuf) {
  56:C:/Users/stapi/OneDrive/Desktop/GD32VW553/V1_MQTT_OK/GD32VW55X_Wifi_BLE_SDK/GD32VW55x_RELEASE_V1.0.2/MSDK/cloud/alicloud/src/protocol/coap/local\CoAPExport.c ****         COAP_ERR("not enough memory");
  57:C:/Users/stapi/OneDrive/Desktop/GD32VW553/V1_MQTT_OK/GD32VW55X_Wifi_BLE_SDK/GD32VW55x_RELEASE_V1.0.2/MSDK/cloud/alicloud/src/protocol/coap/local\CoAPExport.c ****         goto err;
  58:C:/Users/stapi/OneDrive/Desktop/GD32VW553/V1_MQTT_OK/GD32VW55X_Wifi_BLE_SDK/GD32VW55x_RELEASE_V1.0.2/MSDK/cloud/alicloud/src/protocol/coap/local\CoAPExport.c ****     }
  59:C:/Users/stapi/OneDrive/Desktop/GD32VW553/V1_MQTT_OK/GD32VW55X_Wifi_BLE_SDK/GD32VW55x_RELEASE_V1.0.2/MSDK/cloud/alicloud/src/protocol/coap/local\CoAPExport.c ****     memset(p_ctx->sendbuf, 0x00, COAP_MSG_MAX_PDU_LEN);
  60:C:/Users/stapi/OneDrive/Desktop/GD32VW553/V1_MQTT_OK/GD32VW55X_Wifi_BLE_SDK/GD32VW55x_RELEASE_V1.0.2/MSDK/cloud/alicloud/src/protocol/coap/local\CoAPExport.c **** #endif
  61:C:/Users/stapi/OneDrive/Desktop/GD32VW553/V1_MQTT_OK/GD32VW55X_Wifi_BLE_SDK/GD32VW55x_RELEASE_V1.0.2/MSDK/cloud/alicloud/src/protocol/coap/local\CoAPExport.c **** 
  62:C:/Users/stapi/OneDrive/Desktop/GD32VW553/V1_MQTT_OK/GD32VW55X_Wifi_BLE_SDK/GD32VW55x_RELEASE_V1.0.2/MSDK/cloud/alicloud/src/protocol/coap/local\CoAPExport.c ****     p_ctx->recvbuf = coap_malloc(COAP_MSG_MAX_PDU_LEN);
  63:C:/Users/stapi/OneDrive/Desktop/GD32VW553/V1_MQTT_OK/GD32VW55X_Wifi_BLE_SDK/GD32VW55x_RELEASE_V1.0.2/MSDK/cloud/alicloud/src/protocol/coap/local\CoAPExport.c ****     if (NULL == p_ctx->recvbuf) {
  64:C:/Users/stapi/OneDrive/Desktop/GD32VW553/V1_MQTT_OK/GD32VW55X_Wifi_BLE_SDK/GD32VW55x_RELEASE_V1.0.2/MSDK/cloud/alicloud/src/protocol/coap/local\CoAPExport.c ****         COAP_ERR("not enough memory");
  65:C:/Users/stapi/OneDrive/Desktop/GD32VW553/V1_MQTT_OK/GD32VW55X_Wifi_BLE_SDK/GD32VW55x_RELEASE_V1.0.2/MSDK/cloud/alicloud/src/protocol/coap/local\CoAPExport.c ****         goto err;
  66:C:/Users/stapi/OneDrive/Desktop/GD32VW553/V1_MQTT_OK/GD32VW55X_Wifi_BLE_SDK/GD32VW55x_RELEASE_V1.0.2/MSDK/cloud/alicloud/src/protocol/coap/local\CoAPExport.c ****     }
  67:C:/Users/stapi/OneDrive/Desktop/GD32VW553/V1_MQTT_OK/GD32VW55X_Wifi_BLE_SDK/GD32VW55x_RELEASE_V1.0.2/MSDK/cloud/alicloud/src/protocol/coap/local\CoAPExport.c ****     memset(p_ctx->recvbuf, 0x00, COAP_MSG_MAX_PDU_LEN);
  68:C:/Users/stapi/OneDrive/Desktop/GD32VW553/V1_MQTT_OK/GD32VW55X_Wifi_BLE_SDK/GD32VW55x_RELEASE_V1.0.2/MSDK/cloud/alicloud/src/protocol/coap/local\CoAPExport.c **** 
  69:C:/Users/stapi/OneDrive/Desktop/GD32VW553/V1_MQTT_OK/GD32VW55X_Wifi_BLE_SDK/GD32VW55x_RELEASE_V1.0.2/MSDK/cloud/alicloud/src/protocol/coap/local\CoAPExport.c ****     if (0 == param->waittime) {
  70:C:/Users/stapi/OneDrive/Desktop/GD32VW553/V1_MQTT_OK/GD32VW55X_Wifi_BLE_SDK/GD32VW55x_RELEASE_V1.0.2/MSDK/cloud/alicloud/src/protocol/coap/local\CoAPExport.c ****         p_ctx->waittime = COAP_DEFAULT_WAIT_TIME_MS;
  71:C:/Users/stapi/OneDrive/Desktop/GD32VW553/V1_MQTT_OK/GD32VW55X_Wifi_BLE_SDK/GD32VW55x_RELEASE_V1.0.2/MSDK/cloud/alicloud/src/protocol/coap/local\CoAPExport.c ****     } else {
  72:C:/Users/stapi/OneDrive/Desktop/GD32VW553/V1_MQTT_OK/GD32VW55X_Wifi_BLE_SDK/GD32VW55x_RELEASE_V1.0.2/MSDK/cloud/alicloud/src/protocol/coap/local\CoAPExport.c ****         p_ctx->waittime = param->waittime;
  73:C:/Users/stapi/OneDrive/Desktop/GD32VW553/V1_MQTT_OK/GD32VW55X_Wifi_BLE_SDK/GD32VW55x_RELEASE_V1.0.2/MSDK/cloud/alicloud/src/protocol/coap/local\CoAPExport.c ****     }
  74:C:/Users/stapi/OneDrive/Desktop/GD32VW553/V1_MQTT_OK/GD32VW55X_Wifi_BLE_SDK/GD32VW55x_RELEASE_V1.0.2/MSDK/cloud/alicloud/src/protocol/coap/local\CoAPExport.c ****     p_ctx->mutex = HAL_MutexCreate();
  75:C:/Users/stapi/OneDrive/Desktop/GD32VW553/V1_MQTT_OK/GD32VW55X_Wifi_BLE_SDK/GD32VW55x_RELEASE_V1.0.2/MSDK/cloud/alicloud/src/protocol/coap/local\CoAPExport.c ****     if (NULL == p_ctx->mutex) {
  76:C:/Users/stapi/OneDrive/Desktop/GD32VW553/V1_MQTT_OK/GD32VW55X_Wifi_BLE_SDK/GD32VW55x_RELEASE_V1.0.2/MSDK/cloud/alicloud/src/protocol/coap/local\CoAPExport.c ****         COAP_ERR("Mutex Create failed");
  77:C:/Users/stapi/OneDrive/Desktop/GD32VW553/V1_MQTT_OK/GD32VW55X_Wifi_BLE_SDK/GD32VW55x_RELEASE_V1.0.2/MSDK/cloud/alicloud/src/protocol/coap/local\CoAPExport.c ****         goto err;
  78:C:/Users/stapi/OneDrive/Desktop/GD32VW553/V1_MQTT_OK/GD32VW55X_Wifi_BLE_SDK/GD32VW55x_RELEASE_V1.0.2/MSDK/cloud/alicloud/src/protocol/coap/local\CoAPExport.c ****     }
  79:C:/Users/stapi/OneDrive/Desktop/GD32VW553/V1_MQTT_OK/GD32VW55X_Wifi_BLE_SDK/GD32VW55x_RELEASE_V1.0.2/MSDK/cloud/alicloud/src/protocol/coap/local\CoAPExport.c **** 
  80:C:/Users/stapi/OneDrive/Desktop/GD32VW553/V1_MQTT_OK/GD32VW55X_Wifi_BLE_SDK/GD32VW55x_RELEASE_V1.0.2/MSDK/cloud/alicloud/src/protocol/coap/local\CoAPExport.c ****     /*Init message send list mutex*/
  81:C:/Users/stapi/OneDrive/Desktop/GD32VW553/V1_MQTT_OK/GD32VW55X_Wifi_BLE_SDK/GD32VW55x_RELEASE_V1.0.2/MSDK/cloud/alicloud/src/protocol/coap/local\CoAPExport.c ****     p_ctx->sendlist.list_mutex = HAL_MutexCreate();
  82:C:/Users/stapi/OneDrive/Desktop/GD32VW553/V1_MQTT_OK/GD32VW55X_Wifi_BLE_SDK/GD32VW55x_RELEASE_V1.0.2/MSDK/cloud/alicloud/src/protocol/coap/local\CoAPExport.c ****     HAL_MutexLock(p_ctx->sendlist.list_mutex);
  83:C:/Users/stapi/OneDrive/Desktop/GD32VW553/V1_MQTT_OK/GD32VW55X_Wifi_BLE_SDK/GD32VW55x_RELEASE_V1.0.2/MSDK/cloud/alicloud/src/protocol/coap/local\CoAPExport.c ****     /*CoAP message send list*/
  84:C:/Users/stapi/OneDrive/Desktop/GD32VW553/V1_MQTT_OK/GD32VW55X_Wifi_BLE_SDK/GD32VW55x_RELEASE_V1.0.2/MSDK/cloud/alicloud/src/protocol/coap/local\CoAPExport.c ****     INIT_LIST_HEAD(&p_ctx->sendlist.list);
  85:C:/Users/stapi/OneDrive/Desktop/GD32VW553/V1_MQTT_OK/GD32VW55X_Wifi_BLE_SDK/GD32VW55x_RELEASE_V1.0.2/MSDK/cloud/alicloud/src/protocol/coap/local\CoAPExport.c ****     p_ctx->sendlist.count = 0;
  86:C:/Users/stapi/OneDrive/Desktop/GD32VW553/V1_MQTT_OK/GD32VW55X_Wifi_BLE_SDK/GD32VW55x_RELEASE_V1.0.2/MSDK/cloud/alicloud/src/protocol/coap/local\CoAPExport.c ****     HAL_MutexUnlock(p_ctx->sendlist.list_mutex);
  87:C:/Users/stapi/OneDrive/Desktop/GD32VW553/V1_MQTT_OK/GD32VW55X_Wifi_BLE_SDK/GD32VW55x_RELEASE_V1.0.2/MSDK/cloud/alicloud/src/protocol/coap/local\CoAPExport.c **** 
  88:C:/Users/stapi/OneDrive/Desktop/GD32VW553/V1_MQTT_OK/GD32VW55X_Wifi_BLE_SDK/GD32VW55x_RELEASE_V1.0.2/MSDK/cloud/alicloud/src/protocol/coap/local\CoAPExport.c ****     if (0 != param->send_maxcount) {
  89:C:/Users/stapi/OneDrive/Desktop/GD32VW553/V1_MQTT_OK/GD32VW55X_Wifi_BLE_SDK/GD32VW55x_RELEASE_V1.0.2/MSDK/cloud/alicloud/src/protocol/coap/local\CoAPExport.c ****         p_ctx->sendlist.maxcount = param->send_maxcount;
  90:C:/Users/stapi/OneDrive/Desktop/GD32VW553/V1_MQTT_OK/GD32VW55X_Wifi_BLE_SDK/GD32VW55x_RELEASE_V1.0.2/MSDK/cloud/alicloud/src/protocol/coap/local\CoAPExport.c ****     } else {
  91:C:/Users/stapi/OneDrive/Desktop/GD32VW553/V1_MQTT_OK/GD32VW55X_Wifi_BLE_SDK/GD32VW55x_RELEASE_V1.0.2/MSDK/cloud/alicloud/src/protocol/coap/local\CoAPExport.c ****         p_ctx->sendlist.maxcount = COAP_DEFAULT_SENDLIST_MAXCOUNT;
  92:C:/Users/stapi/OneDrive/Desktop/GD32VW553/V1_MQTT_OK/GD32VW55X_Wifi_BLE_SDK/GD32VW55x_RELEASE_V1.0.2/MSDK/cloud/alicloud/src/protocol/coap/local\CoAPExport.c ****     }
  93:C:/Users/stapi/OneDrive/Desktop/GD32VW553/V1_MQTT_OK/GD32VW55X_Wifi_BLE_SDK/GD32VW55x_RELEASE_V1.0.2/MSDK/cloud/alicloud/src/protocol/coap/local\CoAPExport.c **** 
  94:C:/Users/stapi/OneDrive/Desktop/GD32VW553/V1_MQTT_OK/GD32VW55X_Wifi_BLE_SDK/GD32VW55x_RELEASE_V1.0.2/MSDK/cloud/alicloud/src/protocol/coap/local\CoAPExport.c ****     if (0 == param->res_maxcount) {
  95:C:/Users/stapi/OneDrive/Desktop/GD32VW553/V1_MQTT_OK/GD32VW55X_Wifi_BLE_SDK/GD32VW55x_RELEASE_V1.0.2/MSDK/cloud/alicloud/src/protocol/coap/local\CoAPExport.c ****         param->res_maxcount = COAP_DEFAULT_RES_MAXCOUNT;
  96:C:/Users/stapi/OneDrive/Desktop/GD32VW553/V1_MQTT_OK/GD32VW55X_Wifi_BLE_SDK/GD32VW55x_RELEASE_V1.0.2/MSDK/cloud/alicloud/src/protocol/coap/local\CoAPExport.c ****     }
  97:C:/Users/stapi/OneDrive/Desktop/GD32VW553/V1_MQTT_OK/GD32VW55X_Wifi_BLE_SDK/GD32VW55x_RELEASE_V1.0.2/MSDK/cloud/alicloud/src/protocol/coap/local\CoAPExport.c ****     CoAPResource_init(p_ctx, param->res_maxcount);
  98:C:/Users/stapi/OneDrive/Desktop/GD32VW553/V1_MQTT_OK/GD32VW55X_Wifi_BLE_SDK/GD32VW55x_RELEASE_V1.0.2/MSDK/cloud/alicloud/src/protocol/coap/local\CoAPExport.c **** 
  99:C:/Users/stapi/OneDrive/Desktop/GD32VW553/V1_MQTT_OK/GD32VW55X_Wifi_BLE_SDK/GD32VW55x_RELEASE_V1.0.2/MSDK/cloud/alicloud/src/protocol/coap/local\CoAPExport.c **** #ifndef COAP_OBSERVE_SERVER_DISABLE
 100:C:/Users/stapi/OneDrive/Desktop/GD32VW553/V1_MQTT_OK/GD32VW55X_Wifi_BLE_SDK/GD32VW55x_RELEASE_V1.0.2/MSDK/cloud/alicloud/src/protocol/coap/local\CoAPExport.c ****     if (0 == param->obs_maxcount) {
 101:C:/Users/stapi/OneDrive/Desktop/GD32VW553/V1_MQTT_OK/GD32VW55X_Wifi_BLE_SDK/GD32VW55x_RELEASE_V1.0.2/MSDK/cloud/alicloud/src/protocol/coap/local\CoAPExport.c ****         param->obs_maxcount = COAP_DEFAULT_OBS_MAXCOUNT;
 102:C:/Users/stapi/OneDrive/Desktop/GD32VW553/V1_MQTT_OK/GD32VW55X_Wifi_BLE_SDK/GD32VW55x_RELEASE_V1.0.2/MSDK/cloud/alicloud/src/protocol/coap/local\CoAPExport.c ****     }
 103:C:/Users/stapi/OneDrive/Desktop/GD32VW553/V1_MQTT_OK/GD32VW55X_Wifi_BLE_SDK/GD32VW55x_RELEASE_V1.0.2/MSDK/cloud/alicloud/src/protocol/coap/local\CoAPExport.c ****     CoAPObsServer_init(p_ctx, param->obs_maxcount);
 104:C:/Users/stapi/OneDrive/Desktop/GD32VW553/V1_MQTT_OK/GD32VW55X_Wifi_BLE_SDK/GD32VW55x_RELEASE_V1.0.2/MSDK/cloud/alicloud/src/protocol/coap/local\CoAPExport.c **** #endif
 105:C:/Users/stapi/OneDrive/Desktop/GD32VW553/V1_MQTT_OK/GD32VW55X_Wifi_BLE_SDK/GD32VW55x_RELEASE_V1.0.2/MSDK/cloud/alicloud/src/protocol/coap/local\CoAPExport.c **** 
 106:C:/Users/stapi/OneDrive/Desktop/GD32VW553/V1_MQTT_OK/GD32VW55X_Wifi_BLE_SDK/GD32VW55x_RELEASE_V1.0.2/MSDK/cloud/alicloud/src/protocol/coap/local\CoAPExport.c **** #ifndef COAP_OBSERVE_CLIENT_DISABLE
 107:C:/Users/stapi/OneDrive/Desktop/GD32VW553/V1_MQTT_OK/GD32VW55X_Wifi_BLE_SDK/GD32VW55x_RELEASE_V1.0.2/MSDK/cloud/alicloud/src/protocol/coap/local\CoAPExport.c ****     if (0 == param->obs_maxcount) {
 108:C:/Users/stapi/OneDrive/Desktop/GD32VW553/V1_MQTT_OK/GD32VW55X_Wifi_BLE_SDK/GD32VW55x_RELEASE_V1.0.2/MSDK/cloud/alicloud/src/protocol/coap/local\CoAPExport.c ****         param->obs_maxcount = COAP_DEFAULT_OBS_MAXCOUNT;
 109:C:/Users/stapi/OneDrive/Desktop/GD32VW553/V1_MQTT_OK/GD32VW55X_Wifi_BLE_SDK/GD32VW55x_RELEASE_V1.0.2/MSDK/cloud/alicloud/src/protocol/coap/local\CoAPExport.c ****     }
 110:C:/Users/stapi/OneDrive/Desktop/GD32VW553/V1_MQTT_OK/GD32VW55X_Wifi_BLE_SDK/GD32VW55x_RELEASE_V1.0.2/MSDK/cloud/alicloud/src/protocol/coap/local\CoAPExport.c ****     CoAPObsClient_init(p_ctx, param->obs_maxcount);
 111:C:/Users/stapi/OneDrive/Desktop/GD32VW553/V1_MQTT_OK/GD32VW55X_Wifi_BLE_SDK/GD32VW55x_RELEASE_V1.0.2/MSDK/cloud/alicloud/src/protocol/coap/local\CoAPExport.c **** #endif
 112:C:/Users/stapi/OneDrive/Desktop/GD32VW553/V1_MQTT_OK/GD32VW55X_Wifi_BLE_SDK/GD32VW55x_RELEASE_V1.0.2/MSDK/cloud/alicloud/src/protocol/coap/local\CoAPExport.c **** 
 113:C:/Users/stapi/OneDrive/Desktop/GD32VW553/V1_MQTT_OK/GD32VW55X_Wifi_BLE_SDK/GD32VW55x_RELEASE_V1.0.2/MSDK/cloud/alicloud/src/protocol/coap/local\CoAPExport.c **** #ifdef COAP_DTLS_SUPPORT
 114:C:/Users/stapi/OneDrive/Desktop/GD32VW553/V1_MQTT_OK/GD32VW55X_Wifi_BLE_SDK/GD32VW55x_RELEASE_V1.0.2/MSDK/cloud/alicloud/src/protocol/coap/local\CoAPExport.c ****     network_param.type = COAP_NETWORK_DTLS;
 115:C:/Users/stapi/OneDrive/Desktop/GD32VW553/V1_MQTT_OK/GD32VW55X_Wifi_BLE_SDK/GD32VW55x_RELEASE_V1.0.2/MSDK/cloud/alicloud/src/protocol/coap/local\CoAPExport.c ****     network_param.port = COAPS_DEFAULT_PORT;
 116:C:/Users/stapi/OneDrive/Desktop/GD32VW553/V1_MQTT_OK/GD32VW55X_Wifi_BLE_SDK/GD32VW55x_RELEASE_V1.0.2/MSDK/cloud/alicloud/src/protocol/coap/local\CoAPExport.c **** #else
 117:C:/Users/stapi/OneDrive/Desktop/GD32VW553/V1_MQTT_OK/GD32VW55X_Wifi_BLE_SDK/GD32VW55x_RELEASE_V1.0.2/MSDK/cloud/alicloud/src/protocol/coap/local\CoAPExport.c ****     network_param.type = COAP_NETWORK_NOSEC;
 118:C:/Users/stapi/OneDrive/Desktop/GD32VW553/V1_MQTT_OK/GD32VW55X_Wifi_BLE_SDK/GD32VW55x_RELEASE_V1.0.2/MSDK/cloud/alicloud/src/protocol/coap/local\CoAPExport.c ****     network_param.port = param->port;
 119:C:/Users/stapi/OneDrive/Desktop/GD32VW553/V1_MQTT_OK/GD32VW55X_Wifi_BLE_SDK/GD32VW55x_RELEASE_V1.0.2/MSDK/cloud/alicloud/src/protocol/coap/local\CoAPExport.c ****     network_param.group = param->group;
 120:C:/Users/stapi/OneDrive/Desktop/GD32VW553/V1_MQTT_OK/GD32VW55X_Wifi_BLE_SDK/GD32VW55x_RELEASE_V1.0.2/MSDK/cloud/alicloud/src/protocol/coap/local\CoAPExport.c **** #endif
 121:C:/Users/stapi/OneDrive/Desktop/GD32VW553/V1_MQTT_OK/GD32VW55X_Wifi_BLE_SDK/GD32VW55x_RELEASE_V1.0.2/MSDK/cloud/alicloud/src/protocol/coap/local\CoAPExport.c **** 
 122:C:/Users/stapi/OneDrive/Desktop/GD32VW553/V1_MQTT_OK/GD32VW55X_Wifi_BLE_SDK/GD32VW55x_RELEASE_V1.0.2/MSDK/cloud/alicloud/src/protocol/coap/local\CoAPExport.c **** 
 123:C:/Users/stapi/OneDrive/Desktop/GD32VW553/V1_MQTT_OK/GD32VW55X_Wifi_BLE_SDK/GD32VW55x_RELEASE_V1.0.2/MSDK/cloud/alicloud/src/protocol/coap/local\CoAPExport.c ****     /*CoAP network init*/
 124:C:/Users/stapi/OneDrive/Desktop/GD32VW553/V1_MQTT_OK/GD32VW55X_Wifi_BLE_SDK/GD32VW55x_RELEASE_V1.0.2/MSDK/cloud/alicloud/src/protocol/coap/local\CoAPExport.c ****     p_ctx->p_network = CoAPNetwork_init(&network_param);
 125:C:/Users/stapi/OneDrive/Desktop/GD32VW553/V1_MQTT_OK/GD32VW55X_Wifi_BLE_SDK/GD32VW55x_RELEASE_V1.0.2/MSDK/cloud/alicloud/src/protocol/coap/local\CoAPExport.c **** 
 126:C:/Users/stapi/OneDrive/Desktop/GD32VW553/V1_MQTT_OK/GD32VW55X_Wifi_BLE_SDK/GD32VW55x_RELEASE_V1.0.2/MSDK/cloud/alicloud/src/protocol/coap/local\CoAPExport.c ****     if (NULL == p_ctx->p_network) {
 127:C:/Users/stapi/OneDrive/Desktop/GD32VW553/V1_MQTT_OK/GD32VW55X_Wifi_BLE_SDK/GD32VW55x_RELEASE_V1.0.2/MSDK/cloud/alicloud/src/protocol/coap/local\CoAPExport.c ****         COAP_ERR("CoAP Network init failed, exit");
 128:C:/Users/stapi/OneDrive/Desktop/GD32VW553/V1_MQTT_OK/GD32VW55X_Wifi_BLE_SDK/GD32VW55x_RELEASE_V1.0.2/MSDK/cloud/alicloud/src/protocol/coap/local\CoAPExport.c ****         goto err;
 129:C:/Users/stapi/OneDrive/Desktop/GD32VW553/V1_MQTT_OK/GD32VW55X_Wifi_BLE_SDK/GD32VW55x_RELEASE_V1.0.2/MSDK/cloud/alicloud/src/protocol/coap/local\CoAPExport.c ****     }
 130:C:/Users/stapi/OneDrive/Desktop/GD32VW553/V1_MQTT_OK/GD32VW55X_Wifi_BLE_SDK/GD32VW55x_RELEASE_V1.0.2/MSDK/cloud/alicloud/src/protocol/coap/local\CoAPExport.c **** 
 131:C:/Users/stapi/OneDrive/Desktop/GD32VW553/V1_MQTT_OK/GD32VW55X_Wifi_BLE_SDK/GD32VW55x_RELEASE_V1.0.2/MSDK/cloud/alicloud/src/protocol/coap/local\CoAPExport.c ****     return p_ctx;
 132:C:/Users/stapi/OneDrive/Desktop/GD32VW553/V1_MQTT_OK/GD32VW55X_Wifi_BLE_SDK/GD32VW55x_RELEASE_V1.0.2/MSDK/cloud/alicloud/src/protocol/coap/local\CoAPExport.c **** err:
 133:C:/Users/stapi/OneDrive/Desktop/GD32VW553/V1_MQTT_OK/GD32VW55X_Wifi_BLE_SDK/GD32VW55x_RELEASE_V1.0.2/MSDK/cloud/alicloud/src/protocol/coap/local\CoAPExport.c ****     if (NULL == p_ctx) {
 111              		.loc 1 133 5
 112              	.L1:
 134:C:/Users/stapi/OneDrive/Desktop/GD32VW553/V1_MQTT_OK/GD32VW55X_Wifi_BLE_SDK/GD32VW55x_RELEASE_V1.0.2/MSDK/cloud/alicloud/src/protocol/coap/local\CoAPExport.c ****         return p_ctx;
 135:C:/Users/stapi/OneDrive/Desktop/GD32VW553/V1_MQTT_OK/GD32VW55X_Wifi_BLE_SDK/GD32VW55x_RELEASE_V1.0.2/MSDK/cloud/alicloud/src/protocol/coap/local\CoAPExport.c ****     }
 136:C:/Users/stapi/OneDrive/Desktop/GD32VW553/V1_MQTT_OK/GD32VW55X_Wifi_BLE_SDK/GD32VW55x_RELEASE_V1.0.2/MSDK/cloud/alicloud/src/protocol/coap/local\CoAPExport.c **** 
 137:C:/Users/stapi/OneDrive/Desktop/GD32VW553/V1_MQTT_OK/GD32VW55X_Wifi_BLE_SDK/GD32VW55x_RELEASE_V1.0.2/MSDK/cloud/alicloud/src/protocol/coap/local\CoAPExport.c ****     if (NULL != p_ctx->recvbuf) {
 138:C:/Users/stapi/OneDrive/Desktop/GD32VW553/V1_MQTT_OK/GD32VW55X_Wifi_BLE_SDK/GD32VW55x_RELEASE_V1.0.2/MSDK/cloud/alicloud/src/protocol/coap/local\CoAPExport.c ****         coap_free(p_ctx->recvbuf);
 139:C:/Users/stapi/OneDrive/Desktop/GD32VW553/V1_MQTT_OK/GD32VW55X_Wifi_BLE_SDK/GD32VW55x_RELEASE_V1.0.2/MSDK/cloud/alicloud/src/protocol/coap/local\CoAPExport.c ****         p_ctx->recvbuf = NULL;
 140:C:/Users/stapi/OneDrive/Desktop/GD32VW553/V1_MQTT_OK/GD32VW55X_Wifi_BLE_SDK/GD32VW55x_RELEASE_V1.0.2/MSDK/cloud/alicloud/src/protocol/coap/local\CoAPExport.c ****     }
 141:C:/Users/stapi/OneDrive/Desktop/GD32VW553/V1_MQTT_OK/GD32VW55X_Wifi_BLE_SDK/GD32VW55x_RELEASE_V1.0.2/MSDK/cloud/alicloud/src/protocol/coap/local\CoAPExport.c **** 
 142:C:/Users/stapi/OneDrive/Desktop/GD32VW553/V1_MQTT_OK/GD32VW55X_Wifi_BLE_SDK/GD32VW55x_RELEASE_V1.0.2/MSDK/cloud/alicloud/src/protocol/coap/local\CoAPExport.c **** #ifdef USE_SENDBUFF
 143:C:/Users/stapi/OneDrive/Desktop/GD32VW553/V1_MQTT_OK/GD32VW55X_Wifi_BLE_SDK/GD32VW55x_RELEASE_V1.0.2/MSDK/cloud/alicloud/src/protocol/coap/local\CoAPExport.c ****     if (NULL != p_ctx->sendbuf) {
 144:C:/Users/stapi/OneDrive/Desktop/GD32VW553/V1_MQTT_OK/GD32VW55X_Wifi_BLE_SDK/GD32VW55x_RELEASE_V1.0.2/MSDK/cloud/alicloud/src/protocol/coap/local\CoAPExport.c ****         coap_free(p_ctx->sendbuf);
 145:C:/Users/stapi/OneDrive/Desktop/GD32VW553/V1_MQTT_OK/GD32VW55X_Wifi_BLE_SDK/GD32VW55x_RELEASE_V1.0.2/MSDK/cloud/alicloud/src/protocol/coap/local\CoAPExport.c ****         p_ctx->sendbuf = NULL;
 146:C:/Users/stapi/OneDrive/Desktop/GD32VW553/V1_MQTT_OK/GD32VW55X_Wifi_BLE_SDK/GD32VW55x_RELEASE_V1.0.2/MSDK/cloud/alicloud/src/protocol/coap/local\CoAPExport.c ****     }
 147:C:/Users/stapi/OneDrive/Desktop/GD32VW553/V1_MQTT_OK/GD32VW55X_Wifi_BLE_SDK/GD32VW55x_RELEASE_V1.0.2/MSDK/cloud/alicloud/src/protocol/coap/local\CoAPExport.c **** #endif
 148:C:/Users/stapi/OneDrive/Desktop/GD32VW553/V1_MQTT_OK/GD32VW55X_Wifi_BLE_SDK/GD32VW55x_RELEASE_V1.0.2/MSDK/cloud/alicloud/src/protocol/coap/local\CoAPExport.c **** 
 149:C:/Users/stapi/OneDrive/Desktop/GD32VW553/V1_MQTT_OK/GD32VW55X_Wifi_BLE_SDK/GD32VW55x_RELEASE_V1.0.2/MSDK/cloud/alicloud/src/protocol/coap/local\CoAPExport.c **** #ifndef COAP_OBSERVE_SERVER_DISABLE
 150:C:/Users/stapi/OneDrive/Desktop/GD32VW553/V1_MQTT_OK/GD32VW55X_Wifi_BLE_SDK/GD32VW55x_RELEASE_V1.0.2/MSDK/cloud/alicloud/src/protocol/coap/local\CoAPExport.c ****     CoAPObsServer_deinit(p_ctx);
 151:C:/Users/stapi/OneDrive/Desktop/GD32VW553/V1_MQTT_OK/GD32VW55X_Wifi_BLE_SDK/GD32VW55x_RELEASE_V1.0.2/MSDK/cloud/alicloud/src/protocol/coap/local\CoAPExport.c **** #endif
 152:C:/Users/stapi/OneDrive/Desktop/GD32VW553/V1_MQTT_OK/GD32VW55X_Wifi_BLE_SDK/GD32VW55x_RELEASE_V1.0.2/MSDK/cloud/alicloud/src/protocol/coap/local\CoAPExport.c **** 
 153:C:/Users/stapi/OneDrive/Desktop/GD32VW553/V1_MQTT_OK/GD32VW55X_Wifi_BLE_SDK/GD32VW55x_RELEASE_V1.0.2/MSDK/cloud/alicloud/src/protocol/coap/local\CoAPExport.c **** #ifndef COAP_OBSERVE_CLIENT_DISABLE
 154:C:/Users/stapi/OneDrive/Desktop/GD32VW553/V1_MQTT_OK/GD32VW55X_Wifi_BLE_SDK/GD32VW55x_RELEASE_V1.0.2/MSDK/cloud/alicloud/src/protocol/coap/local\CoAPExport.c ****     CoAPObsClient_deinit(p_ctx);
 155:C:/Users/stapi/OneDrive/Desktop/GD32VW553/V1_MQTT_OK/GD32VW55X_Wifi_BLE_SDK/GD32VW55x_RELEASE_V1.0.2/MSDK/cloud/alicloud/src/protocol/coap/local\CoAPExport.c **** #endif
 156:C:/Users/stapi/OneDrive/Desktop/GD32VW553/V1_MQTT_OK/GD32VW55X_Wifi_BLE_SDK/GD32VW55x_RELEASE_V1.0.2/MSDK/cloud/alicloud/src/protocol/coap/local\CoAPExport.c **** 
 157:C:/Users/stapi/OneDrive/Desktop/GD32VW553/V1_MQTT_OK/GD32VW55X_Wifi_BLE_SDK/GD32VW55x_RELEASE_V1.0.2/MSDK/cloud/alicloud/src/protocol/coap/local\CoAPExport.c ****     CoAPResource_deinit(p_ctx);
 158:C:/Users/stapi/OneDrive/Desktop/GD32VW553/V1_MQTT_OK/GD32VW55X_Wifi_BLE_SDK/GD32VW55x_RELEASE_V1.0.2/MSDK/cloud/alicloud/src/protocol/coap/local\CoAPExport.c **** 
 159:C:/Users/stapi/OneDrive/Desktop/GD32VW553/V1_MQTT_OK/GD32VW55X_Wifi_BLE_SDK/GD32VW55x_RELEASE_V1.0.2/MSDK/cloud/alicloud/src/protocol/coap/local\CoAPExport.c ****     if (NULL != p_ctx->sendlist.list_mutex) {
 160:C:/Users/stapi/OneDrive/Desktop/GD32VW553/V1_MQTT_OK/GD32VW55X_Wifi_BLE_SDK/GD32VW55x_RELEASE_V1.0.2/MSDK/cloud/alicloud/src/protocol/coap/local\CoAPExport.c ****         HAL_MutexDestroy(p_ctx->sendlist.list_mutex);
 161:C:/Users/stapi/OneDrive/Desktop/GD32VW553/V1_MQTT_OK/GD32VW55X_Wifi_BLE_SDK/GD32VW55x_RELEASE_V1.0.2/MSDK/cloud/alicloud/src/protocol/coap/local\CoAPExport.c ****         p_ctx->sendlist.list_mutex = NULL;
 162:C:/Users/stapi/OneDrive/Desktop/GD32VW553/V1_MQTT_OK/GD32VW55X_Wifi_BLE_SDK/GD32VW55x_RELEASE_V1.0.2/MSDK/cloud/alicloud/src/protocol/coap/local\CoAPExport.c ****     }
 163:C:/Users/stapi/OneDrive/Desktop/GD32VW553/V1_MQTT_OK/GD32VW55X_Wifi_BLE_SDK/GD32VW55x_RELEASE_V1.0.2/MSDK/cloud/alicloud/src/protocol/coap/local\CoAPExport.c **** 
 164:C:/Users/stapi/OneDrive/Desktop/GD32VW553/V1_MQTT_OK/GD32VW55X_Wifi_BLE_SDK/GD32VW55x_RELEASE_V1.0.2/MSDK/cloud/alicloud/src/protocol/coap/local\CoAPExport.c ****     if (NULL != p_ctx->mutex) {
 165:C:/Users/stapi/OneDrive/Desktop/GD32VW553/V1_MQTT_OK/GD32VW55X_Wifi_BLE_SDK/GD32VW55x_RELEASE_V1.0.2/MSDK/cloud/alicloud/src/protocol/coap/local\CoAPExport.c ****         HAL_MutexDestroy(p_ctx->mutex);
 166:C:/Users/stapi/OneDrive/Desktop/GD32VW553/V1_MQTT_OK/GD32VW55X_Wifi_BLE_SDK/GD32VW55x_RELEASE_V1.0.2/MSDK/cloud/alicloud/src/protocol/coap/local\CoAPExport.c ****         p_ctx->mutex = NULL;
 167:C:/Users/stapi/OneDrive/Desktop/GD32VW553/V1_MQTT_OK/GD32VW55X_Wifi_BLE_SDK/GD32VW55x_RELEASE_V1.0.2/MSDK/cloud/alicloud/src/protocol/coap/local\CoAPExport.c ****     }
 168:C:/Users/stapi/OneDrive/Desktop/GD32VW553/V1_MQTT_OK/GD32VW55X_Wifi_BLE_SDK/GD32VW55x_RELEASE_V1.0.2/MSDK/cloud/alicloud/src/protocol/coap/local\CoAPExport.c **** 
 169:C:/Users/stapi/OneDrive/Desktop/GD32VW553/V1_MQTT_OK/GD32VW55X_Wifi_BLE_SDK/GD32VW55x_RELEASE_V1.0.2/MSDK/cloud/alicloud/src/protocol/coap/local\CoAPExport.c ****     coap_free(p_ctx);
 170:C:/Users/stapi/OneDrive/Desktop/GD32VW553/V1_MQTT_OK/GD32VW55X_Wifi_BLE_SDK/GD32VW55x_RELEASE_V1.0.2/MSDK/cloud/alicloud/src/protocol/coap/local\CoAPExport.c ****     p_ctx = NULL;
 171:C:/Users/stapi/OneDrive/Desktop/GD32VW553/V1_MQTT_OK/GD32VW55X_Wifi_BLE_SDK/GD32VW55x_RELEASE_V1.0.2/MSDK/cloud/alicloud/src/protocol/coap/local\CoAPExport.c **** 
 172:C:/Users/stapi/OneDrive/Desktop/GD32VW553/V1_MQTT_OK/GD32VW55X_Wifi_BLE_SDK/GD32VW55x_RELEASE_V1.0.2/MSDK/cloud/alicloud/src/protocol/coap/local\CoAPExport.c ****     // TODO: release the resource
 173:C:/Users/stapi/OneDrive/Desktop/GD32VW553/V1_MQTT_OK/GD32VW55X_Wifi_BLE_SDK/GD32VW55x_RELEASE_V1.0.2/MSDK/cloud/alicloud/src/protocol/coap/local\CoAPExport.c ****     return (CoAPContext *)p_ctx;
 174:C:/Users/stapi/OneDrive/Desktop/GD32VW553/V1_MQTT_OK/GD32VW55X_Wifi_BLE_SDK/GD32VW55x_RELEASE_V1.0.2/MSDK/cloud/alicloud/src/protocol/coap/local\CoAPExport.c **** }
 113              		.loc 1 174 1 is_stmt 0
 114 0056 2285     		mv	a0,s0
 115 0058 4101     		addi	sp,sp,16
 116              		.cfi_remember_state
 117              		.cfi_def_cfa_offset 0
 118 005a 17030000 		tail	__riscv_restore_4
 118      67000300 
 119              		.cfi_restore 19
 120              		.cfi_restore 18
 121              		.cfi_restore 9
 122              		.cfi_restore 8
 123              		.cfi_restore 1
 124              		.cfi_def_cfa_offset -32
 125              	.LVL8:
 126              	.L2:
 127              		.cfi_restore_state
  41:C:/Users/stapi/OneDrive/Desktop/GD32VW553/V1_MQTT_OK/GD32VW55X_Wifi_BLE_SDK/GD32VW55x_RELEASE_V1.0.2/MSDK/cloud/alicloud/src/protocol/coap/local\CoAPExport.c ****     COAP_DEBUG("Observe Server Max-Count: %d", param->obs_maxcount);
 128              		.loc 1 41 5 is_stmt 1
 129 0062 83C70400 		lbu	a5,0(s1)
 130 0066 B7090000 		lui	s3,%hi(.LANCHOR0)
 131 006a 37090000 		lui	s2,%hi(.LC4)
 132 006e 37070000 		lui	a4,%hi(.LC3)
 133 0072 13070700 		addi	a4,a4,%lo(.LC3)
 134 0076 9546     		li	a3,5
 135 0078 13069002 		li	a2,41
 136 007c 93850900 		addi	a1,s3,%lo(.LANCHOR0)
 137 0080 13050900 		addi	a0,s2,%lo(.LC4)
 138 0084 97000000 		call	LITE_syslog
 138      E7800000 
 139              	.LVL9:
  42:C:/Users/stapi/OneDrive/Desktop/GD32VW553/V1_MQTT_OK/GD32VW55X_Wifi_BLE_SDK/GD32VW55x_RELEASE_V1.0.2/MSDK/cloud/alicloud/src/protocol/coap/local\CoAPExport.c ****     COAP_DEBUG("Observe Client Max-Count: %d", param->obs_maxcount);
 140              		.loc 1 42 5
 141 008c 83C71400 		lbu	a5,1(s1)
 142 0090 37070000 		lui	a4,%hi(.LC5)
 143 0094 13070700 		addi	a4,a4,%lo(.LC5)
 144 0098 9546     		li	a3,5
 145 009a 1306A002 		li	a2,42
 146 009e 93850900 		addi	a1,s3,%lo(.LANCHOR0)
 147 00a2 13050900 		addi	a0,s2,%lo(.LC4)
 148 00a6 97000000 		call	LITE_syslog
 148      E7800000 
 149              	.LVL10:
  43:C:/Users/stapi/OneDrive/Desktop/GD32VW553/V1_MQTT_OK/GD32VW55X_Wifi_BLE_SDK/GD32VW55x_RELEASE_V1.0.2/MSDK/cloud/alicloud/src/protocol/coap/local\CoAPExport.c ****     COAP_DEBUG("Resource Max-Count:       %d", param->res_maxcount);
 150              		.loc 1 43 5
 151 00ae 83C71400 		lbu	a5,1(s1)
 152 00b2 37070000 		lui	a4,%hi(.LC6)
 153 00b6 13070700 		addi	a4,a4,%lo(.LC6)
 154 00ba 9546     		li	a3,5
 155 00bc 1306B002 		li	a2,43
 156 00c0 93850900 		addi	a1,s3,%lo(.LANCHOR0)
 157 00c4 13050900 		addi	a0,s2,%lo(.LC4)
 158 00c8 97000000 		call	LITE_syslog
 158      E7800000 
 159              	.LVL11:
  44:C:/Users/stapi/OneDrive/Desktop/GD32VW553/V1_MQTT_OK/GD32VW55X_Wifi_BLE_SDK/GD32VW55x_RELEASE_V1.0.2/MSDK/cloud/alicloud/src/protocol/coap/local\CoAPExport.c ****     COAP_DEBUG("MultiCast Address:        %s:%d", param->group, param->port);
 160              		.loc 1 44 5
 161 00d0 83C74401 		lbu	a5,20(s1)
 162 00d4 37070000 		lui	a4,%hi(.LC7)
 163 00d8 13070700 		addi	a4,a4,%lo(.LC7)
 164 00dc 9546     		li	a3,5
 165 00de 1306C002 		li	a2,44
 166 00e2 93850900 		addi	a1,s3,%lo(.LANCHOR0)
 167 00e6 13050900 		addi	a0,s2,%lo(.LC4)
 168 00ea 97000000 		call	LITE_syslog
 168      E7800000 
 169              	.LVL12:
  45:C:/Users/stapi/OneDrive/Desktop/GD32VW553/V1_MQTT_OK/GD32VW55X_Wifi_BLE_SDK/GD32VW55x_RELEASE_V1.0.2/MSDK/cloud/alicloud/src/protocol/coap/local\CoAPExport.c ****     COAP_DEBUG("Send/Recv Wait time:      %dms", param->waittime);
 170              		.loc 1 45 5
 171 00f2 03D82400 		lhu	a6,2(s1)
 172 00f6 DC40     		lw	a5,4(s1)
 173 00f8 37070000 		lui	a4,%hi(.LC8)
 174 00fc 13070700 		addi	a4,a4,%lo(.LC8)
 175 0100 9546     		li	a3,5
 176 0102 1306D002 		li	a2,45
 177 0106 93850900 		addi	a1,s3,%lo(.LANCHOR0)
 178 010a 13050900 		addi	a0,s2,%lo(.LC4)
 179 010e 97000000 		call	LITE_syslog
 179      E7800000 
 180              	.LVL13:
  46:C:/Users/stapi/OneDrive/Desktop/GD32VW553/V1_MQTT_OK/GD32VW55X_Wifi_BLE_SDK/GD32VW55x_RELEASE_V1.0.2/MSDK/cloud/alicloud/src/protocol/coap/local\CoAPExport.c **** 
 181              		.loc 1 46 5
 182 0116 9C44     		lw	a5,8(s1)
 183 0118 37070000 		lui	a4,%hi(.LC9)
 184 011c 13070700 		addi	a4,a4,%lo(.LC9)
 185 0120 9546     		li	a3,5
 186 0122 1306E002 		li	a2,46
 187 0126 93850900 		addi	a1,s3,%lo(.LANCHOR0)
 188 012a 13050900 		addi	a0,s2,%lo(.LC4)
 189 012e 97000000 		call	LITE_syslog
 189      E7800000 
 190              	.LVL14:
  48:C:/Users/stapi/OneDrive/Desktop/GD32VW553/V1_MQTT_OK/GD32VW55X_Wifi_BLE_SDK/GD32VW55x_RELEASE_V1.0.2/MSDK/cloud/alicloud/src/protocol/coap/local\CoAPExport.c ****     p_ctx->message_id = 1;
 191              		.loc 1 48 5
 192 0136 13060006 		li	a2,96
 193 013a 8145     		li	a1,0
 194 013c 2285     		mv	a0,s0
 195 013e 97000000 		call	memset
 195      E7800000 
 196              	.LVL15:
  49:C:/Users/stapi/OneDrive/Desktop/GD32VW553/V1_MQTT_OK/GD32VW55X_Wifi_BLE_SDK/GD32VW55x_RELEASE_V1.0.2/MSDK/cloud/alicloud/src/protocol/coap/local\CoAPExport.c ****     p_ctx->notifier = param->notifier;
 197              		.loc 1 49 5
  49:C:/Users/stapi/OneDrive/Desktop/GD32VW553/V1_MQTT_OK/GD32VW55X_Wifi_BLE_SDK/GD32VW55x_RELEASE_V1.0.2/MSDK/cloud/alicloud/src/protocol/coap/local\CoAPExport.c ****     p_ctx->notifier = param->notifier;
 198              		.loc 1 49 23 is_stmt 0
 199 0146 8547     		li	a5,1
 200 0148 2310F400 		sh	a5,0(s0)
  50:C:/Users/stapi/OneDrive/Desktop/GD32VW553/V1_MQTT_OK/GD32VW55X_Wifi_BLE_SDK/GD32VW55x_RELEASE_V1.0.2/MSDK/cloud/alicloud/src/protocol/coap/local\CoAPExport.c ****     p_ctx->appdata = param->appdata;
 201              		.loc 1 50 5 is_stmt 1
  50:C:/Users/stapi/OneDrive/Desktop/GD32VW553/V1_MQTT_OK/GD32VW55X_Wifi_BLE_SDK/GD32VW55x_RELEASE_V1.0.2/MSDK/cloud/alicloud/src/protocol/coap/local\CoAPExport.c ****     p_ctx->appdata = param->appdata;
 202              		.loc 1 50 21 is_stmt 0
 203 014c DC44     		lw	a5,12(s1)
  62:C:/Users/stapi/OneDrive/Desktop/GD32VW553/V1_MQTT_OK/GD32VW55X_Wifi_BLE_SDK/GD32VW55x_RELEASE_V1.0.2/MSDK/cloud/alicloud/src/protocol/coap/local\CoAPExport.c ****     if (NULL == p_ctx->recvbuf) {
 204              		.loc 1 62 22
 205 014e 13060050 		li	a2,1280
 206 0152 8145     		li	a1,0
  50:C:/Users/stapi/OneDrive/Desktop/GD32VW553/V1_MQTT_OK/GD32VW55X_Wifi_BLE_SDK/GD32VW55x_RELEASE_V1.0.2/MSDK/cloud/alicloud/src/protocol/coap/local\CoAPExport.c ****     p_ctx->appdata = param->appdata;
 207              		.loc 1 50 21
 208 0154 1CC4     		sw	a5,8(s0)
  51:C:/Users/stapi/OneDrive/Desktop/GD32VW553/V1_MQTT_OK/GD32VW55X_Wifi_BLE_SDK/GD32VW55x_RELEASE_V1.0.2/MSDK/cloud/alicloud/src/protocol/coap/local\CoAPExport.c **** 
 209              		.loc 1 51 5 is_stmt 1
  51:C:/Users/stapi/OneDrive/Desktop/GD32VW553/V1_MQTT_OK/GD32VW55X_Wifi_BLE_SDK/GD32VW55x_RELEASE_V1.0.2/MSDK/cloud/alicloud/src/protocol/coap/local\CoAPExport.c **** 
 210              		.loc 1 51 20 is_stmt 0
 211 0156 9C48     		lw	a5,16(s1)
  62:C:/Users/stapi/OneDrive/Desktop/GD32VW553/V1_MQTT_OK/GD32VW55X_Wifi_BLE_SDK/GD32VW55x_RELEASE_V1.0.2/MSDK/cloud/alicloud/src/protocol/coap/local\CoAPExport.c ****     if (NULL == p_ctx->recvbuf) {
 212              		.loc 1 62 22
 213 0158 0145     		li	a0,0
  51:C:/Users/stapi/OneDrive/Desktop/GD32VW553/V1_MQTT_OK/GD32VW55X_Wifi_BLE_SDK/GD32VW55x_RELEASE_V1.0.2/MSDK/cloud/alicloud/src/protocol/coap/local\CoAPExport.c **** 
 214              		.loc 1 51 20
 215 015a 3CCC     		sw	a5,88(s0)
  62:C:/Users/stapi/OneDrive/Desktop/GD32VW553/V1_MQTT_OK/GD32VW55X_Wifi_BLE_SDK/GD32VW55x_RELEASE_V1.0.2/MSDK/cloud/alicloud/src/protocol/coap/local\CoAPExport.c ****     if (NULL == p_ctx->recvbuf) {
 216              		.loc 1 62 5 is_stmt 1
  62:C:/Users/stapi/OneDrive/Desktop/GD32VW553/V1_MQTT_OK/GD32VW55X_Wifi_BLE_SDK/GD32VW55x_RELEASE_V1.0.2/MSDK/cloud/alicloud/src/protocol/coap/local\CoAPExport.c ****     if (NULL == p_ctx->recvbuf) {
 217              		.loc 1 62 22 is_stmt 0
 218 015c 97000000 		call	LITE_malloc_internal
 218      E7800000 
 219              	.LVL16:
  62:C:/Users/stapi/OneDrive/Desktop/GD32VW553/V1_MQTT_OK/GD32VW55X_Wifi_BLE_SDK/GD32VW55x_RELEASE_V1.0.2/MSDK/cloud/alicloud/src/protocol/coap/local\CoAPExport.c ****     if (NULL == p_ctx->recvbuf) {
 220              		.loc 1 62 20
 221 0164 08C8     		sw	a0,16(s0)
  63:C:/Users/stapi/OneDrive/Desktop/GD32VW553/V1_MQTT_OK/GD32VW55X_Wifi_BLE_SDK/GD32VW55x_RELEASE_V1.0.2/MSDK/cloud/alicloud/src/protocol/coap/local\CoAPExport.c ****         COAP_ERR("not enough memory");
 222              		.loc 1 63 5 is_stmt 1
  63:C:/Users/stapi/OneDrive/Desktop/GD32VW553/V1_MQTT_OK/GD32VW55X_Wifi_BLE_SDK/GD32VW55x_RELEASE_V1.0.2/MSDK/cloud/alicloud/src/protocol/coap/local\CoAPExport.c ****         COAP_ERR("not enough memory");
 223              		.loc 1 63 8 is_stmt 0
 224 0166 2DED     		bne	a0,zero,.L4
  64:C:/Users/stapi/OneDrive/Desktop/GD32VW553/V1_MQTT_OK/GD32VW55X_Wifi_BLE_SDK/GD32VW55x_RELEASE_V1.0.2/MSDK/cloud/alicloud/src/protocol/coap/local\CoAPExport.c ****         goto err;
 225              		.loc 1 64 9 is_stmt 1
  64:C:/Users/stapi/OneDrive/Desktop/GD32VW553/V1_MQTT_OK/GD32VW55X_Wifi_BLE_SDK/GD32VW55x_RELEASE_V1.0.2/MSDK/cloud/alicloud/src/protocol/coap/local\CoAPExport.c ****         goto err;
 226              		.loc 1 64 9
 227 0168 37050000 		lui	a0,%hi(.LC0)
 228 016c 13050500 		addi	a0,a0,%lo(.LC0)
 229 0170 97000000 		call	HAL_Printf
 229      E7800000 
 230              	.LVL17:
  64:C:/Users/stapi/OneDrive/Desktop/GD32VW553/V1_MQTT_OK/GD32VW55X_Wifi_BLE_SDK/GD32VW55x_RELEASE_V1.0.2/MSDK/cloud/alicloud/src/protocol/coap/local\CoAPExport.c ****         goto err;
 231              		.loc 1 64 9
 232 0178 37050000 		lui	a0,%hi(.LC10)
 233 017c 13050500 		addi	a0,a0,%lo(.LC10)
 234              	.L23:
 127:C:/Users/stapi/OneDrive/Desktop/GD32VW553/V1_MQTT_OK/GD32VW55X_Wifi_BLE_SDK/GD32VW55x_RELEASE_V1.0.2/MSDK/cloud/alicloud/src/protocol/coap/local\CoAPExport.c ****         goto err;
 235              		.loc 1 127 9 is_stmt 0
 236 0180 97000000 		call	HAL_Printf
 236      E7800000 
 237              	.LVL18:
 127:C:/Users/stapi/OneDrive/Desktop/GD32VW553/V1_MQTT_OK/GD32VW55X_Wifi_BLE_SDK/GD32VW55x_RELEASE_V1.0.2/MSDK/cloud/alicloud/src/protocol/coap/local\CoAPExport.c ****         goto err;
 238              		.loc 1 127 9 is_stmt 1
 239 0188 37050000 		lui	a0,%hi(.LC2)
 240 018c 13050500 		addi	a0,a0,%lo(.LC2)
 241 0190 97000000 		call	HAL_Printf
 241      E7800000 
 242              	.LVL19:
 127:C:/Users/stapi/OneDrive/Desktop/GD32VW553/V1_MQTT_OK/GD32VW55X_Wifi_BLE_SDK/GD32VW55x_RELEASE_V1.0.2/MSDK/cloud/alicloud/src/protocol/coap/local\CoAPExport.c ****         goto err;
 243              		.loc 1 127 9
 128:C:/Users/stapi/OneDrive/Desktop/GD32VW553/V1_MQTT_OK/GD32VW55X_Wifi_BLE_SDK/GD32VW55x_RELEASE_V1.0.2/MSDK/cloud/alicloud/src/protocol/coap/local\CoAPExport.c ****     }
 244              		.loc 1 128 9
 133:C:/Users/stapi/OneDrive/Desktop/GD32VW553/V1_MQTT_OK/GD32VW55X_Wifi_BLE_SDK/GD32VW55x_RELEASE_V1.0.2/MSDK/cloud/alicloud/src/protocol/coap/local\CoAPExport.c ****         return p_ctx;
 245              		.loc 1 133 5
 137:C:/Users/stapi/OneDrive/Desktop/GD32VW553/V1_MQTT_OK/GD32VW55X_Wifi_BLE_SDK/GD32VW55x_RELEASE_V1.0.2/MSDK/cloud/alicloud/src/protocol/coap/local\CoAPExport.c ****         coap_free(p_ctx->recvbuf);
 246              		.loc 1 137 5
 137:C:/Users/stapi/OneDrive/Desktop/GD32VW553/V1_MQTT_OK/GD32VW55X_Wifi_BLE_SDK/GD32VW55x_RELEASE_V1.0.2/MSDK/cloud/alicloud/src/protocol/coap/local\CoAPExport.c ****         coap_free(p_ctx->recvbuf);
 247              		.loc 1 137 22 is_stmt 0
 248 0198 0848     		lw	a0,16(s0)
 137:C:/Users/stapi/OneDrive/Desktop/GD32VW553/V1_MQTT_OK/GD32VW55X_Wifi_BLE_SDK/GD32VW55x_RELEASE_V1.0.2/MSDK/cloud/alicloud/src/protocol/coap/local\CoAPExport.c ****         coap_free(p_ctx->recvbuf);
 249              		.loc 1 137 8
 250 019a 63120512 		bne	a0,zero,.L13
 251              	.L14:
 150:C:/Users/stapi/OneDrive/Desktop/GD32VW553/V1_MQTT_OK/GD32VW55X_Wifi_BLE_SDK/GD32VW55x_RELEASE_V1.0.2/MSDK/cloud/alicloud/src/protocol/coap/local\CoAPExport.c **** #endif
 252              		.loc 1 150 5 is_stmt 1
 253 019e 2285     		mv	a0,s0
 254 01a0 97000000 		call	CoAPObsServer_deinit
 254      E7800000 
 255              	.LVL20:
 157:C:/Users/stapi/OneDrive/Desktop/GD32VW553/V1_MQTT_OK/GD32VW55X_Wifi_BLE_SDK/GD32VW55x_RELEASE_V1.0.2/MSDK/cloud/alicloud/src/protocol/coap/local\CoAPExport.c **** 
 256              		.loc 1 157 5
 257 01a8 2285     		mv	a0,s0
 258 01aa 97000000 		call	CoAPResource_deinit
 258      E7800000 
 259              	.LVL21:
 159:C:/Users/stapi/OneDrive/Desktop/GD32VW553/V1_MQTT_OK/GD32VW55X_Wifi_BLE_SDK/GD32VW55x_RELEASE_V1.0.2/MSDK/cloud/alicloud/src/protocol/coap/local\CoAPExport.c ****         HAL_MutexDestroy(p_ctx->sendlist.list_mutex);
 260              		.loc 1 159 5
 159:C:/Users/stapi/OneDrive/Desktop/GD32VW553/V1_MQTT_OK/GD32VW55X_Wifi_BLE_SDK/GD32VW55x_RELEASE_V1.0.2/MSDK/cloud/alicloud/src/protocol/coap/local\CoAPExport.c ****         HAL_MutexDestroy(p_ctx->sendlist.list_mutex);
 261              		.loc 1 159 32 is_stmt 0
 262 01b2 4848     		lw	a0,20(s0)
 159:C:/Users/stapi/OneDrive/Desktop/GD32VW553/V1_MQTT_OK/GD32VW55X_Wifi_BLE_SDK/GD32VW55x_RELEASE_V1.0.2/MSDK/cloud/alicloud/src/protocol/coap/local\CoAPExport.c ****         HAL_MutexDestroy(p_ctx->sendlist.list_mutex);
 263              		.loc 1 159 8
 264 01b4 19C5     		beq	a0,zero,.L11
 160:C:/Users/stapi/OneDrive/Desktop/GD32VW553/V1_MQTT_OK/GD32VW55X_Wifi_BLE_SDK/GD32VW55x_RELEASE_V1.0.2/MSDK/cloud/alicloud/src/protocol/coap/local\CoAPExport.c ****         p_ctx->sendlist.list_mutex = NULL;
 265              		.loc 1 160 9 is_stmt 1
 266 01b6 97000000 		call	HAL_MutexDestroy
 266      E7800000 
 267              	.LVL22:
 161:C:/Users/stapi/OneDrive/Desktop/GD32VW553/V1_MQTT_OK/GD32VW55X_Wifi_BLE_SDK/GD32VW55x_RELEASE_V1.0.2/MSDK/cloud/alicloud/src/protocol/coap/local\CoAPExport.c ****     }
 268              		.loc 1 161 9
 161:C:/Users/stapi/OneDrive/Desktop/GD32VW553/V1_MQTT_OK/GD32VW55X_Wifi_BLE_SDK/GD32VW55x_RELEASE_V1.0.2/MSDK/cloud/alicloud/src/protocol/coap/local\CoAPExport.c ****     }
 269              		.loc 1 161 36 is_stmt 0
 270 01be 232A0400 		sw	zero,20(s0)
 271              	.L11:
 164:C:/Users/stapi/OneDrive/Desktop/GD32VW553/V1_MQTT_OK/GD32VW55X_Wifi_BLE_SDK/GD32VW55x_RELEASE_V1.0.2/MSDK/cloud/alicloud/src/protocol/coap/local\CoAPExport.c ****         HAL_MutexDestroy(p_ctx->mutex);
 272              		.loc 1 164 5 is_stmt 1
 164:C:/Users/stapi/OneDrive/Desktop/GD32VW553/V1_MQTT_OK/GD32VW55X_Wifi_BLE_SDK/GD32VW55x_RELEASE_V1.0.2/MSDK/cloud/alicloud/src/protocol/coap/local\CoAPExport.c ****         HAL_MutexDestroy(p_ctx->mutex);
 273              		.loc 1 164 22 is_stmt 0
 274 01c2 684C     		lw	a0,92(s0)
 164:C:/Users/stapi/OneDrive/Desktop/GD32VW553/V1_MQTT_OK/GD32VW55X_Wifi_BLE_SDK/GD32VW55x_RELEASE_V1.0.2/MSDK/cloud/alicloud/src/protocol/coap/local\CoAPExport.c ****         HAL_MutexDestroy(p_ctx->mutex);
 275              		.loc 1 164 8
 276 01c4 19C5     		beq	a0,zero,.L12
 165:C:/Users/stapi/OneDrive/Desktop/GD32VW553/V1_MQTT_OK/GD32VW55X_Wifi_BLE_SDK/GD32VW55x_RELEASE_V1.0.2/MSDK/cloud/alicloud/src/protocol/coap/local\CoAPExport.c ****         p_ctx->mutex = NULL;
 277              		.loc 1 165 9 is_stmt 1
 278 01c6 97000000 		call	HAL_MutexDestroy
 278      E7800000 
 279              	.LVL23:
 166:C:/Users/stapi/OneDrive/Desktop/GD32VW553/V1_MQTT_OK/GD32VW55X_Wifi_BLE_SDK/GD32VW55x_RELEASE_V1.0.2/MSDK/cloud/alicloud/src/protocol/coap/local\CoAPExport.c ****     }
 280              		.loc 1 166 9
 166:C:/Users/stapi/OneDrive/Desktop/GD32VW553/V1_MQTT_OK/GD32VW55X_Wifi_BLE_SDK/GD32VW55x_RELEASE_V1.0.2/MSDK/cloud/alicloud/src/protocol/coap/local\CoAPExport.c ****     }
 281              		.loc 1 166 22 is_stmt 0
 282 01ce 232E0404 		sw	zero,92(s0)
 283              	.L12:
 169:C:/Users/stapi/OneDrive/Desktop/GD32VW553/V1_MQTT_OK/GD32VW55X_Wifi_BLE_SDK/GD32VW55x_RELEASE_V1.0.2/MSDK/cloud/alicloud/src/protocol/coap/local\CoAPExport.c ****     p_ctx = NULL;
 284              		.loc 1 169 5 is_stmt 1
 285 01d2 2285     		mv	a0,s0
 286 01d4 97000000 		call	LITE_free_internal
 286      E7800000 
 287              	.LVL24:
 170:C:/Users/stapi/OneDrive/Desktop/GD32VW553/V1_MQTT_OK/GD32VW55X_Wifi_BLE_SDK/GD32VW55x_RELEASE_V1.0.2/MSDK/cloud/alicloud/src/protocol/coap/local\CoAPExport.c **** 
 288              		.loc 1 170 5
 173:C:/Users/stapi/OneDrive/Desktop/GD32VW553/V1_MQTT_OK/GD32VW55X_Wifi_BLE_SDK/GD32VW55x_RELEASE_V1.0.2/MSDK/cloud/alicloud/src/protocol/coap/local\CoAPExport.c **** }
 289              		.loc 1 173 5
 173:C:/Users/stapi/OneDrive/Desktop/GD32VW553/V1_MQTT_OK/GD32VW55X_Wifi_BLE_SDK/GD32VW55x_RELEASE_V1.0.2/MSDK/cloud/alicloud/src/protocol/coap/local\CoAPExport.c **** }
 290              		.loc 1 173 12 is_stmt 0
 291 01dc 0144     		li	s0,0
 292 01de A5BD     		j	.L1
 293              	.LVL25:
 294              	.L4:
  67:C:/Users/stapi/OneDrive/Desktop/GD32VW553/V1_MQTT_OK/GD32VW55X_Wifi_BLE_SDK/GD32VW55x_RELEASE_V1.0.2/MSDK/cloud/alicloud/src/protocol/coap/local\CoAPExport.c **** 
 295              		.loc 1 67 5 is_stmt 1
 296 01e0 13060050 		li	a2,1280
 297 01e4 8145     		li	a1,0
 298 01e6 97000000 		call	memset
 298      E7800000 
 299              	.LVL26:
  69:C:/Users/stapi/OneDrive/Desktop/GD32VW553/V1_MQTT_OK/GD32VW55X_Wifi_BLE_SDK/GD32VW55x_RELEASE_V1.0.2/MSDK/cloud/alicloud/src/protocol/coap/local\CoAPExport.c ****         p_ctx->waittime = COAP_DEFAULT_WAIT_TIME_MS;
 300              		.loc 1 69 5
  69:C:/Users/stapi/OneDrive/Desktop/GD32VW553/V1_MQTT_OK/GD32VW55X_Wifi_BLE_SDK/GD32VW55x_RELEASE_V1.0.2/MSDK/cloud/alicloud/src/protocol/coap/local\CoAPExport.c ****         p_ctx->waittime = COAP_DEFAULT_WAIT_TIME_MS;
 301              		.loc 1 69 19 is_stmt 0
 302 01ee 9C44     		lw	a5,8(s1)
  69:C:/Users/stapi/OneDrive/Desktop/GD32VW553/V1_MQTT_OK/GD32VW55X_Wifi_BLE_SDK/GD32VW55x_RELEASE_V1.0.2/MSDK/cloud/alicloud/src/protocol/coap/local\CoAPExport.c ****         p_ctx->waittime = COAP_DEFAULT_WAIT_TIME_MS;
 303              		.loc 1 69 8
 304 01f0 99E3     		bne	a5,zero,.L6
  70:C:/Users/stapi/OneDrive/Desktop/GD32VW553/V1_MQTT_OK/GD32VW55X_Wifi_BLE_SDK/GD32VW55x_RELEASE_V1.0.2/MSDK/cloud/alicloud/src/protocol/coap/local\CoAPExport.c ****     } else {
 305              		.loc 1 70 25
 306 01f2 9307007D 		li	a5,2000
 307              	.L6:
 308 01f6 7CC8     		sw	a5,84(s0)
  74:C:/Users/stapi/OneDrive/Desktop/GD32VW553/V1_MQTT_OK/GD32VW55X_Wifi_BLE_SDK/GD32VW55x_RELEASE_V1.0.2/MSDK/cloud/alicloud/src/protocol/coap/local\CoAPExport.c ****     if (NULL == p_ctx->mutex) {
 309              		.loc 1 74 5 is_stmt 1
  74:C:/Users/stapi/OneDrive/Desktop/GD32VW553/V1_MQTT_OK/GD32VW55X_Wifi_BLE_SDK/GD32VW55x_RELEASE_V1.0.2/MSDK/cloud/alicloud/src/protocol/coap/local\CoAPExport.c ****     if (NULL == p_ctx->mutex) {
 310              		.loc 1 74 20 is_stmt 0
 311 01f8 97000000 		call	HAL_MutexCreate
 311      E7800000 
 312              	.LVL27:
  74:C:/Users/stapi/OneDrive/Desktop/GD32VW553/V1_MQTT_OK/GD32VW55X_Wifi_BLE_SDK/GD32VW55x_RELEASE_V1.0.2/MSDK/cloud/alicloud/src/protocol/coap/local\CoAPExport.c ****     if (NULL == p_ctx->mutex) {
 313              		.loc 1 74 18
 314 0200 68CC     		sw	a0,92(s0)
  75:C:/Users/stapi/OneDrive/Desktop/GD32VW553/V1_MQTT_OK/GD32VW55X_Wifi_BLE_SDK/GD32VW55x_RELEASE_V1.0.2/MSDK/cloud/alicloud/src/protocol/coap/local\CoAPExport.c ****         COAP_ERR("Mutex Create failed");
 315              		.loc 1 75 5 is_stmt 1
  75:C:/Users/stapi/OneDrive/Desktop/GD32VW553/V1_MQTT_OK/GD32VW55X_Wifi_BLE_SDK/GD32VW55x_RELEASE_V1.0.2/MSDK/cloud/alicloud/src/protocol/coap/local\CoAPExport.c ****         COAP_ERR("Mutex Create failed");
 316              		.loc 1 75 8 is_stmt 0
 317 0202 11ED     		bne	a0,zero,.L7
  76:C:/Users/stapi/OneDrive/Desktop/GD32VW553/V1_MQTT_OK/GD32VW55X_Wifi_BLE_SDK/GD32VW55x_RELEASE_V1.0.2/MSDK/cloud/alicloud/src/protocol/coap/local\CoAPExport.c ****         goto err;
 318              		.loc 1 76 9 is_stmt 1
  76:C:/Users/stapi/OneDrive/Desktop/GD32VW553/V1_MQTT_OK/GD32VW55X_Wifi_BLE_SDK/GD32VW55x_RELEASE_V1.0.2/MSDK/cloud/alicloud/src/protocol/coap/local\CoAPExport.c ****         goto err;
 319              		.loc 1 76 9
 320 0204 37050000 		lui	a0,%hi(.LC0)
 321 0208 13050500 		addi	a0,a0,%lo(.LC0)
 322 020c 97000000 		call	HAL_Printf
 322      E7800000 
 323              	.LVL28:
  76:C:/Users/stapi/OneDrive/Desktop/GD32VW553/V1_MQTT_OK/GD32VW55X_Wifi_BLE_SDK/GD32VW55x_RELEASE_V1.0.2/MSDK/cloud/alicloud/src/protocol/coap/local\CoAPExport.c ****         goto err;
 324              		.loc 1 76 9
 325 0214 37050000 		lui	a0,%hi(.LC11)
 326 0218 13050500 		addi	a0,a0,%lo(.LC11)
 327 021c 95B7     		j	.L23
 328              	.L7:
  81:C:/Users/stapi/OneDrive/Desktop/GD32VW553/V1_MQTT_OK/GD32VW55X_Wifi_BLE_SDK/GD32VW55x_RELEASE_V1.0.2/MSDK/cloud/alicloud/src/protocol/coap/local\CoAPExport.c ****     HAL_MutexLock(p_ctx->sendlist.list_mutex);
 329              		.loc 1 81 5
  81:C:/Users/stapi/OneDrive/Desktop/GD32VW553/V1_MQTT_OK/GD32VW55X_Wifi_BLE_SDK/GD32VW55x_RELEASE_V1.0.2/MSDK/cloud/alicloud/src/protocol/coap/local\CoAPExport.c ****     HAL_MutexLock(p_ctx->sendlist.list_mutex);
 330              		.loc 1 81 34 is_stmt 0
 331 021e 97000000 		call	HAL_MutexCreate
 331      E7800000 
 332              	.LVL29:
  81:C:/Users/stapi/OneDrive/Desktop/GD32VW553/V1_MQTT_OK/GD32VW55X_Wifi_BLE_SDK/GD32VW55x_RELEASE_V1.0.2/MSDK/cloud/alicloud/src/protocol/coap/local\CoAPExport.c ****     HAL_MutexLock(p_ctx->sendlist.list_mutex);
 333              		.loc 1 81 32
 334 0226 48C8     		sw	a0,20(s0)
  82:C:/Users/stapi/OneDrive/Desktop/GD32VW553/V1_MQTT_OK/GD32VW55X_Wifi_BLE_SDK/GD32VW55x_RELEASE_V1.0.2/MSDK/cloud/alicloud/src/protocol/coap/local\CoAPExport.c ****     /*CoAP message send list*/
 335              		.loc 1 82 5 is_stmt 1
 336 0228 97000000 		call	HAL_MutexLock
 336      E7800000 
 337              	.LVL30:
  84:C:/Users/stapi/OneDrive/Desktop/GD32VW553/V1_MQTT_OK/GD32VW55X_Wifi_BLE_SDK/GD32VW55x_RELEASE_V1.0.2/MSDK/cloud/alicloud/src/protocol/coap/local\CoAPExport.c ****     p_ctx->sendlist.count = 0;
 338              		.loc 1 84 5
  86:C:/Users/stapi/OneDrive/Desktop/GD32VW553/V1_MQTT_OK/GD32VW55X_Wifi_BLE_SDK/GD32VW55x_RELEASE_V1.0.2/MSDK/cloud/alicloud/src/protocol/coap/local\CoAPExport.c **** 
 339              		.loc 1 86 5 is_stmt 0
 340 0230 4848     		lw	a0,20(s0)
  84:C:/Users/stapi/OneDrive/Desktop/GD32VW553/V1_MQTT_OK/GD32VW55X_Wifi_BLE_SDK/GD32VW55x_RELEASE_V1.0.2/MSDK/cloud/alicloud/src/protocol/coap/local\CoAPExport.c ****     p_ctx->sendlist.count = 0;
 341              		.loc 1 84 20
 342 0232 93078401 		addi	a5,s0,24
 343              	.LVL31:
 344              	.LBB6:
 345              	.LBB7:
 346              		.file 2 "..\\..\\..\\..\\cloud\\alicloud\\src\\infra\\utils\\misc/lite-list.h"
   1:..\..\..\..\cloud\alicloud\src\infra\utils\misc/lite-list.h **** /*
   2:..\..\..\..\cloud\alicloud\src\infra\utils\misc/lite-list.h ****  * Copyright (C) 2015-2018 Alibaba Group Holding Limited
   3:..\..\..\..\cloud\alicloud\src\infra\utils\misc/lite-list.h ****  */
   4:..\..\..\..\cloud\alicloud\src\infra\utils\misc/lite-list.h **** 
   5:..\..\..\..\cloud\alicloud\src\infra\utils\misc/lite-list.h **** #ifndef AOS_LIST_H
   6:..\..\..\..\cloud\alicloud\src\infra\utils\misc/lite-list.h **** #define AOS_LIST_H
   7:..\..\..\..\cloud\alicloud\src\infra\utils\misc/lite-list.h **** 
   8:..\..\..\..\cloud\alicloud\src\infra\utils\misc/lite-list.h **** #ifdef __cplusplus
   9:..\..\..\..\cloud\alicloud\src\infra\utils\misc/lite-list.h **** extern "C" {
  10:..\..\..\..\cloud\alicloud\src\infra\utils\misc/lite-list.h **** #endif
  11:..\..\..\..\cloud\alicloud\src\infra\utils\misc/lite-list.h **** 
  12:..\..\..\..\cloud\alicloud\src\infra\utils\misc/lite-list.h **** /*
  13:..\..\..\..\cloud\alicloud\src\infra\utils\misc/lite-list.h ****  * Get offset of a member variable.
  14:..\..\..\..\cloud\alicloud\src\infra\utils\misc/lite-list.h ****  *
  15:..\..\..\..\cloud\alicloud\src\infra\utils\misc/lite-list.h ****  * @param[in]   type     the type of the struct this is embedded in.
  16:..\..\..\..\cloud\alicloud\src\infra\utils\misc/lite-list.h ****  * @param[in]   member   the name of the variable within the struct.
  17:..\..\..\..\cloud\alicloud\src\infra\utils\misc/lite-list.h ****  */
  18:..\..\..\..\cloud\alicloud\src\infra\utils\misc/lite-list.h **** #define aos_offsetof(type, member)   ((size_t)&(((type *)0)->member))
  19:..\..\..\..\cloud\alicloud\src\infra\utils\misc/lite-list.h **** 
  20:..\..\..\..\cloud\alicloud\src\infra\utils\misc/lite-list.h **** /*
  21:..\..\..\..\cloud\alicloud\src\infra\utils\misc/lite-list.h ****  * Get the struct for this entry.
  22:..\..\..\..\cloud\alicloud\src\infra\utils\misc/lite-list.h ****  *
  23:..\..\..\..\cloud\alicloud\src\infra\utils\misc/lite-list.h ****  * @param[in]   ptr     the list head to take the element from.
  24:..\..\..\..\cloud\alicloud\src\infra\utils\misc/lite-list.h ****  * @param[in]   type    the type of the struct this is embedded in.
  25:..\..\..\..\cloud\alicloud\src\infra\utils\misc/lite-list.h ****  * @param[in]   member  the name of the variable within the struct.
  26:..\..\..\..\cloud\alicloud\src\infra\utils\misc/lite-list.h ****  */
  27:..\..\..\..\cloud\alicloud\src\infra\utils\misc/lite-list.h **** #define aos_container_of(ptr, type, member) \
  28:..\..\..\..\cloud\alicloud\src\infra\utils\misc/lite-list.h ****     ((type *) ((char *) (ptr) - aos_offsetof(type, member)))
  29:..\..\..\..\cloud\alicloud\src\infra\utils\misc/lite-list.h **** 
  30:..\..\..\..\cloud\alicloud\src\infra\utils\misc/lite-list.h **** /* for double link list */
  31:..\..\..\..\cloud\alicloud\src\infra\utils\misc/lite-list.h **** typedef struct dlist_s {
  32:..\..\..\..\cloud\alicloud\src\infra\utils\misc/lite-list.h ****     struct dlist_s *prev;
  33:..\..\..\..\cloud\alicloud\src\infra\utils\misc/lite-list.h ****     struct dlist_s *next;
  34:..\..\..\..\cloud\alicloud\src\infra\utils\misc/lite-list.h **** } dlist_t;
  35:..\..\..\..\cloud\alicloud\src\infra\utils\misc/lite-list.h **** 
  36:..\..\..\..\cloud\alicloud\src\infra\utils\misc/lite-list.h **** static inline void __dlist_add(dlist_t *node, dlist_t *prev, dlist_t *next)
  37:..\..\..\..\cloud\alicloud\src\infra\utils\misc/lite-list.h **** {
  38:..\..\..\..\cloud\alicloud\src\infra\utils\misc/lite-list.h ****     node->next = next;
  39:..\..\..\..\cloud\alicloud\src\infra\utils\misc/lite-list.h ****     node->prev = prev;
  40:..\..\..\..\cloud\alicloud\src\infra\utils\misc/lite-list.h **** 
  41:..\..\..\..\cloud\alicloud\src\infra\utils\misc/lite-list.h ****     prev->next = node;
  42:..\..\..\..\cloud\alicloud\src\infra\utils\misc/lite-list.h ****     next->prev = node;
  43:..\..\..\..\cloud\alicloud\src\infra\utils\misc/lite-list.h **** }
  44:..\..\..\..\cloud\alicloud\src\infra\utils\misc/lite-list.h **** 
  45:..\..\..\..\cloud\alicloud\src\infra\utils\misc/lite-list.h **** /*
  46:..\..\..\..\cloud\alicloud\src\infra\utils\misc/lite-list.h ****  * Get the struct for this entry.
  47:..\..\..\..\cloud\alicloud\src\infra\utils\misc/lite-list.h ****  *
  48:..\..\..\..\cloud\alicloud\src\infra\utils\misc/lite-list.h ****  * @param[in]   addr    the list head to take the element from.
  49:..\..\..\..\cloud\alicloud\src\infra\utils\misc/lite-list.h ****  * @param[in]   type    the type of the struct this is embedded in.
  50:..\..\..\..\cloud\alicloud\src\infra\utils\misc/lite-list.h ****  * @param[in]   member  the name of the dlist_t within the struct.
  51:..\..\..\..\cloud\alicloud\src\infra\utils\misc/lite-list.h ****  */
  52:..\..\..\..\cloud\alicloud\src\infra\utils\misc/lite-list.h **** #define dlist_entry(addr, type, member) \
  53:..\..\..\..\cloud\alicloud\src\infra\utils\misc/lite-list.h ****     ((type *)((long)addr - aos_offsetof(type, member)))
  54:..\..\..\..\cloud\alicloud\src\infra\utils\misc/lite-list.h **** 
  55:..\..\..\..\cloud\alicloud\src\infra\utils\misc/lite-list.h **** 
  56:..\..\..\..\cloud\alicloud\src\infra\utils\misc/lite-list.h **** static inline void dlist_add(dlist_t *node, dlist_t *queue)
  57:..\..\..\..\cloud\alicloud\src\infra\utils\misc/lite-list.h **** {
  58:..\..\..\..\cloud\alicloud\src\infra\utils\misc/lite-list.h ****     __dlist_add(node, queue, queue->next);
  59:..\..\..\..\cloud\alicloud\src\infra\utils\misc/lite-list.h **** }
  60:..\..\..\..\cloud\alicloud\src\infra\utils\misc/lite-list.h **** 
  61:..\..\..\..\cloud\alicloud\src\infra\utils\misc/lite-list.h **** static inline void dlist_add_tail(dlist_t *node, dlist_t *queue)
  62:..\..\..\..\cloud\alicloud\src\infra\utils\misc/lite-list.h **** {
  63:..\..\..\..\cloud\alicloud\src\infra\utils\misc/lite-list.h ****     __dlist_add(node, queue->prev, queue);
  64:..\..\..\..\cloud\alicloud\src\infra\utils\misc/lite-list.h **** }
  65:..\..\..\..\cloud\alicloud\src\infra\utils\misc/lite-list.h **** 
  66:..\..\..\..\cloud\alicloud\src\infra\utils\misc/lite-list.h **** static inline void dlist_del(dlist_t *node)
  67:..\..\..\..\cloud\alicloud\src\infra\utils\misc/lite-list.h **** {
  68:..\..\..\..\cloud\alicloud\src\infra\utils\misc/lite-list.h ****     dlist_t *prev = node->prev;
  69:..\..\..\..\cloud\alicloud\src\infra\utils\misc/lite-list.h ****     dlist_t *next = node->next;
  70:..\..\..\..\cloud\alicloud\src\infra\utils\misc/lite-list.h **** 
  71:..\..\..\..\cloud\alicloud\src\infra\utils\misc/lite-list.h ****     prev->next = next;
  72:..\..\..\..\cloud\alicloud\src\infra\utils\misc/lite-list.h ****     next->prev = prev;
  73:..\..\..\..\cloud\alicloud\src\infra\utils\misc/lite-list.h **** }
  74:..\..\..\..\cloud\alicloud\src\infra\utils\misc/lite-list.h **** 
  75:..\..\..\..\cloud\alicloud\src\infra\utils\misc/lite-list.h **** static inline void dlist_init(dlist_t *node)
  76:..\..\..\..\cloud\alicloud\src\infra\utils\misc/lite-list.h **** {
  77:..\..\..\..\cloud\alicloud\src\infra\utils\misc/lite-list.h ****     node->next = node->prev = node;
  78:..\..\..\..\cloud\alicloud\src\infra\utils\misc/lite-list.h **** }
  79:..\..\..\..\cloud\alicloud\src\infra\utils\misc/lite-list.h **** 
  80:..\..\..\..\cloud\alicloud\src\infra\utils\misc/lite-list.h **** static inline void INIT_AOS_DLIST_HEAD(dlist_t *list)
  81:..\..\..\..\cloud\alicloud\src\infra\utils\misc/lite-list.h **** {
  82:..\..\..\..\cloud\alicloud\src\infra\utils\misc/lite-list.h ****     list->next = list;
 347              		.loc 2 82 5 is_stmt 1
 348              		.loc 2 82 16 is_stmt 0
 349 0236 5CCC     		sw	a5,28(s0)
  83:..\..\..\..\cloud\alicloud\src\infra\utils\misc/lite-list.h ****     list->prev = list;
 350              		.loc 2 83 5 is_stmt 1
 351              		.loc 2 83 16 is_stmt 0
 352 0238 1CCC     		sw	a5,24(s0)
 353              	.LVL32:
 354              	.LBE7:
 355              	.LBE6:
  85:C:/Users/stapi/OneDrive/Desktop/GD32VW553/V1_MQTT_OK/GD32VW55X_Wifi_BLE_SDK/GD32VW55x_RELEASE_V1.0.2/MSDK/cloud/alicloud/src/protocol/coap/local\CoAPExport.c ****     HAL_MutexUnlock(p_ctx->sendlist.list_mutex);
 356              		.loc 1 85 5 is_stmt 1
  85:C:/Users/stapi/OneDrive/Desktop/GD32VW553/V1_MQTT_OK/GD32VW55X_Wifi_BLE_SDK/GD32VW55x_RELEASE_V1.0.2/MSDK/cloud/alicloud/src/protocol/coap/local\CoAPExport.c ****     HAL_MutexUnlock(p_ctx->sendlist.list_mutex);
 357              		.loc 1 85 27 is_stmt 0
 358 023a 23000402 		sb	zero,32(s0)
  86:C:/Users/stapi/OneDrive/Desktop/GD32VW553/V1_MQTT_OK/GD32VW55X_Wifi_BLE_SDK/GD32VW55x_RELEASE_V1.0.2/MSDK/cloud/alicloud/src/protocol/coap/local\CoAPExport.c **** 
 359              		.loc 1 86 5 is_stmt 1
 360 023e 97000000 		call	HAL_MutexUnlock
 360      E7800000 
 361              	.LVL33:
  88:C:/Users/stapi/OneDrive/Desktop/GD32VW553/V1_MQTT_OK/GD32VW55X_Wifi_BLE_SDK/GD32VW55x_RELEASE_V1.0.2/MSDK/cloud/alicloud/src/protocol/coap/local\CoAPExport.c ****         p_ctx->sendlist.maxcount = param->send_maxcount;
 362              		.loc 1 88 5
  88:C:/Users/stapi/OneDrive/Desktop/GD32VW553/V1_MQTT_OK/GD32VW55X_Wifi_BLE_SDK/GD32VW55x_RELEASE_V1.0.2/MSDK/cloud/alicloud/src/protocol/coap/local\CoAPExport.c ****         p_ctx->sendlist.maxcount = param->send_maxcount;
 363              		.loc 1 88 19 is_stmt 0
 364 0246 83C70400 		lbu	a5,0(s1)
  88:C:/Users/stapi/OneDrive/Desktop/GD32VW553/V1_MQTT_OK/GD32VW55X_Wifi_BLE_SDK/GD32VW55x_RELEASE_V1.0.2/MSDK/cloud/alicloud/src/protocol/coap/local\CoAPExport.c ****         p_ctx->sendlist.maxcount = param->send_maxcount;
 365              		.loc 1 88 8
 366 024a 91E3     		bne	a5,zero,.L8
  91:C:/Users/stapi/OneDrive/Desktop/GD32VW553/V1_MQTT_OK/GD32VW55X_Wifi_BLE_SDK/GD32VW55x_RELEASE_V1.0.2/MSDK/cloud/alicloud/src/protocol/coap/local\CoAPExport.c ****     }
 367              		.loc 1 91 34
 368 024c A147     		li	a5,8
 369              	.L8:
 370 024e A300F402 		sb	a5,33(s0)
  94:C:/Users/stapi/OneDrive/Desktop/GD32VW553/V1_MQTT_OK/GD32VW55X_Wifi_BLE_SDK/GD32VW55x_RELEASE_V1.0.2/MSDK/cloud/alicloud/src/protocol/coap/local\CoAPExport.c ****         param->res_maxcount = COAP_DEFAULT_RES_MAXCOUNT;
 371              		.loc 1 94 5 is_stmt 1
  94:C:/Users/stapi/OneDrive/Desktop/GD32VW553/V1_MQTT_OK/GD32VW55X_Wifi_BLE_SDK/GD32VW55x_RELEASE_V1.0.2/MSDK/cloud/alicloud/src/protocol/coap/local\CoAPExport.c ****         param->res_maxcount = COAP_DEFAULT_RES_MAXCOUNT;
 372              		.loc 1 94 8 is_stmt 0
 373 0252 83C74401 		lbu	a5,20(s1)
 374 0256 81E7     		bne	a5,zero,.L9
  95:C:/Users/stapi/OneDrive/Desktop/GD32VW553/V1_MQTT_OK/GD32VW55X_Wifi_BLE_SDK/GD32VW55x_RELEASE_V1.0.2/MSDK/cloud/alicloud/src/protocol/coap/local\CoAPExport.c ****     }
 375              		.loc 1 95 9 is_stmt 1
  95:C:/Users/stapi/OneDrive/Desktop/GD32VW553/V1_MQTT_OK/GD32VW55X_Wifi_BLE_SDK/GD32VW55x_RELEASE_V1.0.2/MSDK/cloud/alicloud/src/protocol/coap/local\CoAPExport.c ****     }
 376              		.loc 1 95 29 is_stmt 0
 377 0258 A147     		li	a5,8
 378 025a 238AF400 		sb	a5,20(s1)
 379              	.L9:
  97:C:/Users/stapi/OneDrive/Desktop/GD32VW553/V1_MQTT_OK/GD32VW55X_Wifi_BLE_SDK/GD32VW55x_RELEASE_V1.0.2/MSDK/cloud/alicloud/src/protocol/coap/local\CoAPExport.c **** 
 380              		.loc 1 97 5 is_stmt 1
 381 025e 83C54401 		lbu	a1,20(s1)
 382 0262 2285     		mv	a0,s0
 383 0264 97000000 		call	CoAPResource_init
 383      E7800000 
 384              	.LVL34:
 100:C:/Users/stapi/OneDrive/Desktop/GD32VW553/V1_MQTT_OK/GD32VW55X_Wifi_BLE_SDK/GD32VW55x_RELEASE_V1.0.2/MSDK/cloud/alicloud/src/protocol/coap/local\CoAPExport.c ****         param->obs_maxcount = COAP_DEFAULT_OBS_MAXCOUNT;
 385              		.loc 1 100 5
 100:C:/Users/stapi/OneDrive/Desktop/GD32VW553/V1_MQTT_OK/GD32VW55X_Wifi_BLE_SDK/GD32VW55x_RELEASE_V1.0.2/MSDK/cloud/alicloud/src/protocol/coap/local\CoAPExport.c ****         param->obs_maxcount = COAP_DEFAULT_OBS_MAXCOUNT;
 386              		.loc 1 100 8 is_stmt 0
 387 026c 83C71400 		lbu	a5,1(s1)
 388 0270 81E7     		bne	a5,zero,.L10
 101:C:/Users/stapi/OneDrive/Desktop/GD32VW553/V1_MQTT_OK/GD32VW55X_Wifi_BLE_SDK/GD32VW55x_RELEASE_V1.0.2/MSDK/cloud/alicloud/src/protocol/coap/local\CoAPExport.c ****     }
 389              		.loc 1 101 9 is_stmt 1
 101:C:/Users/stapi/OneDrive/Desktop/GD32VW553/V1_MQTT_OK/GD32VW55X_Wifi_BLE_SDK/GD32VW55x_RELEASE_V1.0.2/MSDK/cloud/alicloud/src/protocol/coap/local\CoAPExport.c ****     }
 390              		.loc 1 101 29 is_stmt 0
 391 0272 A147     		li	a5,8
 392 0274 A380F400 		sb	a5,1(s1)
 393              	.L10:
 103:C:/Users/stapi/OneDrive/Desktop/GD32VW553/V1_MQTT_OK/GD32VW55X_Wifi_BLE_SDK/GD32VW55x_RELEASE_V1.0.2/MSDK/cloud/alicloud/src/protocol/coap/local\CoAPExport.c **** #endif
 394              		.loc 1 103 5 is_stmt 1
 395 0278 83C51400 		lbu	a1,1(s1)
 396 027c 2285     		mv	a0,s0
 397 027e 97000000 		call	CoAPObsServer_init
 397      E7800000 
 398              	.LVL35:
 117:C:/Users/stapi/OneDrive/Desktop/GD32VW553/V1_MQTT_OK/GD32VW55X_Wifi_BLE_SDK/GD32VW55x_RELEASE_V1.0.2/MSDK/cloud/alicloud/src/protocol/coap/local\CoAPExport.c ****     network_param.port = param->port;
 399              		.loc 1 117 5
 118:C:/Users/stapi/OneDrive/Desktop/GD32VW553/V1_MQTT_OK/GD32VW55X_Wifi_BLE_SDK/GD32VW55x_RELEASE_V1.0.2/MSDK/cloud/alicloud/src/protocol/coap/local\CoAPExport.c ****     network_param.group = param->group;
 400              		.loc 1 118 24 is_stmt 0
 401 0286 83D72400 		lhu	a5,2(s1)
 124:C:/Users/stapi/OneDrive/Desktop/GD32VW553/V1_MQTT_OK/GD32VW55X_Wifi_BLE_SDK/GD32VW55x_RELEASE_V1.0.2/MSDK/cloud/alicloud/src/protocol/coap/local\CoAPExport.c **** 
 402              		.loc 1 124 24
 403 028a 4800     		addi	a0,sp,4
 117:C:/Users/stapi/OneDrive/Desktop/GD32VW553/V1_MQTT_OK/GD32VW55X_Wifi_BLE_SDK/GD32VW55x_RELEASE_V1.0.2/MSDK/cloud/alicloud/src/protocol/coap/local\CoAPExport.c ****     network_param.port = param->port;
 404              		.loc 1 117 24
 405 028c 02C2     		sw	zero,4(sp)
 118:C:/Users/stapi/OneDrive/Desktop/GD32VW553/V1_MQTT_OK/GD32VW55X_Wifi_BLE_SDK/GD32VW55x_RELEASE_V1.0.2/MSDK/cloud/alicloud/src/protocol/coap/local\CoAPExport.c ****     network_param.group = param->group;
 406              		.loc 1 118 5 is_stmt 1
 118:C:/Users/stapi/OneDrive/Desktop/GD32VW553/V1_MQTT_OK/GD32VW55X_Wifi_BLE_SDK/GD32VW55x_RELEASE_V1.0.2/MSDK/cloud/alicloud/src/protocol/coap/local\CoAPExport.c ****     network_param.group = param->group;
 407              		.loc 1 118 24 is_stmt 0
 408 028e 2316F100 		sh	a5,12(sp)
 119:C:/Users/stapi/OneDrive/Desktop/GD32VW553/V1_MQTT_OK/GD32VW55X_Wifi_BLE_SDK/GD32VW55x_RELEASE_V1.0.2/MSDK/cloud/alicloud/src/protocol/coap/local\CoAPExport.c **** #endif
 409              		.loc 1 119 5 is_stmt 1
 119:C:/Users/stapi/OneDrive/Desktop/GD32VW553/V1_MQTT_OK/GD32VW55X_Wifi_BLE_SDK/GD32VW55x_RELEASE_V1.0.2/MSDK/cloud/alicloud/src/protocol/coap/local\CoAPExport.c **** #endif
 410              		.loc 1 119 25 is_stmt 0
 411 0292 DC40     		lw	a5,4(s1)
 412 0294 3EC4     		sw	a5,8(sp)
 124:C:/Users/stapi/OneDrive/Desktop/GD32VW553/V1_MQTT_OK/GD32VW55X_Wifi_BLE_SDK/GD32VW55x_RELEASE_V1.0.2/MSDK/cloud/alicloud/src/protocol/coap/local\CoAPExport.c **** 
 413              		.loc 1 124 5 is_stmt 1
 124:C:/Users/stapi/OneDrive/Desktop/GD32VW553/V1_MQTT_OK/GD32VW55X_Wifi_BLE_SDK/GD32VW55x_RELEASE_V1.0.2/MSDK/cloud/alicloud/src/protocol/coap/local\CoAPExport.c **** 
 414              		.loc 1 124 24 is_stmt 0
 415 0296 97000000 		call	CoAPNetwork_init
 415      E7800000 
 416              	.LVL36:
 124:C:/Users/stapi/OneDrive/Desktop/GD32VW553/V1_MQTT_OK/GD32VW55X_Wifi_BLE_SDK/GD32VW55x_RELEASE_V1.0.2/MSDK/cloud/alicloud/src/protocol/coap/local\CoAPExport.c **** 
 417              		.loc 1 124 22
 418 029e 48C0     		sw	a0,4(s0)
 126:C:/Users/stapi/OneDrive/Desktop/GD32VW553/V1_MQTT_OK/GD32VW55X_Wifi_BLE_SDK/GD32VW55x_RELEASE_V1.0.2/MSDK/cloud/alicloud/src/protocol/coap/local\CoAPExport.c ****         COAP_ERR("CoAP Network init failed, exit");
 419              		.loc 1 126 5 is_stmt 1
 126:C:/Users/stapi/OneDrive/Desktop/GD32VW553/V1_MQTT_OK/GD32VW55X_Wifi_BLE_SDK/GD32VW55x_RELEASE_V1.0.2/MSDK/cloud/alicloud/src/protocol/coap/local\CoAPExport.c ****         COAP_ERR("CoAP Network init failed, exit");
 420              		.loc 1 126 8 is_stmt 0
 421 02a0 E31B05DA 		bne	a0,zero,.L1
 127:C:/Users/stapi/OneDrive/Desktop/GD32VW553/V1_MQTT_OK/GD32VW55X_Wifi_BLE_SDK/GD32VW55x_RELEASE_V1.0.2/MSDK/cloud/alicloud/src/protocol/coap/local\CoAPExport.c ****         goto err;
 422              		.loc 1 127 9 is_stmt 1
 127:C:/Users/stapi/OneDrive/Desktop/GD32VW553/V1_MQTT_OK/GD32VW55X_Wifi_BLE_SDK/GD32VW55x_RELEASE_V1.0.2/MSDK/cloud/alicloud/src/protocol/coap/local\CoAPExport.c ****         goto err;
 423              		.loc 1 127 9
 424 02a4 37050000 		lui	a0,%hi(.LC0)
 425 02a8 13050500 		addi	a0,a0,%lo(.LC0)
 426 02ac 97000000 		call	HAL_Printf
 426      E7800000 
 427              	.LVL37:
 127:C:/Users/stapi/OneDrive/Desktop/GD32VW553/V1_MQTT_OK/GD32VW55X_Wifi_BLE_SDK/GD32VW55x_RELEASE_V1.0.2/MSDK/cloud/alicloud/src/protocol/coap/local\CoAPExport.c ****         goto err;
 428              		.loc 1 127 9
 429 02b4 37050000 		lui	a0,%hi(.LC12)
 430 02b8 13050500 		addi	a0,a0,%lo(.LC12)
 431 02bc D1B5     		j	.L23
 432              	.L13:
 138:C:/Users/stapi/OneDrive/Desktop/GD32VW553/V1_MQTT_OK/GD32VW55X_Wifi_BLE_SDK/GD32VW55x_RELEASE_V1.0.2/MSDK/cloud/alicloud/src/protocol/coap/local\CoAPExport.c ****         p_ctx->recvbuf = NULL;
 433              		.loc 1 138 9
 434 02be 97000000 		call	LITE_free_internal
 434      E7800000 
 435              	.LVL38:
 139:C:/Users/stapi/OneDrive/Desktop/GD32VW553/V1_MQTT_OK/GD32VW55X_Wifi_BLE_SDK/GD32VW55x_RELEASE_V1.0.2/MSDK/cloud/alicloud/src/protocol/coap/local\CoAPExport.c ****     }
 436              		.loc 1 139 9
 139:C:/Users/stapi/OneDrive/Desktop/GD32VW553/V1_MQTT_OK/GD32VW55X_Wifi_BLE_SDK/GD32VW55x_RELEASE_V1.0.2/MSDK/cloud/alicloud/src/protocol/coap/local\CoAPExport.c ****     }
 437              		.loc 1 139 24 is_stmt 0
 438 02c6 23280400 		sw	zero,16(s0)
 439 02ca D1BD     		j	.L14
 440              		.cfi_endproc
 441              	.LFE20:
 443              		.section	.text.CoAPContextAppdata_get,"ax",@progbits
 444              		.align	1
 445              		.globl	CoAPContextAppdata_get
 447              	CoAPContextAppdata_get:
 448              	.LFB21:
 175:C:/Users/stapi/OneDrive/Desktop/GD32VW553/V1_MQTT_OK/GD32VW55X_Wifi_BLE_SDK/GD32VW55x_RELEASE_V1.0.2/MSDK/cloud/alicloud/src/protocol/coap/local\CoAPExport.c **** 
 176:C:/Users/stapi/OneDrive/Desktop/GD32VW553/V1_MQTT_OK/GD32VW55X_Wifi_BLE_SDK/GD32VW55x_RELEASE_V1.0.2/MSDK/cloud/alicloud/src/protocol/coap/local\CoAPExport.c **** void *CoAPContextAppdata_get(CoAPContext *context)
 177:C:/Users/stapi/OneDrive/Desktop/GD32VW553/V1_MQTT_OK/GD32VW55X_Wifi_BLE_SDK/GD32VW55x_RELEASE_V1.0.2/MSDK/cloud/alicloud/src/protocol/coap/local\CoAPExport.c **** {
 449              		.loc 1 177 1 is_stmt 1
 450              		.cfi_startproc
 451              	.LVL39:
 178:C:/Users/stapi/OneDrive/Desktop/GD32VW553/V1_MQTT_OK/GD32VW55X_Wifi_BLE_SDK/GD32VW55x_RELEASE_V1.0.2/MSDK/cloud/alicloud/src/protocol/coap/local\CoAPExport.c ****     CoAPIntContext *p_ctx = (CoAPIntContext *)context;
 452              		.loc 1 178 5
 179:C:/Users/stapi/OneDrive/Desktop/GD32VW553/V1_MQTT_OK/GD32VW55X_Wifi_BLE_SDK/GD32VW55x_RELEASE_V1.0.2/MSDK/cloud/alicloud/src/protocol/coap/local\CoAPExport.c ****     if (NULL == p_ctx) {
 453              		.loc 1 179 5
 454              		.loc 1 179 8 is_stmt 0
 455 0000 11C1     		beq	a0,zero,.L25
 180:C:/Users/stapi/OneDrive/Desktop/GD32VW553/V1_MQTT_OK/GD32VW55X_Wifi_BLE_SDK/GD32VW55x_RELEASE_V1.0.2/MSDK/cloud/alicloud/src/protocol/coap/local\CoAPExport.c ****         return NULL;
 181:C:/Users/stapi/OneDrive/Desktop/GD32VW553/V1_MQTT_OK/GD32VW55X_Wifi_BLE_SDK/GD32VW55x_RELEASE_V1.0.2/MSDK/cloud/alicloud/src/protocol/coap/local\CoAPExport.c ****     }
 182:C:/Users/stapi/OneDrive/Desktop/GD32VW553/V1_MQTT_OK/GD32VW55X_Wifi_BLE_SDK/GD32VW55x_RELEASE_V1.0.2/MSDK/cloud/alicloud/src/protocol/coap/local\CoAPExport.c **** 
 183:C:/Users/stapi/OneDrive/Desktop/GD32VW553/V1_MQTT_OK/GD32VW55X_Wifi_BLE_SDK/GD32VW55x_RELEASE_V1.0.2/MSDK/cloud/alicloud/src/protocol/coap/local\CoAPExport.c ****     return (void *)p_ctx->appdata;
 456              		.loc 1 183 5 is_stmt 1
 457              		.loc 1 183 12 is_stmt 0
 458 0002 284D     		lw	a0,88(a0)
 459              	.LVL40:
 460              	.L25:
 184:C:/Users/stapi/OneDrive/Desktop/GD32VW553/V1_MQTT_OK/GD32VW55X_Wifi_BLE_SDK/GD32VW55x_RELEASE_V1.0.2/MSDK/cloud/alicloud/src/protocol/coap/local\CoAPExport.c **** }
 461              		.loc 1 184 1
 462 0004 8280     		ret
 463              		.cfi_endproc
 464              	.LFE21:
 466              		.section	.rodata.CoAPContext_free.str1.4,"aMS",@progbits,1
 467              		.align	2
 468              	.LC13:
 469 0000 436F4150 		.string	"CoAP Network Deinit"
 469      204E6574 
 469      776F726B 
 469      20446569 
 469      6E697400 
 470              		.align	2
 471              	.LC14:
 472 0014 52656C65 		.string	"Release Send List and Memory"
 472      61736520 
 472      53656E64 
 472      204C6973 
 472      7420616E 
 473 0031 000000   		.align	2
 474              	.LC15:
 475 0034 436F4150 		.string	"CoAP Observe Server Deinit"
 475      204F6273 
 475      65727665 
 475      20536572 
 475      76657220 
 476 004f 00       		.align	2
 477              	.LC16:
 478 0050 436F4150 		.string	"CoAP Resource unregister"
 478      20526573 
 478      6F757263 
 478      6520756E 
 478      72656769 
 479 0069 000000   		.align	2
 480              	.LC17:
 481 006c 52656C65 		.string	"Release The Recv Memory"
 481      61736520 
 481      54686520 
 481      52656376 
 481      204D656D 
 482              		.align	2
 483              	.LC18:
 484 0084 52656C65 		.string	"Release The CoAP Context"
 484      61736520 
 484      54686520 
 484      436F4150 
 484      20436F6E 
 485              		.section	.text.CoAPContext_free,"ax",@progbits
 486              		.align	1
 487              		.globl	CoAPContext_free
 489              	CoAPContext_free:
 490              	.LFB22:
 185:C:/Users/stapi/OneDrive/Desktop/GD32VW553/V1_MQTT_OK/GD32VW55X_Wifi_BLE_SDK/GD32VW55x_RELEASE_V1.0.2/MSDK/cloud/alicloud/src/protocol/coap/local\CoAPExport.c **** 
 186:C:/Users/stapi/OneDrive/Desktop/GD32VW553/V1_MQTT_OK/GD32VW55X_Wifi_BLE_SDK/GD32VW55x_RELEASE_V1.0.2/MSDK/cloud/alicloud/src/protocol/coap/local\CoAPExport.c **** 
 187:C:/Users/stapi/OneDrive/Desktop/GD32VW553/V1_MQTT_OK/GD32VW55X_Wifi_BLE_SDK/GD32VW55x_RELEASE_V1.0.2/MSDK/cloud/alicloud/src/protocol/coap/local\CoAPExport.c **** void CoAPContext_free(CoAPContext *context)
 188:C:/Users/stapi/OneDrive/Desktop/GD32VW553/V1_MQTT_OK/GD32VW55X_Wifi_BLE_SDK/GD32VW55x_RELEASE_V1.0.2/MSDK/cloud/alicloud/src/protocol/coap/local\CoAPExport.c **** {
 491              		.loc 1 188 1 is_stmt 1
 492              		.cfi_startproc
 493              	.LVL41:
 189:C:/Users/stapi/OneDrive/Desktop/GD32VW553/V1_MQTT_OK/GD32VW55X_Wifi_BLE_SDK/GD32VW55x_RELEASE_V1.0.2/MSDK/cloud/alicloud/src/protocol/coap/local\CoAPExport.c ****     CoAPIntContext *p_ctx = NULL;
 494              		.loc 1 189 5
 190:C:/Users/stapi/OneDrive/Desktop/GD32VW553/V1_MQTT_OK/GD32VW55X_Wifi_BLE_SDK/GD32VW55x_RELEASE_V1.0.2/MSDK/cloud/alicloud/src/protocol/coap/local\CoAPExport.c ****     CoAPSendNode *cur = NULL, *next = NULL;
 495              		.loc 1 190 5
 191:C:/Users/stapi/OneDrive/Desktop/GD32VW553/V1_MQTT_OK/GD32VW55X_Wifi_BLE_SDK/GD32VW55x_RELEASE_V1.0.2/MSDK/cloud/alicloud/src/protocol/coap/local\CoAPExport.c ****     if (NULL == context) {
 496              		.loc 1 191 5
 497              		.loc 1 191 8 is_stmt 0
 498 0000 63020518 		beq	a0,zero,.L45
 188:C:/Users/stapi/OneDrive/Desktop/GD32VW553/V1_MQTT_OK/GD32VW55X_Wifi_BLE_SDK/GD32VW55x_RELEASE_V1.0.2/MSDK/cloud/alicloud/src/protocol/coap/local\CoAPExport.c ****     CoAPIntContext *p_ctx = NULL;
 499              		.loc 1 188 1
 500 0004 17030000 		call	t0,__riscv_save_6
 500      E7020300 
 501              		.cfi_offset 21, -28
 502              		.cfi_offset 20, -24
 503              		.cfi_offset 19, -20
 504              		.cfi_offset 18, -16
 505              		.cfi_offset 9, -12
 506              		.cfi_offset 8, -8
 507              		.cfi_offset 1, -4
 508              		.cfi_def_cfa_offset 32
 509 000c 2A84     		mv	s0,a0
 192:C:/Users/stapi/OneDrive/Desktop/GD32VW553/V1_MQTT_OK/GD32VW55X_Wifi_BLE_SDK/GD32VW55x_RELEASE_V1.0.2/MSDK/cloud/alicloud/src/protocol/coap/local\CoAPExport.c ****         return;
 193:C:/Users/stapi/OneDrive/Desktop/GD32VW553/V1_MQTT_OK/GD32VW55X_Wifi_BLE_SDK/GD32VW55x_RELEASE_V1.0.2/MSDK/cloud/alicloud/src/protocol/coap/local\CoAPExport.c ****     }
 194:C:/Users/stapi/OneDrive/Desktop/GD32VW553/V1_MQTT_OK/GD32VW55X_Wifi_BLE_SDK/GD32VW55x_RELEASE_V1.0.2/MSDK/cloud/alicloud/src/protocol/coap/local\CoAPExport.c **** 
 195:C:/Users/stapi/OneDrive/Desktop/GD32VW553/V1_MQTT_OK/GD32VW55X_Wifi_BLE_SDK/GD32VW55x_RELEASE_V1.0.2/MSDK/cloud/alicloud/src/protocol/coap/local\CoAPExport.c ****     p_ctx = (CoAPIntContext *)context;
 510              		.loc 1 195 5 is_stmt 1
 511              	.LVL42:
 196:C:/Users/stapi/OneDrive/Desktop/GD32VW553/V1_MQTT_OK/GD32VW55X_Wifi_BLE_SDK/GD32VW55x_RELEASE_V1.0.2/MSDK/cloud/alicloud/src/protocol/coap/local\CoAPExport.c **** 
 197:C:/Users/stapi/OneDrive/Desktop/GD32VW553/V1_MQTT_OK/GD32VW55X_Wifi_BLE_SDK/GD32VW55x_RELEASE_V1.0.2/MSDK/cloud/alicloud/src/protocol/coap/local\CoAPExport.c ****     CoAPNetwork_deinit(p_ctx->p_network);
 512              		.loc 1 197 5
 513 000e 4841     		lw	a0,4(a0)
 514              	.LVL43:
 198:C:/Users/stapi/OneDrive/Desktop/GD32VW553/V1_MQTT_OK/GD32VW55X_Wifi_BLE_SDK/GD32VW55x_RELEASE_V1.0.2/MSDK/cloud/alicloud/src/protocol/coap/local\CoAPExport.c ****     COAP_DEBUG("CoAP Network Deinit");
 515              		.loc 1 198 5 is_stmt 0
 516 0010 B70A0000 		lui	s5,%hi(.LANCHOR1)
 517 0014 B7040000 		lui	s1,%hi(.LC4)
 197:C:/Users/stapi/OneDrive/Desktop/GD32VW553/V1_MQTT_OK/GD32VW55X_Wifi_BLE_SDK/GD32VW55x_RELEASE_V1.0.2/MSDK/cloud/alicloud/src/protocol/coap/local\CoAPExport.c ****     COAP_DEBUG("CoAP Network Deinit");
 518              		.loc 1 197 5
 519 0018 97000000 		call	CoAPNetwork_deinit
 519      E7800000 
 520              	.LVL44:
 521              		.loc 1 198 5 is_stmt 1
 522 0020 37070000 		lui	a4,%hi(.LC13)
 523 0024 13070700 		addi	a4,a4,%lo(.LC13)
 524 0028 9546     		li	a3,5
 525 002a 1306600C 		li	a2,198
 526 002e 93850A00 		addi	a1,s5,%lo(.LANCHOR1)
 527 0032 13850400 		addi	a0,s1,%lo(.LC4)
 528 0036 97000000 		call	LITE_syslog
 528      E7800000 
 529              	.LVL45:
 199:C:/Users/stapi/OneDrive/Desktop/GD32VW553/V1_MQTT_OK/GD32VW55X_Wifi_BLE_SDK/GD32VW55x_RELEASE_V1.0.2/MSDK/cloud/alicloud/src/protocol/coap/local\CoAPExport.c **** 
 200:C:/Users/stapi/OneDrive/Desktop/GD32VW553/V1_MQTT_OK/GD32VW55X_Wifi_BLE_SDK/GD32VW55x_RELEASE_V1.0.2/MSDK/cloud/alicloud/src/protocol/coap/local\CoAPExport.c ****     HAL_MutexLock(p_ctx->sendlist.list_mutex);
 530              		.loc 1 200 5
 531 003e 4848     		lw	a0,20(s0)
 201:C:/Users/stapi/OneDrive/Desktop/GD32VW553/V1_MQTT_OK/GD32VW55X_Wifi_BLE_SDK/GD32VW55x_RELEASE_V1.0.2/MSDK/cloud/alicloud/src/protocol/coap/local\CoAPExport.c ****     list_for_each_entry_safe(cur, next, &p_ctx->sendlist.list, sendlist, CoAPSendNode) {
 532              		.loc 1 201 5 is_stmt 0
 533 0040 130A8401 		addi	s4,s0,24
 200:C:/Users/stapi/OneDrive/Desktop/GD32VW553/V1_MQTT_OK/GD32VW55X_Wifi_BLE_SDK/GD32VW55x_RELEASE_V1.0.2/MSDK/cloud/alicloud/src/protocol/coap/local\CoAPExport.c ****     list_for_each_entry_safe(cur, next, &p_ctx->sendlist.list, sendlist, CoAPSendNode) {
 534              		.loc 1 200 5
 535 0044 97000000 		call	HAL_MutexLock
 535      E7800000 
 536              	.LVL46:
 537              		.loc 1 201 5 is_stmt 1
 538 004c 5C4C     		lw	a5,28(s0)
 539 004e 83A94700 		lw	s3,4(a5)
 540 0052 138987FC 		addi	s2,a5,-56
 541              	.LVL47:
 542 0056 938989FC 		addi	s3,s3,-56
 543              	.LVL48:
 544              	.L31:
 545              		.loc 1 201 5 discriminator 1
 546 005a 93078903 		addi	a5,s2,56
 547 005e 631FFA0E 		bne	s4,a5,.L33
 202:C:/Users/stapi/OneDrive/Desktop/GD32VW553/V1_MQTT_OK/GD32VW55X_Wifi_BLE_SDK/GD32VW55x_RELEASE_V1.0.2/MSDK/cloud/alicloud/src/protocol/coap/local\CoAPExport.c ****         if (NULL != cur) {
 203:C:/Users/stapi/OneDrive/Desktop/GD32VW553/V1_MQTT_OK/GD32VW55X_Wifi_BLE_SDK/GD32VW55x_RELEASE_V1.0.2/MSDK/cloud/alicloud/src/protocol/coap/local\CoAPExport.c ****             if (NULL != cur->message) {
 204:C:/Users/stapi/OneDrive/Desktop/GD32VW553/V1_MQTT_OK/GD32VW55X_Wifi_BLE_SDK/GD32VW55x_RELEASE_V1.0.2/MSDK/cloud/alicloud/src/protocol/coap/local\CoAPExport.c ****                 coap_free(cur->message);
 205:C:/Users/stapi/OneDrive/Desktop/GD32VW553/V1_MQTT_OK/GD32VW55X_Wifi_BLE_SDK/GD32VW55x_RELEASE_V1.0.2/MSDK/cloud/alicloud/src/protocol/coap/local\CoAPExport.c ****                 cur->message = NULL;
 206:C:/Users/stapi/OneDrive/Desktop/GD32VW553/V1_MQTT_OK/GD32VW55X_Wifi_BLE_SDK/GD32VW55x_RELEASE_V1.0.2/MSDK/cloud/alicloud/src/protocol/coap/local\CoAPExport.c ****             }
 207:C:/Users/stapi/OneDrive/Desktop/GD32VW553/V1_MQTT_OK/GD32VW55X_Wifi_BLE_SDK/GD32VW55x_RELEASE_V1.0.2/MSDK/cloud/alicloud/src/protocol/coap/local\CoAPExport.c ****             coap_free(cur);
 208:C:/Users/stapi/OneDrive/Desktop/GD32VW553/V1_MQTT_OK/GD32VW55X_Wifi_BLE_SDK/GD32VW55x_RELEASE_V1.0.2/MSDK/cloud/alicloud/src/protocol/coap/local\CoAPExport.c ****             cur = NULL;
 209:C:/Users/stapi/OneDrive/Desktop/GD32VW553/V1_MQTT_OK/GD32VW55X_Wifi_BLE_SDK/GD32VW55x_RELEASE_V1.0.2/MSDK/cloud/alicloud/src/protocol/coap/local\CoAPExport.c ****         }
 210:C:/Users/stapi/OneDrive/Desktop/GD32VW553/V1_MQTT_OK/GD32VW55X_Wifi_BLE_SDK/GD32VW55x_RELEASE_V1.0.2/MSDK/cloud/alicloud/src/protocol/coap/local\CoAPExport.c ****     }
 211:C:/Users/stapi/OneDrive/Desktop/GD32VW553/V1_MQTT_OK/GD32VW55X_Wifi_BLE_SDK/GD32VW55x_RELEASE_V1.0.2/MSDK/cloud/alicloud/src/protocol/coap/local\CoAPExport.c ****     INIT_LIST_HEAD(&p_ctx->sendlist.list);
 548              		.loc 1 211 5
 549              	.LVL49:
 550              	.LBB8:
 551              	.LBB9:
  82:..\..\..\..\cloud\alicloud\src\infra\utils\misc/lite-list.h ****     list->prev = list;
 552              		.loc 2 82 5
 553              	.LBE9:
 554              	.LBE8:
 212:C:/Users/stapi/OneDrive/Desktop/GD32VW553/V1_MQTT_OK/GD32VW55X_Wifi_BLE_SDK/GD32VW55x_RELEASE_V1.0.2/MSDK/cloud/alicloud/src/protocol/coap/local\CoAPExport.c ****     HAL_MutexUnlock(p_ctx->sendlist.list_mutex);
 555              		.loc 1 212 5 is_stmt 0
 556 0062 4848     		lw	a0,20(s0)
 557              	.LBB11:
 558              	.LBB10:
  82:..\..\..\..\cloud\alicloud\src\infra\utils\misc/lite-list.h ****     list->prev = list;
 559              		.loc 2 82 16
 560 0064 232E4401 		sw	s4,28(s0)
 561              		.loc 2 83 5 is_stmt 1
 562              		.loc 2 83 16 is_stmt 0
 563 0068 232C4401 		sw	s4,24(s0)
 564              	.LVL50:
 565              	.LBE10:
 566              	.LBE11:
 567              		.loc 1 212 5 is_stmt 1
 568 006c 97000000 		call	HAL_MutexUnlock
 568      E7800000 
 569              	.LVL51:
 213:C:/Users/stapi/OneDrive/Desktop/GD32VW553/V1_MQTT_OK/GD32VW55X_Wifi_BLE_SDK/GD32VW55x_RELEASE_V1.0.2/MSDK/cloud/alicloud/src/protocol/coap/local\CoAPExport.c ****     HAL_MutexDestroy(p_ctx->sendlist.list_mutex);
 570              		.loc 1 213 5
 571 0074 4848     		lw	a0,20(s0)
 572 0076 97000000 		call	HAL_MutexDestroy
 572      E7800000 
 573              	.LVL52:
 214:C:/Users/stapi/OneDrive/Desktop/GD32VW553/V1_MQTT_OK/GD32VW55X_Wifi_BLE_SDK/GD32VW55x_RELEASE_V1.0.2/MSDK/cloud/alicloud/src/protocol/coap/local\CoAPExport.c ****     p_ctx->sendlist.list_mutex = NULL;
 574              		.loc 1 214 5
 215:C:/Users/stapi/OneDrive/Desktop/GD32VW553/V1_MQTT_OK/GD32VW55X_Wifi_BLE_SDK/GD32VW55x_RELEASE_V1.0.2/MSDK/cloud/alicloud/src/protocol/coap/local\CoAPExport.c ****     HAL_MutexDestroy(p_ctx->mutex);
 575              		.loc 1 215 5 is_stmt 0
 576 007e 684C     		lw	a0,92(s0)
 214:C:/Users/stapi/OneDrive/Desktop/GD32VW553/V1_MQTT_OK/GD32VW55X_Wifi_BLE_SDK/GD32VW55x_RELEASE_V1.0.2/MSDK/cloud/alicloud/src/protocol/coap/local\CoAPExport.c ****     p_ctx->sendlist.list_mutex = NULL;
 577              		.loc 1 214 32
 578 0080 232A0400 		sw	zero,20(s0)
 579              		.loc 1 215 5 is_stmt 1
 580 0084 97000000 		call	HAL_MutexDestroy
 580      E7800000 
 581              	.LVL53:
 216:C:/Users/stapi/OneDrive/Desktop/GD32VW553/V1_MQTT_OK/GD32VW55X_Wifi_BLE_SDK/GD32VW55x_RELEASE_V1.0.2/MSDK/cloud/alicloud/src/protocol/coap/local\CoAPExport.c ****     p_ctx->mutex = NULL;
 582              		.loc 1 216 5
 217:C:/Users/stapi/OneDrive/Desktop/GD32VW553/V1_MQTT_OK/GD32VW55X_Wifi_BLE_SDK/GD32VW55x_RELEASE_V1.0.2/MSDK/cloud/alicloud/src/protocol/coap/local\CoAPExport.c ****     COAP_DEBUG("Release Send List and Memory");
 583              		.loc 1 217 5 is_stmt 0
 584 008c 37070000 		lui	a4,%hi(.LC14)
 585 0090 13070700 		addi	a4,a4,%lo(.LC14)
 586 0094 9546     		li	a3,5
 587 0096 1306900D 		li	a2,217
 588 009a 93850A00 		addi	a1,s5,%lo(.LANCHOR1)
 589 009e 13850400 		addi	a0,s1,%lo(.LC4)
 216:C:/Users/stapi/OneDrive/Desktop/GD32VW553/V1_MQTT_OK/GD32VW55X_Wifi_BLE_SDK/GD32VW55x_RELEASE_V1.0.2/MSDK/cloud/alicloud/src/protocol/coap/local\CoAPExport.c ****     p_ctx->mutex = NULL;
 590              		.loc 1 216 18
 591 00a2 232E0404 		sw	zero,92(s0)
 592              		.loc 1 217 5 is_stmt 1
 593 00a6 97000000 		call	LITE_syslog
 593      E7800000 
 594              	.LVL54:
 218:C:/Users/stapi/OneDrive/Desktop/GD32VW553/V1_MQTT_OK/GD32VW55X_Wifi_BLE_SDK/GD32VW55x_RELEASE_V1.0.2/MSDK/cloud/alicloud/src/protocol/coap/local\CoAPExport.c **** 
 219:C:/Users/stapi/OneDrive/Desktop/GD32VW553/V1_MQTT_OK/GD32VW55X_Wifi_BLE_SDK/GD32VW55x_RELEASE_V1.0.2/MSDK/cloud/alicloud/src/protocol/coap/local\CoAPExport.c **** #ifndef COAP_OBSERVE_SERVER_DISABLE
 220:C:/Users/stapi/OneDrive/Desktop/GD32VW553/V1_MQTT_OK/GD32VW55X_Wifi_BLE_SDK/GD32VW55x_RELEASE_V1.0.2/MSDK/cloud/alicloud/src/protocol/coap/local\CoAPExport.c ****     CoAPObsServer_deinit(p_ctx);
 595              		.loc 1 220 5
 596 00ae 2285     		mv	a0,s0
 597 00b0 97000000 		call	CoAPObsServer_deinit
 597      E7800000 
 598              	.LVL55:
 221:C:/Users/stapi/OneDrive/Desktop/GD32VW553/V1_MQTT_OK/GD32VW55X_Wifi_BLE_SDK/GD32VW55x_RELEASE_V1.0.2/MSDK/cloud/alicloud/src/protocol/coap/local\CoAPExport.c ****     COAP_DEBUG("CoAP Observe Server Deinit");
 599              		.loc 1 221 5
 600 00b8 37070000 		lui	a4,%hi(.LC15)
 601 00bc 13070700 		addi	a4,a4,%lo(.LC15)
 602 00c0 9546     		li	a3,5
 603 00c2 1306D00D 		li	a2,221
 604 00c6 93850A00 		addi	a1,s5,%lo(.LANCHOR1)
 605 00ca 13850400 		addi	a0,s1,%lo(.LC4)
 606 00ce 97000000 		call	LITE_syslog
 606      E7800000 
 607              	.LVL56:
 222:C:/Users/stapi/OneDrive/Desktop/GD32VW553/V1_MQTT_OK/GD32VW55X_Wifi_BLE_SDK/GD32VW55x_RELEASE_V1.0.2/MSDK/cloud/alicloud/src/protocol/coap/local\CoAPExport.c **** #endif
 223:C:/Users/stapi/OneDrive/Desktop/GD32VW553/V1_MQTT_OK/GD32VW55X_Wifi_BLE_SDK/GD32VW55x_RELEASE_V1.0.2/MSDK/cloud/alicloud/src/protocol/coap/local\CoAPExport.c **** 
 224:C:/Users/stapi/OneDrive/Desktop/GD32VW553/V1_MQTT_OK/GD32VW55X_Wifi_BLE_SDK/GD32VW55x_RELEASE_V1.0.2/MSDK/cloud/alicloud/src/protocol/coap/local\CoAPExport.c **** 
 225:C:/Users/stapi/OneDrive/Desktop/GD32VW553/V1_MQTT_OK/GD32VW55X_Wifi_BLE_SDK/GD32VW55x_RELEASE_V1.0.2/MSDK/cloud/alicloud/src/protocol/coap/local\CoAPExport.c **** #ifndef COAP_OBSERVE_CLIENT_DISABLE
 226:C:/Users/stapi/OneDrive/Desktop/GD32VW553/V1_MQTT_OK/GD32VW55X_Wifi_BLE_SDK/GD32VW55x_RELEASE_V1.0.2/MSDK/cloud/alicloud/src/protocol/coap/local\CoAPExport.c ****     CoAPObsClient_deinit(p_ctx);
 227:C:/Users/stapi/OneDrive/Desktop/GD32VW553/V1_MQTT_OK/GD32VW55X_Wifi_BLE_SDK/GD32VW55x_RELEASE_V1.0.2/MSDK/cloud/alicloud/src/protocol/coap/local\CoAPExport.c ****     COAP_DEBUG("CoAP Observe Client Deinit");
 228:C:/Users/stapi/OneDrive/Desktop/GD32VW553/V1_MQTT_OK/GD32VW55X_Wifi_BLE_SDK/GD32VW55x_RELEASE_V1.0.2/MSDK/cloud/alicloud/src/protocol/coap/local\CoAPExport.c **** #endif
 229:C:/Users/stapi/OneDrive/Desktop/GD32VW553/V1_MQTT_OK/GD32VW55X_Wifi_BLE_SDK/GD32VW55x_RELEASE_V1.0.2/MSDK/cloud/alicloud/src/protocol/coap/local\CoAPExport.c **** 
 230:C:/Users/stapi/OneDrive/Desktop/GD32VW553/V1_MQTT_OK/GD32VW55X_Wifi_BLE_SDK/GD32VW55x_RELEASE_V1.0.2/MSDK/cloud/alicloud/src/protocol/coap/local\CoAPExport.c ****     CoAPResource_deinit(p_ctx);
 608              		.loc 1 230 5
 609 00d6 2285     		mv	a0,s0
 610 00d8 97000000 		call	CoAPResource_deinit
 610      E7800000 
 611              	.LVL57:
 231:C:/Users/stapi/OneDrive/Desktop/GD32VW553/V1_MQTT_OK/GD32VW55X_Wifi_BLE_SDK/GD32VW55x_RELEASE_V1.0.2/MSDK/cloud/alicloud/src/protocol/coap/local\CoAPExport.c ****     COAP_DEBUG("CoAP Resource unregister");
 612              		.loc 1 231 5
 613 00e0 37070000 		lui	a4,%hi(.LC16)
 614 00e4 13850400 		addi	a0,s1,%lo(.LC4)
 615 00e8 13070700 		addi	a4,a4,%lo(.LC16)
 616 00ec 9546     		li	a3,5
 617 00ee 1306700E 		li	a2,231
 618 00f2 93850A00 		addi	a1,s5,%lo(.LANCHOR1)
 619 00f6 97000000 		call	LITE_syslog
 619      E7800000 
 620              	.LVL58:
 232:C:/Users/stapi/OneDrive/Desktop/GD32VW553/V1_MQTT_OK/GD32VW55X_Wifi_BLE_SDK/GD32VW55x_RELEASE_V1.0.2/MSDK/cloud/alicloud/src/protocol/coap/local\CoAPExport.c **** 
 233:C:/Users/stapi/OneDrive/Desktop/GD32VW553/V1_MQTT_OK/GD32VW55X_Wifi_BLE_SDK/GD32VW55x_RELEASE_V1.0.2/MSDK/cloud/alicloud/src/protocol/coap/local\CoAPExport.c ****     if (NULL != p_ctx->recvbuf) {
 621              		.loc 1 233 5
 622              		.loc 1 233 22 is_stmt 0
 623 00fe 0848     		lw	a0,16(s0)
 624              		.loc 1 233 8
 625 0100 15C5     		beq	a0,zero,.L34
 234:C:/Users/stapi/OneDrive/Desktop/GD32VW553/V1_MQTT_OK/GD32VW55X_Wifi_BLE_SDK/GD32VW55x_RELEASE_V1.0.2/MSDK/cloud/alicloud/src/protocol/coap/local\CoAPExport.c ****         coap_free(p_ctx->recvbuf);
 626              		.loc 1 234 9 is_stmt 1
 627 0102 97000000 		call	LITE_free_internal
 627      E7800000 
 628              	.LVL59:
 235:C:/Users/stapi/OneDrive/Desktop/GD32VW553/V1_MQTT_OK/GD32VW55X_Wifi_BLE_SDK/GD32VW55x_RELEASE_V1.0.2/MSDK/cloud/alicloud/src/protocol/coap/local\CoAPExport.c ****         p_ctx->recvbuf = NULL;
 629              		.loc 1 235 9
 236:C:/Users/stapi/OneDrive/Desktop/GD32VW553/V1_MQTT_OK/GD32VW55X_Wifi_BLE_SDK/GD32VW55x_RELEASE_V1.0.2/MSDK/cloud/alicloud/src/protocol/coap/local\CoAPExport.c ****         COAP_DEBUG("Release The Recv Memory");
 630              		.loc 1 236 9 is_stmt 0
 631 010a 37070000 		lui	a4,%hi(.LC17)
 235:C:/Users/stapi/OneDrive/Desktop/GD32VW553/V1_MQTT_OK/GD32VW55X_Wifi_BLE_SDK/GD32VW55x_RELEASE_V1.0.2/MSDK/cloud/alicloud/src/protocol/coap/local\CoAPExport.c ****         p_ctx->recvbuf = NULL;
 632              		.loc 1 235 24
 633 010e 23280400 		sw	zero,16(s0)
 634              		.loc 1 236 9 is_stmt 1
 635 0112 13070700 		addi	a4,a4,%lo(.LC17)
 636 0116 9546     		li	a3,5
 637 0118 1306C00E 		li	a2,236
 638 011c 93850A00 		addi	a1,s5,%lo(.LANCHOR1)
 639 0120 13850400 		addi	a0,s1,%lo(.LC4)
 640 0124 97000000 		call	LITE_syslog
 640      E7800000 
 641              	.LVL60:
 642              	.L34:
 237:C:/Users/stapi/OneDrive/Desktop/GD32VW553/V1_MQTT_OK/GD32VW55X_Wifi_BLE_SDK/GD32VW55x_RELEASE_V1.0.2/MSDK/cloud/alicloud/src/protocol/coap/local\CoAPExport.c ****     }
 238:C:/Users/stapi/OneDrive/Desktop/GD32VW553/V1_MQTT_OK/GD32VW55X_Wifi_BLE_SDK/GD32VW55x_RELEASE_V1.0.2/MSDK/cloud/alicloud/src/protocol/coap/local\CoAPExport.c **** #ifdef USE_SENDBUFF
 239:C:/Users/stapi/OneDrive/Desktop/GD32VW553/V1_MQTT_OK/GD32VW55X_Wifi_BLE_SDK/GD32VW55x_RELEASE_V1.0.2/MSDK/cloud/alicloud/src/protocol/coap/local\CoAPExport.c ****     if (NULL != p_ctx->sendbuf) {
 240:C:/Users/stapi/OneDrive/Desktop/GD32VW553/V1_MQTT_OK/GD32VW55X_Wifi_BLE_SDK/GD32VW55x_RELEASE_V1.0.2/MSDK/cloud/alicloud/src/protocol/coap/local\CoAPExport.c ****         coap_free(p_ctx->sendbuf);
 241:C:/Users/stapi/OneDrive/Desktop/GD32VW553/V1_MQTT_OK/GD32VW55X_Wifi_BLE_SDK/GD32VW55x_RELEASE_V1.0.2/MSDK/cloud/alicloud/src/protocol/coap/local\CoAPExport.c ****         p_ctx->sendbuf = NULL;
 242:C:/Users/stapi/OneDrive/Desktop/GD32VW553/V1_MQTT_OK/GD32VW55X_Wifi_BLE_SDK/GD32VW55x_RELEASE_V1.0.2/MSDK/cloud/alicloud/src/protocol/coap/local\CoAPExport.c ****         COAP_DEBUG("Release The Send Memory");
 243:C:/Users/stapi/OneDrive/Desktop/GD32VW553/V1_MQTT_OK/GD32VW55X_Wifi_BLE_SDK/GD32VW55x_RELEASE_V1.0.2/MSDK/cloud/alicloud/src/protocol/coap/local\CoAPExport.c ****     }
 244:C:/Users/stapi/OneDrive/Desktop/GD32VW553/V1_MQTT_OK/GD32VW55X_Wifi_BLE_SDK/GD32VW55x_RELEASE_V1.0.2/MSDK/cloud/alicloud/src/protocol/coap/local\CoAPExport.c **** #endif
 245:C:/Users/stapi/OneDrive/Desktop/GD32VW553/V1_MQTT_OK/GD32VW55X_Wifi_BLE_SDK/GD32VW55x_RELEASE_V1.0.2/MSDK/cloud/alicloud/src/protocol/coap/local\CoAPExport.c **** 
 246:C:/Users/stapi/OneDrive/Desktop/GD32VW553/V1_MQTT_OK/GD32VW55X_Wifi_BLE_SDK/GD32VW55x_RELEASE_V1.0.2/MSDK/cloud/alicloud/src/protocol/coap/local\CoAPExport.c ****     if (NULL != p_ctx) {
 643              		.loc 1 246 5
 247:C:/Users/stapi/OneDrive/Desktop/GD32VW553/V1_MQTT_OK/GD32VW55X_Wifi_BLE_SDK/GD32VW55x_RELEASE_V1.0.2/MSDK/cloud/alicloud/src/protocol/coap/local\CoAPExport.c ****         coap_free(p_ctx);
 644              		.loc 1 247 9
 645 012c 2285     		mv	a0,s0
 646 012e 97000000 		call	LITE_free_internal
 646      E7800000 
 647              	.LVL61:
 248:C:/Users/stapi/OneDrive/Desktop/GD32VW553/V1_MQTT_OK/GD32VW55X_Wifi_BLE_SDK/GD32VW55x_RELEASE_V1.0.2/MSDK/cloud/alicloud/src/protocol/coap/local\CoAPExport.c ****         p_ctx    =  NULL;
 648              		.loc 1 248 9
 249:C:/Users/stapi/OneDrive/Desktop/GD32VW553/V1_MQTT_OK/GD32VW55X_Wifi_BLE_SDK/GD32VW55x_RELEASE_V1.0.2/MSDK/cloud/alicloud/src/protocol/coap/local\CoAPExport.c ****         COAP_DEBUG("Release The CoAP Context");
 649              		.loc 1 249 9
 650 0136 37070000 		lui	a4,%hi(.LC18)
 651 013a 13070700 		addi	a4,a4,%lo(.LC18)
 652 013e 9546     		li	a3,5
 653 0140 1306900F 		li	a2,249
 654 0144 93850A00 		addi	a1,s5,%lo(.LANCHOR1)
 655 0148 13850400 		addi	a0,s1,%lo(.LC4)
 656 014c 97000000 		call	LITE_syslog
 656      E7800000 
 657              	.LVL62:
 250:C:/Users/stapi/OneDrive/Desktop/GD32VW553/V1_MQTT_OK/GD32VW55X_Wifi_BLE_SDK/GD32VW55x_RELEASE_V1.0.2/MSDK/cloud/alicloud/src/protocol/coap/local\CoAPExport.c ****     }
 251:C:/Users/stapi/OneDrive/Desktop/GD32VW553/V1_MQTT_OK/GD32VW55X_Wifi_BLE_SDK/GD32VW55x_RELEASE_V1.0.2/MSDK/cloud/alicloud/src/protocol/coap/local\CoAPExport.c **** }
 658              		.loc 1 251 1 is_stmt 0
 659 0154 17030000 		tail	__riscv_restore_6
 659      67000300 
 660              		.cfi_remember_state
 661              		.cfi_restore 21
 662              		.cfi_restore 20
 663              		.cfi_restore 19
 664              		.cfi_restore 18
 665              		.cfi_restore 9
 666              		.cfi_restore 8
 667              		.cfi_restore 1
 668              		.cfi_def_cfa_offset 0
 669              	.LVL63:
 670              	.L33:
 671              		.cfi_restore_state
 202:C:/Users/stapi/OneDrive/Desktop/GD32VW553/V1_MQTT_OK/GD32VW55X_Wifi_BLE_SDK/GD32VW55x_RELEASE_V1.0.2/MSDK/cloud/alicloud/src/protocol/coap/local\CoAPExport.c ****             if (NULL != cur->message) {
 672              		.loc 1 202 9 is_stmt 1
 203:C:/Users/stapi/OneDrive/Desktop/GD32VW553/V1_MQTT_OK/GD32VW55X_Wifi_BLE_SDK/GD32VW55x_RELEASE_V1.0.2/MSDK/cloud/alicloud/src/protocol/coap/local\CoAPExport.c ****                 coap_free(cur->message);
 673              		.loc 1 203 13
 203:C:/Users/stapi/OneDrive/Desktop/GD32VW553/V1_MQTT_OK/GD32VW55X_Wifi_BLE_SDK/GD32VW55x_RELEASE_V1.0.2/MSDK/cloud/alicloud/src/protocol/coap/local\CoAPExport.c ****                 coap_free(cur->message);
 674              		.loc 1 203 28 is_stmt 0
 675 015c 03254904 		lw	a0,68(s2)
 203:C:/Users/stapi/OneDrive/Desktop/GD32VW553/V1_MQTT_OK/GD32VW55X_Wifi_BLE_SDK/GD32VW55x_RELEASE_V1.0.2/MSDK/cloud/alicloud/src/protocol/coap/local\CoAPExport.c ****                 coap_free(cur->message);
 676              		.loc 1 203 16
 677 0160 19C5     		beq	a0,zero,.L32
 204:C:/Users/stapi/OneDrive/Desktop/GD32VW553/V1_MQTT_OK/GD32VW55X_Wifi_BLE_SDK/GD32VW55x_RELEASE_V1.0.2/MSDK/cloud/alicloud/src/protocol/coap/local\CoAPExport.c ****                 cur->message = NULL;
 678              		.loc 1 204 17 is_stmt 1
 679 0162 97000000 		call	LITE_free_internal
 679      E7800000 
 680              	.LVL64:
 205:C:/Users/stapi/OneDrive/Desktop/GD32VW553/V1_MQTT_OK/GD32VW55X_Wifi_BLE_SDK/GD32VW55x_RELEASE_V1.0.2/MSDK/cloud/alicloud/src/protocol/coap/local\CoAPExport.c ****             }
 681              		.loc 1 205 17
 205:C:/Users/stapi/OneDrive/Desktop/GD32VW553/V1_MQTT_OK/GD32VW55X_Wifi_BLE_SDK/GD32VW55x_RELEASE_V1.0.2/MSDK/cloud/alicloud/src/protocol/coap/local\CoAPExport.c ****             }
 682              		.loc 1 205 30 is_stmt 0
 683 016a 23220904 		sw	zero,68(s2)
 684              	.L32:
 207:C:/Users/stapi/OneDrive/Desktop/GD32VW553/V1_MQTT_OK/GD32VW55X_Wifi_BLE_SDK/GD32VW55x_RELEASE_V1.0.2/MSDK/cloud/alicloud/src/protocol/coap/local\CoAPExport.c ****             cur = NULL;
 685              		.loc 1 207 13 is_stmt 1
 686 016e 4A85     		mv	a0,s2
 687 0170 97000000 		call	LITE_free_internal
 687      E7800000 
 688              	.LVL65:
 208:C:/Users/stapi/OneDrive/Desktop/GD32VW553/V1_MQTT_OK/GD32VW55X_Wifi_BLE_SDK/GD32VW55x_RELEASE_V1.0.2/MSDK/cloud/alicloud/src/protocol/coap/local\CoAPExport.c ****         }
 689              		.loc 1 208 13
 201:C:/Users/stapi/OneDrive/Desktop/GD32VW553/V1_MQTT_OK/GD32VW55X_Wifi_BLE_SDK/GD32VW55x_RELEASE_V1.0.2/MSDK/cloud/alicloud/src/protocol/coap/local\CoAPExport.c ****         if (NULL != cur) {
 690              		.loc 1 201 5
 691 0178 83A7C903 		lw	a5,60(s3)
 692              	.LVL66:
 693 017c 4E89     		mv	s2,s3
 694 017e 938987FC 		addi	s3,a5,-56
 695              	.LVL67:
 696 0182 E1BD     		j	.L31
 697              	.LVL68:
 698              	.L45:
 699              		.cfi_def_cfa_offset 0
 700              		.cfi_restore 1
 701              		.cfi_restore 8
 702              		.cfi_restore 9
 703              		.cfi_restore 18
 704              		.cfi_restore 19
 705              		.cfi_restore 20
 706              		.cfi_restore 21
 707 0184 8280     		ret
 708              		.cfi_endproc
 709              	.LFE22:
 711              		.section	.rodata.__FUNCTION__.0,"a"
 712              		.align	2
 713              		.set	.LANCHOR1,. + 0
 716              	__FUNCTION__.0:
 717 0000 436F4150 		.string	"CoAPContext_free"
 717      436F6E74 
 717      6578745F 
 717      66726565 
 717      00
 718              		.section	.rodata.__FUNCTION__.1,"a"
 719              		.align	2
 720              		.set	.LANCHOR0,. + 0
 723              	__FUNCTION__.1:
 724 0000 436F4150 		.string	"CoAPContext_create"
 724      436F6E74 
 724      6578745F 
 724      63726561 
 724      746500
 725              		.text
 726              	.Letext0:
 727              		.file 3 "c:\\users\\stapi\\onedrive\\desktop\\gd32vw553\\embeddedbuilder_v1.4.7.26843\\tools\\nucl
 728              		.file 4 "c:\\users\\stapi\\onedrive\\desktop\\gd32vw553\\embeddedbuilder_v1.4.7.26843\\tools\\nucl
 729              		.file 5 "c:\\users\\stapi\\onedrive\\desktop\\gd32vw553\\embeddedbuilder_v1.4.7.26843\\tools\\nucl
 730              		.file 6 "..\\..\\..\\..\\cloud\\alicloud\\include/iot_import.h"
 731              		.file 7 "C:/Users/stapi/OneDrive/Desktop/GD32VW553/V1_MQTT_OK/GD32VW55X_Wifi_BLE_SDK/GD32VW55x_REL
 732              		.file 8 "C:/Users/stapi/OneDrive/Desktop/GD32VW553/V1_MQTT_OK/GD32VW55X_Wifi_BLE_SDK/GD32VW55x_REL
 733              		.file 9 "C:/Users/stapi/OneDrive/Desktop/GD32VW553/V1_MQTT_OK/GD32VW55X_Wifi_BLE_SDK/GD32VW55x_REL
 734              		.file 10 "C:/Users/stapi/OneDrive/Desktop/GD32VW553/V1_MQTT_OK/GD32VW55X_Wifi_BLE_SDK/GD32VW55x_RE
 735              		.file 11 "..\\..\\..\\..\\cloud\\alicloud\\src\\infra\\log/iotx_log.h"
 736              		.file 12 "C:/Users/stapi/OneDrive/Desktop/GD32VW553/V1_MQTT_OK/GD32VW55X_Wifi_BLE_SDK/GD32VW55x_RE
 737              		.file 13 "C:/Users/stapi/OneDrive/Desktop/GD32VW553/V1_MQTT_OK/GD32VW55X_Wifi_BLE_SDK/GD32VW55x_RE
 738              		.file 14 "..\\..\\..\\..\\cloud\\alicloud\\src\\infra\\utils/iotx_utils.h"
 739              		.file 15 "<built-in>"