   1              		.file	"CoAPPlatform.c"
   2              		.option nopic
   3              		.attribute arch, "rv32i2p0_m2p0_a2p0_f2p0_c2p0_b_p0p94"
   4              		.attribute unaligned_access, 0
   5              		.attribute stack_align, 16
   6              		.text
   7              	.Ltext0:
   8              		.cfi_sections	.debug_frame
   9              		.section	.text.platform_aton,"ax",@progbits
  10              		.align	1
  11              		.globl	platform_aton
  13              	platform_aton:
  14              	.LFB20:
  15              		.file 1 "C:/Users/stapi/OneDrive/Desktop/GD32VW553/V1_MQTT_OK/GD32VW55X_Wifi_BLE_SDK/GD32VW55x_REL
   1:C:/Users/stapi/OneDrive/Desktop/GD32VW553/V1_MQTT_OK/GD32VW55X_Wifi_BLE_SDK/GD32VW55x_RELEASE_V1.0.2/MSDK/cloud/alicloud/src/protocol/coap/local\CoAPPlatform.c **** /*
   2:C:/Users/stapi/OneDrive/Desktop/GD32VW553/V1_MQTT_OK/GD32VW55X_Wifi_BLE_SDK/GD32VW55x_RELEASE_V1.0.2/MSDK/cloud/alicloud/src/protocol/coap/local\CoAPPlatform.c ****  * Copyright (C) 2015-2018 Alibaba Group Holding Limited
   3:C:/Users/stapi/OneDrive/Desktop/GD32VW553/V1_MQTT_OK/GD32VW55X_Wifi_BLE_SDK/GD32VW55x_RELEASE_V1.0.2/MSDK/cloud/alicloud/src/protocol/coap/local\CoAPPlatform.c ****  */
   4:C:/Users/stapi/OneDrive/Desktop/GD32VW553/V1_MQTT_OK/GD32VW55X_Wifi_BLE_SDK/GD32VW55x_RELEASE_V1.0.2/MSDK/cloud/alicloud/src/protocol/coap/local\CoAPPlatform.c **** 
   5:C:/Users/stapi/OneDrive/Desktop/GD32VW553/V1_MQTT_OK/GD32VW55X_Wifi_BLE_SDK/GD32VW55x_RELEASE_V1.0.2/MSDK/cloud/alicloud/src/protocol/coap/local\CoAPPlatform.c **** #include <stdio.h>
   6:C:/Users/stapi/OneDrive/Desktop/GD32VW553/V1_MQTT_OK/GD32VW55X_Wifi_BLE_SDK/GD32VW55x_RELEASE_V1.0.2/MSDK/cloud/alicloud/src/protocol/coap/local\CoAPPlatform.c **** #include <ctype.h>
   7:C:/Users/stapi/OneDrive/Desktop/GD32VW553/V1_MQTT_OK/GD32VW55X_Wifi_BLE_SDK/GD32VW55x_RELEASE_V1.0.2/MSDK/cloud/alicloud/src/protocol/coap/local\CoAPPlatform.c **** #include "CoAPPlatform.h"
   8:C:/Users/stapi/OneDrive/Desktop/GD32VW553/V1_MQTT_OK/GD32VW55X_Wifi_BLE_SDK/GD32VW55x_RELEASE_V1.0.2/MSDK/cloud/alicloud/src/protocol/coap/local\CoAPPlatform.c **** 
   9:C:/Users/stapi/OneDrive/Desktop/GD32VW553/V1_MQTT_OK/GD32VW55X_Wifi_BLE_SDK/GD32VW55x_RELEASE_V1.0.2/MSDK/cloud/alicloud/src/protocol/coap/local\CoAPPlatform.c **** #ifdef TEST_COAP_MEMORY
  10:C:/Users/stapi/OneDrive/Desktop/GD32VW553/V1_MQTT_OK/GD32VW55X_Wifi_BLE_SDK/GD32VW55x_RELEASE_V1.0.2/MSDK/cloud/alicloud/src/protocol/coap/local\CoAPPlatform.c **** void* mymalloc(int size, char* file, int line)
  11:C:/Users/stapi/OneDrive/Desktop/GD32VW553/V1_MQTT_OK/GD32VW55X_Wifi_BLE_SDK/GD32VW55x_RELEASE_V1.0.2/MSDK/cloud/alicloud/src/protocol/coap/local\CoAPPlatform.c **** {
  12:C:/Users/stapi/OneDrive/Desktop/GD32VW553/V1_MQTT_OK/GD32VW55X_Wifi_BLE_SDK/GD32VW55x_RELEASE_V1.0.2/MSDK/cloud/alicloud/src/protocol/coap/local\CoAPPlatform.c ****     void* p = LITE_malloc(size, MEM_MAGIC, "coap.local");
  13:C:/Users/stapi/OneDrive/Desktop/GD32VW553/V1_MQTT_OK/GD32VW55X_Wifi_BLE_SDK/GD32VW55x_RELEASE_V1.0.2/MSDK/cloud/alicloud/src/protocol/coap/local\CoAPPlatform.c ****     COAP_ERR("COAP_HEAP, MALLOC:%s:%d, size=%d, ptr=%p", file, line, size, p);
  14:C:/Users/stapi/OneDrive/Desktop/GD32VW553/V1_MQTT_OK/GD32VW55X_Wifi_BLE_SDK/GD32VW55x_RELEASE_V1.0.2/MSDK/cloud/alicloud/src/protocol/coap/local\CoAPPlatform.c ****     return p;
  15:C:/Users/stapi/OneDrive/Desktop/GD32VW553/V1_MQTT_OK/GD32VW55X_Wifi_BLE_SDK/GD32VW55x_RELEASE_V1.0.2/MSDK/cloud/alicloud/src/protocol/coap/local\CoAPPlatform.c **** }
  16:C:/Users/stapi/OneDrive/Desktop/GD32VW553/V1_MQTT_OK/GD32VW55X_Wifi_BLE_SDK/GD32VW55x_RELEASE_V1.0.2/MSDK/cloud/alicloud/src/protocol/coap/local\CoAPPlatform.c **** void myfree(void* ptr, char* file, int line)
  17:C:/Users/stapi/OneDrive/Desktop/GD32VW553/V1_MQTT_OK/GD32VW55X_Wifi_BLE_SDK/GD32VW55x_RELEASE_V1.0.2/MSDK/cloud/alicloud/src/protocol/coap/local\CoAPPlatform.c **** {
  18:C:/Users/stapi/OneDrive/Desktop/GD32VW553/V1_MQTT_OK/GD32VW55X_Wifi_BLE_SDK/GD32VW55x_RELEASE_V1.0.2/MSDK/cloud/alicloud/src/protocol/coap/local\CoAPPlatform.c ****     COAP_ERR("COAP_HEAP, Free:%s:%d, %p", file, line, ptr);
  19:C:/Users/stapi/OneDrive/Desktop/GD32VW553/V1_MQTT_OK/GD32VW55X_Wifi_BLE_SDK/GD32VW55x_RELEASE_V1.0.2/MSDK/cloud/alicloud/src/protocol/coap/local\CoAPPlatform.c ****     LITE_free(ptr);
  20:C:/Users/stapi/OneDrive/Desktop/GD32VW553/V1_MQTT_OK/GD32VW55X_Wifi_BLE_SDK/GD32VW55x_RELEASE_V1.0.2/MSDK/cloud/alicloud/src/protocol/coap/local\CoAPPlatform.c **** }
  21:C:/Users/stapi/OneDrive/Desktop/GD32VW553/V1_MQTT_OK/GD32VW55X_Wifi_BLE_SDK/GD32VW55x_RELEASE_V1.0.2/MSDK/cloud/alicloud/src/protocol/coap/local\CoAPPlatform.c **** #endif
  22:C:/Users/stapi/OneDrive/Desktop/GD32VW553/V1_MQTT_OK/GD32VW55X_Wifi_BLE_SDK/GD32VW55x_RELEASE_V1.0.2/MSDK/cloud/alicloud/src/protocol/coap/local\CoAPPlatform.c **** 
  23:C:/Users/stapi/OneDrive/Desktop/GD32VW553/V1_MQTT_OK/GD32VW55X_Wifi_BLE_SDK/GD32VW55x_RELEASE_V1.0.2/MSDK/cloud/alicloud/src/protocol/coap/local\CoAPPlatform.c **** unsigned int platform_aton(const char *ip_str)
  24:C:/Users/stapi/OneDrive/Desktop/GD32VW553/V1_MQTT_OK/GD32VW55X_Wifi_BLE_SDK/GD32VW55x_RELEASE_V1.0.2/MSDK/cloud/alicloud/src/protocol/coap/local\CoAPPlatform.c **** {
  16              		.loc 1 24 1
  17              		.cfi_startproc
  18              	.LVL0:
  19 0000 17030000 		call	t0,__riscv_save_1
  19      E7020300 
  20              		.cfi_offset 8, -8
  21              		.cfi_def_cfa_offset 16
  25:C:/Users/stapi/OneDrive/Desktop/GD32VW553/V1_MQTT_OK/GD32VW55X_Wifi_BLE_SDK/GD32VW55x_RELEASE_V1.0.2/MSDK/cloud/alicloud/src/protocol/coap/local\CoAPPlatform.c ****     char c;
  22              		.loc 1 25 5
  26:C:/Users/stapi/OneDrive/Desktop/GD32VW553/V1_MQTT_OK/GD32VW55X_Wifi_BLE_SDK/GD32VW55x_RELEASE_V1.0.2/MSDK/cloud/alicloud/src/protocol/coap/local\CoAPPlatform.c ****     unsigned char base;
  23              		.loc 1 26 5
  27:C:/Users/stapi/OneDrive/Desktop/GD32VW553/V1_MQTT_OK/GD32VW55X_Wifi_BLE_SDK/GD32VW55x_RELEASE_V1.0.2/MSDK/cloud/alicloud/src/protocol/coap/local\CoAPPlatform.c ****     unsigned int  val = 0;
  24              		.loc 1 27 5
  25              	.LVL1:
  28:C:/Users/stapi/OneDrive/Desktop/GD32VW553/V1_MQTT_OK/GD32VW55X_Wifi_BLE_SDK/GD32VW55x_RELEASE_V1.0.2/MSDK/cloud/alicloud/src/protocol/coap/local\CoAPPlatform.c ****     unsigned int parts[4] = {0};
  26              		.loc 1 28 5
  24:C:/Users/stapi/OneDrive/Desktop/GD32VW553/V1_MQTT_OK/GD32VW55X_Wifi_BLE_SDK/GD32VW55x_RELEASE_V1.0.2/MSDK/cloud/alicloud/src/protocol/coap/local\CoAPPlatform.c ****     char c;
  27              		.loc 1 24 1 is_stmt 0
  28 0008 4111     		addi	sp,sp,-16
  29              		.cfi_def_cfa_offset 32
  29:C:/Users/stapi/OneDrive/Desktop/GD32VW553/V1_MQTT_OK/GD32VW55X_Wifi_BLE_SDK/GD32VW55x_RELEASE_V1.0.2/MSDK/cloud/alicloud/src/protocol/coap/local\CoAPPlatform.c ****     unsigned int *pp = parts;
  30              		.loc 1 29 19
  31 000a 8A86     		mv	a3,sp
  30:C:/Users/stapi/OneDrive/Desktop/GD32VW553/V1_MQTT_OK/GD32VW55X_Wifi_BLE_SDK/GD32VW55x_RELEASE_V1.0.2/MSDK/cloud/alicloud/src/protocol/coap/local\CoAPPlatform.c **** 
  31:C:/Users/stapi/OneDrive/Desktop/GD32VW553/V1_MQTT_OK/GD32VW55X_Wifi_BLE_SDK/GD32VW55x_RELEASE_V1.0.2/MSDK/cloud/alicloud/src/protocol/coap/local\CoAPPlatform.c ****     c = *ip_str;
  32:C:/Users/stapi/OneDrive/Desktop/GD32VW553/V1_MQTT_OK/GD32VW55X_Wifi_BLE_SDK/GD32VW55x_RELEASE_V1.0.2/MSDK/cloud/alicloud/src/protocol/coap/local\CoAPPlatform.c ****     for (;;) {
  33:C:/Users/stapi/OneDrive/Desktop/GD32VW553/V1_MQTT_OK/GD32VW55X_Wifi_BLE_SDK/GD32VW55x_RELEASE_V1.0.2/MSDK/cloud/alicloud/src/protocol/coap/local\CoAPPlatform.c ****         /*
  34:C:/Users/stapi/OneDrive/Desktop/GD32VW553/V1_MQTT_OK/GD32VW55X_Wifi_BLE_SDK/GD32VW55x_RELEASE_V1.0.2/MSDK/cloud/alicloud/src/protocol/coap/local\CoAPPlatform.c ****          * Collect number up to ``.''.
  35:C:/Users/stapi/OneDrive/Desktop/GD32VW553/V1_MQTT_OK/GD32VW55X_Wifi_BLE_SDK/GD32VW55x_RELEASE_V1.0.2/MSDK/cloud/alicloud/src/protocol/coap/local\CoAPPlatform.c ****          * Values are specified as for C:
  36:C:/Users/stapi/OneDrive/Desktop/GD32VW553/V1_MQTT_OK/GD32VW55X_Wifi_BLE_SDK/GD32VW55x_RELEASE_V1.0.2/MSDK/cloud/alicloud/src/protocol/coap/local\CoAPPlatform.c ****          * 0x=hex, 0=octal, 1-9=decimal.
  37:C:/Users/stapi/OneDrive/Desktop/GD32VW553/V1_MQTT_OK/GD32VW55X_Wifi_BLE_SDK/GD32VW55x_RELEASE_V1.0.2/MSDK/cloud/alicloud/src/protocol/coap/local\CoAPPlatform.c ****          */
  38:C:/Users/stapi/OneDrive/Desktop/GD32VW553/V1_MQTT_OK/GD32VW55X_Wifi_BLE_SDK/GD32VW55x_RELEASE_V1.0.2/MSDK/cloud/alicloud/src/protocol/coap/local\CoAPPlatform.c ****         if (!isdigit(c))
  32              		.loc 1 38 14
  33 000c B7050000 		lui	a1,%hi(_ctype_+1)
  28:C:/Users/stapi/OneDrive/Desktop/GD32VW553/V1_MQTT_OK/GD32VW55X_Wifi_BLE_SDK/GD32VW55x_RELEASE_V1.0.2/MSDK/cloud/alicloud/src/protocol/coap/local\CoAPPlatform.c ****     unsigned int *pp = parts;
  34              		.loc 1 28 18
  35 0010 02C0     		sw	zero,0(sp)
  36 0012 02C2     		sw	zero,4(sp)
  37 0014 02C4     		sw	zero,8(sp)
  38 0016 02C6     		sw	zero,12(sp)
  29:C:/Users/stapi/OneDrive/Desktop/GD32VW553/V1_MQTT_OK/GD32VW55X_Wifi_BLE_SDK/GD32VW55x_RELEASE_V1.0.2/MSDK/cloud/alicloud/src/protocol/coap/local\CoAPPlatform.c ****     unsigned int *pp = parts;
  39              		.loc 1 29 5 is_stmt 1
  40              	.LVL2:
  31:C:/Users/stapi/OneDrive/Desktop/GD32VW553/V1_MQTT_OK/GD32VW55X_Wifi_BLE_SDK/GD32VW55x_RELEASE_V1.0.2/MSDK/cloud/alicloud/src/protocol/coap/local\CoAPPlatform.c ****     for (;;) {
  41              		.loc 1 31 5
  42 0018 3683     		mv	t1,a3
  43              		.loc 1 38 14 is_stmt 0
  44 001a 93851500 		addi	a1,a1,%lo(_ctype_+1)
  39:C:/Users/stapi/OneDrive/Desktop/GD32VW553/V1_MQTT_OK/GD32VW55X_Wifi_BLE_SDK/GD32VW55x_RELEASE_V1.0.2/MSDK/cloud/alicloud/src/protocol/coap/local\CoAPPlatform.c ****             return (0);
  40:C:/Users/stapi/OneDrive/Desktop/GD32VW553/V1_MQTT_OK/GD32VW55X_Wifi_BLE_SDK/GD32VW55x_RELEASE_V1.0.2/MSDK/cloud/alicloud/src/protocol/coap/local\CoAPPlatform.c **** 
  41:C:/Users/stapi/OneDrive/Desktop/GD32VW553/V1_MQTT_OK/GD32VW55X_Wifi_BLE_SDK/GD32VW55x_RELEASE_V1.0.2/MSDK/cloud/alicloud/src/protocol/coap/local\CoAPPlatform.c ****         val = 0;
  42:C:/Users/stapi/OneDrive/Desktop/GD32VW553/V1_MQTT_OK/GD32VW55X_Wifi_BLE_SDK/GD32VW55x_RELEASE_V1.0.2/MSDK/cloud/alicloud/src/protocol/coap/local\CoAPPlatform.c ****         base = 10;
  43:C:/Users/stapi/OneDrive/Desktop/GD32VW553/V1_MQTT_OK/GD32VW55X_Wifi_BLE_SDK/GD32VW55x_RELEASE_V1.0.2/MSDK/cloud/alicloud/src/protocol/coap/local\CoAPPlatform.c ****         if (c == '0') {
  45              		.loc 1 43 12
  46 001e 130E0003 		li	t3,48
  44:C:/Users/stapi/OneDrive/Desktop/GD32VW553/V1_MQTT_OK/GD32VW55X_Wifi_BLE_SDK/GD32VW55x_RELEASE_V1.0.2/MSDK/cloud/alicloud/src/protocol/coap/local\CoAPPlatform.c ****             c = *++ip_str;
  45:C:/Users/stapi/OneDrive/Desktop/GD32VW553/V1_MQTT_OK/GD32VW55X_Wifi_BLE_SDK/GD32VW55x_RELEASE_V1.0.2/MSDK/cloud/alicloud/src/protocol/coap/local\CoAPPlatform.c ****             if (c == 'x' || c == 'X') {
  47              		.loc 1 45 26
  48 0022 930E8005 		li	t4,88
  46:C:/Users/stapi/OneDrive/Desktop/GD32VW553/V1_MQTT_OK/GD32VW55X_Wifi_BLE_SDK/GD32VW55x_RELEASE_V1.0.2/MSDK/cloud/alicloud/src/protocol/coap/local\CoAPPlatform.c ****                 base = 16;
  49              		.loc 1 46 22
  50 0026 414F     		li	t5,16
  47:C:/Users/stapi/OneDrive/Desktop/GD32VW553/V1_MQTT_OK/GD32VW55X_Wifi_BLE_SDK/GD32VW55x_RELEASE_V1.0.2/MSDK/cloud/alicloud/src/protocol/coap/local\CoAPPlatform.c ****                 c = *++ip_str;
  48:C:/Users/stapi/OneDrive/Desktop/GD32VW553/V1_MQTT_OK/GD32VW55X_Wifi_BLE_SDK/GD32VW55x_RELEASE_V1.0.2/MSDK/cloud/alicloud/src/protocol/coap/local\CoAPPlatform.c ****             } else {
  49:C:/Users/stapi/OneDrive/Desktop/GD32VW553/V1_MQTT_OK/GD32VW55X_Wifi_BLE_SDK/GD32VW55x_RELEASE_V1.0.2/MSDK/cloud/alicloud/src/protocol/coap/local\CoAPPlatform.c ****                 base = 8;
  50:C:/Users/stapi/OneDrive/Desktop/GD32VW553/V1_MQTT_OK/GD32VW55X_Wifi_BLE_SDK/GD32VW55x_RELEASE_V1.0.2/MSDK/cloud/alicloud/src/protocol/coap/local\CoAPPlatform.c ****             }
  51:C:/Users/stapi/OneDrive/Desktop/GD32VW553/V1_MQTT_OK/GD32VW55X_Wifi_BLE_SDK/GD32VW55x_RELEASE_V1.0.2/MSDK/cloud/alicloud/src/protocol/coap/local\CoAPPlatform.c ****         }
  52:C:/Users/stapi/OneDrive/Desktop/GD32VW553/V1_MQTT_OK/GD32VW55X_Wifi_BLE_SDK/GD32VW55x_RELEASE_V1.0.2/MSDK/cloud/alicloud/src/protocol/coap/local\CoAPPlatform.c ****         for (;;) {
  53:C:/Users/stapi/OneDrive/Desktop/GD32VW553/V1_MQTT_OK/GD32VW55X_Wifi_BLE_SDK/GD32VW55x_RELEASE_V1.0.2/MSDK/cloud/alicloud/src/protocol/coap/local\CoAPPlatform.c ****             if (isdigit(c)) {
  54:C:/Users/stapi/OneDrive/Desktop/GD32VW553/V1_MQTT_OK/GD32VW55X_Wifi_BLE_SDK/GD32VW55x_RELEASE_V1.0.2/MSDK/cloud/alicloud/src/protocol/coap/local\CoAPPlatform.c ****                 val = (val * base) + (int)(c - '0');
  55:C:/Users/stapi/OneDrive/Desktop/GD32VW553/V1_MQTT_OK/GD32VW55X_Wifi_BLE_SDK/GD32VW55x_RELEASE_V1.0.2/MSDK/cloud/alicloud/src/protocol/coap/local\CoAPPlatform.c ****                 c = *++ip_str;
  56:C:/Users/stapi/OneDrive/Desktop/GD32VW553/V1_MQTT_OK/GD32VW55X_Wifi_BLE_SDK/GD32VW55x_RELEASE_V1.0.2/MSDK/cloud/alicloud/src/protocol/coap/local\CoAPPlatform.c ****             } else if (base == 16 && isxdigit(c)) {
  57:C:/Users/stapi/OneDrive/Desktop/GD32VW553/V1_MQTT_OK/GD32VW55X_Wifi_BLE_SDK/GD32VW55x_RELEASE_V1.0.2/MSDK/cloud/alicloud/src/protocol/coap/local\CoAPPlatform.c ****                 val = (val << 4) | (int)(c + 10 - (islower(c) ? 'a' : 'A'));
  51              		.loc 1 57 69
  52 0028 894F     		li	t6,2
  58:C:/Users/stapi/OneDrive/Desktop/GD32VW553/V1_MQTT_OK/GD32VW55X_Wifi_BLE_SDK/GD32VW55x_RELEASE_V1.0.2/MSDK/cloud/alicloud/src/protocol/coap/local\CoAPPlatform.c ****                 c = *++ip_str;
  59:C:/Users/stapi/OneDrive/Desktop/GD32VW553/V1_MQTT_OK/GD32VW55X_Wifi_BLE_SDK/GD32VW55x_RELEASE_V1.0.2/MSDK/cloud/alicloud/src/protocol/coap/local\CoAPPlatform.c ****             } else {
  60:C:/Users/stapi/OneDrive/Desktop/GD32VW553/V1_MQTT_OK/GD32VW55X_Wifi_BLE_SDK/GD32VW55x_RELEASE_V1.0.2/MSDK/cloud/alicloud/src/protocol/coap/local\CoAPPlatform.c ****                 break;
  61:C:/Users/stapi/OneDrive/Desktop/GD32VW553/V1_MQTT_OK/GD32VW55X_Wifi_BLE_SDK/GD32VW55x_RELEASE_V1.0.2/MSDK/cloud/alicloud/src/protocol/coap/local\CoAPPlatform.c ****             }
  62:C:/Users/stapi/OneDrive/Desktop/GD32VW553/V1_MQTT_OK/GD32VW55X_Wifi_BLE_SDK/GD32VW55x_RELEASE_V1.0.2/MSDK/cloud/alicloud/src/protocol/coap/local\CoAPPlatform.c ****         }
  63:C:/Users/stapi/OneDrive/Desktop/GD32VW553/V1_MQTT_OK/GD32VW55X_Wifi_BLE_SDK/GD32VW55x_RELEASE_V1.0.2/MSDK/cloud/alicloud/src/protocol/coap/local\CoAPPlatform.c ****         if (c == '.') {
  53              		.loc 1 63 12
  54 002a 9302E002 		li	t0,46
  64:C:/Users/stapi/OneDrive/Desktop/GD32VW553/V1_MQTT_OK/GD32VW55X_Wifi_BLE_SDK/GD32VW55x_RELEASE_V1.0.2/MSDK/cloud/alicloud/src/protocol/coap/local\CoAPPlatform.c ****             /*
  65:C:/Users/stapi/OneDrive/Desktop/GD32VW553/V1_MQTT_OK/GD32VW55X_Wifi_BLE_SDK/GD32VW55x_RELEASE_V1.0.2/MSDK/cloud/alicloud/src/protocol/coap/local\CoAPPlatform.c ****              * Internet format:
  66:C:/Users/stapi/OneDrive/Desktop/GD32VW553/V1_MQTT_OK/GD32VW55X_Wifi_BLE_SDK/GD32VW55x_RELEASE_V1.0.2/MSDK/cloud/alicloud/src/protocol/coap/local\CoAPPlatform.c ****              *  a.b.c.d
  67:C:/Users/stapi/OneDrive/Desktop/GD32VW553/V1_MQTT_OK/GD32VW55X_Wifi_BLE_SDK/GD32VW55x_RELEASE_V1.0.2/MSDK/cloud/alicloud/src/protocol/coap/local\CoAPPlatform.c ****              *  a.b.c   (with c treated as 16 bits)
  68:C:/Users/stapi/OneDrive/Desktop/GD32VW553/V1_MQTT_OK/GD32VW55X_Wifi_BLE_SDK/GD32VW55x_RELEASE_V1.0.2/MSDK/cloud/alicloud/src/protocol/coap/local\CoAPPlatform.c ****              *  a.b (with b treated as 24 bits)
  69:C:/Users/stapi/OneDrive/Desktop/GD32VW553/V1_MQTT_OK/GD32VW55X_Wifi_BLE_SDK/GD32VW55x_RELEASE_V1.0.2/MSDK/cloud/alicloud/src/protocol/coap/local\CoAPPlatform.c ****              */
  70:C:/Users/stapi/OneDrive/Desktop/GD32VW553/V1_MQTT_OK/GD32VW55X_Wifi_BLE_SDK/GD32VW55x_RELEASE_V1.0.2/MSDK/cloud/alicloud/src/protocol/coap/local\CoAPPlatform.c ****             if (pp >= parts + 3)
  55              		.loc 1 70 16
  56 002e 9303C100 		addi	t2,sp,12
  31:C:/Users/stapi/OneDrive/Desktop/GD32VW553/V1_MQTT_OK/GD32VW55X_Wifi_BLE_SDK/GD32VW55x_RELEASE_V1.0.2/MSDK/cloud/alicloud/src/protocol/coap/local\CoAPPlatform.c ****     for (;;) {
  57              		.loc 1 31 7
  58 0032 83070500 		lb	a5,0(a0)
  59              	.LVL3:
  60              	.L11:
  32:C:/Users/stapi/OneDrive/Desktop/GD32VW553/V1_MQTT_OK/GD32VW55X_Wifi_BLE_SDK/GD32VW55x_RELEASE_V1.0.2/MSDK/cloud/alicloud/src/protocol/coap/local\CoAPPlatform.c ****         /*
  61              		.loc 1 32 5 is_stmt 1
  38:C:/Users/stapi/OneDrive/Desktop/GD32VW553/V1_MQTT_OK/GD32VW55X_Wifi_BLE_SDK/GD32VW55x_RELEASE_V1.0.2/MSDK/cloud/alicloud/src/protocol/coap/local\CoAPPlatform.c ****             return (0);
  62              		.loc 1 38 9
  38:C:/Users/stapi/OneDrive/Desktop/GD32VW553/V1_MQTT_OK/GD32VW55X_Wifi_BLE_SDK/GD32VW55x_RELEASE_V1.0.2/MSDK/cloud/alicloud/src/protocol/coap/local\CoAPPlatform.c ****             return (0);
  63              		.loc 1 38 14 is_stmt 0
  64 0036 3387B700 		add	a4,a5,a1
  38:C:/Users/stapi/OneDrive/Desktop/GD32VW553/V1_MQTT_OK/GD32VW55X_Wifi_BLE_SDK/GD32VW55x_RELEASE_V1.0.2/MSDK/cloud/alicloud/src/protocol/coap/local\CoAPPlatform.c ****             return (0);
  65              		.loc 1 38 12
  66 003a 03470700 		lbu	a4,0(a4)
  67 003e 118B     		andi	a4,a4,4
  68 0040 65CB     		beq	a4,zero,.L25
  41:C:/Users/stapi/OneDrive/Desktop/GD32VW553/V1_MQTT_OK/GD32VW55X_Wifi_BLE_SDK/GD32VW55x_RELEASE_V1.0.2/MSDK/cloud/alicloud/src/protocol/coap/local\CoAPPlatform.c ****         base = 10;
  69              		.loc 1 41 9 is_stmt 1
  70              	.LVL4:
  42:C:/Users/stapi/OneDrive/Desktop/GD32VW553/V1_MQTT_OK/GD32VW55X_Wifi_BLE_SDK/GD32VW55x_RELEASE_V1.0.2/MSDK/cloud/alicloud/src/protocol/coap/local\CoAPPlatform.c ****         if (c == '0') {
  71              		.loc 1 42 9
  43:C:/Users/stapi/OneDrive/Desktop/GD32VW553/V1_MQTT_OK/GD32VW55X_Wifi_BLE_SDK/GD32VW55x_RELEASE_V1.0.2/MSDK/cloud/alicloud/src/protocol/coap/local\CoAPPlatform.c ****             c = *++ip_str;
  72              		.loc 1 43 9
  42:C:/Users/stapi/OneDrive/Desktop/GD32VW553/V1_MQTT_OK/GD32VW55X_Wifi_BLE_SDK/GD32VW55x_RELEASE_V1.0.2/MSDK/cloud/alicloud/src/protocol/coap/local\CoAPPlatform.c ****         if (c == '0') {
  73              		.loc 1 42 14 is_stmt 0
  74 0042 2948     		li	a6,10
  43:C:/Users/stapi/OneDrive/Desktop/GD32VW553/V1_MQTT_OK/GD32VW55X_Wifi_BLE_SDK/GD32VW55x_RELEASE_V1.0.2/MSDK/cloud/alicloud/src/protocol/coap/local\CoAPPlatform.c ****             c = *++ip_str;
  75              		.loc 1 43 12
  76 0044 639AC701 		bne	a5,t3,.L3
  44:C:/Users/stapi/OneDrive/Desktop/GD32VW553/V1_MQTT_OK/GD32VW55X_Wifi_BLE_SDK/GD32VW55x_RELEASE_V1.0.2/MSDK/cloud/alicloud/src/protocol/coap/local\CoAPPlatform.c ****             if (c == 'x' || c == 'X') {
  77              		.loc 1 44 13 is_stmt 1
  78              	.LVL5:
  44:C:/Users/stapi/OneDrive/Desktop/GD32VW553/V1_MQTT_OK/GD32VW55X_Wifi_BLE_SDK/GD32VW55x_RELEASE_V1.0.2/MSDK/cloud/alicloud/src/protocol/coap/local\CoAPPlatform.c ****             if (c == 'x' || c == 'X') {
  79              		.loc 1 44 15 is_stmt 0
  80 0048 83071500 		lb	a5,1(a0)
  45:C:/Users/stapi/OneDrive/Desktop/GD32VW553/V1_MQTT_OK/GD32VW55X_Wifi_BLE_SDK/GD32VW55x_RELEASE_V1.0.2/MSDK/cloud/alicloud/src/protocol/coap/local\CoAPPlatform.c ****                 base = 16;
  81              		.loc 1 45 13 is_stmt 1
  45:C:/Users/stapi/OneDrive/Desktop/GD32VW553/V1_MQTT_OK/GD32VW55X_Wifi_BLE_SDK/GD32VW55x_RELEASE_V1.0.2/MSDK/cloud/alicloud/src/protocol/coap/local\CoAPPlatform.c ****                 base = 16;
  82              		.loc 1 45 26 is_stmt 0
  83 004c 13F7F7FD 		andi	a4,a5,-33
  84 0050 6308D703 		beq	a4,t4,.L4
  44:C:/Users/stapi/OneDrive/Desktop/GD32VW553/V1_MQTT_OK/GD32VW55X_Wifi_BLE_SDK/GD32VW55x_RELEASE_V1.0.2/MSDK/cloud/alicloud/src/protocol/coap/local\CoAPPlatform.c ****             if (c == 'x' || c == 'X') {
  85              		.loc 1 44 15
  86 0054 0505     		addi	a0,a0,1
  87              	.LVL6:
  49:C:/Users/stapi/OneDrive/Desktop/GD32VW553/V1_MQTT_OK/GD32VW55X_Wifi_BLE_SDK/GD32VW55x_RELEASE_V1.0.2/MSDK/cloud/alicloud/src/protocol/coap/local\CoAPPlatform.c ****             }
  88              		.loc 1 49 22
  89 0056 2148     		li	a6,8
  90              	.LVL7:
  91              	.L3:
  92 0058 13071500 		addi	a4,a0,1
  42:C:/Users/stapi/OneDrive/Desktop/GD32VW553/V1_MQTT_OK/GD32VW55X_Wifi_BLE_SDK/GD32VW55x_RELEASE_V1.0.2/MSDK/cloud/alicloud/src/protocol/coap/local\CoAPPlatform.c ****         if (c == '0') {
  93              		.loc 1 42 14
  94 005c 0145     		li	a0,0
  95              	.LVL8:
  96              	.L5:
  53:C:/Users/stapi/OneDrive/Desktop/GD32VW553/V1_MQTT_OK/GD32VW55X_Wifi_BLE_SDK/GD32VW55x_RELEASE_V1.0.2/MSDK/cloud/alicloud/src/protocol/coap/local\CoAPPlatform.c ****                 val = (val * base) + (int)(c - '0');
  97              		.loc 1 53 17
  98 005e 3386F500 		add	a2,a1,a5
  99 0062 03460600 		lbu	a2,0(a2)
 100 0066 9308F7FF 		addi	a7,a4,-1
 101              	.LVL9:
  52:C:/Users/stapi/OneDrive/Desktop/GD32VW553/V1_MQTT_OK/GD32VW55X_Wifi_BLE_SDK/GD32VW55x_RELEASE_V1.0.2/MSDK/cloud/alicloud/src/protocol/coap/local\CoAPPlatform.c ****             if (isdigit(c)) {
 102              		.loc 1 52 9 is_stmt 1
  53:C:/Users/stapi/OneDrive/Desktop/GD32VW553/V1_MQTT_OK/GD32VW55X_Wifi_BLE_SDK/GD32VW55x_RELEASE_V1.0.2/MSDK/cloud/alicloud/src/protocol/coap/local\CoAPPlatform.c ****                 val = (val * base) + (int)(c - '0');
 103              		.loc 1 53 13
  53:C:/Users/stapi/OneDrive/Desktop/GD32VW553/V1_MQTT_OK/GD32VW55X_Wifi_BLE_SDK/GD32VW55x_RELEASE_V1.0.2/MSDK/cloud/alicloud/src/protocol/coap/local\CoAPPlatform.c ****                 val = (val * base) + (int)(c - '0');
 104              		.loc 1 53 16 is_stmt 0
 105 006a 13744600 		andi	s0,a2,4
 106 006e 11CC     		beq	s0,zero,.L6
  54:C:/Users/stapi/OneDrive/Desktop/GD32VW553/V1_MQTT_OK/GD32VW55X_Wifi_BLE_SDK/GD32VW55x_RELEASE_V1.0.2/MSDK/cloud/alicloud/src/protocol/coap/local\CoAPPlatform.c ****                 c = *++ip_str;
 107              		.loc 1 54 17 is_stmt 1
  54:C:/Users/stapi/OneDrive/Desktop/GD32VW553/V1_MQTT_OK/GD32VW55X_Wifi_BLE_SDK/GD32VW55x_RELEASE_V1.0.2/MSDK/cloud/alicloud/src/protocol/coap/local\CoAPPlatform.c ****                 c = *++ip_str;
 108              		.loc 1 54 36 is_stmt 0
 109 0070 FF17A8C4 		maddr32	a5, a6, a0
  54:C:/Users/stapi/OneDrive/Desktop/GD32VW553/V1_MQTT_OK/GD32VW55X_Wifi_BLE_SDK/GD32VW55x_RELEASE_V1.0.2/MSDK/cloud/alicloud/src/protocol/coap/local\CoAPPlatform.c ****                 c = *++ip_str;
 110              		.loc 1 54 21
 111 0074 138507FD 		addi	a0,a5,-48
 112              	.LVL10:
  55:C:/Users/stapi/OneDrive/Desktop/GD32VW553/V1_MQTT_OK/GD32VW55X_Wifi_BLE_SDK/GD32VW55x_RELEASE_V1.0.2/MSDK/cloud/alicloud/src/protocol/coap/local\CoAPPlatform.c ****             } else if (base == 16 && isxdigit(c)) {
 113              		.loc 1 55 17 is_stmt 1
 114              	.L33:
  58:C:/Users/stapi/OneDrive/Desktop/GD32VW553/V1_MQTT_OK/GD32VW55X_Wifi_BLE_SDK/GD32VW55x_RELEASE_V1.0.2/MSDK/cloud/alicloud/src/protocol/coap/local\CoAPPlatform.c ****             } else {
 115              		.loc 1 58 17 discriminator 4
  58:C:/Users/stapi/OneDrive/Desktop/GD32VW553/V1_MQTT_OK/GD32VW55X_Wifi_BLE_SDK/GD32VW55x_RELEASE_V1.0.2/MSDK/cloud/alicloud/src/protocol/coap/local\CoAPPlatform.c ****             } else {
 116              		.loc 1 58 19 is_stmt 0 discriminator 4
 117 0078 83070700 		lb	a5,0(a4)
 118 007c 0507     		addi	a4,a4,1
 119              	.LVL11:
 120 007e C5B7     		j	.L5
 121              	.LVL12:
 122              	.L4:
  46:C:/Users/stapi/OneDrive/Desktop/GD32VW553/V1_MQTT_OK/GD32VW55X_Wifi_BLE_SDK/GD32VW55x_RELEASE_V1.0.2/MSDK/cloud/alicloud/src/protocol/coap/local\CoAPPlatform.c ****                 c = *++ip_str;
 123              		.loc 1 46 17 is_stmt 1
  47:C:/Users/stapi/OneDrive/Desktop/GD32VW553/V1_MQTT_OK/GD32VW55X_Wifi_BLE_SDK/GD32VW55x_RELEASE_V1.0.2/MSDK/cloud/alicloud/src/protocol/coap/local\CoAPPlatform.c ****             } else {
 124              		.loc 1 47 17
  47:C:/Users/stapi/OneDrive/Desktop/GD32VW553/V1_MQTT_OK/GD32VW55X_Wifi_BLE_SDK/GD32VW55x_RELEASE_V1.0.2/MSDK/cloud/alicloud/src/protocol/coap/local\CoAPPlatform.c ****             } else {
 125              		.loc 1 47 19 is_stmt 0
 126 0080 83072500 		lb	a5,2(a0)
  46:C:/Users/stapi/OneDrive/Desktop/GD32VW553/V1_MQTT_OK/GD32VW55X_Wifi_BLE_SDK/GD32VW55x_RELEASE_V1.0.2/MSDK/cloud/alicloud/src/protocol/coap/local\CoAPPlatform.c ****                 c = *++ip_str;
 127              		.loc 1 46 22
 128 0084 4148     		li	a6,16
  47:C:/Users/stapi/OneDrive/Desktop/GD32VW553/V1_MQTT_OK/GD32VW55X_Wifi_BLE_SDK/GD32VW55x_RELEASE_V1.0.2/MSDK/cloud/alicloud/src/protocol/coap/local\CoAPPlatform.c ****             } else {
 129              		.loc 1 47 19
 130 0086 0905     		addi	a0,a0,2
 131              	.LVL13:
 132 0088 C1BF     		j	.L3
 133              	.LVL14:
 134              	.L6:
  56:C:/Users/stapi/OneDrive/Desktop/GD32VW553/V1_MQTT_OK/GD32VW55X_Wifi_BLE_SDK/GD32VW55x_RELEASE_V1.0.2/MSDK/cloud/alicloud/src/protocol/coap/local\CoAPPlatform.c ****                 val = (val << 4) | (int)(c + 10 - (islower(c) ? 'a' : 'A'));
 135              		.loc 1 56 20 is_stmt 1
  56:C:/Users/stapi/OneDrive/Desktop/GD32VW553/V1_MQTT_OK/GD32VW55X_Wifi_BLE_SDK/GD32VW55x_RELEASE_V1.0.2/MSDK/cloud/alicloud/src/protocol/coap/local\CoAPPlatform.c ****                 val = (val << 4) | (int)(c + 10 - (islower(c) ? 'a' : 'A'));
 136              		.loc 1 56 23 is_stmt 0
 137 008a 6312E803 		bne	a6,t5,.L8
  56:C:/Users/stapi/OneDrive/Desktop/GD32VW553/V1_MQTT_OK/GD32VW55X_Wifi_BLE_SDK/GD32VW55x_RELEASE_V1.0.2/MSDK/cloud/alicloud/src/protocol/coap/local\CoAPPlatform.c ****                 val = (val << 4) | (int)(c + 10 - (islower(c) ? 'a' : 'A'));
 138              		.loc 1 56 35 discriminator 1
 139 008e 13744604 		andi	s0,a2,68
 140 0092 11CC     		beq	s0,zero,.L8
  57:C:/Users/stapi/OneDrive/Desktop/GD32VW553/V1_MQTT_OK/GD32VW55X_Wifi_BLE_SDK/GD32VW55x_RELEASE_V1.0.2/MSDK/cloud/alicloud/src/protocol/coap/local\CoAPPlatform.c ****                 c = *++ip_str;
 141              		.loc 1 57 17 is_stmt 1
  57:C:/Users/stapi/OneDrive/Desktop/GD32VW553/V1_MQTT_OK/GD32VW55X_Wifi_BLE_SDK/GD32VW55x_RELEASE_V1.0.2/MSDK/cloud/alicloud/src/protocol/coap/local\CoAPPlatform.c ****                 c = *++ip_str;
 142              		.loc 1 57 69 is_stmt 0
 143 0094 0D8A     		andi	a2,a2,3
  57:C:/Users/stapi/OneDrive/Desktop/GD32VW553/V1_MQTT_OK/GD32VW55X_Wifi_BLE_SDK/GD32VW55x_RELEASE_V1.0.2/MSDK/cloud/alicloud/src/protocol/coap/local\CoAPPlatform.c ****                 c = *++ip_str;
 144              		.loc 1 57 28
 145 0096 1205     		slli	a0,a0,4
 146              	.LVL15:
  57:C:/Users/stapi/OneDrive/Desktop/GD32VW553/V1_MQTT_OK/GD32VW55X_Wifi_BLE_SDK/GD32VW55x_RELEASE_V1.0.2/MSDK/cloud/alicloud/src/protocol/coap/local\CoAPPlatform.c ****                 c = *++ip_str;
 147              		.loc 1 57 44
 148 0098 A907     		addi	a5,a5,10
  57:C:/Users/stapi/OneDrive/Desktop/GD32VW553/V1_MQTT_OK/GD32VW55X_Wifi_BLE_SDK/GD32VW55x_RELEASE_V1.0.2/MSDK/cloud/alicloud/src/protocol/coap/local\CoAPPlatform.c ****                 c = *++ip_str;
 149              		.loc 1 57 69
 150 009a 93081006 		li	a7,97
 151              	.LVL16:
 152 009e 6304F601 		beq	a2,t6,.L9
 153 00a2 93081004 		li	a7,65
 154              	.L9:
  57:C:/Users/stapi/OneDrive/Desktop/GD32VW553/V1_MQTT_OK/GD32VW55X_Wifi_BLE_SDK/GD32VW55x_RELEASE_V1.0.2/MSDK/cloud/alicloud/src/protocol/coap/local\CoAPPlatform.c ****                 c = *++ip_str;
 155              		.loc 1 57 36 discriminator 4
 156 00a6 B3871741 		sub	a5,a5,a7
  57:C:/Users/stapi/OneDrive/Desktop/GD32VW553/V1_MQTT_OK/GD32VW55X_Wifi_BLE_SDK/GD32VW55x_RELEASE_V1.0.2/MSDK/cloud/alicloud/src/protocol/coap/local\CoAPPlatform.c ****                 c = *++ip_str;
 157              		.loc 1 57 21 discriminator 4
 158 00aa 5D8D     		or	a0,a5,a0
 159 00ac F1B7     		j	.L33
 160              	.LVL17:
 161              	.L8:
  63:C:/Users/stapi/OneDrive/Desktop/GD32VW553/V1_MQTT_OK/GD32VW55X_Wifi_BLE_SDK/GD32VW55x_RELEASE_V1.0.2/MSDK/cloud/alicloud/src/protocol/coap/local\CoAPPlatform.c ****             /*
 162              		.loc 1 63 9 is_stmt 1
  63:C:/Users/stapi/OneDrive/Desktop/GD32VW553/V1_MQTT_OK/GD32VW55X_Wifi_BLE_SDK/GD32VW55x_RELEASE_V1.0.2/MSDK/cloud/alicloud/src/protocol/coap/local\CoAPPlatform.c ****             /*
 163              		.loc 1 63 12 is_stmt 0
 164 00ae 639C5700 		bne	a5,t0,.L10
 165              		.loc 1 70 13 is_stmt 1
 166              		.loc 1 70 16 is_stmt 0
 167 00b2 638F7606 		beq	a3,t2,.L25
  71:C:/Users/stapi/OneDrive/Desktop/GD32VW553/V1_MQTT_OK/GD32VW55X_Wifi_BLE_SDK/GD32VW55x_RELEASE_V1.0.2/MSDK/cloud/alicloud/src/protocol/coap/local\CoAPPlatform.c ****                 return (0);
  72:C:/Users/stapi/OneDrive/Desktop/GD32VW553/V1_MQTT_OK/GD32VW55X_Wifi_BLE_SDK/GD32VW55x_RELEASE_V1.0.2/MSDK/cloud/alicloud/src/protocol/coap/local\CoAPPlatform.c ****             *pp++ = val;
 168              		.loc 1 72 13 is_stmt 1
 169              		.loc 1 72 16 is_stmt 0
 170 00b6 9106     		addi	a3,a3,4
 171              	.LVL18:
 172              		.loc 1 72 19
 173 00b8 23AEA6FE 		sw	a0,-4(a3)
  73:C:/Users/stapi/OneDrive/Desktop/GD32VW553/V1_MQTT_OK/GD32VW55X_Wifi_BLE_SDK/GD32VW55x_RELEASE_V1.0.2/MSDK/cloud/alicloud/src/protocol/coap/local\CoAPPlatform.c ****             c = *++ip_str;
 174              		.loc 1 73 13 is_stmt 1
 175              		.loc 1 73 15 is_stmt 0
 176 00bc 83871800 		lb	a5,1(a7)
 177 00c0 13851800 		addi	a0,a7,1
 178              	.LVL19:
  32:C:/Users/stapi/OneDrive/Desktop/GD32VW553/V1_MQTT_OK/GD32VW55X_Wifi_BLE_SDK/GD32VW55x_RELEASE_V1.0.2/MSDK/cloud/alicloud/src/protocol/coap/local\CoAPPlatform.c ****         /*
 179              		.loc 1 32 11 is_stmt 1
  38:C:/Users/stapi/OneDrive/Desktop/GD32VW553/V1_MQTT_OK/GD32VW55X_Wifi_BLE_SDK/GD32VW55x_RELEASE_V1.0.2/MSDK/cloud/alicloud/src/protocol/coap/local\CoAPPlatform.c ****             return (0);
 180              		.loc 1 38 12 is_stmt 0
 181 00c4 8DBF     		j	.L11
 182              	.LVL20:
 183              	.L10:
  74:C:/Users/stapi/OneDrive/Desktop/GD32VW553/V1_MQTT_OK/GD32VW55X_Wifi_BLE_SDK/GD32VW55x_RELEASE_V1.0.2/MSDK/cloud/alicloud/src/protocol/coap/local\CoAPPlatform.c ****         } else {
  75:C:/Users/stapi/OneDrive/Desktop/GD32VW553/V1_MQTT_OK/GD32VW55X_Wifi_BLE_SDK/GD32VW55x_RELEASE_V1.0.2/MSDK/cloud/alicloud/src/protocol/coap/local\CoAPPlatform.c ****             break;
  76:C:/Users/stapi/OneDrive/Desktop/GD32VW553/V1_MQTT_OK/GD32VW55X_Wifi_BLE_SDK/GD32VW55x_RELEASE_V1.0.2/MSDK/cloud/alicloud/src/protocol/coap/local\CoAPPlatform.c ****         }
  77:C:/Users/stapi/OneDrive/Desktop/GD32VW553/V1_MQTT_OK/GD32VW55X_Wifi_BLE_SDK/GD32VW55x_RELEASE_V1.0.2/MSDK/cloud/alicloud/src/protocol/coap/local\CoAPPlatform.c ****     }
  78:C:/Users/stapi/OneDrive/Desktop/GD32VW553/V1_MQTT_OK/GD32VW55X_Wifi_BLE_SDK/GD32VW55x_RELEASE_V1.0.2/MSDK/cloud/alicloud/src/protocol/coap/local\CoAPPlatform.c ****     /*
  79:C:/Users/stapi/OneDrive/Desktop/GD32VW553/V1_MQTT_OK/GD32VW55X_Wifi_BLE_SDK/GD32VW55x_RELEASE_V1.0.2/MSDK/cloud/alicloud/src/protocol/coap/local\CoAPPlatform.c ****      * Check for trailing characters.
  80:C:/Users/stapi/OneDrive/Desktop/GD32VW553/V1_MQTT_OK/GD32VW55X_Wifi_BLE_SDK/GD32VW55x_RELEASE_V1.0.2/MSDK/cloud/alicloud/src/protocol/coap/local\CoAPPlatform.c ****      */
  81:C:/Users/stapi/OneDrive/Desktop/GD32VW553/V1_MQTT_OK/GD32VW55X_Wifi_BLE_SDK/GD32VW55x_RELEASE_V1.0.2/MSDK/cloud/alicloud/src/protocol/coap/local\CoAPPlatform.c ****     if (c != '\0' && !isspace(c))
 184              		.loc 1 81 5 is_stmt 1
 185              		.loc 1 81 8 is_stmt 0
 186 00c6 99C3     		beq	a5,zero,.L12
 187              		.loc 1 81 19 discriminator 1
 188 00c8 218A     		andi	a2,a2,8
 189 00ca 3DC2     		beq	a2,zero,.L25
 190              	.L12:
  82:C:/Users/stapi/OneDrive/Desktop/GD32VW553/V1_MQTT_OK/GD32VW55X_Wifi_BLE_SDK/GD32VW55x_RELEASE_V1.0.2/MSDK/cloud/alicloud/src/protocol/coap/local\CoAPPlatform.c ****         return (0);
  83:C:/Users/stapi/OneDrive/Desktop/GD32VW553/V1_MQTT_OK/GD32VW55X_Wifi_BLE_SDK/GD32VW55x_RELEASE_V1.0.2/MSDK/cloud/alicloud/src/protocol/coap/local\CoAPPlatform.c ****     /*
  84:C:/Users/stapi/OneDrive/Desktop/GD32VW553/V1_MQTT_OK/GD32VW55X_Wifi_BLE_SDK/GD32VW55x_RELEASE_V1.0.2/MSDK/cloud/alicloud/src/protocol/coap/local\CoAPPlatform.c ****      * Concoct the address according to
  85:C:/Users/stapi/OneDrive/Desktop/GD32VW553/V1_MQTT_OK/GD32VW55X_Wifi_BLE_SDK/GD32VW55x_RELEASE_V1.0.2/MSDK/cloud/alicloud/src/protocol/coap/local\CoAPPlatform.c ****      * the number of parts specified.
  86:C:/Users/stapi/OneDrive/Desktop/GD32VW553/V1_MQTT_OK/GD32VW55X_Wifi_BLE_SDK/GD32VW55x_RELEASE_V1.0.2/MSDK/cloud/alicloud/src/protocol/coap/local\CoAPPlatform.c ****      */
  87:C:/Users/stapi/OneDrive/Desktop/GD32VW553/V1_MQTT_OK/GD32VW55X_Wifi_BLE_SDK/GD32VW55x_RELEASE_V1.0.2/MSDK/cloud/alicloud/src/protocol/coap/local\CoAPPlatform.c ****     switch (pp - parts + 1) {
 191              		.loc 1 87 5 is_stmt 1
 192              		.loc 1 87 16 is_stmt 0
 193 00cc B3866640 		sub	a3,a3,t1
 194              	.LVL21:
 195 00d0 8986     		srai	a3,a3,2
 196              		.loc 1 87 24
 197 00d2 8506     		addi	a3,a3,1
 198              		.loc 1 87 5
 199 00d4 8D47     		li	a5,3
 200 00d6 6384F604 		beq	a3,a5,.L13
 201 00da 63CBD700 		bgt	a3,a5,.L14
 202 00de A9CA     		beq	a3,zero,.L25
 203 00e0 8947     		li	a5,2
 204 00e2 6386F602 		beq	a3,a5,.L15
 205              	.LVL22:
 206              	.L1:
  88:C:/Users/stapi/OneDrive/Desktop/GD32VW553/V1_MQTT_OK/GD32VW55X_Wifi_BLE_SDK/GD32VW55x_RELEASE_V1.0.2/MSDK/cloud/alicloud/src/protocol/coap/local\CoAPPlatform.c ****         case 0:
  89:C:/Users/stapi/OneDrive/Desktop/GD32VW553/V1_MQTT_OK/GD32VW55X_Wifi_BLE_SDK/GD32VW55x_RELEASE_V1.0.2/MSDK/cloud/alicloud/src/protocol/coap/local\CoAPPlatform.c ****             return (0);                                    /* initial nondigit */
  90:C:/Users/stapi/OneDrive/Desktop/GD32VW553/V1_MQTT_OK/GD32VW55X_Wifi_BLE_SDK/GD32VW55x_RELEASE_V1.0.2/MSDK/cloud/alicloud/src/protocol/coap/local\CoAPPlatform.c ****         case 1:                                            /* a -- 32 bits */
  91:C:/Users/stapi/OneDrive/Desktop/GD32VW553/V1_MQTT_OK/GD32VW55X_Wifi_BLE_SDK/GD32VW55x_RELEASE_V1.0.2/MSDK/cloud/alicloud/src/protocol/coap/local\CoAPPlatform.c ****             break;
  92:C:/Users/stapi/OneDrive/Desktop/GD32VW553/V1_MQTT_OK/GD32VW55X_Wifi_BLE_SDK/GD32VW55x_RELEASE_V1.0.2/MSDK/cloud/alicloud/src/protocol/coap/local\CoAPPlatform.c ****         case 2:                                            /* a.b -- 8.24 bits */
  93:C:/Users/stapi/OneDrive/Desktop/GD32VW553/V1_MQTT_OK/GD32VW55X_Wifi_BLE_SDK/GD32VW55x_RELEASE_V1.0.2/MSDK/cloud/alicloud/src/protocol/coap/local\CoAPPlatform.c ****             if (val > 0xffffffUL)
  94:C:/Users/stapi/OneDrive/Desktop/GD32VW553/V1_MQTT_OK/GD32VW55X_Wifi_BLE_SDK/GD32VW55x_RELEASE_V1.0.2/MSDK/cloud/alicloud/src/protocol/coap/local\CoAPPlatform.c ****                 return (0);
  95:C:/Users/stapi/OneDrive/Desktop/GD32VW553/V1_MQTT_OK/GD32VW55X_Wifi_BLE_SDK/GD32VW55x_RELEASE_V1.0.2/MSDK/cloud/alicloud/src/protocol/coap/local\CoAPPlatform.c ****             val |= parts[0] << 24;
  96:C:/Users/stapi/OneDrive/Desktop/GD32VW553/V1_MQTT_OK/GD32VW55X_Wifi_BLE_SDK/GD32VW55x_RELEASE_V1.0.2/MSDK/cloud/alicloud/src/protocol/coap/local\CoAPPlatform.c ****             break;
  97:C:/Users/stapi/OneDrive/Desktop/GD32VW553/V1_MQTT_OK/GD32VW55X_Wifi_BLE_SDK/GD32VW55x_RELEASE_V1.0.2/MSDK/cloud/alicloud/src/protocol/coap/local\CoAPPlatform.c ****         case 3:                                            /* a.b.c -- 8.8.16 bits */
  98:C:/Users/stapi/OneDrive/Desktop/GD32VW553/V1_MQTT_OK/GD32VW55X_Wifi_BLE_SDK/GD32VW55x_RELEASE_V1.0.2/MSDK/cloud/alicloud/src/protocol/coap/local\CoAPPlatform.c ****             if (val > 0xffff)
  99:C:/Users/stapi/OneDrive/Desktop/GD32VW553/V1_MQTT_OK/GD32VW55X_Wifi_BLE_SDK/GD32VW55x_RELEASE_V1.0.2/MSDK/cloud/alicloud/src/protocol/coap/local\CoAPPlatform.c ****                 return (0);
 100:C:/Users/stapi/OneDrive/Desktop/GD32VW553/V1_MQTT_OK/GD32VW55X_Wifi_BLE_SDK/GD32VW55x_RELEASE_V1.0.2/MSDK/cloud/alicloud/src/protocol/coap/local\CoAPPlatform.c ****             val |= (parts[0] << 24) | (parts[1] << 16);
 101:C:/Users/stapi/OneDrive/Desktop/GD32VW553/V1_MQTT_OK/GD32VW55X_Wifi_BLE_SDK/GD32VW55x_RELEASE_V1.0.2/MSDK/cloud/alicloud/src/protocol/coap/local\CoAPPlatform.c ****             break;
 102:C:/Users/stapi/OneDrive/Desktop/GD32VW553/V1_MQTT_OK/GD32VW55X_Wifi_BLE_SDK/GD32VW55x_RELEASE_V1.0.2/MSDK/cloud/alicloud/src/protocol/coap/local\CoAPPlatform.c ****         case 4:                                            /* a.b.c.d -- 8.8.8.8 bits */
 103:C:/Users/stapi/OneDrive/Desktop/GD32VW553/V1_MQTT_OK/GD32VW55X_Wifi_BLE_SDK/GD32VW55x_RELEASE_V1.0.2/MSDK/cloud/alicloud/src/protocol/coap/local\CoAPPlatform.c ****             if (val > 0xff)
 104:C:/Users/stapi/OneDrive/Desktop/GD32VW553/V1_MQTT_OK/GD32VW55X_Wifi_BLE_SDK/GD32VW55x_RELEASE_V1.0.2/MSDK/cloud/alicloud/src/protocol/coap/local\CoAPPlatform.c ****                 return (0);
 105:C:/Users/stapi/OneDrive/Desktop/GD32VW553/V1_MQTT_OK/GD32VW55X_Wifi_BLE_SDK/GD32VW55x_RELEASE_V1.0.2/MSDK/cloud/alicloud/src/protocol/coap/local\CoAPPlatform.c ****             val |= (parts[0] << 24) | (parts[1] << 16) | (parts[2] << 8);
 106:C:/Users/stapi/OneDrive/Desktop/GD32VW553/V1_MQTT_OK/GD32VW55X_Wifi_BLE_SDK/GD32VW55x_RELEASE_V1.0.2/MSDK/cloud/alicloud/src/protocol/coap/local\CoAPPlatform.c ****             break;
 107:C:/Users/stapi/OneDrive/Desktop/GD32VW553/V1_MQTT_OK/GD32VW55X_Wifi_BLE_SDK/GD32VW55x_RELEASE_V1.0.2/MSDK/cloud/alicloud/src/protocol/coap/local\CoAPPlatform.c ****         default:
 108:C:/Users/stapi/OneDrive/Desktop/GD32VW553/V1_MQTT_OK/GD32VW55X_Wifi_BLE_SDK/GD32VW55x_RELEASE_V1.0.2/MSDK/cloud/alicloud/src/protocol/coap/local\CoAPPlatform.c ****             break;
 109:C:/Users/stapi/OneDrive/Desktop/GD32VW553/V1_MQTT_OK/GD32VW55X_Wifi_BLE_SDK/GD32VW55x_RELEASE_V1.0.2/MSDK/cloud/alicloud/src/protocol/coap/local\CoAPPlatform.c ****     }
 110:C:/Users/stapi/OneDrive/Desktop/GD32VW553/V1_MQTT_OK/GD32VW55X_Wifi_BLE_SDK/GD32VW55x_RELEASE_V1.0.2/MSDK/cloud/alicloud/src/protocol/coap/local\CoAPPlatform.c **** 
 111:C:/Users/stapi/OneDrive/Desktop/GD32VW553/V1_MQTT_OK/GD32VW55X_Wifi_BLE_SDK/GD32VW55x_RELEASE_V1.0.2/MSDK/cloud/alicloud/src/protocol/coap/local\CoAPPlatform.c ****     return val;
 112:C:/Users/stapi/OneDrive/Desktop/GD32VW553/V1_MQTT_OK/GD32VW55X_Wifi_BLE_SDK/GD32VW55x_RELEASE_V1.0.2/MSDK/cloud/alicloud/src/protocol/coap/local\CoAPPlatform.c **** }
 207              		.loc 1 112 1
 208 00e6 4101     		addi	sp,sp,16
 209              		.cfi_remember_state
 210              		.cfi_def_cfa_offset 0
 211 00e8 17030000 		tail	__riscv_restore_1
 211      67000300 
 212              		.cfi_restore 8
 213              		.cfi_def_cfa_offset -16
 214              	.LVL23:
 215              	.L14:
 216              		.cfi_restore_state
  87:C:/Users/stapi/OneDrive/Desktop/GD32VW553/V1_MQTT_OK/GD32VW55X_Wifi_BLE_SDK/GD32VW55x_RELEASE_V1.0.2/MSDK/cloud/alicloud/src/protocol/coap/local\CoAPPlatform.c ****         case 0:
 217              		.loc 1 87 5
 218 00f0 9147     		li	a5,4
 219 00f2 E39AF6FE 		bne	a3,a5,.L1
 103:C:/Users/stapi/OneDrive/Desktop/GD32VW553/V1_MQTT_OK/GD32VW55X_Wifi_BLE_SDK/GD32VW55x_RELEASE_V1.0.2/MSDK/cloud/alicloud/src/protocol/coap/local\CoAPPlatform.c ****                 return (0);
 220              		.loc 1 103 13 is_stmt 1
 103:C:/Users/stapi/OneDrive/Desktop/GD32VW553/V1_MQTT_OK/GD32VW55X_Wifi_BLE_SDK/GD32VW55x_RELEASE_V1.0.2/MSDK/cloud/alicloud/src/protocol/coap/local\CoAPPlatform.c ****                 return (0);
 221              		.loc 1 103 16 is_stmt 0
 222 00f6 9307F00F 		li	a5,255
 223 00fa 63EBA702 		bgtu	a0,a5,.L25
 105:C:/Users/stapi/OneDrive/Desktop/GD32VW553/V1_MQTT_OK/GD32VW55X_Wifi_BLE_SDK/GD32VW55x_RELEASE_V1.0.2/MSDK/cloud/alicloud/src/protocol/coap/local\CoAPPlatform.c ****             break;
 224              		.loc 1 105 13 is_stmt 1
 105:C:/Users/stapi/OneDrive/Desktop/GD32VW553/V1_MQTT_OK/GD32VW55X_Wifi_BLE_SDK/GD32VW55x_RELEASE_V1.0.2/MSDK/cloud/alicloud/src/protocol/coap/local\CoAPPlatform.c ****             break;
 225              		.loc 1 105 30 is_stmt 0
 226 00fe 8247     		lw	a5,0(sp)
 105:C:/Users/stapi/OneDrive/Desktop/GD32VW553/V1_MQTT_OK/GD32VW55X_Wifi_BLE_SDK/GD32VW55x_RELEASE_V1.0.2/MSDK/cloud/alicloud/src/protocol/coap/local\CoAPPlatform.c ****             break;
 227              		.loc 1 105 49
 228 0100 1247     		lw	a4,4(sp)
 105:C:/Users/stapi/OneDrive/Desktop/GD32VW553/V1_MQTT_OK/GD32VW55X_Wifi_BLE_SDK/GD32VW55x_RELEASE_V1.0.2/MSDK/cloud/alicloud/src/protocol/coap/local\CoAPPlatform.c ****             break;
 229              		.loc 1 105 30
 230 0102 E207     		slli	a5,a5,24
 105:C:/Users/stapi/OneDrive/Desktop/GD32VW553/V1_MQTT_OK/GD32VW55X_Wifi_BLE_SDK/GD32VW55x_RELEASE_V1.0.2/MSDK/cloud/alicloud/src/protocol/coap/local\CoAPPlatform.c ****             break;
 231              		.loc 1 105 49
 232 0104 4207     		slli	a4,a4,16
 105:C:/Users/stapi/OneDrive/Desktop/GD32VW553/V1_MQTT_OK/GD32VW55X_Wifi_BLE_SDK/GD32VW55x_RELEASE_V1.0.2/MSDK/cloud/alicloud/src/protocol/coap/local\CoAPPlatform.c ****             break;
 233              		.loc 1 105 37
 234 0106 D98F     		or	a5,a5,a4
 105:C:/Users/stapi/OneDrive/Desktop/GD32VW553/V1_MQTT_OK/GD32VW55X_Wifi_BLE_SDK/GD32VW55x_RELEASE_V1.0.2/MSDK/cloud/alicloud/src/protocol/coap/local\CoAPPlatform.c ****             break;
 235              		.loc 1 105 68
 236 0108 2247     		lw	a4,8(sp)
 237 010a 2207     		slli	a4,a4,8
 238 010c 05A0     		j	.L35
 239              	.L15:
  93:C:/Users/stapi/OneDrive/Desktop/GD32VW553/V1_MQTT_OK/GD32VW55X_Wifi_BLE_SDK/GD32VW55x_RELEASE_V1.0.2/MSDK/cloud/alicloud/src/protocol/coap/local\CoAPPlatform.c ****                 return (0);
 240              		.loc 1 93 13 is_stmt 1
  93:C:/Users/stapi/OneDrive/Desktop/GD32VW553/V1_MQTT_OK/GD32VW55X_Wifi_BLE_SDK/GD32VW55x_RELEASE_V1.0.2/MSDK/cloud/alicloud/src/protocol/coap/local\CoAPPlatform.c ****                 return (0);
 241              		.loc 1 93 16 is_stmt 0
 242 010e B7070001 		li	a5,16777216
 243 0112 637FF500 		bgeu	a0,a5,.L25
  95:C:/Users/stapi/OneDrive/Desktop/GD32VW553/V1_MQTT_OK/GD32VW55X_Wifi_BLE_SDK/GD32VW55x_RELEASE_V1.0.2/MSDK/cloud/alicloud/src/protocol/coap/local\CoAPPlatform.c ****             break;
 244              		.loc 1 95 13 is_stmt 1
  95:C:/Users/stapi/OneDrive/Desktop/GD32VW553/V1_MQTT_OK/GD32VW55X_Wifi_BLE_SDK/GD32VW55x_RELEASE_V1.0.2/MSDK/cloud/alicloud/src/protocol/coap/local\CoAPPlatform.c ****             break;
 245              		.loc 1 95 29 is_stmt 0
 246 0116 8247     		lw	a5,0(sp)
 247 0118 E207     		slli	a5,a5,24
 248              	.L34:
 105:C:/Users/stapi/OneDrive/Desktop/GD32VW553/V1_MQTT_OK/GD32VW55X_Wifi_BLE_SDK/GD32VW55x_RELEASE_V1.0.2/MSDK/cloud/alicloud/src/protocol/coap/local\CoAPPlatform.c ****             break;
 249              		.loc 1 105 17
 250 011a 5D8D     		or	a0,a0,a5
 251              	.LVL24:
 106:C:/Users/stapi/OneDrive/Desktop/GD32VW553/V1_MQTT_OK/GD32VW55X_Wifi_BLE_SDK/GD32VW55x_RELEASE_V1.0.2/MSDK/cloud/alicloud/src/protocol/coap/local\CoAPPlatform.c ****         default:
 252              		.loc 1 106 13 is_stmt 1
 253 011c E9B7     		j	.L1
 254              	.L13:
  98:C:/Users/stapi/OneDrive/Desktop/GD32VW553/V1_MQTT_OK/GD32VW55X_Wifi_BLE_SDK/GD32VW55x_RELEASE_V1.0.2/MSDK/cloud/alicloud/src/protocol/coap/local\CoAPPlatform.c ****                 return (0);
 255              		.loc 1 98 13
  98:C:/Users/stapi/OneDrive/Desktop/GD32VW553/V1_MQTT_OK/GD32VW55X_Wifi_BLE_SDK/GD32VW55x_RELEASE_V1.0.2/MSDK/cloud/alicloud/src/protocol/coap/local\CoAPPlatform.c ****                 return (0);
 256              		.loc 1 98 16 is_stmt 0
 257 011e C167     		li	a5,65536
 258 0120 6378F500 		bgeu	a0,a5,.L25
 100:C:/Users/stapi/OneDrive/Desktop/GD32VW553/V1_MQTT_OK/GD32VW55X_Wifi_BLE_SDK/GD32VW55x_RELEASE_V1.0.2/MSDK/cloud/alicloud/src/protocol/coap/local\CoAPPlatform.c ****             break;
 259              		.loc 1 100 13 is_stmt 1
 100:C:/Users/stapi/OneDrive/Desktop/GD32VW553/V1_MQTT_OK/GD32VW55X_Wifi_BLE_SDK/GD32VW55x_RELEASE_V1.0.2/MSDK/cloud/alicloud/src/protocol/coap/local\CoAPPlatform.c ****             break;
 260              		.loc 1 100 30 is_stmt 0
 261 0124 8247     		lw	a5,0(sp)
 100:C:/Users/stapi/OneDrive/Desktop/GD32VW553/V1_MQTT_OK/GD32VW55X_Wifi_BLE_SDK/GD32VW55x_RELEASE_V1.0.2/MSDK/cloud/alicloud/src/protocol/coap/local\CoAPPlatform.c ****             break;
 262              		.loc 1 100 49
 263 0126 1247     		lw	a4,4(sp)
 100:C:/Users/stapi/OneDrive/Desktop/GD32VW553/V1_MQTT_OK/GD32VW55X_Wifi_BLE_SDK/GD32VW55x_RELEASE_V1.0.2/MSDK/cloud/alicloud/src/protocol/coap/local\CoAPPlatform.c ****             break;
 264              		.loc 1 100 30
 265 0128 E207     		slli	a5,a5,24
 100:C:/Users/stapi/OneDrive/Desktop/GD32VW553/V1_MQTT_OK/GD32VW55X_Wifi_BLE_SDK/GD32VW55x_RELEASE_V1.0.2/MSDK/cloud/alicloud/src/protocol/coap/local\CoAPPlatform.c ****             break;
 266              		.loc 1 100 49
 267 012a 4207     		slli	a4,a4,16
 268              	.L35:
 105:C:/Users/stapi/OneDrive/Desktop/GD32VW553/V1_MQTT_OK/GD32VW55X_Wifi_BLE_SDK/GD32VW55x_RELEASE_V1.0.2/MSDK/cloud/alicloud/src/protocol/coap/local\CoAPPlatform.c ****             break;
 269              		.loc 1 105 56
 270 012c D98F     		or	a5,a5,a4
 271 012e F5B7     		j	.L34
 272              	.LVL25:
 273              	.L25:
  39:C:/Users/stapi/OneDrive/Desktop/GD32VW553/V1_MQTT_OK/GD32VW55X_Wifi_BLE_SDK/GD32VW55x_RELEASE_V1.0.2/MSDK/cloud/alicloud/src/protocol/coap/local\CoAPPlatform.c **** 
 274              		.loc 1 39 20
 275 0130 0145     		li	a0,0
 276 0132 55BF     		j	.L1
 277              		.cfi_endproc
 278              	.LFE20:
 280              		.section	.text.platform_is_multicast,"ax",@progbits
 281              		.align	1
 282              		.globl	platform_is_multicast
 284              	platform_is_multicast:
 285              	.LFB21:
 113:C:/Users/stapi/OneDrive/Desktop/GD32VW553/V1_MQTT_OK/GD32VW55X_Wifi_BLE_SDK/GD32VW55x_RELEASE_V1.0.2/MSDK/cloud/alicloud/src/protocol/coap/local\CoAPPlatform.c **** 
 114:C:/Users/stapi/OneDrive/Desktop/GD32VW553/V1_MQTT_OK/GD32VW55X_Wifi_BLE_SDK/GD32VW55x_RELEASE_V1.0.2/MSDK/cloud/alicloud/src/protocol/coap/local\CoAPPlatform.c **** 
 115:C:/Users/stapi/OneDrive/Desktop/GD32VW553/V1_MQTT_OK/GD32VW55X_Wifi_BLE_SDK/GD32VW55x_RELEASE_V1.0.2/MSDK/cloud/alicloud/src/protocol/coap/local\CoAPPlatform.c **** int platform_is_multicast(const char *ip_str)
 116:C:/Users/stapi/OneDrive/Desktop/GD32VW553/V1_MQTT_OK/GD32VW55X_Wifi_BLE_SDK/GD32VW55x_RELEASE_V1.0.2/MSDK/cloud/alicloud/src/protocol/coap/local\CoAPPlatform.c **** {
 286              		.loc 1 116 1 is_stmt 1
 287              		.cfi_startproc
 288              	.LVL26:
 289 0000 17030000 		call	t0,__riscv_save_0
 289      E7020300 
 290              		.cfi_offset 1, -4
 291              		.cfi_def_cfa_offset 16
 117:C:/Users/stapi/OneDrive/Desktop/GD32VW553/V1_MQTT_OK/GD32VW55X_Wifi_BLE_SDK/GD32VW55x_RELEASE_V1.0.2/MSDK/cloud/alicloud/src/protocol/coap/local\CoAPPlatform.c ****     unsigned int addr_in;
 292              		.loc 1 117 5
 118:C:/Users/stapi/OneDrive/Desktop/GD32VW553/V1_MQTT_OK/GD32VW55X_Wifi_BLE_SDK/GD32VW55x_RELEASE_V1.0.2/MSDK/cloud/alicloud/src/protocol/coap/local\CoAPPlatform.c ****     addr_in = platform_aton(ip_str);
 293              		.loc 1 118 5
 294              		.loc 1 118 15 is_stmt 0
 295 0008 97000000 		call	platform_aton
 295      E7800000 
 296              	.LVL27:
 119:C:/Users/stapi/OneDrive/Desktop/GD32VW553/V1_MQTT_OK/GD32VW55X_Wifi_BLE_SDK/GD32VW55x_RELEASE_V1.0.2/MSDK/cloud/alicloud/src/protocol/coap/local\CoAPPlatform.c ****     return (addr_in > 0xE00000FF && addr_in <= 0xEFFFFFFF);
 297              		.loc 1 119 5 is_stmt 1
 298              		.loc 1 119 34 is_stmt 0
 299 0010 B7070020 		li	a5,536870912
 300 0014 938707F0 		addi	a5,a5,-256
 301 0018 3E95     		add	a0,a0,a5
 302              	.LVL28:
 120:C:/Users/stapi/OneDrive/Desktop/GD32VW553/V1_MQTT_OK/GD32VW55X_Wifi_BLE_SDK/GD32VW55x_RELEASE_V1.0.2/MSDK/cloud/alicloud/src/protocol/coap/local\CoAPPlatform.c **** }
 303              		.loc 1 120 1
 304 001a B7070010 		li	a5,268435456
 305 001e 938707F0 		addi	a5,a5,-256
 306 0022 3335F500 		sltu	a0,a0,a5
 307              	.LVL29:
 308 0026 17030000 		tail	__riscv_restore_0
 308      67000300 
 309              		.cfi_restore 1
 310              		.cfi_def_cfa_offset 0
 311              		.cfi_endproc
 312              	.LFE21:
 314              		.text
 315              	.Letext0:
 316              		.file 2 "c:\\users\\stapi\\onedrive\\desktop\\gd32vw553\\embeddedbuilder_v1.4.7.26843\\tools\\nucl
DEFINED SYMBOLS
                            *ABS*:0000000000000000 CoAPPlatform.c
C:\Users\stapi\AppData\Local\Temp\ccrK3LOX.s:13     .text.platform_aton:0000000000000000 platform_aton
C:\Users\stapi\AppData\Local\Temp\ccrK3LOX.s:17     .text.platform_aton:0000000000000000 .L0 
C:\Users\stapi\AppData\Local\Temp\ccrK3LOX.s:19     .text.platform_aton:0000000000000000 .L0 
C:\Users\stapi\AppData\Local\Temp\ccrK3LOX.s:20     .text.platform_aton:0000000000000008 .L0 
C:\Users\stapi\AppData\Local\Temp\ccrK3LOX.s:21     .text.platform_aton:0000000000000008 .L0 
C:\Users\stapi\AppData\Local\Temp\ccrK3LOX.s:23     .text.platform_aton:0000000000000008 .L0 
C:\Users\stapi\AppData\Local\Temp\ccrK3LOX.s:24     .text.platform_aton:0000000000000008 .L0 
C:\Users\stapi\AppData\Local\Temp\ccrK3LOX.s:26     .text.platform_aton:0000000000000008 .L0 
C:\Users\stapi\AppData\Local\Temp\ccrK3LOX.s:27     .text.platform_aton:0000000000000008 .L0 
C:\Users\stapi\AppData\Local\Temp\ccrK3LOX.s:28     .text.platform_aton:0000000000000008 .L0 
C:\Users\stapi\AppData\Local\Temp\ccrK3LOX.s:29     .text.platform_aton:000000000000000a .L0 
C:\Users\stapi\AppData\Local\Temp\ccrK3LOX.s:31     .text.platform_aton:000000000000000a .L0 
C:\Users\stapi\AppData\Local\Temp\ccrK3LOX.s:33     .text.platform_aton:000000000000000c .L0 
C:\Users\stapi\AppData\Local\Temp\ccrK3LOX.s:35     .text.platform_aton:0000000000000010 .L0 
C:\Users\stapi\AppData\Local\Temp\ccrK3LOX.s:41     .text.platform_aton:0000000000000018 .L0 
C:\Users\stapi\AppData\Local\Temp\ccrK3LOX.s:42     .text.platform_aton:0000000000000018 .L0 
C:\Users\stapi\AppData\Local\Temp\ccrK3LOX.s:44     .text.platform_aton:000000000000001a .L0 
C:\Users\stapi\AppData\Local\Temp\ccrK3LOX.s:46     .text.platform_aton:000000000000001e .L0 
C:\Users\stapi\AppData\Local\Temp\ccrK3LOX.s:48     .text.platform_aton:0000000000000022 .L0 
C:\Users\stapi\AppData\Local\Temp\ccrK3LOX.s:50     .text.platform_aton:0000000000000026 .L0 
C:\Users\stapi\AppData\Local\Temp\ccrK3LOX.s:52     .text.platform_aton:0000000000000028 .L0 
C:\Users\stapi\AppData\Local\Temp\ccrK3LOX.s:54     .text.platform_aton:000000000000002a .L0 
C:\Users\stapi\AppData\Local\Temp\ccrK3LOX.s:56     .text.platform_aton:000000000000002e .L0 
C:\Users\stapi\AppData\Local\Temp\ccrK3LOX.s:58     .text.platform_aton:0000000000000032 .L0 
C:\Users\stapi\AppData\Local\Temp\ccrK3LOX.s:62     .text.platform_aton:0000000000000036 .L0 
C:\Users\stapi\AppData\Local\Temp\ccrK3LOX.s:63     .text.platform_aton:0000000000000036 .L0 
C:\Users\stapi\AppData\Local\Temp\ccrK3LOX.s:64     .text.platform_aton:0000000000000036 .L0 
C:\Users\stapi\AppData\Local\Temp\ccrK3LOX.s:66     .text.platform_aton:000000000000003a .L0 
C:\Users\stapi\AppData\Local\Temp\ccrK3LOX.s:71     .text.platform_aton:0000000000000042 .L0 
C:\Users\stapi\AppData\Local\Temp\ccrK3LOX.s:72     .text.platform_aton:0000000000000042 .L0 
C:\Users\stapi\AppData\Local\Temp\ccrK3LOX.s:73     .text.platform_aton:0000000000000042 .L0 
C:\Users\stapi\AppData\Local\Temp\ccrK3LOX.s:74     .text.platform_aton:0000000000000042 .L0 
C:\Users\stapi\AppData\Local\Temp\ccrK3LOX.s:76     .text.platform_aton:0000000000000044 .L0 
C:\Users\stapi\AppData\Local\Temp\ccrK3LOX.s:79     .text.platform_aton:0000000000000048 .L0 
C:\Users\stapi\AppData\Local\Temp\ccrK3LOX.s:80     .text.platform_aton:0000000000000048 .L0 
C:\Users\stapi\AppData\Local\Temp\ccrK3LOX.s:82     .text.platform_aton:000000000000004c .L0 
C:\Users\stapi\AppData\Local\Temp\ccrK3LOX.s:83     .text.platform_aton:000000000000004c .L0 
C:\Users\stapi\AppData\Local\Temp\ccrK3LOX.s:86     .text.platform_aton:0000000000000054 .L0 
C:\Users\stapi\AppData\Local\Temp\ccrK3LOX.s:89     .text.platform_aton:0000000000000056 .L0 
C:\Users\stapi\AppData\Local\Temp\ccrK3LOX.s:94     .text.platform_aton:000000000000005c .L0 
C:\Users\stapi\AppData\Local\Temp\ccrK3LOX.s:98     .text.platform_aton:000000000000005e .L0 
C:\Users\stapi\AppData\Local\Temp\ccrK3LOX.s:103    .text.platform_aton:000000000000006a .L0 
C:\Users\stapi\AppData\Local\Temp\ccrK3LOX.s:104    .text.platform_aton:000000000000006a .L0 
C:\Users\stapi\AppData\Local\Temp\ccrK3LOX.s:105    .text.platform_aton:000000000000006a .L0 
C:\Users\stapi\AppData\Local\Temp\ccrK3LOX.s:108    .text.platform_aton:0000000000000070 .L0 
C:\Users\stapi\AppData\Local\Temp\ccrK3LOX.s:109    .text.platform_aton:0000000000000070 .L0 
C:\Users\stapi\AppData\Local\Temp\ccrK3LOX.s:111    .text.platform_aton:0000000000000074 .L0 
C:\Users\stapi\AppData\Local\Temp\ccrK3LOX.s:115    .text.platform_aton:0000000000000078 .L0 
C:\Users\stapi\AppData\Local\Temp\ccrK3LOX.s:116    .text.platform_aton:0000000000000078 .L0 
C:\Users\stapi\AppData\Local\Temp\ccrK3LOX.s:117    .text.platform_aton:0000000000000078 .L0 
C:\Users\stapi\AppData\Local\Temp\ccrK3LOX.s:124    .text.platform_aton:0000000000000080 .L0 
C:\Users\stapi\AppData\Local\Temp\ccrK3LOX.s:125    .text.platform_aton:0000000000000080 .L0 
C:\Users\stapi\AppData\Local\Temp\ccrK3LOX.s:126    .text.platform_aton:0000000000000080 .L0 
C:\Users\stapi\AppData\Local\Temp\ccrK3LOX.s:128    .text.platform_aton:0000000000000084 .L0 
C:\Users\stapi\AppData\Local\Temp\ccrK3LOX.s:130    .text.platform_aton:0000000000000086 .L0 
C:\Users\stapi\AppData\Local\Temp\ccrK3LOX.s:136    .text.platform_aton:000000000000008a .L0 
C:\Users\stapi\AppData\Local\Temp\ccrK3LOX.s:137    .text.platform_aton:000000000000008a .L0 
C:\Users\stapi\AppData\Local\Temp\ccrK3LOX.s:139    .text.platform_aton:000000000000008e .L0 
C:\Users\stapi\AppData\Local\Temp\ccrK3LOX.s:142    .text.platform_aton:0000000000000094 .L0 
C:\Users\stapi\AppData\Local\Temp\ccrK3LOX.s:143    .text.platform_aton:0000000000000094 .L0 
C:\Users\stapi\AppData\Local\Temp\ccrK3LOX.s:145    .text.platform_aton:0000000000000096 .L0 
C:\Users\stapi\AppData\Local\Temp\ccrK3LOX.s:148    .text.platform_aton:0000000000000098 .L0 
C:\Users\stapi\AppData\Local\Temp\ccrK3LOX.s:150    .text.platform_aton:000000000000009a .L0 
C:\Users\stapi\AppData\Local\Temp\ccrK3LOX.s:156    .text.platform_aton:00000000000000a6 .L0 
C:\Users\stapi\AppData\Local\Temp\ccrK3LOX.s:158    .text.platform_aton:00000000000000aa .L0 
C:\Users\stapi\AppData\Local\Temp\ccrK3LOX.s:163    .text.platform_aton:00000000000000ae .L0 
C:\Users\stapi\AppData\Local\Temp\ccrK3LOX.s:164    .text.platform_aton:00000000000000ae .L0 
C:\Users\stapi\AppData\Local\Temp\ccrK3LOX.s:166    .text.platform_aton:00000000000000b2 .L0 
C:\Users\stapi\AppData\Local\Temp\ccrK3LOX.s:167    .text.platform_aton:00000000000000b2 .L0 
C:\Users\stapi\AppData\Local\Temp\ccrK3LOX.s:169    .text.platform_aton:00000000000000b6 .L0 
C:\Users\stapi\AppData\Local\Temp\ccrK3LOX.s:170    .text.platform_aton:00000000000000b6 .L0 
C:\Users\stapi\AppData\Local\Temp\ccrK3LOX.s:173    .text.platform_aton:00000000000000b8 .L0 
C:\Users\stapi\AppData\Local\Temp\ccrK3LOX.s:175    .text.platform_aton:00000000000000bc .L0 
C:\Users\stapi\AppData\Local\Temp\ccrK3LOX.s:176    .text.platform_aton:00000000000000bc .L0 
C:\Users\stapi\AppData\Local\Temp\ccrK3LOX.s:180    .text.platform_aton:00000000000000c4 .L0 
C:\Users\stapi\AppData\Local\Temp\ccrK3LOX.s:181    .text.platform_aton:00000000000000c4 .L0 
C:\Users\stapi\AppData\Local\Temp\ccrK3LOX.s:185    .text.platform_aton:00000000000000c6 .L0 
C:\Users\stapi\AppData\Local\Temp\ccrK3LOX.s:186    .text.platform_aton:00000000000000c6 .L0 
C:\Users\stapi\AppData\Local\Temp\ccrK3LOX.s:188    .text.platform_aton:00000000000000c8 .L0 
C:\Users\stapi\AppData\Local\Temp\ccrK3LOX.s:192    .text.platform_aton:00000000000000cc .L0 
C:\Users\stapi\AppData\Local\Temp\ccrK3LOX.s:193    .text.platform_aton:00000000000000cc .L0 
C:\Users\stapi\AppData\Local\Temp\ccrK3LOX.s:197    .text.platform_aton:00000000000000d2 .L0 
C:\Users\stapi\AppData\Local\Temp\ccrK3LOX.s:199    .text.platform_aton:00000000000000d4 .L0 
C:\Users\stapi\AppData\Local\Temp\ccrK3LOX.s:208    .text.platform_aton:00000000000000e6 .L0 
C:\Users\stapi\AppData\Local\Temp\ccrK3LOX.s:209    .text.platform_aton:00000000000000e8 .L0 
C:\Users\stapi\AppData\Local\Temp\ccrK3LOX.s:210    .text.platform_aton:00000000000000e8 .L0 
C:\Users\stapi\AppData\Local\Temp\ccrK3LOX.s:212    .text.platform_aton:00000000000000f0 .L0 
C:\Users\stapi\AppData\Local\Temp\ccrK3LOX.s:213    .text.platform_aton:00000000000000f0 .L0 
C:\Users\stapi\AppData\Local\Temp\ccrK3LOX.s:216    .text.platform_aton:00000000000000f0 .L0 
C:\Users\stapi\AppData\Local\Temp\ccrK3LOX.s:218    .text.platform_aton:00000000000000f0 .L0 
C:\Users\stapi\AppData\Local\Temp\ccrK3LOX.s:221    .text.platform_aton:00000000000000f6 .L0 
C:\Users\stapi\AppData\Local\Temp\ccrK3LOX.s:222    .text.platform_aton:00000000000000f6 .L0 
C:\Users\stapi\AppData\Local\Temp\ccrK3LOX.s:225    .text.platform_aton:00000000000000fe .L0 
C:\Users\stapi\AppData\Local\Temp\ccrK3LOX.s:226    .text.platform_aton:00000000000000fe .L0 
C:\Users\stapi\AppData\Local\Temp\ccrK3LOX.s:228    .text.platform_aton:0000000000000100 .L0 
C:\Users\stapi\AppData\Local\Temp\ccrK3LOX.s:230    .text.platform_aton:0000000000000102 .L0 
C:\Users\stapi\AppData\Local\Temp\ccrK3LOX.s:232    .text.platform_aton:0000000000000104 .L0 
C:\Users\stapi\AppData\Local\Temp\ccrK3LOX.s:234    .text.platform_aton:0000000000000106 .L0 
C:\Users\stapi\AppData\Local\Temp\ccrK3LOX.s:236    .text.platform_aton:0000000000000108 .L0 
C:\Users\stapi\AppData\Local\Temp\ccrK3LOX.s:241    .text.platform_aton:000000000000010e .L0 
C:\Users\stapi\AppData\Local\Temp\ccrK3LOX.s:242    .text.platform_aton:000000000000010e .L0 
C:\Users\stapi\AppData\Local\Temp\ccrK3LOX.s:245    .text.platform_aton:0000000000000116 .L0 
C:\Users\stapi\AppData\Local\Temp\ccrK3LOX.s:246    .text.platform_aton:0000000000000116 .L0 
C:\Users\stapi\AppData\Local\Temp\ccrK3LOX.s:250    .text.platform_aton:000000000000011a .L0 
C:\Users\stapi\AppData\Local\Temp\ccrK3LOX.s:253    .text.platform_aton:000000000000011c .L0 
C:\Users\stapi\AppData\Local\Temp\ccrK3LOX.s:256    .text.platform_aton:000000000000011e .L0 
C:\Users\stapi\AppData\Local\Temp\ccrK3LOX.s:257    .text.platform_aton:000000000000011e .L0 
C:\Users\stapi\AppData\Local\Temp\ccrK3LOX.s:260    .text.platform_aton:0000000000000124 .L0 
C:\Users\stapi\AppData\Local\Temp\ccrK3LOX.s:261    .text.platform_aton:0000000000000124 .L0 
C:\Users\stapi\AppData\Local\Temp\ccrK3LOX.s:263    .text.platform_aton:0000000000000126 .L0 
C:\Users\stapi\AppData\Local\Temp\ccrK3LOX.s:265    .text.platform_aton:0000000000000128 .L0 
C:\Users\stapi\AppData\Local\Temp\ccrK3LOX.s:267    .text.platform_aton:000000000000012a .L0 
C:\Users\stapi\AppData\Local\Temp\ccrK3LOX.s:270    .text.platform_aton:000000000000012c .L0 
C:\Users\stapi\AppData\Local\Temp\ccrK3LOX.s:275    .text.platform_aton:0000000000000130 .L0 
C:\Users\stapi\AppData\Local\Temp\ccrK3LOX.s:277    .text.platform_aton:0000000000000134 .L0 
C:\Users\stapi\AppData\Local\Temp\ccrK3LOX.s:284    .text.platform_is_multicast:0000000000000000 platform_is_multicast
C:\Users\stapi\AppData\Local\Temp\ccrK3LOX.s:287    .text.platform_is_multicast:0000000000000000 .L0 
C:\Users\stapi\AppData\Local\Temp\ccrK3LOX.s:289    .text.platform_is_multicast:0000000000000000 .L0 
C:\Users\stapi\AppData\Local\Temp\ccrK3LOX.s:290    .text.platform_is_multicast:0000000000000008 .L0 
C:\Users\stapi\AppData\Local\Temp\ccrK3LOX.s:291    .text.platform_is_multicast:0000000000000008 .L0 
C:\Users\stapi\AppData\Local\Temp\ccrK3LOX.s:293    .text.platform_is_multicast:0000000000000008 .L0 
C:\Users\stapi\AppData\Local\Temp\ccrK3LOX.s:294    .text.platform_is_multicast:0000000000000008 .L0 
C:\Users\stapi\AppData\Local\Temp\ccrK3LOX.s:295    .text.platform_is_multicast:0000000000000008 .L0 
C:\Users\stapi\AppData\Local\Temp\ccrK3LOX.s:298    .text.platform_is_multicast:0000000000000010 .L0 
C:\Users\stapi\AppData\Local\Temp\ccrK3LOX.s:299    .text.platform_is_multicast:0000000000000010 .L0 
C:\Users\stapi\AppData\Local\Temp\ccrK3LOX.s:304    .text.platform_is_multicast:000000000000001a .L0 
C:\Users\stapi\AppData\Local\Temp\ccrK3LOX.s:309    .text.platform_is_multicast:000000000000002e .L0 
C:\Users\stapi\AppData\Local\Temp\ccrK3LOX.s:310    .text.platform_is_multicast:000000000000002e .L0 
C:\Users\stapi\AppData\Local\Temp\ccrK3LOX.s:311    .text.platform_is_multicast:000000000000002e .L0 
C:\Users\stapi\AppData\Local\Temp\ccrK3LOX.s:280    .text.platform_aton:0000000000000134 .L0 
C:\Users\stapi\AppData\Local\Temp\ccrK3LOX.s:314    .text.platform_is_multicast:000000000000002e .L0 
                     .debug_frame:0000000000000000 .L0 
C:\Users\stapi\AppData\Local\Temp\ccrK3LOX.s:273    .text.platform_aton:0000000000000130 .L25
C:\Users\stapi\AppData\Local\Temp\ccrK3LOX.s:91     .text.platform_aton:0000000000000058 .L3
C:\Users\stapi\AppData\Local\Temp\ccrK3LOX.s:122    .text.platform_aton:0000000000000080 .L4
C:\Users\stapi\AppData\Local\Temp\ccrK3LOX.s:134    .text.platform_aton:000000000000008a .L6
C:\Users\stapi\AppData\Local\Temp\ccrK3LOX.s:96     .text.platform_aton:000000000000005e .L5
C:\Users\stapi\AppData\Local\Temp\ccrK3LOX.s:161    .text.platform_aton:00000000000000ae .L8
C:\Users\stapi\AppData\Local\Temp\ccrK3LOX.s:154    .text.platform_aton:00000000000000a6 .L9
C:\Users\stapi\AppData\Local\Temp\ccrK3LOX.s:114    .text.platform_aton:0000000000000078 .L33
C:\Users\stapi\AppData\Local\Temp\ccrK3LOX.s:183    .text.platform_aton:00000000000000c6 .L10
C:\Users\stapi\AppData\Local\Temp\ccrK3LOX.s:60     .text.platform_aton:0000000000000036 .L11
C:\Users\stapi\AppData\Local\Temp\ccrK3LOX.s:190    .text.platform_aton:00000000000000cc .L12
C:\Users\stapi\AppData\Local\Temp\ccrK3LOX.s:254    .text.platform_aton:000000000000011e .L13
C:\Users\stapi\AppData\Local\Temp\ccrK3LOX.s:215    .text.platform_aton:00000000000000f0 .L14
C:\Users\stapi\AppData\Local\Temp\ccrK3LOX.s:239    .text.platform_aton:000000000000010e .L15
C:\Users\stapi\AppData\Local\Temp\ccrK3LOX.s:206    .text.platform_aton:00000000000000e6 .L1
C:\Users\stapi\AppData\Local\Temp\ccrK3LOX.s:268    .text.platform_aton:000000000000012c .L35
C:\Users\stapi\AppData\Local\Temp\ccrK3LOX.s:248    .text.platform_aton:000000000000011a .L34
C:\Users\stapi\AppData\Local\Temp\ccrK3LOX.s:502    .debug_abbrev:0000000000000000 .Ldebug_abbrev0
C:\Users\stapi\AppData\Local\Temp\ccrK3LOX.s:1033   .debug_str:0000000000000144 .LASF17
C:\Users\stapi\AppData\Local\Temp\ccrK3LOX.s:1013   .debug_str:000000000000003e .LASF18
C:\Users\stapi\AppData\Local\Temp\ccrK3LOX.s:1045   .debug_str:000000000000025d .LASF19
C:\Users\stapi\AppData\Local\Temp\ccrK3LOX.s:995    .debug_ranges:0000000000000000 .Ldebug_ranges0
C:\Users\stapi\AppData\Local\Temp\ccrK3LOX.s:1003   .debug_line:0000000000000000 .Ldebug_line0
C:\Users\stapi\AppData\Local\Temp\ccrK3LOX.s:1035   .debug_str:000000000000022b .LASF0
C:\Users\stapi\AppData\Local\Temp\ccrK3LOX.s:1023   .debug_str:000000000000011a .LASF1
C:\Users\stapi\AppData\Local\Temp\ccrK3LOX.s:1039   .debug_str:000000000000023f .LASF2
C:\Users\stapi\AppData\Local\Temp\ccrK3LOX.s:1007   .debug_str:0000000000000016 .LASF3
C:\Users\stapi\AppData\Local\Temp\ccrK3LOX.s:1029   .debug_str:0000000000000134 .LASF4
C:\Users\stapi\AppData\Local\Temp\ccrK3LOX.s:1015   .debug_str:00000000000000de .LASF5
C:\Users\stapi\AppData\Local\Temp\ccrK3LOX.s:1017   .debug_str:00000000000000f0 .LASF6
C:\Users\stapi\AppData\Local\Temp\ccrK3LOX.s:1021   .debug_str:0000000000000103 .LASF7
C:\Users\stapi\AppData\Local\Temp\ccrK3LOX.s:1009   .debug_str:0000000000000029 .LASF8
C:\Users\stapi\AppData\Local\Temp\ccrK3LOX.s:1025   .debug_str:0000000000000128 .LASF9
C:\Users\stapi\AppData\Local\Temp\ccrK3LOX.s:1037   .debug_str:0000000000000237 .LASF20
C:\Users\stapi\AppData\Local\Temp\ccrK3LOX.s:1031   .debug_str:000000000000013d .LASF10
C:\Users\stapi\AppData\Local\Temp\ccrK3LOX.s:1005   .debug_str:0000000000000000 .LASF11
C:\Users\stapi\AppData\Local\Temp\ccrK3LOX.s:285    .text.platform_is_multicast:0000000000000000 .LFB21
C:\Users\stapi\AppData\Local\Temp\ccrK3LOX.s:312    .text.platform_is_multicast:000000000000002e .LFE21
C:\Users\stapi\AppData\Local\Temp\ccrK3LOX.s:1027   .debug_str:000000000000012d .LASF13
C:\Users\stapi\AppData\Local\Temp\ccrK3LOX.s:720    .debug_loc:0000000000000000 .LLST5
C:\Users\stapi\AppData\Local\Temp\ccrK3LOX.s:1011   .debug_str:0000000000000036 .LASF14
C:\Users\stapi\AppData\Local\Temp\ccrK3LOX.s:734    .debug_loc:0000000000000021 .LLST6
C:\Users\stapi\AppData\Local\Temp\ccrK3LOX.s:296    .text.platform_is_multicast:0000000000000010 .LVL27
C:\Users\stapi\AppData\Local\Temp\ccrK3LOX.s:1041   .debug_str:0000000000000249 .LASF12
C:\Users\stapi\AppData\Local\Temp\ccrK3LOX.s:14     .text.platform_aton:0000000000000000 .LFB20
C:\Users\stapi\AppData\Local\Temp\ccrK3LOX.s:278    .text.platform_aton:0000000000000134 .LFE20
C:\Users\stapi\AppData\Local\Temp\ccrK3LOX.s:747    .debug_loc:0000000000000045 .LLST0
C:\Users\stapi\AppData\Local\Temp\ccrK3LOX.s:814    .debug_loc:00000000000000ef .LLST1
C:\Users\stapi\AppData\Local\Temp\ccrK3LOX.s:1019   .debug_str:00000000000000fe .LASF15
C:\Users\stapi\AppData\Local\Temp\ccrK3LOX.s:901    .debug_loc:000000000000017c .LLST2
C:\Users\stapi\AppData\Local\Temp\ccrK3LOX.s:926    .debug_loc:00000000000001bd .LLST3
C:\Users\stapi\AppData\Local\Temp\ccrK3LOX.s:1043   .debug_str:0000000000000257 .LASF16
C:\Users\stapi\AppData\Local\Temp\ccrK3LOX.s:969    .debug_loc:000000000000022c .LLST4
C:\Users\stapi\AppData\Local\Temp\ccrK3LOX.s:288    .text.platform_is_multicast:0000000000000000 .LVL26
C:\Users\stapi\AppData\Local\Temp\ccrK3LOX.s:302    .text.platform_is_multicast:000000000000001a .LVL28
C:\Users\stapi\AppData\Local\Temp\ccrK3LOX.s:307    .text.platform_is_multicast:0000000000000026 .LVL29
C:\Users\stapi\AppData\Local\Temp\ccrK3LOX.s:18     .text.platform_aton:0000000000000000 .LVL0
C:\Users\stapi\AppData\Local\Temp\ccrK3LOX.s:78     .text.platform_aton:0000000000000048 .LVL5
C:\Users\stapi\AppData\Local\Temp\ccrK3LOX.s:87     .text.platform_aton:0000000000000056 .LVL6
C:\Users\stapi\AppData\Local\Temp\ccrK3LOX.s:95     .text.platform_aton:000000000000005e .LVL8
C:\Users\stapi\AppData\Local\Temp\ccrK3LOX.s:101    .text.platform_aton:000000000000006a .LVL9
C:\Users\stapi\AppData\Local\Temp\ccrK3LOX.s:112    .text.platform_aton:0000000000000078 .LVL10
C:\Users\stapi\AppData\Local\Temp\ccrK3LOX.s:119    .text.platform_aton:000000000000007e .LVL11
C:\Users\stapi\AppData\Local\Temp\ccrK3LOX.s:121    .text.platform_aton:0000000000000080 .LVL12
C:\Users\stapi\AppData\Local\Temp\ccrK3LOX.s:131    .text.platform_aton:0000000000000088 .LVL13
C:\Users\stapi\AppData\Local\Temp\ccrK3LOX.s:133    .text.platform_aton:000000000000008a .LVL14
C:\Users\stapi\AppData\Local\Temp\ccrK3LOX.s:151    .text.platform_aton:000000000000009e .LVL16
C:\Users\stapi\AppData\Local\Temp\ccrK3LOX.s:160    .text.platform_aton:00000000000000ae .LVL17
C:\Users\stapi\AppData\Local\Temp\ccrK3LOX.s:178    .text.platform_aton:00000000000000c4 .LVL19
C:\Users\stapi\AppData\Local\Temp\ccrK3LOX.s:182    .text.platform_aton:00000000000000c6 .LVL20
C:\Users\stapi\AppData\Local\Temp\ccrK3LOX.s:205    .text.platform_aton:00000000000000e6 .LVL22
C:\Users\stapi\AppData\Local\Temp\ccrK3LOX.s:214    .text.platform_aton:00000000000000f0 .LVL23
C:\Users\stapi\AppData\Local\Temp\ccrK3LOX.s:272    .text.platform_aton:0000000000000130 .LVL25
C:\Users\stapi\AppData\Local\Temp\ccrK3LOX.s:90     .text.platform_aton:0000000000000058 .LVL7
C:\Users\stapi\AppData\Local\Temp\ccrK3LOX.s:70     .text.platform_aton:0000000000000042 .LVL4
C:\Users\stapi\AppData\Local\Temp\ccrK3LOX.s:25     .text.platform_aton:0000000000000008 .LVL1
C:\Users\stapi\AppData\Local\Temp\ccrK3LOX.s:59     .text.platform_aton:0000000000000036 .LVL3
C:\Users\stapi\AppData\Local\Temp\ccrK3LOX.s:146    .text.platform_aton:0000000000000098 .LVL15
C:\Users\stapi\AppData\Local\Temp\ccrK3LOX.s:40     .text.platform_aton:0000000000000018 .LVL2
C:\Users\stapi\AppData\Local\Temp\ccrK3LOX.s:194    .text.platform_aton:00000000000000d0 .LVL21
C:\Users\stapi\AppData\Local\Temp\ccrK3LOX.s:318    .debug_info:0000000000000000 .Ldebug_info0

UNDEFINED SYMBOLS
__riscv_save_1
_ctype_
__riscv_restore_1
__riscv_save_0
__riscv_restore_0
