   1              		.file	"CoAPServer.c"
   2              		.option nopic
   3              		.attribute arch, "rv32i2p0_m2p0_a2p0_f2p0_c2p0_b_p0p94"
   4              		.attribute unaligned_access, 0
   5              		.attribute stack_align, 16
   6              		.text
   7              	.Ltext0:
   8              		.cfi_sections	.debug_frame
   9              		.section	.rodata.CoAPServer_yield.str1.4,"aMS",@progbits,1
  10              		.align	2
  11              	.LC0:
  12 0000 456E7465 		.string	"Enter to CoAP daemon task"
  12      7220746F 
  12      20436F41 
  12      50206461 
  12      656D6F6E 
  13 001a 0000     		.align	2
  14              	.LC1:
  15 001c 636F6170 		.string	"coap_local"
  15      5F6C6F63 
  15      616C00
  16 0027 00       		.align	2
  17              	.LC2:
  18 0028 5B696E66 		.string	"[inf] "
  18      5D2000
  19 002f 00       		.align	2
  20              	.LC3:
  21 0030 45786974 		.string	"Exit the CoAP daemon task, Post semphore"
  21      20746865 
  21      20436F41 
  21      50206461 
  21      656D6F6E 
  22 0059 000000   		.align	2
  23              	.LC4:
  24 005c 0D0A00   		.string	"\r\n"
  25              		.section	.text.CoAPServer_yield,"ax",@progbits
  26              		.align	1
  28              	CoAPServer_yield:
  29              	.LFB23:
  30              		.file 1 "C:/Users/stapi/OneDrive/Desktop/GD32VW553/V1_MQTT_OK/GD32VW55X_Wifi_BLE_SDK/GD32VW55x_REL
   1:C:/Users/stapi/OneDrive/Desktop/GD32VW553/V1_MQTT_OK/GD32VW55X_Wifi_BLE_SDK/GD32VW55x_RELEASE_V1.0.2/MSDK/cloud/alicloud/src/protocol/coap/local\CoAPServer.c **** /*
   2:C:/Users/stapi/OneDrive/Desktop/GD32VW553/V1_MQTT_OK/GD32VW55X_Wifi_BLE_SDK/GD32VW55x_RELEASE_V1.0.2/MSDK/cloud/alicloud/src/protocol/coap/local\CoAPServer.c ****  * Copyright (C) 2015-2018 Alibaba Group Holding Limited
   3:C:/Users/stapi/OneDrive/Desktop/GD32VW553/V1_MQTT_OK/GD32VW55X_Wifi_BLE_SDK/GD32VW55x_RELEASE_V1.0.2/MSDK/cloud/alicloud/src/protocol/coap/local\CoAPServer.c ****  */
   4:C:/Users/stapi/OneDrive/Desktop/GD32VW553/V1_MQTT_OK/GD32VW55X_Wifi_BLE_SDK/GD32VW55x_RELEASE_V1.0.2/MSDK/cloud/alicloud/src/protocol/coap/local\CoAPServer.c **** 
   5:C:/Users/stapi/OneDrive/Desktop/GD32VW553/V1_MQTT_OK/GD32VW55X_Wifi_BLE_SDK/GD32VW55x_RELEASE_V1.0.2/MSDK/cloud/alicloud/src/protocol/coap/local\CoAPServer.c **** 
   6:C:/Users/stapi/OneDrive/Desktop/GD32VW553/V1_MQTT_OK/GD32VW55X_Wifi_BLE_SDK/GD32VW55x_RELEASE_V1.0.2/MSDK/cloud/alicloud/src/protocol/coap/local\CoAPServer.c **** #include <string.h>
   7:C:/Users/stapi/OneDrive/Desktop/GD32VW553/V1_MQTT_OK/GD32VW55X_Wifi_BLE_SDK/GD32VW55x_RELEASE_V1.0.2/MSDK/cloud/alicloud/src/protocol/coap/local\CoAPServer.c **** #include "CoAPPlatform.h"
   8:C:/Users/stapi/OneDrive/Desktop/GD32VW553/V1_MQTT_OK/GD32VW55X_Wifi_BLE_SDK/GD32VW55x_RELEASE_V1.0.2/MSDK/cloud/alicloud/src/protocol/coap/local\CoAPServer.c **** #include "CoAPExport.h"
   9:C:/Users/stapi/OneDrive/Desktop/GD32VW553/V1_MQTT_OK/GD32VW55X_Wifi_BLE_SDK/GD32VW55x_RELEASE_V1.0.2/MSDK/cloud/alicloud/src/protocol/coap/local\CoAPServer.c **** #include "CoAPServer.h"
  10:C:/Users/stapi/OneDrive/Desktop/GD32VW553/V1_MQTT_OK/GD32VW55X_Wifi_BLE_SDK/GD32VW55x_RELEASE_V1.0.2/MSDK/cloud/alicloud/src/protocol/coap/local\CoAPServer.c **** 
  11:C:/Users/stapi/OneDrive/Desktop/GD32VW553/V1_MQTT_OK/GD32VW55X_Wifi_BLE_SDK/GD32VW55x_RELEASE_V1.0.2/MSDK/cloud/alicloud/src/protocol/coap/local\CoAPServer.c **** #define COAP_INIT_TOKEN     (0x01020304)
  12:C:/Users/stapi/OneDrive/Desktop/GD32VW553/V1_MQTT_OK/GD32VW55X_Wifi_BLE_SDK/GD32VW55x_RELEASE_V1.0.2/MSDK/cloud/alicloud/src/protocol/coap/local\CoAPServer.c **** 
  13:C:/Users/stapi/OneDrive/Desktop/GD32VW553/V1_MQTT_OK/GD32VW55X_Wifi_BLE_SDK/GD32VW55x_RELEASE_V1.0.2/MSDK/cloud/alicloud/src/protocol/coap/local\CoAPServer.c **** static unsigned int g_coap_running = 0;
  14:C:/Users/stapi/OneDrive/Desktop/GD32VW553/V1_MQTT_OK/GD32VW55X_Wifi_BLE_SDK/GD32VW55x_RELEASE_V1.0.2/MSDK/cloud/alicloud/src/protocol/coap/local\CoAPServer.c **** #ifdef COAP_SERV_MULTITHREAD
  15:C:/Users/stapi/OneDrive/Desktop/GD32VW553/V1_MQTT_OK/GD32VW55X_Wifi_BLE_SDK/GD32VW55x_RELEASE_V1.0.2/MSDK/cloud/alicloud/src/protocol/coap/local\CoAPServer.c ****     static void *g_coap_thread = NULL;
  16:C:/Users/stapi/OneDrive/Desktop/GD32VW553/V1_MQTT_OK/GD32VW55X_Wifi_BLE_SDK/GD32VW55x_RELEASE_V1.0.2/MSDK/cloud/alicloud/src/protocol/coap/local\CoAPServer.c ****     static void *g_semphore    = NULL;
  17:C:/Users/stapi/OneDrive/Desktop/GD32VW553/V1_MQTT_OK/GD32VW55X_Wifi_BLE_SDK/GD32VW55x_RELEASE_V1.0.2/MSDK/cloud/alicloud/src/protocol/coap/local\CoAPServer.c **** #endif
  18:C:/Users/stapi/OneDrive/Desktop/GD32VW553/V1_MQTT_OK/GD32VW55X_Wifi_BLE_SDK/GD32VW55x_RELEASE_V1.0.2/MSDK/cloud/alicloud/src/protocol/coap/local\CoAPServer.c **** static CoAPContext *g_context = NULL;
  19:C:/Users/stapi/OneDrive/Desktop/GD32VW553/V1_MQTT_OK/GD32VW55X_Wifi_BLE_SDK/GD32VW55x_RELEASE_V1.0.2/MSDK/cloud/alicloud/src/protocol/coap/local\CoAPServer.c **** 
  20:C:/Users/stapi/OneDrive/Desktop/GD32VW553/V1_MQTT_OK/GD32VW55X_Wifi_BLE_SDK/GD32VW55x_RELEASE_V1.0.2/MSDK/cloud/alicloud/src/protocol/coap/local\CoAPServer.c **** static unsigned int CoAPServerToken_get(unsigned char *p_encoded_data)
  21:C:/Users/stapi/OneDrive/Desktop/GD32VW553/V1_MQTT_OK/GD32VW55X_Wifi_BLE_SDK/GD32VW55x_RELEASE_V1.0.2/MSDK/cloud/alicloud/src/protocol/coap/local\CoAPServer.c **** {
  22:C:/Users/stapi/OneDrive/Desktop/GD32VW553/V1_MQTT_OK/GD32VW55X_Wifi_BLE_SDK/GD32VW55x_RELEASE_V1.0.2/MSDK/cloud/alicloud/src/protocol/coap/local\CoAPServer.c ****     static unsigned int value = COAP_INIT_TOKEN;
  23:C:/Users/stapi/OneDrive/Desktop/GD32VW553/V1_MQTT_OK/GD32VW55X_Wifi_BLE_SDK/GD32VW55x_RELEASE_V1.0.2/MSDK/cloud/alicloud/src/protocol/coap/local\CoAPServer.c ****     p_encoded_data[0] = (unsigned char)((value & 0x00FF) >> 0);
  24:C:/Users/stapi/OneDrive/Desktop/GD32VW553/V1_MQTT_OK/GD32VW55X_Wifi_BLE_SDK/GD32VW55x_RELEASE_V1.0.2/MSDK/cloud/alicloud/src/protocol/coap/local\CoAPServer.c ****     p_encoded_data[1] = (unsigned char)((value & 0xFF00) >> 8);
  25:C:/Users/stapi/OneDrive/Desktop/GD32VW553/V1_MQTT_OK/GD32VW55X_Wifi_BLE_SDK/GD32VW55x_RELEASE_V1.0.2/MSDK/cloud/alicloud/src/protocol/coap/local\CoAPServer.c ****     p_encoded_data[2] = (unsigned char)((value & 0xFF0000) >> 16);
  26:C:/Users/stapi/OneDrive/Desktop/GD32VW553/V1_MQTT_OK/GD32VW55X_Wifi_BLE_SDK/GD32VW55x_RELEASE_V1.0.2/MSDK/cloud/alicloud/src/protocol/coap/local\CoAPServer.c ****     p_encoded_data[3] = (unsigned char)((value & 0xFF000000) >> 24);
  27:C:/Users/stapi/OneDrive/Desktop/GD32VW553/V1_MQTT_OK/GD32VW55X_Wifi_BLE_SDK/GD32VW55x_RELEASE_V1.0.2/MSDK/cloud/alicloud/src/protocol/coap/local\CoAPServer.c ****     value++;
  28:C:/Users/stapi/OneDrive/Desktop/GD32VW553/V1_MQTT_OK/GD32VW55X_Wifi_BLE_SDK/GD32VW55x_RELEASE_V1.0.2/MSDK/cloud/alicloud/src/protocol/coap/local\CoAPServer.c ****     return sizeof(unsigned int);
  29:C:/Users/stapi/OneDrive/Desktop/GD32VW553/V1_MQTT_OK/GD32VW55X_Wifi_BLE_SDK/GD32VW55x_RELEASE_V1.0.2/MSDK/cloud/alicloud/src/protocol/coap/local\CoAPServer.c **** }
  30:C:/Users/stapi/OneDrive/Desktop/GD32VW553/V1_MQTT_OK/GD32VW55X_Wifi_BLE_SDK/GD32VW55x_RELEASE_V1.0.2/MSDK/cloud/alicloud/src/protocol/coap/local\CoAPServer.c **** 
  31:C:/Users/stapi/OneDrive/Desktop/GD32VW553/V1_MQTT_OK/GD32VW55X_Wifi_BLE_SDK/GD32VW55x_RELEASE_V1.0.2/MSDK/cloud/alicloud/src/protocol/coap/local\CoAPServer.c **** static int CoAPServerPath_2_option(char *uri, CoAPMessage *message)
  32:C:/Users/stapi/OneDrive/Desktop/GD32VW553/V1_MQTT_OK/GD32VW55X_Wifi_BLE_SDK/GD32VW55x_RELEASE_V1.0.2/MSDK/cloud/alicloud/src/protocol/coap/local\CoAPServer.c **** {
  33:C:/Users/stapi/OneDrive/Desktop/GD32VW553/V1_MQTT_OK/GD32VW55X_Wifi_BLE_SDK/GD32VW55x_RELEASE_V1.0.2/MSDK/cloud/alicloud/src/protocol/coap/local\CoAPServer.c ****     char *ptr     = NULL;
  34:C:/Users/stapi/OneDrive/Desktop/GD32VW553/V1_MQTT_OK/GD32VW55X_Wifi_BLE_SDK/GD32VW55x_RELEASE_V1.0.2/MSDK/cloud/alicloud/src/protocol/coap/local\CoAPServer.c ****     char *pstr    = NULL;
  35:C:/Users/stapi/OneDrive/Desktop/GD32VW553/V1_MQTT_OK/GD32VW55X_Wifi_BLE_SDK/GD32VW55x_RELEASE_V1.0.2/MSDK/cloud/alicloud/src/protocol/coap/local\CoAPServer.c ****     char  path[COAP_MSG_MAX_PATH_LEN]  = {0};
  36:C:/Users/stapi/OneDrive/Desktop/GD32VW553/V1_MQTT_OK/GD32VW55X_Wifi_BLE_SDK/GD32VW55x_RELEASE_V1.0.2/MSDK/cloud/alicloud/src/protocol/coap/local\CoAPServer.c **** 
  37:C:/Users/stapi/OneDrive/Desktop/GD32VW553/V1_MQTT_OK/GD32VW55X_Wifi_BLE_SDK/GD32VW55x_RELEASE_V1.0.2/MSDK/cloud/alicloud/src/protocol/coap/local\CoAPServer.c ****     if (NULL == uri || NULL == message) {
  38:C:/Users/stapi/OneDrive/Desktop/GD32VW553/V1_MQTT_OK/GD32VW55X_Wifi_BLE_SDK/GD32VW55x_RELEASE_V1.0.2/MSDK/cloud/alicloud/src/protocol/coap/local\CoAPServer.c ****         COAP_ERR("Invalid paramter p_path %p, p_message %p", uri, message);
  39:C:/Users/stapi/OneDrive/Desktop/GD32VW553/V1_MQTT_OK/GD32VW55X_Wifi_BLE_SDK/GD32VW55x_RELEASE_V1.0.2/MSDK/cloud/alicloud/src/protocol/coap/local\CoAPServer.c ****         return COAP_ERROR_INVALID_PARAM;
  40:C:/Users/stapi/OneDrive/Desktop/GD32VW553/V1_MQTT_OK/GD32VW55X_Wifi_BLE_SDK/GD32VW55x_RELEASE_V1.0.2/MSDK/cloud/alicloud/src/protocol/coap/local\CoAPServer.c ****     }
  41:C:/Users/stapi/OneDrive/Desktop/GD32VW553/V1_MQTT_OK/GD32VW55X_Wifi_BLE_SDK/GD32VW55x_RELEASE_V1.0.2/MSDK/cloud/alicloud/src/protocol/coap/local\CoAPServer.c ****     if (COAP_MSG_MAX_PATH_LEN <= strlen(uri)) {
  42:C:/Users/stapi/OneDrive/Desktop/GD32VW553/V1_MQTT_OK/GD32VW55X_Wifi_BLE_SDK/GD32VW55x_RELEASE_V1.0.2/MSDK/cloud/alicloud/src/protocol/coap/local\CoAPServer.c ****         COAP_ERR("The uri length is too long,len = %d", (int)strlen(uri));
  43:C:/Users/stapi/OneDrive/Desktop/GD32VW553/V1_MQTT_OK/GD32VW55X_Wifi_BLE_SDK/GD32VW55x_RELEASE_V1.0.2/MSDK/cloud/alicloud/src/protocol/coap/local\CoAPServer.c ****         return COAP_ERROR_INVALID_LENGTH;
  44:C:/Users/stapi/OneDrive/Desktop/GD32VW553/V1_MQTT_OK/GD32VW55X_Wifi_BLE_SDK/GD32VW55x_RELEASE_V1.0.2/MSDK/cloud/alicloud/src/protocol/coap/local\CoAPServer.c ****     }
  45:C:/Users/stapi/OneDrive/Desktop/GD32VW553/V1_MQTT_OK/GD32VW55X_Wifi_BLE_SDK/GD32VW55x_RELEASE_V1.0.2/MSDK/cloud/alicloud/src/protocol/coap/local\CoAPServer.c **** 
  46:C:/Users/stapi/OneDrive/Desktop/GD32VW553/V1_MQTT_OK/GD32VW55X_Wifi_BLE_SDK/GD32VW55x_RELEASE_V1.0.2/MSDK/cloud/alicloud/src/protocol/coap/local\CoAPServer.c ****     COAP_DEBUG("The uri is %s", uri);
  47:C:/Users/stapi/OneDrive/Desktop/GD32VW553/V1_MQTT_OK/GD32VW55X_Wifi_BLE_SDK/GD32VW55x_RELEASE_V1.0.2/MSDK/cloud/alicloud/src/protocol/coap/local\CoAPServer.c **** 
  48:C:/Users/stapi/OneDrive/Desktop/GD32VW553/V1_MQTT_OK/GD32VW55X_Wifi_BLE_SDK/GD32VW55x_RELEASE_V1.0.2/MSDK/cloud/alicloud/src/protocol/coap/local\CoAPServer.c ****     ptr = pstr = uri;
  49:C:/Users/stapi/OneDrive/Desktop/GD32VW553/V1_MQTT_OK/GD32VW55X_Wifi_BLE_SDK/GD32VW55x_RELEASE_V1.0.2/MSDK/cloud/alicloud/src/protocol/coap/local\CoAPServer.c ****     while ('\0' != *ptr) {
  50:C:/Users/stapi/OneDrive/Desktop/GD32VW553/V1_MQTT_OK/GD32VW55X_Wifi_BLE_SDK/GD32VW55x_RELEASE_V1.0.2/MSDK/cloud/alicloud/src/protocol/coap/local\CoAPServer.c ****         if ('/' == *ptr) {
  51:C:/Users/stapi/OneDrive/Desktop/GD32VW553/V1_MQTT_OK/GD32VW55X_Wifi_BLE_SDK/GD32VW55x_RELEASE_V1.0.2/MSDK/cloud/alicloud/src/protocol/coap/local\CoAPServer.c ****             if (ptr != pstr) {
  52:C:/Users/stapi/OneDrive/Desktop/GD32VW553/V1_MQTT_OK/GD32VW55X_Wifi_BLE_SDK/GD32VW55x_RELEASE_V1.0.2/MSDK/cloud/alicloud/src/protocol/coap/local\CoAPServer.c ****                 memset(path, 0x00, sizeof(path));
  53:C:/Users/stapi/OneDrive/Desktop/GD32VW553/V1_MQTT_OK/GD32VW55X_Wifi_BLE_SDK/GD32VW55x_RELEASE_V1.0.2/MSDK/cloud/alicloud/src/protocol/coap/local\CoAPServer.c ****                 strncpy(path, pstr, ptr - pstr);
  54:C:/Users/stapi/OneDrive/Desktop/GD32VW553/V1_MQTT_OK/GD32VW55X_Wifi_BLE_SDK/GD32VW55x_RELEASE_V1.0.2/MSDK/cloud/alicloud/src/protocol/coap/local\CoAPServer.c ****                 CoAPStrOption_add(message, COAP_OPTION_URI_PATH,
  55:C:/Users/stapi/OneDrive/Desktop/GD32VW553/V1_MQTT_OK/GD32VW55X_Wifi_BLE_SDK/GD32VW55x_RELEASE_V1.0.2/MSDK/cloud/alicloud/src/protocol/coap/local\CoAPServer.c ****                                   (unsigned char *)path, (int)strlen(path));
  56:C:/Users/stapi/OneDrive/Desktop/GD32VW553/V1_MQTT_OK/GD32VW55X_Wifi_BLE_SDK/GD32VW55x_RELEASE_V1.0.2/MSDK/cloud/alicloud/src/protocol/coap/local\CoAPServer.c ****             }
  57:C:/Users/stapi/OneDrive/Desktop/GD32VW553/V1_MQTT_OK/GD32VW55X_Wifi_BLE_SDK/GD32VW55x_RELEASE_V1.0.2/MSDK/cloud/alicloud/src/protocol/coap/local\CoAPServer.c ****             pstr = ptr + 1;
  58:C:/Users/stapi/OneDrive/Desktop/GD32VW553/V1_MQTT_OK/GD32VW55X_Wifi_BLE_SDK/GD32VW55x_RELEASE_V1.0.2/MSDK/cloud/alicloud/src/protocol/coap/local\CoAPServer.c **** 
  59:C:/Users/stapi/OneDrive/Desktop/GD32VW553/V1_MQTT_OK/GD32VW55X_Wifi_BLE_SDK/GD32VW55x_RELEASE_V1.0.2/MSDK/cloud/alicloud/src/protocol/coap/local\CoAPServer.c ****         }
  60:C:/Users/stapi/OneDrive/Desktop/GD32VW553/V1_MQTT_OK/GD32VW55X_Wifi_BLE_SDK/GD32VW55x_RELEASE_V1.0.2/MSDK/cloud/alicloud/src/protocol/coap/local\CoAPServer.c ****         if ('\0' == *(ptr + 1) && '\0' != *pstr) {
  61:C:/Users/stapi/OneDrive/Desktop/GD32VW553/V1_MQTT_OK/GD32VW55X_Wifi_BLE_SDK/GD32VW55x_RELEASE_V1.0.2/MSDK/cloud/alicloud/src/protocol/coap/local\CoAPServer.c ****             memset(path, 0x00, sizeof(path));
  62:C:/Users/stapi/OneDrive/Desktop/GD32VW553/V1_MQTT_OK/GD32VW55X_Wifi_BLE_SDK/GD32VW55x_RELEASE_V1.0.2/MSDK/cloud/alicloud/src/protocol/coap/local\CoAPServer.c ****             strncpy(path, pstr, sizeof(path) - 1);
  63:C:/Users/stapi/OneDrive/Desktop/GD32VW553/V1_MQTT_OK/GD32VW55X_Wifi_BLE_SDK/GD32VW55x_RELEASE_V1.0.2/MSDK/cloud/alicloud/src/protocol/coap/local\CoAPServer.c ****             CoAPStrOption_add(message, COAP_OPTION_URI_PATH,
  64:C:/Users/stapi/OneDrive/Desktop/GD32VW553/V1_MQTT_OK/GD32VW55X_Wifi_BLE_SDK/GD32VW55x_RELEASE_V1.0.2/MSDK/cloud/alicloud/src/protocol/coap/local\CoAPServer.c ****                               (unsigned char *)path, (int)strlen(path));
  65:C:/Users/stapi/OneDrive/Desktop/GD32VW553/V1_MQTT_OK/GD32VW55X_Wifi_BLE_SDK/GD32VW55x_RELEASE_V1.0.2/MSDK/cloud/alicloud/src/protocol/coap/local\CoAPServer.c ****         }
  66:C:/Users/stapi/OneDrive/Desktop/GD32VW553/V1_MQTT_OK/GD32VW55X_Wifi_BLE_SDK/GD32VW55x_RELEASE_V1.0.2/MSDK/cloud/alicloud/src/protocol/coap/local\CoAPServer.c ****         ptr ++;
  67:C:/Users/stapi/OneDrive/Desktop/GD32VW553/V1_MQTT_OK/GD32VW55X_Wifi_BLE_SDK/GD32VW55x_RELEASE_V1.0.2/MSDK/cloud/alicloud/src/protocol/coap/local\CoAPServer.c ****     }
  68:C:/Users/stapi/OneDrive/Desktop/GD32VW553/V1_MQTT_OK/GD32VW55X_Wifi_BLE_SDK/GD32VW55x_RELEASE_V1.0.2/MSDK/cloud/alicloud/src/protocol/coap/local\CoAPServer.c ****     return COAP_SUCCESS;
  69:C:/Users/stapi/OneDrive/Desktop/GD32VW553/V1_MQTT_OK/GD32VW55X_Wifi_BLE_SDK/GD32VW55x_RELEASE_V1.0.2/MSDK/cloud/alicloud/src/protocol/coap/local\CoAPServer.c **** }
  70:C:/Users/stapi/OneDrive/Desktop/GD32VW553/V1_MQTT_OK/GD32VW55X_Wifi_BLE_SDK/GD32VW55x_RELEASE_V1.0.2/MSDK/cloud/alicloud/src/protocol/coap/local\CoAPServer.c **** 
  71:C:/Users/stapi/OneDrive/Desktop/GD32VW553/V1_MQTT_OK/GD32VW55X_Wifi_BLE_SDK/GD32VW55x_RELEASE_V1.0.2/MSDK/cloud/alicloud/src/protocol/coap/local\CoAPServer.c **** void CoAPServer_thread_leave()
  72:C:/Users/stapi/OneDrive/Desktop/GD32VW553/V1_MQTT_OK/GD32VW55X_Wifi_BLE_SDK/GD32VW55x_RELEASE_V1.0.2/MSDK/cloud/alicloud/src/protocol/coap/local\CoAPServer.c **** {
  73:C:/Users/stapi/OneDrive/Desktop/GD32VW553/V1_MQTT_OK/GD32VW55X_Wifi_BLE_SDK/GD32VW55x_RELEASE_V1.0.2/MSDK/cloud/alicloud/src/protocol/coap/local\CoAPServer.c ****     g_coap_running = 0;
  74:C:/Users/stapi/OneDrive/Desktop/GD32VW553/V1_MQTT_OK/GD32VW55X_Wifi_BLE_SDK/GD32VW55x_RELEASE_V1.0.2/MSDK/cloud/alicloud/src/protocol/coap/local\CoAPServer.c **** }
  75:C:/Users/stapi/OneDrive/Desktop/GD32VW553/V1_MQTT_OK/GD32VW55X_Wifi_BLE_SDK/GD32VW55x_RELEASE_V1.0.2/MSDK/cloud/alicloud/src/protocol/coap/local\CoAPServer.c **** 
  76:C:/Users/stapi/OneDrive/Desktop/GD32VW553/V1_MQTT_OK/GD32VW55X_Wifi_BLE_SDK/GD32VW55x_RELEASE_V1.0.2/MSDK/cloud/alicloud/src/protocol/coap/local\CoAPServer.c **** void *coap_yield_mutex = NULL;
  77:C:/Users/stapi/OneDrive/Desktop/GD32VW553/V1_MQTT_OK/GD32VW55X_Wifi_BLE_SDK/GD32VW55x_RELEASE_V1.0.2/MSDK/cloud/alicloud/src/protocol/coap/local\CoAPServer.c **** 
  78:C:/Users/stapi/OneDrive/Desktop/GD32VW553/V1_MQTT_OK/GD32VW55X_Wifi_BLE_SDK/GD32VW55x_RELEASE_V1.0.2/MSDK/cloud/alicloud/src/protocol/coap/local\CoAPServer.c **** static void *CoAPServer_yield(void *param)
  79:C:/Users/stapi/OneDrive/Desktop/GD32VW553/V1_MQTT_OK/GD32VW55X_Wifi_BLE_SDK/GD32VW55x_RELEASE_V1.0.2/MSDK/cloud/alicloud/src/protocol/coap/local\CoAPServer.c **** {
  31              		.loc 1 79 1
  32              		.cfi_startproc
  33              	.LVL0:
  34 0000 17030000 		call	t0,__riscv_save_4
  34      E7020300 
  35              		.cfi_offset 19, -20
  36              		.cfi_offset 18, -16
  37              		.cfi_offset 9, -12
  38              		.cfi_offset 8, -8
  39              		.cfi_offset 1, -4
  40              		.cfi_def_cfa_offset 32
  80:C:/Users/stapi/OneDrive/Desktop/GD32VW553/V1_MQTT_OK/GD32VW55X_Wifi_BLE_SDK/GD32VW55x_RELEASE_V1.0.2/MSDK/cloud/alicloud/src/protocol/coap/local\CoAPServer.c ****     CoAPContext *context = (CoAPContext *)param;
  41              		.loc 1 80 5
  79:C:/Users/stapi/OneDrive/Desktop/GD32VW553/V1_MQTT_OK/GD32VW55X_Wifi_BLE_SDK/GD32VW55x_RELEASE_V1.0.2/MSDK/cloud/alicloud/src/protocol/coap/local\CoAPServer.c ****     CoAPContext *context = (CoAPContext *)param;
  42              		.loc 1 79 1 is_stmt 0
  43 0008 AA84     		mv	s1,a0
  44              	.LVL1:
  81:C:/Users/stapi/OneDrive/Desktop/GD32VW553/V1_MQTT_OK/GD32VW55X_Wifi_BLE_SDK/GD32VW55x_RELEASE_V1.0.2/MSDK/cloud/alicloud/src/protocol/coap/local\CoAPServer.c **** #ifdef COAP_SERV_MULTITHREAD
  82:C:/Users/stapi/OneDrive/Desktop/GD32VW553/V1_MQTT_OK/GD32VW55X_Wifi_BLE_SDK/GD32VW55x_RELEASE_V1.0.2/MSDK/cloud/alicloud/src/protocol/coap/local\CoAPServer.c ****     void *cur_thread = g_coap_thread;
  45              		.loc 1 82 5 is_stmt 1
  83:C:/Users/stapi/OneDrive/Desktop/GD32VW553/V1_MQTT_OK/GD32VW55X_Wifi_BLE_SDK/GD32VW55x_RELEASE_V1.0.2/MSDK/cloud/alicloud/src/protocol/coap/local\CoAPServer.c **** #endif
  84:C:/Users/stapi/OneDrive/Desktop/GD32VW553/V1_MQTT_OK/GD32VW55X_Wifi_BLE_SDK/GD32VW55x_RELEASE_V1.0.2/MSDK/cloud/alicloud/src/protocol/coap/local\CoAPServer.c ****     COAP_DEBUG("Enter to CoAP daemon task");
  46              		.loc 1 84 5 is_stmt 0
  47 000a 37070000 		lui	a4,%hi(.LC0)
  48 000e B7050000 		lui	a1,%hi(.LANCHOR1)
  49 0012 37050000 		lui	a0,%hi(.LC1)
  50              	.LVL2:
  82:C:/Users/stapi/OneDrive/Desktop/GD32VW553/V1_MQTT_OK/GD32VW55X_Wifi_BLE_SDK/GD32VW55x_RELEASE_V1.0.2/MSDK/cloud/alicloud/src/protocol/coap/local\CoAPServer.c **** #endif
  51              		.loc 1 82 11
  52 0016 37040000 		lui	s0,%hi(.LANCHOR0)
  53              		.loc 1 84 5
  54 001a 13070700 		addi	a4,a4,%lo(.LC0)
  55 001e 9546     		li	a3,5
  56 0020 13064005 		li	a2,84
  57 0024 93850500 		addi	a1,a1,%lo(.LANCHOR1)
  58 0028 13050500 		addi	a0,a0,%lo(.LC1)
  82:C:/Users/stapi/OneDrive/Desktop/GD32VW553/V1_MQTT_OK/GD32VW55X_Wifi_BLE_SDK/GD32VW55x_RELEASE_V1.0.2/MSDK/cloud/alicloud/src/protocol/coap/local\CoAPServer.c **** #endif
  59              		.loc 1 82 11
  60 002c 03290400 		lw	s2,%lo(.LANCHOR0)(s0)
  61              	.LVL3:
  62              		.loc 1 84 5 is_stmt 1
  85:C:/Users/stapi/OneDrive/Desktop/GD32VW553/V1_MQTT_OK/GD32VW55X_Wifi_BLE_SDK/GD32VW55x_RELEASE_V1.0.2/MSDK/cloud/alicloud/src/protocol/coap/local\CoAPServer.c **** 
  86:C:/Users/stapi/OneDrive/Desktop/GD32VW553/V1_MQTT_OK/GD32VW55X_Wifi_BLE_SDK/GD32VW55x_RELEASE_V1.0.2/MSDK/cloud/alicloud/src/protocol/coap/local\CoAPServer.c ****     while (g_coap_running) {
  63              		.loc 1 86 12 is_stmt 0
  64 0030 B7090000 		lui	s3,%hi(.LANCHOR2)
  84:C:/Users/stapi/OneDrive/Desktop/GD32VW553/V1_MQTT_OK/GD32VW55X_Wifi_BLE_SDK/GD32VW55x_RELEASE_V1.0.2/MSDK/cloud/alicloud/src/protocol/coap/local\CoAPServer.c **** 
  65              		.loc 1 84 5
  66 0034 97000000 		call	LITE_syslog
  66      E7800000 
  67              	.LVL4:
  68              		.loc 1 86 5 is_stmt 1
  69 003c 13040400 		addi	s0,s0,%lo(.LANCHOR0)
  70              	.L2:
  71              		.loc 1 86 11
  72 0040 83A70900 		lw	a5,%lo(.LANCHOR2)(s3)
  73 0044 A9EF     		bne	a5,zero,.L3
  87:C:/Users/stapi/OneDrive/Desktop/GD32VW553/V1_MQTT_OK/GD32VW55X_Wifi_BLE_SDK/GD32VW55x_RELEASE_V1.0.2/MSDK/cloud/alicloud/src/protocol/coap/local\CoAPServer.c ****         CoAPMessage_cycle(context);
  88:C:/Users/stapi/OneDrive/Desktop/GD32VW553/V1_MQTT_OK/GD32VW55X_Wifi_BLE_SDK/GD32VW55x_RELEASE_V1.0.2/MSDK/cloud/alicloud/src/protocol/coap/local\CoAPServer.c ****     }
  89:C:/Users/stapi/OneDrive/Desktop/GD32VW553/V1_MQTT_OK/GD32VW55X_Wifi_BLE_SDK/GD32VW55x_RELEASE_V1.0.2/MSDK/cloud/alicloud/src/protocol/coap/local\CoAPServer.c **** 
  90:C:/Users/stapi/OneDrive/Desktop/GD32VW553/V1_MQTT_OK/GD32VW55X_Wifi_BLE_SDK/GD32VW55x_RELEASE_V1.0.2/MSDK/cloud/alicloud/src/protocol/coap/local\CoAPServer.c **** #ifdef COAP_SERV_MULTITHREAD
  91:C:/Users/stapi/OneDrive/Desktop/GD32VW553/V1_MQTT_OK/GD32VW55X_Wifi_BLE_SDK/GD32VW55x_RELEASE_V1.0.2/MSDK/cloud/alicloud/src/protocol/coap/local\CoAPServer.c ****     HAL_SemaphorePost(g_semphore);
  74              		.loc 1 91 5
  75 0046 B7070000 		lui	a5,%hi(.LANCHOR3)
  76 004a 03A50700 		lw	a0,%lo(.LANCHOR3)(a5)
  77 004e 97000000 		call	HAL_SemaphorePost
  77      E7800000 
  78              	.LVL5:
  92:C:/Users/stapi/OneDrive/Desktop/GD32VW553/V1_MQTT_OK/GD32VW55X_Wifi_BLE_SDK/GD32VW55x_RELEASE_V1.0.2/MSDK/cloud/alicloud/src/protocol/coap/local\CoAPServer.c ****     COAP_INFO("Exit the CoAP daemon task, Post semphore");
  79              		.loc 1 92 5
  80              		.loc 1 92 5
  81 0056 37050000 		lui	a0,%hi(.LC2)
  82 005a 13050500 		addi	a0,a0,%lo(.LC2)
  83 005e 97000000 		call	HAL_Printf
  83      E7800000 
  84              	.LVL6:
  85              		.loc 1 92 5
  86 0066 37050000 		lui	a0,%hi(.LC3)
  87 006a 13050500 		addi	a0,a0,%lo(.LC3)
  88 006e 97000000 		call	HAL_Printf
  88      E7800000 
  89              	.LVL7:
  90              		.loc 1 92 5
  91 0076 37050000 		lui	a0,%hi(.LC4)
  92 007a 13050500 		addi	a0,a0,%lo(.LC4)
  93 007e 97000000 		call	HAL_Printf
  93      E7800000 
  94              	.LVL8:
  95              		.loc 1 92 5
  93:C:/Users/stapi/OneDrive/Desktop/GD32VW553/V1_MQTT_OK/GD32VW55X_Wifi_BLE_SDK/GD32VW55x_RELEASE_V1.0.2/MSDK/cloud/alicloud/src/protocol/coap/local\CoAPServer.c ****     g_coap_thread = NULL;
  96              		.loc 1 93 5
  94:C:/Users/stapi/OneDrive/Desktop/GD32VW553/V1_MQTT_OK/GD32VW55X_Wifi_BLE_SDK/GD32VW55x_RELEASE_V1.0.2/MSDK/cloud/alicloud/src/protocol/coap/local\CoAPServer.c ****     HAL_ThreadDelete(cur_thread);
  97              		.loc 1 94 5 is_stmt 0
  98 0086 4A85     		mv	a0,s2
  93:C:/Users/stapi/OneDrive/Desktop/GD32VW553/V1_MQTT_OK/GD32VW55X_Wifi_BLE_SDK/GD32VW55x_RELEASE_V1.0.2/MSDK/cloud/alicloud/src/protocol/coap/local\CoAPServer.c ****     g_coap_thread = NULL;
  99              		.loc 1 93 19
 100 0088 23200400 		sw	zero,0(s0)
 101              		.loc 1 94 5 is_stmt 1
 102 008c 97000000 		call	HAL_ThreadDelete
 102      E7800000 
 103              	.LVL9:
  95:C:/Users/stapi/OneDrive/Desktop/GD32VW553/V1_MQTT_OK/GD32VW55X_Wifi_BLE_SDK/GD32VW55x_RELEASE_V1.0.2/MSDK/cloud/alicloud/src/protocol/coap/local\CoAPServer.c **** 
  96:C:/Users/stapi/OneDrive/Desktop/GD32VW553/V1_MQTT_OK/GD32VW55X_Wifi_BLE_SDK/GD32VW55x_RELEASE_V1.0.2/MSDK/cloud/alicloud/src/protocol/coap/local\CoAPServer.c **** #endif
  97:C:/Users/stapi/OneDrive/Desktop/GD32VW553/V1_MQTT_OK/GD32VW55X_Wifi_BLE_SDK/GD32VW55x_RELEASE_V1.0.2/MSDK/cloud/alicloud/src/protocol/coap/local\CoAPServer.c ****     return NULL;
 104              		.loc 1 97 5
  98:C:/Users/stapi/OneDrive/Desktop/GD32VW553/V1_MQTT_OK/GD32VW55X_Wifi_BLE_SDK/GD32VW55x_RELEASE_V1.0.2/MSDK/cloud/alicloud/src/protocol/coap/local\CoAPServer.c **** }
 105              		.loc 1 98 1 is_stmt 0
 106 0094 0145     		li	a0,0
 107 0096 17030000 		tail	__riscv_restore_4
 107      67000300 
 108              		.cfi_remember_state
 109              		.cfi_restore 19
 110              		.cfi_restore 18
 111              		.cfi_restore 9
 112              		.cfi_restore 8
 113              		.cfi_restore 1
 114              		.cfi_def_cfa_offset 0
 115              	.L3:
 116              		.cfi_restore_state
  87:C:/Users/stapi/OneDrive/Desktop/GD32VW553/V1_MQTT_OK/GD32VW55X_Wifi_BLE_SDK/GD32VW55x_RELEASE_V1.0.2/MSDK/cloud/alicloud/src/protocol/coap/local\CoAPServer.c ****     }
 117              		.loc 1 87 9 is_stmt 1
 118 009e 2685     		mv	a0,s1
 119 00a0 97000000 		call	CoAPMessage_cycle
 119      E7800000 
 120              	.LVL10:
 121 00a8 61BF     		j	.L2
 122              		.cfi_endproc
 123              	.LFE23:
 125              		.section	.text.CoAPServer_thread_leave,"ax",@progbits
 126              		.align	1
 127              		.globl	CoAPServer_thread_leave
 129              	CoAPServer_thread_leave:
 130              	.LFB22:
  72:C:/Users/stapi/OneDrive/Desktop/GD32VW553/V1_MQTT_OK/GD32VW55X_Wifi_BLE_SDK/GD32VW55x_RELEASE_V1.0.2/MSDK/cloud/alicloud/src/protocol/coap/local\CoAPServer.c ****     g_coap_running = 0;
 131              		.loc 1 72 1
 132              		.cfi_startproc
  73:C:/Users/stapi/OneDrive/Desktop/GD32VW553/V1_MQTT_OK/GD32VW55X_Wifi_BLE_SDK/GD32VW55x_RELEASE_V1.0.2/MSDK/cloud/alicloud/src/protocol/coap/local\CoAPServer.c **** }
 133              		.loc 1 73 5
  73:C:/Users/stapi/OneDrive/Desktop/GD32VW553/V1_MQTT_OK/GD32VW55X_Wifi_BLE_SDK/GD32VW55x_RELEASE_V1.0.2/MSDK/cloud/alicloud/src/protocol/coap/local\CoAPServer.c **** }
 134              		.loc 1 73 20 is_stmt 0
 135 0000 B7070000 		lui	a5,%hi(.LANCHOR2)
 136 0004 23A00700 		sw	zero,%lo(.LANCHOR2)(a5)
  74:C:/Users/stapi/OneDrive/Desktop/GD32VW553/V1_MQTT_OK/GD32VW55X_Wifi_BLE_SDK/GD32VW55x_RELEASE_V1.0.2/MSDK/cloud/alicloud/src/protocol/coap/local\CoAPServer.c **** 
 137              		.loc 1 74 1
 138 0008 8280     		ret
 139              		.cfi_endproc
 140              	.LFE22:
 142              		.section	.text.CoAPServer_add_timer,"ax",@progbits
 143              		.align	1
 144              		.globl	CoAPServer_add_timer
 146              	CoAPServer_add_timer:
 147              	.LFB24:
  99:C:/Users/stapi/OneDrive/Desktop/GD32VW553/V1_MQTT_OK/GD32VW55X_Wifi_BLE_SDK/GD32VW55x_RELEASE_V1.0.2/MSDK/cloud/alicloud/src/protocol/coap/local\CoAPServer.c **** 
 100:C:/Users/stapi/OneDrive/Desktop/GD32VW553/V1_MQTT_OK/GD32VW55X_Wifi_BLE_SDK/GD32VW55x_RELEASE_V1.0.2/MSDK/cloud/alicloud/src/protocol/coap/local\CoAPServer.c **** typedef void (*func_v_v)(void *);
 101:C:/Users/stapi/OneDrive/Desktop/GD32VW553/V1_MQTT_OK/GD32VW55X_Wifi_BLE_SDK/GD32VW55x_RELEASE_V1.0.2/MSDK/cloud/alicloud/src/protocol/coap/local\CoAPServer.c **** static func_v_v coapserver_timer = NULL;
 102:C:/Users/stapi/OneDrive/Desktop/GD32VW553/V1_MQTT_OK/GD32VW55X_Wifi_BLE_SDK/GD32VW55x_RELEASE_V1.0.2/MSDK/cloud/alicloud/src/protocol/coap/local\CoAPServer.c **** void CoAPServer_add_timer(void (*on_timer)(void *))
 103:C:/Users/stapi/OneDrive/Desktop/GD32VW553/V1_MQTT_OK/GD32VW55X_Wifi_BLE_SDK/GD32VW55x_RELEASE_V1.0.2/MSDK/cloud/alicloud/src/protocol/coap/local\CoAPServer.c **** {
 148              		.loc 1 103 1 is_stmt 1
 149              		.cfi_startproc
 150              	.LVL11:
 104:C:/Users/stapi/OneDrive/Desktop/GD32VW553/V1_MQTT_OK/GD32VW55X_Wifi_BLE_SDK/GD32VW55x_RELEASE_V1.0.2/MSDK/cloud/alicloud/src/protocol/coap/local\CoAPServer.c ****     coapserver_timer = on_timer;
 151              		.loc 1 104 5
 105:C:/Users/stapi/OneDrive/Desktop/GD32VW553/V1_MQTT_OK/GD32VW55X_Wifi_BLE_SDK/GD32VW55x_RELEASE_V1.0.2/MSDK/cloud/alicloud/src/protocol/coap/local\CoAPServer.c **** }
 152              		.loc 1 105 1 is_stmt 0
 153 0000 8280     		ret
 154              		.cfi_endproc
 155              	.LFE24:
 157              		.section	.rodata.CoAPServer_init.str1.4,"aMS",@progbits,1
 158              		.align	2
 159              	.LC5:
 160 0000 3232342E 		.string	"224.0.1.187"
 160      302E312E 
 160      31383700 
 161              		.align	2
 162              	.LC6:
 163 000c 5B657272 		.string	"[err] "
 163      5D2000
 164 0013 00       		.align	2
 165              	.LC7:
 166 0014 53656D61 		.string	"Semaphore Create failed"
 166      70686F72 
 166      65204372 
 166      65617465 
 166      20666169 
 167              		.align	2
 168              	.LC8:
 169 002c 636F6170 		.string	"coap_yield_mutex Create failed"
 169      5F796965 
 169      6C645F6D 
 169      75746578 
 169      20437265 
 170 004b 00       		.align	2
 171              	.LC9:
 172 004c 436F4150 		.string	"CoAP Context Create failed"
 172      20436F6E 
 172      74657874 
 172      20437265 
 172      61746520 
 173 0067 00       		.align	2
 174              	.LC10:
 175 0068 436F4150 		.string	"CoAPServer_yield"
 175      53657276 
 175      65725F79 
 175      69656C64 
 175      00
 176 0079 000000   		.align	2
 177              	.LC11:
 178 007c 436F4150 		.string	"CoAPServer_yield thread create failed"
 178      53657276 
 178      65725F79 
 178      69656C64 
 178      20746872 
 179 00a2 0000     		.align	2
 180              	.LC12:
 181 00a4 54686520 		.string	"The CoAP Server already init"
 181      436F4150 
 181      20536572 
 181      76657220 
 181      616C7265 
 182              		.section	.text.CoAPServer_init,"ax",@progbits
 183              		.align	1
 184              		.globl	CoAPServer_init
 186              	CoAPServer_init:
 187              	.LFB25:
 106:C:/Users/stapi/OneDrive/Desktop/GD32VW553/V1_MQTT_OK/GD32VW55X_Wifi_BLE_SDK/GD32VW55x_RELEASE_V1.0.2/MSDK/cloud/alicloud/src/protocol/coap/local\CoAPServer.c **** 
 107:C:/Users/stapi/OneDrive/Desktop/GD32VW553/V1_MQTT_OK/GD32VW55X_Wifi_BLE_SDK/GD32VW55x_RELEASE_V1.0.2/MSDK/cloud/alicloud/src/protocol/coap/local\CoAPServer.c **** 
 108:C:/Users/stapi/OneDrive/Desktop/GD32VW553/V1_MQTT_OK/GD32VW55X_Wifi_BLE_SDK/GD32VW55x_RELEASE_V1.0.2/MSDK/cloud/alicloud/src/protocol/coap/local\CoAPServer.c **** void *coap_init_mutex = NULL;
 109:C:/Users/stapi/OneDrive/Desktop/GD32VW553/V1_MQTT_OK/GD32VW55X_Wifi_BLE_SDK/GD32VW55x_RELEASE_V1.0.2/MSDK/cloud/alicloud/src/protocol/coap/local\CoAPServer.c **** 
 110:C:/Users/stapi/OneDrive/Desktop/GD32VW553/V1_MQTT_OK/GD32VW55X_Wifi_BLE_SDK/GD32VW55x_RELEASE_V1.0.2/MSDK/cloud/alicloud/src/protocol/coap/local\CoAPServer.c **** CoAPContext *CoAPServer_init()
 111:C:/Users/stapi/OneDrive/Desktop/GD32VW553/V1_MQTT_OK/GD32VW55X_Wifi_BLE_SDK/GD32VW55x_RELEASE_V1.0.2/MSDK/cloud/alicloud/src/protocol/coap/local\CoAPServer.c **** {
 188              		.loc 1 111 1 is_stmt 1
 189              		.cfi_startproc
 190 0000 17030000 		call	t0,__riscv_save_6
 190      E7020300 
 191              		.cfi_offset 21, -28
 192              		.cfi_offset 20, -24
 193              		.cfi_offset 19, -20
 194              		.cfi_offset 18, -16
 195              		.cfi_offset 9, -12
 196              		.cfi_offset 8, -8
 197              		.cfi_offset 1, -4
 198              		.cfi_def_cfa_offset 32
 112:C:/Users/stapi/OneDrive/Desktop/GD32VW553/V1_MQTT_OK/GD32VW55X_Wifi_BLE_SDK/GD32VW55x_RELEASE_V1.0.2/MSDK/cloud/alicloud/src/protocol/coap/local\CoAPServer.c ****     int ret = 0;
 199              		.loc 1 112 5
 200              	.LVL12:
 113:C:/Users/stapi/OneDrive/Desktop/GD32VW553/V1_MQTT_OK/GD32VW55X_Wifi_BLE_SDK/GD32VW55x_RELEASE_V1.0.2/MSDK/cloud/alicloud/src/protocol/coap/local\CoAPServer.c ****     CoAPInitParam param = {0};
 201              		.loc 1 113 5
 111:C:/Users/stapi/OneDrive/Desktop/GD32VW553/V1_MQTT_OK/GD32VW55X_Wifi_BLE_SDK/GD32VW55x_RELEASE_V1.0.2/MSDK/cloud/alicloud/src/protocol/coap/local\CoAPServer.c ****     int ret = 0;
 202              		.loc 1 111 1 is_stmt 0
 203 0008 7971     		addi	sp,sp,-48
 204              		.cfi_def_cfa_offset 80
 205              		.loc 1 113 19
 206 000a 6146     		li	a2,24
 207 000c 8145     		li	a1,0
 208 000e 2808     		addi	a0,sp,24
 114:C:/Users/stapi/OneDrive/Desktop/GD32VW553/V1_MQTT_OK/GD32VW55X_Wifi_BLE_SDK/GD32VW55x_RELEASE_V1.0.2/MSDK/cloud/alicloud/src/protocol/coap/local\CoAPServer.c **** #ifdef COAP_SERV_MULTITHREAD
 115:C:/Users/stapi/OneDrive/Desktop/GD32VW553/V1_MQTT_OK/GD32VW55X_Wifi_BLE_SDK/GD32VW55x_RELEASE_V1.0.2/MSDK/cloud/alicloud/src/protocol/coap/local\CoAPServer.c ****     int stack_used;
 116:C:/Users/stapi/OneDrive/Desktop/GD32VW553/V1_MQTT_OK/GD32VW55X_Wifi_BLE_SDK/GD32VW55x_RELEASE_V1.0.2/MSDK/cloud/alicloud/src/protocol/coap/local\CoAPServer.c **** #endif
 117:C:/Users/stapi/OneDrive/Desktop/GD32VW553/V1_MQTT_OK/GD32VW55X_Wifi_BLE_SDK/GD32VW55x_RELEASE_V1.0.2/MSDK/cloud/alicloud/src/protocol/coap/local\CoAPServer.c **** 
 118:C:/Users/stapi/OneDrive/Desktop/GD32VW553/V1_MQTT_OK/GD32VW55X_Wifi_BLE_SDK/GD32VW55x_RELEASE_V1.0.2/MSDK/cloud/alicloud/src/protocol/coap/local\CoAPServer.c ****     if (NULL == coap_init_mutex) {
 209              		.loc 1 118 14
 210 0010 37040000 		lui	s0,%hi(.LANCHOR4)
 113:C:/Users/stapi/OneDrive/Desktop/GD32VW553/V1_MQTT_OK/GD32VW55X_Wifi_BLE_SDK/GD32VW55x_RELEASE_V1.0.2/MSDK/cloud/alicloud/src/protocol/coap/local\CoAPServer.c **** #ifdef COAP_SERV_MULTITHREAD
 211              		.loc 1 113 19
 212 0014 97000000 		call	memset
 212      E7800000 
 213              	.LVL13:
 115:C:/Users/stapi/OneDrive/Desktop/GD32VW553/V1_MQTT_OK/GD32VW55X_Wifi_BLE_SDK/GD32VW55x_RELEASE_V1.0.2/MSDK/cloud/alicloud/src/protocol/coap/local\CoAPServer.c **** #endif
 214              		.loc 1 115 5 is_stmt 1
 215              		.loc 1 118 5
 216              		.loc 1 118 8 is_stmt 0
 217 001c 83270400 		lw	a5,%lo(.LANCHOR4)(s0)
 218 0020 13040400 		addi	s0,s0,%lo(.LANCHOR4)
 219 0024 C9CB     		beq	a5,zero,.L8
 220              	.L12:
 119:C:/Users/stapi/OneDrive/Desktop/GD32VW553/V1_MQTT_OK/GD32VW55X_Wifi_BLE_SDK/GD32VW55x_RELEASE_V1.0.2/MSDK/cloud/alicloud/src/protocol/coap/local\CoAPServer.c ****         coap_init_mutex = HAL_MutexCreate();
 120:C:/Users/stapi/OneDrive/Desktop/GD32VW553/V1_MQTT_OK/GD32VW55X_Wifi_BLE_SDK/GD32VW55x_RELEASE_V1.0.2/MSDK/cloud/alicloud/src/protocol/coap/local\CoAPServer.c **** 
 121:C:/Users/stapi/OneDrive/Desktop/GD32VW553/V1_MQTT_OK/GD32VW55X_Wifi_BLE_SDK/GD32VW55x_RELEASE_V1.0.2/MSDK/cloud/alicloud/src/protocol/coap/local\CoAPServer.c ****         if (NULL == coap_init_mutex) {
 122:C:/Users/stapi/OneDrive/Desktop/GD32VW553/V1_MQTT_OK/GD32VW55X_Wifi_BLE_SDK/GD32VW55x_RELEASE_V1.0.2/MSDK/cloud/alicloud/src/protocol/coap/local\CoAPServer.c ****             return NULL;
 123:C:/Users/stapi/OneDrive/Desktop/GD32VW553/V1_MQTT_OK/GD32VW55X_Wifi_BLE_SDK/GD32VW55x_RELEASE_V1.0.2/MSDK/cloud/alicloud/src/protocol/coap/local\CoAPServer.c ****         }
 124:C:/Users/stapi/OneDrive/Desktop/GD32VW553/V1_MQTT_OK/GD32VW55X_Wifi_BLE_SDK/GD32VW55x_RELEASE_V1.0.2/MSDK/cloud/alicloud/src/protocol/coap/local\CoAPServer.c ****     }
 125:C:/Users/stapi/OneDrive/Desktop/GD32VW553/V1_MQTT_OK/GD32VW55X_Wifi_BLE_SDK/GD32VW55x_RELEASE_V1.0.2/MSDK/cloud/alicloud/src/protocol/coap/local\CoAPServer.c **** 
 126:C:/Users/stapi/OneDrive/Desktop/GD32VW553/V1_MQTT_OK/GD32VW55X_Wifi_BLE_SDK/GD32VW55x_RELEASE_V1.0.2/MSDK/cloud/alicloud/src/protocol/coap/local\CoAPServer.c ****     HAL_MutexLock(coap_init_mutex);
 221              		.loc 1 126 5 is_stmt 1
 222 0026 0840     		lw	a0,0(s0)
 127:C:/Users/stapi/OneDrive/Desktop/GD32VW553/V1_MQTT_OK/GD32VW55X_Wifi_BLE_SDK/GD32VW55x_RELEASE_V1.0.2/MSDK/cloud/alicloud/src/protocol/coap/local\CoAPServer.c **** 
 128:C:/Users/stapi/OneDrive/Desktop/GD32VW553/V1_MQTT_OK/GD32VW55X_Wifi_BLE_SDK/GD32VW55x_RELEASE_V1.0.2/MSDK/cloud/alicloud/src/protocol/coap/local\CoAPServer.c ****     if (NULL == g_context) {
 223              		.loc 1 128 14 is_stmt 0
 224 0028 370A0000 		lui	s4,%hi(.LANCHOR5)
 225 002c 930A0A00 		addi	s5,s4,%lo(.LANCHOR5)
 126:C:/Users/stapi/OneDrive/Desktop/GD32VW553/V1_MQTT_OK/GD32VW55X_Wifi_BLE_SDK/GD32VW55x_RELEASE_V1.0.2/MSDK/cloud/alicloud/src/protocol/coap/local\CoAPServer.c **** 
 226              		.loc 1 126 5
 227 0030 97000000 		call	HAL_MutexLock
 227      E7800000 
 228              	.LVL14:
 229              		.loc 1 128 5 is_stmt 1
 230              		.loc 1 128 14 is_stmt 0
 231 0038 03A90A00 		lw	s2,0(s5)
 232 003c 130A0A00 		addi	s4,s4,%lo(.LANCHOR5)
 233              		.loc 1 128 8
 234 0040 6311091C 		bne	s2,zero,.L25
 235              	.LBB2:
 129:C:/Users/stapi/OneDrive/Desktop/GD32VW553/V1_MQTT_OK/GD32VW55X_Wifi_BLE_SDK/GD32VW55x_RELEASE_V1.0.2/MSDK/cloud/alicloud/src/protocol/coap/local\CoAPServer.c ****         param.appdata = NULL;
 236              		.loc 1 129 9 is_stmt 1
 130:C:/Users/stapi/OneDrive/Desktop/GD32VW553/V1_MQTT_OK/GD32VW55X_Wifi_BLE_SDK/GD32VW55x_RELEASE_V1.0.2/MSDK/cloud/alicloud/src/protocol/coap/local\CoAPServer.c ****         param.group = "224.0.1.187";
 237              		.loc 1 130 21 is_stmt 0
 238 0044 B7070000 		lui	a5,%hi(.LC5)
 239 0048 93870700 		addi	a5,a5,%lo(.LC5)
 240 004c 3ECE     		sw	a5,28(sp)
 131:C:/Users/stapi/OneDrive/Desktop/GD32VW553/V1_MQTT_OK/GD32VW55X_Wifi_BLE_SDK/GD32VW55x_RELEASE_V1.0.2/MSDK/cloud/alicloud/src/protocol/coap/local\CoAPServer.c ****         param.notifier = NULL;
 132:C:/Users/stapi/OneDrive/Desktop/GD32VW553/V1_MQTT_OK/GD32VW55X_Wifi_BLE_SDK/GD32VW55x_RELEASE_V1.0.2/MSDK/cloud/alicloud/src/protocol/coap/local\CoAPServer.c ****         param.obs_maxcount = 16;
 133:C:/Users/stapi/OneDrive/Desktop/GD32VW553/V1_MQTT_OK/GD32VW55X_Wifi_BLE_SDK/GD32VW55x_RELEASE_V1.0.2/MSDK/cloud/alicloud/src/protocol/coap/local\CoAPServer.c ****         param.res_maxcount = 255;
 241              		.loc 1 133 28
 242 004e FD57     		li	a5,-1
 243 0050 2306F102 		sb	a5,44(sp)
 134:C:/Users/stapi/OneDrive/Desktop/GD32VW553/V1_MQTT_OK/GD32VW55X_Wifi_BLE_SDK/GD32VW55x_RELEASE_V1.0.2/MSDK/cloud/alicloud/src/protocol/coap/local\CoAPServer.c ****         param.port = 5683;
 135:C:/Users/stapi/OneDrive/Desktop/GD32VW553/V1_MQTT_OK/GD32VW55X_Wifi_BLE_SDK/GD32VW55x_RELEASE_V1.0.2/MSDK/cloud/alicloud/src/protocol/coap/local\CoAPServer.c ****         param.send_maxcount = 16;
 244              		.loc 1 135 29
 245 0054 B7173316 		li	a5,372445184
 246 0058 C107     		addi	a5,a5,16
 247 005a 3ECC     		sw	a5,24(sp)
 136:C:/Users/stapi/OneDrive/Desktop/GD32VW553/V1_MQTT_OK/GD32VW55X_Wifi_BLE_SDK/GD32VW55x_RELEASE_V1.0.2/MSDK/cloud/alicloud/src/protocol/coap/local\CoAPServer.c ****         param.waittime = 50;
 137:C:/Users/stapi/OneDrive/Desktop/GD32VW553/V1_MQTT_OK/GD32VW55X_Wifi_BLE_SDK/GD32VW55x_RELEASE_V1.0.2/MSDK/cloud/alicloud/src/protocol/coap/local\CoAPServer.c **** 
 138:C:/Users/stapi/OneDrive/Desktop/GD32VW553/V1_MQTT_OK/GD32VW55X_Wifi_BLE_SDK/GD32VW55x_RELEASE_V1.0.2/MSDK/cloud/alicloud/src/protocol/coap/local\CoAPServer.c **** #ifdef COAP_SERV_MULTITHREAD
 139:C:/Users/stapi/OneDrive/Desktop/GD32VW553/V1_MQTT_OK/GD32VW55X_Wifi_BLE_SDK/GD32VW55x_RELEASE_V1.0.2/MSDK/cloud/alicloud/src/protocol/coap/local\CoAPServer.c ****         g_semphore  = HAL_SemaphoreCreate();
 248              		.loc 1 139 21
 249 005c B7040000 		lui	s1,%hi(.LANCHOR3)
 136:C:/Users/stapi/OneDrive/Desktop/GD32VW553/V1_MQTT_OK/GD32VW55X_Wifi_BLE_SDK/GD32VW55x_RELEASE_V1.0.2/MSDK/cloud/alicloud/src/protocol/coap/local\CoAPServer.c ****         param.waittime = 50;
 250              		.loc 1 136 24
 251 0060 93072003 		li	a5,50
 129:C:/Users/stapi/OneDrive/Desktop/GD32VW553/V1_MQTT_OK/GD32VW55X_Wifi_BLE_SDK/GD32VW55x_RELEASE_V1.0.2/MSDK/cloud/alicloud/src/protocol/coap/local\CoAPServer.c ****         param.group = "224.0.1.187";
 252              		.loc 1 129 23
 253 0064 02D4     		sw	zero,40(sp)
 130:C:/Users/stapi/OneDrive/Desktop/GD32VW553/V1_MQTT_OK/GD32VW55X_Wifi_BLE_SDK/GD32VW55x_RELEASE_V1.0.2/MSDK/cloud/alicloud/src/protocol/coap/local\CoAPServer.c ****         param.notifier = NULL;
 254              		.loc 1 130 9 is_stmt 1
 131:C:/Users/stapi/OneDrive/Desktop/GD32VW553/V1_MQTT_OK/GD32VW55X_Wifi_BLE_SDK/GD32VW55x_RELEASE_V1.0.2/MSDK/cloud/alicloud/src/protocol/coap/local\CoAPServer.c ****         param.obs_maxcount = 16;
 255              		.loc 1 131 9
 131:C:/Users/stapi/OneDrive/Desktop/GD32VW553/V1_MQTT_OK/GD32VW55X_Wifi_BLE_SDK/GD32VW55x_RELEASE_V1.0.2/MSDK/cloud/alicloud/src/protocol/coap/local\CoAPServer.c ****         param.obs_maxcount = 16;
 256              		.loc 1 131 24 is_stmt 0
 257 0066 02D2     		sw	zero,36(sp)
 132:C:/Users/stapi/OneDrive/Desktop/GD32VW553/V1_MQTT_OK/GD32VW55X_Wifi_BLE_SDK/GD32VW55x_RELEASE_V1.0.2/MSDK/cloud/alicloud/src/protocol/coap/local\CoAPServer.c ****         param.res_maxcount = 255;
 258              		.loc 1 132 9 is_stmt 1
 133:C:/Users/stapi/OneDrive/Desktop/GD32VW553/V1_MQTT_OK/GD32VW55X_Wifi_BLE_SDK/GD32VW55x_RELEASE_V1.0.2/MSDK/cloud/alicloud/src/protocol/coap/local\CoAPServer.c ****         param.port = 5683;
 259              		.loc 1 133 9
 134:C:/Users/stapi/OneDrive/Desktop/GD32VW553/V1_MQTT_OK/GD32VW55X_Wifi_BLE_SDK/GD32VW55x_RELEASE_V1.0.2/MSDK/cloud/alicloud/src/protocol/coap/local\CoAPServer.c ****         param.send_maxcount = 16;
 260              		.loc 1 134 9
 135:C:/Users/stapi/OneDrive/Desktop/GD32VW553/V1_MQTT_OK/GD32VW55X_Wifi_BLE_SDK/GD32VW55x_RELEASE_V1.0.2/MSDK/cloud/alicloud/src/protocol/coap/local\CoAPServer.c ****         param.waittime = 50;
 261              		.loc 1 135 9
 136:C:/Users/stapi/OneDrive/Desktop/GD32VW553/V1_MQTT_OK/GD32VW55X_Wifi_BLE_SDK/GD32VW55x_RELEASE_V1.0.2/MSDK/cloud/alicloud/src/protocol/coap/local\CoAPServer.c **** 
 262              		.loc 1 136 9
 136:C:/Users/stapi/OneDrive/Desktop/GD32VW553/V1_MQTT_OK/GD32VW55X_Wifi_BLE_SDK/GD32VW55x_RELEASE_V1.0.2/MSDK/cloud/alicloud/src/protocol/coap/local\CoAPServer.c **** 
 263              		.loc 1 136 24 is_stmt 0
 264 0068 3ED0     		sw	a5,32(sp)
 265              		.loc 1 139 9 is_stmt 1
 266              		.loc 1 139 21 is_stmt 0
 267 006a 93840400 		addi	s1,s1,%lo(.LANCHOR3)
 268              		.loc 1 139 23
 269 006e 97000000 		call	HAL_SemaphoreCreate
 269      E7800000 
 270              	.LVL15:
 271              		.loc 1 139 21
 272 0076 88C0     		sw	a0,0(s1)
 140:C:/Users/stapi/OneDrive/Desktop/GD32VW553/V1_MQTT_OK/GD32VW55X_Wifi_BLE_SDK/GD32VW55x_RELEASE_V1.0.2/MSDK/cloud/alicloud/src/protocol/coap/local\CoAPServer.c ****         if (NULL == g_semphore) {
 273              		.loc 1 140 9 is_stmt 1
 274              		.loc 1 140 12 is_stmt 0
 275 0078 21ED     		bne	a0,zero,.L13
 141:C:/Users/stapi/OneDrive/Desktop/GD32VW553/V1_MQTT_OK/GD32VW55X_Wifi_BLE_SDK/GD32VW55x_RELEASE_V1.0.2/MSDK/cloud/alicloud/src/protocol/coap/local\CoAPServer.c ****             COAP_ERR("Semaphore Create failed");
 276              		.loc 1 141 13 is_stmt 1
 277              		.loc 1 141 13
 278 007a 37050000 		lui	a0,%hi(.LC6)
 279 007e 13050500 		addi	a0,a0,%lo(.LC6)
 280 0082 97000000 		call	HAL_Printf
 280      E7800000 
 281              	.LVL16:
 282              		.loc 1 141 13
 283 008a 37050000 		lui	a0,%hi(.LC7)
 284 008e 13050500 		addi	a0,a0,%lo(.LC7)
 285              	.LVL17:
 286              	.L27:
 142:C:/Users/stapi/OneDrive/Desktop/GD32VW553/V1_MQTT_OK/GD32VW55X_Wifi_BLE_SDK/GD32VW55x_RELEASE_V1.0.2/MSDK/cloud/alicloud/src/protocol/coap/local\CoAPServer.c **** 
 143:C:/Users/stapi/OneDrive/Desktop/GD32VW553/V1_MQTT_OK/GD32VW55X_Wifi_BLE_SDK/GD32VW55x_RELEASE_V1.0.2/MSDK/cloud/alicloud/src/protocol/coap/local\CoAPServer.c ****             HAL_MutexUnlock(coap_init_mutex);
 144:C:/Users/stapi/OneDrive/Desktop/GD32VW553/V1_MQTT_OK/GD32VW55X_Wifi_BLE_SDK/GD32VW55x_RELEASE_V1.0.2/MSDK/cloud/alicloud/src/protocol/coap/local\CoAPServer.c ****             return NULL;
 145:C:/Users/stapi/OneDrive/Desktop/GD32VW553/V1_MQTT_OK/GD32VW55X_Wifi_BLE_SDK/GD32VW55x_RELEASE_V1.0.2/MSDK/cloud/alicloud/src/protocol/coap/local\CoAPServer.c ****         }
 146:C:/Users/stapi/OneDrive/Desktop/GD32VW553/V1_MQTT_OK/GD32VW55X_Wifi_BLE_SDK/GD32VW55x_RELEASE_V1.0.2/MSDK/cloud/alicloud/src/protocol/coap/local\CoAPServer.c **** 
 147:C:/Users/stapi/OneDrive/Desktop/GD32VW553/V1_MQTT_OK/GD32VW55X_Wifi_BLE_SDK/GD32VW55x_RELEASE_V1.0.2/MSDK/cloud/alicloud/src/protocol/coap/local\CoAPServer.c ****         coap_yield_mutex = HAL_MutexCreate();
 148:C:/Users/stapi/OneDrive/Desktop/GD32VW553/V1_MQTT_OK/GD32VW55X_Wifi_BLE_SDK/GD32VW55x_RELEASE_V1.0.2/MSDK/cloud/alicloud/src/protocol/coap/local\CoAPServer.c ****         if (NULL == coap_yield_mutex) {
 149:C:/Users/stapi/OneDrive/Desktop/GD32VW553/V1_MQTT_OK/GD32VW55X_Wifi_BLE_SDK/GD32VW55x_RELEASE_V1.0.2/MSDK/cloud/alicloud/src/protocol/coap/local\CoAPServer.c ****             COAP_ERR("coap_yield_mutex Create failed");
 150:C:/Users/stapi/OneDrive/Desktop/GD32VW553/V1_MQTT_OK/GD32VW55X_Wifi_BLE_SDK/GD32VW55x_RELEASE_V1.0.2/MSDK/cloud/alicloud/src/protocol/coap/local\CoAPServer.c ****             HAL_SemaphoreDestroy(g_semphore);
 151:C:/Users/stapi/OneDrive/Desktop/GD32VW553/V1_MQTT_OK/GD32VW55X_Wifi_BLE_SDK/GD32VW55x_RELEASE_V1.0.2/MSDK/cloud/alicloud/src/protocol/coap/local\CoAPServer.c **** 
 152:C:/Users/stapi/OneDrive/Desktop/GD32VW553/V1_MQTT_OK/GD32VW55X_Wifi_BLE_SDK/GD32VW55x_RELEASE_V1.0.2/MSDK/cloud/alicloud/src/protocol/coap/local\CoAPServer.c ****             HAL_MutexUnlock(coap_init_mutex);
 153:C:/Users/stapi/OneDrive/Desktop/GD32VW553/V1_MQTT_OK/GD32VW55X_Wifi_BLE_SDK/GD32VW55x_RELEASE_V1.0.2/MSDK/cloud/alicloud/src/protocol/coap/local\CoAPServer.c ****             g_semphore = NULL;
 154:C:/Users/stapi/OneDrive/Desktop/GD32VW553/V1_MQTT_OK/GD32VW55X_Wifi_BLE_SDK/GD32VW55x_RELEASE_V1.0.2/MSDK/cloud/alicloud/src/protocol/coap/local\CoAPServer.c ****             return NULL;
 155:C:/Users/stapi/OneDrive/Desktop/GD32VW553/V1_MQTT_OK/GD32VW55X_Wifi_BLE_SDK/GD32VW55x_RELEASE_V1.0.2/MSDK/cloud/alicloud/src/protocol/coap/local\CoAPServer.c ****         }
 156:C:/Users/stapi/OneDrive/Desktop/GD32VW553/V1_MQTT_OK/GD32VW55X_Wifi_BLE_SDK/GD32VW55x_RELEASE_V1.0.2/MSDK/cloud/alicloud/src/protocol/coap/local\CoAPServer.c **** #endif
 157:C:/Users/stapi/OneDrive/Desktop/GD32VW553/V1_MQTT_OK/GD32VW55X_Wifi_BLE_SDK/GD32VW55x_RELEASE_V1.0.2/MSDK/cloud/alicloud/src/protocol/coap/local\CoAPServer.c **** 
 158:C:/Users/stapi/OneDrive/Desktop/GD32VW553/V1_MQTT_OK/GD32VW55X_Wifi_BLE_SDK/GD32VW55x_RELEASE_V1.0.2/MSDK/cloud/alicloud/src/protocol/coap/local\CoAPServer.c ****         g_context = CoAPContext_create(&param);
 159:C:/Users/stapi/OneDrive/Desktop/GD32VW553/V1_MQTT_OK/GD32VW55X_Wifi_BLE_SDK/GD32VW55x_RELEASE_V1.0.2/MSDK/cloud/alicloud/src/protocol/coap/local\CoAPServer.c ****         if (NULL == g_context) {
 160:C:/Users/stapi/OneDrive/Desktop/GD32VW553/V1_MQTT_OK/GD32VW55X_Wifi_BLE_SDK/GD32VW55x_RELEASE_V1.0.2/MSDK/cloud/alicloud/src/protocol/coap/local\CoAPServer.c **** #ifdef COAP_SERV_MULTITHREAD
 161:C:/Users/stapi/OneDrive/Desktop/GD32VW553/V1_MQTT_OK/GD32VW55X_Wifi_BLE_SDK/GD32VW55x_RELEASE_V1.0.2/MSDK/cloud/alicloud/src/protocol/coap/local\CoAPServer.c ****             HAL_SemaphoreDestroy(g_semphore);
 162:C:/Users/stapi/OneDrive/Desktop/GD32VW553/V1_MQTT_OK/GD32VW55X_Wifi_BLE_SDK/GD32VW55x_RELEASE_V1.0.2/MSDK/cloud/alicloud/src/protocol/coap/local\CoAPServer.c ****             HAL_MutexDestroy(coap_yield_mutex);
 163:C:/Users/stapi/OneDrive/Desktop/GD32VW553/V1_MQTT_OK/GD32VW55X_Wifi_BLE_SDK/GD32VW55x_RELEASE_V1.0.2/MSDK/cloud/alicloud/src/protocol/coap/local\CoAPServer.c ****             g_semphore = NULL;
 164:C:/Users/stapi/OneDrive/Desktop/GD32VW553/V1_MQTT_OK/GD32VW55X_Wifi_BLE_SDK/GD32VW55x_RELEASE_V1.0.2/MSDK/cloud/alicloud/src/protocol/coap/local\CoAPServer.c ****             coap_yield_mutex = NULL;
 165:C:/Users/stapi/OneDrive/Desktop/GD32VW553/V1_MQTT_OK/GD32VW55X_Wifi_BLE_SDK/GD32VW55x_RELEASE_V1.0.2/MSDK/cloud/alicloud/src/protocol/coap/local\CoAPServer.c **** #endif
 166:C:/Users/stapi/OneDrive/Desktop/GD32VW553/V1_MQTT_OK/GD32VW55X_Wifi_BLE_SDK/GD32VW55x_RELEASE_V1.0.2/MSDK/cloud/alicloud/src/protocol/coap/local\CoAPServer.c ****             COAP_ERR("CoAP Context Create failed");
 167:C:/Users/stapi/OneDrive/Desktop/GD32VW553/V1_MQTT_OK/GD32VW55X_Wifi_BLE_SDK/GD32VW55x_RELEASE_V1.0.2/MSDK/cloud/alicloud/src/protocol/coap/local\CoAPServer.c **** 
 168:C:/Users/stapi/OneDrive/Desktop/GD32VW553/V1_MQTT_OK/GD32VW55X_Wifi_BLE_SDK/GD32VW55x_RELEASE_V1.0.2/MSDK/cloud/alicloud/src/protocol/coap/local\CoAPServer.c ****             HAL_MutexUnlock(coap_init_mutex);
 169:C:/Users/stapi/OneDrive/Desktop/GD32VW553/V1_MQTT_OK/GD32VW55X_Wifi_BLE_SDK/GD32VW55x_RELEASE_V1.0.2/MSDK/cloud/alicloud/src/protocol/coap/local\CoAPServer.c ****             return NULL;
 170:C:/Users/stapi/OneDrive/Desktop/GD32VW553/V1_MQTT_OK/GD32VW55X_Wifi_BLE_SDK/GD32VW55x_RELEASE_V1.0.2/MSDK/cloud/alicloud/src/protocol/coap/local\CoAPServer.c ****         }
 171:C:/Users/stapi/OneDrive/Desktop/GD32VW553/V1_MQTT_OK/GD32VW55X_Wifi_BLE_SDK/GD32VW55x_RELEASE_V1.0.2/MSDK/cloud/alicloud/src/protocol/coap/local\CoAPServer.c **** #ifdef COAP_SERV_MULTITHREAD
 172:C:/Users/stapi/OneDrive/Desktop/GD32VW553/V1_MQTT_OK/GD32VW55X_Wifi_BLE_SDK/GD32VW55x_RELEASE_V1.0.2/MSDK/cloud/alicloud/src/protocol/coap/local\CoAPServer.c ****         g_coap_running = 1;
 173:C:/Users/stapi/OneDrive/Desktop/GD32VW553/V1_MQTT_OK/GD32VW55X_Wifi_BLE_SDK/GD32VW55x_RELEASE_V1.0.2/MSDK/cloud/alicloud/src/protocol/coap/local\CoAPServer.c ****         hal_os_thread_param_t task_parms = {0};
 174:C:/Users/stapi/OneDrive/Desktop/GD32VW553/V1_MQTT_OK/GD32VW55X_Wifi_BLE_SDK/GD32VW55x_RELEASE_V1.0.2/MSDK/cloud/alicloud/src/protocol/coap/local\CoAPServer.c ****         task_parms.stack_size = 4608;
 175:C:/Users/stapi/OneDrive/Desktop/GD32VW553/V1_MQTT_OK/GD32VW55X_Wifi_BLE_SDK/GD32VW55x_RELEASE_V1.0.2/MSDK/cloud/alicloud/src/protocol/coap/local\CoAPServer.c ****         task_parms.name = "CoAPServer_yield";
 176:C:/Users/stapi/OneDrive/Desktop/GD32VW553/V1_MQTT_OK/GD32VW55X_Wifi_BLE_SDK/GD32VW55x_RELEASE_V1.0.2/MSDK/cloud/alicloud/src/protocol/coap/local\CoAPServer.c ****         ret = HAL_ThreadCreate(&g_coap_thread, CoAPServer_yield, (void *)g_context, &task_parms, &s
 177:C:/Users/stapi/OneDrive/Desktop/GD32VW553/V1_MQTT_OK/GD32VW55X_Wifi_BLE_SDK/GD32VW55x_RELEASE_V1.0.2/MSDK/cloud/alicloud/src/protocol/coap/local\CoAPServer.c ****         if (0 != ret) {
 178:C:/Users/stapi/OneDrive/Desktop/GD32VW553/V1_MQTT_OK/GD32VW55X_Wifi_BLE_SDK/GD32VW55x_RELEASE_V1.0.2/MSDK/cloud/alicloud/src/protocol/coap/local\CoAPServer.c ****             HAL_SemaphoreDestroy(g_semphore);
 179:C:/Users/stapi/OneDrive/Desktop/GD32VW553/V1_MQTT_OK/GD32VW55X_Wifi_BLE_SDK/GD32VW55x_RELEASE_V1.0.2/MSDK/cloud/alicloud/src/protocol/coap/local\CoAPServer.c ****             HAL_MutexDestroy(coap_yield_mutex);
 180:C:/Users/stapi/OneDrive/Desktop/GD32VW553/V1_MQTT_OK/GD32VW55X_Wifi_BLE_SDK/GD32VW55x_RELEASE_V1.0.2/MSDK/cloud/alicloud/src/protocol/coap/local\CoAPServer.c ****             CoAPContext_free(g_context);
 181:C:/Users/stapi/OneDrive/Desktop/GD32VW553/V1_MQTT_OK/GD32VW55X_Wifi_BLE_SDK/GD32VW55x_RELEASE_V1.0.2/MSDK/cloud/alicloud/src/protocol/coap/local\CoAPServer.c ****             g_semphore = NULL;
 182:C:/Users/stapi/OneDrive/Desktop/GD32VW553/V1_MQTT_OK/GD32VW55X_Wifi_BLE_SDK/GD32VW55x_RELEASE_V1.0.2/MSDK/cloud/alicloud/src/protocol/coap/local\CoAPServer.c ****             coap_yield_mutex = NULL;
 183:C:/Users/stapi/OneDrive/Desktop/GD32VW553/V1_MQTT_OK/GD32VW55X_Wifi_BLE_SDK/GD32VW55x_RELEASE_V1.0.2/MSDK/cloud/alicloud/src/protocol/coap/local\CoAPServer.c ****             g_context = NULL;
 184:C:/Users/stapi/OneDrive/Desktop/GD32VW553/V1_MQTT_OK/GD32VW55X_Wifi_BLE_SDK/GD32VW55x_RELEASE_V1.0.2/MSDK/cloud/alicloud/src/protocol/coap/local\CoAPServer.c **** 
 185:C:/Users/stapi/OneDrive/Desktop/GD32VW553/V1_MQTT_OK/GD32VW55X_Wifi_BLE_SDK/GD32VW55x_RELEASE_V1.0.2/MSDK/cloud/alicloud/src/protocol/coap/local\CoAPServer.c ****             COAP_ERR("CoAPServer_yield thread create failed");
 287              		.loc 1 185 13 is_stmt 0
 288 0092 97000000 		call	HAL_Printf
 288      E7800000 
 289              	.LVL18:
 290              		.loc 1 185 13 is_stmt 1
 291 009a 37050000 		lui	a0,%hi(.LC4)
 292 009e 13050500 		addi	a0,a0,%lo(.LC4)
 293 00a2 97000000 		call	HAL_Printf
 293      E7800000 
 294              	.LVL19:
 295              		.loc 1 185 13
 186:C:/Users/stapi/OneDrive/Desktop/GD32VW553/V1_MQTT_OK/GD32VW55X_Wifi_BLE_SDK/GD32VW55x_RELEASE_V1.0.2/MSDK/cloud/alicloud/src/protocol/coap/local\CoAPServer.c **** 
 187:C:/Users/stapi/OneDrive/Desktop/GD32VW553/V1_MQTT_OK/GD32VW55X_Wifi_BLE_SDK/GD32VW55x_RELEASE_V1.0.2/MSDK/cloud/alicloud/src/protocol/coap/local\CoAPServer.c ****             HAL_MutexUnlock(coap_init_mutex);
 296              		.loc 1 187 13
 297 00aa 0840     		lw	a0,0(s0)
 298 00ac 97000000 		call	HAL_MutexUnlock
 298      E7800000 
 299              	.LVL20:
 188:C:/Users/stapi/OneDrive/Desktop/GD32VW553/V1_MQTT_OK/GD32VW55X_Wifi_BLE_SDK/GD32VW55x_RELEASE_V1.0.2/MSDK/cloud/alicloud/src/protocol/coap/local\CoAPServer.c ****             return NULL;
 300              		.loc 1 188 13
 301              		.loc 1 188 20 is_stmt 0
 302 00b4 01A8     		j	.L7
 303              	.LVL21:
 304              	.L8:
 305              	.LBE2:
 119:C:/Users/stapi/OneDrive/Desktop/GD32VW553/V1_MQTT_OK/GD32VW55X_Wifi_BLE_SDK/GD32VW55x_RELEASE_V1.0.2/MSDK/cloud/alicloud/src/protocol/coap/local\CoAPServer.c **** 
 306              		.loc 1 119 9 is_stmt 1
 119:C:/Users/stapi/OneDrive/Desktop/GD32VW553/V1_MQTT_OK/GD32VW55X_Wifi_BLE_SDK/GD32VW55x_RELEASE_V1.0.2/MSDK/cloud/alicloud/src/protocol/coap/local\CoAPServer.c **** 
 307              		.loc 1 119 27 is_stmt 0
 308 00b6 97000000 		call	HAL_MutexCreate
 308      E7800000 
 309              	.LVL22:
 119:C:/Users/stapi/OneDrive/Desktop/GD32VW553/V1_MQTT_OK/GD32VW55X_Wifi_BLE_SDK/GD32VW55x_RELEASE_V1.0.2/MSDK/cloud/alicloud/src/protocol/coap/local\CoAPServer.c **** 
 310              		.loc 1 119 25
 311 00be 08C0     		sw	a0,0(s0)
 121:C:/Users/stapi/OneDrive/Desktop/GD32VW553/V1_MQTT_OK/GD32VW55X_Wifi_BLE_SDK/GD32VW55x_RELEASE_V1.0.2/MSDK/cloud/alicloud/src/protocol/coap/local\CoAPServer.c ****             return NULL;
 312              		.loc 1 121 9 is_stmt 1
 119:C:/Users/stapi/OneDrive/Desktop/GD32VW553/V1_MQTT_OK/GD32VW55X_Wifi_BLE_SDK/GD32VW55x_RELEASE_V1.0.2/MSDK/cloud/alicloud/src/protocol/coap/local\CoAPServer.c **** 
 313              		.loc 1 119 27 is_stmt 0
 314 00c0 2A89     		mv	s2,a0
 121:C:/Users/stapi/OneDrive/Desktop/GD32VW553/V1_MQTT_OK/GD32VW55X_Wifi_BLE_SDK/GD32VW55x_RELEASE_V1.0.2/MSDK/cloud/alicloud/src/protocol/coap/local\CoAPServer.c ****             return NULL;
 315              		.loc 1 121 12
 316 00c2 35F1     		bne	a0,zero,.L12
 317              	.LVL23:
 318              	.L7:
 189:C:/Users/stapi/OneDrive/Desktop/GD32VW553/V1_MQTT_OK/GD32VW55X_Wifi_BLE_SDK/GD32VW55x_RELEASE_V1.0.2/MSDK/cloud/alicloud/src/protocol/coap/local\CoAPServer.c ****         }
 190:C:/Users/stapi/OneDrive/Desktop/GD32VW553/V1_MQTT_OK/GD32VW55X_Wifi_BLE_SDK/GD32VW55x_RELEASE_V1.0.2/MSDK/cloud/alicloud/src/protocol/coap/local\CoAPServer.c **** #endif
 191:C:/Users/stapi/OneDrive/Desktop/GD32VW553/V1_MQTT_OK/GD32VW55X_Wifi_BLE_SDK/GD32VW55x_RELEASE_V1.0.2/MSDK/cloud/alicloud/src/protocol/coap/local\CoAPServer.c ****     } else {
 192:C:/Users/stapi/OneDrive/Desktop/GD32VW553/V1_MQTT_OK/GD32VW55X_Wifi_BLE_SDK/GD32VW55x_RELEASE_V1.0.2/MSDK/cloud/alicloud/src/protocol/coap/local\CoAPServer.c ****         COAP_INFO("The CoAP Server already init");
 193:C:/Users/stapi/OneDrive/Desktop/GD32VW553/V1_MQTT_OK/GD32VW55X_Wifi_BLE_SDK/GD32VW55x_RELEASE_V1.0.2/MSDK/cloud/alicloud/src/protocol/coap/local\CoAPServer.c ****     }
 194:C:/Users/stapi/OneDrive/Desktop/GD32VW553/V1_MQTT_OK/GD32VW55X_Wifi_BLE_SDK/GD32VW55x_RELEASE_V1.0.2/MSDK/cloud/alicloud/src/protocol/coap/local\CoAPServer.c **** 
 195:C:/Users/stapi/OneDrive/Desktop/GD32VW553/V1_MQTT_OK/GD32VW55X_Wifi_BLE_SDK/GD32VW55x_RELEASE_V1.0.2/MSDK/cloud/alicloud/src/protocol/coap/local\CoAPServer.c ****     HAL_MutexUnlock(coap_init_mutex);
 196:C:/Users/stapi/OneDrive/Desktop/GD32VW553/V1_MQTT_OK/GD32VW55X_Wifi_BLE_SDK/GD32VW55x_RELEASE_V1.0.2/MSDK/cloud/alicloud/src/protocol/coap/local\CoAPServer.c **** 
 197:C:/Users/stapi/OneDrive/Desktop/GD32VW553/V1_MQTT_OK/GD32VW55X_Wifi_BLE_SDK/GD32VW55x_RELEASE_V1.0.2/MSDK/cloud/alicloud/src/protocol/coap/local\CoAPServer.c ****     return (CoAPContext *)g_context;
 198:C:/Users/stapi/OneDrive/Desktop/GD32VW553/V1_MQTT_OK/GD32VW55X_Wifi_BLE_SDK/GD32VW55x_RELEASE_V1.0.2/MSDK/cloud/alicloud/src/protocol/coap/local\CoAPServer.c **** }
 319              		.loc 1 198 1
 320 00c4 4A85     		mv	a0,s2
 321 00c6 4561     		addi	sp,sp,48
 322              		.cfi_remember_state
 323              		.cfi_def_cfa_offset 0
 324 00c8 17030000 		tail	__riscv_restore_6
 324      67000300 
 325              		.cfi_restore 21
 326              		.cfi_restore 20
 327              		.cfi_restore 19
 328              		.cfi_restore 18
 329              		.cfi_restore 9
 330              		.cfi_restore 8
 331              		.cfi_restore 1
 332              		.cfi_def_cfa_offset -32
 333              	.LVL24:
 334              	.L13:
 335              		.cfi_restore_state
 336              	.LBB3:
 147:C:/Users/stapi/OneDrive/Desktop/GD32VW553/V1_MQTT_OK/GD32VW55X_Wifi_BLE_SDK/GD32VW55x_RELEASE_V1.0.2/MSDK/cloud/alicloud/src/protocol/coap/local\CoAPServer.c ****         if (NULL == coap_yield_mutex) {
 337              		.loc 1 147 9 is_stmt 1
 147:C:/Users/stapi/OneDrive/Desktop/GD32VW553/V1_MQTT_OK/GD32VW55X_Wifi_BLE_SDK/GD32VW55x_RELEASE_V1.0.2/MSDK/cloud/alicloud/src/protocol/coap/local\CoAPServer.c ****         if (NULL == coap_yield_mutex) {
 338              		.loc 1 147 26 is_stmt 0
 339 00d0 B7090000 		lui	s3,%hi(.LANCHOR6)
 147:C:/Users/stapi/OneDrive/Desktop/GD32VW553/V1_MQTT_OK/GD32VW55X_Wifi_BLE_SDK/GD32VW55x_RELEASE_V1.0.2/MSDK/cloud/alicloud/src/protocol/coap/local\CoAPServer.c ****         if (NULL == coap_yield_mutex) {
 340              		.loc 1 147 28
 341 00d4 97000000 		call	HAL_MutexCreate
 341      E7800000 
 342              	.LVL25:
 147:C:/Users/stapi/OneDrive/Desktop/GD32VW553/V1_MQTT_OK/GD32VW55X_Wifi_BLE_SDK/GD32VW55x_RELEASE_V1.0.2/MSDK/cloud/alicloud/src/protocol/coap/local\CoAPServer.c ****         if (NULL == coap_yield_mutex) {
 343              		.loc 1 147 26
 344 00dc 93890900 		addi	s3,s3,%lo(.LANCHOR6)
 345 00e0 23A0A900 		sw	a0,0(s3)
 148:C:/Users/stapi/OneDrive/Desktop/GD32VW553/V1_MQTT_OK/GD32VW55X_Wifi_BLE_SDK/GD32VW55x_RELEASE_V1.0.2/MSDK/cloud/alicloud/src/protocol/coap/local\CoAPServer.c ****             COAP_ERR("coap_yield_mutex Create failed");
 346              		.loc 1 148 9 is_stmt 1
 148:C:/Users/stapi/OneDrive/Desktop/GD32VW553/V1_MQTT_OK/GD32VW55X_Wifi_BLE_SDK/GD32VW55x_RELEASE_V1.0.2/MSDK/cloud/alicloud/src/protocol/coap/local\CoAPServer.c ****             COAP_ERR("coap_yield_mutex Create failed");
 347              		.loc 1 148 12 is_stmt 0
 348 00e4 31E5     		bne	a0,zero,.L15
 149:C:/Users/stapi/OneDrive/Desktop/GD32VW553/V1_MQTT_OK/GD32VW55X_Wifi_BLE_SDK/GD32VW55x_RELEASE_V1.0.2/MSDK/cloud/alicloud/src/protocol/coap/local\CoAPServer.c ****             HAL_SemaphoreDestroy(g_semphore);
 349              		.loc 1 149 13 is_stmt 1
 149:C:/Users/stapi/OneDrive/Desktop/GD32VW553/V1_MQTT_OK/GD32VW55X_Wifi_BLE_SDK/GD32VW55x_RELEASE_V1.0.2/MSDK/cloud/alicloud/src/protocol/coap/local\CoAPServer.c ****             HAL_SemaphoreDestroy(g_semphore);
 350              		.loc 1 149 13
 351 00e6 37050000 		lui	a0,%hi(.LC6)
 352 00ea 13050500 		addi	a0,a0,%lo(.LC6)
 353 00ee 97000000 		call	HAL_Printf
 353      E7800000 
 354              	.LVL26:
 149:C:/Users/stapi/OneDrive/Desktop/GD32VW553/V1_MQTT_OK/GD32VW55X_Wifi_BLE_SDK/GD32VW55x_RELEASE_V1.0.2/MSDK/cloud/alicloud/src/protocol/coap/local\CoAPServer.c ****             HAL_SemaphoreDestroy(g_semphore);
 355              		.loc 1 149 13
 356 00f6 37050000 		lui	a0,%hi(.LC8)
 357 00fa 13050500 		addi	a0,a0,%lo(.LC8)
 358 00fe 97000000 		call	HAL_Printf
 358      E7800000 
 359              	.LVL27:
 149:C:/Users/stapi/OneDrive/Desktop/GD32VW553/V1_MQTT_OK/GD32VW55X_Wifi_BLE_SDK/GD32VW55x_RELEASE_V1.0.2/MSDK/cloud/alicloud/src/protocol/coap/local\CoAPServer.c ****             HAL_SemaphoreDestroy(g_semphore);
 360              		.loc 1 149 13
 361 0106 37050000 		lui	a0,%hi(.LC4)
 362 010a 13050500 		addi	a0,a0,%lo(.LC4)
 363 010e 97000000 		call	HAL_Printf
 363      E7800000 
 364              	.LVL28:
 149:C:/Users/stapi/OneDrive/Desktop/GD32VW553/V1_MQTT_OK/GD32VW55X_Wifi_BLE_SDK/GD32VW55x_RELEASE_V1.0.2/MSDK/cloud/alicloud/src/protocol/coap/local\CoAPServer.c ****             HAL_SemaphoreDestroy(g_semphore);
 365              		.loc 1 149 13
 150:C:/Users/stapi/OneDrive/Desktop/GD32VW553/V1_MQTT_OK/GD32VW55X_Wifi_BLE_SDK/GD32VW55x_RELEASE_V1.0.2/MSDK/cloud/alicloud/src/protocol/coap/local\CoAPServer.c **** 
 366              		.loc 1 150 13
 367 0116 8840     		lw	a0,0(s1)
 368 0118 97000000 		call	HAL_SemaphoreDestroy
 368      E7800000 
 369              	.LVL29:
 152:C:/Users/stapi/OneDrive/Desktop/GD32VW553/V1_MQTT_OK/GD32VW55X_Wifi_BLE_SDK/GD32VW55x_RELEASE_V1.0.2/MSDK/cloud/alicloud/src/protocol/coap/local\CoAPServer.c ****             g_semphore = NULL;
 370              		.loc 1 152 13
 371 0120 0840     		lw	a0,0(s0)
 372 0122 97000000 		call	HAL_MutexUnlock
 372      E7800000 
 373              	.LVL30:
 153:C:/Users/stapi/OneDrive/Desktop/GD32VW553/V1_MQTT_OK/GD32VW55X_Wifi_BLE_SDK/GD32VW55x_RELEASE_V1.0.2/MSDK/cloud/alicloud/src/protocol/coap/local\CoAPServer.c ****             return NULL;
 374              		.loc 1 153 13
 153:C:/Users/stapi/OneDrive/Desktop/GD32VW553/V1_MQTT_OK/GD32VW55X_Wifi_BLE_SDK/GD32VW55x_RELEASE_V1.0.2/MSDK/cloud/alicloud/src/protocol/coap/local\CoAPServer.c ****             return NULL;
 375              		.loc 1 153 24 is_stmt 0
 376 012a 23A00400 		sw	zero,0(s1)
 154:C:/Users/stapi/OneDrive/Desktop/GD32VW553/V1_MQTT_OK/GD32VW55X_Wifi_BLE_SDK/GD32VW55x_RELEASE_V1.0.2/MSDK/cloud/alicloud/src/protocol/coap/local\CoAPServer.c ****         }
 377              		.loc 1 154 13 is_stmt 1
 154:C:/Users/stapi/OneDrive/Desktop/GD32VW553/V1_MQTT_OK/GD32VW55X_Wifi_BLE_SDK/GD32VW55x_RELEASE_V1.0.2/MSDK/cloud/alicloud/src/protocol/coap/local\CoAPServer.c ****         }
 378              		.loc 1 154 20 is_stmt 0
 379 012e 59BF     		j	.L7
 380              	.L15:
 158:C:/Users/stapi/OneDrive/Desktop/GD32VW553/V1_MQTT_OK/GD32VW55X_Wifi_BLE_SDK/GD32VW55x_RELEASE_V1.0.2/MSDK/cloud/alicloud/src/protocol/coap/local\CoAPServer.c ****         if (NULL == g_context) {
 381              		.loc 1 158 9 is_stmt 1
 158:C:/Users/stapi/OneDrive/Desktop/GD32VW553/V1_MQTT_OK/GD32VW55X_Wifi_BLE_SDK/GD32VW55x_RELEASE_V1.0.2/MSDK/cloud/alicloud/src/protocol/coap/local\CoAPServer.c ****         if (NULL == g_context) {
 382              		.loc 1 158 21 is_stmt 0
 383 0130 2808     		addi	a0,sp,24
 384 0132 97000000 		call	CoAPContext_create
 384      E7800000 
 385              	.LVL31:
 158:C:/Users/stapi/OneDrive/Desktop/GD32VW553/V1_MQTT_OK/GD32VW55X_Wifi_BLE_SDK/GD32VW55x_RELEASE_V1.0.2/MSDK/cloud/alicloud/src/protocol/coap/local\CoAPServer.c ****         if (NULL == g_context) {
 386              		.loc 1 158 19
 387 013a 23A0AA00 		sw	a0,0(s5)
 159:C:/Users/stapi/OneDrive/Desktop/GD32VW553/V1_MQTT_OK/GD32VW55X_Wifi_BLE_SDK/GD32VW55x_RELEASE_V1.0.2/MSDK/cloud/alicloud/src/protocol/coap/local\CoAPServer.c **** #ifdef COAP_SERV_MULTITHREAD
 388              		.loc 1 159 9 is_stmt 1
 158:C:/Users/stapi/OneDrive/Desktop/GD32VW553/V1_MQTT_OK/GD32VW55X_Wifi_BLE_SDK/GD32VW55x_RELEASE_V1.0.2/MSDK/cloud/alicloud/src/protocol/coap/local\CoAPServer.c ****         if (NULL == g_context) {
 389              		.loc 1 158 21 is_stmt 0
 390 013e 2A86     		mv	a2,a0
 159:C:/Users/stapi/OneDrive/Desktop/GD32VW553/V1_MQTT_OK/GD32VW55X_Wifi_BLE_SDK/GD32VW55x_RELEASE_V1.0.2/MSDK/cloud/alicloud/src/protocol/coap/local\CoAPServer.c **** #ifdef COAP_SERV_MULTITHREAD
 391              		.loc 1 159 12
 392 0140 0DED     		bne	a0,zero,.L16
 161:C:/Users/stapi/OneDrive/Desktop/GD32VW553/V1_MQTT_OK/GD32VW55X_Wifi_BLE_SDK/GD32VW55x_RELEASE_V1.0.2/MSDK/cloud/alicloud/src/protocol/coap/local\CoAPServer.c ****             HAL_MutexDestroy(coap_yield_mutex);
 393              		.loc 1 161 13 is_stmt 1
 394 0142 8840     		lw	a0,0(s1)
 395 0144 97000000 		call	HAL_SemaphoreDestroy
 395      E7800000 
 396              	.LVL32:
 162:C:/Users/stapi/OneDrive/Desktop/GD32VW553/V1_MQTT_OK/GD32VW55X_Wifi_BLE_SDK/GD32VW55x_RELEASE_V1.0.2/MSDK/cloud/alicloud/src/protocol/coap/local\CoAPServer.c ****             g_semphore = NULL;
 397              		.loc 1 162 13
 398 014c 03A50900 		lw	a0,0(s3)
 399 0150 97000000 		call	HAL_MutexDestroy
 399      E7800000 
 400              	.LVL33:
 163:C:/Users/stapi/OneDrive/Desktop/GD32VW553/V1_MQTT_OK/GD32VW55X_Wifi_BLE_SDK/GD32VW55x_RELEASE_V1.0.2/MSDK/cloud/alicloud/src/protocol/coap/local\CoAPServer.c ****             coap_yield_mutex = NULL;
 401              		.loc 1 163 13
 166:C:/Users/stapi/OneDrive/Desktop/GD32VW553/V1_MQTT_OK/GD32VW55X_Wifi_BLE_SDK/GD32VW55x_RELEASE_V1.0.2/MSDK/cloud/alicloud/src/protocol/coap/local\CoAPServer.c **** 
 402              		.loc 1 166 13 is_stmt 0
 403 0158 37050000 		lui	a0,%hi(.LC6)
 404 015c 13050500 		addi	a0,a0,%lo(.LC6)
 163:C:/Users/stapi/OneDrive/Desktop/GD32VW553/V1_MQTT_OK/GD32VW55X_Wifi_BLE_SDK/GD32VW55x_RELEASE_V1.0.2/MSDK/cloud/alicloud/src/protocol/coap/local\CoAPServer.c ****             coap_yield_mutex = NULL;
 405              		.loc 1 163 24
 406 0160 23A00400 		sw	zero,0(s1)
 164:C:/Users/stapi/OneDrive/Desktop/GD32VW553/V1_MQTT_OK/GD32VW55X_Wifi_BLE_SDK/GD32VW55x_RELEASE_V1.0.2/MSDK/cloud/alicloud/src/protocol/coap/local\CoAPServer.c **** #endif
 407              		.loc 1 164 13 is_stmt 1
 164:C:/Users/stapi/OneDrive/Desktop/GD32VW553/V1_MQTT_OK/GD32VW55X_Wifi_BLE_SDK/GD32VW55x_RELEASE_V1.0.2/MSDK/cloud/alicloud/src/protocol/coap/local\CoAPServer.c **** #endif
 408              		.loc 1 164 30 is_stmt 0
 409 0164 23A00900 		sw	zero,0(s3)
 166:C:/Users/stapi/OneDrive/Desktop/GD32VW553/V1_MQTT_OK/GD32VW55X_Wifi_BLE_SDK/GD32VW55x_RELEASE_V1.0.2/MSDK/cloud/alicloud/src/protocol/coap/local\CoAPServer.c **** 
 410              		.loc 1 166 13 is_stmt 1
 166:C:/Users/stapi/OneDrive/Desktop/GD32VW553/V1_MQTT_OK/GD32VW55X_Wifi_BLE_SDK/GD32VW55x_RELEASE_V1.0.2/MSDK/cloud/alicloud/src/protocol/coap/local\CoAPServer.c **** 
 411              		.loc 1 166 13
 412 0168 97000000 		call	HAL_Printf
 412      E7800000 
 413              	.LVL34:
 166:C:/Users/stapi/OneDrive/Desktop/GD32VW553/V1_MQTT_OK/GD32VW55X_Wifi_BLE_SDK/GD32VW55x_RELEASE_V1.0.2/MSDK/cloud/alicloud/src/protocol/coap/local\CoAPServer.c **** 
 414              		.loc 1 166 13
 415 0170 37050000 		lui	a0,%hi(.LC9)
 416 0174 13050500 		addi	a0,a0,%lo(.LC9)
 417 0178 29BF     		j	.L27
 418              	.L16:
 172:C:/Users/stapi/OneDrive/Desktop/GD32VW553/V1_MQTT_OK/GD32VW55X_Wifi_BLE_SDK/GD32VW55x_RELEASE_V1.0.2/MSDK/cloud/alicloud/src/protocol/coap/local\CoAPServer.c ****         hal_os_thread_param_t task_parms = {0};
 419              		.loc 1 172 9
 172:C:/Users/stapi/OneDrive/Desktop/GD32VW553/V1_MQTT_OK/GD32VW55X_Wifi_BLE_SDK/GD32VW55x_RELEASE_V1.0.2/MSDK/cloud/alicloud/src/protocol/coap/local\CoAPServer.c ****         hal_os_thread_param_t task_parms = {0};
 420              		.loc 1 172 24 is_stmt 0
 421 017a B7070000 		lui	a5,%hi(.LANCHOR2)
 422 017e 0547     		li	a4,1
 423 0180 23A0E700 		sw	a4,%lo(.LANCHOR2)(a5)
 173:C:/Users/stapi/OneDrive/Desktop/GD32VW553/V1_MQTT_OK/GD32VW55X_Wifi_BLE_SDK/GD32VW55x_RELEASE_V1.0.2/MSDK/cloud/alicloud/src/protocol/coap/local\CoAPServer.c ****         task_parms.stack_size = 4608;
 424              		.loc 1 173 9 is_stmt 1
 174:C:/Users/stapi/OneDrive/Desktop/GD32VW553/V1_MQTT_OK/GD32VW55X_Wifi_BLE_SDK/GD32VW55x_RELEASE_V1.0.2/MSDK/cloud/alicloud/src/protocol/coap/local\CoAPServer.c ****         task_parms.name = "CoAPServer_yield";
 425              		.loc 1 174 31 is_stmt 0
 426 0184 8567     		li	a5,4096
 427 0186 93870720 		addi	a5,a5,512
 428 018a 3EC6     		sw	a5,12(sp)
 176:C:/Users/stapi/OneDrive/Desktop/GD32VW553/V1_MQTT_OK/GD32VW55X_Wifi_BLE_SDK/GD32VW55x_RELEASE_V1.0.2/MSDK/cloud/alicloud/src/protocol/coap/local\CoAPServer.c ****         if (0 != ret) {
 429              		.loc 1 176 15
 430 018c B7050000 		lui	a1,%hi(CoAPServer_yield)
 175:C:/Users/stapi/OneDrive/Desktop/GD32VW553/V1_MQTT_OK/GD32VW55X_Wifi_BLE_SDK/GD32VW55x_RELEASE_V1.0.2/MSDK/cloud/alicloud/src/protocol/coap/local\CoAPServer.c ****         ret = HAL_ThreadCreate(&g_coap_thread, CoAPServer_yield, (void *)g_context, &task_parms, &s
 431              		.loc 1 175 25
 432 0190 B7070000 		lui	a5,%hi(.LC10)
 176:C:/Users/stapi/OneDrive/Desktop/GD32VW553/V1_MQTT_OK/GD32VW55X_Wifi_BLE_SDK/GD32VW55x_RELEASE_V1.0.2/MSDK/cloud/alicloud/src/protocol/coap/local\CoAPServer.c ****         if (0 != ret) {
 433              		.loc 1 176 15
 434 0194 37050000 		lui	a0,%hi(.LANCHOR0)
 175:C:/Users/stapi/OneDrive/Desktop/GD32VW553/V1_MQTT_OK/GD32VW55X_Wifi_BLE_SDK/GD32VW55x_RELEASE_V1.0.2/MSDK/cloud/alicloud/src/protocol/coap/local\CoAPServer.c ****         ret = HAL_ThreadCreate(&g_coap_thread, CoAPServer_yield, (void *)g_context, &task_parms, &s
 435              		.loc 1 175 25
 436 0198 93870700 		addi	a5,a5,%lo(.LC10)
 176:C:/Users/stapi/OneDrive/Desktop/GD32VW553/V1_MQTT_OK/GD32VW55X_Wifi_BLE_SDK/GD32VW55x_RELEASE_V1.0.2/MSDK/cloud/alicloud/src/protocol/coap/local\CoAPServer.c ****         if (0 != ret) {
 437              		.loc 1 176 15
 438 019c 0A87     		mv	a4,sp
 439 019e 5400     		addi	a3,sp,4
 440 01a0 93850500 		addi	a1,a1,%lo(CoAPServer_yield)
 441 01a4 13050500 		addi	a0,a0,%lo(.LANCHOR0)
 173:C:/Users/stapi/OneDrive/Desktop/GD32VW553/V1_MQTT_OK/GD32VW55X_Wifi_BLE_SDK/GD32VW55x_RELEASE_V1.0.2/MSDK/cloud/alicloud/src/protocol/coap/local\CoAPServer.c ****         task_parms.stack_size = 4608;
 442              		.loc 1 173 31
 443 01a8 02C2     		sw	zero,4(sp)
 444 01aa 02C4     		sw	zero,8(sp)
 445 01ac 02C8     		sw	zero,16(sp)
 174:C:/Users/stapi/OneDrive/Desktop/GD32VW553/V1_MQTT_OK/GD32VW55X_Wifi_BLE_SDK/GD32VW55x_RELEASE_V1.0.2/MSDK/cloud/alicloud/src/protocol/coap/local\CoAPServer.c ****         task_parms.name = "CoAPServer_yield";
 446              		.loc 1 174 9 is_stmt 1
 175:C:/Users/stapi/OneDrive/Desktop/GD32VW553/V1_MQTT_OK/GD32VW55X_Wifi_BLE_SDK/GD32VW55x_RELEASE_V1.0.2/MSDK/cloud/alicloud/src/protocol/coap/local\CoAPServer.c ****         ret = HAL_ThreadCreate(&g_coap_thread, CoAPServer_yield, (void *)g_context, &task_parms, &s
 447              		.loc 1 175 9
 175:C:/Users/stapi/OneDrive/Desktop/GD32VW553/V1_MQTT_OK/GD32VW55X_Wifi_BLE_SDK/GD32VW55x_RELEASE_V1.0.2/MSDK/cloud/alicloud/src/protocol/coap/local\CoAPServer.c ****         ret = HAL_ThreadCreate(&g_coap_thread, CoAPServer_yield, (void *)g_context, &task_parms, &s
 448              		.loc 1 175 25 is_stmt 0
 449 01ae 3ECA     		sw	a5,20(sp)
 176:C:/Users/stapi/OneDrive/Desktop/GD32VW553/V1_MQTT_OK/GD32VW55X_Wifi_BLE_SDK/GD32VW55x_RELEASE_V1.0.2/MSDK/cloud/alicloud/src/protocol/coap/local\CoAPServer.c ****         if (0 != ret) {
 450              		.loc 1 176 9 is_stmt 1
 176:C:/Users/stapi/OneDrive/Desktop/GD32VW553/V1_MQTT_OK/GD32VW55X_Wifi_BLE_SDK/GD32VW55x_RELEASE_V1.0.2/MSDK/cloud/alicloud/src/protocol/coap/local\CoAPServer.c ****         if (0 != ret) {
 451              		.loc 1 176 15 is_stmt 0
 452 01b0 97000000 		call	HAL_ThreadCreate
 452      E7800000 
 453              	.LVL35:
 177:C:/Users/stapi/OneDrive/Desktop/GD32VW553/V1_MQTT_OK/GD32VW55X_Wifi_BLE_SDK/GD32VW55x_RELEASE_V1.0.2/MSDK/cloud/alicloud/src/protocol/coap/local\CoAPServer.c ****             HAL_SemaphoreDestroy(g_semphore);
 454              		.loc 1 177 9 is_stmt 1
 177:C:/Users/stapi/OneDrive/Desktop/GD32VW553/V1_MQTT_OK/GD32VW55X_Wifi_BLE_SDK/GD32VW55x_RELEASE_V1.0.2/MSDK/cloud/alicloud/src/protocol/coap/local\CoAPServer.c ****             HAL_SemaphoreDestroy(g_semphore);
 455              		.loc 1 177 12 is_stmt 0
 456 01b8 2DCD     		beq	a0,zero,.L18
 178:C:/Users/stapi/OneDrive/Desktop/GD32VW553/V1_MQTT_OK/GD32VW55X_Wifi_BLE_SDK/GD32VW55x_RELEASE_V1.0.2/MSDK/cloud/alicloud/src/protocol/coap/local\CoAPServer.c ****             HAL_MutexDestroy(coap_yield_mutex);
 457              		.loc 1 178 13 is_stmt 1
 458 01ba 8840     		lw	a0,0(s1)
 459              	.LVL36:
 460 01bc 97000000 		call	HAL_SemaphoreDestroy
 460      E7800000 
 461              	.LVL37:
 179:C:/Users/stapi/OneDrive/Desktop/GD32VW553/V1_MQTT_OK/GD32VW55X_Wifi_BLE_SDK/GD32VW55x_RELEASE_V1.0.2/MSDK/cloud/alicloud/src/protocol/coap/local\CoAPServer.c ****             CoAPContext_free(g_context);
 462              		.loc 1 179 13
 463 01c4 03A50900 		lw	a0,0(s3)
 464 01c8 97000000 		call	HAL_MutexDestroy
 464      E7800000 
 465              	.LVL38:
 180:C:/Users/stapi/OneDrive/Desktop/GD32VW553/V1_MQTT_OK/GD32VW55X_Wifi_BLE_SDK/GD32VW55x_RELEASE_V1.0.2/MSDK/cloud/alicloud/src/protocol/coap/local\CoAPServer.c ****             g_semphore = NULL;
 466              		.loc 1 180 13
 467 01d0 03A50A00 		lw	a0,0(s5)
 468 01d4 97000000 		call	CoAPContext_free
 468      E7800000 
 469              	.LVL39:
 181:C:/Users/stapi/OneDrive/Desktop/GD32VW553/V1_MQTT_OK/GD32VW55X_Wifi_BLE_SDK/GD32VW55x_RELEASE_V1.0.2/MSDK/cloud/alicloud/src/protocol/coap/local\CoAPServer.c ****             coap_yield_mutex = NULL;
 470              		.loc 1 181 13
 185:C:/Users/stapi/OneDrive/Desktop/GD32VW553/V1_MQTT_OK/GD32VW55X_Wifi_BLE_SDK/GD32VW55x_RELEASE_V1.0.2/MSDK/cloud/alicloud/src/protocol/coap/local\CoAPServer.c **** 
 471              		.loc 1 185 13 is_stmt 0
 472 01dc 37050000 		lui	a0,%hi(.LC6)
 473 01e0 13050500 		addi	a0,a0,%lo(.LC6)
 181:C:/Users/stapi/OneDrive/Desktop/GD32VW553/V1_MQTT_OK/GD32VW55X_Wifi_BLE_SDK/GD32VW55x_RELEASE_V1.0.2/MSDK/cloud/alicloud/src/protocol/coap/local\CoAPServer.c ****             coap_yield_mutex = NULL;
 474              		.loc 1 181 24
 475 01e4 23A00400 		sw	zero,0(s1)
 182:C:/Users/stapi/OneDrive/Desktop/GD32VW553/V1_MQTT_OK/GD32VW55X_Wifi_BLE_SDK/GD32VW55x_RELEASE_V1.0.2/MSDK/cloud/alicloud/src/protocol/coap/local\CoAPServer.c ****             g_context = NULL;
 476              		.loc 1 182 13 is_stmt 1
 182:C:/Users/stapi/OneDrive/Desktop/GD32VW553/V1_MQTT_OK/GD32VW55X_Wifi_BLE_SDK/GD32VW55x_RELEASE_V1.0.2/MSDK/cloud/alicloud/src/protocol/coap/local\CoAPServer.c ****             g_context = NULL;
 477              		.loc 1 182 30 is_stmt 0
 478 01e8 23A00900 		sw	zero,0(s3)
 183:C:/Users/stapi/OneDrive/Desktop/GD32VW553/V1_MQTT_OK/GD32VW55X_Wifi_BLE_SDK/GD32VW55x_RELEASE_V1.0.2/MSDK/cloud/alicloud/src/protocol/coap/local\CoAPServer.c **** 
 479              		.loc 1 183 13 is_stmt 1
 183:C:/Users/stapi/OneDrive/Desktop/GD32VW553/V1_MQTT_OK/GD32VW55X_Wifi_BLE_SDK/GD32VW55x_RELEASE_V1.0.2/MSDK/cloud/alicloud/src/protocol/coap/local\CoAPServer.c **** 
 480              		.loc 1 183 23 is_stmt 0
 481 01ec 23A00A00 		sw	zero,0(s5)
 185:C:/Users/stapi/OneDrive/Desktop/GD32VW553/V1_MQTT_OK/GD32VW55X_Wifi_BLE_SDK/GD32VW55x_RELEASE_V1.0.2/MSDK/cloud/alicloud/src/protocol/coap/local\CoAPServer.c **** 
 482              		.loc 1 185 13 is_stmt 1
 185:C:/Users/stapi/OneDrive/Desktop/GD32VW553/V1_MQTT_OK/GD32VW55X_Wifi_BLE_SDK/GD32VW55x_RELEASE_V1.0.2/MSDK/cloud/alicloud/src/protocol/coap/local\CoAPServer.c **** 
 483              		.loc 1 185 13
 484 01f0 97000000 		call	HAL_Printf
 484      E7800000 
 485              	.LVL40:
 185:C:/Users/stapi/OneDrive/Desktop/GD32VW553/V1_MQTT_OK/GD32VW55X_Wifi_BLE_SDK/GD32VW55x_RELEASE_V1.0.2/MSDK/cloud/alicloud/src/protocol/coap/local\CoAPServer.c **** 
 486              		.loc 1 185 13
 487 01f8 37050000 		lui	a0,%hi(.LC11)
 488 01fc 13050500 		addi	a0,a0,%lo(.LC11)
 489 0200 49BD     		j	.L27
 490              	.LVL41:
 491              	.L25:
 492              	.LBE3:
 192:C:/Users/stapi/OneDrive/Desktop/GD32VW553/V1_MQTT_OK/GD32VW55X_Wifi_BLE_SDK/GD32VW55x_RELEASE_V1.0.2/MSDK/cloud/alicloud/src/protocol/coap/local\CoAPServer.c ****     }
 493              		.loc 1 192 9
 192:C:/Users/stapi/OneDrive/Desktop/GD32VW553/V1_MQTT_OK/GD32VW55X_Wifi_BLE_SDK/GD32VW55x_RELEASE_V1.0.2/MSDK/cloud/alicloud/src/protocol/coap/local\CoAPServer.c ****     }
 494              		.loc 1 192 9
 495 0202 37050000 		lui	a0,%hi(.LC2)
 496 0206 13050500 		addi	a0,a0,%lo(.LC2)
 497 020a 97000000 		call	HAL_Printf
 497      E7800000 
 498              	.LVL42:
 192:C:/Users/stapi/OneDrive/Desktop/GD32VW553/V1_MQTT_OK/GD32VW55X_Wifi_BLE_SDK/GD32VW55x_RELEASE_V1.0.2/MSDK/cloud/alicloud/src/protocol/coap/local\CoAPServer.c ****     }
 499              		.loc 1 192 9
 500 0212 37050000 		lui	a0,%hi(.LC12)
 501 0216 13050500 		addi	a0,a0,%lo(.LC12)
 502 021a 97000000 		call	HAL_Printf
 502      E7800000 
 503              	.LVL43:
 192:C:/Users/stapi/OneDrive/Desktop/GD32VW553/V1_MQTT_OK/GD32VW55X_Wifi_BLE_SDK/GD32VW55x_RELEASE_V1.0.2/MSDK/cloud/alicloud/src/protocol/coap/local\CoAPServer.c ****     }
 504              		.loc 1 192 9
 505 0222 37050000 		lui	a0,%hi(.LC4)
 506 0226 13050500 		addi	a0,a0,%lo(.LC4)
 507 022a 97000000 		call	HAL_Printf
 507      E7800000 
 508              	.LVL44:
 509              	.L18:
 192:C:/Users/stapi/OneDrive/Desktop/GD32VW553/V1_MQTT_OK/GD32VW55X_Wifi_BLE_SDK/GD32VW55x_RELEASE_V1.0.2/MSDK/cloud/alicloud/src/protocol/coap/local\CoAPServer.c ****     }
 510              		.loc 1 192 9 discriminator 1
 195:C:/Users/stapi/OneDrive/Desktop/GD32VW553/V1_MQTT_OK/GD32VW55X_Wifi_BLE_SDK/GD32VW55x_RELEASE_V1.0.2/MSDK/cloud/alicloud/src/protocol/coap/local\CoAPServer.c **** 
 511              		.loc 1 195 5 discriminator 1
 512 0232 0840     		lw	a0,0(s0)
 513 0234 97000000 		call	HAL_MutexUnlock
 513      E7800000 
 514              	.LVL45:
 197:C:/Users/stapi/OneDrive/Desktop/GD32VW553/V1_MQTT_OK/GD32VW55X_Wifi_BLE_SDK/GD32VW55x_RELEASE_V1.0.2/MSDK/cloud/alicloud/src/protocol/coap/local\CoAPServer.c **** }
 515              		.loc 1 197 5 discriminator 1
 197:C:/Users/stapi/OneDrive/Desktop/GD32VW553/V1_MQTT_OK/GD32VW55X_Wifi_BLE_SDK/GD32VW55x_RELEASE_V1.0.2/MSDK/cloud/alicloud/src/protocol/coap/local\CoAPServer.c **** }
 516              		.loc 1 197 12 is_stmt 0 discriminator 1
 517 023c 03290A00 		lw	s2,0(s4)
 518 0240 51B5     		j	.L7
 519              		.cfi_endproc
 520              	.LFE25:
 522              		.section	.rodata.CoAPServer_deinit.str1.4,"aMS",@progbits,1
 523              		.align	2
 524              	.LC13:
 525 0000 496E7661 		.string	"Invalid CoAP Server context"
 525      6C696420 
 525      436F4150 
 525      20536572 
 525      76657220 
 526              		.align	2
 527              	.LC14:
 528 001c 436F4150 		.string	"CoAP init mutex is NULL"
 528      20696E69 
 528      74206D75 
 528      74657820 
 528      6973204E 
 529              		.align	2
 530              	.LC15:
 531 0034 436F4150 		.string	"CoAP Server deinit"
 531      20536572 
 531      76657220 
 531      6465696E 
 531      697400
 532 0047 00       		.align	2
 533              	.LC16:
 534 0048 57616974 		.string	"Wait Semaphore, will exit task"
 534      2053656D 
 534      6170686F 
 534      72652C20 
 534      77696C6C 
 535              		.section	.text.CoAPServer_deinit,"ax",@progbits
 536              		.align	1
 537              		.globl	CoAPServer_deinit
 539              	CoAPServer_deinit:
 540              	.LFB26:
 199:C:/Users/stapi/OneDrive/Desktop/GD32VW553/V1_MQTT_OK/GD32VW55X_Wifi_BLE_SDK/GD32VW55x_RELEASE_V1.0.2/MSDK/cloud/alicloud/src/protocol/coap/local\CoAPServer.c **** 
 200:C:/Users/stapi/OneDrive/Desktop/GD32VW553/V1_MQTT_OK/GD32VW55X_Wifi_BLE_SDK/GD32VW55x_RELEASE_V1.0.2/MSDK/cloud/alicloud/src/protocol/coap/local\CoAPServer.c **** void CoAPServer_deinit(CoAPContext *context)
 201:C:/Users/stapi/OneDrive/Desktop/GD32VW553/V1_MQTT_OK/GD32VW55X_Wifi_BLE_SDK/GD32VW55x_RELEASE_V1.0.2/MSDK/cloud/alicloud/src/protocol/coap/local\CoAPServer.c **** {
 541              		.loc 1 201 1 is_stmt 1
 542              		.cfi_startproc
 543              	.LVL46:
 544 0000 17030000 		call	t0,__riscv_save_6
 544      E7020300 
 545              		.cfi_offset 21, -28
 546              		.cfi_offset 20, -24
 547              		.cfi_offset 19, -20
 548              		.cfi_offset 18, -16
 549              		.cfi_offset 9, -12
 550              		.cfi_offset 8, -8
 551              		.cfi_offset 1, -4
 552              		.cfi_def_cfa_offset 32
 202:C:/Users/stapi/OneDrive/Desktop/GD32VW553/V1_MQTT_OK/GD32VW55X_Wifi_BLE_SDK/GD32VW55x_RELEASE_V1.0.2/MSDK/cloud/alicloud/src/protocol/coap/local\CoAPServer.c ****     if (context != g_context) {
 553              		.loc 1 202 5
 554              		.loc 1 202 17 is_stmt 0
 555 0008 B7090000 		lui	s3,%hi(.LANCHOR5)
 556              		.loc 1 202 8
 557 000c 83A70900 		lw	a5,%lo(.LANCHOR5)(s3)
 558 0010 370A0000 		lui	s4,%hi(.LC4)
 559 0014 638CA702 		beq	a5,a0,.L29
 203:C:/Users/stapi/OneDrive/Desktop/GD32VW553/V1_MQTT_OK/GD32VW55X_Wifi_BLE_SDK/GD32VW55x_RELEASE_V1.0.2/MSDK/cloud/alicloud/src/protocol/coap/local\CoAPServer.c ****         COAP_INFO("Invalid CoAP Server context");
 560              		.loc 1 203 9 is_stmt 1
 561              		.loc 1 203 9
 562 0018 37050000 		lui	a0,%hi(.LC2)
 563              	.LVL47:
 564 001c 13050500 		addi	a0,a0,%lo(.LC2)
 565 0020 97000000 		call	HAL_Printf
 565      E7800000 
 566              	.LVL48:
 567              		.loc 1 203 9
 568 0028 37050000 		lui	a0,%hi(.LC13)
 569 002c 13050500 		addi	a0,a0,%lo(.LC13)
 570              	.L45:
 204:C:/Users/stapi/OneDrive/Desktop/GD32VW553/V1_MQTT_OK/GD32VW55X_Wifi_BLE_SDK/GD32VW55x_RELEASE_V1.0.2/MSDK/cloud/alicloud/src/protocol/coap/local\CoAPServer.c ****         return;
 205:C:/Users/stapi/OneDrive/Desktop/GD32VW553/V1_MQTT_OK/GD32VW55X_Wifi_BLE_SDK/GD32VW55x_RELEASE_V1.0.2/MSDK/cloud/alicloud/src/protocol/coap/local\CoAPServer.c ****     }
 206:C:/Users/stapi/OneDrive/Desktop/GD32VW553/V1_MQTT_OK/GD32VW55X_Wifi_BLE_SDK/GD32VW55x_RELEASE_V1.0.2/MSDK/cloud/alicloud/src/protocol/coap/local\CoAPServer.c **** 
 207:C:/Users/stapi/OneDrive/Desktop/GD32VW553/V1_MQTT_OK/GD32VW55X_Wifi_BLE_SDK/GD32VW55x_RELEASE_V1.0.2/MSDK/cloud/alicloud/src/protocol/coap/local\CoAPServer.c ****     if (NULL == coap_init_mutex) {
 208:C:/Users/stapi/OneDrive/Desktop/GD32VW553/V1_MQTT_OK/GD32VW55X_Wifi_BLE_SDK/GD32VW55x_RELEASE_V1.0.2/MSDK/cloud/alicloud/src/protocol/coap/local\CoAPServer.c ****         COAP_ERR("CoAP init mutex is NULL");
 571              		.loc 1 208 9 is_stmt 0
 572 0030 97000000 		call	HAL_Printf
 572      E7800000 
 573              	.LVL49:
 574              		.loc 1 208 9 is_stmt 1
 575 0038 13050A00 		addi	a0,s4,%lo(.LC4)
 576 003c 97000000 		call	HAL_Printf
 576      E7800000 
 577              	.LVL50:
 578              		.loc 1 208 9
 209:C:/Users/stapi/OneDrive/Desktop/GD32VW553/V1_MQTT_OK/GD32VW55X_Wifi_BLE_SDK/GD32VW55x_RELEASE_V1.0.2/MSDK/cloud/alicloud/src/protocol/coap/local\CoAPServer.c ****         return;
 579              		.loc 1 209 9
 580              	.L28:
 210:C:/Users/stapi/OneDrive/Desktop/GD32VW553/V1_MQTT_OK/GD32VW55X_Wifi_BLE_SDK/GD32VW55x_RELEASE_V1.0.2/MSDK/cloud/alicloud/src/protocol/coap/local\CoAPServer.c ****     }
 211:C:/Users/stapi/OneDrive/Desktop/GD32VW553/V1_MQTT_OK/GD32VW55X_Wifi_BLE_SDK/GD32VW55x_RELEASE_V1.0.2/MSDK/cloud/alicloud/src/protocol/coap/local\CoAPServer.c **** 
 212:C:/Users/stapi/OneDrive/Desktop/GD32VW553/V1_MQTT_OK/GD32VW55X_Wifi_BLE_SDK/GD32VW55x_RELEASE_V1.0.2/MSDK/cloud/alicloud/src/protocol/coap/local\CoAPServer.c ****     HAL_MutexLock(coap_init_mutex);
 213:C:/Users/stapi/OneDrive/Desktop/GD32VW553/V1_MQTT_OK/GD32VW55X_Wifi_BLE_SDK/GD32VW55x_RELEASE_V1.0.2/MSDK/cloud/alicloud/src/protocol/coap/local\CoAPServer.c **** 
 214:C:/Users/stapi/OneDrive/Desktop/GD32VW553/V1_MQTT_OK/GD32VW55X_Wifi_BLE_SDK/GD32VW55x_RELEASE_V1.0.2/MSDK/cloud/alicloud/src/protocol/coap/local\CoAPServer.c ****     COAP_INFO("CoAP Server deinit");
 215:C:/Users/stapi/OneDrive/Desktop/GD32VW553/V1_MQTT_OK/GD32VW55X_Wifi_BLE_SDK/GD32VW55x_RELEASE_V1.0.2/MSDK/cloud/alicloud/src/protocol/coap/local\CoAPServer.c ****     g_coap_running = 0;
 216:C:/Users/stapi/OneDrive/Desktop/GD32VW553/V1_MQTT_OK/GD32VW55X_Wifi_BLE_SDK/GD32VW55x_RELEASE_V1.0.2/MSDK/cloud/alicloud/src/protocol/coap/local\CoAPServer.c **** 
 217:C:/Users/stapi/OneDrive/Desktop/GD32VW553/V1_MQTT_OK/GD32VW55X_Wifi_BLE_SDK/GD32VW55x_RELEASE_V1.0.2/MSDK/cloud/alicloud/src/protocol/coap/local\CoAPServer.c **** #ifdef COAP_SERV_MULTITHREAD
 218:C:/Users/stapi/OneDrive/Desktop/GD32VW553/V1_MQTT_OK/GD32VW55X_Wifi_BLE_SDK/GD32VW55x_RELEASE_V1.0.2/MSDK/cloud/alicloud/src/protocol/coap/local\CoAPServer.c ****     if (NULL != g_semphore) {
 219:C:/Users/stapi/OneDrive/Desktop/GD32VW553/V1_MQTT_OK/GD32VW55X_Wifi_BLE_SDK/GD32VW55x_RELEASE_V1.0.2/MSDK/cloud/alicloud/src/protocol/coap/local\CoAPServer.c ****         HAL_SemaphoreWait(g_semphore, PLATFORM_WAIT_INFINITE);
 220:C:/Users/stapi/OneDrive/Desktop/GD32VW553/V1_MQTT_OK/GD32VW55X_Wifi_BLE_SDK/GD32VW55x_RELEASE_V1.0.2/MSDK/cloud/alicloud/src/protocol/coap/local\CoAPServer.c ****         COAP_INFO("Wait Semaphore, will exit task");
 221:C:/Users/stapi/OneDrive/Desktop/GD32VW553/V1_MQTT_OK/GD32VW55X_Wifi_BLE_SDK/GD32VW55x_RELEASE_V1.0.2/MSDK/cloud/alicloud/src/protocol/coap/local\CoAPServer.c ****         HAL_SemaphoreDestroy(g_semphore);
 222:C:/Users/stapi/OneDrive/Desktop/GD32VW553/V1_MQTT_OK/GD32VW55X_Wifi_BLE_SDK/GD32VW55x_RELEASE_V1.0.2/MSDK/cloud/alicloud/src/protocol/coap/local\CoAPServer.c ****         g_semphore = NULL;
 223:C:/Users/stapi/OneDrive/Desktop/GD32VW553/V1_MQTT_OK/GD32VW55X_Wifi_BLE_SDK/GD32VW55x_RELEASE_V1.0.2/MSDK/cloud/alicloud/src/protocol/coap/local\CoAPServer.c ****     }
 224:C:/Users/stapi/OneDrive/Desktop/GD32VW553/V1_MQTT_OK/GD32VW55X_Wifi_BLE_SDK/GD32VW55x_RELEASE_V1.0.2/MSDK/cloud/alicloud/src/protocol/coap/local\CoAPServer.c ****     if (NULL != coap_yield_mutex) {
 225:C:/Users/stapi/OneDrive/Desktop/GD32VW553/V1_MQTT_OK/GD32VW55X_Wifi_BLE_SDK/GD32VW55x_RELEASE_V1.0.2/MSDK/cloud/alicloud/src/protocol/coap/local\CoAPServer.c ****         HAL_MutexDestroy(coap_yield_mutex);
 226:C:/Users/stapi/OneDrive/Desktop/GD32VW553/V1_MQTT_OK/GD32VW55X_Wifi_BLE_SDK/GD32VW55x_RELEASE_V1.0.2/MSDK/cloud/alicloud/src/protocol/coap/local\CoAPServer.c ****         coap_yield_mutex = NULL;
 227:C:/Users/stapi/OneDrive/Desktop/GD32VW553/V1_MQTT_OK/GD32VW55X_Wifi_BLE_SDK/GD32VW55x_RELEASE_V1.0.2/MSDK/cloud/alicloud/src/protocol/coap/local\CoAPServer.c ****     }
 228:C:/Users/stapi/OneDrive/Desktop/GD32VW553/V1_MQTT_OK/GD32VW55X_Wifi_BLE_SDK/GD32VW55x_RELEASE_V1.0.2/MSDK/cloud/alicloud/src/protocol/coap/local\CoAPServer.c **** #endif
 229:C:/Users/stapi/OneDrive/Desktop/GD32VW553/V1_MQTT_OK/GD32VW55X_Wifi_BLE_SDK/GD32VW55x_RELEASE_V1.0.2/MSDK/cloud/alicloud/src/protocol/coap/local\CoAPServer.c ****     if (NULL != context) {
 230:C:/Users/stapi/OneDrive/Desktop/GD32VW553/V1_MQTT_OK/GD32VW55X_Wifi_BLE_SDK/GD32VW55x_RELEASE_V1.0.2/MSDK/cloud/alicloud/src/protocol/coap/local\CoAPServer.c ****         CoAPContext_free(context);
 231:C:/Users/stapi/OneDrive/Desktop/GD32VW553/V1_MQTT_OK/GD32VW55X_Wifi_BLE_SDK/GD32VW55x_RELEASE_V1.0.2/MSDK/cloud/alicloud/src/protocol/coap/local\CoAPServer.c ****         g_context = NULL;
 232:C:/Users/stapi/OneDrive/Desktop/GD32VW553/V1_MQTT_OK/GD32VW55X_Wifi_BLE_SDK/GD32VW55x_RELEASE_V1.0.2/MSDK/cloud/alicloud/src/protocol/coap/local\CoAPServer.c ****     }
 233:C:/Users/stapi/OneDrive/Desktop/GD32VW553/V1_MQTT_OK/GD32VW55X_Wifi_BLE_SDK/GD32VW55x_RELEASE_V1.0.2/MSDK/cloud/alicloud/src/protocol/coap/local\CoAPServer.c **** 
 234:C:/Users/stapi/OneDrive/Desktop/GD32VW553/V1_MQTT_OK/GD32VW55X_Wifi_BLE_SDK/GD32VW55x_RELEASE_V1.0.2/MSDK/cloud/alicloud/src/protocol/coap/local\CoAPServer.c ****     HAL_MutexUnlock(coap_init_mutex);
 235:C:/Users/stapi/OneDrive/Desktop/GD32VW553/V1_MQTT_OK/GD32VW55X_Wifi_BLE_SDK/GD32VW55x_RELEASE_V1.0.2/MSDK/cloud/alicloud/src/protocol/coap/local\CoAPServer.c **** 
 236:C:/Users/stapi/OneDrive/Desktop/GD32VW553/V1_MQTT_OK/GD32VW55X_Wifi_BLE_SDK/GD32VW55x_RELEASE_V1.0.2/MSDK/cloud/alicloud/src/protocol/coap/local\CoAPServer.c ****     HAL_MutexDestroy(coap_init_mutex);
 237:C:/Users/stapi/OneDrive/Desktop/GD32VW553/V1_MQTT_OK/GD32VW55X_Wifi_BLE_SDK/GD32VW55x_RELEASE_V1.0.2/MSDK/cloud/alicloud/src/protocol/coap/local\CoAPServer.c **** 
 238:C:/Users/stapi/OneDrive/Desktop/GD32VW553/V1_MQTT_OK/GD32VW55X_Wifi_BLE_SDK/GD32VW55x_RELEASE_V1.0.2/MSDK/cloud/alicloud/src/protocol/coap/local\CoAPServer.c ****     coap_init_mutex = NULL;
 239:C:/Users/stapi/OneDrive/Desktop/GD32VW553/V1_MQTT_OK/GD32VW55X_Wifi_BLE_SDK/GD32VW55x_RELEASE_V1.0.2/MSDK/cloud/alicloud/src/protocol/coap/local\CoAPServer.c **** }
 581              		.loc 1 239 1 is_stmt 0
 582 0044 17030000 		tail	__riscv_restore_6
 582      67000300 
 583              		.cfi_remember_state
 584              		.cfi_restore 21
 585              		.cfi_restore 20
 586              		.cfi_restore 19
 587              		.cfi_restore 18
 588              		.cfi_restore 9
 589              		.cfi_restore 8
 590              		.cfi_restore 1
 591              		.cfi_def_cfa_offset 0
 592              	.LVL51:
 593              	.L29:
 594              		.cfi_restore_state
 207:C:/Users/stapi/OneDrive/Desktop/GD32VW553/V1_MQTT_OK/GD32VW55X_Wifi_BLE_SDK/GD32VW55x_RELEASE_V1.0.2/MSDK/cloud/alicloud/src/protocol/coap/local\CoAPServer.c ****         COAP_ERR("CoAP init mutex is NULL");
 595              		.loc 1 207 14
 596 004c 37040000 		lui	s0,%hi(.LANCHOR4)
 597 0050 AA84     		mv	s1,a0
 207:C:/Users/stapi/OneDrive/Desktop/GD32VW553/V1_MQTT_OK/GD32VW55X_Wifi_BLE_SDK/GD32VW55x_RELEASE_V1.0.2/MSDK/cloud/alicloud/src/protocol/coap/local\CoAPServer.c ****         COAP_ERR("CoAP init mutex is NULL");
 598              		.loc 1 207 5 is_stmt 1
 207:C:/Users/stapi/OneDrive/Desktop/GD32VW553/V1_MQTT_OK/GD32VW55X_Wifi_BLE_SDK/GD32VW55x_RELEASE_V1.0.2/MSDK/cloud/alicloud/src/protocol/coap/local\CoAPServer.c ****         COAP_ERR("CoAP init mutex is NULL");
 599              		.loc 1 207 14 is_stmt 0
 600 0052 03250400 		lw	a0,%lo(.LANCHOR4)(s0)
 601              	.LVL52:
 602 0056 13040400 		addi	s0,s0,%lo(.LANCHOR4)
 207:C:/Users/stapi/OneDrive/Desktop/GD32VW553/V1_MQTT_OK/GD32VW55X_Wifi_BLE_SDK/GD32VW55x_RELEASE_V1.0.2/MSDK/cloud/alicloud/src/protocol/coap/local\CoAPServer.c ****         COAP_ERR("CoAP init mutex is NULL");
 603              		.loc 1 207 8
 604 005a 11ED     		bne	a0,zero,.L31
 208:C:/Users/stapi/OneDrive/Desktop/GD32VW553/V1_MQTT_OK/GD32VW55X_Wifi_BLE_SDK/GD32VW55x_RELEASE_V1.0.2/MSDK/cloud/alicloud/src/protocol/coap/local\CoAPServer.c ****         return;
 605              		.loc 1 208 9 is_stmt 1
 208:C:/Users/stapi/OneDrive/Desktop/GD32VW553/V1_MQTT_OK/GD32VW55X_Wifi_BLE_SDK/GD32VW55x_RELEASE_V1.0.2/MSDK/cloud/alicloud/src/protocol/coap/local\CoAPServer.c ****         return;
 606              		.loc 1 208 9
 607 005c 37050000 		lui	a0,%hi(.LC6)
 608 0060 13050500 		addi	a0,a0,%lo(.LC6)
 609 0064 97000000 		call	HAL_Printf
 609      E7800000 
 610              	.LVL53:
 208:C:/Users/stapi/OneDrive/Desktop/GD32VW553/V1_MQTT_OK/GD32VW55X_Wifi_BLE_SDK/GD32VW55x_RELEASE_V1.0.2/MSDK/cloud/alicloud/src/protocol/coap/local\CoAPServer.c ****         return;
 611              		.loc 1 208 9
 612 006c 37050000 		lui	a0,%hi(.LC14)
 613 0070 13050500 		addi	a0,a0,%lo(.LC14)
 614 0074 75BF     		j	.L45
 615              	.L31:
 212:C:/Users/stapi/OneDrive/Desktop/GD32VW553/V1_MQTT_OK/GD32VW55X_Wifi_BLE_SDK/GD32VW55x_RELEASE_V1.0.2/MSDK/cloud/alicloud/src/protocol/coap/local\CoAPServer.c **** 
 616              		.loc 1 212 5 is_stmt 0
 617 0076 97000000 		call	HAL_MutexLock
 617      E7800000 
 618              	.LVL54:
 214:C:/Users/stapi/OneDrive/Desktop/GD32VW553/V1_MQTT_OK/GD32VW55X_Wifi_BLE_SDK/GD32VW55x_RELEASE_V1.0.2/MSDK/cloud/alicloud/src/protocol/coap/local\CoAPServer.c ****     g_coap_running = 0;
 619              		.loc 1 214 5
 620 007e B70A0000 		lui	s5,%hi(.LC2)
 621 0082 13850A00 		addi	a0,s5,%lo(.LC2)
 622 0086 97000000 		call	HAL_Printf
 622      E7800000 
 623              	.LVL55:
 624 008e 37050000 		lui	a0,%hi(.LC15)
 625 0092 13050500 		addi	a0,a0,%lo(.LC15)
 626 0096 97000000 		call	HAL_Printf
 626      E7800000 
 627              	.LVL56:
 628 009e 13050A00 		addi	a0,s4,%lo(.LC4)
 218:C:/Users/stapi/OneDrive/Desktop/GD32VW553/V1_MQTT_OK/GD32VW55X_Wifi_BLE_SDK/GD32VW55x_RELEASE_V1.0.2/MSDK/cloud/alicloud/src/protocol/coap/local\CoAPServer.c ****         HAL_SemaphoreWait(g_semphore, PLATFORM_WAIT_INFINITE);
 629              		.loc 1 218 14
 630 00a2 37090000 		lui	s2,%hi(.LANCHOR3)
 214:C:/Users/stapi/OneDrive/Desktop/GD32VW553/V1_MQTT_OK/GD32VW55X_Wifi_BLE_SDK/GD32VW55x_RELEASE_V1.0.2/MSDK/cloud/alicloud/src/protocol/coap/local\CoAPServer.c ****     g_coap_running = 0;
 631              		.loc 1 214 5
 632 00a6 97000000 		call	HAL_Printf
 632      E7800000 
 633              	.LVL57:
 218:C:/Users/stapi/OneDrive/Desktop/GD32VW553/V1_MQTT_OK/GD32VW55X_Wifi_BLE_SDK/GD32VW55x_RELEASE_V1.0.2/MSDK/cloud/alicloud/src/protocol/coap/local\CoAPServer.c ****         HAL_SemaphoreWait(g_semphore, PLATFORM_WAIT_INFINITE);
 634              		.loc 1 218 14
 635 00ae 13090900 		addi	s2,s2,%lo(.LANCHOR3)
 636 00b2 03250900 		lw	a0,0(s2)
 215:C:/Users/stapi/OneDrive/Desktop/GD32VW553/V1_MQTT_OK/GD32VW55X_Wifi_BLE_SDK/GD32VW55x_RELEASE_V1.0.2/MSDK/cloud/alicloud/src/protocol/coap/local\CoAPServer.c **** 
 637              		.loc 1 215 20
 638 00b6 B7070000 		lui	a5,%hi(.LANCHOR2)
 639 00ba 23A00700 		sw	zero,%lo(.LANCHOR2)(a5)
 640 00be 93890900 		addi	s3,s3,%lo(.LANCHOR5)
 212:C:/Users/stapi/OneDrive/Desktop/GD32VW553/V1_MQTT_OK/GD32VW55X_Wifi_BLE_SDK/GD32VW55x_RELEASE_V1.0.2/MSDK/cloud/alicloud/src/protocol/coap/local\CoAPServer.c **** 
 641              		.loc 1 212 5 is_stmt 1
 214:C:/Users/stapi/OneDrive/Desktop/GD32VW553/V1_MQTT_OK/GD32VW55X_Wifi_BLE_SDK/GD32VW55x_RELEASE_V1.0.2/MSDK/cloud/alicloud/src/protocol/coap/local\CoAPServer.c ****     g_coap_running = 0;
 642              		.loc 1 214 5
 214:C:/Users/stapi/OneDrive/Desktop/GD32VW553/V1_MQTT_OK/GD32VW55X_Wifi_BLE_SDK/GD32VW55x_RELEASE_V1.0.2/MSDK/cloud/alicloud/src/protocol/coap/local\CoAPServer.c ****     g_coap_running = 0;
 643              		.loc 1 214 5
 214:C:/Users/stapi/OneDrive/Desktop/GD32VW553/V1_MQTT_OK/GD32VW55X_Wifi_BLE_SDK/GD32VW55x_RELEASE_V1.0.2/MSDK/cloud/alicloud/src/protocol/coap/local\CoAPServer.c ****     g_coap_running = 0;
 644              		.loc 1 214 5
 214:C:/Users/stapi/OneDrive/Desktop/GD32VW553/V1_MQTT_OK/GD32VW55X_Wifi_BLE_SDK/GD32VW55x_RELEASE_V1.0.2/MSDK/cloud/alicloud/src/protocol/coap/local\CoAPServer.c ****     g_coap_running = 0;
 645              		.loc 1 214 5
 214:C:/Users/stapi/OneDrive/Desktop/GD32VW553/V1_MQTT_OK/GD32VW55X_Wifi_BLE_SDK/GD32VW55x_RELEASE_V1.0.2/MSDK/cloud/alicloud/src/protocol/coap/local\CoAPServer.c ****     g_coap_running = 0;
 646              		.loc 1 214 5
 215:C:/Users/stapi/OneDrive/Desktop/GD32VW553/V1_MQTT_OK/GD32VW55X_Wifi_BLE_SDK/GD32VW55x_RELEASE_V1.0.2/MSDK/cloud/alicloud/src/protocol/coap/local\CoAPServer.c **** 
 647              		.loc 1 215 5
 218:C:/Users/stapi/OneDrive/Desktop/GD32VW553/V1_MQTT_OK/GD32VW55X_Wifi_BLE_SDK/GD32VW55x_RELEASE_V1.0.2/MSDK/cloud/alicloud/src/protocol/coap/local\CoAPServer.c ****         HAL_SemaphoreWait(g_semphore, PLATFORM_WAIT_INFINITE);
 648              		.loc 1 218 5
 218:C:/Users/stapi/OneDrive/Desktop/GD32VW553/V1_MQTT_OK/GD32VW55X_Wifi_BLE_SDK/GD32VW55x_RELEASE_V1.0.2/MSDK/cloud/alicloud/src/protocol/coap/local\CoAPServer.c ****         HAL_SemaphoreWait(g_semphore, PLATFORM_WAIT_INFINITE);
 649              		.loc 1 218 8 is_stmt 0
 650 00c2 31C1     		beq	a0,zero,.L32
 219:C:/Users/stapi/OneDrive/Desktop/GD32VW553/V1_MQTT_OK/GD32VW55X_Wifi_BLE_SDK/GD32VW55x_RELEASE_V1.0.2/MSDK/cloud/alicloud/src/protocol/coap/local\CoAPServer.c ****         COAP_INFO("Wait Semaphore, will exit task");
 651              		.loc 1 219 9 is_stmt 1
 652 00c4 FD55     		li	a1,-1
 653 00c6 97000000 		call	HAL_SemaphoreWait
 653      E7800000 
 654              	.LVL58:
 220:C:/Users/stapi/OneDrive/Desktop/GD32VW553/V1_MQTT_OK/GD32VW55X_Wifi_BLE_SDK/GD32VW55x_RELEASE_V1.0.2/MSDK/cloud/alicloud/src/protocol/coap/local\CoAPServer.c ****         HAL_SemaphoreDestroy(g_semphore);
 655              		.loc 1 220 9
 220:C:/Users/stapi/OneDrive/Desktop/GD32VW553/V1_MQTT_OK/GD32VW55X_Wifi_BLE_SDK/GD32VW55x_RELEASE_V1.0.2/MSDK/cloud/alicloud/src/protocol/coap/local\CoAPServer.c ****         HAL_SemaphoreDestroy(g_semphore);
 656              		.loc 1 220 9
 657 00ce 13850A00 		addi	a0,s5,%lo(.LC2)
 658 00d2 97000000 		call	HAL_Printf
 658      E7800000 
 659              	.LVL59:
 220:C:/Users/stapi/OneDrive/Desktop/GD32VW553/V1_MQTT_OK/GD32VW55X_Wifi_BLE_SDK/GD32VW55x_RELEASE_V1.0.2/MSDK/cloud/alicloud/src/protocol/coap/local\CoAPServer.c ****         HAL_SemaphoreDestroy(g_semphore);
 660              		.loc 1 220 9
 661 00da 37050000 		lui	a0,%hi(.LC16)
 662 00de 13050500 		addi	a0,a0,%lo(.LC16)
 663 00e2 97000000 		call	HAL_Printf
 663      E7800000 
 664              	.LVL60:
 220:C:/Users/stapi/OneDrive/Desktop/GD32VW553/V1_MQTT_OK/GD32VW55X_Wifi_BLE_SDK/GD32VW55x_RELEASE_V1.0.2/MSDK/cloud/alicloud/src/protocol/coap/local\CoAPServer.c ****         HAL_SemaphoreDestroy(g_semphore);
 665              		.loc 1 220 9
 666 00ea 13050A00 		addi	a0,s4,%lo(.LC4)
 667 00ee 97000000 		call	HAL_Printf
 667      E7800000 
 668              	.LVL61:
 220:C:/Users/stapi/OneDrive/Desktop/GD32VW553/V1_MQTT_OK/GD32VW55X_Wifi_BLE_SDK/GD32VW55x_RELEASE_V1.0.2/MSDK/cloud/alicloud/src/protocol/coap/local\CoAPServer.c ****         HAL_SemaphoreDestroy(g_semphore);
 669              		.loc 1 220 9
 221:C:/Users/stapi/OneDrive/Desktop/GD32VW553/V1_MQTT_OK/GD32VW55X_Wifi_BLE_SDK/GD32VW55x_RELEASE_V1.0.2/MSDK/cloud/alicloud/src/protocol/coap/local\CoAPServer.c ****         g_semphore = NULL;
 670              		.loc 1 221 9
 671 00f6 03250900 		lw	a0,0(s2)
 672 00fa 97000000 		call	HAL_SemaphoreDestroy
 672      E7800000 
 673              	.LVL62:
 222:C:/Users/stapi/OneDrive/Desktop/GD32VW553/V1_MQTT_OK/GD32VW55X_Wifi_BLE_SDK/GD32VW55x_RELEASE_V1.0.2/MSDK/cloud/alicloud/src/protocol/coap/local\CoAPServer.c ****     }
 674              		.loc 1 222 9
 222:C:/Users/stapi/OneDrive/Desktop/GD32VW553/V1_MQTT_OK/GD32VW55X_Wifi_BLE_SDK/GD32VW55x_RELEASE_V1.0.2/MSDK/cloud/alicloud/src/protocol/coap/local\CoAPServer.c ****     }
 675              		.loc 1 222 20 is_stmt 0
 676 0102 23200900 		sw	zero,0(s2)
 677              	.L32:
 224:C:/Users/stapi/OneDrive/Desktop/GD32VW553/V1_MQTT_OK/GD32VW55X_Wifi_BLE_SDK/GD32VW55x_RELEASE_V1.0.2/MSDK/cloud/alicloud/src/protocol/coap/local\CoAPServer.c ****         HAL_MutexDestroy(coap_yield_mutex);
 678              		.loc 1 224 5 is_stmt 1
 224:C:/Users/stapi/OneDrive/Desktop/GD32VW553/V1_MQTT_OK/GD32VW55X_Wifi_BLE_SDK/GD32VW55x_RELEASE_V1.0.2/MSDK/cloud/alicloud/src/protocol/coap/local\CoAPServer.c ****         HAL_MutexDestroy(coap_yield_mutex);
 679              		.loc 1 224 14 is_stmt 0
 680 0106 37090000 		lui	s2,%hi(.LANCHOR6)
 681 010a 13090900 		addi	s2,s2,%lo(.LANCHOR6)
 682 010e 03250900 		lw	a0,0(s2)
 224:C:/Users/stapi/OneDrive/Desktop/GD32VW553/V1_MQTT_OK/GD32VW55X_Wifi_BLE_SDK/GD32VW55x_RELEASE_V1.0.2/MSDK/cloud/alicloud/src/protocol/coap/local\CoAPServer.c ****         HAL_MutexDestroy(coap_yield_mutex);
 683              		.loc 1 224 8
 684 0112 19C5     		beq	a0,zero,.L33
 225:C:/Users/stapi/OneDrive/Desktop/GD32VW553/V1_MQTT_OK/GD32VW55X_Wifi_BLE_SDK/GD32VW55x_RELEASE_V1.0.2/MSDK/cloud/alicloud/src/protocol/coap/local\CoAPServer.c ****         coap_yield_mutex = NULL;
 685              		.loc 1 225 9 is_stmt 1
 686 0114 97000000 		call	HAL_MutexDestroy
 686      E7800000 
 687              	.LVL63:
 226:C:/Users/stapi/OneDrive/Desktop/GD32VW553/V1_MQTT_OK/GD32VW55X_Wifi_BLE_SDK/GD32VW55x_RELEASE_V1.0.2/MSDK/cloud/alicloud/src/protocol/coap/local\CoAPServer.c ****     }
 688              		.loc 1 226 9
 226:C:/Users/stapi/OneDrive/Desktop/GD32VW553/V1_MQTT_OK/GD32VW55X_Wifi_BLE_SDK/GD32VW55x_RELEASE_V1.0.2/MSDK/cloud/alicloud/src/protocol/coap/local\CoAPServer.c ****     }
 689              		.loc 1 226 26 is_stmt 0
 690 011c 23200900 		sw	zero,0(s2)
 691              	.L33:
 229:C:/Users/stapi/OneDrive/Desktop/GD32VW553/V1_MQTT_OK/GD32VW55X_Wifi_BLE_SDK/GD32VW55x_RELEASE_V1.0.2/MSDK/cloud/alicloud/src/protocol/coap/local\CoAPServer.c ****         CoAPContext_free(context);
 692              		.loc 1 229 5 is_stmt 1
 229:C:/Users/stapi/OneDrive/Desktop/GD32VW553/V1_MQTT_OK/GD32VW55X_Wifi_BLE_SDK/GD32VW55x_RELEASE_V1.0.2/MSDK/cloud/alicloud/src/protocol/coap/local\CoAPServer.c ****         CoAPContext_free(context);
 693              		.loc 1 229 8 is_stmt 0
 694 0120 81C8     		beq	s1,zero,.L34
 230:C:/Users/stapi/OneDrive/Desktop/GD32VW553/V1_MQTT_OK/GD32VW55X_Wifi_BLE_SDK/GD32VW55x_RELEASE_V1.0.2/MSDK/cloud/alicloud/src/protocol/coap/local\CoAPServer.c ****         g_context = NULL;
 695              		.loc 1 230 9 is_stmt 1
 696 0122 2685     		mv	a0,s1
 697 0124 97000000 		call	CoAPContext_free
 697      E7800000 
 698              	.LVL64:
 231:C:/Users/stapi/OneDrive/Desktop/GD32VW553/V1_MQTT_OK/GD32VW55X_Wifi_BLE_SDK/GD32VW55x_RELEASE_V1.0.2/MSDK/cloud/alicloud/src/protocol/coap/local\CoAPServer.c ****     }
 699              		.loc 1 231 9
 231:C:/Users/stapi/OneDrive/Desktop/GD32VW553/V1_MQTT_OK/GD32VW55X_Wifi_BLE_SDK/GD32VW55x_RELEASE_V1.0.2/MSDK/cloud/alicloud/src/protocol/coap/local\CoAPServer.c ****     }
 700              		.loc 1 231 19 is_stmt 0
 701 012c 23A00900 		sw	zero,0(s3)
 702              	.L34:
 234:C:/Users/stapi/OneDrive/Desktop/GD32VW553/V1_MQTT_OK/GD32VW55X_Wifi_BLE_SDK/GD32VW55x_RELEASE_V1.0.2/MSDK/cloud/alicloud/src/protocol/coap/local\CoAPServer.c **** 
 703              		.loc 1 234 5 is_stmt 1
 704 0130 0840     		lw	a0,0(s0)
 705 0132 97000000 		call	HAL_MutexUnlock
 705      E7800000 
 706              	.LVL65:
 236:C:/Users/stapi/OneDrive/Desktop/GD32VW553/V1_MQTT_OK/GD32VW55X_Wifi_BLE_SDK/GD32VW55x_RELEASE_V1.0.2/MSDK/cloud/alicloud/src/protocol/coap/local\CoAPServer.c **** 
 707              		.loc 1 236 5
 708 013a 0840     		lw	a0,0(s0)
 709 013c 97000000 		call	HAL_MutexDestroy
 709      E7800000 
 710              	.LVL66:
 238:C:/Users/stapi/OneDrive/Desktop/GD32VW553/V1_MQTT_OK/GD32VW55X_Wifi_BLE_SDK/GD32VW55x_RELEASE_V1.0.2/MSDK/cloud/alicloud/src/protocol/coap/local\CoAPServer.c **** }
 711              		.loc 1 238 5
 238:C:/Users/stapi/OneDrive/Desktop/GD32VW553/V1_MQTT_OK/GD32VW55X_Wifi_BLE_SDK/GD32VW55x_RELEASE_V1.0.2/MSDK/cloud/alicloud/src/protocol/coap/local\CoAPServer.c **** }
 712              		.loc 1 238 21 is_stmt 0
 713 0144 23200400 		sw	zero,0(s0)
 714 0148 F5BD     		j	.L28
 715              		.cfi_endproc
 716              	.LFE26:
 718              		.section	.text.CoAPServer_register,"ax",@progbits
 719              		.align	1
 720              		.globl	CoAPServer_register
 722              	CoAPServer_register:
 723              	.LFB27:
 240:C:/Users/stapi/OneDrive/Desktop/GD32VW553/V1_MQTT_OK/GD32VW55X_Wifi_BLE_SDK/GD32VW55x_RELEASE_V1.0.2/MSDK/cloud/alicloud/src/protocol/coap/local\CoAPServer.c **** 
 241:C:/Users/stapi/OneDrive/Desktop/GD32VW553/V1_MQTT_OK/GD32VW55X_Wifi_BLE_SDK/GD32VW55x_RELEASE_V1.0.2/MSDK/cloud/alicloud/src/protocol/coap/local\CoAPServer.c **** int CoAPServer_register(CoAPContext *context, const char *uri, CoAPRecvMsgHandler callback)
 242:C:/Users/stapi/OneDrive/Desktop/GD32VW553/V1_MQTT_OK/GD32VW55X_Wifi_BLE_SDK/GD32VW55x_RELEASE_V1.0.2/MSDK/cloud/alicloud/src/protocol/coap/local\CoAPServer.c **** {
 724              		.loc 1 242 1 is_stmt 1
 725              		.cfi_startproc
 726              	.LVL67:
 243:C:/Users/stapi/OneDrive/Desktop/GD32VW553/V1_MQTT_OK/GD32VW55X_Wifi_BLE_SDK/GD32VW55x_RELEASE_V1.0.2/MSDK/cloud/alicloud/src/protocol/coap/local\CoAPServer.c ****     if (NULL == context || g_context != context) {
 727              		.loc 1 243 5
 728              		.loc 1 243 8 is_stmt 0
 729 0000 1DC1     		beq	a0,zero,.L48
 730              		.loc 1 243 25 discriminator 1
 731 0002 37070000 		lui	a4,%hi(.LANCHOR5)
 732 0006 B287     		mv	a5,a2
 733 0008 03260700 		lw	a2,%lo(.LANCHOR5)(a4)
 734              	.LVL68:
 244:C:/Users/stapi/OneDrive/Desktop/GD32VW553/V1_MQTT_OK/GD32VW55X_Wifi_BLE_SDK/GD32VW55x_RELEASE_V1.0.2/MSDK/cloud/alicloud/src/protocol/coap/local\CoAPServer.c ****         return COAP_ERROR_INVALID_PARAM;
 735              		.loc 1 244 16 discriminator 1
 736 000c 13071010 		li	a4,257
 243:C:/Users/stapi/OneDrive/Desktop/GD32VW553/V1_MQTT_OK/GD32VW55X_Wifi_BLE_SDK/GD32VW55x_RELEASE_V1.0.2/MSDK/cloud/alicloud/src/protocol/coap/local\CoAPServer.c ****     if (NULL == context || g_context != context) {
 737              		.loc 1 243 25 discriminator 1
 738 0010 631DA600 		bne	a2,a0,.L51
 245:C:/Users/stapi/OneDrive/Desktop/GD32VW553/V1_MQTT_OK/GD32VW55X_Wifi_BLE_SDK/GD32VW55x_RELEASE_V1.0.2/MSDK/cloud/alicloud/src/protocol/coap/local\CoAPServer.c ****     }
 246:C:/Users/stapi/OneDrive/Desktop/GD32VW553/V1_MQTT_OK/GD32VW55X_Wifi_BLE_SDK/GD32VW55x_RELEASE_V1.0.2/MSDK/cloud/alicloud/src/protocol/coap/local\CoAPServer.c **** 
 247:C:/Users/stapi/OneDrive/Desktop/GD32VW553/V1_MQTT_OK/GD32VW55X_Wifi_BLE_SDK/GD32VW55x_RELEASE_V1.0.2/MSDK/cloud/alicloud/src/protocol/coap/local\CoAPServer.c ****     return CoAPResource_register(context, uri, COAP_PERM_GET, COAP_CT_APP_JSON, 60, callback);
 739              		.loc 1 247 5 is_stmt 1
 740              		.loc 1 247 12 is_stmt 0
 741 0014 1307C003 		li	a4,60
 742 0018 93062003 		li	a3,50
 743 001c 0546     		li	a2,1
 744 001e 17030000 		tail	CoAPResource_register
 744      67000300 
 745              	.LVL69:
 746              	.L48:
 244:C:/Users/stapi/OneDrive/Desktop/GD32VW553/V1_MQTT_OK/GD32VW55X_Wifi_BLE_SDK/GD32VW55x_RELEASE_V1.0.2/MSDK/cloud/alicloud/src/protocol/coap/local\CoAPServer.c ****         return COAP_ERROR_INVALID_PARAM;
 747              		.loc 1 244 16
 748 0026 13071010 		li	a4,257
 749              	.LVL70:
 750              	.L51:
 248:C:/Users/stapi/OneDrive/Desktop/GD32VW553/V1_MQTT_OK/GD32VW55X_Wifi_BLE_SDK/GD32VW55x_RELEASE_V1.0.2/MSDK/cloud/alicloud/src/protocol/coap/local\CoAPServer.c **** }
 751              		.loc 1 248 1
 752 002a 3A85     		mv	a0,a4
 753              	.LVL71:
 754 002c 8280     		ret
 755              		.cfi_endproc
 756              	.LFE27:
 758              		.section	.rodata.CoAPServerMultiCast_send.str1.4,"aMS",@progbits,1
 759              		.align	2
 760              	.LC17:
 761 0000 2F646576 		.string	"/dev/core/service/dev/tick_notify"
 761      2F636F72 
 761      652F7365 
 761      72766963 
 761      652F6465 
 762 0022 0000     		.align	2
 763              	.LC18:
 764 0024 54686520 		.string	"The uri length is too long,len = %d"
 764      75726920 
 764      6C656E67 
 764      74682069 
 764      7320746F 
 765              		.align	2
 766              	.LC19:
 767 0048 54686520 		.string	"The uri is %s"
 767      75726920 
 767      69732025 
 767      7300
 768              		.section	.text.CoAPServerMultiCast_send,"ax",@progbits
 769              		.align	1
 770              		.globl	CoAPServerMultiCast_send
 772              	CoAPServerMultiCast_send:
 773              	.LFB28:
 249:C:/Users/stapi/OneDrive/Desktop/GD32VW553/V1_MQTT_OK/GD32VW55X_Wifi_BLE_SDK/GD32VW55x_RELEASE_V1.0.2/MSDK/cloud/alicloud/src/protocol/coap/local\CoAPServer.c **** 
 250:C:/Users/stapi/OneDrive/Desktop/GD32VW553/V1_MQTT_OK/GD32VW55X_Wifi_BLE_SDK/GD32VW55x_RELEASE_V1.0.2/MSDK/cloud/alicloud/src/protocol/coap/local\CoAPServer.c **** int CoAPServerMultiCast_send(CoAPContext *context, NetworkAddr *remote, const char *uri, unsigned c
 251:C:/Users/stapi/OneDrive/Desktop/GD32VW553/V1_MQTT_OK/GD32VW55X_Wifi_BLE_SDK/GD32VW55x_RELEASE_V1.0.2/MSDK/cloud/alicloud/src/protocol/coap/local\CoAPServer.c ****                              unsigned short len, CoAPSendMsgHandler callback, unsigned short *msgid
 252:C:/Users/stapi/OneDrive/Desktop/GD32VW553/V1_MQTT_OK/GD32VW55X_Wifi_BLE_SDK/GD32VW55x_RELEASE_V1.0.2/MSDK/cloud/alicloud/src/protocol/coap/local\CoAPServer.c **** {
 774              		.loc 1 252 1 is_stmt 1
 775              		.cfi_startproc
 776              	.LVL72:
 777 0000 17030000 		call	t0,__riscv_save_9
 777      E7020300 
 778              		.cfi_offset 24, -40
 779              		.cfi_offset 23, -36
 780              		.cfi_offset 22, -32
 781              		.cfi_offset 21, -28
 782              		.cfi_offset 20, -24
 783              		.cfi_offset 19, -20
 784              		.cfi_offset 18, -16
 785              		.cfi_offset 9, -12
 786              		.cfi_offset 8, -8
 787              		.cfi_offset 1, -4
 788              		.cfi_def_cfa_offset 48
 253:C:/Users/stapi/OneDrive/Desktop/GD32VW553/V1_MQTT_OK/GD32VW55X_Wifi_BLE_SDK/GD32VW55x_RELEASE_V1.0.2/MSDK/cloud/alicloud/src/protocol/coap/local\CoAPServer.c ****     int ret = COAP_SUCCESS;
 789              		.loc 1 253 5
 790              	.LVL73:
 254:C:/Users/stapi/OneDrive/Desktop/GD32VW553/V1_MQTT_OK/GD32VW55X_Wifi_BLE_SDK/GD32VW55x_RELEASE_V1.0.2/MSDK/cloud/alicloud/src/protocol/coap/local\CoAPServer.c ****     CoAPMessage message;
 791              		.loc 1 254 5
 255:C:/Users/stapi/OneDrive/Desktop/GD32VW553/V1_MQTT_OK/GD32VW55X_Wifi_BLE_SDK/GD32VW55x_RELEASE_V1.0.2/MSDK/cloud/alicloud/src/protocol/coap/local\CoAPServer.c ****     unsigned char tokenlen;
 792              		.loc 1 255 5
 256:C:/Users/stapi/OneDrive/Desktop/GD32VW553/V1_MQTT_OK/GD32VW55X_Wifi_BLE_SDK/GD32VW55x_RELEASE_V1.0.2/MSDK/cloud/alicloud/src/protocol/coap/local\CoAPServer.c ****     unsigned char token[COAP_MSG_MAX_TOKEN_LEN] = {0};
 793              		.loc 1 256 5
 252:C:/Users/stapi/OneDrive/Desktop/GD32VW553/V1_MQTT_OK/GD32VW55X_Wifi_BLE_SDK/GD32VW55x_RELEASE_V1.0.2/MSDK/cloud/alicloud/src/protocol/coap/local\CoAPServer.c ****     int ret = COAP_SUCCESS;
 794              		.loc 1 252 1 is_stmt 0
 795 0008 6D71     		addi	sp,sp,-272
 796              		.cfi_def_cfa_offset 320
 797              		.loc 1 256 19
 798 000a 02C0     		sw	zero,0(sp)
 799 000c 02C2     		sw	zero,4(sp)
 257:C:/Users/stapi/OneDrive/Desktop/GD32VW553/V1_MQTT_OK/GD32VW55X_Wifi_BLE_SDK/GD32VW55x_RELEASE_V1.0.2/MSDK/cloud/alicloud/src/protocol/coap/local\CoAPServer.c **** 
 258:C:/Users/stapi/OneDrive/Desktop/GD32VW553/V1_MQTT_OK/GD32VW55X_Wifi_BLE_SDK/GD32VW55x_RELEASE_V1.0.2/MSDK/cloud/alicloud/src/protocol/coap/local\CoAPServer.c ****     if (NULL == context || g_context != context || NULL == remote
 800              		.loc 1 258 5 is_stmt 1
 259:C:/Users/stapi/OneDrive/Desktop/GD32VW553/V1_MQTT_OK/GD32VW55X_Wifi_BLE_SDK/GD32VW55x_RELEASE_V1.0.2/MSDK/cloud/alicloud/src/protocol/coap/local\CoAPServer.c ****         || NULL == uri || NULL == buff) {
 260:C:/Users/stapi/OneDrive/Desktop/GD32VW553/V1_MQTT_OK/GD32VW55X_Wifi_BLE_SDK/GD32VW55x_RELEASE_V1.0.2/MSDK/cloud/alicloud/src/protocol/coap/local\CoAPServer.c ****         return COAP_ERROR_INVALID_PARAM;
 801              		.loc 1 260 16 is_stmt 0
 802 000e 13091010 		li	s2,257
 258:C:/Users/stapi/OneDrive/Desktop/GD32VW553/V1_MQTT_OK/GD32VW55X_Wifi_BLE_SDK/GD32VW55x_RELEASE_V1.0.2/MSDK/cloud/alicloud/src/protocol/coap/local\CoAPServer.c ****         || NULL == uri || NULL == buff) {
 803              		.loc 1 258 8
 804 0012 630A0514 		beq	a0,zero,.L54
 805 0016 BE8B     		mv	s7,a5
 258:C:/Users/stapi/OneDrive/Desktop/GD32VW553/V1_MQTT_OK/GD32VW55X_Wifi_BLE_SDK/GD32VW55x_RELEASE_V1.0.2/MSDK/cloud/alicloud/src/protocol/coap/local\CoAPServer.c ****         || NULL == uri || NULL == buff) {
 806              		.loc 1 258 25 discriminator 1
 807 0018 B7070000 		lui	a5,%hi(.LANCHOR5)
 808              	.LVL74:
 809 001c 83A70700 		lw	a5,%lo(.LANCHOR5)(a5)
 810 0020 AA84     		mv	s1,a0
 811              		.loc 1 260 16 discriminator 1
 812 0022 13091010 		li	s2,257
 258:C:/Users/stapi/OneDrive/Desktop/GD32VW553/V1_MQTT_OK/GD32VW55X_Wifi_BLE_SDK/GD32VW55x_RELEASE_V1.0.2/MSDK/cloud/alicloud/src/protocol/coap/local\CoAPServer.c ****         || NULL == uri || NULL == buff) {
 813              		.loc 1 258 25 discriminator 1
 814 0026 6390A714 		bne	a5,a0,.L54
 815 002a AE89     		mv	s3,a1
 258:C:/Users/stapi/OneDrive/Desktop/GD32VW553/V1_MQTT_OK/GD32VW55X_Wifi_BLE_SDK/GD32VW55x_RELEASE_V1.0.2/MSDK/cloud/alicloud/src/protocol/coap/local\CoAPServer.c ****         || NULL == uri || NULL == buff) {
 816              		.loc 1 258 49 discriminator 2
 817 002c 638D0512 		beq	a1,zero,.L54
 818 0030 3284     		mv	s0,a2
 259:C:/Users/stapi/OneDrive/Desktop/GD32VW553/V1_MQTT_OK/GD32VW55X_Wifi_BLE_SDK/GD32VW55x_RELEASE_V1.0.2/MSDK/cloud/alicloud/src/protocol/coap/local\CoAPServer.c ****         || NULL == uri || NULL == buff) {
 819              		.loc 1 259 9
 820 0032 630A0612 		beq	a2,zero,.L54
 821 0036 B68A     		mv	s5,a3
 259:C:/Users/stapi/OneDrive/Desktop/GD32VW553/V1_MQTT_OK/GD32VW55X_Wifi_BLE_SDK/GD32VW55x_RELEASE_V1.0.2/MSDK/cloud/alicloud/src/protocol/coap/local\CoAPServer.c ****         || NULL == uri || NULL == buff) {
 822              		.loc 1 259 24 discriminator 1
 823 0038 63870612 		beq	a3,zero,.L54
 261:C:/Users/stapi/OneDrive/Desktop/GD32VW553/V1_MQTT_OK/GD32VW55X_Wifi_BLE_SDK/GD32VW55x_RELEASE_V1.0.2/MSDK/cloud/alicloud/src/protocol/coap/local\CoAPServer.c ****     }
 262:C:/Users/stapi/OneDrive/Desktop/GD32VW553/V1_MQTT_OK/GD32VW55X_Wifi_BLE_SDK/GD32VW55x_RELEASE_V1.0.2/MSDK/cloud/alicloud/src/protocol/coap/local\CoAPServer.c **** 
 263:C:/Users/stapi/OneDrive/Desktop/GD32VW553/V1_MQTT_OK/GD32VW55X_Wifi_BLE_SDK/GD32VW55x_RELEASE_V1.0.2/MSDK/cloud/alicloud/src/protocol/coap/local\CoAPServer.c **** 
 264:C:/Users/stapi/OneDrive/Desktop/GD32VW553/V1_MQTT_OK/GD32VW55X_Wifi_BLE_SDK/GD32VW55x_RELEASE_V1.0.2/MSDK/cloud/alicloud/src/protocol/coap/local\CoAPServer.c ****     CoAPMessage_init(&message);
 824              		.loc 1 264 5
 825 003c 2801     		addi	a0,sp,136
 826              	.LVL75:
 827 003e 3A8B     		mv	s6,a4
 828 0040 428A     		mv	s4,a6
 829              		.loc 1 264 5 is_stmt 1
 830 0042 97000000 		call	CoAPMessage_init
 830      E7800000 
 831              	.LVL76:
 265:C:/Users/stapi/OneDrive/Desktop/GD32VW553/V1_MQTT_OK/GD32VW55X_Wifi_BLE_SDK/GD32VW55x_RELEASE_V1.0.2/MSDK/cloud/alicloud/src/protocol/coap/local\CoAPServer.c ****     CoAPMessageType_set(&message, COAP_MESSAGE_TYPE_NON);
 832              		.loc 1 265 5
 833 004a 8545     		li	a1,1
 834 004c 2801     		addi	a0,sp,136
 835 004e 97000000 		call	CoAPMessageType_set
 835      E7800000 
 836              	.LVL77:
 266:C:/Users/stapi/OneDrive/Desktop/GD32VW553/V1_MQTT_OK/GD32VW55X_Wifi_BLE_SDK/GD32VW55x_RELEASE_V1.0.2/MSDK/cloud/alicloud/src/protocol/coap/local\CoAPServer.c ****     CoAPMessageCode_set(&message, COAP_MSG_CODE_POST);
 837              		.loc 1 266 5
 838 0056 8945     		li	a1,2
 839 0058 2801     		addi	a0,sp,136
 840 005a 97000000 		call	CoAPMessageCode_set
 840      E7800000 
 841              	.LVL78:
 267:C:/Users/stapi/OneDrive/Desktop/GD32VW553/V1_MQTT_OK/GD32VW55X_Wifi_BLE_SDK/GD32VW55x_RELEASE_V1.0.2/MSDK/cloud/alicloud/src/protocol/coap/local\CoAPServer.c ****     CoAPMessageId_set(&message, CoAPMessageId_gen(context));
 842              		.loc 1 267 5
 843 0062 2685     		mv	a0,s1
 844 0064 97000000 		call	CoAPMessageId_gen
 844      E7800000 
 845              	.LVL79:
 846 006c AA85     		mv	a1,a0
 847 006e 2801     		addi	a0,sp,136
 848 0070 97000000 		call	CoAPMessageId_set
 848      E7800000 
 849              	.LVL80:
 268:C:/Users/stapi/OneDrive/Desktop/GD32VW553/V1_MQTT_OK/GD32VW55X_Wifi_BLE_SDK/GD32VW55x_RELEASE_V1.0.2/MSDK/cloud/alicloud/src/protocol/coap/local\CoAPServer.c ****     tokenlen = CoAPServerToken_get(token);
 850              		.loc 1 268 5
 851              	.LBB8:
 852              	.LBB9:
  22:C:/Users/stapi/OneDrive/Desktop/GD32VW553/V1_MQTT_OK/GD32VW55X_Wifi_BLE_SDK/GD32VW55x_RELEASE_V1.0.2/MSDK/cloud/alicloud/src/protocol/coap/local\CoAPServer.c ****     p_encoded_data[0] = (unsigned char)((value & 0x00FF) >> 0);
 853              		.loc 1 22 5
  23:C:/Users/stapi/OneDrive/Desktop/GD32VW553/V1_MQTT_OK/GD32VW55X_Wifi_BLE_SDK/GD32VW55x_RELEASE_V1.0.2/MSDK/cloud/alicloud/src/protocol/coap/local\CoAPServer.c ****     p_encoded_data[1] = (unsigned char)((value & 0xFF00) >> 8);
 854              		.loc 1 23 5
  23:C:/Users/stapi/OneDrive/Desktop/GD32VW553/V1_MQTT_OK/GD32VW55X_Wifi_BLE_SDK/GD32VW55x_RELEASE_V1.0.2/MSDK/cloud/alicloud/src/protocol/coap/local\CoAPServer.c ****     p_encoded_data[1] = (unsigned char)((value & 0xFF00) >> 8);
 855              		.loc 1 23 25 is_stmt 0
 856 0078 B7060000 		lui	a3,%hi(.LANCHOR7)
 857 007c 93860600 		addi	a3,a3,%lo(.LANCHOR7)
 858 0080 8842     		lw	a0,0(a3)
  24:C:/Users/stapi/OneDrive/Desktop/GD32VW553/V1_MQTT_OK/GD32VW55X_Wifi_BLE_SDK/GD32VW55x_RELEASE_V1.0.2/MSDK/cloud/alicloud/src/protocol/coap/local\CoAPServer.c ****     p_encoded_data[2] = (unsigned char)((value & 0xFF0000) >> 16);
 859              		.loc 1 24 5 is_stmt 1
  25:C:/Users/stapi/OneDrive/Desktop/GD32VW553/V1_MQTT_OK/GD32VW55X_Wifi_BLE_SDK/GD32VW55x_RELEASE_V1.0.2/MSDK/cloud/alicloud/src/protocol/coap/local\CoAPServer.c ****     p_encoded_data[3] = (unsigned char)((value & 0xFF000000) >> 24);
 860              		.loc 1 25 5
  26:C:/Users/stapi/OneDrive/Desktop/GD32VW553/V1_MQTT_OK/GD32VW55X_Wifi_BLE_SDK/GD32VW55x_RELEASE_V1.0.2/MSDK/cloud/alicloud/src/protocol/coap/local\CoAPServer.c ****     value++;
 861              		.loc 1 26 5
 862              	.LBE9:
 863              	.LBE8:
 269:C:/Users/stapi/OneDrive/Desktop/GD32VW553/V1_MQTT_OK/GD32VW55X_Wifi_BLE_SDK/GD32VW55x_RELEASE_V1.0.2/MSDK/cloud/alicloud/src/protocol/coap/local\CoAPServer.c ****     CoAPMessageToken_set(&message, token, tokenlen);
 864              		.loc 1 269 5 is_stmt 0
 865 0082 1146     		li	a2,4
 866 0084 8A85     		mv	a1,sp
 867              	.LBB11:
 868              	.LBB10:
  23:C:/Users/stapi/OneDrive/Desktop/GD32VW553/V1_MQTT_OK/GD32VW55X_Wifi_BLE_SDK/GD32VW55x_RELEASE_V1.0.2/MSDK/cloud/alicloud/src/protocol/coap/local\CoAPServer.c ****     p_encoded_data[1] = (unsigned char)((value & 0xFF00) >> 8);
 869              		.loc 1 23 23
 870 0086 2AC0     		sw	a0,0(sp)
  27:C:/Users/stapi/OneDrive/Desktop/GD32VW553/V1_MQTT_OK/GD32VW55X_Wifi_BLE_SDK/GD32VW55x_RELEASE_V1.0.2/MSDK/cloud/alicloud/src/protocol/coap/local\CoAPServer.c ****     return sizeof(unsigned int);
 871              		.loc 1 27 5 is_stmt 1
  27:C:/Users/stapi/OneDrive/Desktop/GD32VW553/V1_MQTT_OK/GD32VW55X_Wifi_BLE_SDK/GD32VW55x_RELEASE_V1.0.2/MSDK/cloud/alicloud/src/protocol/coap/local\CoAPServer.c ****     return sizeof(unsigned int);
 872              		.loc 1 27 10 is_stmt 0
 873 0088 0505     		addi	a0,a0,1
 874 008a 88C2     		sw	a0,0(a3)
  28:C:/Users/stapi/OneDrive/Desktop/GD32VW553/V1_MQTT_OK/GD32VW55X_Wifi_BLE_SDK/GD32VW55x_RELEASE_V1.0.2/MSDK/cloud/alicloud/src/protocol/coap/local\CoAPServer.c **** }
 875              		.loc 1 28 5 is_stmt 1
 876              	.LVL81:
 877              	.LBE10:
 878              	.LBE11:
 879              		.loc 1 269 5
 880 008c 2801     		addi	a0,sp,136
 881 008e 97000000 		call	CoAPMessageToken_set
 881      E7800000 
 882              	.LVL82:
 270:C:/Users/stapi/OneDrive/Desktop/GD32VW553/V1_MQTT_OK/GD32VW55X_Wifi_BLE_SDK/GD32VW55x_RELEASE_V1.0.2/MSDK/cloud/alicloud/src/protocol/coap/local\CoAPServer.c ****     CoAPMessageHandler_set(&message, callback);
 883              		.loc 1 270 5
 884 0096 DE85     		mv	a1,s7
 885 0098 2801     		addi	a0,sp,136
 886 009a 97000000 		call	CoAPMessageHandler_set
 886      E7800000 
 887              	.LVL83:
 271:C:/Users/stapi/OneDrive/Desktop/GD32VW553/V1_MQTT_OK/GD32VW55X_Wifi_BLE_SDK/GD32VW55x_RELEASE_V1.0.2/MSDK/cloud/alicloud/src/protocol/coap/local\CoAPServer.c ****     if(strcmp(uri, "/dev/core/service/dev/tick_notify") != 0)
 888              		.loc 1 271 5
 889              		.loc 1 271 8 is_stmt 0
 890 00a2 B7050000 		lui	a1,%hi(.LC17)
 891 00a6 93850500 		addi	a1,a1,%lo(.LC17)
 892 00aa 2285     		mv	a0,s0
 893 00ac 97000000 		call	strcmp
 893      E7800000 
 894              	.LVL84:
 895              		.loc 1 271 7
 896 00b4 19C5     		beq	a0,zero,.L56
 272:C:/Users/stapi/OneDrive/Desktop/GD32VW553/V1_MQTT_OK/GD32VW55X_Wifi_BLE_SDK/GD32VW55x_RELEASE_V1.0.2/MSDK/cloud/alicloud/src/protocol/coap/local\CoAPServer.c ****         CoAPMessageKeep_Set(&message, 1);
 897              		.loc 1 272 9 is_stmt 1
 898 00b6 8545     		li	a1,1
 899 00b8 2801     		addi	a0,sp,136
 900 00ba 97000000 		call	CoAPMessageKeep_Set
 900      E7800000 
 901              	.LVL85:
 902              	.L56:
 273:C:/Users/stapi/OneDrive/Desktop/GD32VW553/V1_MQTT_OK/GD32VW55X_Wifi_BLE_SDK/GD32VW55x_RELEASE_V1.0.2/MSDK/cloud/alicloud/src/protocol/coap/local\CoAPServer.c **** 
 274:C:/Users/stapi/OneDrive/Desktop/GD32VW553/V1_MQTT_OK/GD32VW55X_Wifi_BLE_SDK/GD32VW55x_RELEASE_V1.0.2/MSDK/cloud/alicloud/src/protocol/coap/local\CoAPServer.c ****     CoAPServerPath_2_option((char *)uri, &message);
 903              		.loc 1 274 5
 904              	.LBB12:
 905              	.LBB13:
  33:C:/Users/stapi/OneDrive/Desktop/GD32VW553/V1_MQTT_OK/GD32VW55X_Wifi_BLE_SDK/GD32VW55x_RELEASE_V1.0.2/MSDK/cloud/alicloud/src/protocol/coap/local\CoAPServer.c ****     char *pstr    = NULL;
 906              		.loc 1 33 5
  34:C:/Users/stapi/OneDrive/Desktop/GD32VW553/V1_MQTT_OK/GD32VW55X_Wifi_BLE_SDK/GD32VW55x_RELEASE_V1.0.2/MSDK/cloud/alicloud/src/protocol/coap/local\CoAPServer.c ****     char  path[COAP_MSG_MAX_PATH_LEN]  = {0};
 907              		.loc 1 34 5
  35:C:/Users/stapi/OneDrive/Desktop/GD32VW553/V1_MQTT_OK/GD32VW55X_Wifi_BLE_SDK/GD32VW55x_RELEASE_V1.0.2/MSDK/cloud/alicloud/src/protocol/coap/local\CoAPServer.c **** 
 908              		.loc 1 35 5
  35:C:/Users/stapi/OneDrive/Desktop/GD32VW553/V1_MQTT_OK/GD32VW55X_Wifi_BLE_SDK/GD32VW55x_RELEASE_V1.0.2/MSDK/cloud/alicloud/src/protocol/coap/local\CoAPServer.c **** 
 909              		.loc 1 35 11 is_stmt 0
 910 00c2 1306C007 		li	a2,124
 911 00c6 8145     		li	a1,0
 912 00c8 6800     		addi	a0,sp,12
 913 00ca 02C4     		sw	zero,8(sp)
 914 00cc 97000000 		call	memset
 914      E7800000 
 915              	.LVL86:
  37:C:/Users/stapi/OneDrive/Desktop/GD32VW553/V1_MQTT_OK/GD32VW55X_Wifi_BLE_SDK/GD32VW55x_RELEASE_V1.0.2/MSDK/cloud/alicloud/src/protocol/coap/local\CoAPServer.c ****         COAP_ERR("Invalid paramter p_path %p, p_message %p", uri, message);
 916              		.loc 1 37 5 is_stmt 1
  41:C:/Users/stapi/OneDrive/Desktop/GD32VW553/V1_MQTT_OK/GD32VW55X_Wifi_BLE_SDK/GD32VW55x_RELEASE_V1.0.2/MSDK/cloud/alicloud/src/protocol/coap/local\CoAPServer.c ****         COAP_ERR("The uri length is too long,len = %d", (int)strlen(uri));
 917              		.loc 1 41 5
  41:C:/Users/stapi/OneDrive/Desktop/GD32VW553/V1_MQTT_OK/GD32VW55X_Wifi_BLE_SDK/GD32VW55x_RELEASE_V1.0.2/MSDK/cloud/alicloud/src/protocol/coap/local\CoAPServer.c ****         COAP_ERR("The uri length is too long,len = %d", (int)strlen(uri));
 918              		.loc 1 41 34 is_stmt 0
 919 00d4 2285     		mv	a0,s0
 920 00d6 97000000 		call	strlen
 920      E7800000 
 921              	.LVL87:
  41:C:/Users/stapi/OneDrive/Desktop/GD32VW553/V1_MQTT_OK/GD32VW55X_Wifi_BLE_SDK/GD32VW55x_RELEASE_V1.0.2/MSDK/cloud/alicloud/src/protocol/coap/local\CoAPServer.c ****         COAP_ERR("The uri length is too long,len = %d", (int)strlen(uri));
 922              		.loc 1 41 8
 923 00de 9307F007 		li	a5,127
 924 00e2 63F8A708 		bleu	a0,a5,.L57
  42:C:/Users/stapi/OneDrive/Desktop/GD32VW553/V1_MQTT_OK/GD32VW55X_Wifi_BLE_SDK/GD32VW55x_RELEASE_V1.0.2/MSDK/cloud/alicloud/src/protocol/coap/local\CoAPServer.c ****         return COAP_ERROR_INVALID_LENGTH;
 925              		.loc 1 42 9 is_stmt 1
  42:C:/Users/stapi/OneDrive/Desktop/GD32VW553/V1_MQTT_OK/GD32VW55X_Wifi_BLE_SDK/GD32VW55x_RELEASE_V1.0.2/MSDK/cloud/alicloud/src/protocol/coap/local\CoAPServer.c ****         return COAP_ERROR_INVALID_LENGTH;
 926              		.loc 1 42 9
 927 00e6 37050000 		lui	a0,%hi(.LC6)
 928 00ea 13050500 		addi	a0,a0,%lo(.LC6)
 929 00ee 97000000 		call	HAL_Printf
 929      E7800000 
 930              	.LVL88:
  42:C:/Users/stapi/OneDrive/Desktop/GD32VW553/V1_MQTT_OK/GD32VW55X_Wifi_BLE_SDK/GD32VW55x_RELEASE_V1.0.2/MSDK/cloud/alicloud/src/protocol/coap/local\CoAPServer.c ****         return COAP_ERROR_INVALID_LENGTH;
 931              		.loc 1 42 9
 932 00f6 2285     		mv	a0,s0
 933 00f8 97000000 		call	strlen
 933      E7800000 
 934              	.LVL89:
 935 0100 AA85     		mv	a1,a0
 936 0102 37050000 		lui	a0,%hi(.LC18)
 937 0106 13050500 		addi	a0,a0,%lo(.LC18)
 938 010a 97000000 		call	HAL_Printf
 938      E7800000 
 939              	.LVL90:
  42:C:/Users/stapi/OneDrive/Desktop/GD32VW553/V1_MQTT_OK/GD32VW55X_Wifi_BLE_SDK/GD32VW55x_RELEASE_V1.0.2/MSDK/cloud/alicloud/src/protocol/coap/local\CoAPServer.c ****         return COAP_ERROR_INVALID_LENGTH;
 940              		.loc 1 42 9
 941 0112 37050000 		lui	a0,%hi(.LC4)
 942 0116 13050500 		addi	a0,a0,%lo(.LC4)
 943 011a 97000000 		call	HAL_Printf
 943      E7800000 
 944              	.LVL91:
  42:C:/Users/stapi/OneDrive/Desktop/GD32VW553/V1_MQTT_OK/GD32VW55X_Wifi_BLE_SDK/GD32VW55x_RELEASE_V1.0.2/MSDK/cloud/alicloud/src/protocol/coap/local\CoAPServer.c ****         return COAP_ERROR_INVALID_LENGTH;
 945              		.loc 1 42 9
  43:C:/Users/stapi/OneDrive/Desktop/GD32VW553/V1_MQTT_OK/GD32VW55X_Wifi_BLE_SDK/GD32VW55x_RELEASE_V1.0.2/MSDK/cloud/alicloud/src/protocol/coap/local\CoAPServer.c ****     }
 946              		.loc 1 43 9
 947              	.L58:
 948              	.LBE13:
 949              	.LBE12:
 275:C:/Users/stapi/OneDrive/Desktop/GD32VW553/V1_MQTT_OK/GD32VW55X_Wifi_BLE_SDK/GD32VW55x_RELEASE_V1.0.2/MSDK/cloud/alicloud/src/protocol/coap/local\CoAPServer.c ****     CoAPUintOption_add(&message, COAP_OPTION_CONTENT_FORMAT, COAP_CT_APP_JSON);
 950              		.loc 1 275 5
 951 0122 13062003 		li	a2,50
 952 0126 B145     		li	a1,12
 953 0128 2801     		addi	a0,sp,136
 954 012a 97000000 		call	CoAPUintOption_add
 954      E7800000 
 955              	.LVL92:
 276:C:/Users/stapi/OneDrive/Desktop/GD32VW553/V1_MQTT_OK/GD32VW55X_Wifi_BLE_SDK/GD32VW55x_RELEASE_V1.0.2/MSDK/cloud/alicloud/src/protocol/coap/local\CoAPServer.c ****     CoAPMessagePayload_set(&message, buff, len);
 956              		.loc 1 276 5
 957 0132 5A86     		mv	a2,s6
 958 0134 D685     		mv	a1,s5
 959 0136 2801     		addi	a0,sp,136
 960 0138 97000000 		call	CoAPMessagePayload_set
 960      E7800000 
 961              	.LVL93:
 277:C:/Users/stapi/OneDrive/Desktop/GD32VW553/V1_MQTT_OK/GD32VW55X_Wifi_BLE_SDK/GD32VW55x_RELEASE_V1.0.2/MSDK/cloud/alicloud/src/protocol/coap/local\CoAPServer.c ****     if (msgid) *msgid = message.header.msgid;
 962              		.loc 1 277 5
 963              		.loc 1 277 8 is_stmt 0
 964 0140 63060A00 		beq	s4,zero,.L64
 965              		.loc 1 277 16 is_stmt 1 discriminator 1
 966              		.loc 1 277 23 is_stmt 0 discriminator 1
 967 0144 8357A108 		lhu	a5,138(sp)
 968 0148 2310FA00 		sh	a5,0(s4)
 969              	.L64:
 278:C:/Users/stapi/OneDrive/Desktop/GD32VW553/V1_MQTT_OK/GD32VW55X_Wifi_BLE_SDK/GD32VW55x_RELEASE_V1.0.2/MSDK/cloud/alicloud/src/protocol/coap/local\CoAPServer.c ****     ret = CoAPMessage_send(context, remote, &message);
 970              		.loc 1 278 5 is_stmt 1
 971              		.loc 1 278 11 is_stmt 0
 972 014c 3001     		addi	a2,sp,136
 973 014e CE85     		mv	a1,s3
 974 0150 2685     		mv	a0,s1
 975 0152 97000000 		call	CoAPMessage_send
 975      E7800000 
 976              	.LVL94:
 977 015a 2A89     		mv	s2,a0
 978              	.LVL95:
 279:C:/Users/stapi/OneDrive/Desktop/GD32VW553/V1_MQTT_OK/GD32VW55X_Wifi_BLE_SDK/GD32VW55x_RELEASE_V1.0.2/MSDK/cloud/alicloud/src/protocol/coap/local\CoAPServer.c **** 
 280:C:/Users/stapi/OneDrive/Desktop/GD32VW553/V1_MQTT_OK/GD32VW55X_Wifi_BLE_SDK/GD32VW55x_RELEASE_V1.0.2/MSDK/cloud/alicloud/src/protocol/coap/local\CoAPServer.c ****     CoAPMessage_destory(&message);
 979              		.loc 1 280 5 is_stmt 1
 980 015c 2801     		addi	a0,sp,136
 981              	.LVL96:
 982 015e 97000000 		call	CoAPMessage_destory
 982      E7800000 
 983              	.LVL97:
 281:C:/Users/stapi/OneDrive/Desktop/GD32VW553/V1_MQTT_OK/GD32VW55X_Wifi_BLE_SDK/GD32VW55x_RELEASE_V1.0.2/MSDK/cloud/alicloud/src/protocol/coap/local\CoAPServer.c **** 
 282:C:/Users/stapi/OneDrive/Desktop/GD32VW553/V1_MQTT_OK/GD32VW55X_Wifi_BLE_SDK/GD32VW55x_RELEASE_V1.0.2/MSDK/cloud/alicloud/src/protocol/coap/local\CoAPServer.c ****     return ret;
 984              		.loc 1 282 5
 985              	.L54:
 283:C:/Users/stapi/OneDrive/Desktop/GD32VW553/V1_MQTT_OK/GD32VW55X_Wifi_BLE_SDK/GD32VW55x_RELEASE_V1.0.2/MSDK/cloud/alicloud/src/protocol/coap/local\CoAPServer.c **** }
 986              		.loc 1 283 1 is_stmt 0
 987 0166 4A85     		mv	a0,s2
 988 0168 5161     		addi	sp,sp,272
 989              		.cfi_remember_state
 990              		.cfi_def_cfa_offset 0
 991 016a 17030000 		tail	__riscv_restore_9
 991      67000300 
 992              		.cfi_restore 24
 993              		.cfi_restore 23
 994              		.cfi_restore 22
 995              		.cfi_restore 21
 996              		.cfi_restore 20
 997              		.cfi_restore 19
 998              		.cfi_restore 18
 999              		.cfi_restore 9
 1000              		.cfi_restore 8
 1001              		.cfi_restore 1
 1002              		.cfi_def_cfa_offset -48
 1003              	.LVL98:
 1004              	.L57:
 1005              		.cfi_restore_state
 1006              	.LBB15:
 1007              	.LBB14:
  46:C:/Users/stapi/OneDrive/Desktop/GD32VW553/V1_MQTT_OK/GD32VW55X_Wifi_BLE_SDK/GD32VW55x_RELEASE_V1.0.2/MSDK/cloud/alicloud/src/protocol/coap/local\CoAPServer.c **** 
 1008              		.loc 1 46 5 is_stmt 1
 1009 0172 37070000 		lui	a4,%hi(.LC19)
 1010 0176 B7050000 		lui	a1,%hi(.LANCHOR8)
 1011 017a 37050000 		lui	a0,%hi(.LC1)
 1012 017e A287     		mv	a5,s0
 1013 0180 13070700 		addi	a4,a4,%lo(.LC19)
 1014 0184 9546     		li	a3,5
 1015 0186 1306E002 		li	a2,46
 1016 018a 93850500 		addi	a1,a1,%lo(.LANCHOR8)
 1017 018e 13050500 		addi	a0,a0,%lo(.LC1)
 1018 0192 97000000 		call	LITE_syslog
 1018      E7800000 
 1019              	.LVL99:
  48:C:/Users/stapi/OneDrive/Desktop/GD32VW553/V1_MQTT_OK/GD32VW55X_Wifi_BLE_SDK/GD32VW55x_RELEASE_V1.0.2/MSDK/cloud/alicloud/src/protocol/coap/local\CoAPServer.c ****     while ('\0' != *ptr) {
 1020              		.loc 1 48 5
  49:C:/Users/stapi/OneDrive/Desktop/GD32VW553/V1_MQTT_OK/GD32VW55X_Wifi_BLE_SDK/GD32VW55x_RELEASE_V1.0.2/MSDK/cloud/alicloud/src/protocol/coap/local\CoAPServer.c ****         if ('/' == *ptr) {
 1021              		.loc 1 49 5
  49:C:/Users/stapi/OneDrive/Desktop/GD32VW553/V1_MQTT_OK/GD32VW55X_Wifi_BLE_SDK/GD32VW55x_RELEASE_V1.0.2/MSDK/cloud/alicloud/src/protocol/coap/local\CoAPServer.c ****         if ('/' == *ptr) {
 1022              		.loc 1 49 11 is_stmt 0
 1023 019a 2289     		mv	s2,s0
  50:C:/Users/stapi/OneDrive/Desktop/GD32VW553/V1_MQTT_OK/GD32VW55X_Wifi_BLE_SDK/GD32VW55x_RELEASE_V1.0.2/MSDK/cloud/alicloud/src/protocol/coap/local\CoAPServer.c ****             if (ptr != pstr) {
 1024              		.loc 1 50 12
 1025 019c 130CF002 		li	s8,47
 1026              	.LVL100:
 1027              	.L59:
  49:C:/Users/stapi/OneDrive/Desktop/GD32VW553/V1_MQTT_OK/GD32VW55X_Wifi_BLE_SDK/GD32VW55x_RELEASE_V1.0.2/MSDK/cloud/alicloud/src/protocol/coap/local\CoAPServer.c ****         if ('/' == *ptr) {
 1028              		.loc 1 49 11 is_stmt 1
  49:C:/Users/stapi/OneDrive/Desktop/GD32VW553/V1_MQTT_OK/GD32VW55X_Wifi_BLE_SDK/GD32VW55x_RELEASE_V1.0.2/MSDK/cloud/alicloud/src/protocol/coap/local\CoAPServer.c ****         if ('/' == *ptr) {
 1029              		.loc 1 49 20 is_stmt 0
 1030 01a0 83070900 		lb	a5,0(s2)
  49:C:/Users/stapi/OneDrive/Desktop/GD32VW553/V1_MQTT_OK/GD32VW55X_Wifi_BLE_SDK/GD32VW55x_RELEASE_V1.0.2/MSDK/cloud/alicloud/src/protocol/coap/local\CoAPServer.c ****         if ('/' == *ptr) {
 1031              		.loc 1 49 11
 1032 01a4 BDDF     		beq	a5,zero,.L58
  50:C:/Users/stapi/OneDrive/Desktop/GD32VW553/V1_MQTT_OK/GD32VW55X_Wifi_BLE_SDK/GD32VW55x_RELEASE_V1.0.2/MSDK/cloud/alicloud/src/protocol/coap/local\CoAPServer.c ****             if (ptr != pstr) {
 1033              		.loc 1 50 9 is_stmt 1
 1034 01a6 930B1900 		addi	s7,s2,1
  50:C:/Users/stapi/OneDrive/Desktop/GD32VW553/V1_MQTT_OK/GD32VW55X_Wifi_BLE_SDK/GD32VW55x_RELEASE_V1.0.2/MSDK/cloud/alicloud/src/protocol/coap/local\CoAPServer.c ****             if (ptr != pstr) {
 1035              		.loc 1 50 12 is_stmt 0
 1036 01aa 63938705 		bne	a5,s8,.L60
  51:C:/Users/stapi/OneDrive/Desktop/GD32VW553/V1_MQTT_OK/GD32VW55X_Wifi_BLE_SDK/GD32VW55x_RELEASE_V1.0.2/MSDK/cloud/alicloud/src/protocol/coap/local\CoAPServer.c ****                 memset(path, 0x00, sizeof(path));
 1037              		.loc 1 51 13 is_stmt 1
  51:C:/Users/stapi/OneDrive/Desktop/GD32VW553/V1_MQTT_OK/GD32VW55X_Wifi_BLE_SDK/GD32VW55x_RELEASE_V1.0.2/MSDK/cloud/alicloud/src/protocol/coap/local\CoAPServer.c ****                 memset(path, 0x00, sizeof(path));
 1038              		.loc 1 51 16 is_stmt 0
 1039 01ae 63008904 		beq	s2,s0,.L61
  52:C:/Users/stapi/OneDrive/Desktop/GD32VW553/V1_MQTT_OK/GD32VW55X_Wifi_BLE_SDK/GD32VW55x_RELEASE_V1.0.2/MSDK/cloud/alicloud/src/protocol/coap/local\CoAPServer.c ****                 strncpy(path, pstr, ptr - pstr);
 1040              		.loc 1 52 17 is_stmt 1
 1041 01b2 13060008 		li	a2,128
 1042 01b6 8145     		li	a1,0
 1043 01b8 2800     		addi	a0,sp,8
 1044 01ba 97000000 		call	memset
 1044      E7800000 
 1045              	.LVL101:
  53:C:/Users/stapi/OneDrive/Desktop/GD32VW553/V1_MQTT_OK/GD32VW55X_Wifi_BLE_SDK/GD32VW55x_RELEASE_V1.0.2/MSDK/cloud/alicloud/src/protocol/coap/local\CoAPServer.c ****                 CoAPStrOption_add(message, COAP_OPTION_URI_PATH,
 1046              		.loc 1 53 17
 1047 01c2 33068940 		sub	a2,s2,s0
 1048 01c6 A285     		mv	a1,s0
 1049 01c8 2800     		addi	a0,sp,8
 1050 01ca 97000000 		call	strncpy
 1050      E7800000 
 1051              	.LVL102:
  54:C:/Users/stapi/OneDrive/Desktop/GD32VW553/V1_MQTT_OK/GD32VW55X_Wifi_BLE_SDK/GD32VW55x_RELEASE_V1.0.2/MSDK/cloud/alicloud/src/protocol/coap/local\CoAPServer.c ****                                   (unsigned char *)path, (int)strlen(path));
 1052              		.loc 1 54 17
  55:C:/Users/stapi/OneDrive/Desktop/GD32VW553/V1_MQTT_OK/GD32VW55X_Wifi_BLE_SDK/GD32VW55x_RELEASE_V1.0.2/MSDK/cloud/alicloud/src/protocol/coap/local\CoAPServer.c ****             }
 1053              		.loc 1 55 63 is_stmt 0
 1054 01d2 2800     		addi	a0,sp,8
 1055 01d4 97000000 		call	strlen
 1055      E7800000 
 1056              	.LVL103:
  54:C:/Users/stapi/OneDrive/Desktop/GD32VW553/V1_MQTT_OK/GD32VW55X_Wifi_BLE_SDK/GD32VW55x_RELEASE_V1.0.2/MSDK/cloud/alicloud/src/protocol/coap/local\CoAPServer.c ****                                   (unsigned char *)path, (int)strlen(path));
 1057              		.loc 1 54 17
 1058 01dc B3460508 		zext.h	a3,a0
 1059 01e0 3000     		addi	a2,sp,8
 1060 01e2 AD45     		li	a1,11
 1061 01e4 2801     		addi	a0,sp,136
 1062              	.LVL104:
 1063 01e6 97000000 		call	CoAPStrOption_add
 1063      E7800000 
 1064              	.LVL105:
 1065              	.L61:
  57:C:/Users/stapi/OneDrive/Desktop/GD32VW553/V1_MQTT_OK/GD32VW55X_Wifi_BLE_SDK/GD32VW55x_RELEASE_V1.0.2/MSDK/cloud/alicloud/src/protocol/coap/local\CoAPServer.c **** 
 1066              		.loc 1 57 13 is_stmt 1
 1067 01ee 5E84     		mv	s0,s7
 1068              	.LVL106:
 1069              	.L60:
  60:C:/Users/stapi/OneDrive/Desktop/GD32VW553/V1_MQTT_OK/GD32VW55X_Wifi_BLE_SDK/GD32VW55x_RELEASE_V1.0.2/MSDK/cloud/alicloud/src/protocol/coap/local\CoAPServer.c ****             memset(path, 0x00, sizeof(path));
 1070              		.loc 1 60 9
  60:C:/Users/stapi/OneDrive/Desktop/GD32VW553/V1_MQTT_OK/GD32VW55X_Wifi_BLE_SDK/GD32VW55x_RELEASE_V1.0.2/MSDK/cloud/alicloud/src/protocol/coap/local\CoAPServer.c ****             memset(path, 0x00, sizeof(path));
 1071              		.loc 1 60 12 is_stmt 0
 1072 01f0 83071900 		lb	a5,1(s2)
 1073 01f4 85EF     		bne	a5,zero,.L62
  60:C:/Users/stapi/OneDrive/Desktop/GD32VW553/V1_MQTT_OK/GD32VW55X_Wifi_BLE_SDK/GD32VW55x_RELEASE_V1.0.2/MSDK/cloud/alicloud/src/protocol/coap/local\CoAPServer.c ****             memset(path, 0x00, sizeof(path));
 1074              		.loc 1 60 32
 1075 01f6 83070400 		lb	a5,0(s0)
 1076 01fa 8DCB     		beq	a5,zero,.L62
  61:C:/Users/stapi/OneDrive/Desktop/GD32VW553/V1_MQTT_OK/GD32VW55X_Wifi_BLE_SDK/GD32VW55x_RELEASE_V1.0.2/MSDK/cloud/alicloud/src/protocol/coap/local\CoAPServer.c ****             strncpy(path, pstr, sizeof(path) - 1);
 1077              		.loc 1 61 13 is_stmt 1
  62:C:/Users/stapi/OneDrive/Desktop/GD32VW553/V1_MQTT_OK/GD32VW55X_Wifi_BLE_SDK/GD32VW55x_RELEASE_V1.0.2/MSDK/cloud/alicloud/src/protocol/coap/local\CoAPServer.c ****             CoAPStrOption_add(message, COAP_OPTION_URI_PATH,
 1078              		.loc 1 62 13 is_stmt 0
 1079 01fc 1306F007 		li	a2,127
 1080 0200 A285     		mv	a1,s0
 1081 0202 2800     		addi	a0,sp,8
 1082 0204 A3030108 		sb	zero,135(sp)
  62:C:/Users/stapi/OneDrive/Desktop/GD32VW553/V1_MQTT_OK/GD32VW55X_Wifi_BLE_SDK/GD32VW55x_RELEASE_V1.0.2/MSDK/cloud/alicloud/src/protocol/coap/local\CoAPServer.c ****             CoAPStrOption_add(message, COAP_OPTION_URI_PATH,
 1083              		.loc 1 62 13 is_stmt 1
 1084 0208 97000000 		call	strncpy
 1084      E7800000 
 1085              	.LVL107:
  63:C:/Users/stapi/OneDrive/Desktop/GD32VW553/V1_MQTT_OK/GD32VW55X_Wifi_BLE_SDK/GD32VW55x_RELEASE_V1.0.2/MSDK/cloud/alicloud/src/protocol/coap/local\CoAPServer.c ****                               (unsigned char *)path, (int)strlen(path));
 1086              		.loc 1 63 13
  64:C:/Users/stapi/OneDrive/Desktop/GD32VW553/V1_MQTT_OK/GD32VW55X_Wifi_BLE_SDK/GD32VW55x_RELEASE_V1.0.2/MSDK/cloud/alicloud/src/protocol/coap/local\CoAPServer.c ****         }
 1087              		.loc 1 64 59 is_stmt 0
 1088 0210 2800     		addi	a0,sp,8
 1089 0212 97000000 		call	strlen
 1089      E7800000 
 1090              	.LVL108:
  63:C:/Users/stapi/OneDrive/Desktop/GD32VW553/V1_MQTT_OK/GD32VW55X_Wifi_BLE_SDK/GD32VW55x_RELEASE_V1.0.2/MSDK/cloud/alicloud/src/protocol/coap/local\CoAPServer.c ****                               (unsigned char *)path, (int)strlen(path));
 1091              		.loc 1 63 13
 1092 021a B3460508 		zext.h	a3,a0
 1093 021e 3000     		addi	a2,sp,8
 1094 0220 AD45     		li	a1,11
 1095 0222 2801     		addi	a0,sp,136
 1096              	.LVL109:
 1097 0224 97000000 		call	CoAPStrOption_add
 1097      E7800000 
 1098              	.LVL110:
 1099              	.L62:
  66:C:/Users/stapi/OneDrive/Desktop/GD32VW553/V1_MQTT_OK/GD32VW55X_Wifi_BLE_SDK/GD32VW55x_RELEASE_V1.0.2/MSDK/cloud/alicloud/src/protocol/coap/local\CoAPServer.c ****     }
 1100              		.loc 1 66 9 is_stmt 1
  66:C:/Users/stapi/OneDrive/Desktop/GD32VW553/V1_MQTT_OK/GD32VW55X_Wifi_BLE_SDK/GD32VW55x_RELEASE_V1.0.2/MSDK/cloud/alicloud/src/protocol/coap/local\CoAPServer.c ****     }
 1101              		.loc 1 66 13 is_stmt 0
 1102 022c 5E89     		mv	s2,s7
 1103              	.LVL111:
 1104 022e 8DBF     		j	.L59
 1105              	.LBE14:
 1106              	.LBE15:
 1107              		.cfi_endproc
 1108              	.LFE28:
 1110              		.section	.rodata.CoAPServerResp_send.str1.4,"aMS",@progbits,1
 1111              		.align	2
 1112              	.LC20:
 1113 0000 53656E64 		.string	"Send a response message"
 1113      20612072 
 1113      6573706F 
 1113      6E736520 
 1113      6D657373 
 1114              		.section	.text.CoAPServerResp_send,"ax",@progbits
 1115              		.align	1
 1116              		.globl	CoAPServerResp_send
 1118              	CoAPServerResp_send:
 1119              	.LFB29:
 284:C:/Users/stapi/OneDrive/Desktop/GD32VW553/V1_MQTT_OK/GD32VW55X_Wifi_BLE_SDK/GD32VW55x_RELEASE_V1.0.2/MSDK/cloud/alicloud/src/protocol/coap/local\CoAPServer.c **** 
 285:C:/Users/stapi/OneDrive/Desktop/GD32VW553/V1_MQTT_OK/GD32VW55X_Wifi_BLE_SDK/GD32VW55x_RELEASE_V1.0.2/MSDK/cloud/alicloud/src/protocol/coap/local\CoAPServer.c **** int CoAPServerResp_send(CoAPContext *context, NetworkAddr *remote, unsigned char *buff, unsigned sh
 286:C:/Users/stapi/OneDrive/Desktop/GD32VW553/V1_MQTT_OK/GD32VW55X_Wifi_BLE_SDK/GD32VW55x_RELEASE_V1.0.2/MSDK/cloud/alicloud/src/protocol/coap/local\CoAPServer.c ****                         const char *paths, CoAPSendMsgHandler callback, unsigned short *msgid, char
 287:C:/Users/stapi/OneDrive/Desktop/GD32VW553/V1_MQTT_OK/GD32VW55X_Wifi_BLE_SDK/GD32VW55x_RELEASE_V1.0.2/MSDK/cloud/alicloud/src/protocol/coap/local\CoAPServer.c **** {
 1120              		.loc 1 287 1 is_stmt 1
 1121              		.cfi_startproc
 1122              	.LVL112:
 1123 0000 17030000 		call	t0,__riscv_save_10
 1123      E7020300 
 1124              		.cfi_offset 25, -44
 1125              		.cfi_offset 24, -40
 1126              		.cfi_offset 23, -36
 1127              		.cfi_offset 22, -32
 1128              		.cfi_offset 21, -28
 1129              		.cfi_offset 20, -24
 1130              		.cfi_offset 19, -20
 1131              		.cfi_offset 18, -16
 1132              		.cfi_offset 9, -12
 1133              		.cfi_offset 8, -8
 1134              		.cfi_offset 1, -4
 1135              		.cfi_def_cfa_offset 48
 288:C:/Users/stapi/OneDrive/Desktop/GD32VW553/V1_MQTT_OK/GD32VW55X_Wifi_BLE_SDK/GD32VW55x_RELEASE_V1.0.2/MSDK/cloud/alicloud/src/protocol/coap/local\CoAPServer.c ****     int ret = COAP_SUCCESS;
 1136              		.loc 1 288 5
 1137              	.LVL113:
 289:C:/Users/stapi/OneDrive/Desktop/GD32VW553/V1_MQTT_OK/GD32VW55X_Wifi_BLE_SDK/GD32VW55x_RELEASE_V1.0.2/MSDK/cloud/alicloud/src/protocol/coap/local\CoAPServer.c ****     CoAPMessage response;
 1138              		.loc 1 289 5
 290:C:/Users/stapi/OneDrive/Desktop/GD32VW553/V1_MQTT_OK/GD32VW55X_Wifi_BLE_SDK/GD32VW55x_RELEASE_V1.0.2/MSDK/cloud/alicloud/src/protocol/coap/local\CoAPServer.c ****     unsigned int observe = 0;
 1139              		.loc 1 290 5
 287:C:/Users/stapi/OneDrive/Desktop/GD32VW553/V1_MQTT_OK/GD32VW55X_Wifi_BLE_SDK/GD32VW55x_RELEASE_V1.0.2/MSDK/cloud/alicloud/src/protocol/coap/local\CoAPServer.c ****     int ret = COAP_SUCCESS;
 1140              		.loc 1 287 1 is_stmt 0
 1141 0008 7571     		addi	sp,sp,-144
 1142              		.cfi_def_cfa_offset 192
 1143              		.loc 1 290 18
 1144 000a 02C2     		sw	zero,4(sp)
 291:C:/Users/stapi/OneDrive/Desktop/GD32VW553/V1_MQTT_OK/GD32VW55X_Wifi_BLE_SDK/GD32VW55x_RELEASE_V1.0.2/MSDK/cloud/alicloud/src/protocol/coap/local\CoAPServer.c ****     CoAPMessage *request = (CoAPMessage *)req;
 1145              		.loc 1 291 5 is_stmt 1
 1146              	.LVL114:
 292:C:/Users/stapi/OneDrive/Desktop/GD32VW553/V1_MQTT_OK/GD32VW55X_Wifi_BLE_SDK/GD32VW55x_RELEASE_V1.0.2/MSDK/cloud/alicloud/src/protocol/coap/local\CoAPServer.c **** 
 293:C:/Users/stapi/OneDrive/Desktop/GD32VW553/V1_MQTT_OK/GD32VW55X_Wifi_BLE_SDK/GD32VW55x_RELEASE_V1.0.2/MSDK/cloud/alicloud/src/protocol/coap/local\CoAPServer.c ****     if (NULL == context || g_context != context || NULL == remote
 1147              		.loc 1 293 5
 294:C:/Users/stapi/OneDrive/Desktop/GD32VW553/V1_MQTT_OK/GD32VW55X_Wifi_BLE_SDK/GD32VW55x_RELEASE_V1.0.2/MSDK/cloud/alicloud/src/protocol/coap/local\CoAPServer.c ****         || NULL == buff || NULL == paths || NULL == req) {
 295:C:/Users/stapi/OneDrive/Desktop/GD32VW553/V1_MQTT_OK/GD32VW55X_Wifi_BLE_SDK/GD32VW55x_RELEASE_V1.0.2/MSDK/cloud/alicloud/src/protocol/coap/local\CoAPServer.c ****         return COAP_ERROR_INVALID_PARAM;
 1148              		.loc 1 295 16 is_stmt 0
 1149 000c 13091010 		li	s2,257
 287:C:/Users/stapi/OneDrive/Desktop/GD32VW553/V1_MQTT_OK/GD32VW55X_Wifi_BLE_SDK/GD32VW55x_RELEASE_V1.0.2/MSDK/cloud/alicloud/src/protocol/coap/local\CoAPServer.c ****     int ret = COAP_SUCCESS;
 1150              		.loc 1 287 1
 1151 0010 830C010C 		lb	s9,192(sp)
 293:C:/Users/stapi/OneDrive/Desktop/GD32VW553/V1_MQTT_OK/GD32VW55X_Wifi_BLE_SDK/GD32VW55x_RELEASE_V1.0.2/MSDK/cloud/alicloud/src/protocol/coap/local\CoAPServer.c ****         || NULL == buff || NULL == paths || NULL == req) {
 1152              		.loc 1 293 8
 1153 0014 63010512 		beq	a0,zero,.L80
 1154 0018 BE8A     		mv	s5,a5
 293:C:/Users/stapi/OneDrive/Desktop/GD32VW553/V1_MQTT_OK/GD32VW55X_Wifi_BLE_SDK/GD32VW55x_RELEASE_V1.0.2/MSDK/cloud/alicloud/src/protocol/coap/local\CoAPServer.c ****         || NULL == buff || NULL == paths || NULL == req) {
 1155              		.loc 1 293 25 discriminator 1
 1156 001a B7070000 		lui	a5,%hi(.LANCHOR5)
 1157              	.LVL115:
 1158 001e 83A70700 		lw	a5,%lo(.LANCHOR5)(a5)
 1159 0022 AA84     		mv	s1,a0
 1160              		.loc 1 295 16 discriminator 1
 1161 0024 13091010 		li	s2,257
 293:C:/Users/stapi/OneDrive/Desktop/GD32VW553/V1_MQTT_OK/GD32VW55X_Wifi_BLE_SDK/GD32VW55x_RELEASE_V1.0.2/MSDK/cloud/alicloud/src/protocol/coap/local\CoAPServer.c ****         || NULL == buff || NULL == paths || NULL == req) {
 1162              		.loc 1 293 25 discriminator 1
 1163 0028 6397A710 		bne	a5,a0,.L80
 1164 002c AE89     		mv	s3,a1
 293:C:/Users/stapi/OneDrive/Desktop/GD32VW553/V1_MQTT_OK/GD32VW55X_Wifi_BLE_SDK/GD32VW55x_RELEASE_V1.0.2/MSDK/cloud/alicloud/src/protocol/coap/local\CoAPServer.c ****         || NULL == buff || NULL == paths || NULL == req) {
 1165              		.loc 1 293 49 discriminator 2
 1166 002e 63840510 		beq	a1,zero,.L80
 1167 0032 328A     		mv	s4,a2
 294:C:/Users/stapi/OneDrive/Desktop/GD32VW553/V1_MQTT_OK/GD32VW55X_Wifi_BLE_SDK/GD32VW55x_RELEASE_V1.0.2/MSDK/cloud/alicloud/src/protocol/coap/local\CoAPServer.c ****         || NULL == buff || NULL == paths || NULL == req) {
 1168              		.loc 1 294 9
 1169 0034 63010610 		beq	a2,zero,.L80
 294:C:/Users/stapi/OneDrive/Desktop/GD32VW553/V1_MQTT_OK/GD32VW55X_Wifi_BLE_SDK/GD32VW55x_RELEASE_V1.0.2/MSDK/cloud/alicloud/src/protocol/coap/local\CoAPServer.c ****         || NULL == buff || NULL == paths || NULL == req) {
 1170              		.loc 1 294 25 discriminator 1
 1171 0038 638F0A0E 		beq	s5,zero,.L80
 1172 003c 3A84     		mv	s0,a4
 294:C:/Users/stapi/OneDrive/Desktop/GD32VW553/V1_MQTT_OK/GD32VW55X_Wifi_BLE_SDK/GD32VW55x_RELEASE_V1.0.2/MSDK/cloud/alicloud/src/protocol/coap/local\CoAPServer.c ****         || NULL == buff || NULL == paths || NULL == req) {
 1173              		.loc 1 294 42 discriminator 2
 1174 003e 65CF     		beq	a4,zero,.L80
 296:C:/Users/stapi/OneDrive/Desktop/GD32VW553/V1_MQTT_OK/GD32VW55X_Wifi_BLE_SDK/GD32VW55x_RELEASE_V1.0.2/MSDK/cloud/alicloud/src/protocol/coap/local\CoAPServer.c ****     }
 297:C:/Users/stapi/OneDrive/Desktop/GD32VW553/V1_MQTT_OK/GD32VW55X_Wifi_BLE_SDK/GD32VW55x_RELEASE_V1.0.2/MSDK/cloud/alicloud/src/protocol/coap/local\CoAPServer.c **** 
 298:C:/Users/stapi/OneDrive/Desktop/GD32VW553/V1_MQTT_OK/GD32VW55X_Wifi_BLE_SDK/GD32VW55x_RELEASE_V1.0.2/MSDK/cloud/alicloud/src/protocol/coap/local\CoAPServer.c ****     CoAPMessage_init(&response);
 1175              		.loc 1 298 5
 1176 0040 2800     		addi	a0,sp,8
 1177              	.LVL116:
 1178 0042 428C     		mv	s8,a6
 1179 0044 468B     		mv	s6,a7
 1180              		.loc 1 298 5 is_stmt 1
 1181 0046 B68B     		mv	s7,a3
 1182 0048 97000000 		call	CoAPMessage_init
 1182      E7800000 
 1183              	.LVL117:
 299:C:/Users/stapi/OneDrive/Desktop/GD32VW553/V1_MQTT_OK/GD32VW55X_Wifi_BLE_SDK/GD32VW55x_RELEASE_V1.0.2/MSDK/cloud/alicloud/src/protocol/coap/local\CoAPServer.c ****     CoAPMessageType_set(&response, qos == 0 ? COAP_MESSAGE_TYPE_NON :COAP_MESSAGE_TYPE_CON);
 1184              		.loc 1 299 5
 1185 0050 93B51C00 		seqz	a1,s9
 1186 0054 2800     		addi	a0,sp,8
 1187 0056 97000000 		call	CoAPMessageType_set
 1187      E7800000 
 1188              	.LVL118:
 300:C:/Users/stapi/OneDrive/Desktop/GD32VW553/V1_MQTT_OK/GD32VW55X_Wifi_BLE_SDK/GD32VW55x_RELEASE_V1.0.2/MSDK/cloud/alicloud/src/protocol/coap/local\CoAPServer.c ****     CoAPMessageCode_set(&response, COAP_MSG_CODE_205_CONTENT);
 1189              		.loc 1 300 5
 1190 005e 93055004 		li	a1,69
 1191 0062 2800     		addi	a0,sp,8
 1192 0064 97000000 		call	CoAPMessageCode_set
 1192      E7800000 
 1193              	.LVL119:
 301:C:/Users/stapi/OneDrive/Desktop/GD32VW553/V1_MQTT_OK/GD32VW55X_Wifi_BLE_SDK/GD32VW55x_RELEASE_V1.0.2/MSDK/cloud/alicloud/src/protocol/coap/local\CoAPServer.c ****     CoAPMessageId_set(&response, request->header.msgid);
 1194              		.loc 1 301 5
 1195 006c 83552400 		lhu	a1,2(s0)
 1196 0070 2800     		addi	a0,sp,8
 1197 0072 97000000 		call	CoAPMessageId_set
 1197      E7800000 
 1198              	.LVL120:
 302:C:/Users/stapi/OneDrive/Desktop/GD32VW553/V1_MQTT_OK/GD32VW55X_Wifi_BLE_SDK/GD32VW55x_RELEASE_V1.0.2/MSDK/cloud/alicloud/src/protocol/coap/local\CoAPServer.c ****     CoAPMessageToken_set(&response, request->token, request->header.tokenlen);
 1199              		.loc 1 302 5
 1200              		.loc 1 302 68 is_stmt 0
 1201 007a 1040     		lw	a2,0(s0)
 1202              		.loc 1 302 5
 1203 007c 93054400 		addi	a1,s0,4
 1204 0080 2800     		addi	a0,sp,8
 1205              		.loc 1 302 68
 1206 0082 1182     		srli	a2,a2,4
 1207              		.loc 1 302 5
 1208 0084 3D8A     		andi	a2,a2,15
 1209 0086 97000000 		call	CoAPMessageToken_set
 1209      E7800000 
 1210              	.LVL121:
 303:C:/Users/stapi/OneDrive/Desktop/GD32VW553/V1_MQTT_OK/GD32VW55X_Wifi_BLE_SDK/GD32VW55x_RELEASE_V1.0.2/MSDK/cloud/alicloud/src/protocol/coap/local\CoAPServer.c ****     CoAPMessageHandler_set(&response, callback);
 1211              		.loc 1 303 5 is_stmt 1
 1212 008e E285     		mv	a1,s8
 1213 0090 2800     		addi	a0,sp,8
 1214 0092 97000000 		call	CoAPMessageHandler_set
 1214      E7800000 
 1215              	.LVL122:
 304:C:/Users/stapi/OneDrive/Desktop/GD32VW553/V1_MQTT_OK/GD32VW55X_Wifi_BLE_SDK/GD32VW55x_RELEASE_V1.0.2/MSDK/cloud/alicloud/src/protocol/coap/local\CoAPServer.c ****     if (msgid) *msgid = response.header.msgid;
 1216              		.loc 1 304 5
 1217              		.loc 1 304 8 is_stmt 0
 1218 009a 63060B00 		beq	s6,zero,.L82
 1219              		.loc 1 304 16 is_stmt 1 discriminator 1
 1220              		.loc 1 304 23 is_stmt 0 discriminator 1
 1221 009e 8357A100 		lhu	a5,10(sp)
 1222 00a2 2310FB00 		sh	a5,0(s6)
 1223              	.L82:
 305:C:/Users/stapi/OneDrive/Desktop/GD32VW553/V1_MQTT_OK/GD32VW55X_Wifi_BLE_SDK/GD32VW55x_RELEASE_V1.0.2/MSDK/cloud/alicloud/src/protocol/coap/local\CoAPServer.c **** 
 306:C:/Users/stapi/OneDrive/Desktop/GD32VW553/V1_MQTT_OK/GD32VW55X_Wifi_BLE_SDK/GD32VW55x_RELEASE_V1.0.2/MSDK/cloud/alicloud/src/protocol/coap/local\CoAPServer.c ****     ret = CoAPUintOption_get(request, COAP_OPTION_OBSERVE, &observe);
 1224              		.loc 1 306 5 is_stmt 1
 1225              		.loc 1 306 11 is_stmt 0
 1226 00a6 5000     		addi	a2,sp,4
 1227 00a8 9945     		li	a1,6
 1228 00aa 2285     		mv	a0,s0
 1229 00ac 97000000 		call	CoAPUintOption_get
 1229      E7800000 
 1230              	.LVL123:
 307:C:/Users/stapi/OneDrive/Desktop/GD32VW553/V1_MQTT_OK/GD32VW55X_Wifi_BLE_SDK/GD32VW55x_RELEASE_V1.0.2/MSDK/cloud/alicloud/src/protocol/coap/local\CoAPServer.c ****     if (COAP_SUCCESS == ret && 0 == observe) {
 1231              		.loc 1 307 5 is_stmt 1
 1232              		.loc 1 307 29 is_stmt 0
 1233 00b4 9247     		lw	a5,4(sp)
 1234 00b6 5D8D     		or	a0,a0,a5
 1235              	.LVL124:
 1236 00b8 05E1     		bne	a0,zero,.L83
 308:C:/Users/stapi/OneDrive/Desktop/GD32VW553/V1_MQTT_OK/GD32VW55X_Wifi_BLE_SDK/GD32VW55x_RELEASE_V1.0.2/MSDK/cloud/alicloud/src/protocol/coap/local\CoAPServer.c ****         CoAPObsServer_add(context, paths, remote, request);
 1237              		.loc 1 308 9 is_stmt 1
 1238 00ba 4E86     		mv	a2,s3
 1239 00bc D685     		mv	a1,s5
 1240 00be A286     		mv	a3,s0
 1241 00c0 2685     		mv	a0,s1
 1242 00c2 97000000 		call	CoAPObsServer_add
 1242      E7800000 
 1243              	.LVL125:
 309:C:/Users/stapi/OneDrive/Desktop/GD32VW553/V1_MQTT_OK/GD32VW55X_Wifi_BLE_SDK/GD32VW55x_RELEASE_V1.0.2/MSDK/cloud/alicloud/src/protocol/coap/local\CoAPServer.c ****         CoAPUintOption_add(&response, COAP_OPTION_OBSERVE, 0);
 1244              		.loc 1 309 9
 1245 00ca 0146     		li	a2,0
 1246 00cc 9945     		li	a1,6
 1247 00ce 2800     		addi	a0,sp,8
 1248 00d0 97000000 		call	CoAPUintOption_add
 1248      E7800000 
 1249              	.LVL126:
 1250              	.L83:
 310:C:/Users/stapi/OneDrive/Desktop/GD32VW553/V1_MQTT_OK/GD32VW55X_Wifi_BLE_SDK/GD32VW55x_RELEASE_V1.0.2/MSDK/cloud/alicloud/src/protocol/coap/local\CoAPServer.c ****     }
 311:C:/Users/stapi/OneDrive/Desktop/GD32VW553/V1_MQTT_OK/GD32VW55X_Wifi_BLE_SDK/GD32VW55x_RELEASE_V1.0.2/MSDK/cloud/alicloud/src/protocol/coap/local\CoAPServer.c **** 
 312:C:/Users/stapi/OneDrive/Desktop/GD32VW553/V1_MQTT_OK/GD32VW55X_Wifi_BLE_SDK/GD32VW55x_RELEASE_V1.0.2/MSDK/cloud/alicloud/src/protocol/coap/local\CoAPServer.c ****     CoAPUintOption_add(&response, COAP_OPTION_CONTENT_FORMAT, COAP_CT_APP_JSON);
 1251              		.loc 1 312 5
 1252 00d8 13062003 		li	a2,50
 1253 00dc B145     		li	a1,12
 1254 00de 2800     		addi	a0,sp,8
 1255 00e0 97000000 		call	CoAPUintOption_add
 1255      E7800000 
 1256              	.LVL127:
 313:C:/Users/stapi/OneDrive/Desktop/GD32VW553/V1_MQTT_OK/GD32VW55X_Wifi_BLE_SDK/GD32VW55x_RELEASE_V1.0.2/MSDK/cloud/alicloud/src/protocol/coap/local\CoAPServer.c ****     CoAPMessagePayload_set(&response, buff, len);
 1257              		.loc 1 313 5
 1258 00e8 5E86     		mv	a2,s7
 1259 00ea D285     		mv	a1,s4
 1260 00ec 2800     		addi	a0,sp,8
 1261 00ee 97000000 		call	CoAPMessagePayload_set
 1261      E7800000 
 1262              	.LVL128:
 314:C:/Users/stapi/OneDrive/Desktop/GD32VW553/V1_MQTT_OK/GD32VW55X_Wifi_BLE_SDK/GD32VW55x_RELEASE_V1.0.2/MSDK/cloud/alicloud/src/protocol/coap/local\CoAPServer.c **** 
 315:C:/Users/stapi/OneDrive/Desktop/GD32VW553/V1_MQTT_OK/GD32VW55X_Wifi_BLE_SDK/GD32VW55x_RELEASE_V1.0.2/MSDK/cloud/alicloud/src/protocol/coap/local\CoAPServer.c ****     COAP_DEBUG("Send a response message");
 1263              		.loc 1 315 5
 1264 00f6 37070000 		lui	a4,%hi(.LC20)
 1265 00fa B7050000 		lui	a1,%hi(.LANCHOR9)
 1266 00fe 37050000 		lui	a0,%hi(.LC1)
 1267 0102 13070700 		addi	a4,a4,%lo(.LC20)
 1268 0106 9546     		li	a3,5
 1269 0108 1306B013 		li	a2,315
 1270 010c 93850500 		addi	a1,a1,%lo(.LANCHOR9)
 1271 0110 13050500 		addi	a0,a0,%lo(.LC1)
 1272 0114 97000000 		call	LITE_syslog
 1272      E7800000 
 1273              	.LVL129:
 316:C:/Users/stapi/OneDrive/Desktop/GD32VW553/V1_MQTT_OK/GD32VW55X_Wifi_BLE_SDK/GD32VW55x_RELEASE_V1.0.2/MSDK/cloud/alicloud/src/protocol/coap/local\CoAPServer.c ****     ret = CoAPMessage_send(context, remote, &response);
 1274              		.loc 1 316 5
 1275              		.loc 1 316 11 is_stmt 0
 1276 011c 3000     		addi	a2,sp,8
 1277 011e CE85     		mv	a1,s3
 1278 0120 2685     		mv	a0,s1
 1279 0122 97000000 		call	CoAPMessage_send
 1279      E7800000 
 1280              	.LVL130:
 1281 012a 2A89     		mv	s2,a0
 1282              	.LVL131:
 317:C:/Users/stapi/OneDrive/Desktop/GD32VW553/V1_MQTT_OK/GD32VW55X_Wifi_BLE_SDK/GD32VW55x_RELEASE_V1.0.2/MSDK/cloud/alicloud/src/protocol/coap/local\CoAPServer.c ****     CoAPMessage_destory(&response);
 1283              		.loc 1 317 5 is_stmt 1
 1284 012c 2800     		addi	a0,sp,8
 1285              	.LVL132:
 1286 012e 97000000 		call	CoAPMessage_destory
 1286      E7800000 
 1287              	.LVL133:
 318:C:/Users/stapi/OneDrive/Desktop/GD32VW553/V1_MQTT_OK/GD32VW55X_Wifi_BLE_SDK/GD32VW55x_RELEASE_V1.0.2/MSDK/cloud/alicloud/src/protocol/coap/local\CoAPServer.c **** 
 319:C:/Users/stapi/OneDrive/Desktop/GD32VW553/V1_MQTT_OK/GD32VW55X_Wifi_BLE_SDK/GD32VW55x_RELEASE_V1.0.2/MSDK/cloud/alicloud/src/protocol/coap/local\CoAPServer.c ****     return ret;
 1288              		.loc 1 319 5
 1289              	.L80:
 320:C:/Users/stapi/OneDrive/Desktop/GD32VW553/V1_MQTT_OK/GD32VW55X_Wifi_BLE_SDK/GD32VW55x_RELEASE_V1.0.2/MSDK/cloud/alicloud/src/protocol/coap/local\CoAPServer.c **** }
 1290              		.loc 1 320 1 is_stmt 0
 1291 0136 4A85     		mv	a0,s2
 1292 0138 4961     		addi	sp,sp,144
 1293              		.cfi_def_cfa_offset 0
 1294              	.LVL134:
 1295 013a 17030000 		tail	__riscv_restore_10
 1295      67000300 
 1296              		.cfi_restore 25
 1297              		.cfi_restore 24
 1298              		.cfi_restore 23
 1299              		.cfi_restore 22
 1300              		.cfi_restore 21
 1301              		.cfi_restore 20
 1302              		.cfi_restore 19
 1303              		.cfi_restore 18
 1304              		.cfi_restore 9
 1305              		.cfi_restore 8
 1306              		.cfi_restore 1
 1307              		.cfi_def_cfa_offset -48
 1308              		.cfi_endproc
 1309              	.LFE29:
 1311              		.section	.rodata.CoAPServer_loop.str1.4,"aMS",@progbits,1
 1312              		.align	2
 1313              	.LC21:
 1314 0000 54686520 		.string	"The CoAP Server is already running"
 1314      436F4150 
 1314      20536572 
 1314      76657220 
 1314      69732061 
 1315              		.section	.text.CoAPServer_loop,"ax",@progbits
 1316              		.align	1
 1317              		.globl	CoAPServer_loop
 1319              	CoAPServer_loop:
 1320              	.LFB30:
 321:C:/Users/stapi/OneDrive/Desktop/GD32VW553/V1_MQTT_OK/GD32VW55X_Wifi_BLE_SDK/GD32VW55x_RELEASE_V1.0.2/MSDK/cloud/alicloud/src/protocol/coap/local\CoAPServer.c **** 
 322:C:/Users/stapi/OneDrive/Desktop/GD32VW553/V1_MQTT_OK/GD32VW55X_Wifi_BLE_SDK/GD32VW55x_RELEASE_V1.0.2/MSDK/cloud/alicloud/src/protocol/coap/local\CoAPServer.c **** void CoAPServer_loop(CoAPContext *context)
 323:C:/Users/stapi/OneDrive/Desktop/GD32VW553/V1_MQTT_OK/GD32VW55X_Wifi_BLE_SDK/GD32VW55x_RELEASE_V1.0.2/MSDK/cloud/alicloud/src/protocol/coap/local\CoAPServer.c **** {
 1321              		.loc 1 323 1 is_stmt 1
 1322              		.cfi_startproc
 1323              	.LVL135:
 324:C:/Users/stapi/OneDrive/Desktop/GD32VW553/V1_MQTT_OK/GD32VW55X_Wifi_BLE_SDK/GD32VW55x_RELEASE_V1.0.2/MSDK/cloud/alicloud/src/protocol/coap/local\CoAPServer.c ****     if (g_context != context  || 1 == g_coap_running) {
 1324              		.loc 1 324 5
 1325              		.loc 1 324 8 is_stmt 0
 1326 0000 B7070000 		lui	a5,%hi(.LANCHOR5)
 1327 0004 83A70700 		lw	a5,%lo(.LANCHOR5)(a5)
 1328 0008 6399A700 		bne	a5,a0,.L95
 1329              		.loc 1 324 31 discriminator 1
 1330 000c B7070000 		lui	a5,%hi(.LANCHOR2)
 1331 0010 03A70700 		lw	a4,%lo(.LANCHOR2)(a5)
 1332 0014 8547     		li	a5,1
 1333 0016 6312F704 		bne	a4,a5,.L98
 1334              	.L95:
 323:C:/Users/stapi/OneDrive/Desktop/GD32VW553/V1_MQTT_OK/GD32VW55X_Wifi_BLE_SDK/GD32VW55x_RELEASE_V1.0.2/MSDK/cloud/alicloud/src/protocol/coap/local\CoAPServer.c ****     if (g_context != context  || 1 == g_coap_running) {
 1335              		.loc 1 323 1
 1336 001a 17030000 		call	t0,__riscv_save_0
 1336      E7020300 
 1337              		.cfi_offset 1, -4
 1338              		.cfi_def_cfa_offset 16
 325:C:/Users/stapi/OneDrive/Desktop/GD32VW553/V1_MQTT_OK/GD32VW55X_Wifi_BLE_SDK/GD32VW55x_RELEASE_V1.0.2/MSDK/cloud/alicloud/src/protocol/coap/local\CoAPServer.c ****         COAP_INFO("The CoAP Server is already running");
 1339              		.loc 1 325 9 is_stmt 1
 1340              		.loc 1 325 9
 1341 0022 37050000 		lui	a0,%hi(.LC2)
 1342              	.LVL136:
 1343 0026 13050500 		addi	a0,a0,%lo(.LC2)
 1344 002a 97000000 		call	HAL_Printf
 1344      E7800000 
 1345              	.LVL137:
 1346              		.loc 1 325 9
 1347 0032 37050000 		lui	a0,%hi(.LC21)
 1348 0036 13050500 		addi	a0,a0,%lo(.LC21)
 1349 003a 97000000 		call	HAL_Printf
 1349      E7800000 
 1350              	.LVL138:
 1351              		.loc 1 325 9
 1352 0042 37050000 		lui	a0,%hi(.LC4)
 1353 0046 13050500 		addi	a0,a0,%lo(.LC4)
 1354 004a 97000000 		call	HAL_Printf
 1354      E7800000 
 1355              	.LVL139:
 1356              		.loc 1 325 9
 326:C:/Users/stapi/OneDrive/Desktop/GD32VW553/V1_MQTT_OK/GD32VW55X_Wifi_BLE_SDK/GD32VW55x_RELEASE_V1.0.2/MSDK/cloud/alicloud/src/protocol/coap/local\CoAPServer.c ****         return;
 1357              		.loc 1 326 9
 327:C:/Users/stapi/OneDrive/Desktop/GD32VW553/V1_MQTT_OK/GD32VW55X_Wifi_BLE_SDK/GD32VW55x_RELEASE_V1.0.2/MSDK/cloud/alicloud/src/protocol/coap/local\CoAPServer.c ****     }
 328:C:/Users/stapi/OneDrive/Desktop/GD32VW553/V1_MQTT_OK/GD32VW55X_Wifi_BLE_SDK/GD32VW55x_RELEASE_V1.0.2/MSDK/cloud/alicloud/src/protocol/coap/local\CoAPServer.c **** 
 329:C:/Users/stapi/OneDrive/Desktop/GD32VW553/V1_MQTT_OK/GD32VW55X_Wifi_BLE_SDK/GD32VW55x_RELEASE_V1.0.2/MSDK/cloud/alicloud/src/protocol/coap/local\CoAPServer.c **** #ifndef COAP_SERV_MULTITHREAD
 330:C:/Users/stapi/OneDrive/Desktop/GD32VW553/V1_MQTT_OK/GD32VW55X_Wifi_BLE_SDK/GD32VW55x_RELEASE_V1.0.2/MSDK/cloud/alicloud/src/protocol/coap/local\CoAPServer.c ****     g_coap_running = 1;
 331:C:/Users/stapi/OneDrive/Desktop/GD32VW553/V1_MQTT_OK/GD32VW55X_Wifi_BLE_SDK/GD32VW55x_RELEASE_V1.0.2/MSDK/cloud/alicloud/src/protocol/coap/local\CoAPServer.c ****     CoAPServer_yield((void *)context);
 332:C:/Users/stapi/OneDrive/Desktop/GD32VW553/V1_MQTT_OK/GD32VW55X_Wifi_BLE_SDK/GD32VW55x_RELEASE_V1.0.2/MSDK/cloud/alicloud/src/protocol/coap/local\CoAPServer.c **** #endif
 333:C:/Users/stapi/OneDrive/Desktop/GD32VW553/V1_MQTT_OK/GD32VW55X_Wifi_BLE_SDK/GD32VW55x_RELEASE_V1.0.2/MSDK/cloud/alicloud/src/protocol/coap/local\CoAPServer.c **** }
 1358              		.loc 1 333 1 is_stmt 0
 1359 0052 17030000 		tail	__riscv_restore_0
 1359      67000300 
 1360              		.cfi_restore 1
 1361              		.cfi_def_cfa_offset 0
 1362              	.LVL140:
 1363              	.L98:
 1364 005a 8280     		ret
 1365              		.cfi_endproc
 1366              	.LFE30:
 1368              		.globl	coap_init_mutex
 1369              		.globl	coap_yield_mutex
 1370              		.section	.rodata.__FUNCTION__.0,"a"
 1371              		.align	2
 1372              		.set	.LANCHOR9,. + 0
 1375              	__FUNCTION__.0:
 1376 0000 436F4150 		.string	"CoAPServerResp_send"
 1376      53657276 
 1376      65725265 
 1376      73705F73 
 1376      656E6400 
 1377              		.section	.rodata.__FUNCTION__.1,"a"
 1378              		.align	2
 1379              		.set	.LANCHOR8,. + 0
 1382              	__FUNCTION__.1:
 1383 0000 436F4150 		.string	"CoAPServerPath_2_option"
 1383      53657276 
 1383      65725061 
 1383      74685F32 
 1383      5F6F7074 
 1384              		.section	.rodata.__FUNCTION__.3,"a"
 1385              		.align	2
 1386              		.set	.LANCHOR1,. + 0
 1389              	__FUNCTION__.3:
 1390 0000 436F4150 		.string	"CoAPServer_yield"
 1390      53657276 
 1390      65725F79 
 1390      69656C64 
 1390      00
 1391              		.section	.sbss.coap_init_mutex,"aw",@nobits
 1392              		.align	2
 1393              		.set	.LANCHOR4,. + 0
 1396              	coap_init_mutex:
 1397 0000 00000000 		.zero	4
 1398              		.section	.sbss.coap_yield_mutex,"aw",@nobits
 1399              		.align	2
 1400              		.set	.LANCHOR6,. + 0
 1403              	coap_yield_mutex:
 1404 0000 00000000 		.zero	4
 1405              		.section	.sbss.g_coap_running,"aw",@nobits
 1406              		.align	2
 1407              		.set	.LANCHOR2,. + 0
 1410              	g_coap_running:
 1411 0000 00000000 		.zero	4
 1412              		.section	.sbss.g_coap_thread,"aw",@nobits
 1413              		.align	2
 1414              		.set	.LANCHOR0,. + 0
 1417              	g_coap_thread:
 1418 0000 00000000 		.zero	4
 1419              		.section	.sbss.g_context,"aw",@nobits
 1420              		.align	2
 1421              		.set	.LANCHOR5,. + 0
 1424              	g_context:
 1425 0000 00000000 		.zero	4
 1426              		.section	.sbss.g_semphore,"aw",@nobits
 1427              		.align	2
 1428              		.set	.LANCHOR3,. + 0
 1431              	g_semphore:
 1432 0000 00000000 		.zero	4
 1433              		.section	.sdata.value.2,"aw"
 1434              		.align	2
 1435              		.set	.LANCHOR7,. + 0
 1438              	value.2:
 1439 0000 04030201 		.word	16909060
 1440              		.text
 1441              	.Letext0:
 1442              		.file 2 "c:\\users\\stapi\\onedrive\\desktop\\gd32vw553\\embeddedbuilder_v1.4.7.26843\\tools\\nucl
 1443              		.file 3 "c:\\users\\stapi\\onedrive\\desktop\\gd32vw553\\embeddedbuilder_v1.4.7.26843\\tools\\nucl
 1444              		.file 4 "c:\\users\\stapi\\onedrive\\desktop\\gd32vw553\\embeddedbuilder_v1.4.7.26843\\tools\\nucl
 1445              		.file 5 "..\\..\\..\\..\\cloud\\alicloud\\include/iot_import.h"
 1446              		.file 6 "C:/Users/stapi/OneDrive/Desktop/GD32VW553/V1_MQTT_OK/GD32VW55X_Wifi_BLE_SDK/GD32VW55x_REL
 1447              		.file 7 "..\\..\\..\\..\\cloud\\alicloud\\src\\infra\\log/iotx_log.h"
 1448              		.file 8 "c:\\users\\stapi\\onedrive\\desktop\\gd32vw553\\embeddedbuilder_v1.4.7.26843\\tools\\nucl
 1449              		.file 9 "<built-in>"
DEFINED SYMBOLS
                            *ABS*:0000000000000000 CoAPServer.c
C:\Users\stapi\AppData\Local\Temp\ccVrwyY4.s:28     .text.CoAPServer_yield:0000000000000000 CoAPServer_yield
C:\Users\stapi\AppData\Local\Temp\ccVrwyY4.s:32     .text.CoAPServer_yield:0000000000000000 .L0 
C:\Users\stapi\AppData\Local\Temp\ccVrwyY4.s:34     .text.CoAPServer_yield:0000000000000000 .L0 
C:\Users\stapi\AppData\Local\Temp\ccVrwyY4.s:35     .text.CoAPServer_yield:0000000000000008 .L0 
C:\Users\stapi\AppData\Local\Temp\ccVrwyY4.s:36     .text.CoAPServer_yield:0000000000000008 .L0 
C:\Users\stapi\AppData\Local\Temp\ccVrwyY4.s:37     .text.CoAPServer_yield:0000000000000008 .L0 
C:\Users\stapi\AppData\Local\Temp\ccVrwyY4.s:38     .text.CoAPServer_yield:0000000000000008 .L0 
C:\Users\stapi\AppData\Local\Temp\ccVrwyY4.s:39     .text.CoAPServer_yield:0000000000000008 .L0 
C:\Users\stapi\AppData\Local\Temp\ccVrwyY4.s:40     .text.CoAPServer_yield:0000000000000008 .L0 
C:\Users\stapi\AppData\Local\Temp\ccVrwyY4.s:42     .text.CoAPServer_yield:0000000000000008 .L0 
C:\Users\stapi\AppData\Local\Temp\ccVrwyY4.s:43     .text.CoAPServer_yield:0000000000000008 .L0 
C:\Users\stapi\AppData\Local\Temp\ccVrwyY4.s:46     .text.CoAPServer_yield:000000000000000a .L0 
C:\Users\stapi\AppData\Local\Temp\ccVrwyY4.s:47     .text.CoAPServer_yield:000000000000000a .L0 
C:\Users\stapi\AppData\Local\Temp\ccVrwyY4.s:52     .text.CoAPServer_yield:0000000000000016 .L0 
C:\Users\stapi\AppData\Local\Temp\ccVrwyY4.s:54     .text.CoAPServer_yield:000000000000001a .L0 
C:\Users\stapi\AppData\Local\Temp\ccVrwyY4.s:60     .text.CoAPServer_yield:000000000000002c .L0 
C:\Users\stapi\AppData\Local\Temp\ccVrwyY4.s:63     .text.CoAPServer_yield:0000000000000030 .L0 
C:\Users\stapi\AppData\Local\Temp\ccVrwyY4.s:64     .text.CoAPServer_yield:0000000000000030 .L0 
C:\Users\stapi\AppData\Local\Temp\ccVrwyY4.s:66     .text.CoAPServer_yield:0000000000000034 .L0 
C:\Users\stapi\AppData\Local\Temp\ccVrwyY4.s:69     .text.CoAPServer_yield:000000000000003c .L0 
C:\Users\stapi\AppData\Local\Temp\ccVrwyY4.s:72     .text.CoAPServer_yield:0000000000000040 .L0 
C:\Users\stapi\AppData\Local\Temp\ccVrwyY4.s:75     .text.CoAPServer_yield:0000000000000046 .L0 
C:\Users\stapi\AppData\Local\Temp\ccVrwyY4.s:80     .text.CoAPServer_yield:0000000000000056 .L0 
C:\Users\stapi\AppData\Local\Temp\ccVrwyY4.s:81     .text.CoAPServer_yield:0000000000000056 .L0 
C:\Users\stapi\AppData\Local\Temp\ccVrwyY4.s:86     .text.CoAPServer_yield:0000000000000066 .L0 
C:\Users\stapi\AppData\Local\Temp\ccVrwyY4.s:91     .text.CoAPServer_yield:0000000000000076 .L0 
C:\Users\stapi\AppData\Local\Temp\ccVrwyY4.s:96     .text.CoAPServer_yield:0000000000000086 .L0 
C:\Users\stapi\AppData\Local\Temp\ccVrwyY4.s:97     .text.CoAPServer_yield:0000000000000086 .L0 
C:\Users\stapi\AppData\Local\Temp\ccVrwyY4.s:98     .text.CoAPServer_yield:0000000000000086 .L0 
C:\Users\stapi\AppData\Local\Temp\ccVrwyY4.s:100    .text.CoAPServer_yield:0000000000000088 .L0 
C:\Users\stapi\AppData\Local\Temp\ccVrwyY4.s:102    .text.CoAPServer_yield:000000000000008c .L0 
C:\Users\stapi\AppData\Local\Temp\ccVrwyY4.s:105    .text.CoAPServer_yield:0000000000000094 .L0 
C:\Users\stapi\AppData\Local\Temp\ccVrwyY4.s:106    .text.CoAPServer_yield:0000000000000094 .L0 
C:\Users\stapi\AppData\Local\Temp\ccVrwyY4.s:108    .text.CoAPServer_yield:000000000000009e .L0 
C:\Users\stapi\AppData\Local\Temp\ccVrwyY4.s:109    .text.CoAPServer_yield:000000000000009e .L0 
C:\Users\stapi\AppData\Local\Temp\ccVrwyY4.s:110    .text.CoAPServer_yield:000000000000009e .L0 
C:\Users\stapi\AppData\Local\Temp\ccVrwyY4.s:111    .text.CoAPServer_yield:000000000000009e .L0 
C:\Users\stapi\AppData\Local\Temp\ccVrwyY4.s:112    .text.CoAPServer_yield:000000000000009e .L0 
C:\Users\stapi\AppData\Local\Temp\ccVrwyY4.s:113    .text.CoAPServer_yield:000000000000009e .L0 
C:\Users\stapi\AppData\Local\Temp\ccVrwyY4.s:114    .text.CoAPServer_yield:000000000000009e .L0 
C:\Users\stapi\AppData\Local\Temp\ccVrwyY4.s:116    .text.CoAPServer_yield:000000000000009e .L0 
C:\Users\stapi\AppData\Local\Temp\ccVrwyY4.s:118    .text.CoAPServer_yield:000000000000009e .L0 
C:\Users\stapi\AppData\Local\Temp\ccVrwyY4.s:122    .text.CoAPServer_yield:00000000000000aa .L0 
C:\Users\stapi\AppData\Local\Temp\ccVrwyY4.s:129    .text.CoAPServer_thread_leave:0000000000000000 CoAPServer_thread_leave
C:\Users\stapi\AppData\Local\Temp\ccVrwyY4.s:132    .text.CoAPServer_thread_leave:0000000000000000 .L0 
C:\Users\stapi\AppData\Local\Temp\ccVrwyY4.s:133    .text.CoAPServer_thread_leave:0000000000000000 .L0 
C:\Users\stapi\AppData\Local\Temp\ccVrwyY4.s:134    .text.CoAPServer_thread_leave:0000000000000000 .L0 
C:\Users\stapi\AppData\Local\Temp\ccVrwyY4.s:135    .text.CoAPServer_thread_leave:0000000000000000 .L0 
C:\Users\stapi\AppData\Local\Temp\ccVrwyY4.s:138    .text.CoAPServer_thread_leave:0000000000000008 .L0 
C:\Users\stapi\AppData\Local\Temp\ccVrwyY4.s:139    .text.CoAPServer_thread_leave:000000000000000a .L0 
C:\Users\stapi\AppData\Local\Temp\ccVrwyY4.s:146    .text.CoAPServer_add_timer:0000000000000000 CoAPServer_add_timer
C:\Users\stapi\AppData\Local\Temp\ccVrwyY4.s:149    .text.CoAPServer_add_timer:0000000000000000 .L0 
C:\Users\stapi\AppData\Local\Temp\ccVrwyY4.s:151    .text.CoAPServer_add_timer:0000000000000000 .L0 
C:\Users\stapi\AppData\Local\Temp\ccVrwyY4.s:152    .text.CoAPServer_add_timer:0000000000000000 .L0 
C:\Users\stapi\AppData\Local\Temp\ccVrwyY4.s:153    .text.CoAPServer_add_timer:0000000000000000 .L0 
C:\Users\stapi\AppData\Local\Temp\ccVrwyY4.s:154    .text.CoAPServer_add_timer:0000000000000002 .L0 
C:\Users\stapi\AppData\Local\Temp\ccVrwyY4.s:186    .text.CoAPServer_init:0000000000000000 CoAPServer_init
C:\Users\stapi\AppData\Local\Temp\ccVrwyY4.s:189    .text.CoAPServer_init:0000000000000000 .L0 
C:\Users\stapi\AppData\Local\Temp\ccVrwyY4.s:190    .text.CoAPServer_init:0000000000000000 .L0 
C:\Users\stapi\AppData\Local\Temp\ccVrwyY4.s:191    .text.CoAPServer_init:0000000000000008 .L0 
C:\Users\stapi\AppData\Local\Temp\ccVrwyY4.s:192    .text.CoAPServer_init:0000000000000008 .L0 
C:\Users\stapi\AppData\Local\Temp\ccVrwyY4.s:193    .text.CoAPServer_init:0000000000000008 .L0 
C:\Users\stapi\AppData\Local\Temp\ccVrwyY4.s:194    .text.CoAPServer_init:0000000000000008 .L0 
C:\Users\stapi\AppData\Local\Temp\ccVrwyY4.s:195    .text.CoAPServer_init:0000000000000008 .L0 
C:\Users\stapi\AppData\Local\Temp\ccVrwyY4.s:196    .text.CoAPServer_init:0000000000000008 .L0 
C:\Users\stapi\AppData\Local\Temp\ccVrwyY4.s:197    .text.CoAPServer_init:0000000000000008 .L0 
C:\Users\stapi\AppData\Local\Temp\ccVrwyY4.s:198    .text.CoAPServer_init:0000000000000008 .L0 
C:\Users\stapi\AppData\Local\Temp\ccVrwyY4.s:201    .text.CoAPServer_init:0000000000000008 .L0 
C:\Users\stapi\AppData\Local\Temp\ccVrwyY4.s:202    .text.CoAPServer_init:0000000000000008 .L0 
C:\Users\stapi\AppData\Local\Temp\ccVrwyY4.s:203    .text.CoAPServer_init:0000000000000008 .L0 
C:\Users\stapi\AppData\Local\Temp\ccVrwyY4.s:204    .text.CoAPServer_init:000000000000000a .L0 
C:\Users\stapi\AppData\Local\Temp\ccVrwyY4.s:206    .text.CoAPServer_init:000000000000000a .L0 
C:\Users\stapi\AppData\Local\Temp\ccVrwyY4.s:210    .text.CoAPServer_init:0000000000000010 .L0 
C:\Users\stapi\AppData\Local\Temp\ccVrwyY4.s:212    .text.CoAPServer_init:0000000000000014 .L0 
C:\Users\stapi\AppData\Local\Temp\ccVrwyY4.s:215    .text.CoAPServer_init:000000000000001c .L0 
C:\Users\stapi\AppData\Local\Temp\ccVrwyY4.s:216    .text.CoAPServer_init:000000000000001c .L0 
C:\Users\stapi\AppData\Local\Temp\ccVrwyY4.s:217    .text.CoAPServer_init:000000000000001c .L0 
C:\Users\stapi\AppData\Local\Temp\ccVrwyY4.s:222    .text.CoAPServer_init:0000000000000026 .L0 
C:\Users\stapi\AppData\Local\Temp\ccVrwyY4.s:224    .text.CoAPServer_init:0000000000000028 .L0 
C:\Users\stapi\AppData\Local\Temp\ccVrwyY4.s:227    .text.CoAPServer_init:0000000000000030 .L0 
C:\Users\stapi\AppData\Local\Temp\ccVrwyY4.s:230    .text.CoAPServer_init:0000000000000038 .L0 
C:\Users\stapi\AppData\Local\Temp\ccVrwyY4.s:231    .text.CoAPServer_init:0000000000000038 .L0 
C:\Users\stapi\AppData\Local\Temp\ccVrwyY4.s:234    .text.CoAPServer_init:0000000000000040 .L0 
C:\Users\stapi\AppData\Local\Temp\ccVrwyY4.s:237    .text.CoAPServer_init:0000000000000044 .L0 
C:\Users\stapi\AppData\Local\Temp\ccVrwyY4.s:238    .text.CoAPServer_init:0000000000000044 .L0 
C:\Users\stapi\AppData\Local\Temp\ccVrwyY4.s:242    .text.CoAPServer_init:000000000000004e .L0 
C:\Users\stapi\AppData\Local\Temp\ccVrwyY4.s:245    .text.CoAPServer_init:0000000000000054 .L0 
C:\Users\stapi\AppData\Local\Temp\ccVrwyY4.s:249    .text.CoAPServer_init:000000000000005c .L0 
C:\Users\stapi\AppData\Local\Temp\ccVrwyY4.s:251    .text.CoAPServer_init:0000000000000060 .L0 
C:\Users\stapi\AppData\Local\Temp\ccVrwyY4.s:253    .text.CoAPServer_init:0000000000000064 .L0 
C:\Users\stapi\AppData\Local\Temp\ccVrwyY4.s:255    .text.CoAPServer_init:0000000000000066 .L0 
C:\Users\stapi\AppData\Local\Temp\ccVrwyY4.s:256    .text.CoAPServer_init:0000000000000066 .L0 
C:\Users\stapi\AppData\Local\Temp\ccVrwyY4.s:257    .text.CoAPServer_init:0000000000000066 .L0 
C:\Users\stapi\AppData\Local\Temp\ccVrwyY4.s:259    .text.CoAPServer_init:0000000000000068 .L0 
C:\Users\stapi\AppData\Local\Temp\ccVrwyY4.s:260    .text.CoAPServer_init:0000000000000068 .L0 
C:\Users\stapi\AppData\Local\Temp\ccVrwyY4.s:261    .text.CoAPServer_init:0000000000000068 .L0 
C:\Users\stapi\AppData\Local\Temp\ccVrwyY4.s:262    .text.CoAPServer_init:0000000000000068 .L0 
C:\Users\stapi\AppData\Local\Temp\ccVrwyY4.s:263    .text.CoAPServer_init:0000000000000068 .L0 
C:\Users\stapi\AppData\Local\Temp\ccVrwyY4.s:264    .text.CoAPServer_init:0000000000000068 .L0 
C:\Users\stapi\AppData\Local\Temp\ccVrwyY4.s:266    .text.CoAPServer_init:000000000000006a .L0 
C:\Users\stapi\AppData\Local\Temp\ccVrwyY4.s:267    .text.CoAPServer_init:000000000000006a .L0 
C:\Users\stapi\AppData\Local\Temp\ccVrwyY4.s:269    .text.CoAPServer_init:000000000000006e .L0 
C:\Users\stapi\AppData\Local\Temp\ccVrwyY4.s:272    .text.CoAPServer_init:0000000000000076 .L0 
C:\Users\stapi\AppData\Local\Temp\ccVrwyY4.s:274    .text.CoAPServer_init:0000000000000078 .L0 
C:\Users\stapi\AppData\Local\Temp\ccVrwyY4.s:275    .text.CoAPServer_init:0000000000000078 .L0 
C:\Users\stapi\AppData\Local\Temp\ccVrwyY4.s:277    .text.CoAPServer_init:000000000000007a .L0 
C:\Users\stapi\AppData\Local\Temp\ccVrwyY4.s:278    .text.CoAPServer_init:000000000000007a .L0 
C:\Users\stapi\AppData\Local\Temp\ccVrwyY4.s:283    .text.CoAPServer_init:000000000000008a .L0 
C:\Users\stapi\AppData\Local\Temp\ccVrwyY4.s:288    .text.CoAPServer_init:0000000000000092 .L0 
C:\Users\stapi\AppData\Local\Temp\ccVrwyY4.s:291    .text.CoAPServer_init:000000000000009a .L0 
C:\Users\stapi\AppData\Local\Temp\ccVrwyY4.s:296    .text.CoAPServer_init:00000000000000aa .L0 
C:\Users\stapi\AppData\Local\Temp\ccVrwyY4.s:297    .text.CoAPServer_init:00000000000000aa .L0 
C:\Users\stapi\AppData\Local\Temp\ccVrwyY4.s:301    .text.CoAPServer_init:00000000000000b4 .L0 
C:\Users\stapi\AppData\Local\Temp\ccVrwyY4.s:302    .text.CoAPServer_init:00000000000000b4 .L0 
C:\Users\stapi\AppData\Local\Temp\ccVrwyY4.s:307    .text.CoAPServer_init:00000000000000b6 .L0 
C:\Users\stapi\AppData\Local\Temp\ccVrwyY4.s:308    .text.CoAPServer_init:00000000000000b6 .L0 
C:\Users\stapi\AppData\Local\Temp\ccVrwyY4.s:311    .text.CoAPServer_init:00000000000000be .L0 
C:\Users\stapi\AppData\Local\Temp\ccVrwyY4.s:313    .text.CoAPServer_init:00000000000000c0 .L0 
C:\Users\stapi\AppData\Local\Temp\ccVrwyY4.s:314    .text.CoAPServer_init:00000000000000c0 .L0 
C:\Users\stapi\AppData\Local\Temp\ccVrwyY4.s:316    .text.CoAPServer_init:00000000000000c2 .L0 
C:\Users\stapi\AppData\Local\Temp\ccVrwyY4.s:320    .text.CoAPServer_init:00000000000000c4 .L0 
C:\Users\stapi\AppData\Local\Temp\ccVrwyY4.s:322    .text.CoAPServer_init:00000000000000c8 .L0 
C:\Users\stapi\AppData\Local\Temp\ccVrwyY4.s:323    .text.CoAPServer_init:00000000000000c8 .L0 
C:\Users\stapi\AppData\Local\Temp\ccVrwyY4.s:325    .text.CoAPServer_init:00000000000000d0 .L0 
C:\Users\stapi\AppData\Local\Temp\ccVrwyY4.s:326    .text.CoAPServer_init:00000000000000d0 .L0 
C:\Users\stapi\AppData\Local\Temp\ccVrwyY4.s:327    .text.CoAPServer_init:00000000000000d0 .L0 
C:\Users\stapi\AppData\Local\Temp\ccVrwyY4.s:328    .text.CoAPServer_init:00000000000000d0 .L0 
C:\Users\stapi\AppData\Local\Temp\ccVrwyY4.s:329    .text.CoAPServer_init:00000000000000d0 .L0 
C:\Users\stapi\AppData\Local\Temp\ccVrwyY4.s:330    .text.CoAPServer_init:00000000000000d0 .L0 
C:\Users\stapi\AppData\Local\Temp\ccVrwyY4.s:331    .text.CoAPServer_init:00000000000000d0 .L0 
C:\Users\stapi\AppData\Local\Temp\ccVrwyY4.s:332    .text.CoAPServer_init:00000000000000d0 .L0 
C:\Users\stapi\AppData\Local\Temp\ccVrwyY4.s:335    .text.CoAPServer_init:00000000000000d0 .L0 
C:\Users\stapi\AppData\Local\Temp\ccVrwyY4.s:338    .text.CoAPServer_init:00000000000000d0 .L0 
C:\Users\stapi\AppData\Local\Temp\ccVrwyY4.s:339    .text.CoAPServer_init:00000000000000d0 .L0 
C:\Users\stapi\AppData\Local\Temp\ccVrwyY4.s:341    .text.CoAPServer_init:00000000000000d4 .L0 
C:\Users\stapi\AppData\Local\Temp\ccVrwyY4.s:344    .text.CoAPServer_init:00000000000000dc .L0 
C:\Users\stapi\AppData\Local\Temp\ccVrwyY4.s:347    .text.CoAPServer_init:00000000000000e4 .L0 
C:\Users\stapi\AppData\Local\Temp\ccVrwyY4.s:348    .text.CoAPServer_init:00000000000000e4 .L0 
C:\Users\stapi\AppData\Local\Temp\ccVrwyY4.s:350    .text.CoAPServer_init:00000000000000e6 .L0 
C:\Users\stapi\AppData\Local\Temp\ccVrwyY4.s:351    .text.CoAPServer_init:00000000000000e6 .L0 
C:\Users\stapi\AppData\Local\Temp\ccVrwyY4.s:356    .text.CoAPServer_init:00000000000000f6 .L0 
C:\Users\stapi\AppData\Local\Temp\ccVrwyY4.s:361    .text.CoAPServer_init:0000000000000106 .L0 
C:\Users\stapi\AppData\Local\Temp\ccVrwyY4.s:366    .text.CoAPServer_init:0000000000000116 .L0 
C:\Users\stapi\AppData\Local\Temp\ccVrwyY4.s:367    .text.CoAPServer_init:0000000000000116 .L0 
C:\Users\stapi\AppData\Local\Temp\ccVrwyY4.s:371    .text.CoAPServer_init:0000000000000120 .L0 
C:\Users\stapi\AppData\Local\Temp\ccVrwyY4.s:375    .text.CoAPServer_init:000000000000012a .L0 
C:\Users\stapi\AppData\Local\Temp\ccVrwyY4.s:376    .text.CoAPServer_init:000000000000012a .L0 
C:\Users\stapi\AppData\Local\Temp\ccVrwyY4.s:378    .text.CoAPServer_init:000000000000012e .L0 
C:\Users\stapi\AppData\Local\Temp\ccVrwyY4.s:379    .text.CoAPServer_init:000000000000012e .L0 
C:\Users\stapi\AppData\Local\Temp\ccVrwyY4.s:382    .text.CoAPServer_init:0000000000000130 .L0 
C:\Users\stapi\AppData\Local\Temp\ccVrwyY4.s:383    .text.CoAPServer_init:0000000000000130 .L0 
C:\Users\stapi\AppData\Local\Temp\ccVrwyY4.s:387    .text.CoAPServer_init:000000000000013a .L0 
C:\Users\stapi\AppData\Local\Temp\ccVrwyY4.s:389    .text.CoAPServer_init:000000000000013e .L0 
C:\Users\stapi\AppData\Local\Temp\ccVrwyY4.s:390    .text.CoAPServer_init:000000000000013e .L0 
C:\Users\stapi\AppData\Local\Temp\ccVrwyY4.s:392    .text.CoAPServer_init:0000000000000140 .L0 
C:\Users\stapi\AppData\Local\Temp\ccVrwyY4.s:394    .text.CoAPServer_init:0000000000000142 .L0 
C:\Users\stapi\AppData\Local\Temp\ccVrwyY4.s:398    .text.CoAPServer_init:000000000000014c .L0 
C:\Users\stapi\AppData\Local\Temp\ccVrwyY4.s:402    .text.CoAPServer_init:0000000000000158 .L0 
C:\Users\stapi\AppData\Local\Temp\ccVrwyY4.s:403    .text.CoAPServer_init:0000000000000158 .L0 
C:\Users\stapi\AppData\Local\Temp\ccVrwyY4.s:406    .text.CoAPServer_init:0000000000000160 .L0 
C:\Users\stapi\AppData\Local\Temp\ccVrwyY4.s:408    .text.CoAPServer_init:0000000000000164 .L0 
C:\Users\stapi\AppData\Local\Temp\ccVrwyY4.s:409    .text.CoAPServer_init:0000000000000164 .L0 
C:\Users\stapi\AppData\Local\Temp\ccVrwyY4.s:411    .text.CoAPServer_init:0000000000000168 .L0 
C:\Users\stapi\AppData\Local\Temp\ccVrwyY4.s:412    .text.CoAPServer_init:0000000000000168 .L0 
C:\Users\stapi\AppData\Local\Temp\ccVrwyY4.s:415    .text.CoAPServer_init:0000000000000170 .L0 
C:\Users\stapi\AppData\Local\Temp\ccVrwyY4.s:420    .text.CoAPServer_init:000000000000017a .L0 
C:\Users\stapi\AppData\Local\Temp\ccVrwyY4.s:421    .text.CoAPServer_init:000000000000017a .L0 
C:\Users\stapi\AppData\Local\Temp\ccVrwyY4.s:425    .text.CoAPServer_init:0000000000000184 .L0 
C:\Users\stapi\AppData\Local\Temp\ccVrwyY4.s:426    .text.CoAPServer_init:0000000000000184 .L0 
C:\Users\stapi\AppData\Local\Temp\ccVrwyY4.s:430    .text.CoAPServer_init:000000000000018c .L0 
C:\Users\stapi\AppData\Local\Temp\ccVrwyY4.s:432    .text.CoAPServer_init:0000000000000190 .L0 
C:\Users\stapi\AppData\Local\Temp\ccVrwyY4.s:434    .text.CoAPServer_init:0000000000000194 .L0 
C:\Users\stapi\AppData\Local\Temp\ccVrwyY4.s:436    .text.CoAPServer_init:0000000000000198 .L0 
C:\Users\stapi\AppData\Local\Temp\ccVrwyY4.s:438    .text.CoAPServer_init:000000000000019c .L0 
C:\Users\stapi\AppData\Local\Temp\ccVrwyY4.s:443    .text.CoAPServer_init:00000000000001a8 .L0 
C:\Users\stapi\AppData\Local\Temp\ccVrwyY4.s:447    .text.CoAPServer_init:00000000000001ae .L0 
C:\Users\stapi\AppData\Local\Temp\ccVrwyY4.s:448    .text.CoAPServer_init:00000000000001ae .L0 
C:\Users\stapi\AppData\Local\Temp\ccVrwyY4.s:449    .text.CoAPServer_init:00000000000001ae .L0 
C:\Users\stapi\AppData\Local\Temp\ccVrwyY4.s:451    .text.CoAPServer_init:00000000000001b0 .L0 
C:\Users\stapi\AppData\Local\Temp\ccVrwyY4.s:452    .text.CoAPServer_init:00000000000001b0 .L0 
C:\Users\stapi\AppData\Local\Temp\ccVrwyY4.s:455    .text.CoAPServer_init:00000000000001b8 .L0 
C:\Users\stapi\AppData\Local\Temp\ccVrwyY4.s:456    .text.CoAPServer_init:00000000000001b8 .L0 
C:\Users\stapi\AppData\Local\Temp\ccVrwyY4.s:458    .text.CoAPServer_init:00000000000001ba .L0 
C:\Users\stapi\AppData\Local\Temp\ccVrwyY4.s:463    .text.CoAPServer_init:00000000000001c4 .L0 
C:\Users\stapi\AppData\Local\Temp\ccVrwyY4.s:467    .text.CoAPServer_init:00000000000001d0 .L0 
C:\Users\stapi\AppData\Local\Temp\ccVrwyY4.s:471    .text.CoAPServer_init:00000000000001dc .L0 
C:\Users\stapi\AppData\Local\Temp\ccVrwyY4.s:472    .text.CoAPServer_init:00000000000001dc .L0 
C:\Users\stapi\AppData\Local\Temp\ccVrwyY4.s:475    .text.CoAPServer_init:00000000000001e4 .L0 
C:\Users\stapi\AppData\Local\Temp\ccVrwyY4.s:477    .text.CoAPServer_init:00000000000001e8 .L0 
C:\Users\stapi\AppData\Local\Temp\ccVrwyY4.s:478    .text.CoAPServer_init:00000000000001e8 .L0 
C:\Users\stapi\AppData\Local\Temp\ccVrwyY4.s:480    .text.CoAPServer_init:00000000000001ec .L0 
C:\Users\stapi\AppData\Local\Temp\ccVrwyY4.s:481    .text.CoAPServer_init:00000000000001ec .L0 
C:\Users\stapi\AppData\Local\Temp\ccVrwyY4.s:483    .text.CoAPServer_init:00000000000001f0 .L0 
C:\Users\stapi\AppData\Local\Temp\ccVrwyY4.s:484    .text.CoAPServer_init:00000000000001f0 .L0 
C:\Users\stapi\AppData\Local\Temp\ccVrwyY4.s:487    .text.CoAPServer_init:00000000000001f8 .L0 
C:\Users\stapi\AppData\Local\Temp\ccVrwyY4.s:494    .text.CoAPServer_init:0000000000000202 .L0 
C:\Users\stapi\AppData\Local\Temp\ccVrwyY4.s:495    .text.CoAPServer_init:0000000000000202 .L0 
C:\Users\stapi\AppData\Local\Temp\ccVrwyY4.s:500    .text.CoAPServer_init:0000000000000212 .L0 
C:\Users\stapi\AppData\Local\Temp\ccVrwyY4.s:505    .text.CoAPServer_init:0000000000000222 .L0 
C:\Users\stapi\AppData\Local\Temp\ccVrwyY4.s:511    .text.CoAPServer_init:0000000000000232 .L0 
C:\Users\stapi\AppData\Local\Temp\ccVrwyY4.s:512    .text.CoAPServer_init:0000000000000232 .L0 
C:\Users\stapi\AppData\Local\Temp\ccVrwyY4.s:516    .text.CoAPServer_init:000000000000023c .L0 
C:\Users\stapi\AppData\Local\Temp\ccVrwyY4.s:517    .text.CoAPServer_init:000000000000023c .L0 
C:\Users\stapi\AppData\Local\Temp\ccVrwyY4.s:519    .text.CoAPServer_init:0000000000000242 .L0 
C:\Users\stapi\AppData\Local\Temp\ccVrwyY4.s:539    .text.CoAPServer_deinit:0000000000000000 CoAPServer_deinit
C:\Users\stapi\AppData\Local\Temp\ccVrwyY4.s:542    .text.CoAPServer_deinit:0000000000000000 .L0 
C:\Users\stapi\AppData\Local\Temp\ccVrwyY4.s:544    .text.CoAPServer_deinit:0000000000000000 .L0 
C:\Users\stapi\AppData\Local\Temp\ccVrwyY4.s:545    .text.CoAPServer_deinit:0000000000000008 .L0 
C:\Users\stapi\AppData\Local\Temp\ccVrwyY4.s:546    .text.CoAPServer_deinit:0000000000000008 .L0 
C:\Users\stapi\AppData\Local\Temp\ccVrwyY4.s:547    .text.CoAPServer_deinit:0000000000000008 .L0 
C:\Users\stapi\AppData\Local\Temp\ccVrwyY4.s:548    .text.CoAPServer_deinit:0000000000000008 .L0 
C:\Users\stapi\AppData\Local\Temp\ccVrwyY4.s:549    .text.CoAPServer_deinit:0000000000000008 .L0 
C:\Users\stapi\AppData\Local\Temp\ccVrwyY4.s:550    .text.CoAPServer_deinit:0000000000000008 .L0 
C:\Users\stapi\AppData\Local\Temp\ccVrwyY4.s:551    .text.CoAPServer_deinit:0000000000000008 .L0 
C:\Users\stapi\AppData\Local\Temp\ccVrwyY4.s:552    .text.CoAPServer_deinit:0000000000000008 .L0 
C:\Users\stapi\AppData\Local\Temp\ccVrwyY4.s:554    .text.CoAPServer_deinit:0000000000000008 .L0 
C:\Users\stapi\AppData\Local\Temp\ccVrwyY4.s:555    .text.CoAPServer_deinit:0000000000000008 .L0 
C:\Users\stapi\AppData\Local\Temp\ccVrwyY4.s:557    .text.CoAPServer_deinit:000000000000000c .L0 
C:\Users\stapi\AppData\Local\Temp\ccVrwyY4.s:561    .text.CoAPServer_deinit:0000000000000018 .L0 
C:\Users\stapi\AppData\Local\Temp\ccVrwyY4.s:562    .text.CoAPServer_deinit:0000000000000018 .L0 
C:\Users\stapi\AppData\Local\Temp\ccVrwyY4.s:568    .text.CoAPServer_deinit:0000000000000028 .L0 
C:\Users\stapi\AppData\Local\Temp\ccVrwyY4.s:572    .text.CoAPServer_deinit:0000000000000030 .L0 
C:\Users\stapi\AppData\Local\Temp\ccVrwyY4.s:575    .text.CoAPServer_deinit:0000000000000038 .L0 
C:\Users\stapi\AppData\Local\Temp\ccVrwyY4.s:579    .text.CoAPServer_deinit:0000000000000044 .L0 
C:\Users\stapi\AppData\Local\Temp\ccVrwyY4.s:581    .text.CoAPServer_deinit:0000000000000044 .L0 
C:\Users\stapi\AppData\Local\Temp\ccVrwyY4.s:582    .text.CoAPServer_deinit:0000000000000044 .L0 
C:\Users\stapi\AppData\Local\Temp\ccVrwyY4.s:583    .text.CoAPServer_deinit:000000000000004c .L0 
C:\Users\stapi\AppData\Local\Temp\ccVrwyY4.s:584    .text.CoAPServer_deinit:000000000000004c .L0 
C:\Users\stapi\AppData\Local\Temp\ccVrwyY4.s:585    .text.CoAPServer_deinit:000000000000004c .L0 
C:\Users\stapi\AppData\Local\Temp\ccVrwyY4.s:586    .text.CoAPServer_deinit:000000000000004c .L0 
C:\Users\stapi\AppData\Local\Temp\ccVrwyY4.s:587    .text.CoAPServer_deinit:000000000000004c .L0 
C:\Users\stapi\AppData\Local\Temp\ccVrwyY4.s:588    .text.CoAPServer_deinit:000000000000004c .L0 
C:\Users\stapi\AppData\Local\Temp\ccVrwyY4.s:589    .text.CoAPServer_deinit:000000000000004c .L0 
C:\Users\stapi\AppData\Local\Temp\ccVrwyY4.s:590    .text.CoAPServer_deinit:000000000000004c .L0 
C:\Users\stapi\AppData\Local\Temp\ccVrwyY4.s:591    .text.CoAPServer_deinit:000000000000004c .L0 
C:\Users\stapi\AppData\Local\Temp\ccVrwyY4.s:594    .text.CoAPServer_deinit:000000000000004c .L0 
C:\Users\stapi\AppData\Local\Temp\ccVrwyY4.s:596    .text.CoAPServer_deinit:000000000000004c .L0 
C:\Users\stapi\AppData\Local\Temp\ccVrwyY4.s:599    .text.CoAPServer_deinit:0000000000000052 .L0 
C:\Users\stapi\AppData\Local\Temp\ccVrwyY4.s:600    .text.CoAPServer_deinit:0000000000000052 .L0 
C:\Users\stapi\AppData\Local\Temp\ccVrwyY4.s:604    .text.CoAPServer_deinit:000000000000005a .L0 
C:\Users\stapi\AppData\Local\Temp\ccVrwyY4.s:606    .text.CoAPServer_deinit:000000000000005c .L0 
C:\Users\stapi\AppData\Local\Temp\ccVrwyY4.s:607    .text.CoAPServer_deinit:000000000000005c .L0 
C:\Users\stapi\AppData\Local\Temp\ccVrwyY4.s:612    .text.CoAPServer_deinit:000000000000006c .L0 
C:\Users\stapi\AppData\Local\Temp\ccVrwyY4.s:617    .text.CoAPServer_deinit:0000000000000076 .L0 
C:\Users\stapi\AppData\Local\Temp\ccVrwyY4.s:620    .text.CoAPServer_deinit:000000000000007e .L0 
C:\Users\stapi\AppData\Local\Temp\ccVrwyY4.s:630    .text.CoAPServer_deinit:00000000000000a2 .L0 
C:\Users\stapi\AppData\Local\Temp\ccVrwyY4.s:632    .text.CoAPServer_deinit:00000000000000a6 .L0 
C:\Users\stapi\AppData\Local\Temp\ccVrwyY4.s:635    .text.CoAPServer_deinit:00000000000000ae .L0 
C:\Users\stapi\AppData\Local\Temp\ccVrwyY4.s:638    .text.CoAPServer_deinit:00000000000000b6 .L0 
C:\Users\stapi\AppData\Local\Temp\ccVrwyY4.s:642    .text.CoAPServer_deinit:00000000000000c2 .L0 
C:\Users\stapi\AppData\Local\Temp\ccVrwyY4.s:643    .text.CoAPServer_deinit:00000000000000c2 .L0 
C:\Users\stapi\AppData\Local\Temp\ccVrwyY4.s:644    .text.CoAPServer_deinit:00000000000000c2 .L0 
C:\Users\stapi\AppData\Local\Temp\ccVrwyY4.s:645    .text.CoAPServer_deinit:00000000000000c2 .L0 
C:\Users\stapi\AppData\Local\Temp\ccVrwyY4.s:646    .text.CoAPServer_deinit:00000000000000c2 .L0 
C:\Users\stapi\AppData\Local\Temp\ccVrwyY4.s:647    .text.CoAPServer_deinit:00000000000000c2 .L0 
C:\Users\stapi\AppData\Local\Temp\ccVrwyY4.s:648    .text.CoAPServer_deinit:00000000000000c2 .L0 
C:\Users\stapi\AppData\Local\Temp\ccVrwyY4.s:649    .text.CoAPServer_deinit:00000000000000c2 .L0 
C:\Users\stapi\AppData\Local\Temp\ccVrwyY4.s:650    .text.CoAPServer_deinit:00000000000000c2 .L0 
C:\Users\stapi\AppData\Local\Temp\ccVrwyY4.s:652    .text.CoAPServer_deinit:00000000000000c4 .L0 
C:\Users\stapi\AppData\Local\Temp\ccVrwyY4.s:656    .text.CoAPServer_deinit:00000000000000ce .L0 
C:\Users\stapi\AppData\Local\Temp\ccVrwyY4.s:657    .text.CoAPServer_deinit:00000000000000ce .L0 
C:\Users\stapi\AppData\Local\Temp\ccVrwyY4.s:661    .text.CoAPServer_deinit:00000000000000da .L0 
C:\Users\stapi\AppData\Local\Temp\ccVrwyY4.s:666    .text.CoAPServer_deinit:00000000000000ea .L0 
C:\Users\stapi\AppData\Local\Temp\ccVrwyY4.s:670    .text.CoAPServer_deinit:00000000000000f6 .L0 
C:\Users\stapi\AppData\Local\Temp\ccVrwyY4.s:671    .text.CoAPServer_deinit:00000000000000f6 .L0 
C:\Users\stapi\AppData\Local\Temp\ccVrwyY4.s:675    .text.CoAPServer_deinit:0000000000000102 .L0 
C:\Users\stapi\AppData\Local\Temp\ccVrwyY4.s:676    .text.CoAPServer_deinit:0000000000000102 .L0 
C:\Users\stapi\AppData\Local\Temp\ccVrwyY4.s:679    .text.CoAPServer_deinit:0000000000000106 .L0 
C:\Users\stapi\AppData\Local\Temp\ccVrwyY4.s:680    .text.CoAPServer_deinit:0000000000000106 .L0 
C:\Users\stapi\AppData\Local\Temp\ccVrwyY4.s:684    .text.CoAPServer_deinit:0000000000000112 .L0 
C:\Users\stapi\AppData\Local\Temp\ccVrwyY4.s:686    .text.CoAPServer_deinit:0000000000000114 .L0 
C:\Users\stapi\AppData\Local\Temp\ccVrwyY4.s:689    .text.CoAPServer_deinit:000000000000011c .L0 
C:\Users\stapi\AppData\Local\Temp\ccVrwyY4.s:690    .text.CoAPServer_deinit:000000000000011c .L0 
C:\Users\stapi\AppData\Local\Temp\ccVrwyY4.s:693    .text.CoAPServer_deinit:0000000000000120 .L0 
C:\Users\stapi\AppData\Local\Temp\ccVrwyY4.s:694    .text.CoAPServer_deinit:0000000000000120 .L0 
C:\Users\stapi\AppData\Local\Temp\ccVrwyY4.s:696    .text.CoAPServer_deinit:0000000000000122 .L0 
C:\Users\stapi\AppData\Local\Temp\ccVrwyY4.s:700    .text.CoAPServer_deinit:000000000000012c .L0 
C:\Users\stapi\AppData\Local\Temp\ccVrwyY4.s:701    .text.CoAPServer_deinit:000000000000012c .L0 
C:\Users\stapi\AppData\Local\Temp\ccVrwyY4.s:704    .text.CoAPServer_deinit:0000000000000130 .L0 
C:\Users\stapi\AppData\Local\Temp\ccVrwyY4.s:708    .text.CoAPServer_deinit:000000000000013a .L0 
C:\Users\stapi\AppData\Local\Temp\ccVrwyY4.s:712    .text.CoAPServer_deinit:0000000000000144 .L0 
C:\Users\stapi\AppData\Local\Temp\ccVrwyY4.s:713    .text.CoAPServer_deinit:0000000000000144 .L0 
C:\Users\stapi\AppData\Local\Temp\ccVrwyY4.s:715    .text.CoAPServer_deinit:000000000000014a .L0 
C:\Users\stapi\AppData\Local\Temp\ccVrwyY4.s:722    .text.CoAPServer_register:0000000000000000 CoAPServer_register
C:\Users\stapi\AppData\Local\Temp\ccVrwyY4.s:725    .text.CoAPServer_register:0000000000000000 .L0 
C:\Users\stapi\AppData\Local\Temp\ccVrwyY4.s:727    .text.CoAPServer_register:0000000000000000 .L0 
C:\Users\stapi\AppData\Local\Temp\ccVrwyY4.s:728    .text.CoAPServer_register:0000000000000000 .L0 
C:\Users\stapi\AppData\Local\Temp\ccVrwyY4.s:729    .text.CoAPServer_register:0000000000000000 .L0 
C:\Users\stapi\AppData\Local\Temp\ccVrwyY4.s:731    .text.CoAPServer_register:0000000000000002 .L0 
C:\Users\stapi\AppData\Local\Temp\ccVrwyY4.s:736    .text.CoAPServer_register:000000000000000c .L0 
C:\Users\stapi\AppData\Local\Temp\ccVrwyY4.s:738    .text.CoAPServer_register:0000000000000010 .L0 
C:\Users\stapi\AppData\Local\Temp\ccVrwyY4.s:740    .text.CoAPServer_register:0000000000000014 .L0 
C:\Users\stapi\AppData\Local\Temp\ccVrwyY4.s:741    .text.CoAPServer_register:0000000000000014 .L0 
C:\Users\stapi\AppData\Local\Temp\ccVrwyY4.s:748    .text.CoAPServer_register:0000000000000026 .L0 
C:\Users\stapi\AppData\Local\Temp\ccVrwyY4.s:752    .text.CoAPServer_register:000000000000002a .L0 
C:\Users\stapi\AppData\Local\Temp\ccVrwyY4.s:755    .text.CoAPServer_register:000000000000002e .L0 
C:\Users\stapi\AppData\Local\Temp\ccVrwyY4.s:772    .text.CoAPServerMultiCast_send:0000000000000000 CoAPServerMultiCast_send
C:\Users\stapi\AppData\Local\Temp\ccVrwyY4.s:775    .text.CoAPServerMultiCast_send:0000000000000000 .L0 
C:\Users\stapi\AppData\Local\Temp\ccVrwyY4.s:777    .text.CoAPServerMultiCast_send:0000000000000000 .L0 
C:\Users\stapi\AppData\Local\Temp\ccVrwyY4.s:778    .text.CoAPServerMultiCast_send:0000000000000008 .L0 
C:\Users\stapi\AppData\Local\Temp\ccVrwyY4.s:779    .text.CoAPServerMultiCast_send:0000000000000008 .L0 
C:\Users\stapi\AppData\Local\Temp\ccVrwyY4.s:780    .text.CoAPServerMultiCast_send:0000000000000008 .L0 
C:\Users\stapi\AppData\Local\Temp\ccVrwyY4.s:781    .text.CoAPServerMultiCast_send:0000000000000008 .L0 
C:\Users\stapi\AppData\Local\Temp\ccVrwyY4.s:782    .text.CoAPServerMultiCast_send:0000000000000008 .L0 
C:\Users\stapi\AppData\Local\Temp\ccVrwyY4.s:783    .text.CoAPServerMultiCast_send:0000000000000008 .L0 
C:\Users\stapi\AppData\Local\Temp\ccVrwyY4.s:784    .text.CoAPServerMultiCast_send:0000000000000008 .L0 
C:\Users\stapi\AppData\Local\Temp\ccVrwyY4.s:785    .text.CoAPServerMultiCast_send:0000000000000008 .L0 
C:\Users\stapi\AppData\Local\Temp\ccVrwyY4.s:786    .text.CoAPServerMultiCast_send:0000000000000008 .L0 
C:\Users\stapi\AppData\Local\Temp\ccVrwyY4.s:787    .text.CoAPServerMultiCast_send:0000000000000008 .L0 
C:\Users\stapi\AppData\Local\Temp\ccVrwyY4.s:788    .text.CoAPServerMultiCast_send:0000000000000008 .L0 
C:\Users\stapi\AppData\Local\Temp\ccVrwyY4.s:791    .text.CoAPServerMultiCast_send:0000000000000008 .L0 
C:\Users\stapi\AppData\Local\Temp\ccVrwyY4.s:792    .text.CoAPServerMultiCast_send:0000000000000008 .L0 
C:\Users\stapi\AppData\Local\Temp\ccVrwyY4.s:793    .text.CoAPServerMultiCast_send:0000000000000008 .L0 
C:\Users\stapi\AppData\Local\Temp\ccVrwyY4.s:794    .text.CoAPServerMultiCast_send:0000000000000008 .L0 
C:\Users\stapi\AppData\Local\Temp\ccVrwyY4.s:795    .text.CoAPServerMultiCast_send:0000000000000008 .L0 
C:\Users\stapi\AppData\Local\Temp\ccVrwyY4.s:796    .text.CoAPServerMultiCast_send:000000000000000a .L0 
C:\Users\stapi\AppData\Local\Temp\ccVrwyY4.s:798    .text.CoAPServerMultiCast_send:000000000000000a .L0 
C:\Users\stapi\AppData\Local\Temp\ccVrwyY4.s:801    .text.CoAPServerMultiCast_send:000000000000000e .L0 
C:\Users\stapi\AppData\Local\Temp\ccVrwyY4.s:802    .text.CoAPServerMultiCast_send:000000000000000e .L0 
C:\Users\stapi\AppData\Local\Temp\ccVrwyY4.s:804    .text.CoAPServerMultiCast_send:0000000000000012 .L0 
C:\Users\stapi\AppData\Local\Temp\ccVrwyY4.s:807    .text.CoAPServerMultiCast_send:0000000000000018 .L0 
C:\Users\stapi\AppData\Local\Temp\ccVrwyY4.s:812    .text.CoAPServerMultiCast_send:0000000000000022 .L0 
C:\Users\stapi\AppData\Local\Temp\ccVrwyY4.s:814    .text.CoAPServerMultiCast_send:0000000000000026 .L0 
C:\Users\stapi\AppData\Local\Temp\ccVrwyY4.s:817    .text.CoAPServerMultiCast_send:000000000000002c .L0 
C:\Users\stapi\AppData\Local\Temp\ccVrwyY4.s:820    .text.CoAPServerMultiCast_send:0000000000000032 .L0 
C:\Users\stapi\AppData\Local\Temp\ccVrwyY4.s:823    .text.CoAPServerMultiCast_send:0000000000000038 .L0 
C:\Users\stapi\AppData\Local\Temp\ccVrwyY4.s:825    .text.CoAPServerMultiCast_send:000000000000003c .L0 
C:\Users\stapi\AppData\Local\Temp\ccVrwyY4.s:830    .text.CoAPServerMultiCast_send:0000000000000042 .L0 
C:\Users\stapi\AppData\Local\Temp\ccVrwyY4.s:833    .text.CoAPServerMultiCast_send:000000000000004a .L0 
C:\Users\stapi\AppData\Local\Temp\ccVrwyY4.s:838    .text.CoAPServerMultiCast_send:0000000000000056 .L0 
C:\Users\stapi\AppData\Local\Temp\ccVrwyY4.s:843    .text.CoAPServerMultiCast_send:0000000000000062 .L0 
C:\Users\stapi\AppData\Local\Temp\ccVrwyY4.s:853    .text.CoAPServerMultiCast_send:0000000000000078 .L0 
C:\Users\stapi\AppData\Local\Temp\ccVrwyY4.s:854    .text.CoAPServerMultiCast_send:0000000000000078 .L0 
C:\Users\stapi\AppData\Local\Temp\ccVrwyY4.s:855    .text.CoAPServerMultiCast_send:0000000000000078 .L0 
C:\Users\stapi\AppData\Local\Temp\ccVrwyY4.s:856    .text.CoAPServerMultiCast_send:0000000000000078 .L0 
C:\Users\stapi\AppData\Local\Temp\ccVrwyY4.s:860    .text.CoAPServerMultiCast_send:0000000000000082 .L0 
C:\Users\stapi\AppData\Local\Temp\ccVrwyY4.s:861    .text.CoAPServerMultiCast_send:0000000000000082 .L0 
C:\Users\stapi\AppData\Local\Temp\ccVrwyY4.s:864    .text.CoAPServerMultiCast_send:0000000000000082 .L0 
C:\Users\stapi\AppData\Local\Temp\ccVrwyY4.s:865    .text.CoAPServerMultiCast_send:0000000000000082 .L0 
C:\Users\stapi\AppData\Local\Temp\ccVrwyY4.s:870    .text.CoAPServerMultiCast_send:0000000000000086 .L0 
C:\Users\stapi\AppData\Local\Temp\ccVrwyY4.s:872    .text.CoAPServerMultiCast_send:0000000000000088 .L0 
C:\Users\stapi\AppData\Local\Temp\ccVrwyY4.s:873    .text.CoAPServerMultiCast_send:0000000000000088 .L0 
C:\Users\stapi\AppData\Local\Temp\ccVrwyY4.s:879    .text.CoAPServerMultiCast_send:000000000000008c .L0 
C:\Users\stapi\AppData\Local\Temp\ccVrwyY4.s:880    .text.CoAPServerMultiCast_send:000000000000008c .L0 
C:\Users\stapi\AppData\Local\Temp\ccVrwyY4.s:884    .text.CoAPServerMultiCast_send:0000000000000096 .L0 
C:\Users\stapi\AppData\Local\Temp\ccVrwyY4.s:889    .text.CoAPServerMultiCast_send:00000000000000a2 .L0 
C:\Users\stapi\AppData\Local\Temp\ccVrwyY4.s:890    .text.CoAPServerMultiCast_send:00000000000000a2 .L0 
C:\Users\stapi\AppData\Local\Temp\ccVrwyY4.s:896    .text.CoAPServerMultiCast_send:00000000000000b4 .L0 
C:\Users\stapi\AppData\Local\Temp\ccVrwyY4.s:898    .text.CoAPServerMultiCast_send:00000000000000b6 .L0 
C:\Users\stapi\AppData\Local\Temp\ccVrwyY4.s:906    .text.CoAPServerMultiCast_send:00000000000000c2 .L0 
C:\Users\stapi\AppData\Local\Temp\ccVrwyY4.s:907    .text.CoAPServerMultiCast_send:00000000000000c2 .L0 
C:\Users\stapi\AppData\Local\Temp\ccVrwyY4.s:908    .text.CoAPServerMultiCast_send:00000000000000c2 .L0 
C:\Users\stapi\AppData\Local\Temp\ccVrwyY4.s:909    .text.CoAPServerMultiCast_send:00000000000000c2 .L0 
C:\Users\stapi\AppData\Local\Temp\ccVrwyY4.s:910    .text.CoAPServerMultiCast_send:00000000000000c2 .L0 
C:\Users\stapi\AppData\Local\Temp\ccVrwyY4.s:917    .text.CoAPServerMultiCast_send:00000000000000d4 .L0 
C:\Users\stapi\AppData\Local\Temp\ccVrwyY4.s:918    .text.CoAPServerMultiCast_send:00000000000000d4 .L0 
C:\Users\stapi\AppData\Local\Temp\ccVrwyY4.s:919    .text.CoAPServerMultiCast_send:00000000000000d4 .L0 
C:\Users\stapi\AppData\Local\Temp\ccVrwyY4.s:923    .text.CoAPServerMultiCast_send:00000000000000de .L0 
C:\Users\stapi\AppData\Local\Temp\ccVrwyY4.s:926    .text.CoAPServerMultiCast_send:00000000000000e6 .L0 
C:\Users\stapi\AppData\Local\Temp\ccVrwyY4.s:927    .text.CoAPServerMultiCast_send:00000000000000e6 .L0 
C:\Users\stapi\AppData\Local\Temp\ccVrwyY4.s:932    .text.CoAPServerMultiCast_send:00000000000000f6 .L0 
C:\Users\stapi\AppData\Local\Temp\ccVrwyY4.s:941    .text.CoAPServerMultiCast_send:0000000000000112 .L0 
C:\Users\stapi\AppData\Local\Temp\ccVrwyY4.s:946    .text.CoAPServerMultiCast_send:0000000000000122 .L0 
C:\Users\stapi\AppData\Local\Temp\ccVrwyY4.s:950    .text.CoAPServerMultiCast_send:0000000000000122 .L0 
C:\Users\stapi\AppData\Local\Temp\ccVrwyY4.s:951    .text.CoAPServerMultiCast_send:0000000000000122 .L0 
C:\Users\stapi\AppData\Local\Temp\ccVrwyY4.s:957    .text.CoAPServerMultiCast_send:0000000000000132 .L0 
C:\Users\stapi\AppData\Local\Temp\ccVrwyY4.s:963    .text.CoAPServerMultiCast_send:0000000000000140 .L0 
C:\Users\stapi\AppData\Local\Temp\ccVrwyY4.s:964    .text.CoAPServerMultiCast_send:0000000000000140 .L0 
C:\Users\stapi\AppData\Local\Temp\ccVrwyY4.s:966    .text.CoAPServerMultiCast_send:0000000000000144 .L0 
C:\Users\stapi\AppData\Local\Temp\ccVrwyY4.s:967    .text.CoAPServerMultiCast_send:0000000000000144 .L0 
C:\Users\stapi\AppData\Local\Temp\ccVrwyY4.s:971    .text.CoAPServerMultiCast_send:000000000000014c .L0 
C:\Users\stapi\AppData\Local\Temp\ccVrwyY4.s:972    .text.CoAPServerMultiCast_send:000000000000014c .L0 
C:\Users\stapi\AppData\Local\Temp\ccVrwyY4.s:980    .text.CoAPServerMultiCast_send:000000000000015c .L0 
C:\Users\stapi\AppData\Local\Temp\ccVrwyY4.s:986    .text.CoAPServerMultiCast_send:0000000000000166 .L0 
C:\Users\stapi\AppData\Local\Temp\ccVrwyY4.s:987    .text.CoAPServerMultiCast_send:0000000000000166 .L0 
C:\Users\stapi\AppData\Local\Temp\ccVrwyY4.s:989    .text.CoAPServerMultiCast_send:000000000000016a .L0 
C:\Users\stapi\AppData\Local\Temp\ccVrwyY4.s:990    .text.CoAPServerMultiCast_send:000000000000016a .L0 
C:\Users\stapi\AppData\Local\Temp\ccVrwyY4.s:992    .text.CoAPServerMultiCast_send:0000000000000172 .L0 
C:\Users\stapi\AppData\Local\Temp\ccVrwyY4.s:993    .text.CoAPServerMultiCast_send:0000000000000172 .L0 
C:\Users\stapi\AppData\Local\Temp\ccVrwyY4.s:994    .text.CoAPServerMultiCast_send:0000000000000172 .L0 
C:\Users\stapi\AppData\Local\Temp\ccVrwyY4.s:995    .text.CoAPServerMultiCast_send:0000000000000172 .L0 
C:\Users\stapi\AppData\Local\Temp\ccVrwyY4.s:996    .text.CoAPServerMultiCast_send:0000000000000172 .L0 
C:\Users\stapi\AppData\Local\Temp\ccVrwyY4.s:997    .text.CoAPServerMultiCast_send:0000000000000172 .L0 
C:\Users\stapi\AppData\Local\Temp\ccVrwyY4.s:998    .text.CoAPServerMultiCast_send:0000000000000172 .L0 
C:\Users\stapi\AppData\Local\Temp\ccVrwyY4.s:999    .text.CoAPServerMultiCast_send:0000000000000172 .L0 
C:\Users\stapi\AppData\Local\Temp\ccVrwyY4.s:1000   .text.CoAPServerMultiCast_send:0000000000000172 .L0 
C:\Users\stapi\AppData\Local\Temp\ccVrwyY4.s:1001   .text.CoAPServerMultiCast_send:0000000000000172 .L0 
C:\Users\stapi\AppData\Local\Temp\ccVrwyY4.s:1002   .text.CoAPServerMultiCast_send:0000000000000172 .L0 
C:\Users\stapi\AppData\Local\Temp\ccVrwyY4.s:1005   .text.CoAPServerMultiCast_send:0000000000000172 .L0 
C:\Users\stapi\AppData\Local\Temp\ccVrwyY4.s:1009   .text.CoAPServerMultiCast_send:0000000000000172 .L0 
C:\Users\stapi\AppData\Local\Temp\ccVrwyY4.s:1021   .text.CoAPServerMultiCast_send:000000000000019a .L0 
C:\Users\stapi\AppData\Local\Temp\ccVrwyY4.s:1022   .text.CoAPServerMultiCast_send:000000000000019a .L0 
C:\Users\stapi\AppData\Local\Temp\ccVrwyY4.s:1023   .text.CoAPServerMultiCast_send:000000000000019a .L0 
C:\Users\stapi\AppData\Local\Temp\ccVrwyY4.s:1025   .text.CoAPServerMultiCast_send:000000000000019c .L0 
C:\Users\stapi\AppData\Local\Temp\ccVrwyY4.s:1029   .text.CoAPServerMultiCast_send:00000000000001a0 .L0 
C:\Users\stapi\AppData\Local\Temp\ccVrwyY4.s:1030   .text.CoAPServerMultiCast_send:00000000000001a0 .L0 
C:\Users\stapi\AppData\Local\Temp\ccVrwyY4.s:1032   .text.CoAPServerMultiCast_send:00000000000001a4 .L0 
C:\Users\stapi\AppData\Local\Temp\ccVrwyY4.s:1034   .text.CoAPServerMultiCast_send:00000000000001a6 .L0 
C:\Users\stapi\AppData\Local\Temp\ccVrwyY4.s:1036   .text.CoAPServerMultiCast_send:00000000000001aa .L0 
C:\Users\stapi\AppData\Local\Temp\ccVrwyY4.s:1038   .text.CoAPServerMultiCast_send:00000000000001ae .L0 
C:\Users\stapi\AppData\Local\Temp\ccVrwyY4.s:1039   .text.CoAPServerMultiCast_send:00000000000001ae .L0 
C:\Users\stapi\AppData\Local\Temp\ccVrwyY4.s:1041   .text.CoAPServerMultiCast_send:00000000000001b2 .L0 
C:\Users\stapi\AppData\Local\Temp\ccVrwyY4.s:1047   .text.CoAPServerMultiCast_send:00000000000001c2 .L0 
C:\Users\stapi\AppData\Local\Temp\ccVrwyY4.s:1053   .text.CoAPServerMultiCast_send:00000000000001d2 .L0 
C:\Users\stapi\AppData\Local\Temp\ccVrwyY4.s:1054   .text.CoAPServerMultiCast_send:00000000000001d2 .L0 
C:\Users\stapi\AppData\Local\Temp\ccVrwyY4.s:1058   .text.CoAPServerMultiCast_send:00000000000001dc .L0 
C:\Users\stapi\AppData\Local\Temp\ccVrwyY4.s:1067   .text.CoAPServerMultiCast_send:00000000000001ee .L0 
C:\Users\stapi\AppData\Local\Temp\ccVrwyY4.s:1071   .text.CoAPServerMultiCast_send:00000000000001f0 .L0 
C:\Users\stapi\AppData\Local\Temp\ccVrwyY4.s:1072   .text.CoAPServerMultiCast_send:00000000000001f0 .L0 
C:\Users\stapi\AppData\Local\Temp\ccVrwyY4.s:1075   .text.CoAPServerMultiCast_send:00000000000001f6 .L0 
C:\Users\stapi\AppData\Local\Temp\ccVrwyY4.s:1078   .text.CoAPServerMultiCast_send:00000000000001fc .L0 
C:\Users\stapi\AppData\Local\Temp\ccVrwyY4.s:1079   .text.CoAPServerMultiCast_send:00000000000001fc .L0 
C:\Users\stapi\AppData\Local\Temp\ccVrwyY4.s:1084   .text.CoAPServerMultiCast_send:0000000000000208 .L0 
C:\Users\stapi\AppData\Local\Temp\ccVrwyY4.s:1087   .text.CoAPServerMultiCast_send:0000000000000210 .L0 
C:\Users\stapi\AppData\Local\Temp\ccVrwyY4.s:1088   .text.CoAPServerMultiCast_send:0000000000000210 .L0 
C:\Users\stapi\AppData\Local\Temp\ccVrwyY4.s:1092   .text.CoAPServerMultiCast_send:000000000000021a .L0 
C:\Users\stapi\AppData\Local\Temp\ccVrwyY4.s:1101   .text.CoAPServerMultiCast_send:000000000000022c .L0 
C:\Users\stapi\AppData\Local\Temp\ccVrwyY4.s:1102   .text.CoAPServerMultiCast_send:000000000000022c .L0 
C:\Users\stapi\AppData\Local\Temp\ccVrwyY4.s:1107   .text.CoAPServerMultiCast_send:0000000000000230 .L0 
C:\Users\stapi\AppData\Local\Temp\ccVrwyY4.s:1118   .text.CoAPServerResp_send:0000000000000000 CoAPServerResp_send
C:\Users\stapi\AppData\Local\Temp\ccVrwyY4.s:1121   .text.CoAPServerResp_send:0000000000000000 .L0 
C:\Users\stapi\AppData\Local\Temp\ccVrwyY4.s:1123   .text.CoAPServerResp_send:0000000000000000 .L0 
C:\Users\stapi\AppData\Local\Temp\ccVrwyY4.s:1124   .text.CoAPServerResp_send:0000000000000008 .L0 
C:\Users\stapi\AppData\Local\Temp\ccVrwyY4.s:1125   .text.CoAPServerResp_send:0000000000000008 .L0 
C:\Users\stapi\AppData\Local\Temp\ccVrwyY4.s:1126   .text.CoAPServerResp_send:0000000000000008 .L0 
C:\Users\stapi\AppData\Local\Temp\ccVrwyY4.s:1127   .text.CoAPServerResp_send:0000000000000008 .L0 
C:\Users\stapi\AppData\Local\Temp\ccVrwyY4.s:1128   .text.CoAPServerResp_send:0000000000000008 .L0 
C:\Users\stapi\AppData\Local\Temp\ccVrwyY4.s:1129   .text.CoAPServerResp_send:0000000000000008 .L0 
C:\Users\stapi\AppData\Local\Temp\ccVrwyY4.s:1130   .text.CoAPServerResp_send:0000000000000008 .L0 
C:\Users\stapi\AppData\Local\Temp\ccVrwyY4.s:1131   .text.CoAPServerResp_send:0000000000000008 .L0 
C:\Users\stapi\AppData\Local\Temp\ccVrwyY4.s:1132   .text.CoAPServerResp_send:0000000000000008 .L0 
C:\Users\stapi\AppData\Local\Temp\ccVrwyY4.s:1133   .text.CoAPServerResp_send:0000000000000008 .L0 
C:\Users\stapi\AppData\Local\Temp\ccVrwyY4.s:1134   .text.CoAPServerResp_send:0000000000000008 .L0 
C:\Users\stapi\AppData\Local\Temp\ccVrwyY4.s:1135   .text.CoAPServerResp_send:0000000000000008 .L0 
C:\Users\stapi\AppData\Local\Temp\ccVrwyY4.s:1138   .text.CoAPServerResp_send:0000000000000008 .L0 
C:\Users\stapi\AppData\Local\Temp\ccVrwyY4.s:1139   .text.CoAPServerResp_send:0000000000000008 .L0 
C:\Users\stapi\AppData\Local\Temp\ccVrwyY4.s:1140   .text.CoAPServerResp_send:0000000000000008 .L0 
C:\Users\stapi\AppData\Local\Temp\ccVrwyY4.s:1141   .text.CoAPServerResp_send:0000000000000008 .L0 
C:\Users\stapi\AppData\Local\Temp\ccVrwyY4.s:1142   .text.CoAPServerResp_send:000000000000000a .L0 
C:\Users\stapi\AppData\Local\Temp\ccVrwyY4.s:1144   .text.CoAPServerResp_send:000000000000000a .L0 
C:\Users\stapi\AppData\Local\Temp\ccVrwyY4.s:1147   .text.CoAPServerResp_send:000000000000000c .L0 
C:\Users\stapi\AppData\Local\Temp\ccVrwyY4.s:1148   .text.CoAPServerResp_send:000000000000000c .L0 
C:\Users\stapi\AppData\Local\Temp\ccVrwyY4.s:1149   .text.CoAPServerResp_send:000000000000000c .L0 
C:\Users\stapi\AppData\Local\Temp\ccVrwyY4.s:1151   .text.CoAPServerResp_send:0000000000000010 .L0 
C:\Users\stapi\AppData\Local\Temp\ccVrwyY4.s:1153   .text.CoAPServerResp_send:0000000000000014 .L0 
C:\Users\stapi\AppData\Local\Temp\ccVrwyY4.s:1156   .text.CoAPServerResp_send:000000000000001a .L0 
C:\Users\stapi\AppData\Local\Temp\ccVrwyY4.s:1161   .text.CoAPServerResp_send:0000000000000024 .L0 
C:\Users\stapi\AppData\Local\Temp\ccVrwyY4.s:1163   .text.CoAPServerResp_send:0000000000000028 .L0 
C:\Users\stapi\AppData\Local\Temp\ccVrwyY4.s:1166   .text.CoAPServerResp_send:000000000000002e .L0 
C:\Users\stapi\AppData\Local\Temp\ccVrwyY4.s:1169   .text.CoAPServerResp_send:0000000000000034 .L0 
C:\Users\stapi\AppData\Local\Temp\ccVrwyY4.s:1171   .text.CoAPServerResp_send:0000000000000038 .L0 
C:\Users\stapi\AppData\Local\Temp\ccVrwyY4.s:1174   .text.CoAPServerResp_send:000000000000003e .L0 
C:\Users\stapi\AppData\Local\Temp\ccVrwyY4.s:1176   .text.CoAPServerResp_send:0000000000000040 .L0 
C:\Users\stapi\AppData\Local\Temp\ccVrwyY4.s:1181   .text.CoAPServerResp_send:0000000000000046 .L0 
C:\Users\stapi\AppData\Local\Temp\ccVrwyY4.s:1185   .text.CoAPServerResp_send:0000000000000050 .L0 
C:\Users\stapi\AppData\Local\Temp\ccVrwyY4.s:1190   .text.CoAPServerResp_send:000000000000005e .L0 
C:\Users\stapi\AppData\Local\Temp\ccVrwyY4.s:1195   .text.CoAPServerResp_send:000000000000006c .L0 
C:\Users\stapi\AppData\Local\Temp\ccVrwyY4.s:1200   .text.CoAPServerResp_send:000000000000007a .L0 
C:\Users\stapi\AppData\Local\Temp\ccVrwyY4.s:1201   .text.CoAPServerResp_send:000000000000007a .L0 
C:\Users\stapi\AppData\Local\Temp\ccVrwyY4.s:1203   .text.CoAPServerResp_send:000000000000007c .L0 
C:\Users\stapi\AppData\Local\Temp\ccVrwyY4.s:1206   .text.CoAPServerResp_send:0000000000000082 .L0 
C:\Users\stapi\AppData\Local\Temp\ccVrwyY4.s:1208   .text.CoAPServerResp_send:0000000000000084 .L0 
C:\Users\stapi\AppData\Local\Temp\ccVrwyY4.s:1212   .text.CoAPServerResp_send:000000000000008e .L0 
C:\Users\stapi\AppData\Local\Temp\ccVrwyY4.s:1217   .text.CoAPServerResp_send:000000000000009a .L0 
C:\Users\stapi\AppData\Local\Temp\ccVrwyY4.s:1218   .text.CoAPServerResp_send:000000000000009a .L0 
C:\Users\stapi\AppData\Local\Temp\ccVrwyY4.s:1220   .text.CoAPServerResp_send:000000000000009e .L0 
C:\Users\stapi\AppData\Local\Temp\ccVrwyY4.s:1221   .text.CoAPServerResp_send:000000000000009e .L0 
C:\Users\stapi\AppData\Local\Temp\ccVrwyY4.s:1225   .text.CoAPServerResp_send:00000000000000a6 .L0 
C:\Users\stapi\AppData\Local\Temp\ccVrwyY4.s:1226   .text.CoAPServerResp_send:00000000000000a6 .L0 
C:\Users\stapi\AppData\Local\Temp\ccVrwyY4.s:1232   .text.CoAPServerResp_send:00000000000000b4 .L0 
C:\Users\stapi\AppData\Local\Temp\ccVrwyY4.s:1233   .text.CoAPServerResp_send:00000000000000b4 .L0 
C:\Users\stapi\AppData\Local\Temp\ccVrwyY4.s:1238   .text.CoAPServerResp_send:00000000000000ba .L0 
C:\Users\stapi\AppData\Local\Temp\ccVrwyY4.s:1245   .text.CoAPServerResp_send:00000000000000ca .L0 
C:\Users\stapi\AppData\Local\Temp\ccVrwyY4.s:1252   .text.CoAPServerResp_send:00000000000000d8 .L0 
C:\Users\stapi\AppData\Local\Temp\ccVrwyY4.s:1258   .text.CoAPServerResp_send:00000000000000e8 .L0 
C:\Users\stapi\AppData\Local\Temp\ccVrwyY4.s:1264   .text.CoAPServerResp_send:00000000000000f6 .L0 
C:\Users\stapi\AppData\Local\Temp\ccVrwyY4.s:1275   .text.CoAPServerResp_send:000000000000011c .L0 
C:\Users\stapi\AppData\Local\Temp\ccVrwyY4.s:1276   .text.CoAPServerResp_send:000000000000011c .L0 
C:\Users\stapi\AppData\Local\Temp\ccVrwyY4.s:1284   .text.CoAPServerResp_send:000000000000012c .L0 
C:\Users\stapi\AppData\Local\Temp\ccVrwyY4.s:1290   .text.CoAPServerResp_send:0000000000000136 .L0 
C:\Users\stapi\AppData\Local\Temp\ccVrwyY4.s:1291   .text.CoAPServerResp_send:0000000000000136 .L0 
C:\Users\stapi\AppData\Local\Temp\ccVrwyY4.s:1293   .text.CoAPServerResp_send:000000000000013a .L0 
C:\Users\stapi\AppData\Local\Temp\ccVrwyY4.s:1296   .text.CoAPServerResp_send:0000000000000142 .L0 
C:\Users\stapi\AppData\Local\Temp\ccVrwyY4.s:1297   .text.CoAPServerResp_send:0000000000000142 .L0 
C:\Users\stapi\AppData\Local\Temp\ccVrwyY4.s:1298   .text.CoAPServerResp_send:0000000000000142 .L0 
C:\Users\stapi\AppData\Local\Temp\ccVrwyY4.s:1299   .text.CoAPServerResp_send:0000000000000142 .L0 
C:\Users\stapi\AppData\Local\Temp\ccVrwyY4.s:1300   .text.CoAPServerResp_send:0000000000000142 .L0 
C:\Users\stapi\AppData\Local\Temp\ccVrwyY4.s:1301   .text.CoAPServerResp_send:0000000000000142 .L0 
C:\Users\stapi\AppData\Local\Temp\ccVrwyY4.s:1302   .text.CoAPServerResp_send:0000000000000142 .L0 
C:\Users\stapi\AppData\Local\Temp\ccVrwyY4.s:1303   .text.CoAPServerResp_send:0000000000000142 .L0 
C:\Users\stapi\AppData\Local\Temp\ccVrwyY4.s:1304   .text.CoAPServerResp_send:0000000000000142 .L0 
C:\Users\stapi\AppData\Local\Temp\ccVrwyY4.s:1305   .text.CoAPServerResp_send:0000000000000142 .L0 
C:\Users\stapi\AppData\Local\Temp\ccVrwyY4.s:1306   .text.CoAPServerResp_send:0000000000000142 .L0 
C:\Users\stapi\AppData\Local\Temp\ccVrwyY4.s:1307   .text.CoAPServerResp_send:0000000000000142 .L0 
C:\Users\stapi\AppData\Local\Temp\ccVrwyY4.s:1308   .text.CoAPServerResp_send:0000000000000142 .L0 
C:\Users\stapi\AppData\Local\Temp\ccVrwyY4.s:1319   .text.CoAPServer_loop:0000000000000000 CoAPServer_loop
C:\Users\stapi\AppData\Local\Temp\ccVrwyY4.s:1322   .text.CoAPServer_loop:0000000000000000 .L0 
C:\Users\stapi\AppData\Local\Temp\ccVrwyY4.s:1324   .text.CoAPServer_loop:0000000000000000 .L0 
C:\Users\stapi\AppData\Local\Temp\ccVrwyY4.s:1325   .text.CoAPServer_loop:0000000000000000 .L0 
C:\Users\stapi\AppData\Local\Temp\ccVrwyY4.s:1326   .text.CoAPServer_loop:0000000000000000 .L0 
C:\Users\stapi\AppData\Local\Temp\ccVrwyY4.s:1330   .text.CoAPServer_loop:000000000000000c .L0 
C:\Users\stapi\AppData\Local\Temp\ccVrwyY4.s:1336   .text.CoAPServer_loop:000000000000001a .L0 
C:\Users\stapi\AppData\Local\Temp\ccVrwyY4.s:1337   .text.CoAPServer_loop:0000000000000022 .L0 
C:\Users\stapi\AppData\Local\Temp\ccVrwyY4.s:1338   .text.CoAPServer_loop:0000000000000022 .L0 
C:\Users\stapi\AppData\Local\Temp\ccVrwyY4.s:1340   .text.CoAPServer_loop:0000000000000022 .L0 
C:\Users\stapi\AppData\Local\Temp\ccVrwyY4.s:1341   .text.CoAPServer_loop:0000000000000022 .L0 
C:\Users\stapi\AppData\Local\Temp\ccVrwyY4.s:1347   .text.CoAPServer_loop:0000000000000032 .L0 
C:\Users\stapi\AppData\Local\Temp\ccVrwyY4.s:1352   .text.CoAPServer_loop:0000000000000042 .L0 
C:\Users\stapi\AppData\Local\Temp\ccVrwyY4.s:1357   .text.CoAPServer_loop:0000000000000052 .L0 
C:\Users\stapi\AppData\Local\Temp\ccVrwyY4.s:1358   .text.CoAPServer_loop:0000000000000052 .L0 
C:\Users\stapi\AppData\Local\Temp\ccVrwyY4.s:1359   .text.CoAPServer_loop:0000000000000052 .L0 
C:\Users\stapi\AppData\Local\Temp\ccVrwyY4.s:1360   .text.CoAPServer_loop:000000000000005a .L0 
C:\Users\stapi\AppData\Local\Temp\ccVrwyY4.s:1361   .text.CoAPServer_loop:000000000000005a .L0 
C:\Users\stapi\AppData\Local\Temp\ccVrwyY4.s:1365   .text.CoAPServer_loop:000000000000005c .L0 
C:\Users\stapi\AppData\Local\Temp\ccVrwyY4.s:1396   .sbss.coap_init_mutex:0000000000000000 coap_init_mutex
C:\Users\stapi\AppData\Local\Temp\ccVrwyY4.s:1403   .sbss.coap_yield_mutex:0000000000000000 coap_yield_mutex
C:\Users\stapi\AppData\Local\Temp\ccVrwyY4.s:1372   .rodata.__FUNCTION__.0:0000000000000000 .LANCHOR9
C:\Users\stapi\AppData\Local\Temp\ccVrwyY4.s:1375   .rodata.__FUNCTION__.0:0000000000000000 __FUNCTION__.0
C:\Users\stapi\AppData\Local\Temp\ccVrwyY4.s:1379   .rodata.__FUNCTION__.1:0000000000000000 .LANCHOR8
C:\Users\stapi\AppData\Local\Temp\ccVrwyY4.s:1382   .rodata.__FUNCTION__.1:0000000000000000 __FUNCTION__.1
C:\Users\stapi\AppData\Local\Temp\ccVrwyY4.s:1386   .rodata.__FUNCTION__.3:0000000000000000 .LANCHOR1
C:\Users\stapi\AppData\Local\Temp\ccVrwyY4.s:1389   .rodata.__FUNCTION__.3:0000000000000000 __FUNCTION__.3
C:\Users\stapi\AppData\Local\Temp\ccVrwyY4.s:1393   .sbss.coap_init_mutex:0000000000000000 .LANCHOR4
C:\Users\stapi\AppData\Local\Temp\ccVrwyY4.s:1400   .sbss.coap_yield_mutex:0000000000000000 .LANCHOR6
C:\Users\stapi\AppData\Local\Temp\ccVrwyY4.s:1407   .sbss.g_coap_running:0000000000000000 .LANCHOR2
C:\Users\stapi\AppData\Local\Temp\ccVrwyY4.s:1410   .sbss.g_coap_running:0000000000000000 g_coap_running
C:\Users\stapi\AppData\Local\Temp\ccVrwyY4.s:1414   .sbss.g_coap_thread:0000000000000000 .LANCHOR0
C:\Users\stapi\AppData\Local\Temp\ccVrwyY4.s:1417   .sbss.g_coap_thread:0000000000000000 g_coap_thread
C:\Users\stapi\AppData\Local\Temp\ccVrwyY4.s:1421   .sbss.g_context:0000000000000000 .LANCHOR5
C:\Users\stapi\AppData\Local\Temp\ccVrwyY4.s:1424   .sbss.g_context:0000000000000000 g_context
C:\Users\stapi\AppData\Local\Temp\ccVrwyY4.s:1428   .sbss.g_semphore:0000000000000000 .LANCHOR3
C:\Users\stapi\AppData\Local\Temp\ccVrwyY4.s:1431   .sbss.g_semphore:0000000000000000 g_semphore
C:\Users\stapi\AppData\Local\Temp\ccVrwyY4.s:1435   .sdata.value.2:0000000000000000 .LANCHOR7
C:\Users\stapi\AppData\Local\Temp\ccVrwyY4.s:1438   .sdata.value.2:0000000000000000 value.2
C:\Users\stapi\AppData\Local\Temp\ccVrwyY4.s:125    .text.CoAPServer_yield:00000000000000aa .L0 
C:\Users\stapi\AppData\Local\Temp\ccVrwyY4.s:142    .text.CoAPServer_thread_leave:000000000000000a .L0 
C:\Users\stapi\AppData\Local\Temp\ccVrwyY4.s:157    .text.CoAPServer_add_timer:0000000000000002 .L0 
C:\Users\stapi\AppData\Local\Temp\ccVrwyY4.s:522    .text.CoAPServer_init:0000000000000242 .L0 
C:\Users\stapi\AppData\Local\Temp\ccVrwyY4.s:718    .text.CoAPServer_deinit:000000000000014a .L0 
C:\Users\stapi\AppData\Local\Temp\ccVrwyY4.s:758    .text.CoAPServer_register:000000000000002e .L0 
C:\Users\stapi\AppData\Local\Temp\ccVrwyY4.s:1110   .text.CoAPServerMultiCast_send:0000000000000230 .L0 
C:\Users\stapi\AppData\Local\Temp\ccVrwyY4.s:1311   .text.CoAPServerResp_send:0000000000000142 .L0 
C:\Users\stapi\AppData\Local\Temp\ccVrwyY4.s:1370   .text.CoAPServer_loop:000000000000005c .L0 
                     .debug_frame:0000000000000000 .L0 
C:\Users\stapi\AppData\Local\Temp\ccVrwyY4.s:11     .rodata.CoAPServer_yield.str1.4:0000000000000000 .LC0
C:\Users\stapi\AppData\Local\Temp\ccVrwyY4.s:14     .rodata.CoAPServer_yield.str1.4:000000000000001c .LC1
C:\Users\stapi\AppData\Local\Temp\ccVrwyY4.s:17     .rodata.CoAPServer_yield.str1.4:0000000000000028 .LC2
C:\Users\stapi\AppData\Local\Temp\ccVrwyY4.s:20     .rodata.CoAPServer_yield.str1.4:0000000000000030 .LC3
C:\Users\stapi\AppData\Local\Temp\ccVrwyY4.s:23     .rodata.CoAPServer_yield.str1.4:000000000000005c .LC4
C:\Users\stapi\AppData\Local\Temp\ccVrwyY4.s:115    .text.CoAPServer_yield:000000000000009e .L3
C:\Users\stapi\AppData\Local\Temp\ccVrwyY4.s:70     .text.CoAPServer_yield:0000000000000040 .L2
C:\Users\stapi\AppData\Local\Temp\ccVrwyY4.s:159    .rodata.CoAPServer_init.str1.4:0000000000000000 .LC5
C:\Users\stapi\AppData\Local\Temp\ccVrwyY4.s:162    .rodata.CoAPServer_init.str1.4:000000000000000c .LC6
C:\Users\stapi\AppData\Local\Temp\ccVrwyY4.s:165    .rodata.CoAPServer_init.str1.4:0000000000000014 .LC7
C:\Users\stapi\AppData\Local\Temp\ccVrwyY4.s:168    .rodata.CoAPServer_init.str1.4:000000000000002c .LC8
C:\Users\stapi\AppData\Local\Temp\ccVrwyY4.s:171    .rodata.CoAPServer_init.str1.4:000000000000004c .LC9
C:\Users\stapi\AppData\Local\Temp\ccVrwyY4.s:174    .rodata.CoAPServer_init.str1.4:0000000000000068 .LC10
C:\Users\stapi\AppData\Local\Temp\ccVrwyY4.s:177    .rodata.CoAPServer_init.str1.4:000000000000007c .LC11
C:\Users\stapi\AppData\Local\Temp\ccVrwyY4.s:180    .rodata.CoAPServer_init.str1.4:00000000000000a4 .LC12
C:\Users\stapi\AppData\Local\Temp\ccVrwyY4.s:304    .text.CoAPServer_init:00000000000000b6 .L8
C:\Users\stapi\AppData\Local\Temp\ccVrwyY4.s:491    .text.CoAPServer_init:0000000000000202 .L25
C:\Users\stapi\AppData\Local\Temp\ccVrwyY4.s:334    .text.CoAPServer_init:00000000000000d0 .L13
C:\Users\stapi\AppData\Local\Temp\ccVrwyY4.s:318    .text.CoAPServer_init:00000000000000c4 .L7
C:\Users\stapi\AppData\Local\Temp\ccVrwyY4.s:220    .text.CoAPServer_init:0000000000000026 .L12
C:\Users\stapi\AppData\Local\Temp\ccVrwyY4.s:380    .text.CoAPServer_init:0000000000000130 .L15
C:\Users\stapi\AppData\Local\Temp\ccVrwyY4.s:418    .text.CoAPServer_init:000000000000017a .L16
C:\Users\stapi\AppData\Local\Temp\ccVrwyY4.s:286    .text.CoAPServer_init:0000000000000092 .L27
C:\Users\stapi\AppData\Local\Temp\ccVrwyY4.s:509    .text.CoAPServer_init:0000000000000232 .L18
C:\Users\stapi\AppData\Local\Temp\ccVrwyY4.s:524    .rodata.CoAPServer_deinit.str1.4:0000000000000000 .LC13
C:\Users\stapi\AppData\Local\Temp\ccVrwyY4.s:527    .rodata.CoAPServer_deinit.str1.4:000000000000001c .LC14
C:\Users\stapi\AppData\Local\Temp\ccVrwyY4.s:530    .rodata.CoAPServer_deinit.str1.4:0000000000000034 .LC15
C:\Users\stapi\AppData\Local\Temp\ccVrwyY4.s:533    .rodata.CoAPServer_deinit.str1.4:0000000000000048 .LC16
C:\Users\stapi\AppData\Local\Temp\ccVrwyY4.s:593    .text.CoAPServer_deinit:000000000000004c .L29
C:\Users\stapi\AppData\Local\Temp\ccVrwyY4.s:615    .text.CoAPServer_deinit:0000000000000076 .L31
C:\Users\stapi\AppData\Local\Temp\ccVrwyY4.s:570    .text.CoAPServer_deinit:0000000000000030 .L45
C:\Users\stapi\AppData\Local\Temp\ccVrwyY4.s:677    .text.CoAPServer_deinit:0000000000000106 .L32
C:\Users\stapi\AppData\Local\Temp\ccVrwyY4.s:691    .text.CoAPServer_deinit:0000000000000120 .L33
C:\Users\stapi\AppData\Local\Temp\ccVrwyY4.s:702    .text.CoAPServer_deinit:0000000000000130 .L34
C:\Users\stapi\AppData\Local\Temp\ccVrwyY4.s:580    .text.CoAPServer_deinit:0000000000000044 .L28
C:\Users\stapi\AppData\Local\Temp\ccVrwyY4.s:746    .text.CoAPServer_register:0000000000000026 .L48
C:\Users\stapi\AppData\Local\Temp\ccVrwyY4.s:750    .text.CoAPServer_register:000000000000002a .L51
C:\Users\stapi\AppData\Local\Temp\ccVrwyY4.s:760    .rodata.CoAPServerMultiCast_send.str1.4:0000000000000000 .LC17
C:\Users\stapi\AppData\Local\Temp\ccVrwyY4.s:763    .rodata.CoAPServerMultiCast_send.str1.4:0000000000000024 .LC18
C:\Users\stapi\AppData\Local\Temp\ccVrwyY4.s:766    .rodata.CoAPServerMultiCast_send.str1.4:0000000000000048 .LC19
C:\Users\stapi\AppData\Local\Temp\ccVrwyY4.s:985    .text.CoAPServerMultiCast_send:0000000000000166 .L54
C:\Users\stapi\AppData\Local\Temp\ccVrwyY4.s:902    .text.CoAPServerMultiCast_send:00000000000000c2 .L56
C:\Users\stapi\AppData\Local\Temp\ccVrwyY4.s:1004   .text.CoAPServerMultiCast_send:0000000000000172 .L57
C:\Users\stapi\AppData\Local\Temp\ccVrwyY4.s:969    .text.CoAPServerMultiCast_send:000000000000014c .L64
C:\Users\stapi\AppData\Local\Temp\ccVrwyY4.s:947    .text.CoAPServerMultiCast_send:0000000000000122 .L58
C:\Users\stapi\AppData\Local\Temp\ccVrwyY4.s:1069   .text.CoAPServerMultiCast_send:00000000000001f0 .L60
C:\Users\stapi\AppData\Local\Temp\ccVrwyY4.s:1065   .text.CoAPServerMultiCast_send:00000000000001ee .L61
C:\Users\stapi\AppData\Local\Temp\ccVrwyY4.s:1099   .text.CoAPServerMultiCast_send:000000000000022c .L62
C:\Users\stapi\AppData\Local\Temp\ccVrwyY4.s:1027   .text.CoAPServerMultiCast_send:00000000000001a0 .L59
C:\Users\stapi\AppData\Local\Temp\ccVrwyY4.s:1112   .rodata.CoAPServerResp_send.str1.4:0000000000000000 .LC20
C:\Users\stapi\AppData\Local\Temp\ccVrwyY4.s:1289   .text.CoAPServerResp_send:0000000000000136 .L80
C:\Users\stapi\AppData\Local\Temp\ccVrwyY4.s:1223   .text.CoAPServerResp_send:00000000000000a6 .L82
C:\Users\stapi\AppData\Local\Temp\ccVrwyY4.s:1250   .text.CoAPServerResp_send:00000000000000d8 .L83
C:\Users\stapi\AppData\Local\Temp\ccVrwyY4.s:1313   .rodata.CoAPServer_loop.str1.4:0000000000000000 .LC21
C:\Users\stapi\AppData\Local\Temp\ccVrwyY4.s:1334   .text.CoAPServer_loop:000000000000001a .L95
C:\Users\stapi\AppData\Local\Temp\ccVrwyY4.s:1363   .text.CoAPServer_loop:000000000000005a .L98
C:\Users\stapi\AppData\Local\Temp\ccVrwyY4.s:4209   .debug_abbrev:0000000000000000 .Ldebug_abbrev0
C:\Users\stapi\AppData\Local\Temp\ccVrwyY4.s:6225   .debug_str:0000000000000bdf .LASF166
C:\Users\stapi\AppData\Local\Temp\ccVrwyY4.s:6073   .debug_str:0000000000000657 .LASF167
C:\Users\stapi\AppData\Local\Temp\ccVrwyY4.s:6021   .debug_str:00000000000003fd .LASF168
C:\Users\stapi\AppData\Local\Temp\ccVrwyY4.s:5853   .debug_ranges:0000000000000000 .Ldebug_ranges0
C:\Users\stapi\AppData\Local\Temp\ccVrwyY4.s:5893   .debug_line:0000000000000000 .Ldebug_line0
C:\Users\stapi\AppData\Local\Temp\ccVrwyY4.s:5905   .debug_str:0000000000000063 .LASF8
C:\Users\stapi\AppData\Local\Temp\ccVrwyY4.s:6011   .debug_str:0000000000000390 .LASF0
C:\Users\stapi\AppData\Local\Temp\ccVrwyY4.s:5963   .debug_str:0000000000000236 .LASF1
C:\Users\stapi\AppData\Local\Temp\ccVrwyY4.s:6135   .debug_str:00000000000008e0 .LASF2
C:\Users\stapi\AppData\Local\Temp\ccVrwyY4.s:6141   .debug_str:000000000000091e .LASF3
C:\Users\stapi\AppData\Local\Temp\ccVrwyY4.s:6041   .debug_str:0000000000000556 .LASF4
C:\Users\stapi\AppData\Local\Temp\ccVrwyY4.s:5981   .debug_str:00000000000002c2 .LASF5
C:\Users\stapi\AppData\Local\Temp\ccVrwyY4.s:6019   .debug_str:00000000000003eb .LASF6
C:\Users\stapi\AppData\Local\Temp\ccVrwyY4.s:5961   .debug_str:0000000000000228 .LASF7
C:\Users\stapi\AppData\Local\Temp\ccVrwyY4.s:6115   .debug_str:0000000000000850 .LASF9
C:\Users\stapi\AppData\Local\Temp\ccVrwyY4.s:5933   .debug_str:0000000000000131 .LASF10
C:\Users\stapi\AppData\Local\Temp\ccVrwyY4.s:6167   .debug_str:0000000000000a08 .LASF11
C:\Users\stapi\AppData\Local\Temp\ccVrwyY4.s:5907   .debug_str:000000000000006a .LASF12
C:\Users\stapi\AppData\Local\Temp\ccVrwyY4.s:6039   .debug_str:000000000000053e .LASF13
C:\Users\stapi\AppData\Local\Temp\ccVrwyY4.s:6033   .debug_str:00000000000004dc .LASF14
C:\Users\stapi\AppData\Local\Temp\ccVrwyY4.s:6157   .debug_str:00000000000009b2 .LASF15
C:\Users\stapi\AppData\Local\Temp\ccVrwyY4.s:5977   .debug_str:00000000000002a2 .LASF16
C:\Users\stapi\AppData\Local\Temp\ccVrwyY4.s:6013   .debug_str:000000000000039d .LASF17
C:\Users\stapi\AppData\Local\Temp\ccVrwyY4.s:6229   .debug_str:0000000000000cd8 .LASF18
C:\Users\stapi\AppData\Local\Temp\ccVrwyY4.s:6001   .debug_str:0000000000000349 .LASF19
C:\Users\stapi\AppData\Local\Temp\ccVrwyY4.s:6191   .debug_str:0000000000000ae0 .LASF20
C:\Users\stapi\AppData\Local\Temp\ccVrwyY4.s:6211   .debug_str:0000000000000b66 .LASF21
C:\Users\stapi\AppData\Local\Temp\ccVrwyY4.s:6163   .debug_str:00000000000009f2 .LASF28
C:\Users\stapi\AppData\Local\Temp\ccVrwyY4.s:6117   .debug_str:000000000000085b .LASF22
C:\Users\stapi\AppData\Local\Temp\ccVrwyY4.s:6223   .debug_str:0000000000000bd4 .LASF23
C:\Users\stapi\AppData\Local\Temp\ccVrwyY4.s:6217   .debug_str:0000000000000bab .LASF24
C:\Users\stapi\AppData\Local\Temp\ccVrwyY4.s:6111   .debug_str:000000000000082a .LASF25
C:\Users\stapi\AppData\Local\Temp\ccVrwyY4.s:6029   .debug_str:00000000000004c9 .LASF26
C:\Users\stapi\AppData\Local\Temp\ccVrwyY4.s:6027   .debug_str:00000000000004b3 .LASF27
C:\Users\stapi\AppData\Local\Temp\ccVrwyY4.s:6133   .debug_str:00000000000008d0 .LASF29
C:\Users\stapi\AppData\Local\Temp\ccVrwyY4.s:5939   .debug_str:000000000000016e .LASF30
C:\Users\stapi\AppData\Local\Temp\ccVrwyY4.s:6005   .debug_str:0000000000000373 .LASF31
C:\Users\stapi\AppData\Local\Temp\ccVrwyY4.s:6059   .debug_str:00000000000005db .LASF32
C:\Users\stapi\AppData\Local\Temp\ccVrwyY4.s:5993   .debug_str:000000000000031d .LASF33
C:\Users\stapi\AppData\Local\Temp\ccVrwyY4.s:6101   .debug_str:00000000000007b6 .LASF34
C:\Users\stapi\AppData\Local\Temp\ccVrwyY4.s:5987   .debug_str:00000000000002ee .LASF35
C:\Users\stapi\AppData\Local\Temp\ccVrwyY4.s:6207   .debug_str:0000000000000b48 .LASF36
C:\Users\stapi\AppData\Local\Temp\ccVrwyY4.s:6119   .debug_str:0000000000000864 .LASF37
C:\Users\stapi\AppData\Local\Temp\ccVrwyY4.s:5911   .debug_str:0000000000000084 .LASF38
C:\Users\stapi\AppData\Local\Temp\ccVrwyY4.s:6017   .debug_str:00000000000003d1 .LASF39
C:\Users\stapi\AppData\Local\Temp\ccVrwyY4.s:5973   .debug_str:0000000000000274 .LASF40
C:\Users\stapi\AppData\Local\Temp\ccVrwyY4.s:6023   .debug_str:000000000000048e .LASF41
C:\Users\stapi\AppData\Local\Temp\ccVrwyY4.s:6235   .debug_str:0000000000000d10 .LASF42
C:\Users\stapi\AppData\Local\Temp\ccVrwyY4.s:6173   .debug_str:0000000000000a37 .LASF43
C:\Users\stapi\AppData\Local\Temp\ccVrwyY4.s:6233   .debug_str:0000000000000cf5 .LASF44
C:\Users\stapi\AppData\Local\Temp\ccVrwyY4.s:6153   .debug_str:000000000000098b .LASF45
C:\Users\stapi\AppData\Local\Temp\ccVrwyY4.s:5913   .debug_str:0000000000000099 .LASF46
C:\Users\stapi\AppData\Local\Temp\ccVrwyY4.s:6109   .debug_str:000000000000080d .LASF47
C:\Users\stapi\AppData\Local\Temp\ccVrwyY4.s:5941   .debug_str:0000000000000173 .LASF48
C:\Users\stapi\AppData\Local\Temp\ccVrwyY4.s:6205   .debug_str:0000000000000b2c .LASF49
C:\Users\stapi\AppData\Local\Temp\ccVrwyY4.s:6071   .debug_str:0000000000000632 .LASF50
C:\Users\stapi\AppData\Local\Temp\ccVrwyY4.s:6171   .debug_str:0000000000000a16 .LASF51
C:\Users\stapi\AppData\Local\Temp\ccVrwyY4.s:6083   .debug_str:000000000000072b .LASF52
C:\Users\stapi\AppData\Local\Temp\ccVrwyY4.s:5895   .debug_str:0000000000000000 .LASF53
C:\Users\stapi\AppData\Local\Temp\ccVrwyY4.s:6183   .debug_str:0000000000000a92 .LASF54
C:\Users\stapi\AppData\Local\Temp\ccVrwyY4.s:5947   .debug_str:00000000000001a5 .LASF55
C:\Users\stapi\AppData\Local\Temp\ccVrwyY4.s:6137   .debug_str:00000000000008ee .LASF56
C:\Users\stapi\AppData\Local\Temp\ccVrwyY4.s:6107   .debug_str:00000000000007eb .LASF57
C:\Users\stapi\AppData\Local\Temp\ccVrwyY4.s:5935   .debug_str:0000000000000148 .LASF58
C:\Users\stapi\AppData\Local\Temp\ccVrwyY4.s:6147   .debug_str:0000000000000951 .LASF59
C:\Users\stapi\AppData\Local\Temp\ccVrwyY4.s:6037   .debug_str:000000000000051c .LASF60
C:\Users\stapi\AppData\Local\Temp\ccVrwyY4.s:6035   .debug_str:00000000000004f3 .LASF61
C:\Users\stapi\AppData\Local\Temp\ccVrwyY4.s:5983   .debug_str:00000000000002cb .LASF62
C:\Users\stapi\AppData\Local\Temp\ccVrwyY4.s:5927   .debug_str:00000000000000f8 .LASF63
C:\Users\stapi\AppData\Local\Temp\ccVrwyY4.s:6145   .debug_str:000000000000093e .LASF64
C:\Users\stapi\AppData\Local\Temp\ccVrwyY4.s:5899   .debug_str:0000000000000039 .LASF65
C:\Users\stapi\AppData\Local\Temp\ccVrwyY4.s:6077   .debug_str:0000000000000700 .LASF66
C:\Users\stapi\AppData\Local\Temp\ccVrwyY4.s:5917   .debug_str:00000000000000cb .LASF67
C:\Users\stapi\AppData\Local\Temp\ccVrwyY4.s:6193   .debug_str:0000000000000af9 .LASF68
C:\Users\stapi\AppData\Local\Temp\ccVrwyY4.s:6201   .debug_str:0000000000000b20 .LASF69
C:\Users\stapi\AppData\Local\Temp\ccVrwyY4.s:6149   .debug_str:0000000000000977 .LASF70
C:\Users\stapi\AppData\Local\Temp\ccVrwyY4.s:6051   .debug_str:00000000000005a6 .LASF71
C:\Users\stapi\AppData\Local\Temp\ccVrwyY4.s:5985   .debug_str:00000000000002e0 .LASF72
C:\Users\stapi\AppData\Local\Temp\ccVrwyY4.s:6085   .debug_str:0000000000000757 .LASF169
C:\Users\stapi\AppData\Local\Temp\ccVrwyY4.s:6099   .debug_str:00000000000007aa .LASF73
C:\Users\stapi\AppData\Local\Temp\ccVrwyY4.s:6239   .debug_str:0000000000000d3f .LASF74
C:\Users\stapi\AppData\Local\Temp\ccVrwyY4.s:6123   .debug_str:000000000000088e .LASF75
C:\Users\stapi\AppData\Local\Temp\ccVrwyY4.s:5997   .debug_str:000000000000032d .LASF76
C:\Users\stapi\AppData\Local\Temp\ccVrwyY4.s:6169   .debug_str:0000000000000a0d .LASF77
C:\Users\stapi\AppData\Local\Temp\ccVrwyY4.s:6155   .debug_str:00000000000009a9 .LASF78
C:\Users\stapi\AppData\Local\Temp\ccVrwyY4.s:6075   .debug_str:00000000000006f5 .LASF79
C:\Users\stapi\AppData\Local\Temp\ccVrwyY4.s:6185   .debug_str:0000000000000abd .LASF80
C:\Users\stapi\AppData\Local\Temp\ccVrwyY4.s:6069   .debug_str:000000000000062a .LASF81
C:\Users\stapi\AppData\Local\Temp\ccVrwyY4.s:6129   .debug_str:00000000000008ba .LASF82
C:\Users\stapi\AppData\Local\Temp\ccVrwyY4.s:6231   .debug_str:0000000000000cf0 .LASF83
C:\Users\stapi\AppData\Local\Temp\ccVrwyY4.s:5951   .debug_str:00000000000001dd .LASF84
C:\Users\stapi\AppData\Local\Temp\ccVrwyY4.s:6061   .debug_str:00000000000005e7 .LASF85
C:\Users\stapi\AppData\Local\Temp\ccVrwyY4.s:6091   .debug_str:0000000000000775 .LASF86
C:\Users\stapi\AppData\Local\Temp\ccVrwyY4.s:5915   .debug_str:00000000000000b8 .LASF87
C:\Users\stapi\AppData\Local\Temp\ccVrwyY4.s:6031   .debug_str:00000000000004ce .LASF88
C:\Users\stapi\AppData\Local\Temp\ccVrwyY4.s:6179   .debug_str:0000000000000a6e .LASF89
C:\Users\stapi\AppData\Local\Temp\ccVrwyY4.s:5979   .debug_str:00000000000002bc .LASF90
C:\Users\stapi\AppData\Local\Temp\ccVrwyY4.s:6089   .debug_str:000000000000076c .LASF91
C:\Users\stapi\AppData\Local\Temp\ccVrwyY4.s:5995   .debug_str:0000000000000324 .LASF92
C:\Users\stapi\AppData\Local\Temp\ccVrwyY4.s:5937   .debug_str:0000000000000166 .LASF93
C:\Users\stapi\AppData\Local\Temp\ccVrwyY4.s:5991   .debug_str:0000000000000310 .LASF94
C:\Users\stapi\AppData\Local\Temp\ccVrwyY4.s:6067   .debug_str:000000000000061c .LASF95
C:\Users\stapi\AppData\Local\Temp\ccVrwyY4.s:5969   .debug_str:000000000000025b .LASF96
C:\Users\stapi\AppData\Local\Temp\ccVrwyY4.s:6003   .debug_str:0000000000000365 .LASF97
C:\Users\stapi\AppData\Local\Temp\ccVrwyY4.s:6093   .debug_str:0000000000000787 .LASF98
C:\Users\stapi\AppData\Local\Temp\ccVrwyY4.s:5971   .debug_str:000000000000026a .LASF99
C:\Users\stapi\AppData\Local\Temp\ccVrwyY4.s:6199   .debug_str:0000000000000b0f .LASF101
C:\Users\stapi\AppData\Local\Temp\ccVrwyY4.s:6175   .debug_str:0000000000000a51 .LASF100
C:\Users\stapi\AppData\Local\Temp\ccVrwyY4.s:6161   .debug_str:00000000000009e1 .LASF125
C:\Users\stapi\AppData\Local\Temp\ccVrwyY4.s:5989   .debug_str:0000000000000300 .LASF102
C:\Users\stapi\AppData\Local\Temp\ccVrwyY4.s:6159   .debug_str:00000000000009d1 .LASF115
C:\Users\stapi\AppData\Local\Temp\ccVrwyY4.s:1320   .text.CoAPServer_loop:0000000000000000 .LFB30
C:\Users\stapi\AppData\Local\Temp\ccVrwyY4.s:1366   .text.CoAPServer_loop:000000000000005c .LFE30
C:\Users\stapi\AppData\Local\Temp\ccVrwyY4.s:6189   .debug_str:0000000000000ad8 .LASF103
C:\Users\stapi\AppData\Local\Temp\ccVrwyY4.s:5176   .debug_loc:0000000000000000 .LLST32
C:\Users\stapi\AppData\Local\Temp\ccVrwyY4.s:1345   .text.CoAPServer_loop:0000000000000032 .LVL137
C:\Users\stapi\AppData\Local\Temp\ccVrwyY4.s:1350   .text.CoAPServer_loop:0000000000000042 .LVL138
C:\Users\stapi\AppData\Local\Temp\ccVrwyY4.s:1355   .text.CoAPServer_loop:0000000000000052 .LVL139
C:\Users\stapi\AppData\Local\Temp\ccVrwyY4.s:6043   .debug_str:0000000000000569 .LASF111
C:\Users\stapi\AppData\Local\Temp\ccVrwyY4.s:1119   .text.CoAPServerResp_send:0000000000000000 .LFB29
C:\Users\stapi\AppData\Local\Temp\ccVrwyY4.s:1309   .text.CoAPServerResp_send:0000000000000142 .LFE29
C:\Users\stapi\AppData\Local\Temp\ccVrwyY4.s:5194   .debug_loc:000000000000002c .LLST21
C:\Users\stapi\AppData\Local\Temp\ccVrwyY4.s:6165   .debug_str:0000000000000a01 .LASF104
C:\Users\stapi\AppData\Local\Temp\ccVrwyY4.s:5212   .debug_loc:0000000000000058 .LLST22
C:\Users\stapi\AppData\Local\Temp\ccVrwyY4.s:5967   .debug_str:0000000000000256 .LASF105
C:\Users\stapi\AppData\Local\Temp\ccVrwyY4.s:5230   .debug_loc:0000000000000084 .LLST23
C:\Users\stapi\AppData\Local\Temp\ccVrwyY4.s:5248   .debug_loc:00000000000000b0 .LLST24
C:\Users\stapi\AppData\Local\Temp\ccVrwyY4.s:5262   .debug_loc:00000000000000d1 .LLST25
C:\Users\stapi\AppData\Local\Temp\ccVrwyY4.s:5943   .debug_str:000000000000018f .LASF106
C:\Users\stapi\AppData\Local\Temp\ccVrwyY4.s:5280   .debug_loc:00000000000000fd .LLST26
C:\Users\stapi\AppData\Local\Temp\ccVrwyY4.s:6055   .debug_str:00000000000005c6 .LASF107
C:\Users\stapi\AppData\Local\Temp\ccVrwyY4.s:5298   .debug_loc:0000000000000129 .LLST27
C:\Users\stapi\AppData\Local\Temp\ccVrwyY4.s:5316   .debug_loc:0000000000000155 .LLST28
C:\Users\stapi\AppData\Local\Temp\ccVrwyY4.s:5334   .debug_loc:0000000000000181 .LLST29
C:\Users\stapi\AppData\Local\Temp\ccVrwyY4.s:5347   .debug_loc:00000000000001a1 .LLST30
C:\Users\stapi\AppData\Local\Temp\ccVrwyY4.s:5959   .debug_str:000000000000021f .LASF108
C:\Users\stapi\AppData\Local\Temp\ccVrwyY4.s:6139   .debug_str:0000000000000916 .LASF109
C:\Users\stapi\AppData\Local\Temp\ccVrwyY4.s:6195   .debug_str:0000000000000b02 .LASF110
C:\Users\stapi\AppData\Local\Temp\ccVrwyY4.s:5367   .debug_loc:00000000000001d6 .LLST31
C:\Users\stapi\AppData\Local\Temp\ccVrwyY4.s:6025   .debug_str:00000000000004a6 .LASF124
C:\Users\stapi\AppData\Local\Temp\ccVrwyY4.s:1183   .text.CoAPServerResp_send:0000000000000050 .LVL117
C:\Users\stapi\AppData\Local\Temp\ccVrwyY4.s:1188   .text.CoAPServerResp_send:000000000000005e .LVL118
C:\Users\stapi\AppData\Local\Temp\ccVrwyY4.s:1193   .text.CoAPServerResp_send:000000000000006c .LVL119
C:\Users\stapi\AppData\Local\Temp\ccVrwyY4.s:1198   .text.CoAPServerResp_send:000000000000007a .LVL120
C:\Users\stapi\AppData\Local\Temp\ccVrwyY4.s:1210   .text.CoAPServerResp_send:000000000000008e .LVL121
C:\Users\stapi\AppData\Local\Temp\ccVrwyY4.s:1215   .text.CoAPServerResp_send:000000000000009a .LVL122
C:\Users\stapi\AppData\Local\Temp\ccVrwyY4.s:1230   .text.CoAPServerResp_send:00000000000000b4 .LVL123
C:\Users\stapi\AppData\Local\Temp\ccVrwyY4.s:1243   .text.CoAPServerResp_send:00000000000000ca .LVL125
C:\Users\stapi\AppData\Local\Temp\ccVrwyY4.s:1249   .text.CoAPServerResp_send:00000000000000d8 .LVL126
C:\Users\stapi\AppData\Local\Temp\ccVrwyY4.s:1256   .text.CoAPServerResp_send:00000000000000e8 .LVL127
C:\Users\stapi\AppData\Local\Temp\ccVrwyY4.s:1262   .text.CoAPServerResp_send:00000000000000f6 .LVL128
C:\Users\stapi\AppData\Local\Temp\ccVrwyY4.s:1273   .text.CoAPServerResp_send:000000000000011c .LVL129
C:\Users\stapi\AppData\Local\Temp\ccVrwyY4.s:1280   .text.CoAPServerResp_send:000000000000012a .LVL130
C:\Users\stapi\AppData\Local\Temp\ccVrwyY4.s:1287   .text.CoAPServerResp_send:0000000000000136 .LVL133
C:\Users\stapi\AppData\Local\Temp\ccVrwyY4.s:6113   .debug_str:0000000000000837 .LASF112
C:\Users\stapi\AppData\Local\Temp\ccVrwyY4.s:773    .text.CoAPServerMultiCast_send:0000000000000000 .LFB28
C:\Users\stapi\AppData\Local\Temp\ccVrwyY4.s:1108   .text.CoAPServerMultiCast_send:0000000000000230 .LFE28
C:\Users\stapi\AppData\Local\Temp\ccVrwyY4.s:5385   .debug_loc:0000000000000202 .LLST7
C:\Users\stapi\AppData\Local\Temp\ccVrwyY4.s:5407   .debug_loc:0000000000000239 .LLST8
C:\Users\stapi\AppData\Local\Temp\ccVrwyY4.s:5429   .debug_loc:0000000000000270 .LLST9
C:\Users\stapi\AppData\Local\Temp\ccVrwyY4.s:5458   .debug_loc:00000000000002b5 .LLST10
C:\Users\stapi\AppData\Local\Temp\ccVrwyY4.s:5480   .debug_loc:00000000000002ec .LLST11
C:\Users\stapi\AppData\Local\Temp\ccVrwyY4.s:5494   .debug_loc:000000000000030d .LLST12
C:\Users\stapi\AppData\Local\Temp\ccVrwyY4.s:5523   .debug_loc:0000000000000352 .LLST13
C:\Users\stapi\AppData\Local\Temp\ccVrwyY4.s:5545   .debug_loc:0000000000000389 .LLST14
C:\Users\stapi\AppData\Local\Temp\ccVrwyY4.s:6105   .debug_str:00000000000007e3 .LASF113
C:\Users\stapi\AppData\Local\Temp\ccVrwyY4.s:5566   .debug_loc:00000000000003bf .LLST15
C:\Users\stapi\AppData\Local\Temp\ccVrwyY4.s:851    .text.CoAPServerMultiCast_send:0000000000000078 .LBB8
C:\Users\stapi\AppData\Local\Temp\ccVrwyY4.s:5579   .debug_loc:00000000000003df .LLST16
C:\Users\stapi\AppData\Local\Temp\ccVrwyY4.s:904    .text.CoAPServerMultiCast_send:00000000000000c2 .LBB12
C:\Users\stapi\AppData\Local\Temp\ccVrwyY4.s:5586   .debug_loc:00000000000003f2 .LLST17
C:\Users\stapi\AppData\Local\Temp\ccVrwyY4.s:5621   .debug_loc:0000000000000448 .LLST18
C:\Users\stapi\AppData\Local\Temp\ccVrwyY4.s:5639   .debug_loc:0000000000000474 .LLST19
C:\Users\stapi\AppData\Local\Temp\ccVrwyY4.s:5664   .debug_loc:00000000000004b5 .LLST20
C:\Users\stapi\AppData\Local\Temp\ccVrwyY4.s:915    .text.CoAPServerMultiCast_send:00000000000000d4 .LVL86
C:\Users\stapi\AppData\Local\Temp\ccVrwyY4.s:921    .text.CoAPServerMultiCast_send:00000000000000de .LVL87
C:\Users\stapi\AppData\Local\Temp\ccVrwyY4.s:930    .text.CoAPServerMultiCast_send:00000000000000f6 .LVL88
C:\Users\stapi\AppData\Local\Temp\ccVrwyY4.s:934    .text.CoAPServerMultiCast_send:0000000000000100 .LVL89
C:\Users\stapi\AppData\Local\Temp\ccVrwyY4.s:939    .text.CoAPServerMultiCast_send:0000000000000112 .LVL90
C:\Users\stapi\AppData\Local\Temp\ccVrwyY4.s:944    .text.CoAPServerMultiCast_send:0000000000000122 .LVL91
C:\Users\stapi\AppData\Local\Temp\ccVrwyY4.s:1019   .text.CoAPServerMultiCast_send:000000000000019a .LVL99
C:\Users\stapi\AppData\Local\Temp\ccVrwyY4.s:1045   .text.CoAPServerMultiCast_send:00000000000001c2 .LVL101
C:\Users\stapi\AppData\Local\Temp\ccVrwyY4.s:1051   .text.CoAPServerMultiCast_send:00000000000001d2 .LVL102
C:\Users\stapi\AppData\Local\Temp\ccVrwyY4.s:1056   .text.CoAPServerMultiCast_send:00000000000001dc .LVL103
C:\Users\stapi\AppData\Local\Temp\ccVrwyY4.s:1064   .text.CoAPServerMultiCast_send:00000000000001ee .LVL105
C:\Users\stapi\AppData\Local\Temp\ccVrwyY4.s:1085   .text.CoAPServerMultiCast_send:0000000000000210 .LVL107
C:\Users\stapi\AppData\Local\Temp\ccVrwyY4.s:1090   .text.CoAPServerMultiCast_send:000000000000021a .LVL108
C:\Users\stapi\AppData\Local\Temp\ccVrwyY4.s:1098   .text.CoAPServerMultiCast_send:000000000000022c .LVL110
C:\Users\stapi\AppData\Local\Temp\ccVrwyY4.s:831    .text.CoAPServerMultiCast_send:000000000000004a .LVL76
C:\Users\stapi\AppData\Local\Temp\ccVrwyY4.s:836    .text.CoAPServerMultiCast_send:0000000000000056 .LVL77
C:\Users\stapi\AppData\Local\Temp\ccVrwyY4.s:841    .text.CoAPServerMultiCast_send:0000000000000062 .LVL78
C:\Users\stapi\AppData\Local\Temp\ccVrwyY4.s:845    .text.CoAPServerMultiCast_send:000000000000006c .LVL79
C:\Users\stapi\AppData\Local\Temp\ccVrwyY4.s:849    .text.CoAPServerMultiCast_send:0000000000000078 .LVL80
C:\Users\stapi\AppData\Local\Temp\ccVrwyY4.s:882    .text.CoAPServerMultiCast_send:0000000000000096 .LVL82
C:\Users\stapi\AppData\Local\Temp\ccVrwyY4.s:887    .text.CoAPServerMultiCast_send:00000000000000a2 .LVL83
C:\Users\stapi\AppData\Local\Temp\ccVrwyY4.s:894    .text.CoAPServerMultiCast_send:00000000000000b4 .LVL84
C:\Users\stapi\AppData\Local\Temp\ccVrwyY4.s:901    .text.CoAPServerMultiCast_send:00000000000000c2 .LVL85
C:\Users\stapi\AppData\Local\Temp\ccVrwyY4.s:955    .text.CoAPServerMultiCast_send:0000000000000132 .LVL92
C:\Users\stapi\AppData\Local\Temp\ccVrwyY4.s:961    .text.CoAPServerMultiCast_send:0000000000000140 .LVL93
C:\Users\stapi\AppData\Local\Temp\ccVrwyY4.s:976    .text.CoAPServerMultiCast_send:000000000000015a .LVL94
C:\Users\stapi\AppData\Local\Temp\ccVrwyY4.s:983    .text.CoAPServerMultiCast_send:0000000000000166 .LVL97
C:\Users\stapi\AppData\Local\Temp\ccVrwyY4.s:6213   .debug_str:0000000000000b7f .LASF114
C:\Users\stapi\AppData\Local\Temp\ccVrwyY4.s:723    .text.CoAPServer_register:0000000000000000 .LFB27
C:\Users\stapi\AppData\Local\Temp\ccVrwyY4.s:756    .text.CoAPServer_register:000000000000002e .LFE27
C:\Users\stapi\AppData\Local\Temp\ccVrwyY4.s:5681   .debug_loc:00000000000004e0 .LLST4
C:\Users\stapi\AppData\Local\Temp\ccVrwyY4.s:5706   .debug_loc:000000000000051a .LLST5
C:\Users\stapi\AppData\Local\Temp\ccVrwyY4.s:5724   .debug_loc:0000000000000546 .LLST6
C:\Users\stapi\AppData\Local\Temp\ccVrwyY4.s:745    .text.CoAPServer_register:0000000000000026 .LVL69
C:\Users\stapi\AppData\Local\Temp\ccVrwyY4.s:5953   .debug_str:00000000000001e7 .LASF116
C:\Users\stapi\AppData\Local\Temp\ccVrwyY4.s:540    .text.CoAPServer_deinit:0000000000000000 .LFB26
C:\Users\stapi\AppData\Local\Temp\ccVrwyY4.s:716    .text.CoAPServer_deinit:000000000000014a .LFE26
C:\Users\stapi\AppData\Local\Temp\ccVrwyY4.s:5753   .debug_loc:000000000000058b .LLST3
C:\Users\stapi\AppData\Local\Temp\ccVrwyY4.s:566    .text.CoAPServer_deinit:0000000000000028 .LVL48
C:\Users\stapi\AppData\Local\Temp\ccVrwyY4.s:573    .text.CoAPServer_deinit:0000000000000038 .LVL49
C:\Users\stapi\AppData\Local\Temp\ccVrwyY4.s:577    .text.CoAPServer_deinit:0000000000000044 .LVL50
C:\Users\stapi\AppData\Local\Temp\ccVrwyY4.s:610    .text.CoAPServer_deinit:000000000000006c .LVL53
C:\Users\stapi\AppData\Local\Temp\ccVrwyY4.s:618    .text.CoAPServer_deinit:000000000000007e .LVL54
C:\Users\stapi\AppData\Local\Temp\ccVrwyY4.s:623    .text.CoAPServer_deinit:000000000000008e .LVL55
C:\Users\stapi\AppData\Local\Temp\ccVrwyY4.s:627    .text.CoAPServer_deinit:000000000000009e .LVL56
C:\Users\stapi\AppData\Local\Temp\ccVrwyY4.s:633    .text.CoAPServer_deinit:00000000000000ae .LVL57
C:\Users\stapi\AppData\Local\Temp\ccVrwyY4.s:654    .text.CoAPServer_deinit:00000000000000ce .LVL58
C:\Users\stapi\AppData\Local\Temp\ccVrwyY4.s:659    .text.CoAPServer_deinit:00000000000000da .LVL59
C:\Users\stapi\AppData\Local\Temp\ccVrwyY4.s:664    .text.CoAPServer_deinit:00000000000000ea .LVL60
C:\Users\stapi\AppData\Local\Temp\ccVrwyY4.s:668    .text.CoAPServer_deinit:00000000000000f6 .LVL61
C:\Users\stapi\AppData\Local\Temp\ccVrwyY4.s:673    .text.CoAPServer_deinit:0000000000000102 .LVL62
C:\Users\stapi\AppData\Local\Temp\ccVrwyY4.s:687    .text.CoAPServer_deinit:000000000000011c .LVL63
C:\Users\stapi\AppData\Local\Temp\ccVrwyY4.s:698    .text.CoAPServer_deinit:000000000000012c .LVL64
C:\Users\stapi\AppData\Local\Temp\ccVrwyY4.s:706    .text.CoAPServer_deinit:000000000000013a .LVL65
C:\Users\stapi\AppData\Local\Temp\ccVrwyY4.s:710    .text.CoAPServer_deinit:0000000000000144 .LVL66
C:\Users\stapi\AppData\Local\Temp\ccVrwyY4.s:6065   .debug_str:000000000000060c .LASF117
C:\Users\stapi\AppData\Local\Temp\ccVrwyY4.s:187    .text.CoAPServer_init:0000000000000000 .LFB25
C:\Users\stapi\AppData\Local\Temp\ccVrwyY4.s:520    .text.CoAPServer_init:0000000000000242 .LFE25
C:\Users\stapi\AppData\Local\Temp\ccVrwyY4.s:5775   .debug_loc:00000000000005c2 .LLST2
C:\Users\stapi\AppData\Local\Temp\ccVrwyY4.s:6095   .debug_str:0000000000000792 .LASF118
C:\Users\stapi\AppData\Local\Temp\ccVrwyY4.s:5949   .debug_str:00000000000001d2 .LASF119
C:\Users\stapi\AppData\Local\Temp\ccVrwyY4.s:6221   .debug_str:0000000000000bc9 .LASF120
C:\Users\stapi\AppData\Local\Temp\ccVrwyY4.s:270    .text.CoAPServer_init:0000000000000076 .LVL15
C:\Users\stapi\AppData\Local\Temp\ccVrwyY4.s:281    .text.CoAPServer_init:000000000000008a .LVL16
C:\Users\stapi\AppData\Local\Temp\ccVrwyY4.s:289    .text.CoAPServer_init:000000000000009a .LVL18
C:\Users\stapi\AppData\Local\Temp\ccVrwyY4.s:294    .text.CoAPServer_init:00000000000000aa .LVL19
C:\Users\stapi\AppData\Local\Temp\ccVrwyY4.s:299    .text.CoAPServer_init:00000000000000b4 .LVL20
C:\Users\stapi\AppData\Local\Temp\ccVrwyY4.s:342    .text.CoAPServer_init:00000000000000dc .LVL25
C:\Users\stapi\AppData\Local\Temp\ccVrwyY4.s:354    .text.CoAPServer_init:00000000000000f6 .LVL26
C:\Users\stapi\AppData\Local\Temp\ccVrwyY4.s:359    .text.CoAPServer_init:0000000000000106 .LVL27
C:\Users\stapi\AppData\Local\Temp\ccVrwyY4.s:364    .text.CoAPServer_init:0000000000000116 .LVL28
C:\Users\stapi\AppData\Local\Temp\ccVrwyY4.s:369    .text.CoAPServer_init:0000000000000120 .LVL29
C:\Users\stapi\AppData\Local\Temp\ccVrwyY4.s:373    .text.CoAPServer_init:000000000000012a .LVL30
C:\Users\stapi\AppData\Local\Temp\ccVrwyY4.s:385    .text.CoAPServer_init:000000000000013a .LVL31
C:\Users\stapi\AppData\Local\Temp\ccVrwyY4.s:396    .text.CoAPServer_init:000000000000014c .LVL32
C:\Users\stapi\AppData\Local\Temp\ccVrwyY4.s:400    .text.CoAPServer_init:0000000000000158 .LVL33
C:\Users\stapi\AppData\Local\Temp\ccVrwyY4.s:413    .text.CoAPServer_init:0000000000000170 .LVL34
C:\Users\stapi\AppData\Local\Temp\ccVrwyY4.s:453    .text.CoAPServer_init:00000000000001b8 .LVL35
C:\Users\stapi\AppData\Local\Temp\ccVrwyY4.s:461    .text.CoAPServer_init:00000000000001c4 .LVL37
C:\Users\stapi\AppData\Local\Temp\ccVrwyY4.s:465    .text.CoAPServer_init:00000000000001d0 .LVL38
C:\Users\stapi\AppData\Local\Temp\ccVrwyY4.s:469    .text.CoAPServer_init:00000000000001dc .LVL39
C:\Users\stapi\AppData\Local\Temp\ccVrwyY4.s:485    .text.CoAPServer_init:00000000000001f8 .LVL40
C:\Users\stapi\AppData\Local\Temp\ccVrwyY4.s:213    .text.CoAPServer_init:000000000000001c .LVL13
C:\Users\stapi\AppData\Local\Temp\ccVrwyY4.s:228    .text.CoAPServer_init:0000000000000038 .LVL14
C:\Users\stapi\AppData\Local\Temp\ccVrwyY4.s:309    .text.CoAPServer_init:00000000000000be .LVL22
C:\Users\stapi\AppData\Local\Temp\ccVrwyY4.s:498    .text.CoAPServer_init:0000000000000212 .LVL42
C:\Users\stapi\AppData\Local\Temp\ccVrwyY4.s:503    .text.CoAPServer_init:0000000000000222 .LVL43
C:\Users\stapi\AppData\Local\Temp\ccVrwyY4.s:508    .text.CoAPServer_init:0000000000000232 .LVL44
C:\Users\stapi\AppData\Local\Temp\ccVrwyY4.s:514    .text.CoAPServer_init:000000000000023c .LVL45
C:\Users\stapi\AppData\Local\Temp\ccVrwyY4.s:5903   .debug_str:000000000000004e .LASF121
C:\Users\stapi\AppData\Local\Temp\ccVrwyY4.s:147    .text.CoAPServer_add_timer:0000000000000000 .LFB24
C:\Users\stapi\AppData\Local\Temp\ccVrwyY4.s:155    .text.CoAPServer_add_timer:0000000000000002 .LFE24
C:\Users\stapi\AppData\Local\Temp\ccVrwyY4.s:6087   .debug_str:0000000000000763 .LASF122
C:\Users\stapi\AppData\Local\Temp\ccVrwyY4.s:6079   .debug_str:0000000000000708 .LASF170
C:\Users\stapi\AppData\Local\Temp\ccVrwyY4.s:29     .text.CoAPServer_yield:0000000000000000 .LFB23
C:\Users\stapi\AppData\Local\Temp\ccVrwyY4.s:123    .text.CoAPServer_yield:00000000000000aa .LFE23
C:\Users\stapi\AppData\Local\Temp\ccVrwyY4.s:5802   .debug_loc:0000000000000605 .LLST0
C:\Users\stapi\AppData\Local\Temp\ccVrwyY4.s:5813   .debug_loc:0000000000000623 .LLST1
C:\Users\stapi\AppData\Local\Temp\ccVrwyY4.s:6209   .debug_str:0000000000000b5b .LASF123
C:\Users\stapi\AppData\Local\Temp\ccVrwyY4.s:67     .text.CoAPServer_yield:000000000000003c .LVL4
C:\Users\stapi\AppData\Local\Temp\ccVrwyY4.s:78     .text.CoAPServer_yield:0000000000000056 .LVL5
C:\Users\stapi\AppData\Local\Temp\ccVrwyY4.s:84     .text.CoAPServer_yield:0000000000000066 .LVL6
C:\Users\stapi\AppData\Local\Temp\ccVrwyY4.s:89     .text.CoAPServer_yield:0000000000000076 .LVL7
C:\Users\stapi\AppData\Local\Temp\ccVrwyY4.s:94     .text.CoAPServer_yield:0000000000000086 .LVL8
C:\Users\stapi\AppData\Local\Temp\ccVrwyY4.s:103    .text.CoAPServer_yield:0000000000000094 .LVL9
C:\Users\stapi\AppData\Local\Temp\ccVrwyY4.s:120    .text.CoAPServer_yield:00000000000000a8 .LVL10
C:\Users\stapi\AppData\Local\Temp\ccVrwyY4.s:6215   .debug_str:0000000000000b93 .LASF171
C:\Users\stapi\AppData\Local\Temp\ccVrwyY4.s:130    .text.CoAPServer_thread_leave:0000000000000000 .LFB22
C:\Users\stapi\AppData\Local\Temp\ccVrwyY4.s:140    .text.CoAPServer_thread_leave:000000000000000a .LFE22
C:\Users\stapi\AppData\Local\Temp\ccVrwyY4.s:6121   .debug_str:0000000000000876 .LASF128
C:\Users\stapi\AppData\Local\Temp\ccVrwyY4.s:6197   .debug_str:0000000000000b0a .LASF126
C:\Users\stapi\AppData\Local\Temp\ccVrwyY4.s:5925   .debug_str:00000000000000f3 .LASF127
C:\Users\stapi\AppData\Local\Temp\ccVrwyY4.s:6177   .debug_str:0000000000000a5a .LASF129
C:\Users\stapi\AppData\Local\Temp\ccVrwyY4.s:5955   .debug_str:00000000000001f9 .LASF130
C:\Users\stapi\AppData\Local\Temp\ccVrwyY4.s:6007   .debug_str:0000000000000378 .LASF131
C:\Users\stapi\AppData\Local\Temp\ccVrwyY4.s:5921   .debug_str:00000000000000d8 .LASF132
C:\Users\stapi\AppData\Local\Temp\ccVrwyY4.s:6045   .debug_str:000000000000057d .LASF133
C:\Users\stapi\AppData\Local\Temp\ccVrwyY4.s:5975   .debug_str:000000000000028e .LASF134
C:\Users\stapi\AppData\Local\Temp\ccVrwyY4.s:6125   .debug_str:0000000000000894 .LASF135
C:\Users\stapi\AppData\Local\Temp\ccVrwyY4.s:6009   .debug_str:000000000000037e .LASF136
C:\Users\stapi\AppData\Local\Temp\ccVrwyY4.s:6015   .debug_str:00000000000003bc .LASF137
C:\Users\stapi\AppData\Local\Temp\ccVrwyY4.s:5957   .debug_str:0000000000000208 .LASF138
C:\Users\stapi\AppData\Local\Temp\ccVrwyY4.s:5897   .debug_str:0000000000000026 .LASF139
C:\Users\stapi\AppData\Local\Temp\ccVrwyY4.s:6063   .debug_str:00000000000005fa .LASF140
C:\Users\stapi\AppData\Local\Temp\ccVrwyY4.s:6219   .debug_str:0000000000000bb6 .LASF141
C:\Users\stapi\AppData\Local\Temp\ccVrwyY4.s:6181   .debug_str:0000000000000a7b .LASF142
C:\Users\stapi\AppData\Local\Temp\ccVrwyY4.s:6057   .debug_str:00000000000005cf .LASF143
C:\Users\stapi\AppData\Local\Temp\ccVrwyY4.s:6103   .debug_str:00000000000007d2 .LASF144
C:\Users\stapi\AppData\Local\Temp\ccVrwyY4.s:6241   .debug_str:0000000000000d46 .LASF145
C:\Users\stapi\AppData\Local\Temp\ccVrwyY4.s:6203   .debug_str:0000000000000b25 .LASF172
C:\Users\stapi\AppData\Local\Temp\ccVrwyY4.s:5929   .debug_str:000000000000010f .LASF173
C:\Users\stapi\AppData\Local\Temp\ccVrwyY4.s:6049   .debug_str:000000000000059f .LASF146
C:\Users\stapi\AppData\Local\Temp\ccVrwyY4.s:5919   .debug_str:00000000000000d0 .LASF147
C:\Users\stapi\AppData\Local\Temp\ccVrwyY4.s:6127   .debug_str:00000000000008a8 .LASF148
C:\Users\stapi\AppData\Local\Temp\ccVrwyY4.s:6097   .debug_str:0000000000000798 .LASF149
C:\Users\stapi\AppData\Local\Temp\ccVrwyY4.s:5901   .debug_str:0000000000000047 .LASF150
C:\Users\stapi\AppData\Local\Temp\ccVrwyY4.s:5965   .debug_str:0000000000000242 .LASF151
C:\Users\stapi\AppData\Local\Temp\ccVrwyY4.s:6143   .debug_str:0000000000000928 .LASF152
C:\Users\stapi\AppData\Local\Temp\ccVrwyY4.s:6151   .debug_str:000000000000097d .LASF153
C:\Users\stapi\AppData\Local\Temp\ccVrwyY4.s:6227   .debug_str:0000000000000cc6 .LASF154
C:\Users\stapi\AppData\Local\Temp\ccVrwyY4.s:6237   .debug_str:0000000000000d2a .LASF155
C:\Users\stapi\AppData\Local\Temp\ccVrwyY4.s:5909   .debug_str:0000000000000073 .LASF156
C:\Users\stapi\AppData\Local\Temp\ccVrwyY4.s:6047   .debug_str:000000000000058e .LASF157
C:\Users\stapi\AppData\Local\Temp\ccVrwyY4.s:5923   .debug_str:00000000000000e3 .LASF158
C:\Users\stapi\AppData\Local\Temp\ccVrwyY4.s:5999   .debug_str:0000000000000335 .LASF159
C:\Users\stapi\AppData\Local\Temp\ccVrwyY4.s:5945   .debug_str:0000000000000195 .LASF160
C:\Users\stapi\AppData\Local\Temp\ccVrwyY4.s:6187   .debug_str:0000000000000ac5 .LASF161
C:\Users\stapi\AppData\Local\Temp\ccVrwyY4.s:6131   .debug_str:00000000000008bf .LASF162
C:\Users\stapi\AppData\Local\Temp\ccVrwyY4.s:6081   .debug_str:0000000000000719 .LASF163
C:\Users\stapi\AppData\Local\Temp\ccVrwyY4.s:5931   .debug_str:0000000000000120 .LASF164
C:\Users\stapi\AppData\Local\Temp\ccVrwyY4.s:6053   .debug_str:00000000000005b4 .LASF165
C:\Users\stapi\AppData\Local\Temp\ccVrwyY4.s:1323   .text.CoAPServer_loop:0000000000000000 .LVL135
C:\Users\stapi\AppData\Local\Temp\ccVrwyY4.s:1342   .text.CoAPServer_loop:0000000000000026 .LVL136
C:\Users\stapi\AppData\Local\Temp\ccVrwyY4.s:1362   .text.CoAPServer_loop:000000000000005a .LVL140
C:\Users\stapi\AppData\Local\Temp\ccVrwyY4.s:1122   .text.CoAPServerResp_send:0000000000000000 .LVL112
C:\Users\stapi\AppData\Local\Temp\ccVrwyY4.s:1177   .text.CoAPServerResp_send:0000000000000042 .LVL116
C:\Users\stapi\AppData\Local\Temp\ccVrwyY4.s:1157   .text.CoAPServerResp_send:000000000000001e .LVL115
C:\Users\stapi\AppData\Local\Temp\ccVrwyY4.s:1294   .text.CoAPServerResp_send:000000000000013a .LVL134
C:\Users\stapi\AppData\Local\Temp\ccVrwyY4.s:1137   .text.CoAPServerResp_send:0000000000000008 .LVL113
C:\Users\stapi\AppData\Local\Temp\ccVrwyY4.s:1235   .text.CoAPServerResp_send:00000000000000b8 .LVL124
C:\Users\stapi\AppData\Local\Temp\ccVrwyY4.s:1282   .text.CoAPServerResp_send:000000000000012c .LVL131
C:\Users\stapi\AppData\Local\Temp\ccVrwyY4.s:1285   .text.CoAPServerResp_send:000000000000012e .LVL132
C:\Users\stapi\AppData\Local\Temp\ccVrwyY4.s:1146   .text.CoAPServerResp_send:000000000000000c .LVL114
C:\Users\stapi\AppData\Local\Temp\ccVrwyY4.s:776    .text.CoAPServerMultiCast_send:0000000000000000 .LVL72
C:\Users\stapi\AppData\Local\Temp\ccVrwyY4.s:826    .text.CoAPServerMultiCast_send:000000000000003e .LVL75
C:\Users\stapi\AppData\Local\Temp\ccVrwyY4.s:1003   .text.CoAPServerMultiCast_send:0000000000000172 .LVL98
C:\Users\stapi\AppData\Local\Temp\ccVrwyY4.s:1026   .text.CoAPServerMultiCast_send:00000000000001a0 .LVL100
C:\Users\stapi\AppData\Local\Temp\ccVrwyY4.s:808    .text.CoAPServerMultiCast_send:000000000000001c .LVL74
C:\Users\stapi\AppData\Local\Temp\ccVrwyY4.s:790    .text.CoAPServerMultiCast_send:0000000000000008 .LVL73
C:\Users\stapi\AppData\Local\Temp\ccVrwyY4.s:978    .text.CoAPServerMultiCast_send:000000000000015c .LVL95
C:\Users\stapi\AppData\Local\Temp\ccVrwyY4.s:981    .text.CoAPServerMultiCast_send:000000000000015e .LVL96
C:\Users\stapi\AppData\Local\Temp\ccVrwyY4.s:876    .text.CoAPServerMultiCast_send:000000000000008c .LVL81
C:\Users\stapi\AppData\Local\Temp\ccVrwyY4.s:1062   .text.CoAPServerMultiCast_send:00000000000001e6 .LVL104
C:\Users\stapi\AppData\Local\Temp\ccVrwyY4.s:1096   .text.CoAPServerMultiCast_send:0000000000000224 .LVL109
C:\Users\stapi\AppData\Local\Temp\ccVrwyY4.s:1103   .text.CoAPServerMultiCast_send:000000000000022e .LVL111
C:\Users\stapi\AppData\Local\Temp\ccVrwyY4.s:726    .text.CoAPServer_register:0000000000000000 .LVL67
C:\Users\stapi\AppData\Local\Temp\ccVrwyY4.s:753    .text.CoAPServer_register:000000000000002c .LVL71
C:\Users\stapi\AppData\Local\Temp\ccVrwyY4.s:734    .text.CoAPServer_register:000000000000000c .LVL68
C:\Users\stapi\AppData\Local\Temp\ccVrwyY4.s:749    .text.CoAPServer_register:000000000000002a .LVL70
C:\Users\stapi\AppData\Local\Temp\ccVrwyY4.s:543    .text.CoAPServer_deinit:0000000000000000 .LVL46
C:\Users\stapi\AppData\Local\Temp\ccVrwyY4.s:563    .text.CoAPServer_deinit:000000000000001c .LVL47
C:\Users\stapi\AppData\Local\Temp\ccVrwyY4.s:592    .text.CoAPServer_deinit:000000000000004c .LVL51
C:\Users\stapi\AppData\Local\Temp\ccVrwyY4.s:601    .text.CoAPServer_deinit:0000000000000056 .LVL52
C:\Users\stapi\AppData\Local\Temp\ccVrwyY4.s:200    .text.CoAPServer_init:0000000000000008 .LVL12
C:\Users\stapi\AppData\Local\Temp\ccVrwyY4.s:285    .text.CoAPServer_init:0000000000000092 .LVL17
C:\Users\stapi\AppData\Local\Temp\ccVrwyY4.s:303    .text.CoAPServer_init:00000000000000b6 .LVL21
C:\Users\stapi\AppData\Local\Temp\ccVrwyY4.s:317    .text.CoAPServer_init:00000000000000c4 .LVL23
C:\Users\stapi\AppData\Local\Temp\ccVrwyY4.s:333    .text.CoAPServer_init:00000000000000d0 .LVL24
C:\Users\stapi\AppData\Local\Temp\ccVrwyY4.s:459    .text.CoAPServer_init:00000000000001bc .LVL36
C:\Users\stapi\AppData\Local\Temp\ccVrwyY4.s:490    .text.CoAPServer_init:0000000000000202 .LVL41
C:\Users\stapi\AppData\Local\Temp\ccVrwyY4.s:33     .text.CoAPServer_yield:0000000000000000 .LVL0
C:\Users\stapi\AppData\Local\Temp\ccVrwyY4.s:50     .text.CoAPServer_yield:0000000000000016 .LVL2
C:\Users\stapi\AppData\Local\Temp\ccVrwyY4.s:44     .text.CoAPServer_yield:000000000000000a .LVL1
C:\Users\stapi\AppData\Local\Temp\ccVrwyY4.s:1451   .debug_info:0000000000000000 .Ldebug_info0
C:\Users\stapi\AppData\Local\Temp\ccVrwyY4.s:235    .text.CoAPServer_init:0000000000000044 .LBB2
C:\Users\stapi\AppData\Local\Temp\ccVrwyY4.s:305    .text.CoAPServer_init:00000000000000b6 .LBE2
C:\Users\stapi\AppData\Local\Temp\ccVrwyY4.s:336    .text.CoAPServer_init:00000000000000d0 .LBB3
C:\Users\stapi\AppData\Local\Temp\ccVrwyY4.s:492    .text.CoAPServer_init:0000000000000202 .LBE3
C:\Users\stapi\AppData\Local\Temp\ccVrwyY4.s:863    .text.CoAPServerMultiCast_send:0000000000000082 .LBE8
C:\Users\stapi\AppData\Local\Temp\ccVrwyY4.s:867    .text.CoAPServerMultiCast_send:0000000000000086 .LBB11
C:\Users\stapi\AppData\Local\Temp\ccVrwyY4.s:878    .text.CoAPServerMultiCast_send:000000000000008c .LBE11
C:\Users\stapi\AppData\Local\Temp\ccVrwyY4.s:949    .text.CoAPServerMultiCast_send:0000000000000122 .LBE12
C:\Users\stapi\AppData\Local\Temp\ccVrwyY4.s:1006   .text.CoAPServerMultiCast_send:0000000000000172 .LBB15
C:\Users\stapi\AppData\Local\Temp\ccVrwyY4.s:1106   .text.CoAPServerMultiCast_send:0000000000000230 .LBE15

UNDEFINED SYMBOLS
__riscv_save_4
LITE_syslog
HAL_SemaphorePost
HAL_Printf
HAL_ThreadDelete
__riscv_restore_4
CoAPMessage_cycle
__riscv_save_6
memset
HAL_MutexLock
HAL_SemaphoreCreate
HAL_MutexUnlock
HAL_MutexCreate
__riscv_restore_6
HAL_SemaphoreDestroy
CoAPContext_create
HAL_MutexDestroy
HAL_ThreadCreate
CoAPContext_free
HAL_SemaphoreWait
CoAPResource_register
__riscv_save_9
CoAPMessage_init
CoAPMessageType_set
CoAPMessageCode_set
CoAPMessageId_gen
CoAPMessageId_set
CoAPMessageToken_set
CoAPMessageHandler_set
strcmp
CoAPMessageKeep_Set
strlen
CoAPUintOption_add
CoAPMessagePayload_set
CoAPMessage_send
CoAPMessage_destory
__riscv_restore_9
strncpy
CoAPStrOption_add
__riscv_save_10
CoAPUintOption_get
CoAPObsServer_add
__riscv_restore_10
__riscv_save_0
__riscv_restore_0
