   1              		.file	"CoAPResource.c"
   2              		.option nopic
   3              		.attribute arch, "rv32i2p0_m2p0_a2p0_f2p0_c2p0_b_p0p94"
   4              		.attribute unaligned_access, 0
   5              		.attribute stack_align, 16
   6              		.text
   7              	.Ltext0:
   8              		.cfi_sections	.debug_frame
   9              		.section	.text.CoAPPathMD5_sum,"ax",@progbits
  10              		.align	1
  11              		.globl	CoAPPathMD5_sum
  13              	CoAPPathMD5_sum:
  14              	.LFB20:
  15              		.file 1 "C:/Users/stapi/OneDrive/Desktop/GD32VW553/V1_MQTT_OK/GD32VW55X_Wifi_BLE_SDK/GD32VW55x_REL
   1:C:/Users/stapi/OneDrive/Desktop/GD32VW553/V1_MQTT_OK/GD32VW55X_Wifi_BLE_SDK/GD32VW55x_RELEASE_V1.0.2/MSDK/cloud/alicloud/src/protocol/coap/local\CoAPResource.c **** /*
   2:C:/Users/stapi/OneDrive/Desktop/GD32VW553/V1_MQTT_OK/GD32VW55X_Wifi_BLE_SDK/GD32VW55x_RELEASE_V1.0.2/MSDK/cloud/alicloud/src/protocol/coap/local\CoAPResource.c ****  * Copyright (C) 2015-2018 Alibaba Group Holding Limited
   3:C:/Users/stapi/OneDrive/Desktop/GD32VW553/V1_MQTT_OK/GD32VW55X_Wifi_BLE_SDK/GD32VW55x_RELEASE_V1.0.2/MSDK/cloud/alicloud/src/protocol/coap/local\CoAPResource.c ****  */
   4:C:/Users/stapi/OneDrive/Desktop/GD32VW553/V1_MQTT_OK/GD32VW55X_Wifi_BLE_SDK/GD32VW55x_RELEASE_V1.0.2/MSDK/cloud/alicloud/src/protocol/coap/local\CoAPResource.c **** 
   5:C:/Users/stapi/OneDrive/Desktop/GD32VW553/V1_MQTT_OK/GD32VW55X_Wifi_BLE_SDK/GD32VW55x_RELEASE_V1.0.2/MSDK/cloud/alicloud/src/protocol/coap/local\CoAPResource.c **** 
   6:C:/Users/stapi/OneDrive/Desktop/GD32VW553/V1_MQTT_OK/GD32VW55X_Wifi_BLE_SDK/GD32VW55x_RELEASE_V1.0.2/MSDK/cloud/alicloud/src/protocol/coap/local\CoAPResource.c **** 
   7:C:/Users/stapi/OneDrive/Desktop/GD32VW553/V1_MQTT_OK/GD32VW55X_Wifi_BLE_SDK/GD32VW55x_RELEASE_V1.0.2/MSDK/cloud/alicloud/src/protocol/coap/local\CoAPResource.c **** 
   8:C:/Users/stapi/OneDrive/Desktop/GD32VW553/V1_MQTT_OK/GD32VW55X_Wifi_BLE_SDK/GD32VW55x_RELEASE_V1.0.2/MSDK/cloud/alicloud/src/protocol/coap/local\CoAPResource.c **** #include <string.h>
   9:C:/Users/stapi/OneDrive/Desktop/GD32VW553/V1_MQTT_OK/GD32VW55X_Wifi_BLE_SDK/GD32VW55x_RELEASE_V1.0.2/MSDK/cloud/alicloud/src/protocol/coap/local\CoAPResource.c **** #include "CoAPExport.h"
  10:C:/Users/stapi/OneDrive/Desktop/GD32VW553/V1_MQTT_OK/GD32VW55X_Wifi_BLE_SDK/GD32VW55x_RELEASE_V1.0.2/MSDK/cloud/alicloud/src/protocol/coap/local\CoAPResource.c **** #include "CoAPResource.h"
  11:C:/Users/stapi/OneDrive/Desktop/GD32VW553/V1_MQTT_OK/GD32VW55X_Wifi_BLE_SDK/GD32VW55x_RELEASE_V1.0.2/MSDK/cloud/alicloud/src/protocol/coap/local\CoAPResource.c **** #include "CoAPPlatform.h"
  12:C:/Users/stapi/OneDrive/Desktop/GD32VW553/V1_MQTT_OK/GD32VW55X_Wifi_BLE_SDK/GD32VW55x_RELEASE_V1.0.2/MSDK/cloud/alicloud/src/protocol/coap/local\CoAPResource.c **** #include "CoAPInternal.h"
  13:C:/Users/stapi/OneDrive/Desktop/GD32VW553/V1_MQTT_OK/GD32VW55X_Wifi_BLE_SDK/GD32VW55x_RELEASE_V1.0.2/MSDK/cloud/alicloud/src/protocol/coap/local\CoAPResource.c **** #include "lite-list.h"
  14:C:/Users/stapi/OneDrive/Desktop/GD32VW553/V1_MQTT_OK/GD32VW55X_Wifi_BLE_SDK/GD32VW55x_RELEASE_V1.0.2/MSDK/cloud/alicloud/src/protocol/coap/local\CoAPResource.c **** #include "utils_md5.h"
  15:C:/Users/stapi/OneDrive/Desktop/GD32VW553/V1_MQTT_OK/GD32VW55X_Wifi_BLE_SDK/GD32VW55x_RELEASE_V1.0.2/MSDK/cloud/alicloud/src/protocol/coap/local\CoAPResource.c **** 
  16:C:/Users/stapi/OneDrive/Desktop/GD32VW553/V1_MQTT_OK/GD32VW55X_Wifi_BLE_SDK/GD32VW55x_RELEASE_V1.0.2/MSDK/cloud/alicloud/src/protocol/coap/local\CoAPResource.c **** #define COAP_PATH_DEFAULT_SUM_LEN (5)
  17:C:/Users/stapi/OneDrive/Desktop/GD32VW553/V1_MQTT_OK/GD32VW55X_Wifi_BLE_SDK/GD32VW55x_RELEASE_V1.0.2/MSDK/cloud/alicloud/src/protocol/coap/local\CoAPResource.c **** 
  18:C:/Users/stapi/OneDrive/Desktop/GD32VW553/V1_MQTT_OK/GD32VW55X_Wifi_BLE_SDK/GD32VW55x_RELEASE_V1.0.2/MSDK/cloud/alicloud/src/protocol/coap/local\CoAPResource.c **** int CoAPPathMD5_sum(const char *path, int len, char outbuf[], int outlen)
  19:C:/Users/stapi/OneDrive/Desktop/GD32VW553/V1_MQTT_OK/GD32VW55X_Wifi_BLE_SDK/GD32VW55x_RELEASE_V1.0.2/MSDK/cloud/alicloud/src/protocol/coap/local\CoAPResource.c **** {
  16              		.loc 1 19 1
  17              		.cfi_startproc
  18              	.LVL0:
  19 0000 17030000 		call	t0,__riscv_save_2
  19      E7020300 
  20              		.cfi_offset 9, -12
  21              		.cfi_offset 8, -8
  22              		.cfi_offset 1, -4
  23              		.cfi_def_cfa_offset 16
  20:C:/Users/stapi/OneDrive/Desktop/GD32VW553/V1_MQTT_OK/GD32VW55X_Wifi_BLE_SDK/GD32VW55x_RELEASE_V1.0.2/MSDK/cloud/alicloud/src/protocol/coap/local\CoAPResource.c ****     unsigned char md5[16] = {0};
  24              		.loc 1 20 5
  19:C:/Users/stapi/OneDrive/Desktop/GD32VW553/V1_MQTT_OK/GD32VW55X_Wifi_BLE_SDK/GD32VW55x_RELEASE_V1.0.2/MSDK/cloud/alicloud/src/protocol/coap/local\CoAPResource.c ****     unsigned char md5[16] = {0};
  25              		.loc 1 19 1 is_stmt 0
  26 0008 4111     		addi	sp,sp,-16
  27              		.cfi_def_cfa_offset 32
  28              		.loc 1 20 19
  29 000a 02C0     		sw	zero,0(sp)
  30 000c 02C2     		sw	zero,4(sp)
  31 000e 02C4     		sw	zero,8(sp)
  32 0010 02C6     		sw	zero,12(sp)
  21:C:/Users/stapi/OneDrive/Desktop/GD32VW553/V1_MQTT_OK/GD32VW55X_Wifi_BLE_SDK/GD32VW55x_RELEASE_V1.0.2/MSDK/cloud/alicloud/src/protocol/coap/local\CoAPResource.c ****     if (!path || !len || !outbuf || !outlen) {
  33              		.loc 1 21 5 is_stmt 1
  22:C:/Users/stapi/OneDrive/Desktop/GD32VW553/V1_MQTT_OK/GD32VW55X_Wifi_BLE_SDK/GD32VW55x_RELEASE_V1.0.2/MSDK/cloud/alicloud/src/protocol/coap/local\CoAPResource.c ****         return -1;
  34              		.loc 1 22 16 is_stmt 0
  35 0012 FD57     		li	a5,-1
  21:C:/Users/stapi/OneDrive/Desktop/GD32VW553/V1_MQTT_OK/GD32VW55X_Wifi_BLE_SDK/GD32VW55x_RELEASE_V1.0.2/MSDK/cloud/alicloud/src/protocol/coap/local\CoAPResource.c ****     if (!path || !len || !outbuf || !outlen) {
  36              		.loc 1 21 8
  37 0014 15C5     		beq	a0,zero,.L1
  38              		.loc 1 22 16 discriminator 1
  39 0016 FD57     		li	a5,-1
  21:C:/Users/stapi/OneDrive/Desktop/GD32VW553/V1_MQTT_OK/GD32VW55X_Wifi_BLE_SDK/GD32VW55x_RELEASE_V1.0.2/MSDK/cloud/alicloud/src/protocol/coap/local\CoAPResource.c ****     if (!path || !len || !outbuf || !outlen) {
  40              		.loc 1 21 15 discriminator 1
  41 0018 85C5     		beq	a1,zero,.L1
  42 001a 3284     		mv	s0,a2
  21:C:/Users/stapi/OneDrive/Desktop/GD32VW553/V1_MQTT_OK/GD32VW55X_Wifi_BLE_SDK/GD32VW55x_RELEASE_V1.0.2/MSDK/cloud/alicloud/src/protocol/coap/local\CoAPResource.c ****     if (!path || !len || !outbuf || !outlen) {
  43              		.loc 1 21 23 discriminator 2
  44 001c 15C2     		beq	a2,zero,.L1
  45 001e B684     		mv	s1,a3
  21:C:/Users/stapi/OneDrive/Desktop/GD32VW553/V1_MQTT_OK/GD32VW55X_Wifi_BLE_SDK/GD32VW55x_RELEASE_V1.0.2/MSDK/cloud/alicloud/src/protocol/coap/local\CoAPResource.c ****     if (!path || !len || !outbuf || !outlen) {
  46              		.loc 1 21 34 discriminator 3
  47 0020 85C2     		beq	a3,zero,.L1
  23:C:/Users/stapi/OneDrive/Desktop/GD32VW553/V1_MQTT_OK/GD32VW55X_Wifi_BLE_SDK/GD32VW55x_RELEASE_V1.0.2/MSDK/cloud/alicloud/src/protocol/coap/local\CoAPResource.c ****     }
  24:C:/Users/stapi/OneDrive/Desktop/GD32VW553/V1_MQTT_OK/GD32VW55X_Wifi_BLE_SDK/GD32VW55x_RELEASE_V1.0.2/MSDK/cloud/alicloud/src/protocol/coap/local\CoAPResource.c **** 
  25:C:/Users/stapi/OneDrive/Desktop/GD32VW553/V1_MQTT_OK/GD32VW55X_Wifi_BLE_SDK/GD32VW55x_RELEASE_V1.0.2/MSDK/cloud/alicloud/src/protocol/coap/local\CoAPResource.c ****     utils_md5((unsigned char *)path, (size_t)len, md5);
  48              		.loc 1 25 5 is_stmt 1
  49 0022 0A86     		mv	a2,sp
  50              	.LVL1:
  51 0024 97000000 		call	utils_md5
  51      E7800000 
  52              	.LVL2:
  26:C:/Users/stapi/OneDrive/Desktop/GD32VW553/V1_MQTT_OK/GD32VW55X_Wifi_BLE_SDK/GD32VW55x_RELEASE_V1.0.2/MSDK/cloud/alicloud/src/protocol/coap/local\CoAPResource.c ****     memcpy(outbuf, md5, outlen > 16 ? 16 : outlen);
  53              		.loc 1 26 5
  54 002c 4146     		li	a2,16
  55 002e 8A85     		mv	a1,sp
  56 0030 2285     		mv	a0,s0
  57 0032 33C6C40A 		min	a2,s1,a2
  58 0036 97000000 		call	memcpy
  58      E7800000 
  59              	.LVL3:
  27:C:/Users/stapi/OneDrive/Desktop/GD32VW553/V1_MQTT_OK/GD32VW55X_Wifi_BLE_SDK/GD32VW55x_RELEASE_V1.0.2/MSDK/cloud/alicloud/src/protocol/coap/local\CoAPResource.c ****     return 0;
  60              		.loc 1 27 5
  61              		.loc 1 27 12 is_stmt 0
  62 003e 8147     		li	a5,0
  63              	.LVL4:
  64              	.L1:
  28:C:/Users/stapi/OneDrive/Desktop/GD32VW553/V1_MQTT_OK/GD32VW55X_Wifi_BLE_SDK/GD32VW55x_RELEASE_V1.0.2/MSDK/cloud/alicloud/src/protocol/coap/local\CoAPResource.c **** }
  65              		.loc 1 28 1
  66 0040 3E85     		mv	a0,a5
  67 0042 4101     		addi	sp,sp,16
  68              		.cfi_def_cfa_offset 0
  69 0044 17030000 		tail	__riscv_restore_2
  69      67000300 
  70              		.cfi_restore 9
  71              		.cfi_restore 8
  72              		.cfi_restore 1
  73              		.cfi_def_cfa_offset -16
  74              		.cfi_endproc
  75              	.LFE20:
  77              		.section	.text.CoAPResource_init,"ax",@progbits
  78              		.align	1
  79              		.globl	CoAPResource_init
  81              	CoAPResource_init:
  82              	.LFB21:
  29:C:/Users/stapi/OneDrive/Desktop/GD32VW553/V1_MQTT_OK/GD32VW55X_Wifi_BLE_SDK/GD32VW55x_RELEASE_V1.0.2/MSDK/cloud/alicloud/src/protocol/coap/local\CoAPResource.c **** 
  30:C:/Users/stapi/OneDrive/Desktop/GD32VW553/V1_MQTT_OK/GD32VW55X_Wifi_BLE_SDK/GD32VW55x_RELEASE_V1.0.2/MSDK/cloud/alicloud/src/protocol/coap/local\CoAPResource.c **** 
  31:C:/Users/stapi/OneDrive/Desktop/GD32VW553/V1_MQTT_OK/GD32VW55X_Wifi_BLE_SDK/GD32VW55x_RELEASE_V1.0.2/MSDK/cloud/alicloud/src/protocol/coap/local\CoAPResource.c **** int CoAPResource_init(CoAPContext *context, int res_maxcount)
  32:C:/Users/stapi/OneDrive/Desktop/GD32VW553/V1_MQTT_OK/GD32VW55X_Wifi_BLE_SDK/GD32VW55x_RELEASE_V1.0.2/MSDK/cloud/alicloud/src/protocol/coap/local\CoAPResource.c **** {
  83              		.loc 1 32 1 is_stmt 1
  84              		.cfi_startproc
  85              	.LVL5:
  86 0000 17030000 		call	t0,__riscv_save_2
  86      E7020300 
  87              		.cfi_offset 9, -12
  88              		.cfi_offset 8, -8
  89              		.cfi_offset 1, -4
  90              		.cfi_def_cfa_offset 16
  33:C:/Users/stapi/OneDrive/Desktop/GD32VW553/V1_MQTT_OK/GD32VW55X_Wifi_BLE_SDK/GD32VW55x_RELEASE_V1.0.2/MSDK/cloud/alicloud/src/protocol/coap/local\CoAPResource.c ****     CoAPIntContext *ctx = (CoAPIntContext *)context;
  91              		.loc 1 33 5
  32:C:/Users/stapi/OneDrive/Desktop/GD32VW553/V1_MQTT_OK/GD32VW55X_Wifi_BLE_SDK/GD32VW55x_RELEASE_V1.0.2/MSDK/cloud/alicloud/src/protocol/coap/local\CoAPResource.c ****     CoAPIntContext *ctx = (CoAPIntContext *)context;
  92              		.loc 1 32 1 is_stmt 0
  93 0008 2A84     		mv	s0,a0
  94              	.LVL6:
  34:C:/Users/stapi/OneDrive/Desktop/GD32VW553/V1_MQTT_OK/GD32VW55X_Wifi_BLE_SDK/GD32VW55x_RELEASE_V1.0.2/MSDK/cloud/alicloud/src/protocol/coap/local\CoAPResource.c **** 
  35:C:/Users/stapi/OneDrive/Desktop/GD32VW553/V1_MQTT_OK/GD32VW55X_Wifi_BLE_SDK/GD32VW55x_RELEASE_V1.0.2/MSDK/cloud/alicloud/src/protocol/coap/local\CoAPResource.c ****     ctx->resource.list_mutex = HAL_MutexCreate();
  95              		.loc 1 35 5 is_stmt 1
  32:C:/Users/stapi/OneDrive/Desktop/GD32VW553/V1_MQTT_OK/GD32VW55X_Wifi_BLE_SDK/GD32VW55x_RELEASE_V1.0.2/MSDK/cloud/alicloud/src/protocol/coap/local\CoAPResource.c ****     CoAPIntContext *ctx = (CoAPIntContext *)context;
  96              		.loc 1 32 1 is_stmt 0
  97 000a AE84     		mv	s1,a1
  98              		.loc 1 35 32
  99 000c 97000000 		call	HAL_MutexCreate
  99      E7800000 
 100              	.LVL7:
 101              		.loc 1 35 30
 102 0014 68C0     		sw	a0,68(s0)
  36:C:/Users/stapi/OneDrive/Desktop/GD32VW553/V1_MQTT_OK/GD32VW55X_Wifi_BLE_SDK/GD32VW55x_RELEASE_V1.0.2/MSDK/cloud/alicloud/src/protocol/coap/local\CoAPResource.c **** 
  37:C:/Users/stapi/OneDrive/Desktop/GD32VW553/V1_MQTT_OK/GD32VW55X_Wifi_BLE_SDK/GD32VW55x_RELEASE_V1.0.2/MSDK/cloud/alicloud/src/protocol/coap/local\CoAPResource.c ****     HAL_MutexLock(ctx->resource.list_mutex);
 103              		.loc 1 37 5 is_stmt 1
 104 0016 97000000 		call	HAL_MutexLock
 104      E7800000 
 105              	.LVL8:
  38:C:/Users/stapi/OneDrive/Desktop/GD32VW553/V1_MQTT_OK/GD32VW55X_Wifi_BLE_SDK/GD32VW55x_RELEASE_V1.0.2/MSDK/cloud/alicloud/src/protocol/coap/local\CoAPResource.c ****     INIT_LIST_HEAD(&ctx->resource.list);
 106              		.loc 1 38 5
  39:C:/Users/stapi/OneDrive/Desktop/GD32VW553/V1_MQTT_OK/GD32VW55X_Wifi_BLE_SDK/GD32VW55x_RELEASE_V1.0.2/MSDK/cloud/alicloud/src/protocol/coap/local\CoAPResource.c ****     ctx->resource.count = 0;
  40:C:/Users/stapi/OneDrive/Desktop/GD32VW553/V1_MQTT_OK/GD32VW55X_Wifi_BLE_SDK/GD32VW55x_RELEASE_V1.0.2/MSDK/cloud/alicloud/src/protocol/coap/local\CoAPResource.c ****     ctx->resource.maxcount = res_maxcount;
  41:C:/Users/stapi/OneDrive/Desktop/GD32VW553/V1_MQTT_OK/GD32VW55X_Wifi_BLE_SDK/GD32VW55x_RELEASE_V1.0.2/MSDK/cloud/alicloud/src/protocol/coap/local\CoAPResource.c ****     HAL_MutexUnlock(ctx->resource.list_mutex);
 107              		.loc 1 41 5 is_stmt 0
 108 001e 6840     		lw	a0,68(s0)
  38:C:/Users/stapi/OneDrive/Desktop/GD32VW553/V1_MQTT_OK/GD32VW55X_Wifi_BLE_SDK/GD32VW55x_RELEASE_V1.0.2/MSDK/cloud/alicloud/src/protocol/coap/local\CoAPResource.c ****     INIT_LIST_HEAD(&ctx->resource.list);
 109              		.loc 1 38 20
 110 0020 93078404 		addi	a5,s0,72
 111              	.LVL9:
 112              	.LBB13:
 113              	.LBB14:
 114              		.file 2 "..\\..\\..\\..\\cloud\\alicloud\\src\\infra\\utils\\misc/lite-list.h"
   1:..\..\..\..\cloud\alicloud\src\infra\utils\misc/lite-list.h **** /*
   2:..\..\..\..\cloud\alicloud\src\infra\utils\misc/lite-list.h ****  * Copyright (C) 2015-2018 Alibaba Group Holding Limited
   3:..\..\..\..\cloud\alicloud\src\infra\utils\misc/lite-list.h ****  */
   4:..\..\..\..\cloud\alicloud\src\infra\utils\misc/lite-list.h **** 
   5:..\..\..\..\cloud\alicloud\src\infra\utils\misc/lite-list.h **** #ifndef AOS_LIST_H
   6:..\..\..\..\cloud\alicloud\src\infra\utils\misc/lite-list.h **** #define AOS_LIST_H
   7:..\..\..\..\cloud\alicloud\src\infra\utils\misc/lite-list.h **** 
   8:..\..\..\..\cloud\alicloud\src\infra\utils\misc/lite-list.h **** #ifdef __cplusplus
   9:..\..\..\..\cloud\alicloud\src\infra\utils\misc/lite-list.h **** extern "C" {
  10:..\..\..\..\cloud\alicloud\src\infra\utils\misc/lite-list.h **** #endif
  11:..\..\..\..\cloud\alicloud\src\infra\utils\misc/lite-list.h **** 
  12:..\..\..\..\cloud\alicloud\src\infra\utils\misc/lite-list.h **** /*
  13:..\..\..\..\cloud\alicloud\src\infra\utils\misc/lite-list.h ****  * Get offset of a member variable.
  14:..\..\..\..\cloud\alicloud\src\infra\utils\misc/lite-list.h ****  *
  15:..\..\..\..\cloud\alicloud\src\infra\utils\misc/lite-list.h ****  * @param[in]   type     the type of the struct this is embedded in.
  16:..\..\..\..\cloud\alicloud\src\infra\utils\misc/lite-list.h ****  * @param[in]   member   the name of the variable within the struct.
  17:..\..\..\..\cloud\alicloud\src\infra\utils\misc/lite-list.h ****  */
  18:..\..\..\..\cloud\alicloud\src\infra\utils\misc/lite-list.h **** #define aos_offsetof(type, member)   ((size_t)&(((type *)0)->member))
  19:..\..\..\..\cloud\alicloud\src\infra\utils\misc/lite-list.h **** 
  20:..\..\..\..\cloud\alicloud\src\infra\utils\misc/lite-list.h **** /*
  21:..\..\..\..\cloud\alicloud\src\infra\utils\misc/lite-list.h ****  * Get the struct for this entry.
  22:..\..\..\..\cloud\alicloud\src\infra\utils\misc/lite-list.h ****  *
  23:..\..\..\..\cloud\alicloud\src\infra\utils\misc/lite-list.h ****  * @param[in]   ptr     the list head to take the element from.
  24:..\..\..\..\cloud\alicloud\src\infra\utils\misc/lite-list.h ****  * @param[in]   type    the type of the struct this is embedded in.
  25:..\..\..\..\cloud\alicloud\src\infra\utils\misc/lite-list.h ****  * @param[in]   member  the name of the variable within the struct.
  26:..\..\..\..\cloud\alicloud\src\infra\utils\misc/lite-list.h ****  */
  27:..\..\..\..\cloud\alicloud\src\infra\utils\misc/lite-list.h **** #define aos_container_of(ptr, type, member) \
  28:..\..\..\..\cloud\alicloud\src\infra\utils\misc/lite-list.h ****     ((type *) ((char *) (ptr) - aos_offsetof(type, member)))
  29:..\..\..\..\cloud\alicloud\src\infra\utils\misc/lite-list.h **** 
  30:..\..\..\..\cloud\alicloud\src\infra\utils\misc/lite-list.h **** /* for double link list */
  31:..\..\..\..\cloud\alicloud\src\infra\utils\misc/lite-list.h **** typedef struct dlist_s {
  32:..\..\..\..\cloud\alicloud\src\infra\utils\misc/lite-list.h ****     struct dlist_s *prev;
  33:..\..\..\..\cloud\alicloud\src\infra\utils\misc/lite-list.h ****     struct dlist_s *next;
  34:..\..\..\..\cloud\alicloud\src\infra\utils\misc/lite-list.h **** } dlist_t;
  35:..\..\..\..\cloud\alicloud\src\infra\utils\misc/lite-list.h **** 
  36:..\..\..\..\cloud\alicloud\src\infra\utils\misc/lite-list.h **** static inline void __dlist_add(dlist_t *node, dlist_t *prev, dlist_t *next)
  37:..\..\..\..\cloud\alicloud\src\infra\utils\misc/lite-list.h **** {
  38:..\..\..\..\cloud\alicloud\src\infra\utils\misc/lite-list.h ****     node->next = next;
  39:..\..\..\..\cloud\alicloud\src\infra\utils\misc/lite-list.h ****     node->prev = prev;
  40:..\..\..\..\cloud\alicloud\src\infra\utils\misc/lite-list.h **** 
  41:..\..\..\..\cloud\alicloud\src\infra\utils\misc/lite-list.h ****     prev->next = node;
  42:..\..\..\..\cloud\alicloud\src\infra\utils\misc/lite-list.h ****     next->prev = node;
  43:..\..\..\..\cloud\alicloud\src\infra\utils\misc/lite-list.h **** }
  44:..\..\..\..\cloud\alicloud\src\infra\utils\misc/lite-list.h **** 
  45:..\..\..\..\cloud\alicloud\src\infra\utils\misc/lite-list.h **** /*
  46:..\..\..\..\cloud\alicloud\src\infra\utils\misc/lite-list.h ****  * Get the struct for this entry.
  47:..\..\..\..\cloud\alicloud\src\infra\utils\misc/lite-list.h ****  *
  48:..\..\..\..\cloud\alicloud\src\infra\utils\misc/lite-list.h ****  * @param[in]   addr    the list head to take the element from.
  49:..\..\..\..\cloud\alicloud\src\infra\utils\misc/lite-list.h ****  * @param[in]   type    the type of the struct this is embedded in.
  50:..\..\..\..\cloud\alicloud\src\infra\utils\misc/lite-list.h ****  * @param[in]   member  the name of the dlist_t within the struct.
  51:..\..\..\..\cloud\alicloud\src\infra\utils\misc/lite-list.h ****  */
  52:..\..\..\..\cloud\alicloud\src\infra\utils\misc/lite-list.h **** #define dlist_entry(addr, type, member) \
  53:..\..\..\..\cloud\alicloud\src\infra\utils\misc/lite-list.h ****     ((type *)((long)addr - aos_offsetof(type, member)))
  54:..\..\..\..\cloud\alicloud\src\infra\utils\misc/lite-list.h **** 
  55:..\..\..\..\cloud\alicloud\src\infra\utils\misc/lite-list.h **** 
  56:..\..\..\..\cloud\alicloud\src\infra\utils\misc/lite-list.h **** static inline void dlist_add(dlist_t *node, dlist_t *queue)
  57:..\..\..\..\cloud\alicloud\src\infra\utils\misc/lite-list.h **** {
  58:..\..\..\..\cloud\alicloud\src\infra\utils\misc/lite-list.h ****     __dlist_add(node, queue, queue->next);
  59:..\..\..\..\cloud\alicloud\src\infra\utils\misc/lite-list.h **** }
  60:..\..\..\..\cloud\alicloud\src\infra\utils\misc/lite-list.h **** 
  61:..\..\..\..\cloud\alicloud\src\infra\utils\misc/lite-list.h **** static inline void dlist_add_tail(dlist_t *node, dlist_t *queue)
  62:..\..\..\..\cloud\alicloud\src\infra\utils\misc/lite-list.h **** {
  63:..\..\..\..\cloud\alicloud\src\infra\utils\misc/lite-list.h ****     __dlist_add(node, queue->prev, queue);
  64:..\..\..\..\cloud\alicloud\src\infra\utils\misc/lite-list.h **** }
  65:..\..\..\..\cloud\alicloud\src\infra\utils\misc/lite-list.h **** 
  66:..\..\..\..\cloud\alicloud\src\infra\utils\misc/lite-list.h **** static inline void dlist_del(dlist_t *node)
  67:..\..\..\..\cloud\alicloud\src\infra\utils\misc/lite-list.h **** {
  68:..\..\..\..\cloud\alicloud\src\infra\utils\misc/lite-list.h ****     dlist_t *prev = node->prev;
  69:..\..\..\..\cloud\alicloud\src\infra\utils\misc/lite-list.h ****     dlist_t *next = node->next;
  70:..\..\..\..\cloud\alicloud\src\infra\utils\misc/lite-list.h **** 
  71:..\..\..\..\cloud\alicloud\src\infra\utils\misc/lite-list.h ****     prev->next = next;
  72:..\..\..\..\cloud\alicloud\src\infra\utils\misc/lite-list.h ****     next->prev = prev;
  73:..\..\..\..\cloud\alicloud\src\infra\utils\misc/lite-list.h **** }
  74:..\..\..\..\cloud\alicloud\src\infra\utils\misc/lite-list.h **** 
  75:..\..\..\..\cloud\alicloud\src\infra\utils\misc/lite-list.h **** static inline void dlist_init(dlist_t *node)
  76:..\..\..\..\cloud\alicloud\src\infra\utils\misc/lite-list.h **** {
  77:..\..\..\..\cloud\alicloud\src\infra\utils\misc/lite-list.h ****     node->next = node->prev = node;
  78:..\..\..\..\cloud\alicloud\src\infra\utils\misc/lite-list.h **** }
  79:..\..\..\..\cloud\alicloud\src\infra\utils\misc/lite-list.h **** 
  80:..\..\..\..\cloud\alicloud\src\infra\utils\misc/lite-list.h **** static inline void INIT_AOS_DLIST_HEAD(dlist_t *list)
  81:..\..\..\..\cloud\alicloud\src\infra\utils\misc/lite-list.h **** {
  82:..\..\..\..\cloud\alicloud\src\infra\utils\misc/lite-list.h ****     list->next = list;
 115              		.loc 2 82 5 is_stmt 1
 116              		.loc 2 82 16 is_stmt 0
 117 0024 7CC4     		sw	a5,76(s0)
  83:..\..\..\..\cloud\alicloud\src\infra\utils\misc/lite-list.h ****     list->prev = list;
 118              		.loc 2 83 5 is_stmt 1
 119              		.loc 2 83 16 is_stmt 0
 120 0026 3CC4     		sw	a5,72(s0)
 121              	.LVL10:
 122              	.LBE14:
 123              	.LBE13:
  39:C:/Users/stapi/OneDrive/Desktop/GD32VW553/V1_MQTT_OK/GD32VW55X_Wifi_BLE_SDK/GD32VW55x_RELEASE_V1.0.2/MSDK/cloud/alicloud/src/protocol/coap/local\CoAPResource.c ****     ctx->resource.count = 0;
 124              		.loc 1 39 5 is_stmt 1
  39:C:/Users/stapi/OneDrive/Desktop/GD32VW553/V1_MQTT_OK/GD32VW55X_Wifi_BLE_SDK/GD32VW55x_RELEASE_V1.0.2/MSDK/cloud/alicloud/src/protocol/coap/local\CoAPResource.c ****     ctx->resource.count = 0;
 125              		.loc 1 39 25 is_stmt 0
 126 0028 23080404 		sb	zero,80(s0)
  40:C:/Users/stapi/OneDrive/Desktop/GD32VW553/V1_MQTT_OK/GD32VW55X_Wifi_BLE_SDK/GD32VW55x_RELEASE_V1.0.2/MSDK/cloud/alicloud/src/protocol/coap/local\CoAPResource.c ****     HAL_MutexUnlock(ctx->resource.list_mutex);
 127              		.loc 1 40 5 is_stmt 1
  40:C:/Users/stapi/OneDrive/Desktop/GD32VW553/V1_MQTT_OK/GD32VW55X_Wifi_BLE_SDK/GD32VW55x_RELEASE_V1.0.2/MSDK/cloud/alicloud/src/protocol/coap/local\CoAPResource.c ****     HAL_MutexUnlock(ctx->resource.list_mutex);
 128              		.loc 1 40 28 is_stmt 0
 129 002c A3089404 		sb	s1,81(s0)
 130              		.loc 1 41 5 is_stmt 1
 131 0030 97000000 		call	HAL_MutexUnlock
 131      E7800000 
 132              	.LVL11:
  42:C:/Users/stapi/OneDrive/Desktop/GD32VW553/V1_MQTT_OK/GD32VW55X_Wifi_BLE_SDK/GD32VW55x_RELEASE_V1.0.2/MSDK/cloud/alicloud/src/protocol/coap/local\CoAPResource.c **** 
  43:C:/Users/stapi/OneDrive/Desktop/GD32VW553/V1_MQTT_OK/GD32VW55X_Wifi_BLE_SDK/GD32VW55x_RELEASE_V1.0.2/MSDK/cloud/alicloud/src/protocol/coap/local\CoAPResource.c ****     return COAP_SUCCESS;
 133              		.loc 1 43 5
  44:C:/Users/stapi/OneDrive/Desktop/GD32VW553/V1_MQTT_OK/GD32VW55X_Wifi_BLE_SDK/GD32VW55x_RELEASE_V1.0.2/MSDK/cloud/alicloud/src/protocol/coap/local\CoAPResource.c **** }
 134              		.loc 1 44 1 is_stmt 0
 135 0038 0145     		li	a0,0
 136 003a 17030000 		tail	__riscv_restore_2
 136      67000300 
 137              		.cfi_restore 9
 138              		.cfi_restore 8
 139              		.cfi_restore 1
 140              		.cfi_def_cfa_offset 0
 141              		.cfi_endproc
 142              	.LFE21:
 144              		.section	.rodata.CoAPResource_deinit.str1.4,"aMS",@progbits,1
 145              		.align	2
 146              	.LC0:
 147 0000 52656C65 		.string	"Release the resource %s"
 147      61736520 
 147      74686520 
 147      7265736F 
 147      75726365 
 148              		.align	2
 149              	.LC1:
 150 0018 636F6170 		.string	"coap_local"
 150      5F6C6F63 
 150      616C00
 151              		.section	.text.CoAPResource_deinit,"ax",@progbits
 152              		.align	1
 153              		.globl	CoAPResource_deinit
 155              	CoAPResource_deinit:
 156              	.LFB22:
  45:C:/Users/stapi/OneDrive/Desktop/GD32VW553/V1_MQTT_OK/GD32VW55X_Wifi_BLE_SDK/GD32VW55x_RELEASE_V1.0.2/MSDK/cloud/alicloud/src/protocol/coap/local\CoAPResource.c **** 
  46:C:/Users/stapi/OneDrive/Desktop/GD32VW553/V1_MQTT_OK/GD32VW55X_Wifi_BLE_SDK/GD32VW55x_RELEASE_V1.0.2/MSDK/cloud/alicloud/src/protocol/coap/local\CoAPResource.c **** int CoAPResource_deinit(CoAPContext *context)
  47:C:/Users/stapi/OneDrive/Desktop/GD32VW553/V1_MQTT_OK/GD32VW55X_Wifi_BLE_SDK/GD32VW55x_RELEASE_V1.0.2/MSDK/cloud/alicloud/src/protocol/coap/local\CoAPResource.c **** {
 157              		.loc 1 47 1 is_stmt 1
 158              		.cfi_startproc
 159              	.LVL12:
 160 0000 17030000 		call	t0,__riscv_save_9
 160      E7020300 
 161              		.cfi_offset 24, -40
 162              		.cfi_offset 23, -36
 163              		.cfi_offset 22, -32
 164              		.cfi_offset 21, -28
 165              		.cfi_offset 20, -24
 166              		.cfi_offset 19, -20
 167              		.cfi_offset 18, -16
 168              		.cfi_offset 9, -12
 169              		.cfi_offset 8, -8
 170              		.cfi_offset 1, -4
 171              		.cfi_def_cfa_offset 48
  48:C:/Users/stapi/OneDrive/Desktop/GD32VW553/V1_MQTT_OK/GD32VW55X_Wifi_BLE_SDK/GD32VW55x_RELEASE_V1.0.2/MSDK/cloud/alicloud/src/protocol/coap/local\CoAPResource.c ****     CoAPResource *node = NULL, *next = NULL;
 172              		.loc 1 48 5
 173              	.LVL13:
  49:C:/Users/stapi/OneDrive/Desktop/GD32VW553/V1_MQTT_OK/GD32VW55X_Wifi_BLE_SDK/GD32VW55x_RELEASE_V1.0.2/MSDK/cloud/alicloud/src/protocol/coap/local\CoAPResource.c ****     CoAPIntContext *ctx = (CoAPIntContext *)context;
 174              		.loc 1 49 5
  50:C:/Users/stapi/OneDrive/Desktop/GD32VW553/V1_MQTT_OK/GD32VW55X_Wifi_BLE_SDK/GD32VW55x_RELEASE_V1.0.2/MSDK/cloud/alicloud/src/protocol/coap/local\CoAPResource.c ****     char            tmpbuf[2 * COAP_MAX_PATH_CHECKSUM_LEN + 1] = {0};
 175              		.loc 1 50 5
  47:C:/Users/stapi/OneDrive/Desktop/GD32VW553/V1_MQTT_OK/GD32VW55X_Wifi_BLE_SDK/GD32VW55x_RELEASE_V1.0.2/MSDK/cloud/alicloud/src/protocol/coap/local\CoAPResource.c ****     CoAPResource *node = NULL, *next = NULL;
 176              		.loc 1 47 1 is_stmt 0
 177 0008 AA84     		mv	s1,a0
  51:C:/Users/stapi/OneDrive/Desktop/GD32VW553/V1_MQTT_OK/GD32VW55X_Wifi_BLE_SDK/GD32VW55x_RELEASE_V1.0.2/MSDK/cloud/alicloud/src/protocol/coap/local\CoAPResource.c **** 
  52:C:/Users/stapi/OneDrive/Desktop/GD32VW553/V1_MQTT_OK/GD32VW55X_Wifi_BLE_SDK/GD32VW55x_RELEASE_V1.0.2/MSDK/cloud/alicloud/src/protocol/coap/local\CoAPResource.c ****     HAL_MutexLock(ctx->resource.list_mutex);
 178              		.loc 1 52 5
 179 000a 6841     		lw	a0,68(a0)
 180              	.LVL14:
  47:C:/Users/stapi/OneDrive/Desktop/GD32VW553/V1_MQTT_OK/GD32VW55X_Wifi_BLE_SDK/GD32VW55x_RELEASE_V1.0.2/MSDK/cloud/alicloud/src/protocol/coap/local\CoAPResource.c ****     CoAPResource *node = NULL, *next = NULL;
 181              		.loc 1 47 1
 182 000c 4111     		addi	sp,sp,-16
 183              		.cfi_def_cfa_offset 64
  50:C:/Users/stapi/OneDrive/Desktop/GD32VW553/V1_MQTT_OK/GD32VW55X_Wifi_BLE_SDK/GD32VW55x_RELEASE_V1.0.2/MSDK/cloud/alicloud/src/protocol/coap/local\CoAPResource.c **** 
 184              		.loc 1 50 21
 185 000e 02C2     		sw	zero,4(sp)
 186 0010 02C4     		sw	zero,8(sp)
 187 0012 23160100 		sh	zero,12(sp)
 188 0016 23070100 		sb	zero,14(sp)
 189              		.loc 1 52 5 is_stmt 1
 190 001a 97000000 		call	HAL_MutexLock
 190      E7800000 
 191              	.LVL15:
  53:C:/Users/stapi/OneDrive/Desktop/GD32VW553/V1_MQTT_OK/GD32VW55X_Wifi_BLE_SDK/GD32VW55x_RELEASE_V1.0.2/MSDK/cloud/alicloud/src/protocol/coap/local\CoAPResource.c ****     list_for_each_entry_safe(node, next, &ctx->resource.list, reslist, CoAPResource) {
 192              		.loc 1 53 5
 193 0022 FC44     		lw	a5,76(s1)
 194 0024 138A8404 		addi	s4,s1,72
  54:C:/Users/stapi/OneDrive/Desktop/GD32VW553/V1_MQTT_OK/GD32VW55X_Wifi_BLE_SDK/GD32VW55x_RELEASE_V1.0.2/MSDK/cloud/alicloud/src/protocol/coap/local\CoAPResource.c ****         if (node->path_type == PATH_FILTER && node->filter_path) {
 195              		.loc 1 54 12 is_stmt 0
 196 0028 854A     		li	s5,1
  53:C:/Users/stapi/OneDrive/Desktop/GD32VW553/V1_MQTT_OK/GD32VW55X_Wifi_BLE_SDK/GD32VW55x_RELEASE_V1.0.2/MSDK/cloud/alicloud/src/protocol/coap/local\CoAPResource.c ****     list_for_each_entry_safe(node, next, &ctx->resource.list, reslist, CoAPResource) {
 197              		.loc 1 53 5
 198 002a 03A94700 		lw	s2,4(a5)
 199 002e 138407FF 		addi	s0,a5,-16
 200              	.LVL16:
  55:C:/Users/stapi/OneDrive/Desktop/GD32VW553/V1_MQTT_OK/GD32VW55X_Wifi_BLE_SDK/GD32VW55x_RELEASE_V1.0.2/MSDK/cloud/alicloud/src/protocol/coap/local\CoAPResource.c ****             coap_free(node->filter_path);
  56:C:/Users/stapi/OneDrive/Desktop/GD32VW553/V1_MQTT_OK/GD32VW55X_Wifi_BLE_SDK/GD32VW55x_RELEASE_V1.0.2/MSDK/cloud/alicloud/src/protocol/coap/local\CoAPResource.c ****         }
  57:C:/Users/stapi/OneDrive/Desktop/GD32VW553/V1_MQTT_OK/GD32VW55X_Wifi_BLE_SDK/GD32VW55x_RELEASE_V1.0.2/MSDK/cloud/alicloud/src/protocol/coap/local\CoAPResource.c **** 
  58:C:/Users/stapi/OneDrive/Desktop/GD32VW553/V1_MQTT_OK/GD32VW55X_Wifi_BLE_SDK/GD32VW55x_RELEASE_V1.0.2/MSDK/cloud/alicloud/src/protocol/coap/local\CoAPResource.c ****         list_del_init(&node->reslist);
  59:C:/Users/stapi/OneDrive/Desktop/GD32VW553/V1_MQTT_OK/GD32VW55X_Wifi_BLE_SDK/GD32VW55x_RELEASE_V1.0.2/MSDK/cloud/alicloud/src/protocol/coap/local\CoAPResource.c ****         LITE_hexbuf_convert((unsigned char *)node->path, tmpbuf, COAP_MAX_PATH_CHECKSUM_LEN, 0);
  60:C:/Users/stapi/OneDrive/Desktop/GD32VW553/V1_MQTT_OK/GD32VW55X_Wifi_BLE_SDK/GD32VW55x_RELEASE_V1.0.2/MSDK/cloud/alicloud/src/protocol/coap/local\CoAPResource.c ****         COAP_DEBUG("Release the resource %s", tmpbuf);
 201              		.loc 1 60 9
 202 0032 370B0000 		lui	s6,%hi(.LANCHOR0)
  53:C:/Users/stapi/OneDrive/Desktop/GD32VW553/V1_MQTT_OK/GD32VW55X_Wifi_BLE_SDK/GD32VW55x_RELEASE_V1.0.2/MSDK/cloud/alicloud/src/protocol/coap/local\CoAPResource.c ****         if (node->path_type == PATH_FILTER && node->filter_path) {
 203              		.loc 1 53 5
 204 0036 4119     		addi	s2,s2,-16
 205              	.LVL17:
 206              		.loc 1 60 9
 207 0038 B70B0000 		lui	s7,%hi(.LC0)
 208 003c 370C0000 		lui	s8,%hi(.LC1)
 209              	.L11:
  53:C:/Users/stapi/OneDrive/Desktop/GD32VW553/V1_MQTT_OK/GD32VW55X_Wifi_BLE_SDK/GD32VW55x_RELEASE_V1.0.2/MSDK/cloud/alicloud/src/protocol/coap/local\CoAPResource.c ****         if (node->path_type == PATH_FILTER && node->filter_path) {
 210              		.loc 1 53 5 is_stmt 1 discriminator 1
 211 0040 93090401 		addi	s3,s0,16
 212 0044 63964903 		bne	s3,s4,.L13
  61:C:/Users/stapi/OneDrive/Desktop/GD32VW553/V1_MQTT_OK/GD32VW55X_Wifi_BLE_SDK/GD32VW55x_RELEASE_V1.0.2/MSDK/cloud/alicloud/src/protocol/coap/local\CoAPResource.c ****         coap_free(node);
  62:C:/Users/stapi/OneDrive/Desktop/GD32VW553/V1_MQTT_OK/GD32VW55X_Wifi_BLE_SDK/GD32VW55x_RELEASE_V1.0.2/MSDK/cloud/alicloud/src/protocol/coap/local\CoAPResource.c ****     }
  63:C:/Users/stapi/OneDrive/Desktop/GD32VW553/V1_MQTT_OK/GD32VW55X_Wifi_BLE_SDK/GD32VW55x_RELEASE_V1.0.2/MSDK/cloud/alicloud/src/protocol/coap/local\CoAPResource.c ****     ctx->resource.count = 0;
 213              		.loc 1 63 5
  64:C:/Users/stapi/OneDrive/Desktop/GD32VW553/V1_MQTT_OK/GD32VW55X_Wifi_BLE_SDK/GD32VW55x_RELEASE_V1.0.2/MSDK/cloud/alicloud/src/protocol/coap/local\CoAPResource.c ****     ctx->resource.maxcount = 0;
 214              		.loc 1 64 5
  65:C:/Users/stapi/OneDrive/Desktop/GD32VW553/V1_MQTT_OK/GD32VW55X_Wifi_BLE_SDK/GD32VW55x_RELEASE_V1.0.2/MSDK/cloud/alicloud/src/protocol/coap/local\CoAPResource.c ****     HAL_MutexUnlock(ctx->resource.list_mutex);
 215              		.loc 1 65 5 is_stmt 0
 216 0048 E840     		lw	a0,68(s1)
  63:C:/Users/stapi/OneDrive/Desktop/GD32VW553/V1_MQTT_OK/GD32VW55X_Wifi_BLE_SDK/GD32VW55x_RELEASE_V1.0.2/MSDK/cloud/alicloud/src/protocol/coap/local\CoAPResource.c ****     ctx->resource.maxcount = 0;
 217              		.loc 1 63 25
 218 004a 23980404 		sh	zero,80(s1)
 219              		.loc 1 65 5 is_stmt 1
 220 004e 97000000 		call	HAL_MutexUnlock
 220      E7800000 
 221              	.LVL18:
  66:C:/Users/stapi/OneDrive/Desktop/GD32VW553/V1_MQTT_OK/GD32VW55X_Wifi_BLE_SDK/GD32VW55x_RELEASE_V1.0.2/MSDK/cloud/alicloud/src/protocol/coap/local\CoAPResource.c **** 
  67:C:/Users/stapi/OneDrive/Desktop/GD32VW553/V1_MQTT_OK/GD32VW55X_Wifi_BLE_SDK/GD32VW55x_RELEASE_V1.0.2/MSDK/cloud/alicloud/src/protocol/coap/local\CoAPResource.c ****     HAL_MutexDestroy(ctx->resource.list_mutex);
 222              		.loc 1 67 5
 223 0056 E840     		lw	a0,68(s1)
 224 0058 97000000 		call	HAL_MutexDestroy
 224      E7800000 
 225              	.LVL19:
  68:C:/Users/stapi/OneDrive/Desktop/GD32VW553/V1_MQTT_OK/GD32VW55X_Wifi_BLE_SDK/GD32VW55x_RELEASE_V1.0.2/MSDK/cloud/alicloud/src/protocol/coap/local\CoAPResource.c ****     ctx->resource.list_mutex = NULL;
 226              		.loc 1 68 5
 227              		.loc 1 68 30 is_stmt 0
 228 0060 23A20404 		sw	zero,68(s1)
  69:C:/Users/stapi/OneDrive/Desktop/GD32VW553/V1_MQTT_OK/GD32VW55X_Wifi_BLE_SDK/GD32VW55x_RELEASE_V1.0.2/MSDK/cloud/alicloud/src/protocol/coap/local\CoAPResource.c ****     return COAP_SUCCESS;
 229              		.loc 1 69 5 is_stmt 1
  70:C:/Users/stapi/OneDrive/Desktop/GD32VW553/V1_MQTT_OK/GD32VW55X_Wifi_BLE_SDK/GD32VW55x_RELEASE_V1.0.2/MSDK/cloud/alicloud/src/protocol/coap/local\CoAPResource.c **** }
 230              		.loc 1 70 1 is_stmt 0
 231 0064 0145     		li	a0,0
 232 0066 4101     		addi	sp,sp,16
 233              		.cfi_remember_state
 234              		.cfi_def_cfa_offset 0
 235 0068 17030000 		tail	__riscv_restore_9
 235      67000300 
 236              		.cfi_restore 24
 237              		.cfi_restore 23
 238              		.cfi_restore 22
 239              		.cfi_restore 21
 240              		.cfi_restore 20
 241              		.cfi_restore 19
 242              		.cfi_restore 18
 243              		.cfi_restore 9
 244              		.cfi_restore 8
 245              		.cfi_restore 1
 246              		.cfi_def_cfa_offset -48
 247              	.L13:
 248              		.cfi_restore_state
  54:C:/Users/stapi/OneDrive/Desktop/GD32VW553/V1_MQTT_OK/GD32VW55X_Wifi_BLE_SDK/GD32VW55x_RELEASE_V1.0.2/MSDK/cloud/alicloud/src/protocol/coap/local\CoAPResource.c ****             coap_free(node->filter_path);
 249              		.loc 1 54 9 is_stmt 1
  54:C:/Users/stapi/OneDrive/Desktop/GD32VW553/V1_MQTT_OK/GD32VW55X_Wifi_BLE_SDK/GD32VW55x_RELEASE_V1.0.2/MSDK/cloud/alicloud/src/protocol/coap/local\CoAPResource.c ****             coap_free(node->filter_path);
 250              		.loc 1 54 12 is_stmt 0
 251 0070 5C50     		lw	a5,36(s0)
 252 0072 63985701 		bne	a5,s5,.L12
  54:C:/Users/stapi/OneDrive/Desktop/GD32VW553/V1_MQTT_OK/GD32VW55X_Wifi_BLE_SDK/GD32VW55x_RELEASE_V1.0.2/MSDK/cloud/alicloud/src/protocol/coap/local\CoAPResource.c ****             coap_free(node->filter_path);
 253              		.loc 1 54 51 discriminator 1
 254 0076 0850     		lw	a0,32(s0)
  54:C:/Users/stapi/OneDrive/Desktop/GD32VW553/V1_MQTT_OK/GD32VW55X_Wifi_BLE_SDK/GD32VW55x_RELEASE_V1.0.2/MSDK/cloud/alicloud/src/protocol/coap/local\CoAPResource.c ****             coap_free(node->filter_path);
 255              		.loc 1 54 44 discriminator 1
 256 0078 09C5     		beq	a0,zero,.L12
  55:C:/Users/stapi/OneDrive/Desktop/GD32VW553/V1_MQTT_OK/GD32VW55X_Wifi_BLE_SDK/GD32VW55x_RELEASE_V1.0.2/MSDK/cloud/alicloud/src/protocol/coap/local\CoAPResource.c ****         }
 257              		.loc 1 55 13 is_stmt 1
 258 007a 97000000 		call	LITE_free_internal
 258      E7800000 
 259              	.LVL20:
 260              	.L12:
  58:C:/Users/stapi/OneDrive/Desktop/GD32VW553/V1_MQTT_OK/GD32VW55X_Wifi_BLE_SDK/GD32VW55x_RELEASE_V1.0.2/MSDK/cloud/alicloud/src/protocol/coap/local\CoAPResource.c ****         LITE_hexbuf_convert((unsigned char *)node->path, tmpbuf, COAP_MAX_PATH_CHECKSUM_LEN, 0);
 261              		.loc 1 58 9 discriminator 2
 262              		.file 3 "..\\..\\..\\..\\cloud\\alicloud\\src\\infra\\utils\\misc/compat_aos_list.h"
   1:..\..\..\..\cloud\alicloud\src\infra\utils\misc/compat_aos_list.h **** #ifndef __COMPAT_AOS_LIST_H__
   2:..\..\..\..\cloud\alicloud\src\infra\utils\misc/compat_aos_list.h **** #define __COMPAT_AOS_LIST_H__
   3:..\..\..\..\cloud\alicloud\src\infra\utils\misc/compat_aos_list.h **** 
   4:..\..\..\..\cloud\alicloud\src\infra\utils\misc/compat_aos_list.h **** #ifndef offset_of
   5:..\..\..\..\cloud\alicloud\src\infra\utils\misc/compat_aos_list.h ****     #define offset_of aos_offsetof
   6:..\..\..\..\cloud\alicloud\src\infra\utils\misc/compat_aos_list.h **** #endif
   7:..\..\..\..\cloud\alicloud\src\infra\utils\misc/compat_aos_list.h **** #ifndef container_of
   8:..\..\..\..\cloud\alicloud\src\infra\utils\misc/compat_aos_list.h ****     #define container_of aos_container_of
   9:..\..\..\..\cloud\alicloud\src\infra\utils\misc/compat_aos_list.h **** #endif
  10:..\..\..\..\cloud\alicloud\src\infra\utils\misc/compat_aos_list.h **** 
  11:..\..\..\..\cloud\alicloud\src\infra\utils\misc/compat_aos_list.h **** #define LIST_HEAD                       AOS_DLIST_HEAD
  12:..\..\..\..\cloud\alicloud\src\infra\utils\misc/compat_aos_list.h **** #define LIST_HEAD_INIT                  AOS_DLIST_INIT
  13:..\..\..\..\cloud\alicloud\src\infra\utils\misc/compat_aos_list.h **** #define INIT_LIST_HEAD                  INIT_AOS_DLIST_HEAD
  14:..\..\..\..\cloud\alicloud\src\infra\utils\misc/compat_aos_list.h **** #define LIST_INIT                       AOS_DLIST_INIT
  15:..\..\..\..\cloud\alicloud\src\infra\utils\misc/compat_aos_list.h **** 
  16:..\..\..\..\cloud\alicloud\src\infra\utils\misc/compat_aos_list.h **** #define list_head                       dlist_s
  17:..\..\..\..\cloud\alicloud\src\infra\utils\misc/compat_aos_list.h **** #define list_head_t                     dlist_t
  18:..\..\..\..\cloud\alicloud\src\infra\utils\misc/compat_aos_list.h **** 
  19:..\..\..\..\cloud\alicloud\src\infra\utils\misc/compat_aos_list.h **** #define list_add                        dlist_add
  20:..\..\..\..\cloud\alicloud\src\infra\utils\misc/compat_aos_list.h **** #define list_add_tail                   dlist_add_tail
  21:..\..\..\..\cloud\alicloud\src\infra\utils\misc/compat_aos_list.h **** #define list_del                        dlist_del
  22:..\..\..\..\cloud\alicloud\src\infra\utils\misc/compat_aos_list.h **** #define list_empty                      dlist_empty
  23:..\..\..\..\cloud\alicloud\src\infra\utils\misc/compat_aos_list.h **** #define list_entry_number               dlist_entry_number
  24:..\..\..\..\cloud\alicloud\src\infra\utils\misc/compat_aos_list.h **** #define list_first_entry                dlist_first_entry
  25:..\..\..\..\cloud\alicloud\src\infra\utils\misc/compat_aos_list.h **** #define list_for_each                   dlist_for_each
  26:..\..\..\..\cloud\alicloud\src\infra\utils\misc/compat_aos_list.h **** #define list_for_each_entry_reverse     dlist_for_each_entry_reverse
  27:..\..\..\..\cloud\alicloud\src\infra\utils\misc/compat_aos_list.h **** #define list_for_each_safe              dlist_for_each_safe
  28:..\..\..\..\cloud\alicloud\src\infra\utils\misc/compat_aos_list.h **** #define list_init                       dlist_init
  29:..\..\..\..\cloud\alicloud\src\infra\utils\misc/compat_aos_list.h **** 
  30:..\..\..\..\cloud\alicloud\src\infra\utils\misc/compat_aos_list.h **** #define list_for_each_entry(pos, head, member, type)             \
  31:..\..\..\..\cloud\alicloud\src\infra\utils\misc/compat_aos_list.h ****     dlist_for_each_entry(head, pos, type, member)
  32:..\..\..\..\cloud\alicloud\src\infra\utils\misc/compat_aos_list.h **** 
  33:..\..\..\..\cloud\alicloud\src\infra\utils\misc/compat_aos_list.h **** #define list_for_each_entry_safe(pos, n, head, member, type)         \
  34:..\..\..\..\cloud\alicloud\src\infra\utils\misc/compat_aos_list.h ****     for (pos = list_entry((head)->next, type, member), \
  35:..\..\..\..\cloud\alicloud\src\infra\utils\misc/compat_aos_list.h ****          n = list_entry(pos->member.next, type, member);    \
  36:..\..\..\..\cloud\alicloud\src\infra\utils\misc/compat_aos_list.h ****          &pos->member != (head);                    \
  37:..\..\..\..\cloud\alicloud\src\infra\utils\misc/compat_aos_list.h ****          pos = n, n = list_entry(n->member.next, type, member))
  38:..\..\..\..\cloud\alicloud\src\infra\utils\misc/compat_aos_list.h **** 
  39:..\..\..\..\cloud\alicloud\src\infra\utils\misc/compat_aos_list.h **** #define list_next_entry(pos, member, type) \
  40:..\..\..\..\cloud\alicloud\src\infra\utils\misc/compat_aos_list.h ****     list_entry((pos)->member.next, type, member)
  41:..\..\..\..\cloud\alicloud\src\infra\utils\misc/compat_aos_list.h **** 
  42:..\..\..\..\cloud\alicloud\src\infra\utils\misc/compat_aos_list.h **** static inline void list_del_init(struct list_head *entry)
  43:..\..\..\..\cloud\alicloud\src\infra\utils\misc/compat_aos_list.h **** {
  44:..\..\..\..\cloud\alicloud\src\infra\utils\misc/compat_aos_list.h ****     list_del(entry);
 263              		.loc 3 44 5 discriminator 2
 264              	.LBB21:
 265              	.LBB22:
 266              	.LBB23:
  68:..\..\..\..\cloud\alicloud\src\infra\utils\misc/lite-list.h ****     dlist_t *next = node->next;
 267              		.loc 2 68 5 discriminator 2
  68:..\..\..\..\cloud\alicloud\src\infra\utils\misc/lite-list.h ****     dlist_t *next = node->next;
 268              		.loc 2 68 14 is_stmt 0 discriminator 2
 269 0082 1848     		lw	a4,16(s0)
 270              	.LVL21:
  69:..\..\..\..\cloud\alicloud\src\infra\utils\misc/lite-list.h **** 
 271              		.loc 2 69 5 is_stmt 1 discriminator 2
  69:..\..\..\..\cloud\alicloud\src\infra\utils\misc/lite-list.h **** 
 272              		.loc 2 69 14 is_stmt 0 discriminator 2
 273 0084 5C48     		lw	a5,20(s0)
 274              	.LVL22:
  71:..\..\..\..\cloud\alicloud\src\infra\utils\misc/lite-list.h ****     next->prev = prev;
 275              		.loc 2 71 5 is_stmt 1 discriminator 2
 276              	.LBE23:
 277              	.LBE22:
 278              	.LBE21:
  59:C:/Users/stapi/OneDrive/Desktop/GD32VW553/V1_MQTT_OK/GD32VW55X_Wifi_BLE_SDK/GD32VW55x_RELEASE_V1.0.2/MSDK/cloud/alicloud/src/protocol/coap/local\CoAPResource.c ****         COAP_DEBUG("Release the resource %s", tmpbuf);
 279              		.loc 1 59 9 is_stmt 0 discriminator 2
 280 0086 13058401 		addi	a0,s0,24
 281 008a 8146     		li	a3,0
 282              	.LBB28:
 283              	.LBB25:
 284              	.LBB24:
  71:..\..\..\..\cloud\alicloud\src\infra\utils\misc/lite-list.h ****     next->prev = prev;
 285              		.loc 2 71 16 discriminator 2
 286 008c 5CC3     		sw	a5,4(a4)
  72:..\..\..\..\cloud\alicloud\src\infra\utils\misc/lite-list.h **** }
 287              		.loc 2 72 5 is_stmt 1 discriminator 2
  72:..\..\..\..\cloud\alicloud\src\infra\utils\misc/lite-list.h **** }
 288              		.loc 2 72 16 is_stmt 0 discriminator 2
 289 008e 98C3     		sw	a4,0(a5)
 290              	.LVL23:
 291              	.LBE24:
 292              	.LBE25:
 293              	.LBE28:
  45:..\..\..\..\cloud\alicloud\src\infra\utils\misc/compat_aos_list.h ****     INIT_LIST_HEAD(entry);
 294              		.loc 3 45 5 is_stmt 1 discriminator 2
 295              	.LBB29:
 296              	.LBB26:
 297              	.LBB27:
  82:..\..\..\..\cloud\alicloud\src\infra\utils\misc/lite-list.h ****     list->prev = list;
 298              		.loc 2 82 5 discriminator 2
  82:..\..\..\..\cloud\alicloud\src\infra\utils\misc/lite-list.h ****     list->prev = list;
 299              		.loc 2 82 16 is_stmt 0 discriminator 2
 300 0090 232A3401 		sw	s3,20(s0)
 301              		.loc 2 83 5 is_stmt 1 discriminator 2
 302              		.loc 2 83 16 is_stmt 0 discriminator 2
 303 0094 23283401 		sw	s3,16(s0)
 304              	.LVL24:
 305              	.LBE27:
 306              	.LBE26:
 307              	.LBE29:
  59:C:/Users/stapi/OneDrive/Desktop/GD32VW553/V1_MQTT_OK/GD32VW55X_Wifi_BLE_SDK/GD32VW55x_RELEASE_V1.0.2/MSDK/cloud/alicloud/src/protocol/coap/local\CoAPResource.c ****         COAP_DEBUG("Release the resource %s", tmpbuf);
 308              		.loc 1 59 9 is_stmt 1 discriminator 2
 309 0098 1546     		li	a2,5
 310 009a 4C00     		addi	a1,sp,4
 311 009c 97000000 		call	LITE_hexbuf_convert
 311      E7800000 
 312              	.LVL25:
  60:C:/Users/stapi/OneDrive/Desktop/GD32VW553/V1_MQTT_OK/GD32VW55X_Wifi_BLE_SDK/GD32VW55x_RELEASE_V1.0.2/MSDK/cloud/alicloud/src/protocol/coap/local\CoAPResource.c ****         coap_free(node);
 313              		.loc 1 60 9 discriminator 2
 314 00a4 5C00     		addi	a5,sp,4
 315 00a6 13870B00 		addi	a4,s7,%lo(.LC0)
 316 00aa 9546     		li	a3,5
 317 00ac 1306C003 		li	a2,60
 318 00b0 93050B00 		addi	a1,s6,%lo(.LANCHOR0)
 319 00b4 13050C00 		addi	a0,s8,%lo(.LC1)
 320 00b8 97000000 		call	LITE_syslog
 320      E7800000 
 321              	.LVL26:
  61:C:/Users/stapi/OneDrive/Desktop/GD32VW553/V1_MQTT_OK/GD32VW55X_Wifi_BLE_SDK/GD32VW55x_RELEASE_V1.0.2/MSDK/cloud/alicloud/src/protocol/coap/local\CoAPResource.c ****     }
 322              		.loc 1 61 9 discriminator 2
 323 00c0 2285     		mv	a0,s0
 324 00c2 97000000 		call	LITE_free_internal
 324      E7800000 
 325              	.LVL27:
  53:C:/Users/stapi/OneDrive/Desktop/GD32VW553/V1_MQTT_OK/GD32VW55X_Wifi_BLE_SDK/GD32VW55x_RELEASE_V1.0.2/MSDK/cloud/alicloud/src/protocol/coap/local\CoAPResource.c ****         if (node->path_type == PATH_FILTER && node->filter_path) {
 326              		.loc 1 53 5 discriminator 2
 327 00ca 83274901 		lw	a5,20(s2)
 328              	.LVL28:
 329 00ce 4A84     		mv	s0,s2
 330 00d0 138907FF 		addi	s2,a5,-16
 331              	.LVL29:
 332 00d4 B5B7     		j	.L11
 333              		.cfi_endproc
 334              	.LFE22:
 336              		.section	.text.CoAPResource_create,"ax",@progbits
 337              		.align	1
 338              		.globl	CoAPResource_create
 340              	CoAPResource_create:
 341              	.LFB23:
  71:C:/Users/stapi/OneDrive/Desktop/GD32VW553/V1_MQTT_OK/GD32VW55X_Wifi_BLE_SDK/GD32VW55x_RELEASE_V1.0.2/MSDK/cloud/alicloud/src/protocol/coap/local\CoAPResource.c **** 
  72:C:/Users/stapi/OneDrive/Desktop/GD32VW553/V1_MQTT_OK/GD32VW55X_Wifi_BLE_SDK/GD32VW55x_RELEASE_V1.0.2/MSDK/cloud/alicloud/src/protocol/coap/local\CoAPResource.c **** CoAPResource *CoAPResource_create(const char *path, path_type_t path_type, unsigned short permissio
  73:C:/Users/stapi/OneDrive/Desktop/GD32VW553/V1_MQTT_OK/GD32VW55X_Wifi_BLE_SDK/GD32VW55x_RELEASE_V1.0.2/MSDK/cloud/alicloud/src/protocol/coap/local\CoAPResource.c ****                                   unsigned int ctype, unsigned int maxage,
  74:C:/Users/stapi/OneDrive/Desktop/GD32VW553/V1_MQTT_OK/GD32VW55X_Wifi_BLE_SDK/GD32VW55x_RELEASE_V1.0.2/MSDK/cloud/alicloud/src/protocol/coap/local\CoAPResource.c ****                                   CoAPRecvMsgHandler callback)
  75:C:/Users/stapi/OneDrive/Desktop/GD32VW553/V1_MQTT_OK/GD32VW55X_Wifi_BLE_SDK/GD32VW55x_RELEASE_V1.0.2/MSDK/cloud/alicloud/src/protocol/coap/local\CoAPResource.c **** {
 342              		.loc 1 75 1
 343              		.cfi_startproc
 344              	.LVL30:
 345 0000 17030000 		call	t0,__riscv_save_7
 345      E7020300 
 346              		.cfi_offset 22, -32
 347              		.cfi_offset 21, -28
 348              		.cfi_offset 20, -24
 349              		.cfi_offset 19, -20
 350              		.cfi_offset 18, -16
 351              		.cfi_offset 9, -12
 352              		.cfi_offset 8, -8
 353              		.cfi_offset 1, -4
 354              		.cfi_def_cfa_offset 32
  76:C:/Users/stapi/OneDrive/Desktop/GD32VW553/V1_MQTT_OK/GD32VW55X_Wifi_BLE_SDK/GD32VW55x_RELEASE_V1.0.2/MSDK/cloud/alicloud/src/protocol/coap/local\CoAPResource.c ****     CoAPResource *resource = NULL;
 355              		.loc 1 76 5
 356              	.LVL31:
  77:C:/Users/stapi/OneDrive/Desktop/GD32VW553/V1_MQTT_OK/GD32VW55X_Wifi_BLE_SDK/GD32VW55x_RELEASE_V1.0.2/MSDK/cloud/alicloud/src/protocol/coap/local\CoAPResource.c **** 
  78:C:/Users/stapi/OneDrive/Desktop/GD32VW553/V1_MQTT_OK/GD32VW55X_Wifi_BLE_SDK/GD32VW55x_RELEASE_V1.0.2/MSDK/cloud/alicloud/src/protocol/coap/local\CoAPResource.c ****     if (NULL == path) {
 357              		.loc 1 78 5
  75:C:/Users/stapi/OneDrive/Desktop/GD32VW553/V1_MQTT_OK/GD32VW55X_Wifi_BLE_SDK/GD32VW55x_RELEASE_V1.0.2/MSDK/cloud/alicloud/src/protocol/coap/local\CoAPResource.c ****     CoAPResource *resource = NULL;
 358              		.loc 1 75 1 is_stmt 0
 359 0008 4111     		addi	sp,sp,-16
 360              		.cfi_def_cfa_offset 48
 361              		.loc 1 78 8
 362 000a 01E9     		bne	a0,zero,.L19
 363              	.LVL32:
 364              	.L29:
 365              	.LBB33:
 366              	.LBB34:
 367              	.LBB35:
  79:C:/Users/stapi/OneDrive/Desktop/GD32VW553/V1_MQTT_OK/GD32VW55X_Wifi_BLE_SDK/GD32VW55x_RELEASE_V1.0.2/MSDK/cloud/alicloud/src/protocol/coap/local\CoAPResource.c ****         return NULL;
  80:C:/Users/stapi/OneDrive/Desktop/GD32VW553/V1_MQTT_OK/GD32VW55X_Wifi_BLE_SDK/GD32VW55x_RELEASE_V1.0.2/MSDK/cloud/alicloud/src/protocol/coap/local\CoAPResource.c ****     }
  81:C:/Users/stapi/OneDrive/Desktop/GD32VW553/V1_MQTT_OK/GD32VW55X_Wifi_BLE_SDK/GD32VW55x_RELEASE_V1.0.2/MSDK/cloud/alicloud/src/protocol/coap/local\CoAPResource.c **** 
  82:C:/Users/stapi/OneDrive/Desktop/GD32VW553/V1_MQTT_OK/GD32VW55X_Wifi_BLE_SDK/GD32VW55x_RELEASE_V1.0.2/MSDK/cloud/alicloud/src/protocol/coap/local\CoAPResource.c ****     if (strlen(path) >= COAP_MSG_MAX_PATH_LEN) {
  83:C:/Users/stapi/OneDrive/Desktop/GD32VW553/V1_MQTT_OK/GD32VW55X_Wifi_BLE_SDK/GD32VW55x_RELEASE_V1.0.2/MSDK/cloud/alicloud/src/protocol/coap/local\CoAPResource.c ****         return NULL;
  84:C:/Users/stapi/OneDrive/Desktop/GD32VW553/V1_MQTT_OK/GD32VW55X_Wifi_BLE_SDK/GD32VW55x_RELEASE_V1.0.2/MSDK/cloud/alicloud/src/protocol/coap/local\CoAPResource.c ****     }
  85:C:/Users/stapi/OneDrive/Desktop/GD32VW553/V1_MQTT_OK/GD32VW55X_Wifi_BLE_SDK/GD32VW55x_RELEASE_V1.0.2/MSDK/cloud/alicloud/src/protocol/coap/local\CoAPResource.c **** 
  86:C:/Users/stapi/OneDrive/Desktop/GD32VW553/V1_MQTT_OK/GD32VW55X_Wifi_BLE_SDK/GD32VW55x_RELEASE_V1.0.2/MSDK/cloud/alicloud/src/protocol/coap/local\CoAPResource.c ****     resource = coap_malloc(sizeof(CoAPResource));
  87:C:/Users/stapi/OneDrive/Desktop/GD32VW553/V1_MQTT_OK/GD32VW55X_Wifi_BLE_SDK/GD32VW55x_RELEASE_V1.0.2/MSDK/cloud/alicloud/src/protocol/coap/local\CoAPResource.c ****     if (NULL == resource) {
  88:C:/Users/stapi/OneDrive/Desktop/GD32VW553/V1_MQTT_OK/GD32VW55X_Wifi_BLE_SDK/GD32VW55x_RELEASE_V1.0.2/MSDK/cloud/alicloud/src/protocol/coap/local\CoAPResource.c ****         return NULL;
  89:C:/Users/stapi/OneDrive/Desktop/GD32VW553/V1_MQTT_OK/GD32VW55X_Wifi_BLE_SDK/GD32VW55x_RELEASE_V1.0.2/MSDK/cloud/alicloud/src/protocol/coap/local\CoAPResource.c ****     }
  90:C:/Users/stapi/OneDrive/Desktop/GD32VW553/V1_MQTT_OK/GD32VW55X_Wifi_BLE_SDK/GD32VW55x_RELEASE_V1.0.2/MSDK/cloud/alicloud/src/protocol/coap/local\CoAPResource.c **** 
  91:C:/Users/stapi/OneDrive/Desktop/GD32VW553/V1_MQTT_OK/GD32VW55X_Wifi_BLE_SDK/GD32VW55x_RELEASE_V1.0.2/MSDK/cloud/alicloud/src/protocol/coap/local\CoAPResource.c ****     memset(resource, 0x00, sizeof(CoAPResource));
  92:C:/Users/stapi/OneDrive/Desktop/GD32VW553/V1_MQTT_OK/GD32VW55X_Wifi_BLE_SDK/GD32VW55x_RELEASE_V1.0.2/MSDK/cloud/alicloud/src/protocol/coap/local\CoAPResource.c ****     if (path_type == PATH_NORMAL) {
  93:C:/Users/stapi/OneDrive/Desktop/GD32VW553/V1_MQTT_OK/GD32VW55X_Wifi_BLE_SDK/GD32VW55x_RELEASE_V1.0.2/MSDK/cloud/alicloud/src/protocol/coap/local\CoAPResource.c ****         resource->path_type = PATH_NORMAL;
  94:C:/Users/stapi/OneDrive/Desktop/GD32VW553/V1_MQTT_OK/GD32VW55X_Wifi_BLE_SDK/GD32VW55x_RELEASE_V1.0.2/MSDK/cloud/alicloud/src/protocol/coap/local\CoAPResource.c ****         CoAPPathMD5_sum(path, strlen(path), resource->path, COAP_PATH_DEFAULT_SUM_LEN);
  95:C:/Users/stapi/OneDrive/Desktop/GD32VW553/V1_MQTT_OK/GD32VW55X_Wifi_BLE_SDK/GD32VW55x_RELEASE_V1.0.2/MSDK/cloud/alicloud/src/protocol/coap/local\CoAPResource.c ****     } else {
  96:C:/Users/stapi/OneDrive/Desktop/GD32VW553/V1_MQTT_OK/GD32VW55X_Wifi_BLE_SDK/GD32VW55x_RELEASE_V1.0.2/MSDK/cloud/alicloud/src/protocol/coap/local\CoAPResource.c ****         int len = strlen(path) + 1;
  97:C:/Users/stapi/OneDrive/Desktop/GD32VW553/V1_MQTT_OK/GD32VW55X_Wifi_BLE_SDK/GD32VW55x_RELEASE_V1.0.2/MSDK/cloud/alicloud/src/protocol/coap/local\CoAPResource.c ****         resource->filter_path = coap_malloc(len);
  98:C:/Users/stapi/OneDrive/Desktop/GD32VW553/V1_MQTT_OK/GD32VW55X_Wifi_BLE_SDK/GD32VW55x_RELEASE_V1.0.2/MSDK/cloud/alicloud/src/protocol/coap/local\CoAPResource.c ****         if (NULL == resource->filter_path) {
  99:C:/Users/stapi/OneDrive/Desktop/GD32VW553/V1_MQTT_OK/GD32VW55X_Wifi_BLE_SDK/GD32VW55x_RELEASE_V1.0.2/MSDK/cloud/alicloud/src/protocol/coap/local\CoAPResource.c ****             coap_free(resource);
 100:C:/Users/stapi/OneDrive/Desktop/GD32VW553/V1_MQTT_OK/GD32VW55X_Wifi_BLE_SDK/GD32VW55x_RELEASE_V1.0.2/MSDK/cloud/alicloud/src/protocol/coap/local\CoAPResource.c ****             return NULL;
 368              		.loc 1 100 13 is_stmt 1
 369              		.loc 1 100 20 is_stmt 0
 370 000c 0144     		li	s0,0
 371              	.L18:
 372              	.LBE35:
 373              	.LBE34:
 374              	.LBE33:
 101:C:/Users/stapi/OneDrive/Desktop/GD32VW553/V1_MQTT_OK/GD32VW55X_Wifi_BLE_SDK/GD32VW55x_RELEASE_V1.0.2/MSDK/cloud/alicloud/src/protocol/coap/local\CoAPResource.c ****         }
 102:C:/Users/stapi/OneDrive/Desktop/GD32VW553/V1_MQTT_OK/GD32VW55X_Wifi_BLE_SDK/GD32VW55x_RELEASE_V1.0.2/MSDK/cloud/alicloud/src/protocol/coap/local\CoAPResource.c ****         resource->path_type = PATH_FILTER;
 103:C:/Users/stapi/OneDrive/Desktop/GD32VW553/V1_MQTT_OK/GD32VW55X_Wifi_BLE_SDK/GD32VW55x_RELEASE_V1.0.2/MSDK/cloud/alicloud/src/protocol/coap/local\CoAPResource.c ****         memset(resource->filter_path, 0, len);
 104:C:/Users/stapi/OneDrive/Desktop/GD32VW553/V1_MQTT_OK/GD32VW55X_Wifi_BLE_SDK/GD32VW55x_RELEASE_V1.0.2/MSDK/cloud/alicloud/src/protocol/coap/local\CoAPResource.c ****         strncpy(resource->filter_path, path, strlen(path));
 105:C:/Users/stapi/OneDrive/Desktop/GD32VW553/V1_MQTT_OK/GD32VW55X_Wifi_BLE_SDK/GD32VW55x_RELEASE_V1.0.2/MSDK/cloud/alicloud/src/protocol/coap/local\CoAPResource.c **** 
 106:C:/Users/stapi/OneDrive/Desktop/GD32VW553/V1_MQTT_OK/GD32VW55X_Wifi_BLE_SDK/GD32VW55x_RELEASE_V1.0.2/MSDK/cloud/alicloud/src/protocol/coap/local\CoAPResource.c ****     }
 107:C:/Users/stapi/OneDrive/Desktop/GD32VW553/V1_MQTT_OK/GD32VW55X_Wifi_BLE_SDK/GD32VW55x_RELEASE_V1.0.2/MSDK/cloud/alicloud/src/protocol/coap/local\CoAPResource.c ****     resource->callback = callback;
 108:C:/Users/stapi/OneDrive/Desktop/GD32VW553/V1_MQTT_OK/GD32VW55X_Wifi_BLE_SDK/GD32VW55x_RELEASE_V1.0.2/MSDK/cloud/alicloud/src/protocol/coap/local\CoAPResource.c ****     resource->ctype = ctype;
 109:C:/Users/stapi/OneDrive/Desktop/GD32VW553/V1_MQTT_OK/GD32VW55X_Wifi_BLE_SDK/GD32VW55x_RELEASE_V1.0.2/MSDK/cloud/alicloud/src/protocol/coap/local\CoAPResource.c ****     resource->maxage = maxage;
 110:C:/Users/stapi/OneDrive/Desktop/GD32VW553/V1_MQTT_OK/GD32VW55X_Wifi_BLE_SDK/GD32VW55x_RELEASE_V1.0.2/MSDK/cloud/alicloud/src/protocol/coap/local\CoAPResource.c ****     resource->permission = permission;
 111:C:/Users/stapi/OneDrive/Desktop/GD32VW553/V1_MQTT_OK/GD32VW55X_Wifi_BLE_SDK/GD32VW55x_RELEASE_V1.0.2/MSDK/cloud/alicloud/src/protocol/coap/local\CoAPResource.c **** 
 112:C:/Users/stapi/OneDrive/Desktop/GD32VW553/V1_MQTT_OK/GD32VW55X_Wifi_BLE_SDK/GD32VW55x_RELEASE_V1.0.2/MSDK/cloud/alicloud/src/protocol/coap/local\CoAPResource.c ****     return resource;
 113:C:/Users/stapi/OneDrive/Desktop/GD32VW553/V1_MQTT_OK/GD32VW55X_Wifi_BLE_SDK/GD32VW55x_RELEASE_V1.0.2/MSDK/cloud/alicloud/src/protocol/coap/local\CoAPResource.c **** }
 375              		.loc 1 113 1
 376 000e 2285     		mv	a0,s0
 377 0010 4101     		addi	sp,sp,16
 378              		.cfi_remember_state
 379              		.cfi_def_cfa_offset 0
 380 0012 17030000 		tail	__riscv_restore_7
 380      67000300 
 381              		.cfi_restore 22
 382              		.cfi_restore 21
 383              		.cfi_restore 20
 384              		.cfi_restore 19
 385              		.cfi_restore 18
 386              		.cfi_restore 9
 387              		.cfi_restore 8
 388              		.cfi_restore 1
 389              		.cfi_def_cfa_offset -32
 390              	.LVL33:
 391              	.L19:
 392              		.cfi_restore_state
 393 001a BE8A     		mv	s5,a5
  82:C:/Users/stapi/OneDrive/Desktop/GD32VW553/V1_MQTT_OK/GD32VW55X_Wifi_BLE_SDK/GD32VW55x_RELEASE_V1.0.2/MSDK/cloud/alicloud/src/protocol/coap/local\CoAPResource.c ****         return NULL;
 394              		.loc 1 82 5 is_stmt 1
 395 001c AA84     		mv	s1,a0
 396 001e 2E8B     		mv	s6,a1
 397 0020 3289     		mv	s2,a2
 398 0022 368A     		mv	s4,a3
 399 0024 BA89     		mv	s3,a4
  82:C:/Users/stapi/OneDrive/Desktop/GD32VW553/V1_MQTT_OK/GD32VW55X_Wifi_BLE_SDK/GD32VW55x_RELEASE_V1.0.2/MSDK/cloud/alicloud/src/protocol/coap/local\CoAPResource.c ****         return NULL;
 400              		.loc 1 82 9 is_stmt 0
 401 0026 97000000 		call	strlen
 401      E7800000 
 402              	.LVL34:
  82:C:/Users/stapi/OneDrive/Desktop/GD32VW553/V1_MQTT_OK/GD32VW55X_Wifi_BLE_SDK/GD32VW55x_RELEASE_V1.0.2/MSDK/cloud/alicloud/src/protocol/coap/local\CoAPResource.c ****         return NULL;
 403              		.loc 1 82 8
 404 002e 9307F007 		li	a5,127
 405 0032 E3EDA7FC 		bgtu	a0,a5,.L29
 406              	.LVL35:
 407              	.LBB38:
 408              	.LBB37:
  86:C:/Users/stapi/OneDrive/Desktop/GD32VW553/V1_MQTT_OK/GD32VW55X_Wifi_BLE_SDK/GD32VW55x_RELEASE_V1.0.2/MSDK/cloud/alicloud/src/protocol/coap/local\CoAPResource.c ****     if (NULL == resource) {
 409              		.loc 1 86 5 is_stmt 1
  86:C:/Users/stapi/OneDrive/Desktop/GD32VW553/V1_MQTT_OK/GD32VW55X_Wifi_BLE_SDK/GD32VW55x_RELEASE_V1.0.2/MSDK/cloud/alicloud/src/protocol/coap/local\CoAPResource.c ****     if (NULL == resource) {
 410              		.loc 1 86 16 is_stmt 0
 411 0036 13068002 		li	a2,40
 412 003a 8145     		li	a1,0
 413 003c 0145     		li	a0,0
 414 003e 97000000 		call	LITE_malloc_internal
 414      E7800000 
 415              	.LVL36:
 416 0046 2A84     		mv	s0,a0
 417              	.LVL37:
  87:C:/Users/stapi/OneDrive/Desktop/GD32VW553/V1_MQTT_OK/GD32VW55X_Wifi_BLE_SDK/GD32VW55x_RELEASE_V1.0.2/MSDK/cloud/alicloud/src/protocol/coap/local\CoAPResource.c ****         return NULL;
 418              		.loc 1 87 5 is_stmt 1
  87:C:/Users/stapi/OneDrive/Desktop/GD32VW553/V1_MQTT_OK/GD32VW55X_Wifi_BLE_SDK/GD32VW55x_RELEASE_V1.0.2/MSDK/cloud/alicloud/src/protocol/coap/local\CoAPResource.c ****         return NULL;
 419              		.loc 1 87 8 is_stmt 0
 420 0048 71D1     		beq	a0,zero,.L29
  91:C:/Users/stapi/OneDrive/Desktop/GD32VW553/V1_MQTT_OK/GD32VW55X_Wifi_BLE_SDK/GD32VW55x_RELEASE_V1.0.2/MSDK/cloud/alicloud/src/protocol/coap/local\CoAPResource.c ****     if (path_type == PATH_NORMAL) {
 421              		.loc 1 91 5 is_stmt 1
 422 004a 13068002 		li	a2,40
 423 004e 8145     		li	a1,0
 424 0050 97000000 		call	memset
 424      E7800000 
 425              	.LVL38:
  92:C:/Users/stapi/OneDrive/Desktop/GD32VW553/V1_MQTT_OK/GD32VW55X_Wifi_BLE_SDK/GD32VW55x_RELEASE_V1.0.2/MSDK/cloud/alicloud/src/protocol/coap/local\CoAPResource.c ****         resource->path_type = PATH_NORMAL;
 426              		.loc 1 92 5
  94:C:/Users/stapi/OneDrive/Desktop/GD32VW553/V1_MQTT_OK/GD32VW55X_Wifi_BLE_SDK/GD32VW55x_RELEASE_V1.0.2/MSDK/cloud/alicloud/src/protocol/coap/local\CoAPResource.c ****     } else {
 427              		.loc 1 94 31 is_stmt 0
 428 0058 2685     		mv	a0,s1
  92:C:/Users/stapi/OneDrive/Desktop/GD32VW553/V1_MQTT_OK/GD32VW55X_Wifi_BLE_SDK/GD32VW55x_RELEASE_V1.0.2/MSDK/cloud/alicloud/src/protocol/coap/local\CoAPResource.c ****         resource->path_type = PATH_NORMAL;
 429              		.loc 1 92 8
 430 005a 63180B02 		bne	s6,zero,.L22
  93:C:/Users/stapi/OneDrive/Desktop/GD32VW553/V1_MQTT_OK/GD32VW55X_Wifi_BLE_SDK/GD32VW55x_RELEASE_V1.0.2/MSDK/cloud/alicloud/src/protocol/coap/local\CoAPResource.c ****         CoAPPathMD5_sum(path, strlen(path), resource->path, COAP_PATH_DEFAULT_SUM_LEN);
 431              		.loc 1 93 9 is_stmt 1
  94:C:/Users/stapi/OneDrive/Desktop/GD32VW553/V1_MQTT_OK/GD32VW55X_Wifi_BLE_SDK/GD32VW55x_RELEASE_V1.0.2/MSDK/cloud/alicloud/src/protocol/coap/local\CoAPResource.c ****     } else {
 432              		.loc 1 94 9
  94:C:/Users/stapi/OneDrive/Desktop/GD32VW553/V1_MQTT_OK/GD32VW55X_Wifi_BLE_SDK/GD32VW55x_RELEASE_V1.0.2/MSDK/cloud/alicloud/src/protocol/coap/local\CoAPResource.c ****     } else {
 433              		.loc 1 94 31 is_stmt 0
 434 005e 97000000 		call	strlen
 434      E7800000 
 435              	.LVL39:
 436 0066 AA85     		mv	a1,a0
  94:C:/Users/stapi/OneDrive/Desktop/GD32VW553/V1_MQTT_OK/GD32VW55X_Wifi_BLE_SDK/GD32VW55x_RELEASE_V1.0.2/MSDK/cloud/alicloud/src/protocol/coap/local\CoAPResource.c ****     } else {
 437              		.loc 1 94 9
 438 0068 9546     		li	a3,5
 439 006a 13068401 		addi	a2,s0,24
 440 006e 2685     		mv	a0,s1
 441 0070 97000000 		call	CoAPPathMD5_sum
 441      E7800000 
 442              	.LVL40:
 443              	.L23:
 107:C:/Users/stapi/OneDrive/Desktop/GD32VW553/V1_MQTT_OK/GD32VW55X_Wifi_BLE_SDK/GD32VW55x_RELEASE_V1.0.2/MSDK/cloud/alicloud/src/protocol/coap/local\CoAPResource.c ****     resource->ctype = ctype;
 444              		.loc 1 107 5 is_stmt 1
 107:C:/Users/stapi/OneDrive/Desktop/GD32VW553/V1_MQTT_OK/GD32VW55X_Wifi_BLE_SDK/GD32VW55x_RELEASE_V1.0.2/MSDK/cloud/alicloud/src/protocol/coap/local\CoAPResource.c ****     resource->ctype = ctype;
 445              		.loc 1 107 24 is_stmt 0
 446 0078 23225401 		sw	s5,4(s0)
 108:C:/Users/stapi/OneDrive/Desktop/GD32VW553/V1_MQTT_OK/GD32VW55X_Wifi_BLE_SDK/GD32VW55x_RELEASE_V1.0.2/MSDK/cloud/alicloud/src/protocol/coap/local\CoAPResource.c ****     resource->maxage = maxage;
 447              		.loc 1 108 5 is_stmt 1
 108:C:/Users/stapi/OneDrive/Desktop/GD32VW553/V1_MQTT_OK/GD32VW55X_Wifi_BLE_SDK/GD32VW55x_RELEASE_V1.0.2/MSDK/cloud/alicloud/src/protocol/coap/local\CoAPResource.c ****     resource->maxage = maxage;
 448              		.loc 1 108 21 is_stmt 0
 449 007c 23244401 		sw	s4,8(s0)
 109:C:/Users/stapi/OneDrive/Desktop/GD32VW553/V1_MQTT_OK/GD32VW55X_Wifi_BLE_SDK/GD32VW55x_RELEASE_V1.0.2/MSDK/cloud/alicloud/src/protocol/coap/local\CoAPResource.c ****     resource->permission = permission;
 450              		.loc 1 109 5 is_stmt 1
 109:C:/Users/stapi/OneDrive/Desktop/GD32VW553/V1_MQTT_OK/GD32VW55X_Wifi_BLE_SDK/GD32VW55x_RELEASE_V1.0.2/MSDK/cloud/alicloud/src/protocol/coap/local\CoAPResource.c ****     resource->permission = permission;
 451              		.loc 1 109 22 is_stmt 0
 452 0080 23263401 		sw	s3,12(s0)
 110:C:/Users/stapi/OneDrive/Desktop/GD32VW553/V1_MQTT_OK/GD32VW55X_Wifi_BLE_SDK/GD32VW55x_RELEASE_V1.0.2/MSDK/cloud/alicloud/src/protocol/coap/local\CoAPResource.c **** 
 453              		.loc 1 110 5 is_stmt 1
 110:C:/Users/stapi/OneDrive/Desktop/GD32VW553/V1_MQTT_OK/GD32VW55X_Wifi_BLE_SDK/GD32VW55x_RELEASE_V1.0.2/MSDK/cloud/alicloud/src/protocol/coap/local\CoAPResource.c **** 
 454              		.loc 1 110 26 is_stmt 0
 455 0084 23102401 		sh	s2,0(s0)
 112:C:/Users/stapi/OneDrive/Desktop/GD32VW553/V1_MQTT_OK/GD32VW55X_Wifi_BLE_SDK/GD32VW55x_RELEASE_V1.0.2/MSDK/cloud/alicloud/src/protocol/coap/local\CoAPResource.c **** }
 456              		.loc 1 112 5 is_stmt 1
 457              	.LVL41:
 112:C:/Users/stapi/OneDrive/Desktop/GD32VW553/V1_MQTT_OK/GD32VW55X_Wifi_BLE_SDK/GD32VW55x_RELEASE_V1.0.2/MSDK/cloud/alicloud/src/protocol/coap/local\CoAPResource.c **** }
 458              		.loc 1 112 12 is_stmt 0
 459 0088 59B7     		j	.L18
 460              	.LVL42:
 461              	.L22:
 462              	.LBB36:
  96:C:/Users/stapi/OneDrive/Desktop/GD32VW553/V1_MQTT_OK/GD32VW55X_Wifi_BLE_SDK/GD32VW55x_RELEASE_V1.0.2/MSDK/cloud/alicloud/src/protocol/coap/local\CoAPResource.c ****         resource->filter_path = coap_malloc(len);
 463              		.loc 1 96 9 is_stmt 1
  96:C:/Users/stapi/OneDrive/Desktop/GD32VW553/V1_MQTT_OK/GD32VW55X_Wifi_BLE_SDK/GD32VW55x_RELEASE_V1.0.2/MSDK/cloud/alicloud/src/protocol/coap/local\CoAPResource.c ****         resource->filter_path = coap_malloc(len);
 464              		.loc 1 96 19 is_stmt 0
 465 008a 97000000 		call	strlen
 465      E7800000 
 466              	.LVL43:
  96:C:/Users/stapi/OneDrive/Desktop/GD32VW553/V1_MQTT_OK/GD32VW55X_Wifi_BLE_SDK/GD32VW55x_RELEASE_V1.0.2/MSDK/cloud/alicloud/src/protocol/coap/local\CoAPResource.c ****         resource->filter_path = coap_malloc(len);
 467              		.loc 1 96 32
 468 0092 13061500 		addi	a2,a0,1
 469              	.LVL44:
  97:C:/Users/stapi/OneDrive/Desktop/GD32VW553/V1_MQTT_OK/GD32VW55X_Wifi_BLE_SDK/GD32VW55x_RELEASE_V1.0.2/MSDK/cloud/alicloud/src/protocol/coap/local\CoAPResource.c ****         if (NULL == resource->filter_path) {
 470              		.loc 1 97 9 is_stmt 1
  97:C:/Users/stapi/OneDrive/Desktop/GD32VW553/V1_MQTT_OK/GD32VW55X_Wifi_BLE_SDK/GD32VW55x_RELEASE_V1.0.2/MSDK/cloud/alicloud/src/protocol/coap/local\CoAPResource.c ****         if (NULL == resource->filter_path) {
 471              		.loc 1 97 33 is_stmt 0
 472 0096 8145     		li	a1,0
 473 0098 0145     		li	a0,0
 474 009a 32C6     		sw	a2,12(sp)
 475 009c 97000000 		call	LITE_malloc_internal
 475      E7800000 
 476              	.LVL45:
  97:C:/Users/stapi/OneDrive/Desktop/GD32VW553/V1_MQTT_OK/GD32VW55X_Wifi_BLE_SDK/GD32VW55x_RELEASE_V1.0.2/MSDK/cloud/alicloud/src/protocol/coap/local\CoAPResource.c ****         if (NULL == resource->filter_path) {
 477              		.loc 1 97 31
 478 00a4 08D0     		sw	a0,32(s0)
  98:C:/Users/stapi/OneDrive/Desktop/GD32VW553/V1_MQTT_OK/GD32VW55X_Wifi_BLE_SDK/GD32VW55x_RELEASE_V1.0.2/MSDK/cloud/alicloud/src/protocol/coap/local\CoAPResource.c ****             coap_free(resource);
 479              		.loc 1 98 9 is_stmt 1
  98:C:/Users/stapi/OneDrive/Desktop/GD32VW553/V1_MQTT_OK/GD32VW55X_Wifi_BLE_SDK/GD32VW55x_RELEASE_V1.0.2/MSDK/cloud/alicloud/src/protocol/coap/local\CoAPResource.c ****             coap_free(resource);
 480              		.loc 1 98 12 is_stmt 0
 481 00a6 3246     		lw	a2,12(sp)
 482 00a8 19E5     		bne	a0,zero,.L24
  99:C:/Users/stapi/OneDrive/Desktop/GD32VW553/V1_MQTT_OK/GD32VW55X_Wifi_BLE_SDK/GD32VW55x_RELEASE_V1.0.2/MSDK/cloud/alicloud/src/protocol/coap/local\CoAPResource.c ****             return NULL;
 483              		.loc 1 99 13 is_stmt 1
 484 00aa 2285     		mv	a0,s0
 485 00ac 97000000 		call	LITE_free_internal
 485      E7800000 
 486              	.LVL46:
 487 00b4 A1BF     		j	.L29
 488              	.L24:
 102:C:/Users/stapi/OneDrive/Desktop/GD32VW553/V1_MQTT_OK/GD32VW55X_Wifi_BLE_SDK/GD32VW55x_RELEASE_V1.0.2/MSDK/cloud/alicloud/src/protocol/coap/local\CoAPResource.c ****         memset(resource->filter_path, 0, len);
 489              		.loc 1 102 9
 102:C:/Users/stapi/OneDrive/Desktop/GD32VW553/V1_MQTT_OK/GD32VW55X_Wifi_BLE_SDK/GD32VW55x_RELEASE_V1.0.2/MSDK/cloud/alicloud/src/protocol/coap/local\CoAPResource.c ****         memset(resource->filter_path, 0, len);
 490              		.loc 1 102 29 is_stmt 0
 491 00b6 8547     		li	a5,1
 492 00b8 5CD0     		sw	a5,36(s0)
 103:C:/Users/stapi/OneDrive/Desktop/GD32VW553/V1_MQTT_OK/GD32VW55X_Wifi_BLE_SDK/GD32VW55x_RELEASE_V1.0.2/MSDK/cloud/alicloud/src/protocol/coap/local\CoAPResource.c ****         strncpy(resource->filter_path, path, strlen(path));
 493              		.loc 1 103 9 is_stmt 1
 494 00ba 8145     		li	a1,0
 495 00bc 97000000 		call	memset
 495      E7800000 
 496              	.LVL47:
 104:C:/Users/stapi/OneDrive/Desktop/GD32VW553/V1_MQTT_OK/GD32VW55X_Wifi_BLE_SDK/GD32VW55x_RELEASE_V1.0.2/MSDK/cloud/alicloud/src/protocol/coap/local\CoAPResource.c **** 
 497              		.loc 1 104 9
 498 00c4 2685     		mv	a0,s1
 499 00c6 97000000 		call	strlen
 499      E7800000 
 500              	.LVL48:
 501 00ce 2A86     		mv	a2,a0
 502 00d0 0850     		lw	a0,32(s0)
 503 00d2 A685     		mv	a1,s1
 504 00d4 97000000 		call	strncpy
 504      E7800000 
 505              	.LVL49:
 506 00dc 71BF     		j	.L23
 507              	.LBE36:
 508              	.LBE37:
 509              	.LBE38:
 510              		.cfi_endproc
 511              	.LFE23:
 513              		.section	.rodata.CoAPResource_register.str1.4,"aMS",@progbits,1
 514              		.align	2
 515              	.LC2:
 516 0000 5B657272 		.string	"[err] "
 516      5D2000
 517 0007 00       		.align	2
 518              	.LC3:
 519 0008 636F6E74 		.string	"context"
 519      65787400 
 520              		.align	2
 521              	.LC4:
 522 0010 496E7661 		.string	"Invalid argument, expression '%s' is FALSE"
 522      6C696420 
 522      61726775 
 522      6D656E74 
 522      2C206578 
 523 003b 00       		.align	2
 524              	.LC5:
 525 003c 0D0A00   		.string	"\r\n"
 526 003f 00       		.align	2
 527              	.LC6:
 528 0040 5B696E66 		.string	"[inf] "
 528      5D2000
 529 0047 00       		.align	2
 530              	.LC7:
 531 0048 54686520 		.string	"The resource count exceeds limit, cur %d, max %d"
 531      7265736F 
 531      75726365 
 531      20636F75 
 531      6E742065 
 532 0079 000000   		.align	2
 533              	.LC8:
 534 007c 2F2300   		.string	"/#"
 535 007f 00       		.align	2
 536              	.LC9:
 537 0080 436F4150 		.string	"CoAPResource_register:Alread exist"
 537      5265736F 
 537      75726365 
 537      5F726567 
 537      69737465 
 538 00a3 00       		.align	2
 539              	.LC10:
 540 00a4 54686520 		.string	"The resource %s already exist, re-write it"
 540      7265736F 
 540      75726365 
 540      20257320 
 540      616C7265 
 541 00cf 00       		.align	2
 542              	.LC11:
 543 00d0 436F4150 		.string	"CoAPResource_register, context:%p, new node"
 543      5265736F 
 543      75726365 
 543      5F726567 
 543      69737465 
 544              		.align	2
 545              	.LC12:
 546 00fc 52656769 		.string	"Register new resource %s success, count: %d"
 546      73746572 
 546      206E6577 
 546      20726573 
 546      6F757263 
 547              		.align	2
 548              	.LC13:
 549 0128 4E657720 		.string	"New resource create failed"
 549      7265736F 
 549      75726365 
 549      20637265 
 549      61746520 
 550              		.section	.text.CoAPResource_register,"ax",@progbits
 551              		.align	1
 552              		.globl	CoAPResource_register
 554              	CoAPResource_register:
 555              	.LFB24:
 114:C:/Users/stapi/OneDrive/Desktop/GD32VW553/V1_MQTT_OK/GD32VW55X_Wifi_BLE_SDK/GD32VW55x_RELEASE_V1.0.2/MSDK/cloud/alicloud/src/protocol/coap/local\CoAPResource.c **** 
 115:C:/Users/stapi/OneDrive/Desktop/GD32VW553/V1_MQTT_OK/GD32VW55X_Wifi_BLE_SDK/GD32VW55x_RELEASE_V1.0.2/MSDK/cloud/alicloud/src/protocol/coap/local\CoAPResource.c **** int CoAPResource_register(CoAPContext *context, const char *path,
 116:C:/Users/stapi/OneDrive/Desktop/GD32VW553/V1_MQTT_OK/GD32VW55X_Wifi_BLE_SDK/GD32VW55x_RELEASE_V1.0.2/MSDK/cloud/alicloud/src/protocol/coap/local\CoAPResource.c ****                           unsigned short permission, unsigned int ctype,
 117:C:/Users/stapi/OneDrive/Desktop/GD32VW553/V1_MQTT_OK/GD32VW55X_Wifi_BLE_SDK/GD32VW55x_RELEASE_V1.0.2/MSDK/cloud/alicloud/src/protocol/coap/local\CoAPResource.c ****                           unsigned int maxage, CoAPRecvMsgHandler callback)
 118:C:/Users/stapi/OneDrive/Desktop/GD32VW553/V1_MQTT_OK/GD32VW55X_Wifi_BLE_SDK/GD32VW55x_RELEASE_V1.0.2/MSDK/cloud/alicloud/src/protocol/coap/local\CoAPResource.c **** {
 556              		.loc 1 118 1
 557              		.cfi_startproc
 558              	.LVL50:
 559 0000 17030000 		call	t0,__riscv_save_10
 559      E7020300 
 560              		.cfi_offset 25, -44
 561              		.cfi_offset 24, -40
 562              		.cfi_offset 23, -36
 563              		.cfi_offset 22, -32
 564              		.cfi_offset 21, -28
 565              		.cfi_offset 20, -24
 566              		.cfi_offset 19, -20
 567              		.cfi_offset 18, -16
 568              		.cfi_offset 9, -12
 569              		.cfi_offset 8, -8
 570              		.cfi_offset 1, -4
 571              		.cfi_def_cfa_offset 48
 119:C:/Users/stapi/OneDrive/Desktop/GD32VW553/V1_MQTT_OK/GD32VW55X_Wifi_BLE_SDK/GD32VW55x_RELEASE_V1.0.2/MSDK/cloud/alicloud/src/protocol/coap/local\CoAPResource.c ****     int exist = 0;
 572              		.loc 1 119 5
 573              	.LVL51:
 120:C:/Users/stapi/OneDrive/Desktop/GD32VW553/V1_MQTT_OK/GD32VW55X_Wifi_BLE_SDK/GD32VW55x_RELEASE_V1.0.2/MSDK/cloud/alicloud/src/protocol/coap/local\CoAPResource.c ****     char path_calc[COAP_PATH_DEFAULT_SUM_LEN] = {0};
 574              		.loc 1 120 5
 118:C:/Users/stapi/OneDrive/Desktop/GD32VW553/V1_MQTT_OK/GD32VW55X_Wifi_BLE_SDK/GD32VW55x_RELEASE_V1.0.2/MSDK/cloud/alicloud/src/protocol/coap/local\CoAPResource.c ****     int exist = 0;
 575              		.loc 1 118 1 is_stmt 0
 576 0008 4111     		addi	sp,sp,-16
 577              		.cfi_def_cfa_offset 64
 578              		.loc 1 120 10
 579 000a 02C4     		sw	zero,8(sp)
 580 000c 23060100 		sb	zero,12(sp)
 121:C:/Users/stapi/OneDrive/Desktop/GD32VW553/V1_MQTT_OK/GD32VW55X_Wifi_BLE_SDK/GD32VW55x_RELEASE_V1.0.2/MSDK/cloud/alicloud/src/protocol/coap/local\CoAPResource.c ****     CoAPResource *node = NULL, *newnode = NULL;
 581              		.loc 1 121 5 is_stmt 1
 582              	.LVL52:
 122:C:/Users/stapi/OneDrive/Desktop/GD32VW553/V1_MQTT_OK/GD32VW55X_Wifi_BLE_SDK/GD32VW55x_RELEASE_V1.0.2/MSDK/cloud/alicloud/src/protocol/coap/local\CoAPResource.c ****     CoAPIntContext *ctx = (CoAPIntContext *)context;
 583              		.loc 1 122 5
 123:C:/Users/stapi/OneDrive/Desktop/GD32VW553/V1_MQTT_OK/GD32VW55X_Wifi_BLE_SDK/GD32VW55x_RELEASE_V1.0.2/MSDK/cloud/alicloud/src/protocol/coap/local\CoAPResource.c ****     path_type_t type = PATH_NORMAL;
 584              		.loc 1 123 5
 124:C:/Users/stapi/OneDrive/Desktop/GD32VW553/V1_MQTT_OK/GD32VW55X_Wifi_BLE_SDK/GD32VW55x_RELEASE_V1.0.2/MSDK/cloud/alicloud/src/protocol/coap/local\CoAPResource.c ****     ARGUMENT_SANITY_CHECK(context, FAIL_RETURN);
 585              		.loc 1 124 5
 586              		.loc 1 124 5
 587 0010 39E1     		bne	a0,zero,.L31
 588              		.loc 1 124 5 discriminator 1
 589              		.loc 1 124 5 discriminator 1
 590 0012 37050000 		lui	a0,%hi(.LC2)
 591              	.LVL53:
 592 0016 13050500 		addi	a0,a0,%lo(.LC2)
 593 001a 97000000 		call	HAL_Printf
 593      E7800000 
 594              	.LVL54:
 595              		.loc 1 124 5 discriminator 1
 596 0022 B7050000 		lui	a1,%hi(.LC3)
 597 0026 37050000 		lui	a0,%hi(.LC4)
 598 002a 93850500 		addi	a1,a1,%lo(.LC3)
 599 002e 13050500 		addi	a0,a0,%lo(.LC4)
 600 0032 97000000 		call	HAL_Printf
 600      E7800000 
 601              	.LVL55:
 602              		.loc 1 124 5 discriminator 1
 603 003a 37050000 		lui	a0,%hi(.LC5)
 604 003e 13050500 		addi	a0,a0,%lo(.LC5)
 605 0042 97000000 		call	HAL_Printf
 605      E7800000 
 606              	.LVL56:
 607              		.loc 1 124 5 discriminator 1
 608              		.loc 1 124 5 discriminator 1
 609 004a 7D55     		li	a0,-1
 610              	.LVL57:
 611              	.L30:
 125:C:/Users/stapi/OneDrive/Desktop/GD32VW553/V1_MQTT_OK/GD32VW55X_Wifi_BLE_SDK/GD32VW55x_RELEASE_V1.0.2/MSDK/cloud/alicloud/src/protocol/coap/local\CoAPResource.c **** 
 126:C:/Users/stapi/OneDrive/Desktop/GD32VW553/V1_MQTT_OK/GD32VW55X_Wifi_BLE_SDK/GD32VW55x_RELEASE_V1.0.2/MSDK/cloud/alicloud/src/protocol/coap/local\CoAPResource.c ****     HAL_MutexLock(ctx->resource.list_mutex);
 127:C:/Users/stapi/OneDrive/Desktop/GD32VW553/V1_MQTT_OK/GD32VW55X_Wifi_BLE_SDK/GD32VW55x_RELEASE_V1.0.2/MSDK/cloud/alicloud/src/protocol/coap/local\CoAPResource.c ****     if (ctx->resource.count >= ctx->resource.maxcount) {
 128:C:/Users/stapi/OneDrive/Desktop/GD32VW553/V1_MQTT_OK/GD32VW55X_Wifi_BLE_SDK/GD32VW55x_RELEASE_V1.0.2/MSDK/cloud/alicloud/src/protocol/coap/local\CoAPResource.c ****         HAL_MutexUnlock(ctx->resource.list_mutex);
 129:C:/Users/stapi/OneDrive/Desktop/GD32VW553/V1_MQTT_OK/GD32VW55X_Wifi_BLE_SDK/GD32VW55x_RELEASE_V1.0.2/MSDK/cloud/alicloud/src/protocol/coap/local\CoAPResource.c ****         COAP_INFO("The resource count exceeds limit, cur %d, max %d",
 130:C:/Users/stapi/OneDrive/Desktop/GD32VW553/V1_MQTT_OK/GD32VW55X_Wifi_BLE_SDK/GD32VW55x_RELEASE_V1.0.2/MSDK/cloud/alicloud/src/protocol/coap/local\CoAPResource.c ****                   ctx->resource.count,  ctx->resource.maxcount);
 131:C:/Users/stapi/OneDrive/Desktop/GD32VW553/V1_MQTT_OK/GD32VW55X_Wifi_BLE_SDK/GD32VW55x_RELEASE_V1.0.2/MSDK/cloud/alicloud/src/protocol/coap/local\CoAPResource.c ****         return COAP_ERROR_DATA_SIZE;
 132:C:/Users/stapi/OneDrive/Desktop/GD32VW553/V1_MQTT_OK/GD32VW55X_Wifi_BLE_SDK/GD32VW55x_RELEASE_V1.0.2/MSDK/cloud/alicloud/src/protocol/coap/local\CoAPResource.c ****     }
 133:C:/Users/stapi/OneDrive/Desktop/GD32VW553/V1_MQTT_OK/GD32VW55X_Wifi_BLE_SDK/GD32VW55x_RELEASE_V1.0.2/MSDK/cloud/alicloud/src/protocol/coap/local\CoAPResource.c **** 
 134:C:/Users/stapi/OneDrive/Desktop/GD32VW553/V1_MQTT_OK/GD32VW55X_Wifi_BLE_SDK/GD32VW55x_RELEASE_V1.0.2/MSDK/cloud/alicloud/src/protocol/coap/local\CoAPResource.c ****     if (strstr(path, "/#") != NULL) {
 135:C:/Users/stapi/OneDrive/Desktop/GD32VW553/V1_MQTT_OK/GD32VW55X_Wifi_BLE_SDK/GD32VW55x_RELEASE_V1.0.2/MSDK/cloud/alicloud/src/protocol/coap/local\CoAPResource.c ****         type = PATH_FILTER;
 136:C:/Users/stapi/OneDrive/Desktop/GD32VW553/V1_MQTT_OK/GD32VW55X_Wifi_BLE_SDK/GD32VW55x_RELEASE_V1.0.2/MSDK/cloud/alicloud/src/protocol/coap/local\CoAPResource.c ****     } else {
 137:C:/Users/stapi/OneDrive/Desktop/GD32VW553/V1_MQTT_OK/GD32VW55X_Wifi_BLE_SDK/GD32VW55x_RELEASE_V1.0.2/MSDK/cloud/alicloud/src/protocol/coap/local\CoAPResource.c ****         CoAPPathMD5_sum(path, strlen(path), path_calc, COAP_PATH_DEFAULT_SUM_LEN);
 138:C:/Users/stapi/OneDrive/Desktop/GD32VW553/V1_MQTT_OK/GD32VW55X_Wifi_BLE_SDK/GD32VW55x_RELEASE_V1.0.2/MSDK/cloud/alicloud/src/protocol/coap/local\CoAPResource.c ****     }
 139:C:/Users/stapi/OneDrive/Desktop/GD32VW553/V1_MQTT_OK/GD32VW55X_Wifi_BLE_SDK/GD32VW55x_RELEASE_V1.0.2/MSDK/cloud/alicloud/src/protocol/coap/local\CoAPResource.c **** 
 140:C:/Users/stapi/OneDrive/Desktop/GD32VW553/V1_MQTT_OK/GD32VW55X_Wifi_BLE_SDK/GD32VW55x_RELEASE_V1.0.2/MSDK/cloud/alicloud/src/protocol/coap/local\CoAPResource.c ****     list_for_each_entry(node, &ctx->resource.list, reslist, CoAPResource) {
 141:C:/Users/stapi/OneDrive/Desktop/GD32VW553/V1_MQTT_OK/GD32VW55X_Wifi_BLE_SDK/GD32VW55x_RELEASE_V1.0.2/MSDK/cloud/alicloud/src/protocol/coap/local\CoAPResource.c ****         if (type == PATH_NORMAL && node->path_type == PATH_NORMAL) {
 142:C:/Users/stapi/OneDrive/Desktop/GD32VW553/V1_MQTT_OK/GD32VW55X_Wifi_BLE_SDK/GD32VW55x_RELEASE_V1.0.2/MSDK/cloud/alicloud/src/protocol/coap/local\CoAPResource.c ****             if (0 == memcmp(path_calc, node->path, COAP_PATH_DEFAULT_SUM_LEN)) {
 143:C:/Users/stapi/OneDrive/Desktop/GD32VW553/V1_MQTT_OK/GD32VW55X_Wifi_BLE_SDK/GD32VW55x_RELEASE_V1.0.2/MSDK/cloud/alicloud/src/protocol/coap/local\CoAPResource.c ****                 /*Alread exist, re-write it*/
 144:C:/Users/stapi/OneDrive/Desktop/GD32VW553/V1_MQTT_OK/GD32VW55X_Wifi_BLE_SDK/GD32VW55x_RELEASE_V1.0.2/MSDK/cloud/alicloud/src/protocol/coap/local\CoAPResource.c ****                 COAP_INFO("CoAPResource_register:Alread exist");
 145:C:/Users/stapi/OneDrive/Desktop/GD32VW553/V1_MQTT_OK/GD32VW55X_Wifi_BLE_SDK/GD32VW55x_RELEASE_V1.0.2/MSDK/cloud/alicloud/src/protocol/coap/local\CoAPResource.c ****                 exist = 1;
 146:C:/Users/stapi/OneDrive/Desktop/GD32VW553/V1_MQTT_OK/GD32VW55X_Wifi_BLE_SDK/GD32VW55x_RELEASE_V1.0.2/MSDK/cloud/alicloud/src/protocol/coap/local\CoAPResource.c ****                 node->callback = callback;
 147:C:/Users/stapi/OneDrive/Desktop/GD32VW553/V1_MQTT_OK/GD32VW55X_Wifi_BLE_SDK/GD32VW55x_RELEASE_V1.0.2/MSDK/cloud/alicloud/src/protocol/coap/local\CoAPResource.c ****                 node->ctype = ctype;
 148:C:/Users/stapi/OneDrive/Desktop/GD32VW553/V1_MQTT_OK/GD32VW55X_Wifi_BLE_SDK/GD32VW55x_RELEASE_V1.0.2/MSDK/cloud/alicloud/src/protocol/coap/local\CoAPResource.c ****                 node->maxage = maxage;
 149:C:/Users/stapi/OneDrive/Desktop/GD32VW553/V1_MQTT_OK/GD32VW55X_Wifi_BLE_SDK/GD32VW55x_RELEASE_V1.0.2/MSDK/cloud/alicloud/src/protocol/coap/local\CoAPResource.c ****                 node->permission = permission;
 150:C:/Users/stapi/OneDrive/Desktop/GD32VW553/V1_MQTT_OK/GD32VW55X_Wifi_BLE_SDK/GD32VW55x_RELEASE_V1.0.2/MSDK/cloud/alicloud/src/protocol/coap/local\CoAPResource.c ****                 COAP_INFO("The resource %s already exist, re-write it", path);
 151:C:/Users/stapi/OneDrive/Desktop/GD32VW553/V1_MQTT_OK/GD32VW55X_Wifi_BLE_SDK/GD32VW55x_RELEASE_V1.0.2/MSDK/cloud/alicloud/src/protocol/coap/local\CoAPResource.c ****                 break;
 152:C:/Users/stapi/OneDrive/Desktop/GD32VW553/V1_MQTT_OK/GD32VW55X_Wifi_BLE_SDK/GD32VW55x_RELEASE_V1.0.2/MSDK/cloud/alicloud/src/protocol/coap/local\CoAPResource.c ****             }
 153:C:/Users/stapi/OneDrive/Desktop/GD32VW553/V1_MQTT_OK/GD32VW55X_Wifi_BLE_SDK/GD32VW55x_RELEASE_V1.0.2/MSDK/cloud/alicloud/src/protocol/coap/local\CoAPResource.c ****         } else if(type == PATH_FILTER && node->path_type == PATH_FILTER) {
 154:C:/Users/stapi/OneDrive/Desktop/GD32VW553/V1_MQTT_OK/GD32VW55X_Wifi_BLE_SDK/GD32VW55x_RELEASE_V1.0.2/MSDK/cloud/alicloud/src/protocol/coap/local\CoAPResource.c ****             if (0 == strncmp((char *)path, node->filter_path, strlen(path))) {
 155:C:/Users/stapi/OneDrive/Desktop/GD32VW553/V1_MQTT_OK/GD32VW55X_Wifi_BLE_SDK/GD32VW55x_RELEASE_V1.0.2/MSDK/cloud/alicloud/src/protocol/coap/local\CoAPResource.c ****                 /*Alread exist, re-write it*/
 156:C:/Users/stapi/OneDrive/Desktop/GD32VW553/V1_MQTT_OK/GD32VW55X_Wifi_BLE_SDK/GD32VW55x_RELEASE_V1.0.2/MSDK/cloud/alicloud/src/protocol/coap/local\CoAPResource.c ****                 COAP_INFO("CoAPResource_register:Alread exist");
 157:C:/Users/stapi/OneDrive/Desktop/GD32VW553/V1_MQTT_OK/GD32VW55X_Wifi_BLE_SDK/GD32VW55x_RELEASE_V1.0.2/MSDK/cloud/alicloud/src/protocol/coap/local\CoAPResource.c ****                 exist = 1;
 158:C:/Users/stapi/OneDrive/Desktop/GD32VW553/V1_MQTT_OK/GD32VW55X_Wifi_BLE_SDK/GD32VW55x_RELEASE_V1.0.2/MSDK/cloud/alicloud/src/protocol/coap/local\CoAPResource.c ****                 node->callback = callback;
 159:C:/Users/stapi/OneDrive/Desktop/GD32VW553/V1_MQTT_OK/GD32VW55X_Wifi_BLE_SDK/GD32VW55x_RELEASE_V1.0.2/MSDK/cloud/alicloud/src/protocol/coap/local\CoAPResource.c ****                 node->ctype = ctype;
 160:C:/Users/stapi/OneDrive/Desktop/GD32VW553/V1_MQTT_OK/GD32VW55X_Wifi_BLE_SDK/GD32VW55x_RELEASE_V1.0.2/MSDK/cloud/alicloud/src/protocol/coap/local\CoAPResource.c ****                 node->maxage = maxage;
 161:C:/Users/stapi/OneDrive/Desktop/GD32VW553/V1_MQTT_OK/GD32VW55X_Wifi_BLE_SDK/GD32VW55x_RELEASE_V1.0.2/MSDK/cloud/alicloud/src/protocol/coap/local\CoAPResource.c ****                 node->permission = permission;
 162:C:/Users/stapi/OneDrive/Desktop/GD32VW553/V1_MQTT_OK/GD32VW55X_Wifi_BLE_SDK/GD32VW55x_RELEASE_V1.0.2/MSDK/cloud/alicloud/src/protocol/coap/local\CoAPResource.c ****                 COAP_INFO("The resource %s already exist, re-write it", path);
 163:C:/Users/stapi/OneDrive/Desktop/GD32VW553/V1_MQTT_OK/GD32VW55X_Wifi_BLE_SDK/GD32VW55x_RELEASE_V1.0.2/MSDK/cloud/alicloud/src/protocol/coap/local\CoAPResource.c ****                 break;
 164:C:/Users/stapi/OneDrive/Desktop/GD32VW553/V1_MQTT_OK/GD32VW55X_Wifi_BLE_SDK/GD32VW55x_RELEASE_V1.0.2/MSDK/cloud/alicloud/src/protocol/coap/local\CoAPResource.c ****             }
 165:C:/Users/stapi/OneDrive/Desktop/GD32VW553/V1_MQTT_OK/GD32VW55X_Wifi_BLE_SDK/GD32VW55x_RELEASE_V1.0.2/MSDK/cloud/alicloud/src/protocol/coap/local\CoAPResource.c ****         }
 166:C:/Users/stapi/OneDrive/Desktop/GD32VW553/V1_MQTT_OK/GD32VW55X_Wifi_BLE_SDK/GD32VW55x_RELEASE_V1.0.2/MSDK/cloud/alicloud/src/protocol/coap/local\CoAPResource.c ****     }
 167:C:/Users/stapi/OneDrive/Desktop/GD32VW553/V1_MQTT_OK/GD32VW55X_Wifi_BLE_SDK/GD32VW55x_RELEASE_V1.0.2/MSDK/cloud/alicloud/src/protocol/coap/local\CoAPResource.c **** 
 168:C:/Users/stapi/OneDrive/Desktop/GD32VW553/V1_MQTT_OK/GD32VW55X_Wifi_BLE_SDK/GD32VW55x_RELEASE_V1.0.2/MSDK/cloud/alicloud/src/protocol/coap/local\CoAPResource.c ****     if (0 == exist) {
 169:C:/Users/stapi/OneDrive/Desktop/GD32VW553/V1_MQTT_OK/GD32VW55X_Wifi_BLE_SDK/GD32VW55x_RELEASE_V1.0.2/MSDK/cloud/alicloud/src/protocol/coap/local\CoAPResource.c ****         newnode = CoAPResource_create(path, type, permission, ctype, maxage, callback);
 170:C:/Users/stapi/OneDrive/Desktop/GD32VW553/V1_MQTT_OK/GD32VW55X_Wifi_BLE_SDK/GD32VW55x_RELEASE_V1.0.2/MSDK/cloud/alicloud/src/protocol/coap/local\CoAPResource.c ****         if (NULL != newnode) {
 171:C:/Users/stapi/OneDrive/Desktop/GD32VW553/V1_MQTT_OK/GD32VW55X_Wifi_BLE_SDK/GD32VW55x_RELEASE_V1.0.2/MSDK/cloud/alicloud/src/protocol/coap/local\CoAPResource.c ****             COAP_DEBUG("CoAPResource_register, context:%p, new node", ctx);
 172:C:/Users/stapi/OneDrive/Desktop/GD32VW553/V1_MQTT_OK/GD32VW55X_Wifi_BLE_SDK/GD32VW55x_RELEASE_V1.0.2/MSDK/cloud/alicloud/src/protocol/coap/local\CoAPResource.c ****             list_add_tail(&newnode->reslist, &ctx->resource.list);
 173:C:/Users/stapi/OneDrive/Desktop/GD32VW553/V1_MQTT_OK/GD32VW55X_Wifi_BLE_SDK/GD32VW55x_RELEASE_V1.0.2/MSDK/cloud/alicloud/src/protocol/coap/local\CoAPResource.c ****             ctx->resource.count++;
 174:C:/Users/stapi/OneDrive/Desktop/GD32VW553/V1_MQTT_OK/GD32VW55X_Wifi_BLE_SDK/GD32VW55x_RELEASE_V1.0.2/MSDK/cloud/alicloud/src/protocol/coap/local\CoAPResource.c ****             COAP_DEBUG("Register new resource %s success, count: %d", path, ctx->resource.count);
 175:C:/Users/stapi/OneDrive/Desktop/GD32VW553/V1_MQTT_OK/GD32VW55X_Wifi_BLE_SDK/GD32VW55x_RELEASE_V1.0.2/MSDK/cloud/alicloud/src/protocol/coap/local\CoAPResource.c ****         } else {
 176:C:/Users/stapi/OneDrive/Desktop/GD32VW553/V1_MQTT_OK/GD32VW55X_Wifi_BLE_SDK/GD32VW55x_RELEASE_V1.0.2/MSDK/cloud/alicloud/src/protocol/coap/local\CoAPResource.c ****             COAP_ERR("New resource create failed");
 177:C:/Users/stapi/OneDrive/Desktop/GD32VW553/V1_MQTT_OK/GD32VW55X_Wifi_BLE_SDK/GD32VW55x_RELEASE_V1.0.2/MSDK/cloud/alicloud/src/protocol/coap/local\CoAPResource.c ****         }
 178:C:/Users/stapi/OneDrive/Desktop/GD32VW553/V1_MQTT_OK/GD32VW55X_Wifi_BLE_SDK/GD32VW55x_RELEASE_V1.0.2/MSDK/cloud/alicloud/src/protocol/coap/local\CoAPResource.c ****     }
 179:C:/Users/stapi/OneDrive/Desktop/GD32VW553/V1_MQTT_OK/GD32VW55X_Wifi_BLE_SDK/GD32VW55x_RELEASE_V1.0.2/MSDK/cloud/alicloud/src/protocol/coap/local\CoAPResource.c **** 
 180:C:/Users/stapi/OneDrive/Desktop/GD32VW553/V1_MQTT_OK/GD32VW55X_Wifi_BLE_SDK/GD32VW55x_RELEASE_V1.0.2/MSDK/cloud/alicloud/src/protocol/coap/local\CoAPResource.c ****     HAL_MutexUnlock(ctx->resource.list_mutex);
 181:C:/Users/stapi/OneDrive/Desktop/GD32VW553/V1_MQTT_OK/GD32VW55X_Wifi_BLE_SDK/GD32VW55x_RELEASE_V1.0.2/MSDK/cloud/alicloud/src/protocol/coap/local\CoAPResource.c **** 
 182:C:/Users/stapi/OneDrive/Desktop/GD32VW553/V1_MQTT_OK/GD32VW55X_Wifi_BLE_SDK/GD32VW55x_RELEASE_V1.0.2/MSDK/cloud/alicloud/src/protocol/coap/local\CoAPResource.c ****     return COAP_SUCCESS;
 183:C:/Users/stapi/OneDrive/Desktop/GD32VW553/V1_MQTT_OK/GD32VW55X_Wifi_BLE_SDK/GD32VW55x_RELEASE_V1.0.2/MSDK/cloud/alicloud/src/protocol/coap/local\CoAPResource.c **** }
 612              		.loc 1 183 1 is_stmt 0
 613 004c 4101     		addi	sp,sp,16
 614              		.cfi_remember_state
 615              		.cfi_def_cfa_offset 0
 616 004e 17030000 		tail	__riscv_restore_10
 616      67000300 
 617              		.cfi_restore 25
 618              		.cfi_restore 24
 619              		.cfi_restore 23
 620              		.cfi_restore 22
 621              		.cfi_restore 21
 622              		.cfi_restore 20
 623              		.cfi_restore 19
 624              		.cfi_restore 18
 625              		.cfi_restore 9
 626              		.cfi_restore 8
 627              		.cfi_restore 1
 628              		.cfi_def_cfa_offset -48
 629              	.LVL58:
 630              	.L31:
 631              		.cfi_restore_state
 632 0056 AA84     		mv	s1,a0
 126:C:/Users/stapi/OneDrive/Desktop/GD32VW553/V1_MQTT_OK/GD32VW55X_Wifi_BLE_SDK/GD32VW55x_RELEASE_V1.0.2/MSDK/cloud/alicloud/src/protocol/coap/local\CoAPResource.c ****     if (ctx->resource.count >= ctx->resource.maxcount) {
 633              		.loc 1 126 5 discriminator 2
 634 0058 6841     		lw	a0,68(a0)
 635              	.LVL59:
 636 005a BA8A     		mv	s5,a4
 637 005c 3E8B     		mv	s6,a5
 124:C:/Users/stapi/OneDrive/Desktop/GD32VW553/V1_MQTT_OK/GD32VW55X_Wifi_BLE_SDK/GD32VW55x_RELEASE_V1.0.2/MSDK/cloud/alicloud/src/protocol/coap/local\CoAPResource.c ****     ARGUMENT_SANITY_CHECK(context, FAIL_RETURN);
 638              		.loc 1 124 5 is_stmt 1 discriminator 2
 126:C:/Users/stapi/OneDrive/Desktop/GD32VW553/V1_MQTT_OK/GD32VW55X_Wifi_BLE_SDK/GD32VW55x_RELEASE_V1.0.2/MSDK/cloud/alicloud/src/protocol/coap/local\CoAPResource.c ****     if (ctx->resource.count >= ctx->resource.maxcount) {
 639              		.loc 1 126 5 discriminator 2
 640 005e 2E89     		mv	s2,a1
 641 0060 B289     		mv	s3,a2
 642 0062 368A     		mv	s4,a3
 643 0064 97000000 		call	HAL_MutexLock
 643      E7800000 
 644              	.LVL60:
 127:C:/Users/stapi/OneDrive/Desktop/GD32VW553/V1_MQTT_OK/GD32VW55X_Wifi_BLE_SDK/GD32VW55x_RELEASE_V1.0.2/MSDK/cloud/alicloud/src/protocol/coap/local\CoAPResource.c ****         HAL_MutexUnlock(ctx->resource.list_mutex);
 645              		.loc 1 127 5 discriminator 2
 127:C:/Users/stapi/OneDrive/Desktop/GD32VW553/V1_MQTT_OK/GD32VW55X_Wifi_BLE_SDK/GD32VW55x_RELEASE_V1.0.2/MSDK/cloud/alicloud/src/protocol/coap/local\CoAPResource.c ****         HAL_MutexUnlock(ctx->resource.list_mutex);
 646              		.loc 1 127 8 is_stmt 0 discriminator 2
 647 006c 03C70405 		lbu	a4,80(s1)
 648 0070 83C71405 		lbu	a5,81(s1)
 649 0074 6366F704 		bltu	a4,a5,.L33
 128:C:/Users/stapi/OneDrive/Desktop/GD32VW553/V1_MQTT_OK/GD32VW55X_Wifi_BLE_SDK/GD32VW55x_RELEASE_V1.0.2/MSDK/cloud/alicloud/src/protocol/coap/local\CoAPResource.c ****         COAP_INFO("The resource count exceeds limit, cur %d, max %d",
 650              		.loc 1 128 9 is_stmt 1
 651 0078 E840     		lw	a0,68(s1)
 652 007a 97000000 		call	HAL_MutexUnlock
 652      E7800000 
 653              	.LVL61:
 129:C:/Users/stapi/OneDrive/Desktop/GD32VW553/V1_MQTT_OK/GD32VW55X_Wifi_BLE_SDK/GD32VW55x_RELEASE_V1.0.2/MSDK/cloud/alicloud/src/protocol/coap/local\CoAPResource.c ****                   ctx->resource.count,  ctx->resource.maxcount);
 654              		.loc 1 129 9
 129:C:/Users/stapi/OneDrive/Desktop/GD32VW553/V1_MQTT_OK/GD32VW55X_Wifi_BLE_SDK/GD32VW55x_RELEASE_V1.0.2/MSDK/cloud/alicloud/src/protocol/coap/local\CoAPResource.c ****                   ctx->resource.count,  ctx->resource.maxcount);
 655              		.loc 1 129 9
 656 0082 37050000 		lui	a0,%hi(.LC6)
 657 0086 13050500 		addi	a0,a0,%lo(.LC6)
 658 008a 97000000 		call	HAL_Printf
 658      E7800000 
 659              	.LVL62:
 129:C:/Users/stapi/OneDrive/Desktop/GD32VW553/V1_MQTT_OK/GD32VW55X_Wifi_BLE_SDK/GD32VW55x_RELEASE_V1.0.2/MSDK/cloud/alicloud/src/protocol/coap/local\CoAPResource.c ****                   ctx->resource.count,  ctx->resource.maxcount);
 660              		.loc 1 129 9
 661 0092 03C61405 		lbu	a2,81(s1)
 662 0096 83C50405 		lbu	a1,80(s1)
 663 009a 37050000 		lui	a0,%hi(.LC7)
 664 009e 13050500 		addi	a0,a0,%lo(.LC7)
 665 00a2 97000000 		call	HAL_Printf
 665      E7800000 
 666              	.LVL63:
 129:C:/Users/stapi/OneDrive/Desktop/GD32VW553/V1_MQTT_OK/GD32VW55X_Wifi_BLE_SDK/GD32VW55x_RELEASE_V1.0.2/MSDK/cloud/alicloud/src/protocol/coap/local\CoAPResource.c ****                   ctx->resource.count,  ctx->resource.maxcount);
 667              		.loc 1 129 9
 668 00aa 37050000 		lui	a0,%hi(.LC5)
 669 00ae 13050500 		addi	a0,a0,%lo(.LC5)
 670 00b2 97000000 		call	HAL_Printf
 670      E7800000 
 671              	.LVL64:
 129:C:/Users/stapi/OneDrive/Desktop/GD32VW553/V1_MQTT_OK/GD32VW55X_Wifi_BLE_SDK/GD32VW55x_RELEASE_V1.0.2/MSDK/cloud/alicloud/src/protocol/coap/local\CoAPResource.c ****                   ctx->resource.count,  ctx->resource.maxcount);
 672              		.loc 1 129 9
 131:C:/Users/stapi/OneDrive/Desktop/GD32VW553/V1_MQTT_OK/GD32VW55X_Wifi_BLE_SDK/GD32VW55x_RELEASE_V1.0.2/MSDK/cloud/alicloud/src/protocol/coap/local\CoAPResource.c ****     }
 673              		.loc 1 131 9
 131:C:/Users/stapi/OneDrive/Desktop/GD32VW553/V1_MQTT_OK/GD32VW55X_Wifi_BLE_SDK/GD32VW55x_RELEASE_V1.0.2/MSDK/cloud/alicloud/src/protocol/coap/local\CoAPResource.c ****     }
 674              		.loc 1 131 16 is_stmt 0
 675 00ba 13055010 		li	a0,261
 676 00be 79B7     		j	.L30
 677              	.L33:
 134:C:/Users/stapi/OneDrive/Desktop/GD32VW553/V1_MQTT_OK/GD32VW55X_Wifi_BLE_SDK/GD32VW55x_RELEASE_V1.0.2/MSDK/cloud/alicloud/src/protocol/coap/local\CoAPResource.c ****         type = PATH_FILTER;
 678              		.loc 1 134 5 is_stmt 1
 134:C:/Users/stapi/OneDrive/Desktop/GD32VW553/V1_MQTT_OK/GD32VW55X_Wifi_BLE_SDK/GD32VW55x_RELEASE_V1.0.2/MSDK/cloud/alicloud/src/protocol/coap/local\CoAPResource.c ****         type = PATH_FILTER;
 679              		.loc 1 134 9 is_stmt 0
 680 00c0 B7050000 		lui	a1,%hi(.LC8)
 681 00c4 93850500 		addi	a1,a1,%lo(.LC8)
 682 00c8 4A85     		mv	a0,s2
 683 00ca 97000000 		call	strstr
 683      E7800000 
 684              	.LVL65:
 135:C:/Users/stapi/OneDrive/Desktop/GD32VW553/V1_MQTT_OK/GD32VW55X_Wifi_BLE_SDK/GD32VW55x_RELEASE_V1.0.2/MSDK/cloud/alicloud/src/protocol/coap/local\CoAPResource.c ****     } else {
 685              		.loc 1 135 14
 686 00d2 854B     		li	s7,1
 134:C:/Users/stapi/OneDrive/Desktop/GD32VW553/V1_MQTT_OK/GD32VW55X_Wifi_BLE_SDK/GD32VW55x_RELEASE_V1.0.2/MSDK/cloud/alicloud/src/protocol/coap/local\CoAPResource.c ****         type = PATH_FILTER;
 687              		.loc 1 134 8
 688 00d4 19ED     		bne	a0,zero,.L34
 137:C:/Users/stapi/OneDrive/Desktop/GD32VW553/V1_MQTT_OK/GD32VW55X_Wifi_BLE_SDK/GD32VW55x_RELEASE_V1.0.2/MSDK/cloud/alicloud/src/protocol/coap/local\CoAPResource.c ****     }
 689              		.loc 1 137 9 is_stmt 1
 137:C:/Users/stapi/OneDrive/Desktop/GD32VW553/V1_MQTT_OK/GD32VW55X_Wifi_BLE_SDK/GD32VW55x_RELEASE_V1.0.2/MSDK/cloud/alicloud/src/protocol/coap/local\CoAPResource.c ****     }
 690              		.loc 1 137 31 is_stmt 0
 691 00d6 4A85     		mv	a0,s2
 692 00d8 97000000 		call	strlen
 692      E7800000 
 693              	.LVL66:
 694 00e0 AA85     		mv	a1,a0
 137:C:/Users/stapi/OneDrive/Desktop/GD32VW553/V1_MQTT_OK/GD32VW55X_Wifi_BLE_SDK/GD32VW55x_RELEASE_V1.0.2/MSDK/cloud/alicloud/src/protocol/coap/local\CoAPResource.c ****     }
 695              		.loc 1 137 9
 696 00e2 9546     		li	a3,5
 697 00e4 3000     		addi	a2,sp,8
 698 00e6 4A85     		mv	a0,s2
 699 00e8 97000000 		call	CoAPPathMD5_sum
 699      E7800000 
 700              	.LVL67:
 123:C:/Users/stapi/OneDrive/Desktop/GD32VW553/V1_MQTT_OK/GD32VW55X_Wifi_BLE_SDK/GD32VW55x_RELEASE_V1.0.2/MSDK/cloud/alicloud/src/protocol/coap/local\CoAPResource.c ****     ARGUMENT_SANITY_CHECK(context, FAIL_RETURN);
 701              		.loc 1 123 17
 702 00f0 814B     		li	s7,0
 703              	.L34:
 704              	.LVL68:
 140:C:/Users/stapi/OneDrive/Desktop/GD32VW553/V1_MQTT_OK/GD32VW55X_Wifi_BLE_SDK/GD32VW55x_RELEASE_V1.0.2/MSDK/cloud/alicloud/src/protocol/coap/local\CoAPResource.c ****         if (type == PATH_NORMAL && node->path_type == PATH_NORMAL) {
 705              		.loc 1 140 5 is_stmt 1
 706 00f2 E044     		lw	s0,76(s1)
 707 00f4 138C8404 		addi	s8,s1,72
 153:C:/Users/stapi/OneDrive/Desktop/GD32VW553/V1_MQTT_OK/GD32VW55X_Wifi_BLE_SDK/GD32VW55x_RELEASE_V1.0.2/MSDK/cloud/alicloud/src/protocol/coap/local\CoAPResource.c ****             if (0 == strncmp((char *)path, node->filter_path, strlen(path))) {
 708              		.loc 1 153 39 is_stmt 0
 709 00f8 854C     		li	s9,1
 140:C:/Users/stapi/OneDrive/Desktop/GD32VW553/V1_MQTT_OK/GD32VW55X_Wifi_BLE_SDK/GD32VW55x_RELEASE_V1.0.2/MSDK/cloud/alicloud/src/protocol/coap/local\CoAPResource.c ****         if (type == PATH_NORMAL && node->path_type == PATH_NORMAL) {
 710              		.loc 1 140 5
 711 00fa 4114     		addi	s0,s0,-16
 712              	.LVL69:
 713              	.L35:
 140:C:/Users/stapi/OneDrive/Desktop/GD32VW553/V1_MQTT_OK/GD32VW55X_Wifi_BLE_SDK/GD32VW55x_RELEASE_V1.0.2/MSDK/cloud/alicloud/src/protocol/coap/local\CoAPResource.c ****         if (type == PATH_NORMAL && node->path_type == PATH_NORMAL) {
 714              		.loc 1 140 5 is_stmt 1 discriminator 1
 715 00fc 93070401 		addi	a5,s0,16
 716 0100 6319FC08 		bne	s8,a5,.L39
 168:C:/Users/stapi/OneDrive/Desktop/GD32VW553/V1_MQTT_OK/GD32VW55X_Wifi_BLE_SDK/GD32VW55x_RELEASE_V1.0.2/MSDK/cloud/alicloud/src/protocol/coap/local\CoAPResource.c ****         newnode = CoAPResource_create(path, type, permission, ctype, maxage, callback);
 717              		.loc 1 168 5
 169:C:/Users/stapi/OneDrive/Desktop/GD32VW553/V1_MQTT_OK/GD32VW55X_Wifi_BLE_SDK/GD32VW55x_RELEASE_V1.0.2/MSDK/cloud/alicloud/src/protocol/coap/local\CoAPResource.c ****         if (NULL != newnode) {
 718              		.loc 1 169 9
 169:C:/Users/stapi/OneDrive/Desktop/GD32VW553/V1_MQTT_OK/GD32VW55X_Wifi_BLE_SDK/GD32VW55x_RELEASE_V1.0.2/MSDK/cloud/alicloud/src/protocol/coap/local\CoAPResource.c ****         if (NULL != newnode) {
 719              		.loc 1 169 19 is_stmt 0
 720 0104 DA87     		mv	a5,s6
 721 0106 5687     		mv	a4,s5
 722 0108 D286     		mv	a3,s4
 723 010a 4E86     		mv	a2,s3
 724 010c DE85     		mv	a1,s7
 725 010e 4A85     		mv	a0,s2
 726 0110 97000000 		call	CoAPResource_create
 726      E7800000 
 727              	.LVL70:
 728 0118 2A84     		mv	s0,a0
 729              	.LVL71:
 170:C:/Users/stapi/OneDrive/Desktop/GD32VW553/V1_MQTT_OK/GD32VW55X_Wifi_BLE_SDK/GD32VW55x_RELEASE_V1.0.2/MSDK/cloud/alicloud/src/protocol/coap/local\CoAPResource.c ****             COAP_DEBUG("CoAPResource_register, context:%p, new node", ctx);
 730              		.loc 1 170 9 is_stmt 1
 170:C:/Users/stapi/OneDrive/Desktop/GD32VW553/V1_MQTT_OK/GD32VW55X_Wifi_BLE_SDK/GD32VW55x_RELEASE_V1.0.2/MSDK/cloud/alicloud/src/protocol/coap/local\CoAPResource.c ****             COAP_DEBUG("CoAPResource_register, context:%p, new node", ctx);
 731              		.loc 1 170 12 is_stmt 0
 732 011a 63010512 		beq	a0,zero,.L40
 171:C:/Users/stapi/OneDrive/Desktop/GD32VW553/V1_MQTT_OK/GD32VW55X_Wifi_BLE_SDK/GD32VW55x_RELEASE_V1.0.2/MSDK/cloud/alicloud/src/protocol/coap/local\CoAPResource.c ****             list_add_tail(&newnode->reslist, &ctx->resource.list);
 733              		.loc 1 171 13 is_stmt 1
 734 011e 370A0000 		lui	s4,%hi(.LANCHOR1)
 735              	.LVL72:
 736 0122 B7090000 		lui	s3,%hi(.LC1)
 737 0126 37070000 		lui	a4,%hi(.LC11)
 738 012a A687     		mv	a5,s1
 739 012c 13070700 		addi	a4,a4,%lo(.LC11)
 740 0130 9546     		li	a3,5
 741 0132 1306B00A 		li	a2,171
 742 0136 93050A00 		addi	a1,s4,%lo(.LANCHOR1)
 743 013a 13850900 		addi	a0,s3,%lo(.LC1)
 744 013e 97000000 		call	LITE_syslog
 744      E7800000 
 745              	.LVL73:
 172:C:/Users/stapi/OneDrive/Desktop/GD32VW553/V1_MQTT_OK/GD32VW55X_Wifi_BLE_SDK/GD32VW55x_RELEASE_V1.0.2/MSDK/cloud/alicloud/src/protocol/coap/local\CoAPResource.c ****             ctx->resource.count++;
 746              		.loc 1 172 13
 747              	.LBB39:
 748              	.LBB40:
  63:..\..\..\..\cloud\alicloud\src\infra\utils\misc/lite-list.h **** }
 749              		.loc 2 63 28 is_stmt 0
 750 0146 B844     		lw	a4,72(s1)
 751              	.LBE40:
 752              	.LBE39:
 172:C:/Users/stapi/OneDrive/Desktop/GD32VW553/V1_MQTT_OK/GD32VW55X_Wifi_BLE_SDK/GD32VW55x_RELEASE_V1.0.2/MSDK/cloud/alicloud/src/protocol/coap/local\CoAPResource.c ****             ctx->resource.count++;
 753              		.loc 1 172 27
 754 0148 93070401 		addi	a5,s0,16
 755              	.LVL74:
 756              	.LBB47:
 757              	.LBB45:
  63:..\..\..\..\cloud\alicloud\src\infra\utils\misc/lite-list.h **** }
 758              		.loc 2 63 5 is_stmt 1
 759              	.LBB41:
 760              	.LBB42:
  38:..\..\..\..\cloud\alicloud\src\infra\utils\misc/lite-list.h ****     node->prev = prev;
 761              		.loc 2 38 5
  38:..\..\..\..\cloud\alicloud\src\infra\utils\misc/lite-list.h ****     node->prev = prev;
 762              		.loc 2 38 16 is_stmt 0
 763 014c 232A8401 		sw	s8,20(s0)
  39:..\..\..\..\cloud\alicloud\src\infra\utils\misc/lite-list.h **** 
 764              		.loc 2 39 5 is_stmt 1
  39:..\..\..\..\cloud\alicloud\src\infra\utils\misc/lite-list.h **** 
 765              		.loc 2 39 16 is_stmt 0
 766 0150 18C8     		sw	a4,16(s0)
  41:..\..\..\..\cloud\alicloud\src\infra\utils\misc/lite-list.h ****     next->prev = node;
 767              		.loc 2 41 5 is_stmt 1
  41:..\..\..\..\cloud\alicloud\src\infra\utils\misc/lite-list.h ****     next->prev = node;
 768              		.loc 2 41 16 is_stmt 0
 769 0152 5CC3     		sw	a5,4(a4)
  42:..\..\..\..\cloud\alicloud\src\infra\utils\misc/lite-list.h **** }
 770              		.loc 2 42 5 is_stmt 1
 771              	.LBE42:
 772              	.LBE41:
 773              	.LBE45:
 774              	.LBE47:
 173:C:/Users/stapi/OneDrive/Desktop/GD32VW553/V1_MQTT_OK/GD32VW55X_Wifi_BLE_SDK/GD32VW55x_RELEASE_V1.0.2/MSDK/cloud/alicloud/src/protocol/coap/local\CoAPResource.c ****             COAP_DEBUG("Register new resource %s success, count: %d", path, ctx->resource.count);
 775              		.loc 1 173 32 is_stmt 0
 776 0154 03C80405 		lbu	a6,80(s1)
 174:C:/Users/stapi/OneDrive/Desktop/GD32VW553/V1_MQTT_OK/GD32VW55X_Wifi_BLE_SDK/GD32VW55x_RELEASE_V1.0.2/MSDK/cloud/alicloud/src/protocol/coap/local\CoAPResource.c ****         } else {
 777              		.loc 1 174 13
 778 0158 37070000 		lui	a4,%hi(.LC12)
 779              	.LVL75:
 780              	.LBB48:
 781              	.LBB46:
 782              	.LBB44:
 783              	.LBB43:
  42:..\..\..\..\cloud\alicloud\src\infra\utils\misc/lite-list.h **** }
 784              		.loc 2 42 16
 785 015c BCC4     		sw	a5,72(s1)
 786              	.LVL76:
 787              	.LBE43:
 788              	.LBE44:
 789              	.LBE46:
 790              	.LBE48:
 173:C:/Users/stapi/OneDrive/Desktop/GD32VW553/V1_MQTT_OK/GD32VW55X_Wifi_BLE_SDK/GD32VW55x_RELEASE_V1.0.2/MSDK/cloud/alicloud/src/protocol/coap/local\CoAPResource.c ****             COAP_DEBUG("Register new resource %s success, count: %d", path, ctx->resource.count);
 791              		.loc 1 173 13 is_stmt 1
 173:C:/Users/stapi/OneDrive/Desktop/GD32VW553/V1_MQTT_OK/GD32VW55X_Wifi_BLE_SDK/GD32VW55x_RELEASE_V1.0.2/MSDK/cloud/alicloud/src/protocol/coap/local\CoAPResource.c ****             COAP_DEBUG("Register new resource %s success, count: %d", path, ctx->resource.count);
 792              		.loc 1 173 32 is_stmt 0
 793 015e 0508     		addi	a6,a6,1
 794 0160 1378F80F 		andi	a6,a6,0xff
 795 0164 23880405 		sb	a6,80(s1)
 174:C:/Users/stapi/OneDrive/Desktop/GD32VW553/V1_MQTT_OK/GD32VW55X_Wifi_BLE_SDK/GD32VW55x_RELEASE_V1.0.2/MSDK/cloud/alicloud/src/protocol/coap/local\CoAPResource.c ****         } else {
 796              		.loc 1 174 13 is_stmt 1
 797 0168 CA87     		mv	a5,s2
 798 016a 13070700 		addi	a4,a4,%lo(.LC12)
 799 016e 9546     		li	a3,5
 800 0170 1306E00A 		li	a2,174
 801 0174 93050A00 		addi	a1,s4,%lo(.LANCHOR1)
 802 0178 13850900 		addi	a0,s3,%lo(.LC1)
 803 017c 97000000 		call	LITE_syslog
 803      E7800000 
 804              	.LVL77:
 805              	.L38:
 176:C:/Users/stapi/OneDrive/Desktop/GD32VW553/V1_MQTT_OK/GD32VW55X_Wifi_BLE_SDK/GD32VW55x_RELEASE_V1.0.2/MSDK/cloud/alicloud/src/protocol/coap/local\CoAPResource.c ****         }
 806              		.loc 1 176 13 discriminator 1
 180:C:/Users/stapi/OneDrive/Desktop/GD32VW553/V1_MQTT_OK/GD32VW55X_Wifi_BLE_SDK/GD32VW55x_RELEASE_V1.0.2/MSDK/cloud/alicloud/src/protocol/coap/local\CoAPResource.c **** 
 807              		.loc 1 180 5 discriminator 1
 808 0184 E840     		lw	a0,68(s1)
 809 0186 97000000 		call	HAL_MutexUnlock
 809      E7800000 
 810              	.LVL78:
 182:C:/Users/stapi/OneDrive/Desktop/GD32VW553/V1_MQTT_OK/GD32VW55X_Wifi_BLE_SDK/GD32VW55x_RELEASE_V1.0.2/MSDK/cloud/alicloud/src/protocol/coap/local\CoAPResource.c **** }
 811              		.loc 1 182 5 discriminator 1
 182:C:/Users/stapi/OneDrive/Desktop/GD32VW553/V1_MQTT_OK/GD32VW55X_Wifi_BLE_SDK/GD32VW55x_RELEASE_V1.0.2/MSDK/cloud/alicloud/src/protocol/coap/local\CoAPResource.c **** }
 812              		.loc 1 182 12 is_stmt 0 discriminator 1
 813 018e 0145     		li	a0,0
 814 0190 75BD     		j	.L30
 815              	.LVL79:
 816              	.L39:
 141:C:/Users/stapi/OneDrive/Desktop/GD32VW553/V1_MQTT_OK/GD32VW55X_Wifi_BLE_SDK/GD32VW55x_RELEASE_V1.0.2/MSDK/cloud/alicloud/src/protocol/coap/local\CoAPResource.c ****             if (0 == memcmp(path_calc, node->path, COAP_PATH_DEFAULT_SUM_LEN)) {
 817              		.loc 1 141 9 is_stmt 1
 141:C:/Users/stapi/OneDrive/Desktop/GD32VW553/V1_MQTT_OK/GD32VW55X_Wifi_BLE_SDK/GD32VW55x_RELEASE_V1.0.2/MSDK/cloud/alicloud/src/protocol/coap/local\CoAPResource.c ****             if (0 == memcmp(path_calc, node->path, COAP_PATH_DEFAULT_SUM_LEN)) {
 818              		.loc 1 141 40 is_stmt 0
 819 0192 5C50     		lw	a5,36(s0)
 141:C:/Users/stapi/OneDrive/Desktop/GD32VW553/V1_MQTT_OK/GD32VW55X_Wifi_BLE_SDK/GD32VW55x_RELEASE_V1.0.2/MSDK/cloud/alicloud/src/protocol/coap/local\CoAPResource.c ****             if (0 == memcmp(path_calc, node->path, COAP_PATH_DEFAULT_SUM_LEN)) {
 820              		.loc 1 141 12
 821 0194 63920B08 		bne	s7,zero,.L36
 141:C:/Users/stapi/OneDrive/Desktop/GD32VW553/V1_MQTT_OK/GD32VW55X_Wifi_BLE_SDK/GD32VW55x_RELEASE_V1.0.2/MSDK/cloud/alicloud/src/protocol/coap/local\CoAPResource.c ****             if (0 == memcmp(path_calc, node->path, COAP_PATH_DEFAULT_SUM_LEN)) {
 822              		.loc 1 141 33 discriminator 1
 823 0198 D9EF     		bne	a5,zero,.L37
 142:C:/Users/stapi/OneDrive/Desktop/GD32VW553/V1_MQTT_OK/GD32VW55X_Wifi_BLE_SDK/GD32VW55x_RELEASE_V1.0.2/MSDK/cloud/alicloud/src/protocol/coap/local\CoAPResource.c ****                 /*Alread exist, re-write it*/
 824              		.loc 1 142 13 is_stmt 1
 142:C:/Users/stapi/OneDrive/Desktop/GD32VW553/V1_MQTT_OK/GD32VW55X_Wifi_BLE_SDK/GD32VW55x_RELEASE_V1.0.2/MSDK/cloud/alicloud/src/protocol/coap/local\CoAPResource.c ****                 /*Alread exist, re-write it*/
 825              		.loc 1 142 22 is_stmt 0
 826 019a 1546     		li	a2,5
 827 019c 93058401 		addi	a1,s0,24
 828 01a0 2800     		addi	a0,sp,8
 829 01a2 97000000 		call	memcmp
 829      E7800000 
 830              	.LVL80:
 831              	.L46:
 154:C:/Users/stapi/OneDrive/Desktop/GD32VW553/V1_MQTT_OK/GD32VW55X_Wifi_BLE_SDK/GD32VW55x_RELEASE_V1.0.2/MSDK/cloud/alicloud/src/protocol/coap/local\CoAPResource.c ****                 /*Alread exist, re-write it*/
 832              		.loc 1 154 16
 833 01aa 51E5     		bne	a0,zero,.L37
 156:C:/Users/stapi/OneDrive/Desktop/GD32VW553/V1_MQTT_OK/GD32VW55X_Wifi_BLE_SDK/GD32VW55x_RELEASE_V1.0.2/MSDK/cloud/alicloud/src/protocol/coap/local\CoAPResource.c ****                 exist = 1;
 834              		.loc 1 156 17 is_stmt 1
 156:C:/Users/stapi/OneDrive/Desktop/GD32VW553/V1_MQTT_OK/GD32VW55X_Wifi_BLE_SDK/GD32VW55x_RELEASE_V1.0.2/MSDK/cloud/alicloud/src/protocol/coap/local\CoAPResource.c ****                 exist = 1;
 835              		.loc 1 156 17
 836 01ac 370C0000 		lui	s8,%hi(.LC6)
 837 01b0 13050C00 		addi	a0,s8,%lo(.LC6)
 838 01b4 97000000 		call	HAL_Printf
 838      E7800000 
 839              	.LVL81:
 156:C:/Users/stapi/OneDrive/Desktop/GD32VW553/V1_MQTT_OK/GD32VW55X_Wifi_BLE_SDK/GD32VW55x_RELEASE_V1.0.2/MSDK/cloud/alicloud/src/protocol/coap/local\CoAPResource.c ****                 exist = 1;
 840              		.loc 1 156 17
 841 01bc 37050000 		lui	a0,%hi(.LC9)
 842 01c0 13050500 		addi	a0,a0,%lo(.LC9)
 843 01c4 97000000 		call	HAL_Printf
 843      E7800000 
 844              	.LVL82:
 156:C:/Users/stapi/OneDrive/Desktop/GD32VW553/V1_MQTT_OK/GD32VW55X_Wifi_BLE_SDK/GD32VW55x_RELEASE_V1.0.2/MSDK/cloud/alicloud/src/protocol/coap/local\CoAPResource.c ****                 exist = 1;
 845              		.loc 1 156 17
 846 01cc B70B0000 		lui	s7,%hi(.LC5)
 847              	.LVL83:
 848 01d0 13850B00 		addi	a0,s7,%lo(.LC5)
 849 01d4 97000000 		call	HAL_Printf
 849      E7800000 
 850              	.LVL84:
 156:C:/Users/stapi/OneDrive/Desktop/GD32VW553/V1_MQTT_OK/GD32VW55X_Wifi_BLE_SDK/GD32VW55x_RELEASE_V1.0.2/MSDK/cloud/alicloud/src/protocol/coap/local\CoAPResource.c ****                 exist = 1;
 851              		.loc 1 156 17
 157:C:/Users/stapi/OneDrive/Desktop/GD32VW553/V1_MQTT_OK/GD32VW55X_Wifi_BLE_SDK/GD32VW55x_RELEASE_V1.0.2/MSDK/cloud/alicloud/src/protocol/coap/local\CoAPResource.c ****                 node->callback = callback;
 852              		.loc 1 157 17
 158:C:/Users/stapi/OneDrive/Desktop/GD32VW553/V1_MQTT_OK/GD32VW55X_Wifi_BLE_SDK/GD32VW55x_RELEASE_V1.0.2/MSDK/cloud/alicloud/src/protocol/coap/local\CoAPResource.c ****                 node->ctype = ctype;
 853              		.loc 1 158 17
 162:C:/Users/stapi/OneDrive/Desktop/GD32VW553/V1_MQTT_OK/GD32VW55X_Wifi_BLE_SDK/GD32VW55x_RELEASE_V1.0.2/MSDK/cloud/alicloud/src/protocol/coap/local\CoAPResource.c ****                 break;
 854              		.loc 1 162 17 is_stmt 0
 855 01dc 13050C00 		addi	a0,s8,%lo(.LC6)
 158:C:/Users/stapi/OneDrive/Desktop/GD32VW553/V1_MQTT_OK/GD32VW55X_Wifi_BLE_SDK/GD32VW55x_RELEASE_V1.0.2/MSDK/cloud/alicloud/src/protocol/coap/local\CoAPResource.c ****                 node->ctype = ctype;
 856              		.loc 1 158 32
 857 01e0 23226401 		sw	s6,4(s0)
 159:C:/Users/stapi/OneDrive/Desktop/GD32VW553/V1_MQTT_OK/GD32VW55X_Wifi_BLE_SDK/GD32VW55x_RELEASE_V1.0.2/MSDK/cloud/alicloud/src/protocol/coap/local\CoAPResource.c ****                 node->maxage = maxage;
 858              		.loc 1 159 17 is_stmt 1
 159:C:/Users/stapi/OneDrive/Desktop/GD32VW553/V1_MQTT_OK/GD32VW55X_Wifi_BLE_SDK/GD32VW55x_RELEASE_V1.0.2/MSDK/cloud/alicloud/src/protocol/coap/local\CoAPResource.c ****                 node->maxage = maxage;
 859              		.loc 1 159 29 is_stmt 0
 860 01e4 23244401 		sw	s4,8(s0)
 160:C:/Users/stapi/OneDrive/Desktop/GD32VW553/V1_MQTT_OK/GD32VW55X_Wifi_BLE_SDK/GD32VW55x_RELEASE_V1.0.2/MSDK/cloud/alicloud/src/protocol/coap/local\CoAPResource.c ****                 node->permission = permission;
 861              		.loc 1 160 17 is_stmt 1
 160:C:/Users/stapi/OneDrive/Desktop/GD32VW553/V1_MQTT_OK/GD32VW55X_Wifi_BLE_SDK/GD32VW55x_RELEASE_V1.0.2/MSDK/cloud/alicloud/src/protocol/coap/local\CoAPResource.c ****                 node->permission = permission;
 862              		.loc 1 160 30 is_stmt 0
 863 01e8 23265401 		sw	s5,12(s0)
 161:C:/Users/stapi/OneDrive/Desktop/GD32VW553/V1_MQTT_OK/GD32VW55X_Wifi_BLE_SDK/GD32VW55x_RELEASE_V1.0.2/MSDK/cloud/alicloud/src/protocol/coap/local\CoAPResource.c ****                 COAP_INFO("The resource %s already exist, re-write it", path);
 864              		.loc 1 161 17 is_stmt 1
 161:C:/Users/stapi/OneDrive/Desktop/GD32VW553/V1_MQTT_OK/GD32VW55X_Wifi_BLE_SDK/GD32VW55x_RELEASE_V1.0.2/MSDK/cloud/alicloud/src/protocol/coap/local\CoAPResource.c ****                 COAP_INFO("The resource %s already exist, re-write it", path);
 865              		.loc 1 161 34 is_stmt 0
 866 01ec 23103401 		sh	s3,0(s0)
 162:C:/Users/stapi/OneDrive/Desktop/GD32VW553/V1_MQTT_OK/GD32VW55X_Wifi_BLE_SDK/GD32VW55x_RELEASE_V1.0.2/MSDK/cloud/alicloud/src/protocol/coap/local\CoAPResource.c ****                 break;
 867              		.loc 1 162 17 is_stmt 1
 162:C:/Users/stapi/OneDrive/Desktop/GD32VW553/V1_MQTT_OK/GD32VW55X_Wifi_BLE_SDK/GD32VW55x_RELEASE_V1.0.2/MSDK/cloud/alicloud/src/protocol/coap/local\CoAPResource.c ****                 break;
 868              		.loc 1 162 17
 869 01f0 97000000 		call	HAL_Printf
 869      E7800000 
 870              	.LVL85:
 162:C:/Users/stapi/OneDrive/Desktop/GD32VW553/V1_MQTT_OK/GD32VW55X_Wifi_BLE_SDK/GD32VW55x_RELEASE_V1.0.2/MSDK/cloud/alicloud/src/protocol/coap/local\CoAPResource.c ****                 break;
 871              		.loc 1 162 17
 872 01f8 37050000 		lui	a0,%hi(.LC10)
 873 01fc 13050500 		addi	a0,a0,%lo(.LC10)
 874 0200 CA85     		mv	a1,s2
 875 0202 97000000 		call	HAL_Printf
 875      E7800000 
 876              	.LVL86:
 162:C:/Users/stapi/OneDrive/Desktop/GD32VW553/V1_MQTT_OK/GD32VW55X_Wifi_BLE_SDK/GD32VW55x_RELEASE_V1.0.2/MSDK/cloud/alicloud/src/protocol/coap/local\CoAPResource.c ****                 break;
 877              		.loc 1 162 17
 878 020a 13850B00 		addi	a0,s7,%lo(.LC5)
 879              	.LVL87:
 880              	.L43:
 176:C:/Users/stapi/OneDrive/Desktop/GD32VW553/V1_MQTT_OK/GD32VW55X_Wifi_BLE_SDK/GD32VW55x_RELEASE_V1.0.2/MSDK/cloud/alicloud/src/protocol/coap/local\CoAPResource.c ****         }
 881              		.loc 1 176 13 is_stmt 0
 882 020e 97000000 		call	HAL_Printf
 882      E7800000 
 883              	.LVL88:
 884 0216 BDB7     		j	.L38
 885              	.LVL89:
 886              	.L36:
 153:C:/Users/stapi/OneDrive/Desktop/GD32VW553/V1_MQTT_OK/GD32VW55X_Wifi_BLE_SDK/GD32VW55x_RELEASE_V1.0.2/MSDK/cloud/alicloud/src/protocol/coap/local\CoAPResource.c ****             if (0 == strncmp((char *)path, node->filter_path, strlen(path))) {
 887              		.loc 1 153 16 is_stmt 1 discriminator 1
 153:C:/Users/stapi/OneDrive/Desktop/GD32VW553/V1_MQTT_OK/GD32VW55X_Wifi_BLE_SDK/GD32VW55x_RELEASE_V1.0.2/MSDK/cloud/alicloud/src/protocol/coap/local\CoAPResource.c ****             if (0 == strncmp((char *)path, node->filter_path, strlen(path))) {
 888              		.loc 1 153 39 is_stmt 0 discriminator 1
 889 0218 639F9701 		bne	a5,s9,.L37
 154:C:/Users/stapi/OneDrive/Desktop/GD32VW553/V1_MQTT_OK/GD32VW55X_Wifi_BLE_SDK/GD32VW55x_RELEASE_V1.0.2/MSDK/cloud/alicloud/src/protocol/coap/local\CoAPResource.c ****                 /*Alread exist, re-write it*/
 890              		.loc 1 154 13 is_stmt 1
 154:C:/Users/stapi/OneDrive/Desktop/GD32VW553/V1_MQTT_OK/GD32VW55X_Wifi_BLE_SDK/GD32VW55x_RELEASE_V1.0.2/MSDK/cloud/alicloud/src/protocol/coap/local\CoAPResource.c ****                 /*Alread exist, re-write it*/
 891              		.loc 1 154 22 is_stmt 0
 892 021c 4A85     		mv	a0,s2
 893 021e 97000000 		call	strlen
 893      E7800000 
 894              	.LVL90:
 895 0226 0C50     		lw	a1,32(s0)
 896 0228 2A86     		mv	a2,a0
 897 022a 4A85     		mv	a0,s2
 898 022c 97000000 		call	strncmp
 898      E7800000 
 899              	.LVL91:
 900 0234 9DBF     		j	.L46
 901              	.L37:
 140:C:/Users/stapi/OneDrive/Desktop/GD32VW553/V1_MQTT_OK/GD32VW55X_Wifi_BLE_SDK/GD32VW55x_RELEASE_V1.0.2/MSDK/cloud/alicloud/src/protocol/coap/local\CoAPResource.c ****         if (type == PATH_NORMAL && node->path_type == PATH_NORMAL) {
 902              		.loc 1 140 5 is_stmt 1 discriminator 2
 903 0236 4048     		lw	s0,20(s0)
 904              	.LVL92:
 905 0238 4114     		addi	s0,s0,-16
 906              	.LVL93:
 907 023a C9B5     		j	.L35
 908              	.LVL94:
 909              	.L40:
 176:C:/Users/stapi/OneDrive/Desktop/GD32VW553/V1_MQTT_OK/GD32VW55X_Wifi_BLE_SDK/GD32VW55x_RELEASE_V1.0.2/MSDK/cloud/alicloud/src/protocol/coap/local\CoAPResource.c ****         }
 910              		.loc 1 176 13
 176:C:/Users/stapi/OneDrive/Desktop/GD32VW553/V1_MQTT_OK/GD32VW55X_Wifi_BLE_SDK/GD32VW55x_RELEASE_V1.0.2/MSDK/cloud/alicloud/src/protocol/coap/local\CoAPResource.c ****         }
 911              		.loc 1 176 13
 912 023c 37050000 		lui	a0,%hi(.LC2)
 913 0240 13050500 		addi	a0,a0,%lo(.LC2)
 914 0244 97000000 		call	HAL_Printf
 914      E7800000 
 915              	.LVL95:
 176:C:/Users/stapi/OneDrive/Desktop/GD32VW553/V1_MQTT_OK/GD32VW55X_Wifi_BLE_SDK/GD32VW55x_RELEASE_V1.0.2/MSDK/cloud/alicloud/src/protocol/coap/local\CoAPResource.c ****         }
 916              		.loc 1 176 13
 917 024c 37050000 		lui	a0,%hi(.LC13)
 918 0250 13050500 		addi	a0,a0,%lo(.LC13)
 919 0254 97000000 		call	HAL_Printf
 919      E7800000 
 920              	.LVL96:
 176:C:/Users/stapi/OneDrive/Desktop/GD32VW553/V1_MQTT_OK/GD32VW55X_Wifi_BLE_SDK/GD32VW55x_RELEASE_V1.0.2/MSDK/cloud/alicloud/src/protocol/coap/local\CoAPResource.c ****         }
 921              		.loc 1 176 13
 922 025c 37050000 		lui	a0,%hi(.LC5)
 923 0260 13050500 		addi	a0,a0,%lo(.LC5)
 924 0264 6DB7     		j	.L43
 925              		.cfi_endproc
 926              	.LFE24:
 928              		.section	.text.CoAPResource_topicFilterMatch,"ax",@progbits
 929              		.align	1
 930              		.globl	CoAPResource_topicFilterMatch
 932              	CoAPResource_topicFilterMatch:
 933              	.LFB25:
 184:C:/Users/stapi/OneDrive/Desktop/GD32VW553/V1_MQTT_OK/GD32VW55X_Wifi_BLE_SDK/GD32VW55x_RELEASE_V1.0.2/MSDK/cloud/alicloud/src/protocol/coap/local\CoAPResource.c **** 
 185:C:/Users/stapi/OneDrive/Desktop/GD32VW553/V1_MQTT_OK/GD32VW55X_Wifi_BLE_SDK/GD32VW55x_RELEASE_V1.0.2/MSDK/cloud/alicloud/src/protocol/coap/local\CoAPResource.c **** #ifdef DEVICE_MODEL_GATEWAY 
 186:C:/Users/stapi/OneDrive/Desktop/GD32VW553/V1_MQTT_OK/GD32VW55X_Wifi_BLE_SDK/GD32VW55x_RELEASE_V1.0.2/MSDK/cloud/alicloud/src/protocol/coap/local\CoAPResource.c **** int CoAPResource_unregister(CoAPContext *context, const char *path)
 187:C:/Users/stapi/OneDrive/Desktop/GD32VW553/V1_MQTT_OK/GD32VW55X_Wifi_BLE_SDK/GD32VW55x_RELEASE_V1.0.2/MSDK/cloud/alicloud/src/protocol/coap/local\CoAPResource.c **** {
 188:C:/Users/stapi/OneDrive/Desktop/GD32VW553/V1_MQTT_OK/GD32VW55X_Wifi_BLE_SDK/GD32VW55x_RELEASE_V1.0.2/MSDK/cloud/alicloud/src/protocol/coap/local\CoAPResource.c ****     char path_calc[COAP_PATH_DEFAULT_SUM_LEN] = {0};
 189:C:/Users/stapi/OneDrive/Desktop/GD32VW553/V1_MQTT_OK/GD32VW55X_Wifi_BLE_SDK/GD32VW55x_RELEASE_V1.0.2/MSDK/cloud/alicloud/src/protocol/coap/local\CoAPResource.c ****     CoAPResource *node = NULL;
 190:C:/Users/stapi/OneDrive/Desktop/GD32VW553/V1_MQTT_OK/GD32VW55X_Wifi_BLE_SDK/GD32VW55x_RELEASE_V1.0.2/MSDK/cloud/alicloud/src/protocol/coap/local\CoAPResource.c ****     CoAPIntContext *ctx = (CoAPIntContext *)context;
 191:C:/Users/stapi/OneDrive/Desktop/GD32VW553/V1_MQTT_OK/GD32VW55X_Wifi_BLE_SDK/GD32VW55x_RELEASE_V1.0.2/MSDK/cloud/alicloud/src/protocol/coap/local\CoAPResource.c ****     path_type_t type = PATH_NORMAL;
 192:C:/Users/stapi/OneDrive/Desktop/GD32VW553/V1_MQTT_OK/GD32VW55X_Wifi_BLE_SDK/GD32VW55x_RELEASE_V1.0.2/MSDK/cloud/alicloud/src/protocol/coap/local\CoAPResource.c ****     ARGUMENT_SANITY_CHECK(context, FAIL_RETURN);
 193:C:/Users/stapi/OneDrive/Desktop/GD32VW553/V1_MQTT_OK/GD32VW55X_Wifi_BLE_SDK/GD32VW55x_RELEASE_V1.0.2/MSDK/cloud/alicloud/src/protocol/coap/local\CoAPResource.c **** 
 194:C:/Users/stapi/OneDrive/Desktop/GD32VW553/V1_MQTT_OK/GD32VW55X_Wifi_BLE_SDK/GD32VW55x_RELEASE_V1.0.2/MSDK/cloud/alicloud/src/protocol/coap/local\CoAPResource.c ****     HAL_MutexLock(ctx->resource.list_mutex);
 195:C:/Users/stapi/OneDrive/Desktop/GD32VW553/V1_MQTT_OK/GD32VW55X_Wifi_BLE_SDK/GD32VW55x_RELEASE_V1.0.2/MSDK/cloud/alicloud/src/protocol/coap/local\CoAPResource.c ****     if (ctx->resource.count >= ctx->resource.maxcount) {
 196:C:/Users/stapi/OneDrive/Desktop/GD32VW553/V1_MQTT_OK/GD32VW55X_Wifi_BLE_SDK/GD32VW55x_RELEASE_V1.0.2/MSDK/cloud/alicloud/src/protocol/coap/local\CoAPResource.c ****         HAL_MutexUnlock(ctx->resource.list_mutex);
 197:C:/Users/stapi/OneDrive/Desktop/GD32VW553/V1_MQTT_OK/GD32VW55X_Wifi_BLE_SDK/GD32VW55x_RELEASE_V1.0.2/MSDK/cloud/alicloud/src/protocol/coap/local\CoAPResource.c ****         return COAP_ERROR_DATA_SIZE;
 198:C:/Users/stapi/OneDrive/Desktop/GD32VW553/V1_MQTT_OK/GD32VW55X_Wifi_BLE_SDK/GD32VW55x_RELEASE_V1.0.2/MSDK/cloud/alicloud/src/protocol/coap/local\CoAPResource.c ****     }
 199:C:/Users/stapi/OneDrive/Desktop/GD32VW553/V1_MQTT_OK/GD32VW55X_Wifi_BLE_SDK/GD32VW55x_RELEASE_V1.0.2/MSDK/cloud/alicloud/src/protocol/coap/local\CoAPResource.c ****     // COAP_INFO("CoAPResource_unregister");
 200:C:/Users/stapi/OneDrive/Desktop/GD32VW553/V1_MQTT_OK/GD32VW55X_Wifi_BLE_SDK/GD32VW55x_RELEASE_V1.0.2/MSDK/cloud/alicloud/src/protocol/coap/local\CoAPResource.c **** 
 201:C:/Users/stapi/OneDrive/Desktop/GD32VW553/V1_MQTT_OK/GD32VW55X_Wifi_BLE_SDK/GD32VW55x_RELEASE_V1.0.2/MSDK/cloud/alicloud/src/protocol/coap/local\CoAPResource.c ****     if (strstr(path, "/#") != NULL) {
 202:C:/Users/stapi/OneDrive/Desktop/GD32VW553/V1_MQTT_OK/GD32VW55X_Wifi_BLE_SDK/GD32VW55x_RELEASE_V1.0.2/MSDK/cloud/alicloud/src/protocol/coap/local\CoAPResource.c ****         type = PATH_FILTER;
 203:C:/Users/stapi/OneDrive/Desktop/GD32VW553/V1_MQTT_OK/GD32VW55X_Wifi_BLE_SDK/GD32VW55x_RELEASE_V1.0.2/MSDK/cloud/alicloud/src/protocol/coap/local\CoAPResource.c ****     } else {
 204:C:/Users/stapi/OneDrive/Desktop/GD32VW553/V1_MQTT_OK/GD32VW55X_Wifi_BLE_SDK/GD32VW55x_RELEASE_V1.0.2/MSDK/cloud/alicloud/src/protocol/coap/local\CoAPResource.c ****         CoAPPathMD5_sum(path, strlen(path), path_calc, COAP_PATH_DEFAULT_SUM_LEN);
 205:C:/Users/stapi/OneDrive/Desktop/GD32VW553/V1_MQTT_OK/GD32VW55X_Wifi_BLE_SDK/GD32VW55x_RELEASE_V1.0.2/MSDK/cloud/alicloud/src/protocol/coap/local\CoAPResource.c ****     }
 206:C:/Users/stapi/OneDrive/Desktop/GD32VW553/V1_MQTT_OK/GD32VW55X_Wifi_BLE_SDK/GD32VW55x_RELEASE_V1.0.2/MSDK/cloud/alicloud/src/protocol/coap/local\CoAPResource.c **** 
 207:C:/Users/stapi/OneDrive/Desktop/GD32VW553/V1_MQTT_OK/GD32VW55X_Wifi_BLE_SDK/GD32VW55x_RELEASE_V1.0.2/MSDK/cloud/alicloud/src/protocol/coap/local\CoAPResource.c ****     list_for_each_entry(node, &ctx->resource.list, reslist, CoAPResource) {
 208:C:/Users/stapi/OneDrive/Desktop/GD32VW553/V1_MQTT_OK/GD32VW55X_Wifi_BLE_SDK/GD32VW55x_RELEASE_V1.0.2/MSDK/cloud/alicloud/src/protocol/coap/local\CoAPResource.c ****         if (type == PATH_NORMAL && node->path_type == PATH_NORMAL) {
 209:C:/Users/stapi/OneDrive/Desktop/GD32VW553/V1_MQTT_OK/GD32VW55X_Wifi_BLE_SDK/GD32VW55x_RELEASE_V1.0.2/MSDK/cloud/alicloud/src/protocol/coap/local\CoAPResource.c ****             if (0 == memcmp(path_calc, node->path, COAP_PATH_DEFAULT_SUM_LEN)) {
 210:C:/Users/stapi/OneDrive/Desktop/GD32VW553/V1_MQTT_OK/GD32VW55X_Wifi_BLE_SDK/GD32VW55x_RELEASE_V1.0.2/MSDK/cloud/alicloud/src/protocol/coap/local\CoAPResource.c ****                 list_del(&node->reslist);
 211:C:/Users/stapi/OneDrive/Desktop/GD32VW553/V1_MQTT_OK/GD32VW55X_Wifi_BLE_SDK/GD32VW55x_RELEASE_V1.0.2/MSDK/cloud/alicloud/src/protocol/coap/local\CoAPResource.c ****                 coap_free(node);
 212:C:/Users/stapi/OneDrive/Desktop/GD32VW553/V1_MQTT_OK/GD32VW55X_Wifi_BLE_SDK/GD32VW55x_RELEASE_V1.0.2/MSDK/cloud/alicloud/src/protocol/coap/local\CoAPResource.c ****                 // COAP_INFO("del %s",path);
 213:C:/Users/stapi/OneDrive/Desktop/GD32VW553/V1_MQTT_OK/GD32VW55X_Wifi_BLE_SDK/GD32VW55x_RELEASE_V1.0.2/MSDK/cloud/alicloud/src/protocol/coap/local\CoAPResource.c ****                 ctx->resource.count--;
 214:C:/Users/stapi/OneDrive/Desktop/GD32VW553/V1_MQTT_OK/GD32VW55X_Wifi_BLE_SDK/GD32VW55x_RELEASE_V1.0.2/MSDK/cloud/alicloud/src/protocol/coap/local\CoAPResource.c ****                 break;
 215:C:/Users/stapi/OneDrive/Desktop/GD32VW553/V1_MQTT_OK/GD32VW55X_Wifi_BLE_SDK/GD32VW55x_RELEASE_V1.0.2/MSDK/cloud/alicloud/src/protocol/coap/local\CoAPResource.c ****             }
 216:C:/Users/stapi/OneDrive/Desktop/GD32VW553/V1_MQTT_OK/GD32VW55X_Wifi_BLE_SDK/GD32VW55x_RELEASE_V1.0.2/MSDK/cloud/alicloud/src/protocol/coap/local\CoAPResource.c ****         } else if(type == PATH_FILTER && node->path_type == PATH_FILTER) {
 217:C:/Users/stapi/OneDrive/Desktop/GD32VW553/V1_MQTT_OK/GD32VW55X_Wifi_BLE_SDK/GD32VW55x_RELEASE_V1.0.2/MSDK/cloud/alicloud/src/protocol/coap/local\CoAPResource.c ****             if (0 == strncmp((char *)path, node->filter_path, strlen(path))) {
 218:C:/Users/stapi/OneDrive/Desktop/GD32VW553/V1_MQTT_OK/GD32VW55X_Wifi_BLE_SDK/GD32VW55x_RELEASE_V1.0.2/MSDK/cloud/alicloud/src/protocol/coap/local\CoAPResource.c ****                 list_del(&node->reslist);
 219:C:/Users/stapi/OneDrive/Desktop/GD32VW553/V1_MQTT_OK/GD32VW55X_Wifi_BLE_SDK/GD32VW55x_RELEASE_V1.0.2/MSDK/cloud/alicloud/src/protocol/coap/local\CoAPResource.c ****                 coap_free(node->filter_path);
 220:C:/Users/stapi/OneDrive/Desktop/GD32VW553/V1_MQTT_OK/GD32VW55X_Wifi_BLE_SDK/GD32VW55x_RELEASE_V1.0.2/MSDK/cloud/alicloud/src/protocol/coap/local\CoAPResource.c ****                 coap_free(node);
 221:C:/Users/stapi/OneDrive/Desktop/GD32VW553/V1_MQTT_OK/GD32VW55X_Wifi_BLE_SDK/GD32VW55x_RELEASE_V1.0.2/MSDK/cloud/alicloud/src/protocol/coap/local\CoAPResource.c ****                 // COAP_INFO("del %s",path);
 222:C:/Users/stapi/OneDrive/Desktop/GD32VW553/V1_MQTT_OK/GD32VW55X_Wifi_BLE_SDK/GD32VW55x_RELEASE_V1.0.2/MSDK/cloud/alicloud/src/protocol/coap/local\CoAPResource.c ****                 ctx->resource.count--;
 223:C:/Users/stapi/OneDrive/Desktop/GD32VW553/V1_MQTT_OK/GD32VW55X_Wifi_BLE_SDK/GD32VW55x_RELEASE_V1.0.2/MSDK/cloud/alicloud/src/protocol/coap/local\CoAPResource.c ****                 break;
 224:C:/Users/stapi/OneDrive/Desktop/GD32VW553/V1_MQTT_OK/GD32VW55X_Wifi_BLE_SDK/GD32VW55x_RELEASE_V1.0.2/MSDK/cloud/alicloud/src/protocol/coap/local\CoAPResource.c ****             }
 225:C:/Users/stapi/OneDrive/Desktop/GD32VW553/V1_MQTT_OK/GD32VW55X_Wifi_BLE_SDK/GD32VW55x_RELEASE_V1.0.2/MSDK/cloud/alicloud/src/protocol/coap/local\CoAPResource.c ****         }
 226:C:/Users/stapi/OneDrive/Desktop/GD32VW553/V1_MQTT_OK/GD32VW55X_Wifi_BLE_SDK/GD32VW55x_RELEASE_V1.0.2/MSDK/cloud/alicloud/src/protocol/coap/local\CoAPResource.c ****     }
 227:C:/Users/stapi/OneDrive/Desktop/GD32VW553/V1_MQTT_OK/GD32VW55X_Wifi_BLE_SDK/GD32VW55x_RELEASE_V1.0.2/MSDK/cloud/alicloud/src/protocol/coap/local\CoAPResource.c ****     HAL_MutexUnlock(ctx->resource.list_mutex);
 228:C:/Users/stapi/OneDrive/Desktop/GD32VW553/V1_MQTT_OK/GD32VW55X_Wifi_BLE_SDK/GD32VW55x_RELEASE_V1.0.2/MSDK/cloud/alicloud/src/protocol/coap/local\CoAPResource.c ****     return COAP_ERROR_UNSUPPORTED;
 229:C:/Users/stapi/OneDrive/Desktop/GD32VW553/V1_MQTT_OK/GD32VW55X_Wifi_BLE_SDK/GD32VW55x_RELEASE_V1.0.2/MSDK/cloud/alicloud/src/protocol/coap/local\CoAPResource.c **** }
 230:C:/Users/stapi/OneDrive/Desktop/GD32VW553/V1_MQTT_OK/GD32VW55X_Wifi_BLE_SDK/GD32VW55x_RELEASE_V1.0.2/MSDK/cloud/alicloud/src/protocol/coap/local\CoAPResource.c **** #endif
 231:C:/Users/stapi/OneDrive/Desktop/GD32VW553/V1_MQTT_OK/GD32VW55X_Wifi_BLE_SDK/GD32VW55x_RELEASE_V1.0.2/MSDK/cloud/alicloud/src/protocol/coap/local\CoAPResource.c **** int CoAPResource_topicFilterMatch(const char *filter, const char *topic)
 232:C:/Users/stapi/OneDrive/Desktop/GD32VW553/V1_MQTT_OK/GD32VW55X_Wifi_BLE_SDK/GD32VW55x_RELEASE_V1.0.2/MSDK/cloud/alicloud/src/protocol/coap/local\CoAPResource.c **** {
 934              		.loc 1 232 1
 935              		.cfi_startproc
 936              	.LVL97:
 233:C:/Users/stapi/OneDrive/Desktop/GD32VW553/V1_MQTT_OK/GD32VW55X_Wifi_BLE_SDK/GD32VW55x_RELEASE_V1.0.2/MSDK/cloud/alicloud/src/protocol/coap/local\CoAPResource.c ****     if (filter == NULL || topic == NULL) {
 937              		.loc 1 233 5
 938              		.loc 1 233 8 is_stmt 0
 939 0000 2DC1     		beq	a0,zero,.L49
 232:C:/Users/stapi/OneDrive/Desktop/GD32VW553/V1_MQTT_OK/GD32VW55X_Wifi_BLE_SDK/GD32VW55x_RELEASE_V1.0.2/MSDK/cloud/alicloud/src/protocol/coap/local\CoAPResource.c ****     if (filter == NULL || topic == NULL) {
 940              		.loc 1 232 1 discriminator 1
 941 0002 17030000 		call	t0,__riscv_save_3
 941      E7020300 
 942              		.cfi_offset 18, -16
 943              		.cfi_offset 9, -12
 944              		.cfi_offset 8, -8
 945              		.cfi_offset 1, -4
 946              		.cfi_def_cfa_offset 16
 947 000a 2E84     		mv	s0,a1
 234:C:/Users/stapi/OneDrive/Desktop/GD32VW553/V1_MQTT_OK/GD32VW55X_Wifi_BLE_SDK/GD32VW55x_RELEASE_V1.0.2/MSDK/cloud/alicloud/src/protocol/coap/local\CoAPResource.c ****         return -1;
 948              		.loc 1 234 16 discriminator 1
 949 000c FD57     		li	a5,-1
 233:C:/Users/stapi/OneDrive/Desktop/GD32VW553/V1_MQTT_OK/GD32VW55X_Wifi_BLE_SDK/GD32VW55x_RELEASE_V1.0.2/MSDK/cloud/alicloud/src/protocol/coap/local\CoAPResource.c ****     if (filter == NULL || topic == NULL) {
 950              		.loc 1 233 24 discriminator 1
 951 000e A9C5     		beq	a1,zero,.L47
 952 0010 2A89     		mv	s2,a0
 235:C:/Users/stapi/OneDrive/Desktop/GD32VW553/V1_MQTT_OK/GD32VW55X_Wifi_BLE_SDK/GD32VW55x_RELEASE_V1.0.2/MSDK/cloud/alicloud/src/protocol/coap/local\CoAPResource.c ****     }
 236:C:/Users/stapi/OneDrive/Desktop/GD32VW553/V1_MQTT_OK/GD32VW55X_Wifi_BLE_SDK/GD32VW55x_RELEASE_V1.0.2/MSDK/cloud/alicloud/src/protocol/coap/local\CoAPResource.c ****     if (strncmp(filter, topic, strlen(filter) - 1) == 0) {
 953              		.loc 1 236 5 is_stmt 1
 954              		.loc 1 236 32 is_stmt 0
 955 0012 97000000 		call	strlen
 955      E7800000 
 956              	.LVL98:
 957              		.loc 1 236 9
 958 001a 9304F5FF 		addi	s1,a0,-1
 959 001e 2686     		mv	a2,s1
 960 0020 A285     		mv	a1,s0
 961 0022 4A85     		mv	a0,s2
 962 0024 97000000 		call	strncmp
 962      E7800000 
 963              	.LVL99:
 234:C:/Users/stapi/OneDrive/Desktop/GD32VW553/V1_MQTT_OK/GD32VW55X_Wifi_BLE_SDK/GD32VW55x_RELEASE_V1.0.2/MSDK/cloud/alicloud/src/protocol/coap/local\CoAPResource.c ****         return -1;
 964              		.loc 1 234 16
 965 002c FD57     		li	a5,-1
 966              		.loc 1 236 8
 967 002e 0DE5     		bne	a0,zero,.L47
 237:C:/Users/stapi/OneDrive/Desktop/GD32VW553/V1_MQTT_OK/GD32VW55X_Wifi_BLE_SDK/GD32VW55x_RELEASE_V1.0.2/MSDK/cloud/alicloud/src/protocol/coap/local\CoAPResource.c ****         if (strlen(topic) > strlen(filter) - 1) {
 968              		.loc 1 237 9 is_stmt 1
 969              		.loc 1 237 13 is_stmt 0
 970 0030 2285     		mv	a0,s0
 971 0032 97000000 		call	strlen
 971      E7800000 
 972              	.LVL100:
 234:C:/Users/stapi/OneDrive/Desktop/GD32VW553/V1_MQTT_OK/GD32VW55X_Wifi_BLE_SDK/GD32VW55x_RELEASE_V1.0.2/MSDK/cloud/alicloud/src/protocol/coap/local\CoAPResource.c ****         return -1;
 973              		.loc 1 234 16
 974 003a FD57     		li	a5,-1
 975              		.loc 1 237 12
 976 003c 63FEA400 		bgeu	s1,a0,.L47
 977              	.LBB49:
 238:C:/Users/stapi/OneDrive/Desktop/GD32VW553/V1_MQTT_OK/GD32VW55X_Wifi_BLE_SDK/GD32VW55x_RELEASE_V1.0.2/MSDK/cloud/alicloud/src/protocol/coap/local\CoAPResource.c ****             const char *more = topic + (strlen(filter) - 1);
 978              		.loc 1 238 13 is_stmt 1
 979              	.LVL101:
 239:C:/Users/stapi/OneDrive/Desktop/GD32VW553/V1_MQTT_OK/GD32VW55X_Wifi_BLE_SDK/GD32VW55x_RELEASE_V1.0.2/MSDK/cloud/alicloud/src/protocol/coap/local\CoAPResource.c ****             if (strstr(more, "/") == NULL) {
 980              		.loc 1 239 13
 981              		.loc 1 239 17 is_stmt 0
 982 0040 9305F002 		li	a1,47
 983 0044 33059400 		add	a0,s0,s1
 984              	.LVL102:
 985 0048 97000000 		call	strchr
 985      E7800000 
 986              	.LVL103:
 987              		.loc 1 239 16
 988 0050 B337A000 		snez	a5,a0
 989 0054 B307F040 		neg	a5,a5
 990              	.LVL104:
 991              	.L47:
 992              	.LBE49:
 240:C:/Users/stapi/OneDrive/Desktop/GD32VW553/V1_MQTT_OK/GD32VW55X_Wifi_BLE_SDK/GD32VW55x_RELEASE_V1.0.2/MSDK/cloud/alicloud/src/protocol/coap/local\CoAPResource.c ****                 return 0;
 241:C:/Users/stapi/OneDrive/Desktop/GD32VW553/V1_MQTT_OK/GD32VW55X_Wifi_BLE_SDK/GD32VW55x_RELEASE_V1.0.2/MSDK/cloud/alicloud/src/protocol/coap/local\CoAPResource.c ****             }
 242:C:/Users/stapi/OneDrive/Desktop/GD32VW553/V1_MQTT_OK/GD32VW55X_Wifi_BLE_SDK/GD32VW55x_RELEASE_V1.0.2/MSDK/cloud/alicloud/src/protocol/coap/local\CoAPResource.c ****         }
 243:C:/Users/stapi/OneDrive/Desktop/GD32VW553/V1_MQTT_OK/GD32VW55X_Wifi_BLE_SDK/GD32VW55x_RELEASE_V1.0.2/MSDK/cloud/alicloud/src/protocol/coap/local\CoAPResource.c ****     }
 244:C:/Users/stapi/OneDrive/Desktop/GD32VW553/V1_MQTT_OK/GD32VW55X_Wifi_BLE_SDK/GD32VW55x_RELEASE_V1.0.2/MSDK/cloud/alicloud/src/protocol/coap/local\CoAPResource.c ****     return -1;
 245:C:/Users/stapi/OneDrive/Desktop/GD32VW553/V1_MQTT_OK/GD32VW55X_Wifi_BLE_SDK/GD32VW55x_RELEASE_V1.0.2/MSDK/cloud/alicloud/src/protocol/coap/local\CoAPResource.c **** }
 993              		.loc 1 245 1
 994 0058 3E85     		mv	a0,a5
 995 005a 17030000 		tail	__riscv_restore_3
 995      67000300 
 996              		.cfi_restore 18
 997              		.cfi_restore 9
 998              		.cfi_restore 8
 999              		.cfi_restore 1
 1000              		.cfi_def_cfa_offset 0
 1001              	.LVL105:
 1002              	.L49:
 234:C:/Users/stapi/OneDrive/Desktop/GD32VW553/V1_MQTT_OK/GD32VW55X_Wifi_BLE_SDK/GD32VW55x_RELEASE_V1.0.2/MSDK/cloud/alicloud/src/protocol/coap/local\CoAPResource.c ****     }
 1003              		.loc 1 234 16
 1004 0062 FD57     		li	a5,-1
 1005              		.loc 1 245 1
 1006 0064 3E85     		mv	a0,a5
 1007              	.LVL106:
 1008 0066 8280     		ret
 1009              		.cfi_endproc
 1010              	.LFE25:
 1012              		.section	.rodata.CoAPResourceByPath_get.str1.4,"aMS",@progbits,1
 1013              		.align	2
 1014              	.LC14:
 1015 0000 4E554C4C 		.string	"NULL == context || NULL == path"
 1015      203D3D20 
 1015      636F6E74 
 1015      65787420 
 1015      7C7C204E 
 1016              		.align	2
 1017              	.LC15:
 1018 0020 25730A00 		.string	"%s\n"
 1019              		.align	2
 1020              	.LC16:
 1021 0024 436F4150 		.string	"CoAPResourceByPath_get, context:%p\n"
 1021      5265736F 
 1021      75726365 
 1021      42795061 
 1021      74685F67 
 1022              		.align	2
 1023              	.LC17:
 1024 0048 466F756E 		.string	"Found the resource: %s"
 1024      64207468 
 1024      65207265 
 1024      736F7572 
 1024      63653A20 
 1025              		.section	.text.CoAPResourceByPath_get,"ax",@progbits
 1026              		.align	1
 1027              		.globl	CoAPResourceByPath_get
 1029              	CoAPResourceByPath_get:
 1030              	.LFB26:
 246:C:/Users/stapi/OneDrive/Desktop/GD32VW553/V1_MQTT_OK/GD32VW55X_Wifi_BLE_SDK/GD32VW55x_RELEASE_V1.0.2/MSDK/cloud/alicloud/src/protocol/coap/local\CoAPResource.c **** 
 247:C:/Users/stapi/OneDrive/Desktop/GD32VW553/V1_MQTT_OK/GD32VW55X_Wifi_BLE_SDK/GD32VW55x_RELEASE_V1.0.2/MSDK/cloud/alicloud/src/protocol/coap/local\CoAPResource.c **** CoAPResource *CoAPResourceByPath_get(CoAPContext *context, const char *path)
 248:C:/Users/stapi/OneDrive/Desktop/GD32VW553/V1_MQTT_OK/GD32VW55X_Wifi_BLE_SDK/GD32VW55x_RELEASE_V1.0.2/MSDK/cloud/alicloud/src/protocol/coap/local\CoAPResource.c **** {
 1031              		.loc 1 248 1 is_stmt 1
 1032              		.cfi_startproc
 1033              	.LVL107:
 1034 0000 17030000 		call	t0,__riscv_save_7
 1034      E7020300 
 1035              		.cfi_offset 22, -32
 1036              		.cfi_offset 21, -28
 1037              		.cfi_offset 20, -24
 1038              		.cfi_offset 19, -20
 1039              		.cfi_offset 18, -16
 1040              		.cfi_offset 9, -12
 1041              		.cfi_offset 8, -8
 1042              		.cfi_offset 1, -4
 1043              		.cfi_def_cfa_offset 32
 249:C:/Users/stapi/OneDrive/Desktop/GD32VW553/V1_MQTT_OK/GD32VW55X_Wifi_BLE_SDK/GD32VW55x_RELEASE_V1.0.2/MSDK/cloud/alicloud/src/protocol/coap/local\CoAPResource.c ****     char path_calc[COAP_PATH_DEFAULT_SUM_LEN] = {0};
 1044              		.loc 1 249 5
 248:C:/Users/stapi/OneDrive/Desktop/GD32VW553/V1_MQTT_OK/GD32VW55X_Wifi_BLE_SDK/GD32VW55x_RELEASE_V1.0.2/MSDK/cloud/alicloud/src/protocol/coap/local\CoAPResource.c ****     char path_calc[COAP_PATH_DEFAULT_SUM_LEN] = {0};
 1045              		.loc 1 248 1 is_stmt 0
 1046 0008 4111     		addi	sp,sp,-16
 1047              		.cfi_def_cfa_offset 48
 1048              		.loc 1 249 10
 1049 000a 02C4     		sw	zero,8(sp)
 1050 000c 23060100 		sb	zero,12(sp)
 250:C:/Users/stapi/OneDrive/Desktop/GD32VW553/V1_MQTT_OK/GD32VW55X_Wifi_BLE_SDK/GD32VW55x_RELEASE_V1.0.2/MSDK/cloud/alicloud/src/protocol/coap/local\CoAPResource.c ****     CoAPResource *node = NULL;
 1051              		.loc 1 250 5 is_stmt 1
 1052              	.LVL108:
 251:C:/Users/stapi/OneDrive/Desktop/GD32VW553/V1_MQTT_OK/GD32VW55X_Wifi_BLE_SDK/GD32VW55x_RELEASE_V1.0.2/MSDK/cloud/alicloud/src/protocol/coap/local\CoAPResource.c ****     CoAPIntContext *ctx = (CoAPIntContext *)context;
 1053              		.loc 1 251 5
 252:C:/Users/stapi/OneDrive/Desktop/GD32VW553/V1_MQTT_OK/GD32VW55X_Wifi_BLE_SDK/GD32VW55x_RELEASE_V1.0.2/MSDK/cloud/alicloud/src/protocol/coap/local\CoAPResource.c **** 
 253:C:/Users/stapi/OneDrive/Desktop/GD32VW553/V1_MQTT_OK/GD32VW55X_Wifi_BLE_SDK/GD32VW55x_RELEASE_V1.0.2/MSDK/cloud/alicloud/src/protocol/coap/local\CoAPResource.c ****     if (NULL == context || NULL == path) {
 1054              		.loc 1 253 5
 1055              		.loc 1 253 8 is_stmt 0
 1056 0010 19C1     		beq	a0,zero,.L58
 1057 0012 2E89     		mv	s2,a1
 1058              		.loc 1 253 25 discriminator 1
 1059 0014 9DED     		bne	a1,zero,.L59
 1060              	.L58:
 254:C:/Users/stapi/OneDrive/Desktop/GD32VW553/V1_MQTT_OK/GD32VW55X_Wifi_BLE_SDK/GD32VW55x_RELEASE_V1.0.2/MSDK/cloud/alicloud/src/protocol/coap/local\CoAPResource.c ****         COAP_INFO("%s\n", "NULL == context || NULL == path");
 1061              		.loc 1 254 9 is_stmt 1
 1062              		.loc 1 254 9
 1063 0016 37050000 		lui	a0,%hi(.LC6)
 1064              	.LVL109:
 1065 001a 13050500 		addi	a0,a0,%lo(.LC6)
 1066 001e 97000000 		call	HAL_Printf
 1066      E7800000 
 1067              	.LVL110:
 1068              		.loc 1 254 9
 1069 0026 B7050000 		lui	a1,%hi(.LC14)
 1070 002a 37050000 		lui	a0,%hi(.LC15)
 1071 002e 13050500 		addi	a0,a0,%lo(.LC15)
 1072 0032 93850500 		addi	a1,a1,%lo(.LC14)
 1073 0036 97000000 		call	HAL_Printf
 1073      E7800000 
 1074              	.LVL111:
 1075              		.loc 1 254 9
 1076 003e 37050000 		lui	a0,%hi(.LC5)
 1077 0042 13050500 		addi	a0,a0,%lo(.LC5)
 1078 0046 97000000 		call	HAL_Printf
 1078      E7800000 
 1079              	.LVL112:
 1080              		.loc 1 254 9
 255:C:/Users/stapi/OneDrive/Desktop/GD32VW553/V1_MQTT_OK/GD32VW55X_Wifi_BLE_SDK/GD32VW55x_RELEASE_V1.0.2/MSDK/cloud/alicloud/src/protocol/coap/local\CoAPResource.c ****         return NULL;
 1081              		.loc 1 255 9
 1082              	.L76:
 256:C:/Users/stapi/OneDrive/Desktop/GD32VW553/V1_MQTT_OK/GD32VW55X_Wifi_BLE_SDK/GD32VW55x_RELEASE_V1.0.2/MSDK/cloud/alicloud/src/protocol/coap/local\CoAPResource.c ****     }
 257:C:/Users/stapi/OneDrive/Desktop/GD32VW553/V1_MQTT_OK/GD32VW55X_Wifi_BLE_SDK/GD32VW55x_RELEASE_V1.0.2/MSDK/cloud/alicloud/src/protocol/coap/local\CoAPResource.c ****     COAP_FLOW("CoAPResourceByPath_get, context:%p\n", ctx);
 258:C:/Users/stapi/OneDrive/Desktop/GD32VW553/V1_MQTT_OK/GD32VW55X_Wifi_BLE_SDK/GD32VW55x_RELEASE_V1.0.2/MSDK/cloud/alicloud/src/protocol/coap/local\CoAPResource.c **** 
 259:C:/Users/stapi/OneDrive/Desktop/GD32VW553/V1_MQTT_OK/GD32VW55X_Wifi_BLE_SDK/GD32VW55x_RELEASE_V1.0.2/MSDK/cloud/alicloud/src/protocol/coap/local\CoAPResource.c ****     CoAPPathMD5_sum(path, strlen(path), path_calc, COAP_PATH_DEFAULT_SUM_LEN);
 260:C:/Users/stapi/OneDrive/Desktop/GD32VW553/V1_MQTT_OK/GD32VW55X_Wifi_BLE_SDK/GD32VW55x_RELEASE_V1.0.2/MSDK/cloud/alicloud/src/protocol/coap/local\CoAPResource.c **** 
 261:C:/Users/stapi/OneDrive/Desktop/GD32VW553/V1_MQTT_OK/GD32VW55X_Wifi_BLE_SDK/GD32VW55x_RELEASE_V1.0.2/MSDK/cloud/alicloud/src/protocol/coap/local\CoAPResource.c ****     HAL_MutexLock(ctx->resource.list_mutex);
 262:C:/Users/stapi/OneDrive/Desktop/GD32VW553/V1_MQTT_OK/GD32VW55X_Wifi_BLE_SDK/GD32VW55x_RELEASE_V1.0.2/MSDK/cloud/alicloud/src/protocol/coap/local\CoAPResource.c ****     list_for_each_entry(node, &ctx->resource.list, reslist, CoAPResource) {
 263:C:/Users/stapi/OneDrive/Desktop/GD32VW553/V1_MQTT_OK/GD32VW55X_Wifi_BLE_SDK/GD32VW55x_RELEASE_V1.0.2/MSDK/cloud/alicloud/src/protocol/coap/local\CoAPResource.c ****         if (node->path == NULL) {
 264:C:/Users/stapi/OneDrive/Desktop/GD32VW553/V1_MQTT_OK/GD32VW55X_Wifi_BLE_SDK/GD32VW55x_RELEASE_V1.0.2/MSDK/cloud/alicloud/src/protocol/coap/local\CoAPResource.c ****             COAP_ERR("node->path is NULL");
 265:C:/Users/stapi/OneDrive/Desktop/GD32VW553/V1_MQTT_OK/GD32VW55X_Wifi_BLE_SDK/GD32VW55x_RELEASE_V1.0.2/MSDK/cloud/alicloud/src/protocol/coap/local\CoAPResource.c ****             continue;
 266:C:/Users/stapi/OneDrive/Desktop/GD32VW553/V1_MQTT_OK/GD32VW55X_Wifi_BLE_SDK/GD32VW55x_RELEASE_V1.0.2/MSDK/cloud/alicloud/src/protocol/coap/local\CoAPResource.c ****         }
 267:C:/Users/stapi/OneDrive/Desktop/GD32VW553/V1_MQTT_OK/GD32VW55X_Wifi_BLE_SDK/GD32VW55x_RELEASE_V1.0.2/MSDK/cloud/alicloud/src/protocol/coap/local\CoAPResource.c ****         if (0 == memcmp(path_calc, node->path, COAP_PATH_DEFAULT_SUM_LEN)) {
 268:C:/Users/stapi/OneDrive/Desktop/GD32VW553/V1_MQTT_OK/GD32VW55X_Wifi_BLE_SDK/GD32VW55x_RELEASE_V1.0.2/MSDK/cloud/alicloud/src/protocol/coap/local\CoAPResource.c ****             HAL_MutexUnlock(ctx->resource.list_mutex);
 269:C:/Users/stapi/OneDrive/Desktop/GD32VW553/V1_MQTT_OK/GD32VW55X_Wifi_BLE_SDK/GD32VW55x_RELEASE_V1.0.2/MSDK/cloud/alicloud/src/protocol/coap/local\CoAPResource.c ****             COAP_DEBUG("Found the resource: %s", path);
 270:C:/Users/stapi/OneDrive/Desktop/GD32VW553/V1_MQTT_OK/GD32VW55X_Wifi_BLE_SDK/GD32VW55x_RELEASE_V1.0.2/MSDK/cloud/alicloud/src/protocol/coap/local\CoAPResource.c ****             return node;
 271:C:/Users/stapi/OneDrive/Desktop/GD32VW553/V1_MQTT_OK/GD32VW55X_Wifi_BLE_SDK/GD32VW55x_RELEASE_V1.0.2/MSDK/cloud/alicloud/src/protocol/coap/local\CoAPResource.c ****         }
 272:C:/Users/stapi/OneDrive/Desktop/GD32VW553/V1_MQTT_OK/GD32VW55X_Wifi_BLE_SDK/GD32VW55x_RELEASE_V1.0.2/MSDK/cloud/alicloud/src/protocol/coap/local\CoAPResource.c ****         if (node->filter_path == NULL) {
 273:C:/Users/stapi/OneDrive/Desktop/GD32VW553/V1_MQTT_OK/GD32VW55X_Wifi_BLE_SDK/GD32VW55x_RELEASE_V1.0.2/MSDK/cloud/alicloud/src/protocol/coap/local\CoAPResource.c ****             //COAP_DEBUG("node->filter_path is NULL");
 274:C:/Users/stapi/OneDrive/Desktop/GD32VW553/V1_MQTT_OK/GD32VW55X_Wifi_BLE_SDK/GD32VW55x_RELEASE_V1.0.2/MSDK/cloud/alicloud/src/protocol/coap/local\CoAPResource.c ****             continue;
 275:C:/Users/stapi/OneDrive/Desktop/GD32VW553/V1_MQTT_OK/GD32VW55X_Wifi_BLE_SDK/GD32VW55x_RELEASE_V1.0.2/MSDK/cloud/alicloud/src/protocol/coap/local\CoAPResource.c ****         }
 276:C:/Users/stapi/OneDrive/Desktop/GD32VW553/V1_MQTT_OK/GD32VW55X_Wifi_BLE_SDK/GD32VW55x_RELEASE_V1.0.2/MSDK/cloud/alicloud/src/protocol/coap/local\CoAPResource.c ****         if (node->path_type == PATH_FILTER && strlen(node->filter_path) > 0) {
 277:C:/Users/stapi/OneDrive/Desktop/GD32VW553/V1_MQTT_OK/GD32VW55X_Wifi_BLE_SDK/GD32VW55x_RELEASE_V1.0.2/MSDK/cloud/alicloud/src/protocol/coap/local\CoAPResource.c ****             if (CoAPResource_topicFilterMatch(node->filter_path, path) == 0) {
 278:C:/Users/stapi/OneDrive/Desktop/GD32VW553/V1_MQTT_OK/GD32VW55X_Wifi_BLE_SDK/GD32VW55x_RELEASE_V1.0.2/MSDK/cloud/alicloud/src/protocol/coap/local\CoAPResource.c ****                 HAL_MutexUnlock(ctx->resource.list_mutex);
 279:C:/Users/stapi/OneDrive/Desktop/GD32VW553/V1_MQTT_OK/GD32VW55X_Wifi_BLE_SDK/GD32VW55x_RELEASE_V1.0.2/MSDK/cloud/alicloud/src/protocol/coap/local\CoAPResource.c ****                 COAP_DEBUG("Found the resource: %s", path);
 280:C:/Users/stapi/OneDrive/Desktop/GD32VW553/V1_MQTT_OK/GD32VW55X_Wifi_BLE_SDK/GD32VW55x_RELEASE_V1.0.2/MSDK/cloud/alicloud/src/protocol/coap/local\CoAPResource.c ****                 return node;
 281:C:/Users/stapi/OneDrive/Desktop/GD32VW553/V1_MQTT_OK/GD32VW55X_Wifi_BLE_SDK/GD32VW55x_RELEASE_V1.0.2/MSDK/cloud/alicloud/src/protocol/coap/local\CoAPResource.c ****             }
 282:C:/Users/stapi/OneDrive/Desktop/GD32VW553/V1_MQTT_OK/GD32VW55X_Wifi_BLE_SDK/GD32VW55x_RELEASE_V1.0.2/MSDK/cloud/alicloud/src/protocol/coap/local\CoAPResource.c ****         }
 283:C:/Users/stapi/OneDrive/Desktop/GD32VW553/V1_MQTT_OK/GD32VW55X_Wifi_BLE_SDK/GD32VW55x_RELEASE_V1.0.2/MSDK/cloud/alicloud/src/protocol/coap/local\CoAPResource.c ****     }
 284:C:/Users/stapi/OneDrive/Desktop/GD32VW553/V1_MQTT_OK/GD32VW55X_Wifi_BLE_SDK/GD32VW55x_RELEASE_V1.0.2/MSDK/cloud/alicloud/src/protocol/coap/local\CoAPResource.c ****     HAL_MutexUnlock(ctx->resource.list_mutex);
 285:C:/Users/stapi/OneDrive/Desktop/GD32VW553/V1_MQTT_OK/GD32VW55X_Wifi_BLE_SDK/GD32VW55x_RELEASE_V1.0.2/MSDK/cloud/alicloud/src/protocol/coap/local\CoAPResource.c **** 
 286:C:/Users/stapi/OneDrive/Desktop/GD32VW553/V1_MQTT_OK/GD32VW55X_Wifi_BLE_SDK/GD32VW55x_RELEASE_V1.0.2/MSDK/cloud/alicloud/src/protocol/coap/local\CoAPResource.c ****     return NULL;
 1083              		.loc 1 286 5
 1084              		.loc 1 286 12 is_stmt 0
 1085 004e 0144     		li	s0,0
 1086 0050 6DA0     		j	.L57
 1087              	.LVL113:
 1088              	.L59:
 257:C:/Users/stapi/OneDrive/Desktop/GD32VW553/V1_MQTT_OK/GD32VW55X_Wifi_BLE_SDK/GD32VW55x_RELEASE_V1.0.2/MSDK/cloud/alicloud/src/protocol/coap/local\CoAPResource.c **** 
 1089              		.loc 1 257 5
 1090 0052 B7090000 		lui	s3,%hi(.LANCHOR2)
 1091 0056 37070000 		lui	a4,%hi(.LC16)
 1092 005a 370A0000 		lui	s4,%hi(.LC1)
 1093 005e AA87     		mv	a5,a0
 1094 0060 AA84     		mv	s1,a0
 257:C:/Users/stapi/OneDrive/Desktop/GD32VW553/V1_MQTT_OK/GD32VW55X_Wifi_BLE_SDK/GD32VW55x_RELEASE_V1.0.2/MSDK/cloud/alicloud/src/protocol/coap/local\CoAPResource.c **** 
 1095              		.loc 1 257 5 is_stmt 1
 1096 0062 13070700 		addi	a4,a4,%lo(.LC16)
 1097 0066 9546     		li	a3,5
 1098 0068 13061010 		li	a2,257
 1099 006c 93850900 		addi	a1,s3,%lo(.LANCHOR2)
 1100              	.LVL114:
 1101 0070 13050A00 		addi	a0,s4,%lo(.LC1)
 1102              	.LVL115:
 1103 0074 97000000 		call	LITE_syslog
 1103      E7800000 
 1104              	.LVL116:
 259:C:/Users/stapi/OneDrive/Desktop/GD32VW553/V1_MQTT_OK/GD32VW55X_Wifi_BLE_SDK/GD32VW55x_RELEASE_V1.0.2/MSDK/cloud/alicloud/src/protocol/coap/local\CoAPResource.c **** 
 1105              		.loc 1 259 5
 259:C:/Users/stapi/OneDrive/Desktop/GD32VW553/V1_MQTT_OK/GD32VW55X_Wifi_BLE_SDK/GD32VW55x_RELEASE_V1.0.2/MSDK/cloud/alicloud/src/protocol/coap/local\CoAPResource.c **** 
 1106              		.loc 1 259 27 is_stmt 0
 1107 007c 4A85     		mv	a0,s2
 1108 007e 97000000 		call	strlen
 1108      E7800000 
 1109              	.LVL117:
 1110 0086 AA85     		mv	a1,a0
 259:C:/Users/stapi/OneDrive/Desktop/GD32VW553/V1_MQTT_OK/GD32VW55X_Wifi_BLE_SDK/GD32VW55x_RELEASE_V1.0.2/MSDK/cloud/alicloud/src/protocol/coap/local\CoAPResource.c **** 
 1111              		.loc 1 259 5
 1112 0088 9546     		li	a3,5
 1113 008a 3000     		addi	a2,sp,8
 1114 008c 4A85     		mv	a0,s2
 1115 008e 97000000 		call	CoAPPathMD5_sum
 1115      E7800000 
 1116              	.LVL118:
 261:C:/Users/stapi/OneDrive/Desktop/GD32VW553/V1_MQTT_OK/GD32VW55X_Wifi_BLE_SDK/GD32VW55x_RELEASE_V1.0.2/MSDK/cloud/alicloud/src/protocol/coap/local\CoAPResource.c ****     list_for_each_entry(node, &ctx->resource.list, reslist, CoAPResource) {
 1117              		.loc 1 261 5 is_stmt 1
 1118 0096 E840     		lw	a0,68(s1)
 262:C:/Users/stapi/OneDrive/Desktop/GD32VW553/V1_MQTT_OK/GD32VW55X_Wifi_BLE_SDK/GD32VW55x_RELEASE_V1.0.2/MSDK/cloud/alicloud/src/protocol/coap/local\CoAPResource.c ****         if (node->path == NULL) {
 1119              		.loc 1 262 5 is_stmt 0
 1120 0098 938A8404 		addi	s5,s1,72
 276:C:/Users/stapi/OneDrive/Desktop/GD32VW553/V1_MQTT_OK/GD32VW55X_Wifi_BLE_SDK/GD32VW55x_RELEASE_V1.0.2/MSDK/cloud/alicloud/src/protocol/coap/local\CoAPResource.c ****             if (CoAPResource_topicFilterMatch(node->filter_path, path) == 0) {
 1121              		.loc 1 276 12
 1122 009c 054B     		li	s6,1
 261:C:/Users/stapi/OneDrive/Desktop/GD32VW553/V1_MQTT_OK/GD32VW55X_Wifi_BLE_SDK/GD32VW55x_RELEASE_V1.0.2/MSDK/cloud/alicloud/src/protocol/coap/local\CoAPResource.c ****     list_for_each_entry(node, &ctx->resource.list, reslist, CoAPResource) {
 1123              		.loc 1 261 5
 1124 009e 97000000 		call	HAL_MutexLock
 1124      E7800000 
 1125              	.LVL119:
 262:C:/Users/stapi/OneDrive/Desktop/GD32VW553/V1_MQTT_OK/GD32VW55X_Wifi_BLE_SDK/GD32VW55x_RELEASE_V1.0.2/MSDK/cloud/alicloud/src/protocol/coap/local\CoAPResource.c ****         if (node->path == NULL) {
 1126              		.loc 1 262 5 is_stmt 1
 1127 00a6 E044     		lw	s0,76(s1)
 1128 00a8 4114     		addi	s0,s0,-16
 1129              	.LVL120:
 1130              	.L61:
 262:C:/Users/stapi/OneDrive/Desktop/GD32VW553/V1_MQTT_OK/GD32VW55X_Wifi_BLE_SDK/GD32VW55x_RELEASE_V1.0.2/MSDK/cloud/alicloud/src/protocol/coap/local\CoAPResource.c ****         if (node->path == NULL) {
 1131              		.loc 1 262 5 discriminator 1
 1132 00aa 93070401 		addi	a5,s0,16
 1133 00ae 63985701 		bne	a5,s5,.L64
 284:C:/Users/stapi/OneDrive/Desktop/GD32VW553/V1_MQTT_OK/GD32VW55X_Wifi_BLE_SDK/GD32VW55x_RELEASE_V1.0.2/MSDK/cloud/alicloud/src/protocol/coap/local\CoAPResource.c **** 
 1134              		.loc 1 284 5
 1135 00b2 E840     		lw	a0,68(s1)
 1136 00b4 97000000 		call	HAL_MutexUnlock
 1136      E7800000 
 1137              	.LVL121:
 1138 00bc 49BF     		j	.L76
 1139              	.L64:
 263:C:/Users/stapi/OneDrive/Desktop/GD32VW553/V1_MQTT_OK/GD32VW55X_Wifi_BLE_SDK/GD32VW55x_RELEASE_V1.0.2/MSDK/cloud/alicloud/src/protocol/coap/local\CoAPResource.c ****             COAP_ERR("node->path is NULL");
 1140              		.loc 1 263 9
 267:C:/Users/stapi/OneDrive/Desktop/GD32VW553/V1_MQTT_OK/GD32VW55X_Wifi_BLE_SDK/GD32VW55x_RELEASE_V1.0.2/MSDK/cloud/alicloud/src/protocol/coap/local\CoAPResource.c ****             HAL_MutexUnlock(ctx->resource.list_mutex);
 1141              		.loc 1 267 9
 267:C:/Users/stapi/OneDrive/Desktop/GD32VW553/V1_MQTT_OK/GD32VW55X_Wifi_BLE_SDK/GD32VW55x_RELEASE_V1.0.2/MSDK/cloud/alicloud/src/protocol/coap/local\CoAPResource.c ****             HAL_MutexUnlock(ctx->resource.list_mutex);
 1142              		.loc 1 267 18 is_stmt 0
 1143 00be 1546     		li	a2,5
 1144 00c0 93058401 		addi	a1,s0,24
 1145 00c4 2800     		addi	a0,sp,8
 1146 00c6 97000000 		call	memcmp
 1146      E7800000 
 1147              	.LVL122:
 267:C:/Users/stapi/OneDrive/Desktop/GD32VW553/V1_MQTT_OK/GD32VW55X_Wifi_BLE_SDK/GD32VW55x_RELEASE_V1.0.2/MSDK/cloud/alicloud/src/protocol/coap/local\CoAPResource.c ****             HAL_MutexUnlock(ctx->resource.list_mutex);
 1148              		.loc 1 267 12
 1149 00ce 05ED     		bne	a0,zero,.L62
 268:C:/Users/stapi/OneDrive/Desktop/GD32VW553/V1_MQTT_OK/GD32VW55X_Wifi_BLE_SDK/GD32VW55x_RELEASE_V1.0.2/MSDK/cloud/alicloud/src/protocol/coap/local\CoAPResource.c ****             COAP_DEBUG("Found the resource: %s", path);
 1150              		.loc 1 268 13 is_stmt 1
 1151 00d0 E840     		lw	a0,68(s1)
 1152 00d2 97000000 		call	HAL_MutexUnlock
 1152      E7800000 
 1153              	.LVL123:
 269:C:/Users/stapi/OneDrive/Desktop/GD32VW553/V1_MQTT_OK/GD32VW55X_Wifi_BLE_SDK/GD32VW55x_RELEASE_V1.0.2/MSDK/cloud/alicloud/src/protocol/coap/local\CoAPResource.c ****             return node;
 1154              		.loc 1 269 13
 1155 00da 37070000 		lui	a4,%hi(.LC17)
 1156 00de CA87     		mv	a5,s2
 1157 00e0 13070700 		addi	a4,a4,%lo(.LC17)
 1158 00e4 9546     		li	a3,5
 1159 00e6 1306D010 		li	a2,269
 1160              	.LVL124:
 1161              	.L75:
 279:C:/Users/stapi/OneDrive/Desktop/GD32VW553/V1_MQTT_OK/GD32VW55X_Wifi_BLE_SDK/GD32VW55x_RELEASE_V1.0.2/MSDK/cloud/alicloud/src/protocol/coap/local\CoAPResource.c ****                 return node;
 1162              		.loc 1 279 17 is_stmt 0
 1163 00ea 93850900 		addi	a1,s3,%lo(.LANCHOR2)
 1164 00ee 13050A00 		addi	a0,s4,%lo(.LC1)
 1165 00f2 97000000 		call	LITE_syslog
 1165      E7800000 
 1166              	.LVL125:
 280:C:/Users/stapi/OneDrive/Desktop/GD32VW553/V1_MQTT_OK/GD32VW55X_Wifi_BLE_SDK/GD32VW55x_RELEASE_V1.0.2/MSDK/cloud/alicloud/src/protocol/coap/local\CoAPResource.c ****             }
 1167              		.loc 1 280 17 is_stmt 1
 1168              	.L57:
 287:C:/Users/stapi/OneDrive/Desktop/GD32VW553/V1_MQTT_OK/GD32VW55X_Wifi_BLE_SDK/GD32VW55x_RELEASE_V1.0.2/MSDK/cloud/alicloud/src/protocol/coap/local\CoAPResource.c **** }
 1169              		.loc 1 287 1 is_stmt 0
 1170 00fa 2285     		mv	a0,s0
 1171 00fc 4101     		addi	sp,sp,16
 1172              		.cfi_remember_state
 1173              		.cfi_def_cfa_offset 0
 1174 00fe 17030000 		tail	__riscv_restore_7
 1174      67000300 
 1175              		.cfi_restore 22
 1176              		.cfi_restore 21
 1177              		.cfi_restore 20
 1178              		.cfi_restore 19
 1179              		.cfi_restore 18
 1180              		.cfi_restore 9
 1181              		.cfi_restore 8
 1182              		.cfi_restore 1
 1183              		.cfi_def_cfa_offset -32
 1184              	.LVL126:
 1185              	.L62:
 1186              		.cfi_restore_state
 272:C:/Users/stapi/OneDrive/Desktop/GD32VW553/V1_MQTT_OK/GD32VW55X_Wifi_BLE_SDK/GD32VW55x_RELEASE_V1.0.2/MSDK/cloud/alicloud/src/protocol/coap/local\CoAPResource.c ****             //COAP_DEBUG("node->filter_path is NULL");
 1187              		.loc 1 272 9 is_stmt 1
 272:C:/Users/stapi/OneDrive/Desktop/GD32VW553/V1_MQTT_OK/GD32VW55X_Wifi_BLE_SDK/GD32VW55x_RELEASE_V1.0.2/MSDK/cloud/alicloud/src/protocol/coap/local\CoAPResource.c ****             //COAP_DEBUG("node->filter_path is NULL");
 1188              		.loc 1 272 17 is_stmt 0
 1189 0106 0850     		lw	a0,32(s0)
 272:C:/Users/stapi/OneDrive/Desktop/GD32VW553/V1_MQTT_OK/GD32VW55X_Wifi_BLE_SDK/GD32VW55x_RELEASE_V1.0.2/MSDK/cloud/alicloud/src/protocol/coap/local\CoAPResource.c ****             //COAP_DEBUG("node->filter_path is NULL");
 1190              		.loc 1 272 12
 1191 0108 1DC9     		beq	a0,zero,.L63
 276:C:/Users/stapi/OneDrive/Desktop/GD32VW553/V1_MQTT_OK/GD32VW55X_Wifi_BLE_SDK/GD32VW55x_RELEASE_V1.0.2/MSDK/cloud/alicloud/src/protocol/coap/local\CoAPResource.c ****             if (CoAPResource_topicFilterMatch(node->filter_path, path) == 0) {
 1192              		.loc 1 276 9 is_stmt 1
 276:C:/Users/stapi/OneDrive/Desktop/GD32VW553/V1_MQTT_OK/GD32VW55X_Wifi_BLE_SDK/GD32VW55x_RELEASE_V1.0.2/MSDK/cloud/alicloud/src/protocol/coap/local\CoAPResource.c ****             if (CoAPResource_topicFilterMatch(node->filter_path, path) == 0) {
 1193              		.loc 1 276 12 is_stmt 0
 1194 010a 5C50     		lw	a5,36(s0)
 1195 010c 63996703 		bne	a5,s6,.L63
 276:C:/Users/stapi/OneDrive/Desktop/GD32VW553/V1_MQTT_OK/GD32VW55X_Wifi_BLE_SDK/GD32VW55x_RELEASE_V1.0.2/MSDK/cloud/alicloud/src/protocol/coap/local\CoAPResource.c ****             if (CoAPResource_topicFilterMatch(node->filter_path, path) == 0) {
 1196              		.loc 1 276 44 discriminator 1
 1197 0110 83070500 		lb	a5,0(a0)
 1198 0114 8DC7     		beq	a5,zero,.L63
 277:C:/Users/stapi/OneDrive/Desktop/GD32VW553/V1_MQTT_OK/GD32VW55X_Wifi_BLE_SDK/GD32VW55x_RELEASE_V1.0.2/MSDK/cloud/alicloud/src/protocol/coap/local\CoAPResource.c ****                 HAL_MutexUnlock(ctx->resource.list_mutex);
 1199              		.loc 1 277 13 is_stmt 1
 277:C:/Users/stapi/OneDrive/Desktop/GD32VW553/V1_MQTT_OK/GD32VW55X_Wifi_BLE_SDK/GD32VW55x_RELEASE_V1.0.2/MSDK/cloud/alicloud/src/protocol/coap/local\CoAPResource.c ****                 HAL_MutexUnlock(ctx->resource.list_mutex);
 1200              		.loc 1 277 17 is_stmt 0
 1201 0116 CA85     		mv	a1,s2
 1202 0118 97000000 		call	CoAPResource_topicFilterMatch
 1202      E7800000 
 1203              	.LVL127:
 277:C:/Users/stapi/OneDrive/Desktop/GD32VW553/V1_MQTT_OK/GD32VW55X_Wifi_BLE_SDK/GD32VW55x_RELEASE_V1.0.2/MSDK/cloud/alicloud/src/protocol/coap/local\CoAPResource.c ****                 HAL_MutexUnlock(ctx->resource.list_mutex);
 1204              		.loc 1 277 16
 1205 0120 19ED     		bne	a0,zero,.L63
 278:C:/Users/stapi/OneDrive/Desktop/GD32VW553/V1_MQTT_OK/GD32VW55X_Wifi_BLE_SDK/GD32VW55x_RELEASE_V1.0.2/MSDK/cloud/alicloud/src/protocol/coap/local\CoAPResource.c ****                 COAP_DEBUG("Found the resource: %s", path);
 1206              		.loc 1 278 17 is_stmt 1
 1207 0122 E840     		lw	a0,68(s1)
 1208 0124 97000000 		call	HAL_MutexUnlock
 1208      E7800000 
 1209              	.LVL128:
 279:C:/Users/stapi/OneDrive/Desktop/GD32VW553/V1_MQTT_OK/GD32VW55X_Wifi_BLE_SDK/GD32VW55x_RELEASE_V1.0.2/MSDK/cloud/alicloud/src/protocol/coap/local\CoAPResource.c ****                 return node;
 1210              		.loc 1 279 17
 1211 012c 37070000 		lui	a4,%hi(.LC17)
 1212 0130 CA87     		mv	a5,s2
 1213 0132 13070700 		addi	a4,a4,%lo(.LC17)
 1214 0136 9546     		li	a3,5
 1215 0138 13067011 		li	a2,279
 1216 013c 7DB7     		j	.L75
 1217              	.L63:
 262:C:/Users/stapi/OneDrive/Desktop/GD32VW553/V1_MQTT_OK/GD32VW55X_Wifi_BLE_SDK/GD32VW55x_RELEASE_V1.0.2/MSDK/cloud/alicloud/src/protocol/coap/local\CoAPResource.c ****         if (node->path == NULL) {
 1218              		.loc 1 262 5 discriminator 2
 1219 013e 4048     		lw	s0,20(s0)
 1220              	.LVL129:
 1221 0140 4114     		addi	s0,s0,-16
 1222              	.LVL130:
 1223 0142 A5B7     		j	.L61
 1224              		.cfi_endproc
 1225              	.LFE26:
 1227              		.section	.rodata.__FUNCTION__.0,"a"
 1228              		.align	2
 1229              		.set	.LANCHOR2,. + 0
 1232              	__FUNCTION__.0:
 1233 0000 436F4150 		.string	"CoAPResourceByPath_get"
 1233      5265736F 
 1233      75726365 
 1233      42795061 
 1233      74685F67 
 1234              		.section	.rodata.__FUNCTION__.1,"a"
 1235              		.align	2
 1236              		.set	.LANCHOR1,. + 0
 1239              	__FUNCTION__.1:
 1240 0000 436F4150 		.string	"CoAPResource_register"
 1240      5265736F 
 1240      75726365 
 1240      5F726567 
 1240      69737465 
 1241              		.section	.rodata.__FUNCTION__.2,"a"
 1242              		.align	2
 1243              		.set	.LANCHOR0,. + 0
 1246              	__FUNCTION__.2:
 1247 0000 436F4150 		.string	"CoAPResource_deinit"
 1247      5265736F 
 1247      75726365 
 1247      5F646569 
 1247      6E697400 
 1248              		.text
 1249              	.Letext0:
 1250              		.file 4 "c:\\users\\stapi\\onedrive\\desktop\\gd32vw553\\embeddedbuilder_v1.4.7.26843\\tools\\nucl
 1251              		.file 5 "c:\\users\\stapi\\onedrive\\desktop\\gd32vw553\\embeddedbuilder_v1.4.7.26843\\tools\\nucl
 1252              		.file 6 "c:\\users\\stapi\\onedrive\\desktop\\gd32vw553\\embeddedbuilder_v1.4.7.26843\\tools\\nucl
 1253              		.file 7 "..\\..\\..\\..\\cloud\\alicloud\\include/iot_import.h"
 1254              		.file 8 "C:/Users/stapi/OneDrive/Desktop/GD32VW553/V1_MQTT_OK/GD32VW55X_Wifi_BLE_SDK/GD32VW55x_REL
 1255              		.file 9 "C:/Users/stapi/OneDrive/Desktop/GD32VW553/V1_MQTT_OK/GD32VW55X_Wifi_BLE_SDK/GD32VW55x_REL
 1256              		.file 10 "C:/Users/stapi/OneDrive/Desktop/GD32VW553/V1_MQTT_OK/GD32VW55X_Wifi_BLE_SDK/GD32VW55x_RE
 1257              		.file 11 "C:/Users/stapi/OneDrive/Desktop/GD32VW553/V1_MQTT_OK/GD32VW55X_Wifi_BLE_SDK/GD32VW55x_RE
 1258              		.file 12 "..\\..\\..\\..\\cloud\\alicloud\\src\\infra\\log/iotx_log.h"
 1259              		.file 13 "c:\\users\\stapi\\onedrive\\desktop\\gd32vw553\\embeddedbuilder_v1.4.7.26843\\tools\\nuc
 1260              		.file 14 "..\\..\\..\\..\\cloud\\alicloud\\src\\infra\\utils/iotx_utils.h"
 1261              		.file 15 "..\\..\\..\\..\\cloud\\alicloud\\src\\infra\\utils\\digest/utils_md5.h"
 1262              		.file 16 "<built-in>"
 1263              		.file 17 "..\\..\\..\\..\\cloud\\alicloud\\include/exports/iot_export_errno.h"