   1              		.file	"CoAPObserve.c"
   2              		.option nopic
   3              		.attribute arch, "rv32i2p0_m2p0_a2p0_f2p0_c2p0_b_p0p94"
   4              		.attribute unaligned_access, 0
   5              		.attribute stack_align, 16
   6              		.text
   7              	.Ltext0:
   8              		.cfi_sections	.debug_frame
   9              		.section	.text.CoAPObsServer_init,"ax",@progbits
  10              		.align	1
  11              		.globl	CoAPObsServer_init
  13              	CoAPObsServer_init:
  14              	.LFB20:
  15              		.file 1 "C:/Users/stapi/OneDrive/Desktop/GD32VW553/V1_MQTT_OK/GD32VW55X_Wifi_BLE_SDK/GD32VW55x_REL
   1:C:/Users/stapi/OneDrive/Desktop/GD32VW553/V1_MQTT_OK/GD32VW55X_Wifi_BLE_SDK/GD32VW55x_RELEASE_V1.0.2/MSDK/cloud/alicloud/src/protocol/coap/local\CoAPObserve.c **** /*
   2:C:/Users/stapi/OneDrive/Desktop/GD32VW553/V1_MQTT_OK/GD32VW55X_Wifi_BLE_SDK/GD32VW55x_RELEASE_V1.0.2/MSDK/cloud/alicloud/src/protocol/coap/local\CoAPObserve.c ****  * Copyright (C) 2015-2018 Alibaba Group Holding Limited
   3:C:/Users/stapi/OneDrive/Desktop/GD32VW553/V1_MQTT_OK/GD32VW55X_Wifi_BLE_SDK/GD32VW55x_RELEASE_V1.0.2/MSDK/cloud/alicloud/src/protocol/coap/local\CoAPObserve.c ****  */
   4:C:/Users/stapi/OneDrive/Desktop/GD32VW553/V1_MQTT_OK/GD32VW55X_Wifi_BLE_SDK/GD32VW55x_RELEASE_V1.0.2/MSDK/cloud/alicloud/src/protocol/coap/local\CoAPObserve.c **** 
   5:C:/Users/stapi/OneDrive/Desktop/GD32VW553/V1_MQTT_OK/GD32VW55X_Wifi_BLE_SDK/GD32VW55x_RELEASE_V1.0.2/MSDK/cloud/alicloud/src/protocol/coap/local\CoAPObserve.c **** 
   6:C:/Users/stapi/OneDrive/Desktop/GD32VW553/V1_MQTT_OK/GD32VW55X_Wifi_BLE_SDK/GD32VW55x_RELEASE_V1.0.2/MSDK/cloud/alicloud/src/protocol/coap/local\CoAPObserve.c **** 
   7:C:/Users/stapi/OneDrive/Desktop/GD32VW553/V1_MQTT_OK/GD32VW55X_Wifi_BLE_SDK/GD32VW55x_RELEASE_V1.0.2/MSDK/cloud/alicloud/src/protocol/coap/local\CoAPObserve.c **** #include "CoAPExport.h"
   8:C:/Users/stapi/OneDrive/Desktop/GD32VW553/V1_MQTT_OK/GD32VW55X_Wifi_BLE_SDK/GD32VW55x_RELEASE_V1.0.2/MSDK/cloud/alicloud/src/protocol/coap/local\CoAPObserve.c **** #include "CoAPResource.h"
   9:C:/Users/stapi/OneDrive/Desktop/GD32VW553/V1_MQTT_OK/GD32VW55X_Wifi_BLE_SDK/GD32VW55x_RELEASE_V1.0.2/MSDK/cloud/alicloud/src/protocol/coap/local\CoAPObserve.c **** #include "CoAPObserve.h"
  10:C:/Users/stapi/OneDrive/Desktop/GD32VW553/V1_MQTT_OK/GD32VW55X_Wifi_BLE_SDK/GD32VW55x_RELEASE_V1.0.2/MSDK/cloud/alicloud/src/protocol/coap/local\CoAPObserve.c **** #include "CoAPMessage.h"
  11:C:/Users/stapi/OneDrive/Desktop/GD32VW553/V1_MQTT_OK/GD32VW55X_Wifi_BLE_SDK/GD32VW55x_RELEASE_V1.0.2/MSDK/cloud/alicloud/src/protocol/coap/local\CoAPObserve.c **** #include "lite-list.h"
  12:C:/Users/stapi/OneDrive/Desktop/GD32VW553/V1_MQTT_OK/GD32VW55X_Wifi_BLE_SDK/GD32VW55x_RELEASE_V1.0.2/MSDK/cloud/alicloud/src/protocol/coap/local\CoAPObserve.c **** #include "CoAPPlatform.h"
  13:C:/Users/stapi/OneDrive/Desktop/GD32VW553/V1_MQTT_OK/GD32VW55X_Wifi_BLE_SDK/GD32VW55x_RELEASE_V1.0.2/MSDK/cloud/alicloud/src/protocol/coap/local\CoAPObserve.c **** #include "CoAPInternal.h"
  14:C:/Users/stapi/OneDrive/Desktop/GD32VW553/V1_MQTT_OK/GD32VW55X_Wifi_BLE_SDK/GD32VW55x_RELEASE_V1.0.2/MSDK/cloud/alicloud/src/protocol/coap/local\CoAPObserve.c **** 
  15:C:/Users/stapi/OneDrive/Desktop/GD32VW553/V1_MQTT_OK/GD32VW55X_Wifi_BLE_SDK/GD32VW55x_RELEASE_V1.0.2/MSDK/cloud/alicloud/src/protocol/coap/local\CoAPObserve.c **** #ifndef COAP_OBSERVE_SERVER_DISABLE
  16:C:/Users/stapi/OneDrive/Desktop/GD32VW553/V1_MQTT_OK/GD32VW55X_Wifi_BLE_SDK/GD32VW55x_RELEASE_V1.0.2/MSDK/cloud/alicloud/src/protocol/coap/local\CoAPObserve.c **** int CoAPObsServer_init(CoAPContext *context, unsigned char        obs_maxcount)
  17:C:/Users/stapi/OneDrive/Desktop/GD32VW553/V1_MQTT_OK/GD32VW55X_Wifi_BLE_SDK/GD32VW55x_RELEASE_V1.0.2/MSDK/cloud/alicloud/src/protocol/coap/local\CoAPObserve.c **** {
  16              		.loc 1 17 1
  17              		.cfi_startproc
  18              	.LVL0:
  19 0000 17030000 		call	t0,__riscv_save_2
  19      E7020300 
  20              		.cfi_offset 9, -12
  21              		.cfi_offset 8, -8
  22              		.cfi_offset 1, -4
  23              		.cfi_def_cfa_offset 16
  18:C:/Users/stapi/OneDrive/Desktop/GD32VW553/V1_MQTT_OK/GD32VW55X_Wifi_BLE_SDK/GD32VW55x_RELEASE_V1.0.2/MSDK/cloud/alicloud/src/protocol/coap/local\CoAPObserve.c ****     CoAPIntContext *ctx = (CoAPIntContext *)context;
  24              		.loc 1 18 5
  17:C:/Users/stapi/OneDrive/Desktop/GD32VW553/V1_MQTT_OK/GD32VW55X_Wifi_BLE_SDK/GD32VW55x_RELEASE_V1.0.2/MSDK/cloud/alicloud/src/protocol/coap/local\CoAPObserve.c ****     CoAPIntContext *ctx = (CoAPIntContext *)context;
  25              		.loc 1 17 1 is_stmt 0
  26 0008 2A84     		mv	s0,a0
  27              	.LVL1:
  19:C:/Users/stapi/OneDrive/Desktop/GD32VW553/V1_MQTT_OK/GD32VW55X_Wifi_BLE_SDK/GD32VW55x_RELEASE_V1.0.2/MSDK/cloud/alicloud/src/protocol/coap/local\CoAPObserve.c **** 
  20:C:/Users/stapi/OneDrive/Desktop/GD32VW553/V1_MQTT_OK/GD32VW55X_Wifi_BLE_SDK/GD32VW55x_RELEASE_V1.0.2/MSDK/cloud/alicloud/src/protocol/coap/local\CoAPObserve.c ****     ctx->obsserver.list_mutex = HAL_MutexCreate();
  28              		.loc 1 20 5 is_stmt 1
  17:C:/Users/stapi/OneDrive/Desktop/GD32VW553/V1_MQTT_OK/GD32VW55X_Wifi_BLE_SDK/GD32VW55x_RELEASE_V1.0.2/MSDK/cloud/alicloud/src/protocol/coap/local\CoAPObserve.c ****     CoAPIntContext *ctx = (CoAPIntContext *)context;
  29              		.loc 1 17 1 is_stmt 0
  30 000a AE84     		mv	s1,a1
  31              		.loc 1 20 33
  32 000c 97000000 		call	HAL_MutexCreate
  32      E7800000 
  33              	.LVL2:
  34              		.loc 1 20 31
  35 0014 48D0     		sw	a0,36(s0)
  21:C:/Users/stapi/OneDrive/Desktop/GD32VW553/V1_MQTT_OK/GD32VW55X_Wifi_BLE_SDK/GD32VW55x_RELEASE_V1.0.2/MSDK/cloud/alicloud/src/protocol/coap/local\CoAPObserve.c **** 
  22:C:/Users/stapi/OneDrive/Desktop/GD32VW553/V1_MQTT_OK/GD32VW55X_Wifi_BLE_SDK/GD32VW55x_RELEASE_V1.0.2/MSDK/cloud/alicloud/src/protocol/coap/local\CoAPObserve.c ****     HAL_MutexLock(ctx->obsserver.list_mutex);
  36              		.loc 1 22 5 is_stmt 1
  37 0016 97000000 		call	HAL_MutexLock
  37      E7800000 
  38              	.LVL3:
  23:C:/Users/stapi/OneDrive/Desktop/GD32VW553/V1_MQTT_OK/GD32VW55X_Wifi_BLE_SDK/GD32VW55x_RELEASE_V1.0.2/MSDK/cloud/alicloud/src/protocol/coap/local\CoAPObserve.c ****     INIT_LIST_HEAD(&ctx->obsserver.list);
  39              		.loc 1 23 5
  24:C:/Users/stapi/OneDrive/Desktop/GD32VW553/V1_MQTT_OK/GD32VW55X_Wifi_BLE_SDK/GD32VW55x_RELEASE_V1.0.2/MSDK/cloud/alicloud/src/protocol/coap/local\CoAPObserve.c ****     ctx->obsserver.count = 0;
  25:C:/Users/stapi/OneDrive/Desktop/GD32VW553/V1_MQTT_OK/GD32VW55X_Wifi_BLE_SDK/GD32VW55x_RELEASE_V1.0.2/MSDK/cloud/alicloud/src/protocol/coap/local\CoAPObserve.c ****     ctx->obsserver.maxcount = obs_maxcount;
  26:C:/Users/stapi/OneDrive/Desktop/GD32VW553/V1_MQTT_OK/GD32VW55X_Wifi_BLE_SDK/GD32VW55x_RELEASE_V1.0.2/MSDK/cloud/alicloud/src/protocol/coap/local\CoAPObserve.c ****     HAL_MutexUnlock(ctx->obsserver.list_mutex);
  40              		.loc 1 26 5 is_stmt 0
  41 001e 4850     		lw	a0,36(s0)
  23:C:/Users/stapi/OneDrive/Desktop/GD32VW553/V1_MQTT_OK/GD32VW55X_Wifi_BLE_SDK/GD32VW55x_RELEASE_V1.0.2/MSDK/cloud/alicloud/src/protocol/coap/local\CoAPObserve.c ****     INIT_LIST_HEAD(&ctx->obsserver.list);
  42              		.loc 1 23 20
  43 0020 93078402 		addi	a5,s0,40
  44              	.LVL4:
  45              	.LBB10:
  46              	.LBB11:
  47              		.file 2 "..\\..\\..\\..\\cloud\\alicloud\\src\\infra\\utils\\misc/lite-list.h"
   1:..\..\..\..\cloud\alicloud\src\infra\utils\misc/lite-list.h **** /*
   2:..\..\..\..\cloud\alicloud\src\infra\utils\misc/lite-list.h ****  * Copyright (C) 2015-2018 Alibaba Group Holding Limited
   3:..\..\..\..\cloud\alicloud\src\infra\utils\misc/lite-list.h ****  */
   4:..\..\..\..\cloud\alicloud\src\infra\utils\misc/lite-list.h **** 
   5:..\..\..\..\cloud\alicloud\src\infra\utils\misc/lite-list.h **** #ifndef AOS_LIST_H
   6:..\..\..\..\cloud\alicloud\src\infra\utils\misc/lite-list.h **** #define AOS_LIST_H
   7:..\..\..\..\cloud\alicloud\src\infra\utils\misc/lite-list.h **** 
   8:..\..\..\..\cloud\alicloud\src\infra\utils\misc/lite-list.h **** #ifdef __cplusplus
   9:..\..\..\..\cloud\alicloud\src\infra\utils\misc/lite-list.h **** extern "C" {
  10:..\..\..\..\cloud\alicloud\src\infra\utils\misc/lite-list.h **** #endif
  11:..\..\..\..\cloud\alicloud\src\infra\utils\misc/lite-list.h **** 
  12:..\..\..\..\cloud\alicloud\src\infra\utils\misc/lite-list.h **** /*
  13:..\..\..\..\cloud\alicloud\src\infra\utils\misc/lite-list.h ****  * Get offset of a member variable.
  14:..\..\..\..\cloud\alicloud\src\infra\utils\misc/lite-list.h ****  *
  15:..\..\..\..\cloud\alicloud\src\infra\utils\misc/lite-list.h ****  * @param[in]   type     the type of the struct this is embedded in.
  16:..\..\..\..\cloud\alicloud\src\infra\utils\misc/lite-list.h ****  * @param[in]   member   the name of the variable within the struct.
  17:..\..\..\..\cloud\alicloud\src\infra\utils\misc/lite-list.h ****  */
  18:..\..\..\..\cloud\alicloud\src\infra\utils\misc/lite-list.h **** #define aos_offsetof(type, member)   ((size_t)&(((type *)0)->member))
  19:..\..\..\..\cloud\alicloud\src\infra\utils\misc/lite-list.h **** 
  20:..\..\..\..\cloud\alicloud\src\infra\utils\misc/lite-list.h **** /*
  21:..\..\..\..\cloud\alicloud\src\infra\utils\misc/lite-list.h ****  * Get the struct for this entry.
  22:..\..\..\..\cloud\alicloud\src\infra\utils\misc/lite-list.h ****  *
  23:..\..\..\..\cloud\alicloud\src\infra\utils\misc/lite-list.h ****  * @param[in]   ptr     the list head to take the element from.
  24:..\..\..\..\cloud\alicloud\src\infra\utils\misc/lite-list.h ****  * @param[in]   type    the type of the struct this is embedded in.
  25:..\..\..\..\cloud\alicloud\src\infra\utils\misc/lite-list.h ****  * @param[in]   member  the name of the variable within the struct.
  26:..\..\..\..\cloud\alicloud\src\infra\utils\misc/lite-list.h ****  */
  27:..\..\..\..\cloud\alicloud\src\infra\utils\misc/lite-list.h **** #define aos_container_of(ptr, type, member) \
  28:..\..\..\..\cloud\alicloud\src\infra\utils\misc/lite-list.h ****     ((type *) ((char *) (ptr) - aos_offsetof(type, member)))
  29:..\..\..\..\cloud\alicloud\src\infra\utils\misc/lite-list.h **** 
  30:..\..\..\..\cloud\alicloud\src\infra\utils\misc/lite-list.h **** /* for double link list */
  31:..\..\..\..\cloud\alicloud\src\infra\utils\misc/lite-list.h **** typedef struct dlist_s {
  32:..\..\..\..\cloud\alicloud\src\infra\utils\misc/lite-list.h ****     struct dlist_s *prev;
  33:..\..\..\..\cloud\alicloud\src\infra\utils\misc/lite-list.h ****     struct dlist_s *next;
  34:..\..\..\..\cloud\alicloud\src\infra\utils\misc/lite-list.h **** } dlist_t;
  35:..\..\..\..\cloud\alicloud\src\infra\utils\misc/lite-list.h **** 
  36:..\..\..\..\cloud\alicloud\src\infra\utils\misc/lite-list.h **** static inline void __dlist_add(dlist_t *node, dlist_t *prev, dlist_t *next)
  37:..\..\..\..\cloud\alicloud\src\infra\utils\misc/lite-list.h **** {
  38:..\..\..\..\cloud\alicloud\src\infra\utils\misc/lite-list.h ****     node->next = next;
  39:..\..\..\..\cloud\alicloud\src\infra\utils\misc/lite-list.h ****     node->prev = prev;
  40:..\..\..\..\cloud\alicloud\src\infra\utils\misc/lite-list.h **** 
  41:..\..\..\..\cloud\alicloud\src\infra\utils\misc/lite-list.h ****     prev->next = node;
  42:..\..\..\..\cloud\alicloud\src\infra\utils\misc/lite-list.h ****     next->prev = node;
  43:..\..\..\..\cloud\alicloud\src\infra\utils\misc/lite-list.h **** }
  44:..\..\..\..\cloud\alicloud\src\infra\utils\misc/lite-list.h **** 
  45:..\..\..\..\cloud\alicloud\src\infra\utils\misc/lite-list.h **** /*
  46:..\..\..\..\cloud\alicloud\src\infra\utils\misc/lite-list.h ****  * Get the struct for this entry.
  47:..\..\..\..\cloud\alicloud\src\infra\utils\misc/lite-list.h ****  *
  48:..\..\..\..\cloud\alicloud\src\infra\utils\misc/lite-list.h ****  * @param[in]   addr    the list head to take the element from.
  49:..\..\..\..\cloud\alicloud\src\infra\utils\misc/lite-list.h ****  * @param[in]   type    the type of the struct this is embedded in.
  50:..\..\..\..\cloud\alicloud\src\infra\utils\misc/lite-list.h ****  * @param[in]   member  the name of the dlist_t within the struct.
  51:..\..\..\..\cloud\alicloud\src\infra\utils\misc/lite-list.h ****  */
  52:..\..\..\..\cloud\alicloud\src\infra\utils\misc/lite-list.h **** #define dlist_entry(addr, type, member) \
  53:..\..\..\..\cloud\alicloud\src\infra\utils\misc/lite-list.h ****     ((type *)((long)addr - aos_offsetof(type, member)))
  54:..\..\..\..\cloud\alicloud\src\infra\utils\misc/lite-list.h **** 
  55:..\..\..\..\cloud\alicloud\src\infra\utils\misc/lite-list.h **** 
  56:..\..\..\..\cloud\alicloud\src\infra\utils\misc/lite-list.h **** static inline void dlist_add(dlist_t *node, dlist_t *queue)
  57:..\..\..\..\cloud\alicloud\src\infra\utils\misc/lite-list.h **** {
  58:..\..\..\..\cloud\alicloud\src\infra\utils\misc/lite-list.h ****     __dlist_add(node, queue, queue->next);
  59:..\..\..\..\cloud\alicloud\src\infra\utils\misc/lite-list.h **** }
  60:..\..\..\..\cloud\alicloud\src\infra\utils\misc/lite-list.h **** 
  61:..\..\..\..\cloud\alicloud\src\infra\utils\misc/lite-list.h **** static inline void dlist_add_tail(dlist_t *node, dlist_t *queue)
  62:..\..\..\..\cloud\alicloud\src\infra\utils\misc/lite-list.h **** {
  63:..\..\..\..\cloud\alicloud\src\infra\utils\misc/lite-list.h ****     __dlist_add(node, queue->prev, queue);
  64:..\..\..\..\cloud\alicloud\src\infra\utils\misc/lite-list.h **** }
  65:..\..\..\..\cloud\alicloud\src\infra\utils\misc/lite-list.h **** 
  66:..\..\..\..\cloud\alicloud\src\infra\utils\misc/lite-list.h **** static inline void dlist_del(dlist_t *node)
  67:..\..\..\..\cloud\alicloud\src\infra\utils\misc/lite-list.h **** {
  68:..\..\..\..\cloud\alicloud\src\infra\utils\misc/lite-list.h ****     dlist_t *prev = node->prev;
  69:..\..\..\..\cloud\alicloud\src\infra\utils\misc/lite-list.h ****     dlist_t *next = node->next;
  70:..\..\..\..\cloud\alicloud\src\infra\utils\misc/lite-list.h **** 
  71:..\..\..\..\cloud\alicloud\src\infra\utils\misc/lite-list.h ****     prev->next = next;
  72:..\..\..\..\cloud\alicloud\src\infra\utils\misc/lite-list.h ****     next->prev = prev;
  73:..\..\..\..\cloud\alicloud\src\infra\utils\misc/lite-list.h **** }
  74:..\..\..\..\cloud\alicloud\src\infra\utils\misc/lite-list.h **** 
  75:..\..\..\..\cloud\alicloud\src\infra\utils\misc/lite-list.h **** static inline void dlist_init(dlist_t *node)
  76:..\..\..\..\cloud\alicloud\src\infra\utils\misc/lite-list.h **** {
  77:..\..\..\..\cloud\alicloud\src\infra\utils\misc/lite-list.h ****     node->next = node->prev = node;
  78:..\..\..\..\cloud\alicloud\src\infra\utils\misc/lite-list.h **** }
  79:..\..\..\..\cloud\alicloud\src\infra\utils\misc/lite-list.h **** 
  80:..\..\..\..\cloud\alicloud\src\infra\utils\misc/lite-list.h **** static inline void INIT_AOS_DLIST_HEAD(dlist_t *list)
  81:..\..\..\..\cloud\alicloud\src\infra\utils\misc/lite-list.h **** {
  82:..\..\..\..\cloud\alicloud\src\infra\utils\misc/lite-list.h ****     list->next = list;
  48              		.loc 2 82 5 is_stmt 1
  49              		.loc 2 82 16 is_stmt 0
  50 0024 5CD4     		sw	a5,44(s0)
  83:..\..\..\..\cloud\alicloud\src\infra\utils\misc/lite-list.h ****     list->prev = list;
  51              		.loc 2 83 5 is_stmt 1
  52              		.loc 2 83 16 is_stmt 0
  53 0026 1CD4     		sw	a5,40(s0)
  54              	.LVL5:
  55              	.LBE11:
  56              	.LBE10:
  24:C:/Users/stapi/OneDrive/Desktop/GD32VW553/V1_MQTT_OK/GD32VW55X_Wifi_BLE_SDK/GD32VW55x_RELEASE_V1.0.2/MSDK/cloud/alicloud/src/protocol/coap/local\CoAPObserve.c ****     ctx->obsserver.count = 0;
  57              		.loc 1 24 5 is_stmt 1
  24:C:/Users/stapi/OneDrive/Desktop/GD32VW553/V1_MQTT_OK/GD32VW55X_Wifi_BLE_SDK/GD32VW55x_RELEASE_V1.0.2/MSDK/cloud/alicloud/src/protocol/coap/local\CoAPObserve.c ****     ctx->obsserver.count = 0;
  58              		.loc 1 24 26 is_stmt 0
  59 0028 23080402 		sb	zero,48(s0)
  25:C:/Users/stapi/OneDrive/Desktop/GD32VW553/V1_MQTT_OK/GD32VW55X_Wifi_BLE_SDK/GD32VW55x_RELEASE_V1.0.2/MSDK/cloud/alicloud/src/protocol/coap/local\CoAPObserve.c ****     HAL_MutexUnlock(ctx->obsserver.list_mutex);
  60              		.loc 1 25 5 is_stmt 1
  25:C:/Users/stapi/OneDrive/Desktop/GD32VW553/V1_MQTT_OK/GD32VW55X_Wifi_BLE_SDK/GD32VW55x_RELEASE_V1.0.2/MSDK/cloud/alicloud/src/protocol/coap/local\CoAPObserve.c ****     HAL_MutexUnlock(ctx->obsserver.list_mutex);
  61              		.loc 1 25 29 is_stmt 0
  62 002c A3089402 		sb	s1,49(s0)
  63              		.loc 1 26 5 is_stmt 1
  64 0030 97000000 		call	HAL_MutexUnlock
  64      E7800000 
  65              	.LVL6:
  27:C:/Users/stapi/OneDrive/Desktop/GD32VW553/V1_MQTT_OK/GD32VW55X_Wifi_BLE_SDK/GD32VW55x_RELEASE_V1.0.2/MSDK/cloud/alicloud/src/protocol/coap/local\CoAPObserve.c **** 
  28:C:/Users/stapi/OneDrive/Desktop/GD32VW553/V1_MQTT_OK/GD32VW55X_Wifi_BLE_SDK/GD32VW55x_RELEASE_V1.0.2/MSDK/cloud/alicloud/src/protocol/coap/local\CoAPObserve.c ****     return COAP_SUCCESS;
  66              		.loc 1 28 5
  29:C:/Users/stapi/OneDrive/Desktop/GD32VW553/V1_MQTT_OK/GD32VW55X_Wifi_BLE_SDK/GD32VW55x_RELEASE_V1.0.2/MSDK/cloud/alicloud/src/protocol/coap/local\CoAPObserve.c **** }
  67              		.loc 1 29 1 is_stmt 0
  68 0038 0145     		li	a0,0
  69 003a 17030000 		tail	__riscv_restore_2
  69      67000300 
  70              		.cfi_restore 9
  71              		.cfi_restore 8
  72              		.cfi_restore 1
  73              		.cfi_def_cfa_offset 0
  74              		.cfi_endproc
  75              	.LFE20:
  77              		.section	.rodata.CoAPObsServer_deinit.str1.4,"aMS",@progbits,1
  78              		.align	2
  79              	.LC0:
  80 0000 44656C65 		.string	"Delete %s:%d from observe server"
  80      74652025 
  80      733A2564 
  80      2066726F 
  80      6D206F62 
  81 0021 000000   		.align	2
  82              	.LC1:
  83 0024 636F6170 		.string	"coap_local"
  83      5F6C6F63 
  83      616C00
  84              		.section	.text.CoAPObsServer_deinit,"ax",@progbits
  85              		.align	1
  86              		.globl	CoAPObsServer_deinit
  88              	CoAPObsServer_deinit:
  89              	.LFB21:
  30:C:/Users/stapi/OneDrive/Desktop/GD32VW553/V1_MQTT_OK/GD32VW55X_Wifi_BLE_SDK/GD32VW55x_RELEASE_V1.0.2/MSDK/cloud/alicloud/src/protocol/coap/local\CoAPObserve.c **** 
  31:C:/Users/stapi/OneDrive/Desktop/GD32VW553/V1_MQTT_OK/GD32VW55X_Wifi_BLE_SDK/GD32VW55x_RELEASE_V1.0.2/MSDK/cloud/alicloud/src/protocol/coap/local\CoAPObserve.c **** int CoAPObsServer_deinit(CoAPContext *context)
  32:C:/Users/stapi/OneDrive/Desktop/GD32VW553/V1_MQTT_OK/GD32VW55X_Wifi_BLE_SDK/GD32VW55x_RELEASE_V1.0.2/MSDK/cloud/alicloud/src/protocol/coap/local\CoAPObserve.c **** {
  90              		.loc 1 32 1 is_stmt 1
  91              		.cfi_startproc
  92              	.LVL7:
  93 0000 17030000 		call	t0,__riscv_save_6
  93      E7020300 
  94              		.cfi_offset 21, -28
  95              		.cfi_offset 20, -24
  96              		.cfi_offset 19, -20
  97              		.cfi_offset 18, -16
  98              		.cfi_offset 9, -12
  99              		.cfi_offset 8, -8
 100              		.cfi_offset 1, -4
 101              		.cfi_def_cfa_offset 32
  33:C:/Users/stapi/OneDrive/Desktop/GD32VW553/V1_MQTT_OK/GD32VW55X_Wifi_BLE_SDK/GD32VW55x_RELEASE_V1.0.2/MSDK/cloud/alicloud/src/protocol/coap/local\CoAPObserve.c ****     CoAPIntContext *ctx = (CoAPIntContext *)context;
 102              		.loc 1 33 5
 103              	.LVL8:
  34:C:/Users/stapi/OneDrive/Desktop/GD32VW553/V1_MQTT_OK/GD32VW55X_Wifi_BLE_SDK/GD32VW55x_RELEASE_V1.0.2/MSDK/cloud/alicloud/src/protocol/coap/local\CoAPObserve.c ****     CoapObserver *node = NULL, *next = NULL;
 104              		.loc 1 34 5
  35:C:/Users/stapi/OneDrive/Desktop/GD32VW553/V1_MQTT_OK/GD32VW55X_Wifi_BLE_SDK/GD32VW55x_RELEASE_V1.0.2/MSDK/cloud/alicloud/src/protocol/coap/local\CoAPObserve.c **** 
  36:C:/Users/stapi/OneDrive/Desktop/GD32VW553/V1_MQTT_OK/GD32VW55X_Wifi_BLE_SDK/GD32VW55x_RELEASE_V1.0.2/MSDK/cloud/alicloud/src/protocol/coap/local\CoAPObserve.c ****     HAL_MutexLock(ctx->obsserver.list_mutex);
 105              		.loc 1 36 5
  32:C:/Users/stapi/OneDrive/Desktop/GD32VW553/V1_MQTT_OK/GD32VW55X_Wifi_BLE_SDK/GD32VW55x_RELEASE_V1.0.2/MSDK/cloud/alicloud/src/protocol/coap/local\CoAPObserve.c ****     CoAPIntContext *ctx = (CoAPIntContext *)context;
 106              		.loc 1 32 1 is_stmt 0
 107 0008 AA84     		mv	s1,a0
 108              		.loc 1 36 5
 109 000a 4851     		lw	a0,36(a0)
 110              	.LVL9:
  37:C:/Users/stapi/OneDrive/Desktop/GD32VW553/V1_MQTT_OK/GD32VW55X_Wifi_BLE_SDK/GD32VW55x_RELEASE_V1.0.2/MSDK/cloud/alicloud/src/protocol/coap/local\CoAPObserve.c ****     list_for_each_entry_safe(node, next, &ctx->obsserver.list, obslist, CoapObserver) {
  38:C:/Users/stapi/OneDrive/Desktop/GD32VW553/V1_MQTT_OK/GD32VW55X_Wifi_BLE_SDK/GD32VW55x_RELEASE_V1.0.2/MSDK/cloud/alicloud/src/protocol/coap/local\CoAPObserve.c ****         list_del(&node->obslist);
  39:C:/Users/stapi/OneDrive/Desktop/GD32VW553/V1_MQTT_OK/GD32VW55X_Wifi_BLE_SDK/GD32VW55x_RELEASE_V1.0.2/MSDK/cloud/alicloud/src/protocol/coap/local\CoAPObserve.c ****         COAP_DEBUG("Delete %s:%d from observe server", node->remote.addr, node->remote.port);
 111              		.loc 1 39 9
 112 000c B7090000 		lui	s3,%hi(.LANCHOR0)
 113 0010 370A0000 		lui	s4,%hi(.LC0)
  36:C:/Users/stapi/OneDrive/Desktop/GD32VW553/V1_MQTT_OK/GD32VW55X_Wifi_BLE_SDK/GD32VW55x_RELEASE_V1.0.2/MSDK/cloud/alicloud/src/protocol/coap/local\CoAPObserve.c ****     list_for_each_entry_safe(node, next, &ctx->obsserver.list, obslist, CoapObserver) {
 114              		.loc 1 36 5
 115 0014 97000000 		call	HAL_MutexLock
 115      E7800000 
 116              	.LVL10:
  37:C:/Users/stapi/OneDrive/Desktop/GD32VW553/V1_MQTT_OK/GD32VW55X_Wifi_BLE_SDK/GD32VW55x_RELEASE_V1.0.2/MSDK/cloud/alicloud/src/protocol/coap/local\CoAPObserve.c ****     list_for_each_entry_safe(node, next, &ctx->obsserver.list, obslist, CoapObserver) {
 117              		.loc 1 37 5 is_stmt 1
 118 001c DC54     		lw	a5,44(s1)
 119              		.loc 1 39 9 is_stmt 0
 120 001e B70A0000 		lui	s5,%hi(.LC1)
  37:C:/Users/stapi/OneDrive/Desktop/GD32VW553/V1_MQTT_OK/GD32VW55X_Wifi_BLE_SDK/GD32VW55x_RELEASE_V1.0.2/MSDK/cloud/alicloud/src/protocol/coap/local\CoAPObserve.c ****     list_for_each_entry_safe(node, next, &ctx->obsserver.list, obslist, CoapObserver) {
 121              		.loc 1 37 5
 122 0022 03A94700 		lw	s2,4(a5)
 123 0026 138487FD 		addi	s0,a5,-40
 124              	.LVL11:
 125 002a 130989FD 		addi	s2,s2,-40
 126              	.LVL12:
 127              	.L4:
  37:C:/Users/stapi/OneDrive/Desktop/GD32VW553/V1_MQTT_OK/GD32VW55X_Wifi_BLE_SDK/GD32VW55x_RELEASE_V1.0.2/MSDK/cloud/alicloud/src/protocol/coap/local\CoAPObserve.c ****     list_for_each_entry_safe(node, next, &ctx->obsserver.list, obslist, CoapObserver) {
 128              		.loc 1 37 5 is_stmt 1 discriminator 1
 129 002e 63159402 		bne	s0,s1,.L5
  40:C:/Users/stapi/OneDrive/Desktop/GD32VW553/V1_MQTT_OK/GD32VW55X_Wifi_BLE_SDK/GD32VW55x_RELEASE_V1.0.2/MSDK/cloud/alicloud/src/protocol/coap/local\CoAPObserve.c ****         coap_free(node);
  41:C:/Users/stapi/OneDrive/Desktop/GD32VW553/V1_MQTT_OK/GD32VW55X_Wifi_BLE_SDK/GD32VW55x_RELEASE_V1.0.2/MSDK/cloud/alicloud/src/protocol/coap/local\CoAPObserve.c ****     }
  42:C:/Users/stapi/OneDrive/Desktop/GD32VW553/V1_MQTT_OK/GD32VW55X_Wifi_BLE_SDK/GD32VW55x_RELEASE_V1.0.2/MSDK/cloud/alicloud/src/protocol/coap/local\CoAPObserve.c ****     ctx->obsserver.count = 0;
 130              		.loc 1 42 5
  43:C:/Users/stapi/OneDrive/Desktop/GD32VW553/V1_MQTT_OK/GD32VW55X_Wifi_BLE_SDK/GD32VW55x_RELEASE_V1.0.2/MSDK/cloud/alicloud/src/protocol/coap/local\CoAPObserve.c ****     ctx->obsserver.maxcount = 0;
 131              		.loc 1 43 5
  44:C:/Users/stapi/OneDrive/Desktop/GD32VW553/V1_MQTT_OK/GD32VW55X_Wifi_BLE_SDK/GD32VW55x_RELEASE_V1.0.2/MSDK/cloud/alicloud/src/protocol/coap/local\CoAPObserve.c ****     HAL_MutexUnlock(ctx->obsserver.list_mutex);
 132              		.loc 1 44 5 is_stmt 0
 133 0032 4850     		lw	a0,36(s0)
  42:C:/Users/stapi/OneDrive/Desktop/GD32VW553/V1_MQTT_OK/GD32VW55X_Wifi_BLE_SDK/GD32VW55x_RELEASE_V1.0.2/MSDK/cloud/alicloud/src/protocol/coap/local\CoAPObserve.c ****     ctx->obsserver.maxcount = 0;
 134              		.loc 1 42 26
 135 0034 23180402 		sh	zero,48(s0)
 136              		.loc 1 44 5 is_stmt 1
 137 0038 97000000 		call	HAL_MutexUnlock
 137      E7800000 
 138              	.LVL13:
  45:C:/Users/stapi/OneDrive/Desktop/GD32VW553/V1_MQTT_OK/GD32VW55X_Wifi_BLE_SDK/GD32VW55x_RELEASE_V1.0.2/MSDK/cloud/alicloud/src/protocol/coap/local\CoAPObserve.c **** 
  46:C:/Users/stapi/OneDrive/Desktop/GD32VW553/V1_MQTT_OK/GD32VW55X_Wifi_BLE_SDK/GD32VW55x_RELEASE_V1.0.2/MSDK/cloud/alicloud/src/protocol/coap/local\CoAPObserve.c ****     HAL_MutexDestroy(ctx->obsserver.list_mutex);
 139              		.loc 1 46 5
 140 0040 4850     		lw	a0,36(s0)
 141 0042 97000000 		call	HAL_MutexDestroy
 141      E7800000 
 142              	.LVL14:
  47:C:/Users/stapi/OneDrive/Desktop/GD32VW553/V1_MQTT_OK/GD32VW55X_Wifi_BLE_SDK/GD32VW55x_RELEASE_V1.0.2/MSDK/cloud/alicloud/src/protocol/coap/local\CoAPObserve.c ****     ctx->obsserver.list_mutex = NULL;
 143              		.loc 1 47 5
  48:C:/Users/stapi/OneDrive/Desktop/GD32VW553/V1_MQTT_OK/GD32VW55X_Wifi_BLE_SDK/GD32VW55x_RELEASE_V1.0.2/MSDK/cloud/alicloud/src/protocol/coap/local\CoAPObserve.c **** 
  49:C:/Users/stapi/OneDrive/Desktop/GD32VW553/V1_MQTT_OK/GD32VW55X_Wifi_BLE_SDK/GD32VW55x_RELEASE_V1.0.2/MSDK/cloud/alicloud/src/protocol/coap/local\CoAPObserve.c ****     return COAP_SUCCESS;
  50:C:/Users/stapi/OneDrive/Desktop/GD32VW553/V1_MQTT_OK/GD32VW55X_Wifi_BLE_SDK/GD32VW55x_RELEASE_V1.0.2/MSDK/cloud/alicloud/src/protocol/coap/local\CoAPObserve.c **** }
 144              		.loc 1 50 1 is_stmt 0
 145 004a 0145     		li	a0,0
  47:C:/Users/stapi/OneDrive/Desktop/GD32VW553/V1_MQTT_OK/GD32VW55X_Wifi_BLE_SDK/GD32VW55x_RELEASE_V1.0.2/MSDK/cloud/alicloud/src/protocol/coap/local\CoAPObserve.c ****     ctx->obsserver.list_mutex = NULL;
 146              		.loc 1 47 31
 147 004c 23220402 		sw	zero,36(s0)
  49:C:/Users/stapi/OneDrive/Desktop/GD32VW553/V1_MQTT_OK/GD32VW55X_Wifi_BLE_SDK/GD32VW55x_RELEASE_V1.0.2/MSDK/cloud/alicloud/src/protocol/coap/local\CoAPObserve.c **** }
 148              		.loc 1 49 5 is_stmt 1
 149              		.loc 1 50 1 is_stmt 0
 150 0050 17030000 		tail	__riscv_restore_6
 150      67000300 
 151              		.cfi_remember_state
 152              		.cfi_restore 21
 153              		.cfi_restore 20
 154              		.cfi_restore 19
 155              		.cfi_restore 18
 156              		.cfi_restore 9
 157              		.cfi_restore 8
 158              		.cfi_restore 1
 159              		.cfi_def_cfa_offset 0
 160              	.L5:
 161              		.cfi_restore_state
  38:C:/Users/stapi/OneDrive/Desktop/GD32VW553/V1_MQTT_OK/GD32VW55X_Wifi_BLE_SDK/GD32VW55x_RELEASE_V1.0.2/MSDK/cloud/alicloud/src/protocol/coap/local\CoAPObserve.c ****         COAP_DEBUG("Delete %s:%d from observe server", node->remote.addr, node->remote.port);
 162              		.loc 1 38 9 is_stmt 1 discriminator 3
 163              	.LVL15:
 164              	.LBB14:
 165              	.LBB15:
  68:..\..\..\..\cloud\alicloud\src\infra\utils\misc/lite-list.h ****     dlist_t *next = node->next;
 166              		.loc 2 68 5 discriminator 3
  68:..\..\..\..\cloud\alicloud\src\infra\utils\misc/lite-list.h ****     dlist_t *next = node->next;
 167              		.loc 2 68 14 is_stmt 0 discriminator 3
 168 0058 1854     		lw	a4,40(s0)
 169              	.LVL16:
  69:..\..\..\..\cloud\alicloud\src\infra\utils\misc/lite-list.h **** 
 170              		.loc 2 69 5 is_stmt 1 discriminator 3
  69:..\..\..\..\cloud\alicloud\src\infra\utils\misc/lite-list.h **** 
 171              		.loc 2 69 14 is_stmt 0 discriminator 3
 172 005a 5C54     		lw	a5,44(s0)
 173              	.LVL17:
  71:..\..\..\..\cloud\alicloud\src\infra\utils\misc/lite-list.h ****     next->prev = prev;
 174              		.loc 2 71 5 is_stmt 1 discriminator 3
 175              	.LBE15:
 176              	.LBE14:
  39:C:/Users/stapi/OneDrive/Desktop/GD32VW553/V1_MQTT_OK/GD32VW55X_Wifi_BLE_SDK/GD32VW55x_RELEASE_V1.0.2/MSDK/cloud/alicloud/src/protocol/coap/local\CoAPObserve.c ****         coap_free(node);
 177              		.loc 1 39 9 is_stmt 0 discriminator 3
 178 005c 03580401 		lhu	a6,16(s0)
 179 0060 9546     		li	a3,5
 180              	.LBB17:
 181              	.LBB16:
  71:..\..\..\..\cloud\alicloud\src\infra\utils\misc/lite-list.h ****     next->prev = prev;
 182              		.loc 2 71 16 discriminator 3
 183 0062 5CC3     		sw	a5,4(a4)
  72:..\..\..\..\cloud\alicloud\src\infra\utils\misc/lite-list.h **** }
 184              		.loc 2 72 5 is_stmt 1 discriminator 3
  72:..\..\..\..\cloud\alicloud\src\infra\utils\misc/lite-list.h **** }
 185              		.loc 2 72 16 is_stmt 0 discriminator 3
 186 0064 98C3     		sw	a4,0(a5)
 187              	.LVL18:
 188              	.LBE16:
 189              	.LBE17:
  39:C:/Users/stapi/OneDrive/Desktop/GD32VW553/V1_MQTT_OK/GD32VW55X_Wifi_BLE_SDK/GD32VW55x_RELEASE_V1.0.2/MSDK/cloud/alicloud/src/protocol/coap/local\CoAPObserve.c ****         coap_free(node);
 190              		.loc 1 39 9 is_stmt 1 discriminator 3
 191 0066 13067002 		li	a2,39
 192 006a A287     		mv	a5,s0
 193 006c 13070A00 		addi	a4,s4,%lo(.LC0)
 194 0070 93850900 		addi	a1,s3,%lo(.LANCHOR0)
 195 0074 13850A00 		addi	a0,s5,%lo(.LC1)
 196 0078 97000000 		call	LITE_syslog
 196      E7800000 
 197              	.LVL19:
  40:C:/Users/stapi/OneDrive/Desktop/GD32VW553/V1_MQTT_OK/GD32VW55X_Wifi_BLE_SDK/GD32VW55x_RELEASE_V1.0.2/MSDK/cloud/alicloud/src/protocol/coap/local\CoAPObserve.c ****     }
 198              		.loc 1 40 9 discriminator 3
 199 0080 2285     		mv	a0,s0
 200 0082 97000000 		call	LITE_free_internal
 200      E7800000 
 201              	.LVL20:
  37:C:/Users/stapi/OneDrive/Desktop/GD32VW553/V1_MQTT_OK/GD32VW55X_Wifi_BLE_SDK/GD32VW55x_RELEASE_V1.0.2/MSDK/cloud/alicloud/src/protocol/coap/local\CoAPObserve.c ****         list_del(&node->obslist);
 202              		.loc 1 37 5 discriminator 3
 203 008a 8327C902 		lw	a5,44(s2)
 204              	.LVL21:
 205 008e 4A84     		mv	s0,s2
 206 0090 138987FD 		addi	s2,a5,-40
 207              	.LVL22:
 208 0094 69BF     		j	.L4
 209              		.cfi_endproc
 210              	.LFE21:
 212              		.section	.rodata.CoAPObsServer_add.str1.4,"aMS",@progbits,1
 213              		.align	2
 214              	.LC2:
 215 0000 54686520 		.string	"The observe client %s:%d already exist,update it"
 215      6F627365 
 215      72766520 
 215      636C6965 
 215      6E742025 
 216 0031 000000   		.align	2
 217              	.LC3:
 218 0034 5B657272 		.string	"[err] "
 218      5D2000
 219 003b 00       		.align	2
 220              	.LC4:
 221 003c 416C6C6F 		.string	"Allocate memory failed"
 221      63617465 
 221      206D656D 
 221      6F727920 
 221      6661696C 
 222 0053 00       		.align	2
 223              	.LC5:
 224 0054 0D0A00   		.string	"\r\n"
 225 0057 00       		.align	2
 226              	.LC6:
 227 0058 5B696E66 		.string	"[inf] "
 227      5D2000
 228 005f 00       		.align	2
 229              	.LC7:
 230 0060 43757220 		.string	"Cur have %d observer, max allow %d"
 230      68617665 
 230      20256420 
 230      6F627365 
 230      72766572 
 231 0083 00       		.align	2
 232              	.LC8:
 233 0084 43726561 		.string	"Create a observe node, cur have %d nodes"
 233      74652061 
 233      206F6273 
 233      65727665 
 233      206E6F64 
 234              		.section	.text.CoAPObsServer_add,"ax",@progbits
 235              		.align	1
 236              		.globl	CoAPObsServer_add
 238              	CoAPObsServer_add:
 239              	.LFB22:
  51:C:/Users/stapi/OneDrive/Desktop/GD32VW553/V1_MQTT_OK/GD32VW55X_Wifi_BLE_SDK/GD32VW55x_RELEASE_V1.0.2/MSDK/cloud/alicloud/src/protocol/coap/local\CoAPObserve.c **** 
  52:C:/Users/stapi/OneDrive/Desktop/GD32VW553/V1_MQTT_OK/GD32VW55X_Wifi_BLE_SDK/GD32VW55x_RELEASE_V1.0.2/MSDK/cloud/alicloud/src/protocol/coap/local\CoAPObserve.c **** 
  53:C:/Users/stapi/OneDrive/Desktop/GD32VW553/V1_MQTT_OK/GD32VW55X_Wifi_BLE_SDK/GD32VW55x_RELEASE_V1.0.2/MSDK/cloud/alicloud/src/protocol/coap/local\CoAPObserve.c **** int CoAPObsServer_add(CoAPContext *context, const char *path, NetworkAddr *remote, CoAPMessage *req
  54:C:/Users/stapi/OneDrive/Desktop/GD32VW553/V1_MQTT_OK/GD32VW55X_Wifi_BLE_SDK/GD32VW55x_RELEASE_V1.0.2/MSDK/cloud/alicloud/src/protocol/coap/local\CoAPObserve.c **** {
 240              		.loc 1 54 1
 241              		.cfi_startproc
 242              	.LVL23:
 243 0000 17030000 		call	t0,__riscv_save_5
 243      E7020300 
 244              		.cfi_offset 20, -24
 245              		.cfi_offset 19, -20
 246              		.cfi_offset 18, -16
 247              		.cfi_offset 9, -12
 248              		.cfi_offset 8, -8
 249              		.cfi_offset 1, -4
 250              		.cfi_def_cfa_offset 32
  55:C:/Users/stapi/OneDrive/Desktop/GD32VW553/V1_MQTT_OK/GD32VW55X_Wifi_BLE_SDK/GD32VW55x_RELEASE_V1.0.2/MSDK/cloud/alicloud/src/protocol/coap/local\CoAPObserve.c ****     int ret = COAP_SUCCESS;
 251              		.loc 1 55 5
 252              	.LVL24:
  56:C:/Users/stapi/OneDrive/Desktop/GD32VW553/V1_MQTT_OK/GD32VW55X_Wifi_BLE_SDK/GD32VW55x_RELEASE_V1.0.2/MSDK/cloud/alicloud/src/protocol/coap/local\CoAPObserve.c ****     unsigned int observe;
 253              		.loc 1 56 5
  57:C:/Users/stapi/OneDrive/Desktop/GD32VW553/V1_MQTT_OK/GD32VW55X_Wifi_BLE_SDK/GD32VW55x_RELEASE_V1.0.2/MSDK/cloud/alicloud/src/protocol/coap/local\CoAPObserve.c ****     unsigned int  acceptype = 0;
 254              		.loc 1 57 5
  54:C:/Users/stapi/OneDrive/Desktop/GD32VW553/V1_MQTT_OK/GD32VW55X_Wifi_BLE_SDK/GD32VW55x_RELEASE_V1.0.2/MSDK/cloud/alicloud/src/protocol/coap/local\CoAPObserve.c ****     int ret = COAP_SUCCESS;
 255              		.loc 1 54 1 is_stmt 0
 256 0008 0111     		addi	sp,sp,-32
 257              		.cfi_def_cfa_offset 64
  54:C:/Users/stapi/OneDrive/Desktop/GD32VW553/V1_MQTT_OK/GD32VW55X_Wifi_BLE_SDK/GD32VW55x_RELEASE_V1.0.2/MSDK/cloud/alicloud/src/protocol/coap/local\CoAPObserve.c ****     int ret = COAP_SUCCESS;
 258              		.loc 1 54 1
 259 000a B289     		mv	s3,a2
 260 000c 3689     		mv	s2,a3
 261 000e 2A84     		mv	s0,a0
 262              		.loc 1 57 19
 263 0010 02CE     		sw	zero,28(sp)
  58:C:/Users/stapi/OneDrive/Desktop/GD32VW553/V1_MQTT_OK/GD32VW55X_Wifi_BLE_SDK/GD32VW55x_RELEASE_V1.0.2/MSDK/cloud/alicloud/src/protocol/coap/local\CoAPObserve.c ****     CoapObserver *obs = NULL;
 264              		.loc 1 58 5 is_stmt 1
 265              	.LVL25:
  59:C:/Users/stapi/OneDrive/Desktop/GD32VW553/V1_MQTT_OK/GD32VW55X_Wifi_BLE_SDK/GD32VW55x_RELEASE_V1.0.2/MSDK/cloud/alicloud/src/protocol/coap/local\CoAPObserve.c ****     CoAPResource *resource = NULL;
 266              		.loc 1 59 5
  60:C:/Users/stapi/OneDrive/Desktop/GD32VW553/V1_MQTT_OK/GD32VW55X_Wifi_BLE_SDK/GD32VW55x_RELEASE_V1.0.2/MSDK/cloud/alicloud/src/protocol/coap/local\CoAPObserve.c ****     CoapObserver *node = NULL;
 267              		.loc 1 60 5
  61:C:/Users/stapi/OneDrive/Desktop/GD32VW553/V1_MQTT_OK/GD32VW55X_Wifi_BLE_SDK/GD32VW55x_RELEASE_V1.0.2/MSDK/cloud/alicloud/src/protocol/coap/local\CoAPObserve.c ****     CoAPIntContext *ctx = (CoAPIntContext *)context;
 268              		.loc 1 61 5
  62:C:/Users/stapi/OneDrive/Desktop/GD32VW553/V1_MQTT_OK/GD32VW55X_Wifi_BLE_SDK/GD32VW55x_RELEASE_V1.0.2/MSDK/cloud/alicloud/src/protocol/coap/local\CoAPObserve.c **** 
  63:C:/Users/stapi/OneDrive/Desktop/GD32VW553/V1_MQTT_OK/GD32VW55X_Wifi_BLE_SDK/GD32VW55x_RELEASE_V1.0.2/MSDK/cloud/alicloud/src/protocol/coap/local\CoAPObserve.c ****     resource = CoAPResourceByPath_get(ctx, path);
 269              		.loc 1 63 5
 270              		.loc 1 63 16 is_stmt 0
 271 0012 97000000 		call	CoAPResourceByPath_get
 271      E7800000 
 272              	.LVL26:
 273 001a 2A8A     		mv	s4,a0
 274              	.LVL27:
  64:C:/Users/stapi/OneDrive/Desktop/GD32VW553/V1_MQTT_OK/GD32VW55X_Wifi_BLE_SDK/GD32VW55x_RELEASE_V1.0.2/MSDK/cloud/alicloud/src/protocol/coap/local\CoAPObserve.c **** 
  65:C:/Users/stapi/OneDrive/Desktop/GD32VW553/V1_MQTT_OK/GD32VW55X_Wifi_BLE_SDK/GD32VW55x_RELEASE_V1.0.2/MSDK/cloud/alicloud/src/protocol/coap/local\CoAPObserve.c ****     ret = CoAPUintOption_get(request, COAP_OPTION_OBSERVE,  &observe);
 275              		.loc 1 65 5 is_stmt 1
 276              		.loc 1 65 11 is_stmt 0
 277 001c 3008     		addi	a2,sp,24
 278 001e 9945     		li	a1,6
 279 0020 4A85     		mv	a0,s2
 280              	.LVL28:
 281 0022 97000000 		call	CoAPUintOption_get
 281      E7800000 
 282              	.LVL29:
  66:C:/Users/stapi/OneDrive/Desktop/GD32VW553/V1_MQTT_OK/GD32VW55X_Wifi_BLE_SDK/GD32VW55x_RELEASE_V1.0.2/MSDK/cloud/alicloud/src/protocol/coap/local\CoAPObserve.c **** 
  67:C:/Users/stapi/OneDrive/Desktop/GD32VW553/V1_MQTT_OK/GD32VW55X_Wifi_BLE_SDK/GD32VW55x_RELEASE_V1.0.2/MSDK/cloud/alicloud/src/protocol/coap/local\CoAPObserve.c ****     if(NULL!=resource && COAP_SUCCESS==ret && 0==observe){
 283              		.loc 1 67 5 is_stmt 1
 284              		.loc 1 67 7 is_stmt 0
 285 002a 63040A22 		beq	s4,zero,.L15
 286              		.loc 1 67 44 discriminator 2
 287 002e E247     		lw	a5,24(sp)
 288 0030 C98F     		or	a5,a0,a5
  68:C:/Users/stapi/OneDrive/Desktop/GD32VW553/V1_MQTT_OK/GD32VW55X_Wifi_BLE_SDK/GD32VW55x_RELEASE_V1.0.2/MSDK/cloud/alicloud/src/protocol/coap/local\CoAPObserve.c ****         /*Check if the observe client already exist*/
  69:C:/Users/stapi/OneDrive/Desktop/GD32VW553/V1_MQTT_OK/GD32VW55X_Wifi_BLE_SDK/GD32VW55x_RELEASE_V1.0.2/MSDK/cloud/alicloud/src/protocol/coap/local\CoAPObserve.c ****         HAL_MutexLock(ctx->obsserver.list_mutex);
  70:C:/Users/stapi/OneDrive/Desktop/GD32VW553/V1_MQTT_OK/GD32VW55X_Wifi_BLE_SDK/GD32VW55x_RELEASE_V1.0.2/MSDK/cloud/alicloud/src/protocol/coap/local\CoAPObserve.c ****         list_for_each_entry(node, &ctx->obsserver.list, obslist, CoapObserver) {
  71:C:/Users/stapi/OneDrive/Desktop/GD32VW553/V1_MQTT_OK/GD32VW55X_Wifi_BLE_SDK/GD32VW55x_RELEASE_V1.0.2/MSDK/cloud/alicloud/src/protocol/coap/local\CoAPObserve.c ****             if((node->p_resource_of_interest == resource) &&
  72:C:/Users/stapi/OneDrive/Desktop/GD32VW553/V1_MQTT_OK/GD32VW55X_Wifi_BLE_SDK/GD32VW55x_RELEASE_V1.0.2/MSDK/cloud/alicloud/src/protocol/coap/local\CoAPObserve.c ****                 (node->remote.port == remote->port)  &&
  73:C:/Users/stapi/OneDrive/Desktop/GD32VW553/V1_MQTT_OK/GD32VW55X_Wifi_BLE_SDK/GD32VW55x_RELEASE_V1.0.2/MSDK/cloud/alicloud/src/protocol/coap/local\CoAPObserve.c ****                 (0 == memcmp(node->remote.addr, remote->addr, NETWORK_ADDR_LEN))){
  74:C:/Users/stapi/OneDrive/Desktop/GD32VW553/V1_MQTT_OK/GD32VW55X_Wifi_BLE_SDK/GD32VW55x_RELEASE_V1.0.2/MSDK/cloud/alicloud/src/protocol/coap/local\CoAPObserve.c ****                     COAP_DEBUG("The observe client %s:%d already exist,update it", node->remote.add
  75:C:/Users/stapi/OneDrive/Desktop/GD32VW553/V1_MQTT_OK/GD32VW55X_Wifi_BLE_SDK/GD32VW55x_RELEASE_V1.0.2/MSDK/cloud/alicloud/src/protocol/coap/local\CoAPObserve.c ****                     memcpy(node->token, request->token, request->header.tokenlen);
  76:C:/Users/stapi/OneDrive/Desktop/GD32VW553/V1_MQTT_OK/GD32VW55X_Wifi_BLE_SDK/GD32VW55x_RELEASE_V1.0.2/MSDK/cloud/alicloud/src/protocol/coap/local\CoAPObserve.c ****                     node->tokenlen = request->header.tokenlen;
  77:C:/Users/stapi/OneDrive/Desktop/GD32VW553/V1_MQTT_OK/GD32VW55X_Wifi_BLE_SDK/GD32VW55x_RELEASE_V1.0.2/MSDK/cloud/alicloud/src/protocol/coap/local\CoAPObserve.c ****                     HAL_MutexUnlock(ctx->obsserver.list_mutex);
  78:C:/Users/stapi/OneDrive/Desktop/GD32VW553/V1_MQTT_OK/GD32VW55X_Wifi_BLE_SDK/GD32VW55x_RELEASE_V1.0.2/MSDK/cloud/alicloud/src/protocol/coap/local\CoAPObserve.c ****                     return COAP_ERROR_OBJ_ALREADY_EXIST;
  79:C:/Users/stapi/OneDrive/Desktop/GD32VW553/V1_MQTT_OK/GD32VW55X_Wifi_BLE_SDK/GD32VW55x_RELEASE_V1.0.2/MSDK/cloud/alicloud/src/protocol/coap/local\CoAPObserve.c ****                 }
  80:C:/Users/stapi/OneDrive/Desktop/GD32VW553/V1_MQTT_OK/GD32VW55X_Wifi_BLE_SDK/GD32VW55x_RELEASE_V1.0.2/MSDK/cloud/alicloud/src/protocol/coap/local\CoAPObserve.c ****         }
  81:C:/Users/stapi/OneDrive/Desktop/GD32VW553/V1_MQTT_OK/GD32VW55X_Wifi_BLE_SDK/GD32VW55x_RELEASE_V1.0.2/MSDK/cloud/alicloud/src/protocol/coap/local\CoAPObserve.c ****         HAL_MutexUnlock(ctx->obsserver.list_mutex);
  82:C:/Users/stapi/OneDrive/Desktop/GD32VW553/V1_MQTT_OK/GD32VW55X_Wifi_BLE_SDK/GD32VW55x_RELEASE_V1.0.2/MSDK/cloud/alicloud/src/protocol/coap/local\CoAPObserve.c **** 
  83:C:/Users/stapi/OneDrive/Desktop/GD32VW553/V1_MQTT_OK/GD32VW55X_Wifi_BLE_SDK/GD32VW55x_RELEASE_V1.0.2/MSDK/cloud/alicloud/src/protocol/coap/local\CoAPObserve.c **** 
  84:C:/Users/stapi/OneDrive/Desktop/GD32VW553/V1_MQTT_OK/GD32VW55X_Wifi_BLE_SDK/GD32VW55x_RELEASE_V1.0.2/MSDK/cloud/alicloud/src/protocol/coap/local\CoAPObserve.c ****         obs = coap_malloc(sizeof(CoapObserver));
  85:C:/Users/stapi/OneDrive/Desktop/GD32VW553/V1_MQTT_OK/GD32VW55X_Wifi_BLE_SDK/GD32VW55x_RELEASE_V1.0.2/MSDK/cloud/alicloud/src/protocol/coap/local\CoAPObserve.c ****         if(NULL == obs){
  86:C:/Users/stapi/OneDrive/Desktop/GD32VW553/V1_MQTT_OK/GD32VW55X_Wifi_BLE_SDK/GD32VW55x_RELEASE_V1.0.2/MSDK/cloud/alicloud/src/protocol/coap/local\CoAPObserve.c ****             COAP_ERR("Allocate memory failed");
  87:C:/Users/stapi/OneDrive/Desktop/GD32VW553/V1_MQTT_OK/GD32VW55X_Wifi_BLE_SDK/GD32VW55x_RELEASE_V1.0.2/MSDK/cloud/alicloud/src/protocol/coap/local\CoAPObserve.c ****             return COAP_ERROR_MALLOC;
  88:C:/Users/stapi/OneDrive/Desktop/GD32VW553/V1_MQTT_OK/GD32VW55X_Wifi_BLE_SDK/GD32VW55x_RELEASE_V1.0.2/MSDK/cloud/alicloud/src/protocol/coap/local\CoAPObserve.c ****         }
  89:C:/Users/stapi/OneDrive/Desktop/GD32VW553/V1_MQTT_OK/GD32VW55X_Wifi_BLE_SDK/GD32VW55x_RELEASE_V1.0.2/MSDK/cloud/alicloud/src/protocol/coap/local\CoAPObserve.c **** 
  90:C:/Users/stapi/OneDrive/Desktop/GD32VW553/V1_MQTT_OK/GD32VW55X_Wifi_BLE_SDK/GD32VW55x_RELEASE_V1.0.2/MSDK/cloud/alicloud/src/protocol/coap/local\CoAPObserve.c ****         memset(obs, 0x00, sizeof(CoapObserver));
  91:C:/Users/stapi/OneDrive/Desktop/GD32VW553/V1_MQTT_OK/GD32VW55X_Wifi_BLE_SDK/GD32VW55x_RELEASE_V1.0.2/MSDK/cloud/alicloud/src/protocol/coap/local\CoAPObserve.c ****         obs->msg_type = request->header.type;
  92:C:/Users/stapi/OneDrive/Desktop/GD32VW553/V1_MQTT_OK/GD32VW55X_Wifi_BLE_SDK/GD32VW55x_RELEASE_V1.0.2/MSDK/cloud/alicloud/src/protocol/coap/local\CoAPObserve.c ****         obs->p_resource_of_interest = resource;
  93:C:/Users/stapi/OneDrive/Desktop/GD32VW553/V1_MQTT_OK/GD32VW55X_Wifi_BLE_SDK/GD32VW55x_RELEASE_V1.0.2/MSDK/cloud/alicloud/src/protocol/coap/local\CoAPObserve.c ****         memcpy(&obs->remote, remote, sizeof(NetworkAddr));
  94:C:/Users/stapi/OneDrive/Desktop/GD32VW553/V1_MQTT_OK/GD32VW55X_Wifi_BLE_SDK/GD32VW55x_RELEASE_V1.0.2/MSDK/cloud/alicloud/src/protocol/coap/local\CoAPObserve.c ****         memcpy(obs->token, request->token, request->header.tokenlen);
  95:C:/Users/stapi/OneDrive/Desktop/GD32VW553/V1_MQTT_OK/GD32VW55X_Wifi_BLE_SDK/GD32VW55x_RELEASE_V1.0.2/MSDK/cloud/alicloud/src/protocol/coap/local\CoAPObserve.c ****         obs->tokenlen = request->header.tokenlen;
  96:C:/Users/stapi/OneDrive/Desktop/GD32VW553/V1_MQTT_OK/GD32VW55X_Wifi_BLE_SDK/GD32VW55x_RELEASE_V1.0.2/MSDK/cloud/alicloud/src/protocol/coap/local\CoAPObserve.c **** 
  97:C:/Users/stapi/OneDrive/Desktop/GD32VW553/V1_MQTT_OK/GD32VW55X_Wifi_BLE_SDK/GD32VW55x_RELEASE_V1.0.2/MSDK/cloud/alicloud/src/protocol/coap/local\CoAPObserve.c **** 
  98:C:/Users/stapi/OneDrive/Desktop/GD32VW553/V1_MQTT_OK/GD32VW55X_Wifi_BLE_SDK/GD32VW55x_RELEASE_V1.0.2/MSDK/cloud/alicloud/src/protocol/coap/local\CoAPObserve.c ****         CoAPUintOption_get(request, COAP_OPTION_ACCEPT, &acceptype);
  99:C:/Users/stapi/OneDrive/Desktop/GD32VW553/V1_MQTT_OK/GD32VW55X_Wifi_BLE_SDK/GD32VW55x_RELEASE_V1.0.2/MSDK/cloud/alicloud/src/protocol/coap/local\CoAPObserve.c ****         obs->ctype = (acceptype==0) ? COAP_CT_APP_JSON : acceptype;
 100:C:/Users/stapi/OneDrive/Desktop/GD32VW553/V1_MQTT_OK/GD32VW55X_Wifi_BLE_SDK/GD32VW55x_RELEASE_V1.0.2/MSDK/cloud/alicloud/src/protocol/coap/local\CoAPObserve.c ****         obs->observer_sequence_num = 0;
 101:C:/Users/stapi/OneDrive/Desktop/GD32VW553/V1_MQTT_OK/GD32VW55X_Wifi_BLE_SDK/GD32VW55x_RELEASE_V1.0.2/MSDK/cloud/alicloud/src/protocol/coap/local\CoAPObserve.c **** 
 102:C:/Users/stapi/OneDrive/Desktop/GD32VW553/V1_MQTT_OK/GD32VW55X_Wifi_BLE_SDK/GD32VW55x_RELEASE_V1.0.2/MSDK/cloud/alicloud/src/protocol/coap/local\CoAPObserve.c ****         // TODO:
 103:C:/Users/stapi/OneDrive/Desktop/GD32VW553/V1_MQTT_OK/GD32VW55X_Wifi_BLE_SDK/GD32VW55x_RELEASE_V1.0.2/MSDK/cloud/alicloud/src/protocol/coap/local\CoAPObserve.c ****         //CoAPObsServer_find();
 104:C:/Users/stapi/OneDrive/Desktop/GD32VW553/V1_MQTT_OK/GD32VW55X_Wifi_BLE_SDK/GD32VW55x_RELEASE_V1.0.2/MSDK/cloud/alicloud/src/protocol/coap/local\CoAPObserve.c **** 
 105:C:/Users/stapi/OneDrive/Desktop/GD32VW553/V1_MQTT_OK/GD32VW55X_Wifi_BLE_SDK/GD32VW55x_RELEASE_V1.0.2/MSDK/cloud/alicloud/src/protocol/coap/local\CoAPObserve.c ****         HAL_MutexLock(ctx->obsserver.list_mutex);
 106:C:/Users/stapi/OneDrive/Desktop/GD32VW553/V1_MQTT_OK/GD32VW55X_Wifi_BLE_SDK/GD32VW55x_RELEASE_V1.0.2/MSDK/cloud/alicloud/src/protocol/coap/local\CoAPObserve.c ****         if (ctx->obsserver.count >= ctx->obsserver.maxcount) {
 107:C:/Users/stapi/OneDrive/Desktop/GD32VW553/V1_MQTT_OK/GD32VW55X_Wifi_BLE_SDK/GD32VW55x_RELEASE_V1.0.2/MSDK/cloud/alicloud/src/protocol/coap/local\CoAPObserve.c ****             HAL_MutexUnlock(ctx->obsserver.list_mutex);
 108:C:/Users/stapi/OneDrive/Desktop/GD32VW553/V1_MQTT_OK/GD32VW55X_Wifi_BLE_SDK/GD32VW55x_RELEASE_V1.0.2/MSDK/cloud/alicloud/src/protocol/coap/local\CoAPObserve.c ****             coap_free(obs);
 109:C:/Users/stapi/OneDrive/Desktop/GD32VW553/V1_MQTT_OK/GD32VW55X_Wifi_BLE_SDK/GD32VW55x_RELEASE_V1.0.2/MSDK/cloud/alicloud/src/protocol/coap/local\CoAPObserve.c ****             COAP_INFO("Cur have %d observer, max allow %d", ctx->obsserver.count, ctx->obsserver.ma
 110:C:/Users/stapi/OneDrive/Desktop/GD32VW553/V1_MQTT_OK/GD32VW55X_Wifi_BLE_SDK/GD32VW55x_RELEASE_V1.0.2/MSDK/cloud/alicloud/src/protocol/coap/local\CoAPObserve.c ****             return COAP_ERROR_DATA_SIZE;
 111:C:/Users/stapi/OneDrive/Desktop/GD32VW553/V1_MQTT_OK/GD32VW55X_Wifi_BLE_SDK/GD32VW55x_RELEASE_V1.0.2/MSDK/cloud/alicloud/src/protocol/coap/local\CoAPObserve.c ****         } else {
 112:C:/Users/stapi/OneDrive/Desktop/GD32VW553/V1_MQTT_OK/GD32VW55X_Wifi_BLE_SDK/GD32VW55x_RELEASE_V1.0.2/MSDK/cloud/alicloud/src/protocol/coap/local\CoAPObserve.c ****             list_add_tail(&obs->obslist, &ctx->obsserver.list);
 113:C:/Users/stapi/OneDrive/Desktop/GD32VW553/V1_MQTT_OK/GD32VW55X_Wifi_BLE_SDK/GD32VW55x_RELEASE_V1.0.2/MSDK/cloud/alicloud/src/protocol/coap/local\CoAPObserve.c ****             ctx->obsserver.count ++;
 114:C:/Users/stapi/OneDrive/Desktop/GD32VW553/V1_MQTT_OK/GD32VW55X_Wifi_BLE_SDK/GD32VW55x_RELEASE_V1.0.2/MSDK/cloud/alicloud/src/protocol/coap/local\CoAPObserve.c ****             COAP_DEBUG("Create a observe node, cur have %d nodes", ctx->obsserver.count);
 115:C:/Users/stapi/OneDrive/Desktop/GD32VW553/V1_MQTT_OK/GD32VW55X_Wifi_BLE_SDK/GD32VW55x_RELEASE_V1.0.2/MSDK/cloud/alicloud/src/protocol/coap/local\CoAPObserve.c ****             HAL_MutexUnlock(ctx->obsserver.list_mutex);
 116:C:/Users/stapi/OneDrive/Desktop/GD32VW553/V1_MQTT_OK/GD32VW55X_Wifi_BLE_SDK/GD32VW55x_RELEASE_V1.0.2/MSDK/cloud/alicloud/src/protocol/coap/local\CoAPObserve.c ****             return COAP_SUCCESS;
 117:C:/Users/stapi/OneDrive/Desktop/GD32VW553/V1_MQTT_OK/GD32VW55X_Wifi_BLE_SDK/GD32VW55x_RELEASE_V1.0.2/MSDK/cloud/alicloud/src/protocol/coap/local\CoAPObserve.c ****         }
 118:C:/Users/stapi/OneDrive/Desktop/GD32VW553/V1_MQTT_OK/GD32VW55X_Wifi_BLE_SDK/GD32VW55x_RELEASE_V1.0.2/MSDK/cloud/alicloud/src/protocol/coap/local\CoAPObserve.c **** 
 119:C:/Users/stapi/OneDrive/Desktop/GD32VW553/V1_MQTT_OK/GD32VW55X_Wifi_BLE_SDK/GD32VW55x_RELEASE_V1.0.2/MSDK/cloud/alicloud/src/protocol/coap/local\CoAPObserve.c ****     }
 120:C:/Users/stapi/OneDrive/Desktop/GD32VW553/V1_MQTT_OK/GD32VW55X_Wifi_BLE_SDK/GD32VW55x_RELEASE_V1.0.2/MSDK/cloud/alicloud/src/protocol/coap/local\CoAPObserve.c **** 
 121:C:/Users/stapi/OneDrive/Desktop/GD32VW553/V1_MQTT_OK/GD32VW55X_Wifi_BLE_SDK/GD32VW55x_RELEASE_V1.0.2/MSDK/cloud/alicloud/src/protocol/coap/local\CoAPObserve.c ****     return COAP_ERROR_NOT_FOUND;
 289              		.loc 1 121 12 discriminator 2
 290 0032 13057010 		li	a0,263
 291              	.LVL30:
  67:C:/Users/stapi/OneDrive/Desktop/GD32VW553/V1_MQTT_OK/GD32VW55X_Wifi_BLE_SDK/GD32VW55x_RELEASE_V1.0.2/MSDK/cloud/alicloud/src/protocol/coap/local\CoAPObserve.c ****         /*Check if the observe client already exist*/
 292              		.loc 1 67 44 discriminator 2
 293 0036 EDE7     		bne	a5,zero,.L7
  69:C:/Users/stapi/OneDrive/Desktop/GD32VW553/V1_MQTT_OK/GD32VW55X_Wifi_BLE_SDK/GD32VW55x_RELEASE_V1.0.2/MSDK/cloud/alicloud/src/protocol/coap/local\CoAPObserve.c ****         list_for_each_entry(node, &ctx->obsserver.list, obslist, CoapObserver) {
 294              		.loc 1 69 9 is_stmt 1
 295 0038 4850     		lw	a0,36(s0)
 296 003a 97000000 		call	HAL_MutexLock
 296      E7800000 
 297              	.LVL31:
  70:C:/Users/stapi/OneDrive/Desktop/GD32VW553/V1_MQTT_OK/GD32VW55X_Wifi_BLE_SDK/GD32VW55x_RELEASE_V1.0.2/MSDK/cloud/alicloud/src/protocol/coap/local\CoAPObserve.c ****             if((node->p_resource_of_interest == resource) &&
 298              		.loc 1 70 9
 299 0042 4454     		lw	s1,44(s0)
 300              	.LVL32:
 301              	.L19:
  70:C:/Users/stapi/OneDrive/Desktop/GD32VW553/V1_MQTT_OK/GD32VW55X_Wifi_BLE_SDK/GD32VW55x_RELEASE_V1.0.2/MSDK/cloud/alicloud/src/protocol/coap/local\CoAPObserve.c ****             if((node->p_resource_of_interest == resource) &&
 302              		.loc 1 70 9 is_stmt 0 discriminator 2
 303 0044 938484FD 		addi	s1,s1,-40
 304              	.LVL33:
  70:C:/Users/stapi/OneDrive/Desktop/GD32VW553/V1_MQTT_OK/GD32VW55X_Wifi_BLE_SDK/GD32VW55x_RELEASE_V1.0.2/MSDK/cloud/alicloud/src/protocol/coap/local\CoAPObserve.c ****             if((node->p_resource_of_interest == resource) &&
 305              		.loc 1 70 9 is_stmt 1 discriminator 2
 306 0048 639C8404 		bne	s1,s0,.L11
  81:C:/Users/stapi/OneDrive/Desktop/GD32VW553/V1_MQTT_OK/GD32VW55X_Wifi_BLE_SDK/GD32VW55x_RELEASE_V1.0.2/MSDK/cloud/alicloud/src/protocol/coap/local\CoAPObserve.c **** 
 307              		.loc 1 81 9
 308 004c C850     		lw	a0,36(s1)
 309 004e 97000000 		call	HAL_MutexUnlock
 309      E7800000 
 310              	.LVL34:
  84:C:/Users/stapi/OneDrive/Desktop/GD32VW553/V1_MQTT_OK/GD32VW55X_Wifi_BLE_SDK/GD32VW55x_RELEASE_V1.0.2/MSDK/cloud/alicloud/src/protocol/coap/local\CoAPObserve.c ****         if(NULL == obs){
 311              		.loc 1 84 9
  84:C:/Users/stapi/OneDrive/Desktop/GD32VW553/V1_MQTT_OK/GD32VW55X_Wifi_BLE_SDK/GD32VW55x_RELEASE_V1.0.2/MSDK/cloud/alicloud/src/protocol/coap/local\CoAPObserve.c ****         if(NULL == obs){
 312              		.loc 1 84 15 is_stmt 0
 313 0056 13060003 		li	a2,48
 314 005a 8145     		li	a1,0
 315 005c 0145     		li	a0,0
 316 005e 97000000 		call	LITE_malloc_internal
 316      E7800000 
 317              	.LVL35:
 318 0066 AA84     		mv	s1,a0
 319              	.LVL36:
  85:C:/Users/stapi/OneDrive/Desktop/GD32VW553/V1_MQTT_OK/GD32VW55X_Wifi_BLE_SDK/GD32VW55x_RELEASE_V1.0.2/MSDK/cloud/alicloud/src/protocol/coap/local\CoAPObserve.c ****             COAP_ERR("Allocate memory failed");
 320              		.loc 1 85 9 is_stmt 1
  85:C:/Users/stapi/OneDrive/Desktop/GD32VW553/V1_MQTT_OK/GD32VW55X_Wifi_BLE_SDK/GD32VW55x_RELEASE_V1.0.2/MSDK/cloud/alicloud/src/protocol/coap/local\CoAPObserve.c ****             COAP_ERR("Allocate memory failed");
 321              		.loc 1 85 11 is_stmt 0
 322 0068 79E1     		bne	a0,zero,.L12
  86:C:/Users/stapi/OneDrive/Desktop/GD32VW553/V1_MQTT_OK/GD32VW55X_Wifi_BLE_SDK/GD32VW55x_RELEASE_V1.0.2/MSDK/cloud/alicloud/src/protocol/coap/local\CoAPObserve.c ****             return COAP_ERROR_MALLOC;
 323              		.loc 1 86 13 is_stmt 1
  86:C:/Users/stapi/OneDrive/Desktop/GD32VW553/V1_MQTT_OK/GD32VW55X_Wifi_BLE_SDK/GD32VW55x_RELEASE_V1.0.2/MSDK/cloud/alicloud/src/protocol/coap/local\CoAPObserve.c ****             return COAP_ERROR_MALLOC;
 324              		.loc 1 86 13
 325 006a 37050000 		lui	a0,%hi(.LC3)
 326 006e 13050500 		addi	a0,a0,%lo(.LC3)
 327 0072 97000000 		call	HAL_Printf
 327      E7800000 
 328              	.LVL37:
  86:C:/Users/stapi/OneDrive/Desktop/GD32VW553/V1_MQTT_OK/GD32VW55X_Wifi_BLE_SDK/GD32VW55x_RELEASE_V1.0.2/MSDK/cloud/alicloud/src/protocol/coap/local\CoAPObserve.c ****             return COAP_ERROR_MALLOC;
 329              		.loc 1 86 13
 330 007a 37050000 		lui	a0,%hi(.LC4)
 331 007e 13050500 		addi	a0,a0,%lo(.LC4)
 332 0082 97000000 		call	HAL_Printf
 332      E7800000 
 333              	.LVL38:
  86:C:/Users/stapi/OneDrive/Desktop/GD32VW553/V1_MQTT_OK/GD32VW55X_Wifi_BLE_SDK/GD32VW55x_RELEASE_V1.0.2/MSDK/cloud/alicloud/src/protocol/coap/local\CoAPObserve.c ****             return COAP_ERROR_MALLOC;
 334              		.loc 1 86 13
 335 008a 37050000 		lui	a0,%hi(.LC5)
 336 008e 13050500 		addi	a0,a0,%lo(.LC5)
 337 0092 97000000 		call	HAL_Printf
 337      E7800000 
 338              	.LVL39:
  86:C:/Users/stapi/OneDrive/Desktop/GD32VW553/V1_MQTT_OK/GD32VW55X_Wifi_BLE_SDK/GD32VW55x_RELEASE_V1.0.2/MSDK/cloud/alicloud/src/protocol/coap/local\CoAPObserve.c ****             return COAP_ERROR_MALLOC;
 339              		.loc 1 86 13
  87:C:/Users/stapi/OneDrive/Desktop/GD32VW553/V1_MQTT_OK/GD32VW55X_Wifi_BLE_SDK/GD32VW55x_RELEASE_V1.0.2/MSDK/cloud/alicloud/src/protocol/coap/local\CoAPObserve.c ****         }
 340              		.loc 1 87 13
  87:C:/Users/stapi/OneDrive/Desktop/GD32VW553/V1_MQTT_OK/GD32VW55X_Wifi_BLE_SDK/GD32VW55x_RELEASE_V1.0.2/MSDK/cloud/alicloud/src/protocol/coap/local\CoAPObserve.c ****         }
 341              		.loc 1 87 20 is_stmt 0
 342 009a 13053010 		li	a0,259
 343 009e 49A0     		j	.L7
 344              	.LVL40:
 345              	.L11:
  71:C:/Users/stapi/OneDrive/Desktop/GD32VW553/V1_MQTT_OK/GD32VW55X_Wifi_BLE_SDK/GD32VW55x_RELEASE_V1.0.2/MSDK/cloud/alicloud/src/protocol/coap/local\CoAPObserve.c ****                 (node->remote.port == remote->port)  &&
 346              		.loc 1 71 13 is_stmt 1
  71:C:/Users/stapi/OneDrive/Desktop/GD32VW553/V1_MQTT_OK/GD32VW55X_Wifi_BLE_SDK/GD32VW55x_RELEASE_V1.0.2/MSDK/cloud/alicloud/src/protocol/coap/local\CoAPObserve.c ****                 (node->remote.port == remote->port)  &&
 347              		.loc 1 71 15 is_stmt 0
 348 00a0 DC4C     		lw	a5,28(s1)
 349 00a2 63944709 		bne	a5,s4,.L10
  72:C:/Users/stapi/OneDrive/Desktop/GD32VW553/V1_MQTT_OK/GD32VW55X_Wifi_BLE_SDK/GD32VW55x_RELEASE_V1.0.2/MSDK/cloud/alicloud/src/protocol/coap/local\CoAPObserve.c ****                 (0 == memcmp(node->remote.addr, remote->addr, NETWORK_ADDR_LEN))){
 350              		.loc 1 72 30 discriminator 1
 351 00a6 83D70401 		lhu	a5,16(s1)
  71:C:/Users/stapi/OneDrive/Desktop/GD32VW553/V1_MQTT_OK/GD32VW55X_Wifi_BLE_SDK/GD32VW55x_RELEASE_V1.0.2/MSDK/cloud/alicloud/src/protocol/coap/local\CoAPObserve.c ****                 (node->remote.port == remote->port)  &&
 352              		.loc 1 71 59 discriminator 1
 353 00aa 03D80901 		lhu	a6,16(s3)
 354 00ae 631EF806 		bne	a6,a5,.L10
  73:C:/Users/stapi/OneDrive/Desktop/GD32VW553/V1_MQTT_OK/GD32VW55X_Wifi_BLE_SDK/GD32VW55x_RELEASE_V1.0.2/MSDK/cloud/alicloud/src/protocol/coap/local\CoAPObserve.c ****                     COAP_DEBUG("The observe client %s:%d already exist,update it", node->remote.add
 355              		.loc 1 73 23
 356 00b2 4146     		li	a2,16
 357 00b4 CE85     		mv	a1,s3
 358 00b6 2685     		mv	a0,s1
 359 00b8 42C6     		sw	a6,12(sp)
 360 00ba 97000000 		call	memcmp
 360      E7800000 
 361              	.LVL41:
  72:C:/Users/stapi/OneDrive/Desktop/GD32VW553/V1_MQTT_OK/GD32VW55X_Wifi_BLE_SDK/GD32VW55x_RELEASE_V1.0.2/MSDK/cloud/alicloud/src/protocol/coap/local\CoAPObserve.c ****                 (0 == memcmp(node->remote.addr, remote->addr, NETWORK_ADDR_LEN))){
 362              		.loc 1 72 54
 363 00c2 3248     		lw	a6,12(sp)
 364 00c4 3DE1     		bne	a0,zero,.L10
  74:C:/Users/stapi/OneDrive/Desktop/GD32VW553/V1_MQTT_OK/GD32VW55X_Wifi_BLE_SDK/GD32VW55x_RELEASE_V1.0.2/MSDK/cloud/alicloud/src/protocol/coap/local\CoAPObserve.c ****                     memcpy(node->token, request->token, request->header.tokenlen);
 365              		.loc 1 74 21 is_stmt 1
 366 00c6 37070000 		lui	a4,%hi(.LC2)
 367 00ca B7050000 		lui	a1,%hi(.LANCHOR1)
 368 00ce 37050000 		lui	a0,%hi(.LC1)
 369 00d2 A687     		mv	a5,s1
 370 00d4 13070700 		addi	a4,a4,%lo(.LC2)
 371 00d8 9546     		li	a3,5
 372 00da 1306A004 		li	a2,74
 373 00de 93850500 		addi	a1,a1,%lo(.LANCHOR1)
 374 00e2 13050500 		addi	a0,a0,%lo(.LC1)
 375 00e6 97000000 		call	LITE_syslog
 375      E7800000 
 376              	.LVL42:
  75:C:/Users/stapi/OneDrive/Desktop/GD32VW553/V1_MQTT_OK/GD32VW55X_Wifi_BLE_SDK/GD32VW55x_RELEASE_V1.0.2/MSDK/cloud/alicloud/src/protocol/coap/local\CoAPObserve.c ****                     node->tokenlen = request->header.tokenlen;
 377              		.loc 1 75 21
  75:C:/Users/stapi/OneDrive/Desktop/GD32VW553/V1_MQTT_OK/GD32VW55X_Wifi_BLE_SDK/GD32VW55x_RELEASE_V1.0.2/MSDK/cloud/alicloud/src/protocol/coap/local\CoAPObserve.c ****                     node->tokenlen = request->header.tokenlen;
 378              		.loc 1 75 72 is_stmt 0
 379 00ee 03260900 		lw	a2,0(s2)
  75:C:/Users/stapi/OneDrive/Desktop/GD32VW553/V1_MQTT_OK/GD32VW55X_Wifi_BLE_SDK/GD32VW55x_RELEASE_V1.0.2/MSDK/cloud/alicloud/src/protocol/coap/local\CoAPObserve.c ****                     node->tokenlen = request->header.tokenlen;
 380              		.loc 1 75 21
 381 00f2 93054900 		addi	a1,s2,4
 382 00f6 13852401 		addi	a0,s1,18
  75:C:/Users/stapi/OneDrive/Desktop/GD32VW553/V1_MQTT_OK/GD32VW55X_Wifi_BLE_SDK/GD32VW55x_RELEASE_V1.0.2/MSDK/cloud/alicloud/src/protocol/coap/local\CoAPObserve.c ****                     node->tokenlen = request->header.tokenlen;
 383              		.loc 1 75 72
 384 00fa 1182     		srli	a2,a2,4
  75:C:/Users/stapi/OneDrive/Desktop/GD32VW553/V1_MQTT_OK/GD32VW55X_Wifi_BLE_SDK/GD32VW55x_RELEASE_V1.0.2/MSDK/cloud/alicloud/src/protocol/coap/local\CoAPObserve.c ****                     node->tokenlen = request->header.tokenlen;
 385              		.loc 1 75 21
 386 00fc 3D8A     		andi	a2,a2,15
 387 00fe 97000000 		call	memcpy
 387      E7800000 
 388              	.LVL43:
  76:C:/Users/stapi/OneDrive/Desktop/GD32VW553/V1_MQTT_OK/GD32VW55X_Wifi_BLE_SDK/GD32VW55x_RELEASE_V1.0.2/MSDK/cloud/alicloud/src/protocol/coap/local\CoAPObserve.c ****                     HAL_MutexUnlock(ctx->obsserver.list_mutex);
 389              		.loc 1 76 21 is_stmt 1
  76:C:/Users/stapi/OneDrive/Desktop/GD32VW553/V1_MQTT_OK/GD32VW55X_Wifi_BLE_SDK/GD32VW55x_RELEASE_V1.0.2/MSDK/cloud/alicloud/src/protocol/coap/local\CoAPObserve.c ****                     HAL_MutexUnlock(ctx->obsserver.list_mutex);
 390              		.loc 1 76 53 is_stmt 0
 391 0106 83270900 		lw	a5,0(s2)
 392 010a 9183     		srli	a5,a5,4
 393 010c BD8B     		andi	a5,a5,15
  76:C:/Users/stapi/OneDrive/Desktop/GD32VW553/V1_MQTT_OK/GD32VW55X_Wifi_BLE_SDK/GD32VW55x_RELEASE_V1.0.2/MSDK/cloud/alicloud/src/protocol/coap/local\CoAPObserve.c ****                     HAL_MutexUnlock(ctx->obsserver.list_mutex);
 394              		.loc 1 76 36
 395 010e 238DF400 		sb	a5,26(s1)
  77:C:/Users/stapi/OneDrive/Desktop/GD32VW553/V1_MQTT_OK/GD32VW55X_Wifi_BLE_SDK/GD32VW55x_RELEASE_V1.0.2/MSDK/cloud/alicloud/src/protocol/coap/local\CoAPObserve.c ****                     return COAP_ERROR_OBJ_ALREADY_EXIST;
 396              		.loc 1 77 21 is_stmt 1
 397 0112 4850     		lw	a0,36(s0)
 398 0114 97000000 		call	HAL_MutexUnlock
 398      E7800000 
 399              	.LVL44:
  78:C:/Users/stapi/OneDrive/Desktop/GD32VW553/V1_MQTT_OK/GD32VW55X_Wifi_BLE_SDK/GD32VW55x_RELEASE_V1.0.2/MSDK/cloud/alicloud/src/protocol/coap/local\CoAPObserve.c ****                 }
 400              		.loc 1 78 21
  78:C:/Users/stapi/OneDrive/Desktop/GD32VW553/V1_MQTT_OK/GD32VW55X_Wifi_BLE_SDK/GD32VW55x_RELEASE_V1.0.2/MSDK/cloud/alicloud/src/protocol/coap/local\CoAPObserve.c ****                 }
 401              		.loc 1 78 28 is_stmt 0
 402 011c 1305E010 		li	a0,270
 403              	.LVL45:
 404              	.L7:
 122:C:/Users/stapi/OneDrive/Desktop/GD32VW553/V1_MQTT_OK/GD32VW55X_Wifi_BLE_SDK/GD32VW55x_RELEASE_V1.0.2/MSDK/cloud/alicloud/src/protocol/coap/local\CoAPObserve.c **** }
 405              		.loc 1 122 1
 406 0120 0561     		addi	sp,sp,32
 407              		.cfi_remember_state
 408              		.cfi_def_cfa_offset 0
 409 0122 17030000 		tail	__riscv_restore_5
 409      67000300 
 410              		.cfi_restore 20
 411              		.cfi_restore 19
 412              		.cfi_restore 18
 413              		.cfi_restore 9
 414              		.cfi_restore 8
 415              		.cfi_restore 1
 416              		.cfi_def_cfa_offset -32
 417              	.LVL46:
 418              	.L10:
 419              		.cfi_restore_state
  70:C:/Users/stapi/OneDrive/Desktop/GD32VW553/V1_MQTT_OK/GD32VW55X_Wifi_BLE_SDK/GD32VW55x_RELEASE_V1.0.2/MSDK/cloud/alicloud/src/protocol/coap/local\CoAPObserve.c ****             if((node->p_resource_of_interest == resource) &&
 420              		.loc 1 70 9 is_stmt 1 discriminator 2
 421 012a C454     		lw	s1,44(s1)
 422              	.LVL47:
 423 012c 21BF     		j	.L19
 424              	.LVL48:
 425              	.L12:
  90:C:/Users/stapi/OneDrive/Desktop/GD32VW553/V1_MQTT_OK/GD32VW55X_Wifi_BLE_SDK/GD32VW55x_RELEASE_V1.0.2/MSDK/cloud/alicloud/src/protocol/coap/local\CoAPObserve.c ****         obs->msg_type = request->header.type;
 426              		.loc 1 90 9
 427 012e 13060003 		li	a2,48
 428 0132 8145     		li	a1,0
 429 0134 97000000 		call	memset
 429      E7800000 
 430              	.LVL49:
  91:C:/Users/stapi/OneDrive/Desktop/GD32VW553/V1_MQTT_OK/GD32VW55X_Wifi_BLE_SDK/GD32VW55x_RELEASE_V1.0.2/MSDK/cloud/alicloud/src/protocol/coap/local\CoAPObserve.c ****         obs->p_resource_of_interest = resource;
 431              		.loc 1 91 9
  91:C:/Users/stapi/OneDrive/Desktop/GD32VW553/V1_MQTT_OK/GD32VW55X_Wifi_BLE_SDK/GD32VW55x_RELEASE_V1.0.2/MSDK/cloud/alicloud/src/protocol/coap/local\CoAPObserve.c ****         obs->p_resource_of_interest = resource;
 432              		.loc 1 91 40 is_stmt 0
 433 013c 83270900 		lw	a5,0(s2)
  93:C:/Users/stapi/OneDrive/Desktop/GD32VW553/V1_MQTT_OK/GD32VW55X_Wifi_BLE_SDK/GD32VW55x_RELEASE_V1.0.2/MSDK/cloud/alicloud/src/protocol/coap/local\CoAPObserve.c ****         memcpy(obs->token, request->token, request->header.tokenlen);
 434              		.loc 1 93 9
 435 0140 4946     		li	a2,18
 436 0142 CE85     		mv	a1,s3
  91:C:/Users/stapi/OneDrive/Desktop/GD32VW553/V1_MQTT_OK/GD32VW55X_Wifi_BLE_SDK/GD32VW55x_RELEASE_V1.0.2/MSDK/cloud/alicloud/src/protocol/coap/local\CoAPObserve.c ****         obs->p_resource_of_interest = resource;
 437              		.loc 1 91 40
 438 0144 8983     		srli	a5,a5,2
 439 0146 8D8B     		andi	a5,a5,3
 440 0148 DCD0     		sw	a5,36(s1)
  92:C:/Users/stapi/OneDrive/Desktop/GD32VW553/V1_MQTT_OK/GD32VW55X_Wifi_BLE_SDK/GD32VW55x_RELEASE_V1.0.2/MSDK/cloud/alicloud/src/protocol/coap/local\CoAPObserve.c ****         memcpy(&obs->remote, remote, sizeof(NetworkAddr));
 441              		.loc 1 92 9 is_stmt 1
  92:C:/Users/stapi/OneDrive/Desktop/GD32VW553/V1_MQTT_OK/GD32VW55X_Wifi_BLE_SDK/GD32VW55x_RELEASE_V1.0.2/MSDK/cloud/alicloud/src/protocol/coap/local\CoAPObserve.c ****         memcpy(&obs->remote, remote, sizeof(NetworkAddr));
 442              		.loc 1 92 37 is_stmt 0
 443 014a 23AE4401 		sw	s4,28(s1)
  93:C:/Users/stapi/OneDrive/Desktop/GD32VW553/V1_MQTT_OK/GD32VW55X_Wifi_BLE_SDK/GD32VW55x_RELEASE_V1.0.2/MSDK/cloud/alicloud/src/protocol/coap/local\CoAPObserve.c ****         memcpy(obs->token, request->token, request->header.tokenlen);
 444              		.loc 1 93 9 is_stmt 1
 445 014e 2685     		mv	a0,s1
 446 0150 97000000 		call	memcpy
 446      E7800000 
 447              	.LVL50:
  94:C:/Users/stapi/OneDrive/Desktop/GD32VW553/V1_MQTT_OK/GD32VW55X_Wifi_BLE_SDK/GD32VW55x_RELEASE_V1.0.2/MSDK/cloud/alicloud/src/protocol/coap/local\CoAPObserve.c ****         obs->tokenlen = request->header.tokenlen;
 448              		.loc 1 94 9
  94:C:/Users/stapi/OneDrive/Desktop/GD32VW553/V1_MQTT_OK/GD32VW55X_Wifi_BLE_SDK/GD32VW55x_RELEASE_V1.0.2/MSDK/cloud/alicloud/src/protocol/coap/local\CoAPObserve.c ****         obs->tokenlen = request->header.tokenlen;
 449              		.loc 1 94 59 is_stmt 0
 450 0158 03260900 		lw	a2,0(s2)
  94:C:/Users/stapi/OneDrive/Desktop/GD32VW553/V1_MQTT_OK/GD32VW55X_Wifi_BLE_SDK/GD32VW55x_RELEASE_V1.0.2/MSDK/cloud/alicloud/src/protocol/coap/local\CoAPObserve.c ****         obs->tokenlen = request->header.tokenlen;
 451              		.loc 1 94 9
 452 015c 93054900 		addi	a1,s2,4
 453 0160 13852401 		addi	a0,s1,18
  94:C:/Users/stapi/OneDrive/Desktop/GD32VW553/V1_MQTT_OK/GD32VW55X_Wifi_BLE_SDK/GD32VW55x_RELEASE_V1.0.2/MSDK/cloud/alicloud/src/protocol/coap/local\CoAPObserve.c ****         obs->tokenlen = request->header.tokenlen;
 454              		.loc 1 94 59
 455 0164 1182     		srli	a2,a2,4
  94:C:/Users/stapi/OneDrive/Desktop/GD32VW553/V1_MQTT_OK/GD32VW55X_Wifi_BLE_SDK/GD32VW55x_RELEASE_V1.0.2/MSDK/cloud/alicloud/src/protocol/coap/local\CoAPObserve.c ****         obs->tokenlen = request->header.tokenlen;
 456              		.loc 1 94 9
 457 0166 3D8A     		andi	a2,a2,15
 458 0168 97000000 		call	memcpy
 458      E7800000 
 459              	.LVL51:
  95:C:/Users/stapi/OneDrive/Desktop/GD32VW553/V1_MQTT_OK/GD32VW55X_Wifi_BLE_SDK/GD32VW55x_RELEASE_V1.0.2/MSDK/cloud/alicloud/src/protocol/coap/local\CoAPObserve.c **** 
 460              		.loc 1 95 9 is_stmt 1
  95:C:/Users/stapi/OneDrive/Desktop/GD32VW553/V1_MQTT_OK/GD32VW55X_Wifi_BLE_SDK/GD32VW55x_RELEASE_V1.0.2/MSDK/cloud/alicloud/src/protocol/coap/local\CoAPObserve.c **** 
 461              		.loc 1 95 40 is_stmt 0
 462 0170 83270900 		lw	a5,0(s2)
  98:C:/Users/stapi/OneDrive/Desktop/GD32VW553/V1_MQTT_OK/GD32VW55X_Wifi_BLE_SDK/GD32VW55x_RELEASE_V1.0.2/MSDK/cloud/alicloud/src/protocol/coap/local\CoAPObserve.c ****         obs->ctype = (acceptype==0) ? COAP_CT_APP_JSON : acceptype;
 463              		.loc 1 98 9
 464 0174 7008     		addi	a2,sp,28
 465 0176 C545     		li	a1,17
  95:C:/Users/stapi/OneDrive/Desktop/GD32VW553/V1_MQTT_OK/GD32VW55X_Wifi_BLE_SDK/GD32VW55x_RELEASE_V1.0.2/MSDK/cloud/alicloud/src/protocol/coap/local\CoAPObserve.c **** 
 466              		.loc 1 95 40
 467 0178 9183     		srli	a5,a5,4
 468 017a BD8B     		andi	a5,a5,15
  95:C:/Users/stapi/OneDrive/Desktop/GD32VW553/V1_MQTT_OK/GD32VW55X_Wifi_BLE_SDK/GD32VW55x_RELEASE_V1.0.2/MSDK/cloud/alicloud/src/protocol/coap/local\CoAPObserve.c **** 
 469              		.loc 1 95 23
 470 017c 238DF400 		sb	a5,26(s1)
  98:C:/Users/stapi/OneDrive/Desktop/GD32VW553/V1_MQTT_OK/GD32VW55X_Wifi_BLE_SDK/GD32VW55x_RELEASE_V1.0.2/MSDK/cloud/alicloud/src/protocol/coap/local\CoAPObserve.c ****         obs->ctype = (acceptype==0) ? COAP_CT_APP_JSON : acceptype;
 471              		.loc 1 98 9 is_stmt 1
 472 0180 4A85     		mv	a0,s2
 473 0182 97000000 		call	CoAPUintOption_get
 473      E7800000 
 474              	.LVL52:
  99:C:/Users/stapi/OneDrive/Desktop/GD32VW553/V1_MQTT_OK/GD32VW55X_Wifi_BLE_SDK/GD32VW55x_RELEASE_V1.0.2/MSDK/cloud/alicloud/src/protocol/coap/local\CoAPObserve.c ****         obs->observer_sequence_num = 0;
 475              		.loc 1 99 9
  99:C:/Users/stapi/OneDrive/Desktop/GD32VW553/V1_MQTT_OK/GD32VW55X_Wifi_BLE_SDK/GD32VW55x_RELEASE_V1.0.2/MSDK/cloud/alicloud/src/protocol/coap/local\CoAPObserve.c ****         obs->observer_sequence_num = 0;
 476              		.loc 1 99 32 is_stmt 0
 477 018a F247     		lw	a5,28(sp)
  99:C:/Users/stapi/OneDrive/Desktop/GD32VW553/V1_MQTT_OK/GD32VW55X_Wifi_BLE_SDK/GD32VW55x_RELEASE_V1.0.2/MSDK/cloud/alicloud/src/protocol/coap/local\CoAPObserve.c ****         obs->observer_sequence_num = 0;
 478              		.loc 1 99 20
 479 018c 99E3     		bne	a5,zero,.L13
 480 018e 93072003 		li	a5,50
 481              	.L13:
  99:C:/Users/stapi/OneDrive/Desktop/GD32VW553/V1_MQTT_OK/GD32VW55X_Wifi_BLE_SDK/GD32VW55x_RELEASE_V1.0.2/MSDK/cloud/alicloud/src/protocol/coap/local\CoAPObserve.c ****         obs->observer_sequence_num = 0;
 482              		.loc 1 99 20 discriminator 4
 483 0192 A38DF400 		sb	a5,27(s1)
 100:C:/Users/stapi/OneDrive/Desktop/GD32VW553/V1_MQTT_OK/GD32VW55X_Wifi_BLE_SDK/GD32VW55x_RELEASE_V1.0.2/MSDK/cloud/alicloud/src/protocol/coap/local\CoAPObserve.c **** 
 484              		.loc 1 100 9 is_stmt 1 discriminator 4
 105:C:/Users/stapi/OneDrive/Desktop/GD32VW553/V1_MQTT_OK/GD32VW55X_Wifi_BLE_SDK/GD32VW55x_RELEASE_V1.0.2/MSDK/cloud/alicloud/src/protocol/coap/local\CoAPObserve.c ****         if (ctx->obsserver.count >= ctx->obsserver.maxcount) {
 485              		.loc 1 105 9 is_stmt 0 discriminator 4
 486 0196 4850     		lw	a0,36(s0)
 100:C:/Users/stapi/OneDrive/Desktop/GD32VW553/V1_MQTT_OK/GD32VW55X_Wifi_BLE_SDK/GD32VW55x_RELEASE_V1.0.2/MSDK/cloud/alicloud/src/protocol/coap/local\CoAPObserve.c **** 
 487              		.loc 1 100 36 discriminator 4
 488 0198 23A00402 		sw	zero,32(s1)
 105:C:/Users/stapi/OneDrive/Desktop/GD32VW553/V1_MQTT_OK/GD32VW55X_Wifi_BLE_SDK/GD32VW55x_RELEASE_V1.0.2/MSDK/cloud/alicloud/src/protocol/coap/local\CoAPObserve.c ****         if (ctx->obsserver.count >= ctx->obsserver.maxcount) {
 489              		.loc 1 105 9 is_stmt 1 discriminator 4
 490 019c 97000000 		call	HAL_MutexLock
 490      E7800000 
 491              	.LVL53:
 106:C:/Users/stapi/OneDrive/Desktop/GD32VW553/V1_MQTT_OK/GD32VW55X_Wifi_BLE_SDK/GD32VW55x_RELEASE_V1.0.2/MSDK/cloud/alicloud/src/protocol/coap/local\CoAPObserve.c ****             HAL_MutexUnlock(ctx->obsserver.list_mutex);
 492              		.loc 1 106 9 discriminator 4
 106:C:/Users/stapi/OneDrive/Desktop/GD32VW553/V1_MQTT_OK/GD32VW55X_Wifi_BLE_SDK/GD32VW55x_RELEASE_V1.0.2/MSDK/cloud/alicloud/src/protocol/coap/local\CoAPObserve.c ****             HAL_MutexUnlock(ctx->obsserver.list_mutex);
 493              		.loc 1 106 27 is_stmt 0 discriminator 4
 494 01a4 83470403 		lbu	a5,48(s0)
 106:C:/Users/stapi/OneDrive/Desktop/GD32VW553/V1_MQTT_OK/GD32VW55X_Wifi_BLE_SDK/GD32VW55x_RELEASE_V1.0.2/MSDK/cloud/alicloud/src/protocol/coap/local\CoAPObserve.c ****             HAL_MutexUnlock(ctx->obsserver.list_mutex);
 495              		.loc 1 106 12 discriminator 4
 496 01a8 03471403 		lbu	a4,49(s0)
 497 01ac 63EBE704 		bgtu	a4,a5,.L14
 107:C:/Users/stapi/OneDrive/Desktop/GD32VW553/V1_MQTT_OK/GD32VW55X_Wifi_BLE_SDK/GD32VW55x_RELEASE_V1.0.2/MSDK/cloud/alicloud/src/protocol/coap/local\CoAPObserve.c ****             coap_free(obs);
 498              		.loc 1 107 13 is_stmt 1
 499 01b0 4850     		lw	a0,36(s0)
 500 01b2 97000000 		call	HAL_MutexUnlock
 500      E7800000 
 501              	.LVL54:
 108:C:/Users/stapi/OneDrive/Desktop/GD32VW553/V1_MQTT_OK/GD32VW55X_Wifi_BLE_SDK/GD32VW55x_RELEASE_V1.0.2/MSDK/cloud/alicloud/src/protocol/coap/local\CoAPObserve.c ****             COAP_INFO("Cur have %d observer, max allow %d", ctx->obsserver.count, ctx->obsserver.ma
 502              		.loc 1 108 13
 503 01ba 2685     		mv	a0,s1
 504 01bc 97000000 		call	LITE_free_internal
 504      E7800000 
 505              	.LVL55:
 109:C:/Users/stapi/OneDrive/Desktop/GD32VW553/V1_MQTT_OK/GD32VW55X_Wifi_BLE_SDK/GD32VW55x_RELEASE_V1.0.2/MSDK/cloud/alicloud/src/protocol/coap/local\CoAPObserve.c ****             return COAP_ERROR_DATA_SIZE;
 506              		.loc 1 109 13
 109:C:/Users/stapi/OneDrive/Desktop/GD32VW553/V1_MQTT_OK/GD32VW55X_Wifi_BLE_SDK/GD32VW55x_RELEASE_V1.0.2/MSDK/cloud/alicloud/src/protocol/coap/local\CoAPObserve.c ****             return COAP_ERROR_DATA_SIZE;
 507              		.loc 1 109 13
 508 01c4 37050000 		lui	a0,%hi(.LC6)
 509 01c8 13050500 		addi	a0,a0,%lo(.LC6)
 510 01cc 97000000 		call	HAL_Printf
 510      E7800000 
 511              	.LVL56:
 109:C:/Users/stapi/OneDrive/Desktop/GD32VW553/V1_MQTT_OK/GD32VW55X_Wifi_BLE_SDK/GD32VW55x_RELEASE_V1.0.2/MSDK/cloud/alicloud/src/protocol/coap/local\CoAPObserve.c ****             return COAP_ERROR_DATA_SIZE;
 512              		.loc 1 109 13
 513 01d4 03461403 		lbu	a2,49(s0)
 514 01d8 83450403 		lbu	a1,48(s0)
 515 01dc 37050000 		lui	a0,%hi(.LC7)
 516 01e0 13050500 		addi	a0,a0,%lo(.LC7)
 517 01e4 97000000 		call	HAL_Printf
 517      E7800000 
 518              	.LVL57:
 109:C:/Users/stapi/OneDrive/Desktop/GD32VW553/V1_MQTT_OK/GD32VW55X_Wifi_BLE_SDK/GD32VW55x_RELEASE_V1.0.2/MSDK/cloud/alicloud/src/protocol/coap/local\CoAPObserve.c ****             return COAP_ERROR_DATA_SIZE;
 519              		.loc 1 109 13
 520 01ec 37050000 		lui	a0,%hi(.LC5)
 521 01f0 13050500 		addi	a0,a0,%lo(.LC5)
 522 01f4 97000000 		call	HAL_Printf
 522      E7800000 
 523              	.LVL58:
 109:C:/Users/stapi/OneDrive/Desktop/GD32VW553/V1_MQTT_OK/GD32VW55X_Wifi_BLE_SDK/GD32VW55x_RELEASE_V1.0.2/MSDK/cloud/alicloud/src/protocol/coap/local\CoAPObserve.c ****             return COAP_ERROR_DATA_SIZE;
 524              		.loc 1 109 13
 110:C:/Users/stapi/OneDrive/Desktop/GD32VW553/V1_MQTT_OK/GD32VW55X_Wifi_BLE_SDK/GD32VW55x_RELEASE_V1.0.2/MSDK/cloud/alicloud/src/protocol/coap/local\CoAPObserve.c ****         } else {
 525              		.loc 1 110 13
 110:C:/Users/stapi/OneDrive/Desktop/GD32VW553/V1_MQTT_OK/GD32VW55X_Wifi_BLE_SDK/GD32VW55x_RELEASE_V1.0.2/MSDK/cloud/alicloud/src/protocol/coap/local\CoAPObserve.c ****         } else {
 526              		.loc 1 110 20 is_stmt 0
 527 01fc 13055010 		li	a0,261
 528 0200 05B7     		j	.L7
 529              	.L14:
 112:C:/Users/stapi/OneDrive/Desktop/GD32VW553/V1_MQTT_OK/GD32VW55X_Wifi_BLE_SDK/GD32VW55x_RELEASE_V1.0.2/MSDK/cloud/alicloud/src/protocol/coap/local\CoAPObserve.c ****             ctx->obsserver.count ++;
 530              		.loc 1 112 13 is_stmt 1
 531              	.LBB18:
 532              	.LBB19:
  63:..\..\..\..\cloud\alicloud\src\infra\utils\misc/lite-list.h **** }
 533              		.loc 2 63 28 is_stmt 0
 534 0202 1454     		lw	a3,40(s0)
 535              	.LBE19:
 536              	.LBE18:
 112:C:/Users/stapi/OneDrive/Desktop/GD32VW553/V1_MQTT_OK/GD32VW55X_Wifi_BLE_SDK/GD32VW55x_RELEASE_V1.0.2/MSDK/cloud/alicloud/src/protocol/coap/local\CoAPObserve.c ****             ctx->obsserver.count ++;
 537              		.loc 1 112 42
 538 0204 13068402 		addi	a2,s0,40
 539              	.LBB29:
 540              	.LBB26:
 541              	.LBB20:
 542              	.LBB21:
  38:..\..\..\..\cloud\alicloud\src\infra\utils\misc/lite-list.h ****     node->prev = prev;
 543              		.loc 2 38 16
 544 0208 D0D4     		sw	a2,44(s1)
  39:..\..\..\..\cloud\alicloud\src\infra\utils\misc/lite-list.h **** 
 545              		.loc 2 39 16
 546 020a 94D4     		sw	a3,40(s1)
 547              	.LBE21:
 548              	.LBE20:
 549              	.LBE26:
 550              	.LBE29:
 112:C:/Users/stapi/OneDrive/Desktop/GD32VW553/V1_MQTT_OK/GD32VW55X_Wifi_BLE_SDK/GD32VW55x_RELEASE_V1.0.2/MSDK/cloud/alicloud/src/protocol/coap/local\CoAPObserve.c ****             ctx->obsserver.count ++;
 551              		.loc 1 112 27
 552 020c 13878402 		addi	a4,s1,40
 553              	.LVL59:
 554              	.LBB30:
 555              	.LBB27:
  63:..\..\..\..\cloud\alicloud\src\infra\utils\misc/lite-list.h **** }
 556              		.loc 2 63 5 is_stmt 1
 557              	.LBB24:
 558              	.LBB22:
  38:..\..\..\..\cloud\alicloud\src\infra\utils\misc/lite-list.h ****     node->prev = prev;
 559              		.loc 2 38 5
  39:..\..\..\..\cloud\alicloud\src\infra\utils\misc/lite-list.h **** 
 560              		.loc 2 39 5
  41:..\..\..\..\cloud\alicloud\src\infra\utils\misc/lite-list.h ****     next->prev = node;
 561              		.loc 2 41 5
  41:..\..\..\..\cloud\alicloud\src\infra\utils\misc/lite-list.h ****     next->prev = node;
 562              		.loc 2 41 16 is_stmt 0
 563 0210 D8C2     		sw	a4,4(a3)
  42:..\..\..\..\cloud\alicloud\src\infra\utils\misc/lite-list.h **** }
 564              		.loc 2 42 5 is_stmt 1
 565              	.LBE22:
 566              	.LBE24:
 567              	.LBE27:
 568              	.LBE30:
 113:C:/Users/stapi/OneDrive/Desktop/GD32VW553/V1_MQTT_OK/GD32VW55X_Wifi_BLE_SDK/GD32VW55x_RELEASE_V1.0.2/MSDK/cloud/alicloud/src/protocol/coap/local\CoAPObserve.c ****             COAP_DEBUG("Create a observe node, cur have %d nodes", ctx->obsserver.count);
 569              		.loc 1 113 34 is_stmt 0
 570 0212 8507     		addi	a5,a5,1
 571 0214 93F7F70F 		andi	a5,a5,0xff
 572              	.LBB31:
 573              	.LBB28:
 574              	.LBB25:
 575              	.LBB23:
  42:..\..\..\..\cloud\alicloud\src\infra\utils\misc/lite-list.h **** }
 576              		.loc 2 42 16
 577 0218 18D4     		sw	a4,40(s0)
 578              	.LVL60:
 579              	.LBE23:
 580              	.LBE25:
 581              	.LBE28:
 582              	.LBE31:
 113:C:/Users/stapi/OneDrive/Desktop/GD32VW553/V1_MQTT_OK/GD32VW55X_Wifi_BLE_SDK/GD32VW55x_RELEASE_V1.0.2/MSDK/cloud/alicloud/src/protocol/coap/local\CoAPObserve.c ****             COAP_DEBUG("Create a observe node, cur have %d nodes", ctx->obsserver.count);
 583              		.loc 1 113 13 is_stmt 1
 114:C:/Users/stapi/OneDrive/Desktop/GD32VW553/V1_MQTT_OK/GD32VW55X_Wifi_BLE_SDK/GD32VW55x_RELEASE_V1.0.2/MSDK/cloud/alicloud/src/protocol/coap/local\CoAPObserve.c ****             HAL_MutexUnlock(ctx->obsserver.list_mutex);
 584              		.loc 1 114 13 is_stmt 0
 585 021a B7050000 		lui	a1,%hi(.LANCHOR1)
 586 021e 37070000 		lui	a4,%hi(.LC8)
 587 0222 37050000 		lui	a0,%hi(.LC1)
 113:C:/Users/stapi/OneDrive/Desktop/GD32VW553/V1_MQTT_OK/GD32VW55X_Wifi_BLE_SDK/GD32VW55x_RELEASE_V1.0.2/MSDK/cloud/alicloud/src/protocol/coap/local\CoAPObserve.c ****             COAP_DEBUG("Create a observe node, cur have %d nodes", ctx->obsserver.count);
 588              		.loc 1 113 34
 589 0226 2308F402 		sb	a5,48(s0)
 114:C:/Users/stapi/OneDrive/Desktop/GD32VW553/V1_MQTT_OK/GD32VW55X_Wifi_BLE_SDK/GD32VW55x_RELEASE_V1.0.2/MSDK/cloud/alicloud/src/protocol/coap/local\CoAPObserve.c ****             HAL_MutexUnlock(ctx->obsserver.list_mutex);
 590              		.loc 1 114 13 is_stmt 1
 591 022a 13070700 		addi	a4,a4,%lo(.LC8)
 592 022e 9546     		li	a3,5
 593 0230 13062007 		li	a2,114
 594 0234 93850500 		addi	a1,a1,%lo(.LANCHOR1)
 595 0238 13050500 		addi	a0,a0,%lo(.LC1)
 596 023c 97000000 		call	LITE_syslog
 596      E7800000 
 597              	.LVL61:
 115:C:/Users/stapi/OneDrive/Desktop/GD32VW553/V1_MQTT_OK/GD32VW55X_Wifi_BLE_SDK/GD32VW55x_RELEASE_V1.0.2/MSDK/cloud/alicloud/src/protocol/coap/local\CoAPObserve.c ****             return COAP_SUCCESS;
 598              		.loc 1 115 13
 599 0244 4850     		lw	a0,36(s0)
 600 0246 97000000 		call	HAL_MutexUnlock
 600      E7800000 
 601              	.LVL62:
 116:C:/Users/stapi/OneDrive/Desktop/GD32VW553/V1_MQTT_OK/GD32VW55X_Wifi_BLE_SDK/GD32VW55x_RELEASE_V1.0.2/MSDK/cloud/alicloud/src/protocol/coap/local\CoAPObserve.c ****         }
 602              		.loc 1 116 13
 116:C:/Users/stapi/OneDrive/Desktop/GD32VW553/V1_MQTT_OK/GD32VW55X_Wifi_BLE_SDK/GD32VW55x_RELEASE_V1.0.2/MSDK/cloud/alicloud/src/protocol/coap/local\CoAPObserve.c ****         }
 603              		.loc 1 116 20 is_stmt 0
 604 024e 0145     		li	a0,0
 605 0250 C1BD     		j	.L7
 606              	.LVL63:
 607              	.L15:
 121:C:/Users/stapi/OneDrive/Desktop/GD32VW553/V1_MQTT_OK/GD32VW55X_Wifi_BLE_SDK/GD32VW55x_RELEASE_V1.0.2/MSDK/cloud/alicloud/src/protocol/coap/local\CoAPObserve.c **** }
 608              		.loc 1 121 12
 609 0252 13057010 		li	a0,263
 610              	.LVL64:
 611 0256 E9B5     		j	.L7
 612              		.cfi_endproc
 613              	.LFE22:
 615              		.section	.text.CoapObsServer_delete,"ax",@progbits
 616              		.align	1
 617              		.globl	CoapObsServer_delete
 619              	CoapObsServer_delete:
 620              	.LFB23:
 123:C:/Users/stapi/OneDrive/Desktop/GD32VW553/V1_MQTT_OK/GD32VW55X_Wifi_BLE_SDK/GD32VW55x_RELEASE_V1.0.2/MSDK/cloud/alicloud/src/protocol/coap/local\CoAPObserve.c **** 
 124:C:/Users/stapi/OneDrive/Desktop/GD32VW553/V1_MQTT_OK/GD32VW55X_Wifi_BLE_SDK/GD32VW55x_RELEASE_V1.0.2/MSDK/cloud/alicloud/src/protocol/coap/local\CoAPObserve.c **** 
 125:C:/Users/stapi/OneDrive/Desktop/GD32VW553/V1_MQTT_OK/GD32VW55X_Wifi_BLE_SDK/GD32VW55x_RELEASE_V1.0.2/MSDK/cloud/alicloud/src/protocol/coap/local\CoAPObserve.c **** int CoapObsServer_delete(CoAPContext *context,          NetworkAddr  *remote,
 126:C:/Users/stapi/OneDrive/Desktop/GD32VW553/V1_MQTT_OK/GD32VW55X_Wifi_BLE_SDK/GD32VW55x_RELEASE_V1.0.2/MSDK/cloud/alicloud/src/protocol/coap/local\CoAPObserve.c ****                                       CoAPResource *resource)
 127:C:/Users/stapi/OneDrive/Desktop/GD32VW553/V1_MQTT_OK/GD32VW55X_Wifi_BLE_SDK/GD32VW55x_RELEASE_V1.0.2/MSDK/cloud/alicloud/src/protocol/coap/local\CoAPObserve.c **** {
 621              		.loc 1 127 1 is_stmt 1
 622              		.cfi_startproc
 623              	.LVL65:
 624 0000 17030000 		call	t0,__riscv_save_5
 624      E7020300 
 625              		.cfi_offset 20, -24
 626              		.cfi_offset 19, -20
 627              		.cfi_offset 18, -16
 628              		.cfi_offset 9, -12
 629              		.cfi_offset 8, -8
 630              		.cfi_offset 1, -4
 631              		.cfi_def_cfa_offset 32
 128:C:/Users/stapi/OneDrive/Desktop/GD32VW553/V1_MQTT_OK/GD32VW55X_Wifi_BLE_SDK/GD32VW55x_RELEASE_V1.0.2/MSDK/cloud/alicloud/src/protocol/coap/local\CoAPObserve.c ****     CoapObserver *node = NULL, *next = NULL;
 632              		.loc 1 128 5
 633              	.LVL66:
 129:C:/Users/stapi/OneDrive/Desktop/GD32VW553/V1_MQTT_OK/GD32VW55X_Wifi_BLE_SDK/GD32VW55x_RELEASE_V1.0.2/MSDK/cloud/alicloud/src/protocol/coap/local\CoAPObserve.c ****     CoAPIntContext *ctx = (CoAPIntContext *)context;
 634              		.loc 1 129 5
 130:C:/Users/stapi/OneDrive/Desktop/GD32VW553/V1_MQTT_OK/GD32VW55X_Wifi_BLE_SDK/GD32VW55x_RELEASE_V1.0.2/MSDK/cloud/alicloud/src/protocol/coap/local\CoAPObserve.c **** 
 131:C:/Users/stapi/OneDrive/Desktop/GD32VW553/V1_MQTT_OK/GD32VW55X_Wifi_BLE_SDK/GD32VW55x_RELEASE_V1.0.2/MSDK/cloud/alicloud/src/protocol/coap/local\CoAPObserve.c ****     HAL_MutexLock(ctx->obsserver.list_mutex);
 635              		.loc 1 131 5
 127:C:/Users/stapi/OneDrive/Desktop/GD32VW553/V1_MQTT_OK/GD32VW55X_Wifi_BLE_SDK/GD32VW55x_RELEASE_V1.0.2/MSDK/cloud/alicloud/src/protocol/coap/local\CoAPObserve.c ****     CoapObserver *node = NULL, *next = NULL;
 636              		.loc 1 127 1 is_stmt 0
 637 0008 AA84     		mv	s1,a0
 638              		.loc 1 131 5
 639 000a 4851     		lw	a0,36(a0)
 640              	.LVL67:
 127:C:/Users/stapi/OneDrive/Desktop/GD32VW553/V1_MQTT_OK/GD32VW55X_Wifi_BLE_SDK/GD32VW55x_RELEASE_V1.0.2/MSDK/cloud/alicloud/src/protocol/coap/local\CoAPObserve.c ****     CoapObserver *node = NULL, *next = NULL;
 641              		.loc 1 127 1
 642 000c 4111     		addi	sp,sp,-16
 643              		.cfi_def_cfa_offset 48
 127:C:/Users/stapi/OneDrive/Desktop/GD32VW553/V1_MQTT_OK/GD32VW55X_Wifi_BLE_SDK/GD32VW55x_RELEASE_V1.0.2/MSDK/cloud/alicloud/src/protocol/coap/local\CoAPObserve.c ****     CoapObserver *node = NULL, *next = NULL;
 644              		.loc 1 127 1
 645 000e AE89     		mv	s3,a1
 646 0010 328A     		mv	s4,a2
 647              		.loc 1 131 5
 648 0012 97000000 		call	HAL_MutexLock
 648      E7800000 
 649              	.LVL68:
 132:C:/Users/stapi/OneDrive/Desktop/GD32VW553/V1_MQTT_OK/GD32VW55X_Wifi_BLE_SDK/GD32VW55x_RELEASE_V1.0.2/MSDK/cloud/alicloud/src/protocol/coap/local\CoAPObserve.c ****     list_for_each_entry_safe(node, next, &ctx->obsserver.list, obslist, CoapObserver) {
 650              		.loc 1 132 5 is_stmt 1
 651 001a DC54     		lw	a5,44(s1)
 652 001c 03A94700 		lw	s2,4(a5)
 653 0020 138487FD 		addi	s0,a5,-40
 654              	.LVL69:
 655 0024 130989FD 		addi	s2,s2,-40
 656              	.LVL70:
 657              	.L21:
 658              		.loc 1 132 5 discriminator 1
 659 0028 63079406 		beq	s0,s1,.L23
 133:C:/Users/stapi/OneDrive/Desktop/GD32VW553/V1_MQTT_OK/GD32VW55X_Wifi_BLE_SDK/GD32VW55x_RELEASE_V1.0.2/MSDK/cloud/alicloud/src/protocol/coap/local\CoAPObserve.c ****         if((node->p_resource_of_interest == resource) &&
 660              		.loc 1 133 9
 661              		.loc 1 133 11 is_stmt 0
 662 002c 5C4C     		lw	a5,28(s0)
 663 002e 639F4707 		bne	a5,s4,.L22
 134:C:/Users/stapi/OneDrive/Desktop/GD32VW553/V1_MQTT_OK/GD32VW55X_Wifi_BLE_SDK/GD32VW55x_RELEASE_V1.0.2/MSDK/cloud/alicloud/src/protocol/coap/local\CoAPObserve.c ****                 (node->remote.port == remote->port)  &&
 664              		.loc 1 134 30 discriminator 1
 665 0032 83570401 		lhu	a5,16(s0)
 133:C:/Users/stapi/OneDrive/Desktop/GD32VW553/V1_MQTT_OK/GD32VW55X_Wifi_BLE_SDK/GD32VW55x_RELEASE_V1.0.2/MSDK/cloud/alicloud/src/protocol/coap/local\CoAPObserve.c ****         if((node->p_resource_of_interest == resource) &&
 666              		.loc 1 133 55 discriminator 1
 667 0036 03D80901 		lhu	a6,16(s3)
 668 003a 6319F806 		bne	a6,a5,.L22
 135:C:/Users/stapi/OneDrive/Desktop/GD32VW553/V1_MQTT_OK/GD32VW55X_Wifi_BLE_SDK/GD32VW55x_RELEASE_V1.0.2/MSDK/cloud/alicloud/src/protocol/coap/local\CoAPObserve.c ****                 (0 == memcmp(node->remote.addr, remote->addr, NETWORK_ADDR_LEN))){
 669              		.loc 1 135 23
 670 003e 4146     		li	a2,16
 671 0040 CE85     		mv	a1,s3
 672 0042 2285     		mv	a0,s0
 673 0044 42C6     		sw	a6,12(sp)
 674 0046 97000000 		call	memcmp
 674      E7800000 
 675              	.LVL71:
 134:C:/Users/stapi/OneDrive/Desktop/GD32VW553/V1_MQTT_OK/GD32VW55X_Wifi_BLE_SDK/GD32VW55x_RELEASE_V1.0.2/MSDK/cloud/alicloud/src/protocol/coap/local\CoAPObserve.c ****                 (node->remote.port == remote->port)  &&
 676              		.loc 1 134 54
 677 004e 3248     		lw	a6,12(sp)
 678 0050 31ED     		bne	a0,zero,.L22
 136:C:/Users/stapi/OneDrive/Desktop/GD32VW553/V1_MQTT_OK/GD32VW55X_Wifi_BLE_SDK/GD32VW55x_RELEASE_V1.0.2/MSDK/cloud/alicloud/src/protocol/coap/local\CoAPObserve.c ****                     ctx->obsserver.count --;
 679              		.loc 1 136 21 is_stmt 1
 680              		.loc 1 136 42 is_stmt 0
 681 0052 83C70403 		lbu	a5,48(s1)
 137:C:/Users/stapi/OneDrive/Desktop/GD32VW553/V1_MQTT_OK/GD32VW55X_Wifi_BLE_SDK/GD32VW55x_RELEASE_V1.0.2/MSDK/cloud/alicloud/src/protocol/coap/local\CoAPObserve.c ****                     list_del(&node->obslist);
 138:C:/Users/stapi/OneDrive/Desktop/GD32VW553/V1_MQTT_OK/GD32VW55X_Wifi_BLE_SDK/GD32VW55x_RELEASE_V1.0.2/MSDK/cloud/alicloud/src/protocol/coap/local\CoAPObserve.c ****                     COAP_DEBUG("Delete %s:%d from observe server", node->remote.addr, node->remote.
 682              		.loc 1 138 21
 683 0056 B7050000 		lui	a1,%hi(.LANCHOR2)
 684 005a 37050000 		lui	a0,%hi(.LC1)
 136:C:/Users/stapi/OneDrive/Desktop/GD32VW553/V1_MQTT_OK/GD32VW55X_Wifi_BLE_SDK/GD32VW55x_RELEASE_V1.0.2/MSDK/cloud/alicloud/src/protocol/coap/local\CoAPObserve.c ****                     ctx->obsserver.count --;
 685              		.loc 1 136 42
 686 005e FD17     		addi	a5,a5,-1
 687 0060 2388F402 		sb	a5,48(s1)
 137:C:/Users/stapi/OneDrive/Desktop/GD32VW553/V1_MQTT_OK/GD32VW55X_Wifi_BLE_SDK/GD32VW55x_RELEASE_V1.0.2/MSDK/cloud/alicloud/src/protocol/coap/local\CoAPObserve.c ****                     list_del(&node->obslist);
 688              		.loc 1 137 21 is_stmt 1
 689              	.LVL72:
 690              	.LBB34:
 691              	.LBB35:
  68:..\..\..\..\cloud\alicloud\src\infra\utils\misc/lite-list.h ****     dlist_t *next = node->next;
 692              		.loc 2 68 5
  68:..\..\..\..\cloud\alicloud\src\infra\utils\misc/lite-list.h ****     dlist_t *next = node->next;
 693              		.loc 2 68 14 is_stmt 0
 694 0064 1854     		lw	a4,40(s0)
 695              	.LVL73:
  69:..\..\..\..\cloud\alicloud\src\infra\utils\misc/lite-list.h **** 
 696              		.loc 2 69 5 is_stmt 1
  69:..\..\..\..\cloud\alicloud\src\infra\utils\misc/lite-list.h **** 
 697              		.loc 2 69 14 is_stmt 0
 698 0066 5C54     		lw	a5,44(s0)
 699              	.LVL74:
  71:..\..\..\..\cloud\alicloud\src\infra\utils\misc/lite-list.h ****     next->prev = prev;
 700              		.loc 2 71 5 is_stmt 1
 701              	.LBE35:
 702              	.LBE34:
 703              		.loc 1 138 21 is_stmt 0
 704 0068 13050500 		addi	a0,a0,%lo(.LC1)
 705 006c 9546     		li	a3,5
 706              	.LBB37:
 707              	.LBB36:
  71:..\..\..\..\cloud\alicloud\src\infra\utils\misc/lite-list.h ****     next->prev = prev;
 708              		.loc 2 71 16
 709 006e 5CC3     		sw	a5,4(a4)
  72:..\..\..\..\cloud\alicloud\src\infra\utils\misc/lite-list.h **** }
 710              		.loc 2 72 5 is_stmt 1
  72:..\..\..\..\cloud\alicloud\src\infra\utils\misc/lite-list.h **** }
 711              		.loc 2 72 16 is_stmt 0
 712 0070 98C3     		sw	a4,0(a5)
 713              	.LVL75:
 714              	.LBE36:
 715              	.LBE37:
 716              		.loc 1 138 21 is_stmt 1
 717 0072 37070000 		lui	a4,%hi(.LC0)
 718 0076 A287     		mv	a5,s0
 719 0078 13070700 		addi	a4,a4,%lo(.LC0)
 720 007c 1306A008 		li	a2,138
 721 0080 93850500 		addi	a1,a1,%lo(.LANCHOR2)
 722 0084 97000000 		call	LITE_syslog
 722      E7800000 
 723              	.LVL76:
 139:C:/Users/stapi/OneDrive/Desktop/GD32VW553/V1_MQTT_OK/GD32VW55X_Wifi_BLE_SDK/GD32VW55x_RELEASE_V1.0.2/MSDK/cloud/alicloud/src/protocol/coap/local\CoAPObserve.c ****                     coap_free(node);
 724              		.loc 1 139 21
 725 008c 2285     		mv	a0,s0
 726 008e 97000000 		call	LITE_free_internal
 726      E7800000 
 727              	.LVL77:
 140:C:/Users/stapi/OneDrive/Desktop/GD32VW553/V1_MQTT_OK/GD32VW55X_Wifi_BLE_SDK/GD32VW55x_RELEASE_V1.0.2/MSDK/cloud/alicloud/src/protocol/coap/local\CoAPObserve.c ****                     break;
 728              		.loc 1 140 21
 729              	.L23:
 141:C:/Users/stapi/OneDrive/Desktop/GD32VW553/V1_MQTT_OK/GD32VW55X_Wifi_BLE_SDK/GD32VW55x_RELEASE_V1.0.2/MSDK/cloud/alicloud/src/protocol/coap/local\CoAPObserve.c ****                 }
 142:C:/Users/stapi/OneDrive/Desktop/GD32VW553/V1_MQTT_OK/GD32VW55X_Wifi_BLE_SDK/GD32VW55x_RELEASE_V1.0.2/MSDK/cloud/alicloud/src/protocol/coap/local\CoAPObserve.c ****     }
 143:C:/Users/stapi/OneDrive/Desktop/GD32VW553/V1_MQTT_OK/GD32VW55X_Wifi_BLE_SDK/GD32VW55x_RELEASE_V1.0.2/MSDK/cloud/alicloud/src/protocol/coap/local\CoAPObserve.c ****     HAL_MutexUnlock(ctx->obsserver.list_mutex);
 730              		.loc 1 143 5
 731 0096 C850     		lw	a0,36(s1)
 732 0098 97000000 		call	HAL_MutexUnlock
 732      E7800000 
 733              	.LVL78:
 144:C:/Users/stapi/OneDrive/Desktop/GD32VW553/V1_MQTT_OK/GD32VW55X_Wifi_BLE_SDK/GD32VW55x_RELEASE_V1.0.2/MSDK/cloud/alicloud/src/protocol/coap/local\CoAPObserve.c **** 
 145:C:/Users/stapi/OneDrive/Desktop/GD32VW553/V1_MQTT_OK/GD32VW55X_Wifi_BLE_SDK/GD32VW55x_RELEASE_V1.0.2/MSDK/cloud/alicloud/src/protocol/coap/local\CoAPObserve.c ****     return COAP_SUCCESS;
 734              		.loc 1 145 5
 146:C:/Users/stapi/OneDrive/Desktop/GD32VW553/V1_MQTT_OK/GD32VW55X_Wifi_BLE_SDK/GD32VW55x_RELEASE_V1.0.2/MSDK/cloud/alicloud/src/protocol/coap/local\CoAPObserve.c **** }
 735              		.loc 1 146 1 is_stmt 0
 736 00a0 0145     		li	a0,0
 737 00a2 4101     		addi	sp,sp,16
 738              		.cfi_remember_state
 739              		.cfi_def_cfa_offset 0
 740 00a4 17030000 		tail	__riscv_restore_5
 740      67000300 
 741              		.cfi_restore 20
 742              		.cfi_restore 19
 743              		.cfi_restore 18
 744              		.cfi_restore 9
 745              		.cfi_restore 8
 746              		.cfi_restore 1
 747              		.cfi_def_cfa_offset -32
 748              	.L22:
 749              		.cfi_restore_state
 132:C:/Users/stapi/OneDrive/Desktop/GD32VW553/V1_MQTT_OK/GD32VW55X_Wifi_BLE_SDK/GD32VW55x_RELEASE_V1.0.2/MSDK/cloud/alicloud/src/protocol/coap/local\CoAPObserve.c ****         if((node->p_resource_of_interest == resource) &&
 750              		.loc 1 132 5 is_stmt 1 discriminator 2
 751              	.LVL79:
 752 00ac 8327C902 		lw	a5,44(s2)
 753              	.LVL80:
 754 00b0 4A84     		mv	s0,s2
 755 00b2 138987FD 		addi	s2,a5,-40
 756              	.LVL81:
 757 00b6 8DBF     		j	.L21
 758              		.cfi_endproc
 759              	.LFE23:
 761              		.section	.rodata.CoapObsServerAll_delete.str1.4,"aMS",@progbits,1
 762              		.align	2
 763              	.LC9:
 764 0000 44656C65 		.string	"Delete %s:%d from observe server, cur observe count %d"
 764      74652025 
 764      733A2564 
 764      2066726F 
 764      6D206F62 
 765              		.section	.text.CoapObsServerAll_delete,"ax",@progbits
 766              		.align	1
 767              		.globl	CoapObsServerAll_delete
 769              	CoapObsServerAll_delete:
 770              	.LFB24:
 147:C:/Users/stapi/OneDrive/Desktop/GD32VW553/V1_MQTT_OK/GD32VW55X_Wifi_BLE_SDK/GD32VW55x_RELEASE_V1.0.2/MSDK/cloud/alicloud/src/protocol/coap/local\CoAPObserve.c **** 
 148:C:/Users/stapi/OneDrive/Desktop/GD32VW553/V1_MQTT_OK/GD32VW55X_Wifi_BLE_SDK/GD32VW55x_RELEASE_V1.0.2/MSDK/cloud/alicloud/src/protocol/coap/local\CoAPObserve.c **** int CoapObsServerAll_delete(CoAPContext *context,          NetworkAddr  *remote)
 149:C:/Users/stapi/OneDrive/Desktop/GD32VW553/V1_MQTT_OK/GD32VW55X_Wifi_BLE_SDK/GD32VW55x_RELEASE_V1.0.2/MSDK/cloud/alicloud/src/protocol/coap/local\CoAPObserve.c **** {
 771              		.loc 1 149 1
 772              		.cfi_startproc
 773              	.LVL82:
 774 0000 17030000 		call	t0,__riscv_save_7
 774      E7020300 
 775              		.cfi_offset 22, -32
 776              		.cfi_offset 21, -28
 777              		.cfi_offset 20, -24
 778              		.cfi_offset 19, -20
 779              		.cfi_offset 18, -16
 780              		.cfi_offset 9, -12
 781              		.cfi_offset 8, -8
 782              		.cfi_offset 1, -4
 783              		.cfi_def_cfa_offset 32
 150:C:/Users/stapi/OneDrive/Desktop/GD32VW553/V1_MQTT_OK/GD32VW55X_Wifi_BLE_SDK/GD32VW55x_RELEASE_V1.0.2/MSDK/cloud/alicloud/src/protocol/coap/local\CoAPObserve.c ****     CoapObserver *node = NULL, *next = NULL;
 784              		.loc 1 150 5
 785              	.LVL83:
 151:C:/Users/stapi/OneDrive/Desktop/GD32VW553/V1_MQTT_OK/GD32VW55X_Wifi_BLE_SDK/GD32VW55x_RELEASE_V1.0.2/MSDK/cloud/alicloud/src/protocol/coap/local\CoAPObserve.c ****     CoAPIntContext *ctx = (CoAPIntContext *)context;
 786              		.loc 1 151 5
 152:C:/Users/stapi/OneDrive/Desktop/GD32VW553/V1_MQTT_OK/GD32VW55X_Wifi_BLE_SDK/GD32VW55x_RELEASE_V1.0.2/MSDK/cloud/alicloud/src/protocol/coap/local\CoAPObserve.c **** 
 153:C:/Users/stapi/OneDrive/Desktop/GD32VW553/V1_MQTT_OK/GD32VW55X_Wifi_BLE_SDK/GD32VW55x_RELEASE_V1.0.2/MSDK/cloud/alicloud/src/protocol/coap/local\CoAPObserve.c ****     HAL_MutexLock(ctx->obsserver.list_mutex);
 787              		.loc 1 153 5
 149:C:/Users/stapi/OneDrive/Desktop/GD32VW553/V1_MQTT_OK/GD32VW55X_Wifi_BLE_SDK/GD32VW55x_RELEASE_V1.0.2/MSDK/cloud/alicloud/src/protocol/coap/local\CoAPObserve.c ****     CoapObserver *node = NULL, *next = NULL;
 788              		.loc 1 149 1 is_stmt 0
 789 0008 AA84     		mv	s1,a0
 790              		.loc 1 153 5
 791 000a 4851     		lw	a0,36(a0)
 792              	.LVL84:
 149:C:/Users/stapi/OneDrive/Desktop/GD32VW553/V1_MQTT_OK/GD32VW55X_Wifi_BLE_SDK/GD32VW55x_RELEASE_V1.0.2/MSDK/cloud/alicloud/src/protocol/coap/local\CoAPObserve.c ****     CoapObserver *node = NULL, *next = NULL;
 793              		.loc 1 149 1
 794 000c 4111     		addi	sp,sp,-16
 795              		.cfi_def_cfa_offset 48
 149:C:/Users/stapi/OneDrive/Desktop/GD32VW553/V1_MQTT_OK/GD32VW55X_Wifi_BLE_SDK/GD32VW55x_RELEASE_V1.0.2/MSDK/cloud/alicloud/src/protocol/coap/local\CoAPObserve.c ****     CoapObserver *node = NULL, *next = NULL;
 796              		.loc 1 149 1
 797 000e AE89     		mv	s3,a1
 798              		.loc 1 153 5
 799 0010 97000000 		call	HAL_MutexLock
 799      E7800000 
 800              	.LVL85:
 154:C:/Users/stapi/OneDrive/Desktop/GD32VW553/V1_MQTT_OK/GD32VW55X_Wifi_BLE_SDK/GD32VW55x_RELEASE_V1.0.2/MSDK/cloud/alicloud/src/protocol/coap/local\CoAPObserve.c ****     list_for_each_entry_safe(node, next, &ctx->obsserver.list, obslist, CoapObserver) {
 801              		.loc 1 154 5 is_stmt 1
 802 0018 DC54     		lw	a5,44(s1)
 155:C:/Users/stapi/OneDrive/Desktop/GD32VW553/V1_MQTT_OK/GD32VW55X_Wifi_BLE_SDK/GD32VW55x_RELEASE_V1.0.2/MSDK/cloud/alicloud/src/protocol/coap/local\CoAPObserve.c ****         if(NULL != node && (node->remote.port == remote->port)  &&
 156:C:/Users/stapi/OneDrive/Desktop/GD32VW553/V1_MQTT_OK/GD32VW55X_Wifi_BLE_SDK/GD32VW55x_RELEASE_V1.0.2/MSDK/cloud/alicloud/src/protocol/coap/local\CoAPObserve.c ****          (0 == memcmp(node->remote.addr, remote->addr, NETWORK_ADDR_LEN))){
 157:C:/Users/stapi/OneDrive/Desktop/GD32VW553/V1_MQTT_OK/GD32VW55X_Wifi_BLE_SDK/GD32VW55x_RELEASE_V1.0.2/MSDK/cloud/alicloud/src/protocol/coap/local\CoAPObserve.c ****                   ctx->obsserver.count --;
 158:C:/Users/stapi/OneDrive/Desktop/GD32VW553/V1_MQTT_OK/GD32VW55X_Wifi_BLE_SDK/GD32VW55x_RELEASE_V1.0.2/MSDK/cloud/alicloud/src/protocol/coap/local\CoAPObserve.c ****                   list_del(&node->obslist);
 159:C:/Users/stapi/OneDrive/Desktop/GD32VW553/V1_MQTT_OK/GD32VW55X_Wifi_BLE_SDK/GD32VW55x_RELEASE_V1.0.2/MSDK/cloud/alicloud/src/protocol/coap/local\CoAPObserve.c ****                   COAP_DEBUG("Delete %s:%d from observe server, cur observe count %d",
 803              		.loc 1 159 19 is_stmt 0
 804 001a 370A0000 		lui	s4,%hi(.LANCHOR3)
 805 001e B70A0000 		lui	s5,%hi(.LC9)
 154:C:/Users/stapi/OneDrive/Desktop/GD32VW553/V1_MQTT_OK/GD32VW55X_Wifi_BLE_SDK/GD32VW55x_RELEASE_V1.0.2/MSDK/cloud/alicloud/src/protocol/coap/local\CoAPObserve.c ****     list_for_each_entry_safe(node, next, &ctx->obsserver.list, obslist, CoapObserver) {
 806              		.loc 1 154 5
 807 0022 03A94700 		lw	s2,4(a5)
 808 0026 138487FD 		addi	s0,a5,-40
 809              	.LVL86:
 810              		.loc 1 159 19
 811 002a 370B0000 		lui	s6,%hi(.LC1)
 154:C:/Users/stapi/OneDrive/Desktop/GD32VW553/V1_MQTT_OK/GD32VW55X_Wifi_BLE_SDK/GD32VW55x_RELEASE_V1.0.2/MSDK/cloud/alicloud/src/protocol/coap/local\CoAPObserve.c ****     list_for_each_entry_safe(node, next, &ctx->obsserver.list, obslist, CoapObserver) {
 812              		.loc 1 154 5
 813 002e 130989FD 		addi	s2,s2,-40
 814              	.LVL87:
 815              	.L27:
 154:C:/Users/stapi/OneDrive/Desktop/GD32VW553/V1_MQTT_OK/GD32VW55X_Wifi_BLE_SDK/GD32VW55x_RELEASE_V1.0.2/MSDK/cloud/alicloud/src/protocol/coap/local\CoAPObserve.c ****     list_for_each_entry_safe(node, next, &ctx->obsserver.list, obslist, CoapObserver) {
 816              		.loc 1 154 5 is_stmt 1 discriminator 1
 817 0032 631D9400 		bne	s0,s1,.L29
 160:C:/Users/stapi/OneDrive/Desktop/GD32VW553/V1_MQTT_OK/GD32VW55X_Wifi_BLE_SDK/GD32VW55x_RELEASE_V1.0.2/MSDK/cloud/alicloud/src/protocol/coap/local\CoAPObserve.c ****                     node->remote.addr, node->remote.port, ctx->obsserver.count);
 161:C:/Users/stapi/OneDrive/Desktop/GD32VW553/V1_MQTT_OK/GD32VW55X_Wifi_BLE_SDK/GD32VW55x_RELEASE_V1.0.2/MSDK/cloud/alicloud/src/protocol/coap/local\CoAPObserve.c ****                   coap_free(node);
 162:C:/Users/stapi/OneDrive/Desktop/GD32VW553/V1_MQTT_OK/GD32VW55X_Wifi_BLE_SDK/GD32VW55x_RELEASE_V1.0.2/MSDK/cloud/alicloud/src/protocol/coap/local\CoAPObserve.c ****         }
 163:C:/Users/stapi/OneDrive/Desktop/GD32VW553/V1_MQTT_OK/GD32VW55X_Wifi_BLE_SDK/GD32VW55x_RELEASE_V1.0.2/MSDK/cloud/alicloud/src/protocol/coap/local\CoAPObserve.c ****     }
 164:C:/Users/stapi/OneDrive/Desktop/GD32VW553/V1_MQTT_OK/GD32VW55X_Wifi_BLE_SDK/GD32VW55x_RELEASE_V1.0.2/MSDK/cloud/alicloud/src/protocol/coap/local\CoAPObserve.c ****     HAL_MutexUnlock(ctx->obsserver.list_mutex);
 818              		.loc 1 164 5
 819 0036 4850     		lw	a0,36(s0)
 820 0038 97000000 		call	HAL_MutexUnlock
 820      E7800000 
 821              	.LVL88:
 165:C:/Users/stapi/OneDrive/Desktop/GD32VW553/V1_MQTT_OK/GD32VW55X_Wifi_BLE_SDK/GD32VW55x_RELEASE_V1.0.2/MSDK/cloud/alicloud/src/protocol/coap/local\CoAPObserve.c **** 
 166:C:/Users/stapi/OneDrive/Desktop/GD32VW553/V1_MQTT_OK/GD32VW55X_Wifi_BLE_SDK/GD32VW55x_RELEASE_V1.0.2/MSDK/cloud/alicloud/src/protocol/coap/local\CoAPObserve.c ****     return COAP_SUCCESS;
 822              		.loc 1 166 5
 167:C:/Users/stapi/OneDrive/Desktop/GD32VW553/V1_MQTT_OK/GD32VW55X_Wifi_BLE_SDK/GD32VW55x_RELEASE_V1.0.2/MSDK/cloud/alicloud/src/protocol/coap/local\CoAPObserve.c **** }
 823              		.loc 1 167 1 is_stmt 0
 824 0040 0145     		li	a0,0
 825 0042 4101     		addi	sp,sp,16
 826              		.cfi_remember_state
 827              		.cfi_def_cfa_offset 0
 828 0044 17030000 		tail	__riscv_restore_7
 828      67000300 
 829              		.cfi_restore 22
 830              		.cfi_restore 21
 831              		.cfi_restore 20
 832              		.cfi_restore 19
 833              		.cfi_restore 18
 834              		.cfi_restore 9
 835              		.cfi_restore 8
 836              		.cfi_restore 1
 837              		.cfi_def_cfa_offset -32
 838              	.L29:
 839              		.cfi_restore_state
 155:C:/Users/stapi/OneDrive/Desktop/GD32VW553/V1_MQTT_OK/GD32VW55X_Wifi_BLE_SDK/GD32VW55x_RELEASE_V1.0.2/MSDK/cloud/alicloud/src/protocol/coap/local\CoAPObserve.c ****          (0 == memcmp(node->remote.addr, remote->addr, NETWORK_ADDR_LEN))){
 840              		.loc 1 155 9 is_stmt 1 discriminator 1
 155:C:/Users/stapi/OneDrive/Desktop/GD32VW553/V1_MQTT_OK/GD32VW55X_Wifi_BLE_SDK/GD32VW55x_RELEASE_V1.0.2/MSDK/cloud/alicloud/src/protocol/coap/local\CoAPObserve.c ****          (0 == memcmp(node->remote.addr, remote->addr, NETWORK_ADDR_LEN))){
 841              		.loc 1 155 41 is_stmt 0 discriminator 1
 842 004c 83570401 		lhu	a5,16(s0)
 155:C:/Users/stapi/OneDrive/Desktop/GD32VW553/V1_MQTT_OK/GD32VW55X_Wifi_BLE_SDK/GD32VW55x_RELEASE_V1.0.2/MSDK/cloud/alicloud/src/protocol/coap/local\CoAPObserve.c ****          (0 == memcmp(node->remote.addr, remote->addr, NETWORK_ADDR_LEN))){
 843              		.loc 1 155 25 discriminator 1
 844 0050 03D80901 		lhu	a6,16(s3)
 845 0054 631AF804 		bne	a6,a5,.L28
 156:C:/Users/stapi/OneDrive/Desktop/GD32VW553/V1_MQTT_OK/GD32VW55X_Wifi_BLE_SDK/GD32VW55x_RELEASE_V1.0.2/MSDK/cloud/alicloud/src/protocol/coap/local\CoAPObserve.c ****                   ctx->obsserver.count --;
 846              		.loc 1 156 16 discriminator 2
 847 0058 4146     		li	a2,16
 848 005a CE85     		mv	a1,s3
 849 005c 2285     		mv	a0,s0
 850 005e 42C6     		sw	a6,12(sp)
 851 0060 97000000 		call	memcmp
 851      E7800000 
 852              	.LVL89:
 155:C:/Users/stapi/OneDrive/Desktop/GD32VW553/V1_MQTT_OK/GD32VW55X_Wifi_BLE_SDK/GD32VW55x_RELEASE_V1.0.2/MSDK/cloud/alicloud/src/protocol/coap/local\CoAPObserve.c ****          (0 == memcmp(node->remote.addr, remote->addr, NETWORK_ADDR_LEN))){
 853              		.loc 1 155 65 discriminator 2
 854 0068 3248     		lw	a6,12(sp)
 855 006a 1DED     		bne	a0,zero,.L28
 157:C:/Users/stapi/OneDrive/Desktop/GD32VW553/V1_MQTT_OK/GD32VW55X_Wifi_BLE_SDK/GD32VW55x_RELEASE_V1.0.2/MSDK/cloud/alicloud/src/protocol/coap/local\CoAPObserve.c ****                   list_del(&node->obslist);
 856              		.loc 1 157 19 is_stmt 1
 157:C:/Users/stapi/OneDrive/Desktop/GD32VW553/V1_MQTT_OK/GD32VW55X_Wifi_BLE_SDK/GD32VW55x_RELEASE_V1.0.2/MSDK/cloud/alicloud/src/protocol/coap/local\CoAPObserve.c ****                   list_del(&node->obslist);
 857              		.loc 1 157 40 is_stmt 0
 858 006c 83C80403 		lbu	a7,48(s1)
 159:C:/Users/stapi/OneDrive/Desktop/GD32VW553/V1_MQTT_OK/GD32VW55X_Wifi_BLE_SDK/GD32VW55x_RELEASE_V1.0.2/MSDK/cloud/alicloud/src/protocol/coap/local\CoAPObserve.c ****                     node->remote.addr, node->remote.port, ctx->obsserver.count);
 859              		.loc 1 159 19
 860 0070 13050B00 		addi	a0,s6,%lo(.LC1)
 861 0074 9546     		li	a3,5
 157:C:/Users/stapi/OneDrive/Desktop/GD32VW553/V1_MQTT_OK/GD32VW55X_Wifi_BLE_SDK/GD32VW55x_RELEASE_V1.0.2/MSDK/cloud/alicloud/src/protocol/coap/local\CoAPObserve.c ****                   list_del(&node->obslist);
 862              		.loc 1 157 40
 863 0076 FD18     		addi	a7,a7,-1
 864 0078 93F8F80F 		andi	a7,a7,0xff
 865 007c 23881403 		sb	a7,48(s1)
 158:C:/Users/stapi/OneDrive/Desktop/GD32VW553/V1_MQTT_OK/GD32VW55X_Wifi_BLE_SDK/GD32VW55x_RELEASE_V1.0.2/MSDK/cloud/alicloud/src/protocol/coap/local\CoAPObserve.c ****                   COAP_DEBUG("Delete %s:%d from observe server, cur observe count %d",
 866              		.loc 1 158 19 is_stmt 1
 867              	.LVL90:
 868              	.LBB40:
 869              	.LBB41:
  68:..\..\..\..\cloud\alicloud\src\infra\utils\misc/lite-list.h ****     dlist_t *next = node->next;
 870              		.loc 2 68 5
  68:..\..\..\..\cloud\alicloud\src\infra\utils\misc/lite-list.h ****     dlist_t *next = node->next;
 871              		.loc 2 68 14 is_stmt 0
 872 0080 1854     		lw	a4,40(s0)
 873              	.LVL91:
  69:..\..\..\..\cloud\alicloud\src\infra\utils\misc/lite-list.h **** 
 874              		.loc 2 69 5 is_stmt 1
  69:..\..\..\..\cloud\alicloud\src\infra\utils\misc/lite-list.h **** 
 875              		.loc 2 69 14 is_stmt 0
 876 0082 5C54     		lw	a5,44(s0)
 877              	.LVL92:
  71:..\..\..\..\cloud\alicloud\src\infra\utils\misc/lite-list.h ****     next->prev = prev;
 878              		.loc 2 71 5 is_stmt 1
 879              	.LBE41:
 880              	.LBE40:
 159:C:/Users/stapi/OneDrive/Desktop/GD32VW553/V1_MQTT_OK/GD32VW55X_Wifi_BLE_SDK/GD32VW55x_RELEASE_V1.0.2/MSDK/cloud/alicloud/src/protocol/coap/local\CoAPObserve.c ****                     node->remote.addr, node->remote.port, ctx->obsserver.count);
 881              		.loc 1 159 19 is_stmt 0
 882 0084 1306F009 		li	a2,159
 883 0088 93050A00 		addi	a1,s4,%lo(.LANCHOR3)
 884              	.LBB43:
 885              	.LBB42:
  71:..\..\..\..\cloud\alicloud\src\infra\utils\misc/lite-list.h ****     next->prev = prev;
 886              		.loc 2 71 16
 887 008c 5CC3     		sw	a5,4(a4)
  72:..\..\..\..\cloud\alicloud\src\infra\utils\misc/lite-list.h **** }
 888              		.loc 2 72 5 is_stmt 1
  72:..\..\..\..\cloud\alicloud\src\infra\utils\misc/lite-list.h **** }
 889              		.loc 2 72 16 is_stmt 0
 890 008e 98C3     		sw	a4,0(a5)
 891              	.LVL93:
 892              	.LBE42:
 893              	.LBE43:
 159:C:/Users/stapi/OneDrive/Desktop/GD32VW553/V1_MQTT_OK/GD32VW55X_Wifi_BLE_SDK/GD32VW55x_RELEASE_V1.0.2/MSDK/cloud/alicloud/src/protocol/coap/local\CoAPObserve.c ****                     node->remote.addr, node->remote.port, ctx->obsserver.count);
 894              		.loc 1 159 19 is_stmt 1
 895 0090 A287     		mv	a5,s0
 896 0092 13870A00 		addi	a4,s5,%lo(.LC9)
 897 0096 97000000 		call	LITE_syslog
 897      E7800000 
 898              	.LVL94:
 161:C:/Users/stapi/OneDrive/Desktop/GD32VW553/V1_MQTT_OK/GD32VW55X_Wifi_BLE_SDK/GD32VW55x_RELEASE_V1.0.2/MSDK/cloud/alicloud/src/protocol/coap/local\CoAPObserve.c ****         }
 899              		.loc 1 161 19
 900 009e 2285     		mv	a0,s0
 901 00a0 97000000 		call	LITE_free_internal
 901      E7800000 
 902              	.LVL95:
 903              	.L28:
 154:C:/Users/stapi/OneDrive/Desktop/GD32VW553/V1_MQTT_OK/GD32VW55X_Wifi_BLE_SDK/GD32VW55x_RELEASE_V1.0.2/MSDK/cloud/alicloud/src/protocol/coap/local\CoAPObserve.c ****         if(NULL != node && (node->remote.port == remote->port)  &&
 904              		.loc 1 154 5 discriminator 2
 905 00a8 8327C902 		lw	a5,44(s2)
 906              	.LVL96:
 907 00ac 4A84     		mv	s0,s2
 908 00ae 138987FD 		addi	s2,a5,-40
 909              	.LVL97:
 910 00b2 41B7     		j	.L27
 911              		.cfi_endproc
 912              	.LFE24:
 914              		.section	.rodata.CoAPObsServer_notify.str1.4,"aMS",@progbits,1
 915              		.align	2
 916              	.LC10:
 917 0000 53656E64 		.string	"Send notify message path %s to remote %s:%d "
 917      206E6F74 
 917      69667920 
 917      6D657373 
 917      61676520 
 918 002d 000000   		.align	2
 919              	.LC11:
 920 0030 456E6372 		.string	"Encrypt payload failed"
 920      79707420 
 920      7061796C 
 920      6F616420 
 920      6661696C 
 921              		.section	.text.CoAPObsServer_notify,"ax",@progbits
 922              		.align	1
 923              		.globl	CoAPObsServer_notify
 925              	CoAPObsServer_notify:
 926              	.LFB25:
 168:C:/Users/stapi/OneDrive/Desktop/GD32VW553/V1_MQTT_OK/GD32VW55X_Wifi_BLE_SDK/GD32VW55x_RELEASE_V1.0.2/MSDK/cloud/alicloud/src/protocol/coap/local\CoAPObserve.c **** 
 169:C:/Users/stapi/OneDrive/Desktop/GD32VW553/V1_MQTT_OK/GD32VW55X_Wifi_BLE_SDK/GD32VW55x_RELEASE_V1.0.2/MSDK/cloud/alicloud/src/protocol/coap/local\CoAPObserve.c **** 
 170:C:/Users/stapi/OneDrive/Desktop/GD32VW553/V1_MQTT_OK/GD32VW55X_Wifi_BLE_SDK/GD32VW55x_RELEASE_V1.0.2/MSDK/cloud/alicloud/src/protocol/coap/local\CoAPObserve.c **** int CoAPObsServer_notify(CoAPContext *context,
 171:C:/Users/stapi/OneDrive/Desktop/GD32VW553/V1_MQTT_OK/GD32VW55X_Wifi_BLE_SDK/GD32VW55x_RELEASE_V1.0.2/MSDK/cloud/alicloud/src/protocol/coap/local\CoAPObserve.c ****                             const char *path, unsigned char *payload,
 172:C:/Users/stapi/OneDrive/Desktop/GD32VW553/V1_MQTT_OK/GD32VW55X_Wifi_BLE_SDK/GD32VW55x_RELEASE_V1.0.2/MSDK/cloud/alicloud/src/protocol/coap/local\CoAPObserve.c ****                             unsigned short payloadlen, CoAPDataEncrypt handler)
 173:C:/Users/stapi/OneDrive/Desktop/GD32VW553/V1_MQTT_OK/GD32VW55X_Wifi_BLE_SDK/GD32VW55x_RELEASE_V1.0.2/MSDK/cloud/alicloud/src/protocol/coap/local\CoAPObserve.c **** {
 927              		.loc 1 173 1
 928              		.cfi_startproc
 929              	.LVL98:
 930 0000 17030000 		call	t0,__riscv_save_12
 930      E7020300 
 931              		.cfi_offset 27, -52
 932              		.cfi_offset 26, -48
 933              		.cfi_offset 25, -44
 934              		.cfi_offset 24, -40
 935              		.cfi_offset 23, -36
 936              		.cfi_offset 22, -32
 937              		.cfi_offset 21, -28
 938              		.cfi_offset 20, -24
 939              		.cfi_offset 19, -20
 940              		.cfi_offset 18, -16
 941              		.cfi_offset 9, -12
 942              		.cfi_offset 8, -8
 943              		.cfi_offset 1, -4
 944              		.cfi_def_cfa_offset 64
 174:C:/Users/stapi/OneDrive/Desktop/GD32VW553/V1_MQTT_OK/GD32VW55X_Wifi_BLE_SDK/GD32VW55x_RELEASE_V1.0.2/MSDK/cloud/alicloud/src/protocol/coap/local\CoAPObserve.c ****     unsigned int ret  = COAP_SUCCESS;
 945              		.loc 1 174 5
 946              	.LVL99:
 175:C:/Users/stapi/OneDrive/Desktop/GD32VW553/V1_MQTT_OK/GD32VW55X_Wifi_BLE_SDK/GD32VW55x_RELEASE_V1.0.2/MSDK/cloud/alicloud/src/protocol/coap/local\CoAPObserve.c ****     CoAPResource *resource = NULL;
 947              		.loc 1 175 5
 176:C:/Users/stapi/OneDrive/Desktop/GD32VW553/V1_MQTT_OK/GD32VW55X_Wifi_BLE_SDK/GD32VW55x_RELEASE_V1.0.2/MSDK/cloud/alicloud/src/protocol/coap/local\CoAPObserve.c ****     CoapObserver *node     = NULL;
 948              		.loc 1 176 5
 177:C:/Users/stapi/OneDrive/Desktop/GD32VW553/V1_MQTT_OK/GD32VW55X_Wifi_BLE_SDK/GD32VW55x_RELEASE_V1.0.2/MSDK/cloud/alicloud/src/protocol/coap/local\CoAPObserve.c ****     CoAPLenString src;
 949              		.loc 1 177 5
 178:C:/Users/stapi/OneDrive/Desktop/GD32VW553/V1_MQTT_OK/GD32VW55X_Wifi_BLE_SDK/GD32VW55x_RELEASE_V1.0.2/MSDK/cloud/alicloud/src/protocol/coap/local\CoAPObserve.c ****     CoAPLenString dest;
 950              		.loc 1 178 5
 179:C:/Users/stapi/OneDrive/Desktop/GD32VW553/V1_MQTT_OK/GD32VW55X_Wifi_BLE_SDK/GD32VW55x_RELEASE_V1.0.2/MSDK/cloud/alicloud/src/protocol/coap/local\CoAPObserve.c ****     CoAPIntContext *ctx = (CoAPIntContext *)context;
 951              		.loc 1 179 5
 173:C:/Users/stapi/OneDrive/Desktop/GD32VW553/V1_MQTT_OK/GD32VW55X_Wifi_BLE_SDK/GD32VW55x_RELEASE_V1.0.2/MSDK/cloud/alicloud/src/protocol/coap/local\CoAPObserve.c ****     unsigned int ret  = COAP_SUCCESS;
 952              		.loc 1 173 1 is_stmt 0
 953 0008 3571     		addi	sp,sp,-160
 954              		.cfi_def_cfa_offset 224
 173:C:/Users/stapi/OneDrive/Desktop/GD32VW553/V1_MQTT_OK/GD32VW55X_Wifi_BLE_SDK/GD32VW55x_RELEASE_V1.0.2/MSDK/cloud/alicloud/src/protocol/coap/local\CoAPObserve.c ****     unsigned int ret  = COAP_SUCCESS;
 955              		.loc 1 173 1
 956 000a AA84     		mv	s1,a0
 957              	.LVL100:
 180:C:/Users/stapi/OneDrive/Desktop/GD32VW553/V1_MQTT_OK/GD32VW55X_Wifi_BLE_SDK/GD32VW55x_RELEASE_V1.0.2/MSDK/cloud/alicloud/src/protocol/coap/local\CoAPObserve.c **** 
 181:C:/Users/stapi/OneDrive/Desktop/GD32VW553/V1_MQTT_OK/GD32VW55X_Wifi_BLE_SDK/GD32VW55x_RELEASE_V1.0.2/MSDK/cloud/alicloud/src/protocol/coap/local\CoAPObserve.c ****     resource = CoAPResourceByPath_get(ctx, path);
 958              		.loc 1 181 5 is_stmt 1
 173:C:/Users/stapi/OneDrive/Desktop/GD32VW553/V1_MQTT_OK/GD32VW55X_Wifi_BLE_SDK/GD32VW55x_RELEASE_V1.0.2/MSDK/cloud/alicloud/src/protocol/coap/local\CoAPObserve.c ****     unsigned int ret  = COAP_SUCCESS;
 959              		.loc 1 173 1 is_stmt 0
 960 000c AE8A     		mv	s5,a1
 961 000e 328B     		mv	s6,a2
 962 0010 B68B     		mv	s7,a3
 963 0012 3A8A     		mv	s4,a4
 964              		.loc 1 181 16
 965 0014 97000000 		call	CoAPResourceByPath_get
 965      E7800000 
 966              	.LVL101:
 182:C:/Users/stapi/OneDrive/Desktop/GD32VW553/V1_MQTT_OK/GD32VW55X_Wifi_BLE_SDK/GD32VW55x_RELEASE_V1.0.2/MSDK/cloud/alicloud/src/protocol/coap/local\CoAPObserve.c **** 
 183:C:/Users/stapi/OneDrive/Desktop/GD32VW553/V1_MQTT_OK/GD32VW55X_Wifi_BLE_SDK/GD32VW55x_RELEASE_V1.0.2/MSDK/cloud/alicloud/src/protocol/coap/local\CoAPObserve.c ****     if(NULL != resource){
 967              		.loc 1 183 5 is_stmt 1
 174:C:/Users/stapi/OneDrive/Desktop/GD32VW553/V1_MQTT_OK/GD32VW55X_Wifi_BLE_SDK/GD32VW55x_RELEASE_V1.0.2/MSDK/cloud/alicloud/src/protocol/coap/local\CoAPObserve.c ****     CoAPResource *resource = NULL;
 968              		.loc 1 174 18 is_stmt 0
 969 001c 0149     		li	s2,0
 970              		.loc 1 183 7
 971 001e 15C9     		beq	a0,zero,.L32
 972 0020 AA89     		mv	s3,a0
 184:C:/Users/stapi/OneDrive/Desktop/GD32VW553/V1_MQTT_OK/GD32VW55X_Wifi_BLE_SDK/GD32VW55x_RELEASE_V1.0.2/MSDK/cloud/alicloud/src/protocol/coap/local\CoAPObserve.c ****         HAL_MutexLock(ctx->obsserver.list_mutex);
 973              		.loc 1 184 9 is_stmt 1
 974 0022 C850     		lw	a0,36(s1)
 975              	.LVL102:
 174:C:/Users/stapi/OneDrive/Desktop/GD32VW553/V1_MQTT_OK/GD32VW55X_Wifi_BLE_SDK/GD32VW55x_RELEASE_V1.0.2/MSDK/cloud/alicloud/src/protocol/coap/local\CoAPObserve.c ****     CoAPResource *resource = NULL;
 976              		.loc 1 174 18 is_stmt 0
 977 0024 0149     		li	s2,0
 978              	.LBB44:
 185:C:/Users/stapi/OneDrive/Desktop/GD32VW553/V1_MQTT_OK/GD32VW55X_Wifi_BLE_SDK/GD32VW55x_RELEASE_V1.0.2/MSDK/cloud/alicloud/src/protocol/coap/local\CoAPObserve.c ****         list_for_each_entry(node, &ctx->obsserver.list, obslist, CoapObserver) {
 186:C:/Users/stapi/OneDrive/Desktop/GD32VW553/V1_MQTT_OK/GD32VW55X_Wifi_BLE_SDK/GD32VW55x_RELEASE_V1.0.2/MSDK/cloud/alicloud/src/protocol/coap/local\CoAPObserve.c ****             if(node->p_resource_of_interest == resource){
 187:C:/Users/stapi/OneDrive/Desktop/GD32VW553/V1_MQTT_OK/GD32VW55X_Wifi_BLE_SDK/GD32VW55x_RELEASE_V1.0.2/MSDK/cloud/alicloud/src/protocol/coap/local\CoAPObserve.c ****                 CoAPMessage message;
 188:C:/Users/stapi/OneDrive/Desktop/GD32VW553/V1_MQTT_OK/GD32VW55X_Wifi_BLE_SDK/GD32VW55x_RELEASE_V1.0.2/MSDK/cloud/alicloud/src/protocol/coap/local\CoAPObserve.c ****                 CoAPMessage_init(&message);
 189:C:/Users/stapi/OneDrive/Desktop/GD32VW553/V1_MQTT_OK/GD32VW55X_Wifi_BLE_SDK/GD32VW55x_RELEASE_V1.0.2/MSDK/cloud/alicloud/src/protocol/coap/local\CoAPObserve.c ****                 CoAPMessageType_set(&message, node->msg_type);
 190:C:/Users/stapi/OneDrive/Desktop/GD32VW553/V1_MQTT_OK/GD32VW55X_Wifi_BLE_SDK/GD32VW55x_RELEASE_V1.0.2/MSDK/cloud/alicloud/src/protocol/coap/local\CoAPObserve.c ****                 CoAPMessageCode_set(&message, COAP_MSG_CODE_205_CONTENT);
 191:C:/Users/stapi/OneDrive/Desktop/GD32VW553/V1_MQTT_OK/GD32VW55X_Wifi_BLE_SDK/GD32VW55x_RELEASE_V1.0.2/MSDK/cloud/alicloud/src/protocol/coap/local\CoAPObserve.c ****                 CoAPMessageId_set(&message, CoAPMessageId_gen(ctx));
 192:C:/Users/stapi/OneDrive/Desktop/GD32VW553/V1_MQTT_OK/GD32VW55X_Wifi_BLE_SDK/GD32VW55x_RELEASE_V1.0.2/MSDK/cloud/alicloud/src/protocol/coap/local\CoAPObserve.c ****                 CoAPMessageHandler_set(&message, NULL);
 193:C:/Users/stapi/OneDrive/Desktop/GD32VW553/V1_MQTT_OK/GD32VW55X_Wifi_BLE_SDK/GD32VW55x_RELEASE_V1.0.2/MSDK/cloud/alicloud/src/protocol/coap/local\CoAPObserve.c ****                 CoAPMessageUserData_set(&message, node->p_resource_of_interest);
 194:C:/Users/stapi/OneDrive/Desktop/GD32VW553/V1_MQTT_OK/GD32VW55X_Wifi_BLE_SDK/GD32VW55x_RELEASE_V1.0.2/MSDK/cloud/alicloud/src/protocol/coap/local\CoAPObserve.c ****                 CoAPMessageToken_set(&message, node->token, node->tokenlen);
 195:C:/Users/stapi/OneDrive/Desktop/GD32VW553/V1_MQTT_OK/GD32VW55X_Wifi_BLE_SDK/GD32VW55x_RELEASE_V1.0.2/MSDK/cloud/alicloud/src/protocol/coap/local\CoAPObserve.c ****                 CoAPUintOption_add(&message, COAP_OPTION_OBSERVE, node->observer_sequence_num++);
 196:C:/Users/stapi/OneDrive/Desktop/GD32VW553/V1_MQTT_OK/GD32VW55X_Wifi_BLE_SDK/GD32VW55x_RELEASE_V1.0.2/MSDK/cloud/alicloud/src/protocol/coap/local\CoAPObserve.c ****                 CoAPUintOption_add(&message, COAP_OPTION_CONTENT_FORMAT, node->ctype);
 197:C:/Users/stapi/OneDrive/Desktop/GD32VW553/V1_MQTT_OK/GD32VW55X_Wifi_BLE_SDK/GD32VW55x_RELEASE_V1.0.2/MSDK/cloud/alicloud/src/protocol/coap/local\CoAPObserve.c ****                 CoAPUintOption_add(&message, COAP_OPTION_MAXAGE, resource->maxage);
 198:C:/Users/stapi/OneDrive/Desktop/GD32VW553/V1_MQTT_OK/GD32VW55X_Wifi_BLE_SDK/GD32VW55x_RELEASE_V1.0.2/MSDK/cloud/alicloud/src/protocol/coap/local\CoAPObserve.c ****                 COAP_DEBUG("Send notify message path %s to remote %s:%d ",
 979              		.loc 1 198 17
 980 0026 370C0000 		lui	s8,%hi(.LC1)
 981              	.LBE44:
 184:C:/Users/stapi/OneDrive/Desktop/GD32VW553/V1_MQTT_OK/GD32VW55X_Wifi_BLE_SDK/GD32VW55x_RELEASE_V1.0.2/MSDK/cloud/alicloud/src/protocol/coap/local\CoAPObserve.c ****         HAL_MutexLock(ctx->obsserver.list_mutex);
 982              		.loc 1 184 9
 983 002a 97000000 		call	HAL_MutexLock
 983      E7800000 
 984              	.LVL103:
 185:C:/Users/stapi/OneDrive/Desktop/GD32VW553/V1_MQTT_OK/GD32VW55X_Wifi_BLE_SDK/GD32VW55x_RELEASE_V1.0.2/MSDK/cloud/alicloud/src/protocol/coap/local\CoAPObserve.c ****         list_for_each_entry(node, &ctx->obsserver.list, obslist, CoapObserver) {
 985              		.loc 1 185 9 is_stmt 1
 986 0032 C054     		lw	s0,44(s1)
 987              	.LBB45:
 199:C:/Users/stapi/OneDrive/Desktop/GD32VW553/V1_MQTT_OK/GD32VW55X_Wifi_BLE_SDK/GD32VW55x_RELEASE_V1.0.2/MSDK/cloud/alicloud/src/protocol/coap/local\CoAPObserve.c ****                                         path, node->remote.addr, node->remote.port);
 200:C:/Users/stapi/OneDrive/Desktop/GD32VW553/V1_MQTT_OK/GD32VW55X_Wifi_BLE_SDK/GD32VW55x_RELEASE_V1.0.2/MSDK/cloud/alicloud/src/protocol/coap/local\CoAPObserve.c **** 
 201:C:/Users/stapi/OneDrive/Desktop/GD32VW553/V1_MQTT_OK/GD32VW55X_Wifi_BLE_SDK/GD32VW55x_RELEASE_V1.0.2/MSDK/cloud/alicloud/src/protocol/coap/local\CoAPObserve.c ****                 memset(&dest, 0x00, sizeof(CoAPLenString));
 202:C:/Users/stapi/OneDrive/Desktop/GD32VW553/V1_MQTT_OK/GD32VW55X_Wifi_BLE_SDK/GD32VW55x_RELEASE_V1.0.2/MSDK/cloud/alicloud/src/protocol/coap/local\CoAPObserve.c ****                 if(NULL != handler){
 203:C:/Users/stapi/OneDrive/Desktop/GD32VW553/V1_MQTT_OK/GD32VW55X_Wifi_BLE_SDK/GD32VW55x_RELEASE_V1.0.2/MSDK/cloud/alicloud/src/protocol/coap/local\CoAPObserve.c ****                     src.len = payloadlen;
 204:C:/Users/stapi/OneDrive/Desktop/GD32VW553/V1_MQTT_OK/GD32VW55X_Wifi_BLE_SDK/GD32VW55x_RELEASE_V1.0.2/MSDK/cloud/alicloud/src/protocol/coap/local\CoAPObserve.c ****                     src.data = payload;
 205:C:/Users/stapi/OneDrive/Desktop/GD32VW553/V1_MQTT_OK/GD32VW55X_Wifi_BLE_SDK/GD32VW55x_RELEASE_V1.0.2/MSDK/cloud/alicloud/src/protocol/coap/local\CoAPObserve.c ****                     ret = handler(context, path, &node->remote, &message, &src, &dest);
 206:C:/Users/stapi/OneDrive/Desktop/GD32VW553/V1_MQTT_OK/GD32VW55X_Wifi_BLE_SDK/GD32VW55x_RELEASE_V1.0.2/MSDK/cloud/alicloud/src/protocol/coap/local\CoAPObserve.c ****                     if(COAP_SUCCESS == ret){
 207:C:/Users/stapi/OneDrive/Desktop/GD32VW553/V1_MQTT_OK/GD32VW55X_Wifi_BLE_SDK/GD32VW55x_RELEASE_V1.0.2/MSDK/cloud/alicloud/src/protocol/coap/local\CoAPObserve.c ****                         CoAPMessagePayload_set(&message, dest.data, dest.len);
 208:C:/Users/stapi/OneDrive/Desktop/GD32VW553/V1_MQTT_OK/GD32VW55X_Wifi_BLE_SDK/GD32VW55x_RELEASE_V1.0.2/MSDK/cloud/alicloud/src/protocol/coap/local\CoAPObserve.c ****                     }else{
 209:C:/Users/stapi/OneDrive/Desktop/GD32VW553/V1_MQTT_OK/GD32VW55X_Wifi_BLE_SDK/GD32VW55x_RELEASE_V1.0.2/MSDK/cloud/alicloud/src/protocol/coap/local\CoAPObserve.c ****                         COAP_INFO("Encrypt payload failed");
 988              		.loc 1 209 25 is_stmt 0
 989 0034 B70C0000 		lui	s9,%hi(.LC6)
 990 0038 370D0000 		lui	s10,%hi(.LC11)
 991              	.LBE45:
 185:C:/Users/stapi/OneDrive/Desktop/GD32VW553/V1_MQTT_OK/GD32VW55X_Wifi_BLE_SDK/GD32VW55x_RELEASE_V1.0.2/MSDK/cloud/alicloud/src/protocol/coap/local\CoAPObserve.c ****         list_for_each_entry(node, &ctx->obsserver.list, obslist, CoapObserver) {
 992              		.loc 1 185 9
 993 003c 130484FD 		addi	s0,s0,-40
 994              	.LVL104:
 995              	.LBB46:
 996              		.loc 1 209 25
 997 0040 B70D0000 		lui	s11,%hi(.LC5)
 998              	.LVL105:
 999              	.L33:
 1000              	.LBE46:
 185:C:/Users/stapi/OneDrive/Desktop/GD32VW553/V1_MQTT_OK/GD32VW55X_Wifi_BLE_SDK/GD32VW55x_RELEASE_V1.0.2/MSDK/cloud/alicloud/src/protocol/coap/local\CoAPObserve.c ****         list_for_each_entry(node, &ctx->obsserver.list, obslist, CoapObserver) {
 1001              		.loc 1 185 9 is_stmt 1 discriminator 1
 1002 0044 631D9400 		bne	s0,s1,.L39
 210:C:/Users/stapi/OneDrive/Desktop/GD32VW553/V1_MQTT_OK/GD32VW55X_Wifi_BLE_SDK/GD32VW55x_RELEASE_V1.0.2/MSDK/cloud/alicloud/src/protocol/coap/local\CoAPObserve.c ****                     }
 211:C:/Users/stapi/OneDrive/Desktop/GD32VW553/V1_MQTT_OK/GD32VW55X_Wifi_BLE_SDK/GD32VW55x_RELEASE_V1.0.2/MSDK/cloud/alicloud/src/protocol/coap/local\CoAPObserve.c ****                 }
 212:C:/Users/stapi/OneDrive/Desktop/GD32VW553/V1_MQTT_OK/GD32VW55X_Wifi_BLE_SDK/GD32VW55x_RELEASE_V1.0.2/MSDK/cloud/alicloud/src/protocol/coap/local\CoAPObserve.c ****                 else{
 213:C:/Users/stapi/OneDrive/Desktop/GD32VW553/V1_MQTT_OK/GD32VW55X_Wifi_BLE_SDK/GD32VW55x_RELEASE_V1.0.2/MSDK/cloud/alicloud/src/protocol/coap/local\CoAPObserve.c ****                     CoAPMessagePayload_set(&message, payload, payloadlen);
 214:C:/Users/stapi/OneDrive/Desktop/GD32VW553/V1_MQTT_OK/GD32VW55X_Wifi_BLE_SDK/GD32VW55x_RELEASE_V1.0.2/MSDK/cloud/alicloud/src/protocol/coap/local\CoAPObserve.c ****                 }
 215:C:/Users/stapi/OneDrive/Desktop/GD32VW553/V1_MQTT_OK/GD32VW55X_Wifi_BLE_SDK/GD32VW55x_RELEASE_V1.0.2/MSDK/cloud/alicloud/src/protocol/coap/local\CoAPObserve.c ****                 ret = CoAPMessage_send(ctx, &node->remote, &message);
 216:C:/Users/stapi/OneDrive/Desktop/GD32VW553/V1_MQTT_OK/GD32VW55X_Wifi_BLE_SDK/GD32VW55x_RELEASE_V1.0.2/MSDK/cloud/alicloud/src/protocol/coap/local\CoAPObserve.c ****                 if(NULL != handler && 0 != dest.len && NULL != dest.data){
 217:C:/Users/stapi/OneDrive/Desktop/GD32VW553/V1_MQTT_OK/GD32VW55X_Wifi_BLE_SDK/GD32VW55x_RELEASE_V1.0.2/MSDK/cloud/alicloud/src/protocol/coap/local\CoAPObserve.c ****                     coap_free(dest.data);
 218:C:/Users/stapi/OneDrive/Desktop/GD32VW553/V1_MQTT_OK/GD32VW55X_Wifi_BLE_SDK/GD32VW55x_RELEASE_V1.0.2/MSDK/cloud/alicloud/src/protocol/coap/local\CoAPObserve.c ****                     dest.len = 0;
 219:C:/Users/stapi/OneDrive/Desktop/GD32VW553/V1_MQTT_OK/GD32VW55X_Wifi_BLE_SDK/GD32VW55x_RELEASE_V1.0.2/MSDK/cloud/alicloud/src/protocol/coap/local\CoAPObserve.c ****                 }
 220:C:/Users/stapi/OneDrive/Desktop/GD32VW553/V1_MQTT_OK/GD32VW55X_Wifi_BLE_SDK/GD32VW55x_RELEASE_V1.0.2/MSDK/cloud/alicloud/src/protocol/coap/local\CoAPObserve.c ****                 CoAPMessage_destory(&message);
 221:C:/Users/stapi/OneDrive/Desktop/GD32VW553/V1_MQTT_OK/GD32VW55X_Wifi_BLE_SDK/GD32VW55x_RELEASE_V1.0.2/MSDK/cloud/alicloud/src/protocol/coap/local\CoAPObserve.c ****             }
 222:C:/Users/stapi/OneDrive/Desktop/GD32VW553/V1_MQTT_OK/GD32VW55X_Wifi_BLE_SDK/GD32VW55x_RELEASE_V1.0.2/MSDK/cloud/alicloud/src/protocol/coap/local\CoAPObserve.c ****         }
 223:C:/Users/stapi/OneDrive/Desktop/GD32VW553/V1_MQTT_OK/GD32VW55X_Wifi_BLE_SDK/GD32VW55x_RELEASE_V1.0.2/MSDK/cloud/alicloud/src/protocol/coap/local\CoAPObserve.c **** 
 224:C:/Users/stapi/OneDrive/Desktop/GD32VW553/V1_MQTT_OK/GD32VW55X_Wifi_BLE_SDK/GD32VW55x_RELEASE_V1.0.2/MSDK/cloud/alicloud/src/protocol/coap/local\CoAPObserve.c ****         HAL_MutexUnlock(ctx->obsserver.list_mutex);
 1003              		.loc 1 224 9
 1004 0048 4850     		lw	a0,36(s0)
 1005 004a 97000000 		call	HAL_MutexUnlock
 1005      E7800000 
 1006              	.LVL106:
 1007              	.L32:
 225:C:/Users/stapi/OneDrive/Desktop/GD32VW553/V1_MQTT_OK/GD32VW55X_Wifi_BLE_SDK/GD32VW55x_RELEASE_V1.0.2/MSDK/cloud/alicloud/src/protocol/coap/local\CoAPObserve.c ****     }
 226:C:/Users/stapi/OneDrive/Desktop/GD32VW553/V1_MQTT_OK/GD32VW55X_Wifi_BLE_SDK/GD32VW55x_RELEASE_V1.0.2/MSDK/cloud/alicloud/src/protocol/coap/local\CoAPObserve.c ****     return ret;
 1008              		.loc 1 226 5
 227:C:/Users/stapi/OneDrive/Desktop/GD32VW553/V1_MQTT_OK/GD32VW55X_Wifi_BLE_SDK/GD32VW55x_RELEASE_V1.0.2/MSDK/cloud/alicloud/src/protocol/coap/local\CoAPObserve.c **** }
 1009              		.loc 1 227 1 is_stmt 0
 1010 0052 4A85     		mv	a0,s2
 1011 0054 0D61     		addi	sp,sp,160
 1012              		.cfi_remember_state
 1013              		.cfi_def_cfa_offset 0
 1014 0056 17030000 		tail	__riscv_restore_12
 1014      67000300 
 1015              		.cfi_restore 27
 1016              		.cfi_restore 26
 1017              		.cfi_restore 25
 1018              		.cfi_restore 24
 1019              		.cfi_restore 23
 1020              		.cfi_restore 22
 1021              		.cfi_restore 21
 1022              		.cfi_restore 20
 1023              		.cfi_restore 19
 1024              		.cfi_restore 18
 1025              		.cfi_restore 9
 1026              		.cfi_restore 8
 1027              		.cfi_restore 1
 1028              		.cfi_def_cfa_offset -64
 1029              	.LVL107:
 1030              	.L39:
 1031              		.cfi_restore_state
 186:C:/Users/stapi/OneDrive/Desktop/GD32VW553/V1_MQTT_OK/GD32VW55X_Wifi_BLE_SDK/GD32VW55x_RELEASE_V1.0.2/MSDK/cloud/alicloud/src/protocol/coap/local\CoAPObserve.c ****                 CoAPMessage message;
 1032              		.loc 1 186 13 is_stmt 1
 186:C:/Users/stapi/OneDrive/Desktop/GD32VW553/V1_MQTT_OK/GD32VW55X_Wifi_BLE_SDK/GD32VW55x_RELEASE_V1.0.2/MSDK/cloud/alicloud/src/protocol/coap/local\CoAPObserve.c ****                 CoAPMessage message;
 1033              		.loc 1 186 15 is_stmt 0
 1034 005e 5C4C     		lw	a5,28(s0)
 1035 0060 63953715 		bne	a5,s3,.L34
 1036              	.LBB47:
 187:C:/Users/stapi/OneDrive/Desktop/GD32VW553/V1_MQTT_OK/GD32VW55X_Wifi_BLE_SDK/GD32VW55x_RELEASE_V1.0.2/MSDK/cloud/alicloud/src/protocol/coap/local\CoAPObserve.c ****                 CoAPMessage_init(&message);
 1037              		.loc 1 187 17 is_stmt 1
 188:C:/Users/stapi/OneDrive/Desktop/GD32VW553/V1_MQTT_OK/GD32VW55X_Wifi_BLE_SDK/GD32VW55x_RELEASE_V1.0.2/MSDK/cloud/alicloud/src/protocol/coap/local\CoAPObserve.c ****                 CoAPMessageType_set(&message, node->msg_type);
 1038              		.loc 1 188 17
 1039 0064 2808     		addi	a0,sp,24
 1040 0066 97000000 		call	CoAPMessage_init
 1040      E7800000 
 1041              	.LVL108:
 189:C:/Users/stapi/OneDrive/Desktop/GD32VW553/V1_MQTT_OK/GD32VW55X_Wifi_BLE_SDK/GD32VW55x_RELEASE_V1.0.2/MSDK/cloud/alicloud/src/protocol/coap/local\CoAPObserve.c ****                 CoAPMessageCode_set(&message, COAP_MSG_CODE_205_CONTENT);
 1042              		.loc 1 189 17
 1043 006e 83454402 		lbu	a1,36(s0)
 1044 0072 2808     		addi	a0,sp,24
 1045 0074 97000000 		call	CoAPMessageType_set
 1045      E7800000 
 1046              	.LVL109:
 190:C:/Users/stapi/OneDrive/Desktop/GD32VW553/V1_MQTT_OK/GD32VW55X_Wifi_BLE_SDK/GD32VW55x_RELEASE_V1.0.2/MSDK/cloud/alicloud/src/protocol/coap/local\CoAPObserve.c ****                 CoAPMessageId_set(&message, CoAPMessageId_gen(ctx));
 1047              		.loc 1 190 17
 1048 007c 93055004 		li	a1,69
 1049 0080 2808     		addi	a0,sp,24
 1050 0082 97000000 		call	CoAPMessageCode_set
 1050      E7800000 
 1051              	.LVL110:
 191:C:/Users/stapi/OneDrive/Desktop/GD32VW553/V1_MQTT_OK/GD32VW55X_Wifi_BLE_SDK/GD32VW55x_RELEASE_V1.0.2/MSDK/cloud/alicloud/src/protocol/coap/local\CoAPObserve.c ****                 CoAPMessageHandler_set(&message, NULL);
 1052              		.loc 1 191 17
 1053 008a 2685     		mv	a0,s1
 1054 008c 97000000 		call	CoAPMessageId_gen
 1054      E7800000 
 1055              	.LVL111:
 1056 0094 AA85     		mv	a1,a0
 1057 0096 2808     		addi	a0,sp,24
 1058 0098 97000000 		call	CoAPMessageId_set
 1058      E7800000 
 1059              	.LVL112:
 192:C:/Users/stapi/OneDrive/Desktop/GD32VW553/V1_MQTT_OK/GD32VW55X_Wifi_BLE_SDK/GD32VW55x_RELEASE_V1.0.2/MSDK/cloud/alicloud/src/protocol/coap/local\CoAPObserve.c ****                 CoAPMessageUserData_set(&message, node->p_resource_of_interest);
 1060              		.loc 1 192 17
 1061 00a0 8145     		li	a1,0
 1062 00a2 2808     		addi	a0,sp,24
 1063 00a4 97000000 		call	CoAPMessageHandler_set
 1063      E7800000 
 1064              	.LVL113:
 193:C:/Users/stapi/OneDrive/Desktop/GD32VW553/V1_MQTT_OK/GD32VW55X_Wifi_BLE_SDK/GD32VW55x_RELEASE_V1.0.2/MSDK/cloud/alicloud/src/protocol/coap/local\CoAPObserve.c ****                 CoAPMessageToken_set(&message, node->token, node->tokenlen);
 1065              		.loc 1 193 17
 1066 00ac 4C4C     		lw	a1,28(s0)
 1067 00ae 2808     		addi	a0,sp,24
 1068 00b0 97000000 		call	CoAPMessageUserData_set
 1068      E7800000 
 1069              	.LVL114:
 194:C:/Users/stapi/OneDrive/Desktop/GD32VW553/V1_MQTT_OK/GD32VW55X_Wifi_BLE_SDK/GD32VW55x_RELEASE_V1.0.2/MSDK/cloud/alicloud/src/protocol/coap/local\CoAPObserve.c ****                 CoAPUintOption_add(&message, COAP_OPTION_OBSERVE, node->observer_sequence_num++);
 1070              		.loc 1 194 17
 1071 00b8 0346A401 		lbu	a2,26(s0)
 1072 00bc 93052401 		addi	a1,s0,18
 1073 00c0 2808     		addi	a0,sp,24
 1074 00c2 97000000 		call	CoAPMessageToken_set
 1074      E7800000 
 1075              	.LVL115:
 195:C:/Users/stapi/OneDrive/Desktop/GD32VW553/V1_MQTT_OK/GD32VW55X_Wifi_BLE_SDK/GD32VW55x_RELEASE_V1.0.2/MSDK/cloud/alicloud/src/protocol/coap/local\CoAPObserve.c ****                 CoAPUintOption_add(&message, COAP_OPTION_CONTENT_FORMAT, node->ctype);
 1076              		.loc 1 195 17
 195:C:/Users/stapi/OneDrive/Desktop/GD32VW553/V1_MQTT_OK/GD32VW55X_Wifi_BLE_SDK/GD32VW55x_RELEASE_V1.0.2/MSDK/cloud/alicloud/src/protocol/coap/local\CoAPObserve.c ****                 CoAPUintOption_add(&message, COAP_OPTION_CONTENT_FORMAT, node->ctype);
 1077              		.loc 1 195 71 is_stmt 0
 1078 00ca 1050     		lw	a2,32(s0)
 195:C:/Users/stapi/OneDrive/Desktop/GD32VW553/V1_MQTT_OK/GD32VW55X_Wifi_BLE_SDK/GD32VW55x_RELEASE_V1.0.2/MSDK/cloud/alicloud/src/protocol/coap/local\CoAPObserve.c ****                 CoAPUintOption_add(&message, COAP_OPTION_CONTENT_FORMAT, node->ctype);
 1079              		.loc 1 195 17
 1080 00cc 9945     		li	a1,6
 1081 00ce 2808     		addi	a0,sp,24
 1082 00d0 93071600 		addi	a5,a2,1
 1083 00d4 1CD0     		sw	a5,32(s0)
 1084 00d6 97000000 		call	CoAPUintOption_add
 1084      E7800000 
 1085              	.LVL116:
 196:C:/Users/stapi/OneDrive/Desktop/GD32VW553/V1_MQTT_OK/GD32VW55X_Wifi_BLE_SDK/GD32VW55x_RELEASE_V1.0.2/MSDK/cloud/alicloud/src/protocol/coap/local\CoAPObserve.c ****                 CoAPUintOption_add(&message, COAP_OPTION_MAXAGE, resource->maxage);
 1086              		.loc 1 196 17 is_stmt 1
 1087 00de 0346B401 		lbu	a2,27(s0)
 1088 00e2 B145     		li	a1,12
 1089 00e4 2808     		addi	a0,sp,24
 1090 00e6 97000000 		call	CoAPUintOption_add
 1090      E7800000 
 1091              	.LVL117:
 197:C:/Users/stapi/OneDrive/Desktop/GD32VW553/V1_MQTT_OK/GD32VW55X_Wifi_BLE_SDK/GD32VW55x_RELEASE_V1.0.2/MSDK/cloud/alicloud/src/protocol/coap/local\CoAPObserve.c ****                 COAP_DEBUG("Send notify message path %s to remote %s:%d ",
 1092              		.loc 1 197 17
 1093 00ee 03A6C900 		lw	a2,12(s3)
 1094 00f2 B945     		li	a1,14
 1095 00f4 2808     		addi	a0,sp,24
 1096 00f6 97000000 		call	CoAPUintOption_add
 1096      E7800000 
 1097              	.LVL118:
 198:C:/Users/stapi/OneDrive/Desktop/GD32VW553/V1_MQTT_OK/GD32VW55X_Wifi_BLE_SDK/GD32VW55x_RELEASE_V1.0.2/MSDK/cloud/alicloud/src/protocol/coap/local\CoAPObserve.c ****                                         path, node->remote.addr, node->remote.port);
 1098              		.loc 1 198 17
 1099 00fe 83580401 		lhu	a7,16(s0)
 1100 0102 37070000 		lui	a4,%hi(.LC10)
 1101 0106 B7050000 		lui	a1,%hi(.LANCHOR4)
 1102 010a 2288     		mv	a6,s0
 1103 010c D687     		mv	a5,s5
 1104 010e 13070700 		addi	a4,a4,%lo(.LC10)
 1105 0112 9546     		li	a3,5
 1106 0114 1306600C 		li	a2,198
 1107 0118 93850500 		addi	a1,a1,%lo(.LANCHOR4)
 1108 011c 13050C00 		addi	a0,s8,%lo(.LC1)
 1109 0120 97000000 		call	LITE_syslog
 1109      E7800000 
 1110              	.LVL119:
 201:C:/Users/stapi/OneDrive/Desktop/GD32VW553/V1_MQTT_OK/GD32VW55X_Wifi_BLE_SDK/GD32VW55x_RELEASE_V1.0.2/MSDK/cloud/alicloud/src/protocol/coap/local\CoAPObserve.c ****                 if(NULL != handler){
 1111              		.loc 1 201 17
 1112 0128 02C8     		sw	zero,16(sp)
 1113 012a 02CA     		sw	zero,20(sp)
 202:C:/Users/stapi/OneDrive/Desktop/GD32VW553/V1_MQTT_OK/GD32VW55X_Wifi_BLE_SDK/GD32VW55x_RELEASE_V1.0.2/MSDK/cloud/alicloud/src/protocol/coap/local\CoAPObserve.c ****                     src.len = payloadlen;
 1114              		.loc 1 202 17
 202:C:/Users/stapi/OneDrive/Desktop/GD32VW553/V1_MQTT_OK/GD32VW55X_Wifi_BLE_SDK/GD32VW55x_RELEASE_V1.0.2/MSDK/cloud/alicloud/src/protocol/coap/local\CoAPObserve.c ****                     src.len = payloadlen;
 1115              		.loc 1 202 19 is_stmt 0
 1116 012c 63030A08 		beq	s4,zero,.L35
 203:C:/Users/stapi/OneDrive/Desktop/GD32VW553/V1_MQTT_OK/GD32VW55X_Wifi_BLE_SDK/GD32VW55x_RELEASE_V1.0.2/MSDK/cloud/alicloud/src/protocol/coap/local\CoAPObserve.c ****                     src.data = payload;
 1117              		.loc 1 203 21 is_stmt 1
 205:C:/Users/stapi/OneDrive/Desktop/GD32VW553/V1_MQTT_OK/GD32VW55X_Wifi_BLE_SDK/GD32VW55x_RELEASE_V1.0.2/MSDK/cloud/alicloud/src/protocol/coap/local\CoAPObserve.c ****                     if(COAP_SUCCESS == ret){
 1118              		.loc 1 205 27 is_stmt 0
 1119 0130 1C08     		addi	a5,sp,16
 1120 0132 3800     		addi	a4,sp,8
 1121 0134 3408     		addi	a3,sp,24
 1122 0136 2286     		mv	a2,s0
 1123 0138 D685     		mv	a1,s5
 1124 013a 2685     		mv	a0,s1
 203:C:/Users/stapi/OneDrive/Desktop/GD32VW553/V1_MQTT_OK/GD32VW55X_Wifi_BLE_SDK/GD32VW55x_RELEASE_V1.0.2/MSDK/cloud/alicloud/src/protocol/coap/local\CoAPObserve.c ****                     src.data = payload;
 1125              		.loc 1 203 29
 1126 013c 5EC4     		sw	s7,8(sp)
 204:C:/Users/stapi/OneDrive/Desktop/GD32VW553/V1_MQTT_OK/GD32VW55X_Wifi_BLE_SDK/GD32VW55x_RELEASE_V1.0.2/MSDK/cloud/alicloud/src/protocol/coap/local\CoAPObserve.c ****                     ret = handler(context, path, &node->remote, &message, &src, &dest);
 1127              		.loc 1 204 21 is_stmt 1
 204:C:/Users/stapi/OneDrive/Desktop/GD32VW553/V1_MQTT_OK/GD32VW55X_Wifi_BLE_SDK/GD32VW55x_RELEASE_V1.0.2/MSDK/cloud/alicloud/src/protocol/coap/local\CoAPObserve.c ****                     ret = handler(context, path, &node->remote, &message, &src, &dest);
 1128              		.loc 1 204 30 is_stmt 0
 1129 013e 5AC6     		sw	s6,12(sp)
 205:C:/Users/stapi/OneDrive/Desktop/GD32VW553/V1_MQTT_OK/GD32VW55X_Wifi_BLE_SDK/GD32VW55x_RELEASE_V1.0.2/MSDK/cloud/alicloud/src/protocol/coap/local\CoAPObserve.c ****                     if(COAP_SUCCESS == ret){
 1130              		.loc 1 205 21 is_stmt 1
 205:C:/Users/stapi/OneDrive/Desktop/GD32VW553/V1_MQTT_OK/GD32VW55X_Wifi_BLE_SDK/GD32VW55x_RELEASE_V1.0.2/MSDK/cloud/alicloud/src/protocol/coap/local\CoAPObserve.c ****                     if(COAP_SUCCESS == ret){
 1131              		.loc 1 205 27 is_stmt 0
 1132 0140 029A     		jalr	s4
 1133              	.LVL120:
 206:C:/Users/stapi/OneDrive/Desktop/GD32VW553/V1_MQTT_OK/GD32VW55X_Wifi_BLE_SDK/GD32VW55x_RELEASE_V1.0.2/MSDK/cloud/alicloud/src/protocol/coap/local\CoAPObserve.c ****                         CoAPMessagePayload_set(&message, dest.data, dest.len);
 1134              		.loc 1 206 21 is_stmt 1
 206:C:/Users/stapi/OneDrive/Desktop/GD32VW553/V1_MQTT_OK/GD32VW55X_Wifi_BLE_SDK/GD32VW55x_RELEASE_V1.0.2/MSDK/cloud/alicloud/src/protocol/coap/local\CoAPObserve.c ****                         CoAPMessagePayload_set(&message, dest.data, dest.len);
 1135              		.loc 1 206 23 is_stmt 0
 1136 0142 11E9     		bne	a0,zero,.L36
 207:C:/Users/stapi/OneDrive/Desktop/GD32VW553/V1_MQTT_OK/GD32VW55X_Wifi_BLE_SDK/GD32VW55x_RELEASE_V1.0.2/MSDK/cloud/alicloud/src/protocol/coap/local\CoAPObserve.c ****                     }else{
 1137              		.loc 1 207 25 is_stmt 1
 1138 0144 03560101 		lhu	a2,16(sp)
 1139 0148 D245     		lw	a1,20(sp)
 1140              	.LVL121:
 1141              	.L51:
 213:C:/Users/stapi/OneDrive/Desktop/GD32VW553/V1_MQTT_OK/GD32VW55X_Wifi_BLE_SDK/GD32VW55x_RELEASE_V1.0.2/MSDK/cloud/alicloud/src/protocol/coap/local\CoAPObserve.c ****                 }
 1142              		.loc 1 213 21 is_stmt 0
 1143 014a 2808     		addi	a0,sp,24
 1144 014c 97000000 		call	CoAPMessagePayload_set
 1144      E7800000 
 1145              	.LVL122:
 1146 0154 1DA0     		j	.L37
 1147              	.LVL123:
 1148              	.L36:
 209:C:/Users/stapi/OneDrive/Desktop/GD32VW553/V1_MQTT_OK/GD32VW55X_Wifi_BLE_SDK/GD32VW55x_RELEASE_V1.0.2/MSDK/cloud/alicloud/src/protocol/coap/local\CoAPObserve.c ****                     }
 1149              		.loc 1 209 25 is_stmt 1
 209:C:/Users/stapi/OneDrive/Desktop/GD32VW553/V1_MQTT_OK/GD32VW55X_Wifi_BLE_SDK/GD32VW55x_RELEASE_V1.0.2/MSDK/cloud/alicloud/src/protocol/coap/local\CoAPObserve.c ****                     }
 1150              		.loc 1 209 25
 1151 0156 13850C00 		addi	a0,s9,%lo(.LC6)
 1152              	.LVL124:
 1153 015a 97000000 		call	HAL_Printf
 1153      E7800000 
 1154              	.LVL125:
 209:C:/Users/stapi/OneDrive/Desktop/GD32VW553/V1_MQTT_OK/GD32VW55X_Wifi_BLE_SDK/GD32VW55x_RELEASE_V1.0.2/MSDK/cloud/alicloud/src/protocol/coap/local\CoAPObserve.c ****                     }
 1155              		.loc 1 209 25
 1156 0162 13050D00 		addi	a0,s10,%lo(.LC11)
 1157 0166 97000000 		call	HAL_Printf
 1157      E7800000 
 1158              	.LVL126:
 209:C:/Users/stapi/OneDrive/Desktop/GD32VW553/V1_MQTT_OK/GD32VW55X_Wifi_BLE_SDK/GD32VW55x_RELEASE_V1.0.2/MSDK/cloud/alicloud/src/protocol/coap/local\CoAPObserve.c ****                     }
 1159              		.loc 1 209 25
 1160 016e 13850D00 		addi	a0,s11,%lo(.LC5)
 1161 0172 97000000 		call	HAL_Printf
 1161      E7800000 
 1162              	.LVL127:
 1163              	.L37:
 215:C:/Users/stapi/OneDrive/Desktop/GD32VW553/V1_MQTT_OK/GD32VW55X_Wifi_BLE_SDK/GD32VW55x_RELEASE_V1.0.2/MSDK/cloud/alicloud/src/protocol/coap/local\CoAPObserve.c ****                 if(NULL != handler && 0 != dest.len && NULL != dest.data){
 1164              		.loc 1 215 17
 215:C:/Users/stapi/OneDrive/Desktop/GD32VW553/V1_MQTT_OK/GD32VW55X_Wifi_BLE_SDK/GD32VW55x_RELEASE_V1.0.2/MSDK/cloud/alicloud/src/protocol/coap/local\CoAPObserve.c ****                 if(NULL != handler && 0 != dest.len && NULL != dest.data){
 1165              		.loc 1 215 23 is_stmt 0
 1166 017a 3008     		addi	a2,sp,24
 1167 017c A285     		mv	a1,s0
 1168 017e 2685     		mv	a0,s1
 1169 0180 97000000 		call	CoAPMessage_send
 1169      E7800000 
 1170              	.LVL128:
 1171 0188 2A89     		mv	s2,a0
 1172              	.LVL129:
 216:C:/Users/stapi/OneDrive/Desktop/GD32VW553/V1_MQTT_OK/GD32VW55X_Wifi_BLE_SDK/GD32VW55x_RELEASE_V1.0.2/MSDK/cloud/alicloud/src/protocol/coap/local\CoAPObserve.c ****                     coap_free(dest.data);
 1173              		.loc 1 216 17 is_stmt 1
 216:C:/Users/stapi/OneDrive/Desktop/GD32VW553/V1_MQTT_OK/GD32VW55X_Wifi_BLE_SDK/GD32VW55x_RELEASE_V1.0.2/MSDK/cloud/alicloud/src/protocol/coap/local\CoAPObserve.c ****                     coap_free(dest.data);
 1174              		.loc 1 216 19 is_stmt 0
 1175 018a 630B0A00 		beq	s4,zero,.L38
 216:C:/Users/stapi/OneDrive/Desktop/GD32VW553/V1_MQTT_OK/GD32VW55X_Wifi_BLE_SDK/GD32VW55x_RELEASE_V1.0.2/MSDK/cloud/alicloud/src/protocol/coap/local\CoAPObserve.c ****                     coap_free(dest.data);
 1176              		.loc 1 216 36 discriminator 1
 1177 018e C247     		lw	a5,16(sp)
 1178 0190 81CB     		beq	a5,zero,.L38
 216:C:/Users/stapi/OneDrive/Desktop/GD32VW553/V1_MQTT_OK/GD32VW55X_Wifi_BLE_SDK/GD32VW55x_RELEASE_V1.0.2/MSDK/cloud/alicloud/src/protocol/coap/local\CoAPObserve.c ****                     coap_free(dest.data);
 1179              		.loc 1 216 68 discriminator 2
 1180 0192 5245     		lw	a0,20(sp)
 1181              	.LVL130:
 216:C:/Users/stapi/OneDrive/Desktop/GD32VW553/V1_MQTT_OK/GD32VW55X_Wifi_BLE_SDK/GD32VW55x_RELEASE_V1.0.2/MSDK/cloud/alicloud/src/protocol/coap/local\CoAPObserve.c ****                     coap_free(dest.data);
 1182              		.loc 1 216 53 discriminator 2
 1183 0194 11C5     		beq	a0,zero,.L38
 217:C:/Users/stapi/OneDrive/Desktop/GD32VW553/V1_MQTT_OK/GD32VW55X_Wifi_BLE_SDK/GD32VW55x_RELEASE_V1.0.2/MSDK/cloud/alicloud/src/protocol/coap/local\CoAPObserve.c ****                     dest.len = 0;
 1184              		.loc 1 217 21 is_stmt 1
 1185 0196 97000000 		call	LITE_free_internal
 1185      E7800000 
 1186              	.LVL131:
 218:C:/Users/stapi/OneDrive/Desktop/GD32VW553/V1_MQTT_OK/GD32VW55X_Wifi_BLE_SDK/GD32VW55x_RELEASE_V1.0.2/MSDK/cloud/alicloud/src/protocol/coap/local\CoAPObserve.c ****                 }
 1187              		.loc 1 218 21
 218:C:/Users/stapi/OneDrive/Desktop/GD32VW553/V1_MQTT_OK/GD32VW55X_Wifi_BLE_SDK/GD32VW55x_RELEASE_V1.0.2/MSDK/cloud/alicloud/src/protocol/coap/local\CoAPObserve.c ****                 }
 1188              		.loc 1 218 30 is_stmt 0
 1189 019e 02C8     		sw	zero,16(sp)
 1190              	.L38:
 220:C:/Users/stapi/OneDrive/Desktop/GD32VW553/V1_MQTT_OK/GD32VW55X_Wifi_BLE_SDK/GD32VW55x_RELEASE_V1.0.2/MSDK/cloud/alicloud/src/protocol/coap/local\CoAPObserve.c ****             }
 1191              		.loc 1 220 17 is_stmt 1
 1192 01a0 2808     		addi	a0,sp,24
 1193 01a2 97000000 		call	CoAPMessage_destory
 1193      E7800000 
 1194              	.LVL132:
 1195              	.L34:
 1196              	.LBE47:
 185:C:/Users/stapi/OneDrive/Desktop/GD32VW553/V1_MQTT_OK/GD32VW55X_Wifi_BLE_SDK/GD32VW55x_RELEASE_V1.0.2/MSDK/cloud/alicloud/src/protocol/coap/local\CoAPObserve.c ****             if(node->p_resource_of_interest == resource){
 1197              		.loc 1 185 9 discriminator 2
 1198 01aa 4054     		lw	s0,44(s0)
 1199              	.LVL133:
 1200 01ac 130484FD 		addi	s0,s0,-40
 1201              	.LVL134:
 1202 01b0 51BD     		j	.L33
 1203              	.L35:
 1204              	.LBB48:
 213:C:/Users/stapi/OneDrive/Desktop/GD32VW553/V1_MQTT_OK/GD32VW55X_Wifi_BLE_SDK/GD32VW55x_RELEASE_V1.0.2/MSDK/cloud/alicloud/src/protocol/coap/local\CoAPObserve.c ****                 }
 1205              		.loc 1 213 21
 1206 01b2 5E86     		mv	a2,s7
 1207 01b4 DA85     		mv	a1,s6
 1208 01b6 51BF     		j	.L51
 1209              	.LBE48:
 1210              		.cfi_endproc
 1211              	.LFE25:
 1213              		.section	.rodata.__FUNCTION__.0,"a"
 1214              		.align	2
 1215              		.set	.LANCHOR4,. + 0
 1218              	__FUNCTION__.0:
 1219 0000 436F4150 		.string	"CoAPObsServer_notify"
 1219      4F627353 
 1219      65727665 
 1219      725F6E6F 
 1219      74696679 
 1220              		.section	.rodata.__FUNCTION__.1,"a"
 1221              		.align	2
 1222              		.set	.LANCHOR3,. + 0
 1225              	__FUNCTION__.1:
 1226 0000 436F6170 		.string	"CoapObsServerAll_delete"
 1226      4F627353 
 1226      65727665 
 1226      72416C6C 
 1226      5F64656C 
 1227              		.section	.rodata.__FUNCTION__.2,"a"
 1228              		.align	2
 1229              		.set	.LANCHOR2,. + 0
 1232              	__FUNCTION__.2:
 1233 0000 436F6170 		.string	"CoapObsServer_delete"
 1233      4F627353 
 1233      65727665 
 1233      725F6465 
 1233      6C657465 
 1234              		.section	.rodata.__FUNCTION__.3,"a"
 1235              		.align	2
 1236              		.set	.LANCHOR1,. + 0
 1239              	__FUNCTION__.3:
 1240 0000 436F4150 		.string	"CoAPObsServer_add"
 1240      4F627353 
 1240      65727665 
 1240      725F6164 
 1240      6400
 1241              		.section	.rodata.__FUNCTION__.4,"a"
 1242              		.align	2
 1243              		.set	.LANCHOR0,. + 0
 1246              	__FUNCTION__.4:
 1247 0000 436F4150 		.string	"CoAPObsServer_deinit"
 1247      4F627353 
 1247      65727665 
 1247      725F6465 
 1247      696E6974 
 1248              		.text
 1249              	.Letext0:
 1250              		.file 3 "c:\\users\\stapi\\onedrive\\desktop\\gd32vw553\\embeddedbuilder_v1.4.7.26843\\tools\\nucl
 1251              		.file 4 "c:\\users\\stapi\\onedrive\\desktop\\gd32vw553\\embeddedbuilder_v1.4.7.26843\\tools\\nucl
 1252              		.file 5 "c:\\users\\stapi\\onedrive\\desktop\\gd32vw553\\embeddedbuilder_v1.4.7.26843\\tools\\nucl
 1253              		.file 6 "..\\..\\..\\..\\cloud\\alicloud\\include/iot_import.h"
 1254              		.file 7 "C:/Users/stapi/OneDrive/Desktop/GD32VW553/V1_MQTT_OK/GD32VW55X_Wifi_BLE_SDK/GD32VW55x_REL
 1255              		.file 8 "C:/Users/stapi/OneDrive/Desktop/GD32VW553/V1_MQTT_OK/GD32VW55X_Wifi_BLE_SDK/GD32VW55x_REL
 1256              		.file 9 "C:/Users/stapi/OneDrive/Desktop/GD32VW553/V1_MQTT_OK/GD32VW55X_Wifi_BLE_SDK/GD32VW55x_REL
 1257              		.file 10 "C:/Users/stapi/OneDrive/Desktop/GD32VW553/V1_MQTT_OK/GD32VW55X_Wifi_BLE_SDK/GD32VW55x_RE
 1258              		.file 11 "C:/Users/stapi/OneDrive/Desktop/GD32VW553/V1_MQTT_OK/GD32VW55X_Wifi_BLE_SDK/GD32VW55x_RE
 1259              		.file 12 "C:/Users/stapi/OneDrive/Desktop/GD32VW553/V1_MQTT_OK/GD32VW55X_Wifi_BLE_SDK/GD32VW55x_RE
 1260              		.file 13 "..\\..\\..\\..\\cloud\\alicloud\\src\\infra\\log/iotx_log.h"
 1261              		.file 14 "..\\..\\..\\..\\cloud\\alicloud\\src\\infra\\utils/iotx_utils.h"
 1262              		.file 15 "c:\\users\\stapi\\onedrive\\desktop\\gd32vw553\\embeddedbuilder_v1.4.7.26843\\tools\\nuc
 1263              		.file 16 "<built-in>"
DEFINED SYMBOLS
                            *ABS*:0000000000000000 CoAPObserve.c
C:\Users\stapi\AppData\Local\Temp\ccbizAf1.s:13     .text.CoAPObsServer_init:0000000000000000 CoAPObsServer_init
C:\Users\stapi\AppData\Local\Temp\ccbizAf1.s:17     .text.CoAPObsServer_init:0000000000000000 .L0 
C:\Users\stapi\AppData\Local\Temp\ccbizAf1.s:19     .text.CoAPObsServer_init:0000000000000000 .L0 
C:\Users\stapi\AppData\Local\Temp\ccbizAf1.s:20     .text.CoAPObsServer_init:0000000000000008 .L0 
C:\Users\stapi\AppData\Local\Temp\ccbizAf1.s:21     .text.CoAPObsServer_init:0000000000000008 .L0 
C:\Users\stapi\AppData\Local\Temp\ccbizAf1.s:22     .text.CoAPObsServer_init:0000000000000008 .L0 
C:\Users\stapi\AppData\Local\Temp\ccbizAf1.s:23     .text.CoAPObsServer_init:0000000000000008 .L0 
C:\Users\stapi\AppData\Local\Temp\ccbizAf1.s:25     .text.CoAPObsServer_init:0000000000000008 .L0 
C:\Users\stapi\AppData\Local\Temp\ccbizAf1.s:26     .text.CoAPObsServer_init:0000000000000008 .L0 
C:\Users\stapi\AppData\Local\Temp\ccbizAf1.s:29     .text.CoAPObsServer_init:000000000000000a .L0 
C:\Users\stapi\AppData\Local\Temp\ccbizAf1.s:30     .text.CoAPObsServer_init:000000000000000a .L0 
C:\Users\stapi\AppData\Local\Temp\ccbizAf1.s:32     .text.CoAPObsServer_init:000000000000000c .L0 
C:\Users\stapi\AppData\Local\Temp\ccbizAf1.s:35     .text.CoAPObsServer_init:0000000000000014 .L0 
C:\Users\stapi\AppData\Local\Temp\ccbizAf1.s:37     .text.CoAPObsServer_init:0000000000000016 .L0 
C:\Users\stapi\AppData\Local\Temp\ccbizAf1.s:40     .text.CoAPObsServer_init:000000000000001e .L0 
C:\Users\stapi\AppData\Local\Temp\ccbizAf1.s:41     .text.CoAPObsServer_init:000000000000001e .L0 
C:\Users\stapi\AppData\Local\Temp\ccbizAf1.s:43     .text.CoAPObsServer_init:0000000000000020 .L0 
C:\Users\stapi\AppData\Local\Temp\ccbizAf1.s:49     .text.CoAPObsServer_init:0000000000000024 .L0 
C:\Users\stapi\AppData\Local\Temp\ccbizAf1.s:50     .text.CoAPObsServer_init:0000000000000024 .L0 
C:\Users\stapi\AppData\Local\Temp\ccbizAf1.s:52     .text.CoAPObsServer_init:0000000000000026 .L0 
C:\Users\stapi\AppData\Local\Temp\ccbizAf1.s:53     .text.CoAPObsServer_init:0000000000000026 .L0 
C:\Users\stapi\AppData\Local\Temp\ccbizAf1.s:58     .text.CoAPObsServer_init:0000000000000028 .L0 
C:\Users\stapi\AppData\Local\Temp\ccbizAf1.s:59     .text.CoAPObsServer_init:0000000000000028 .L0 
C:\Users\stapi\AppData\Local\Temp\ccbizAf1.s:61     .text.CoAPObsServer_init:000000000000002c .L0 
C:\Users\stapi\AppData\Local\Temp\ccbizAf1.s:62     .text.CoAPObsServer_init:000000000000002c .L0 
C:\Users\stapi\AppData\Local\Temp\ccbizAf1.s:64     .text.CoAPObsServer_init:0000000000000030 .L0 
C:\Users\stapi\AppData\Local\Temp\ccbizAf1.s:67     .text.CoAPObsServer_init:0000000000000038 .L0 
C:\Users\stapi\AppData\Local\Temp\ccbizAf1.s:68     .text.CoAPObsServer_init:0000000000000038 .L0 
C:\Users\stapi\AppData\Local\Temp\ccbizAf1.s:70     .text.CoAPObsServer_init:0000000000000042 .L0 
C:\Users\stapi\AppData\Local\Temp\ccbizAf1.s:71     .text.CoAPObsServer_init:0000000000000042 .L0 
C:\Users\stapi\AppData\Local\Temp\ccbizAf1.s:72     .text.CoAPObsServer_init:0000000000000042 .L0 
C:\Users\stapi\AppData\Local\Temp\ccbizAf1.s:73     .text.CoAPObsServer_init:0000000000000042 .L0 
C:\Users\stapi\AppData\Local\Temp\ccbizAf1.s:74     .text.CoAPObsServer_init:0000000000000042 .L0 
C:\Users\stapi\AppData\Local\Temp\ccbizAf1.s:88     .text.CoAPObsServer_deinit:0000000000000000 CoAPObsServer_deinit
C:\Users\stapi\AppData\Local\Temp\ccbizAf1.s:91     .text.CoAPObsServer_deinit:0000000000000000 .L0 
C:\Users\stapi\AppData\Local\Temp\ccbizAf1.s:93     .text.CoAPObsServer_deinit:0000000000000000 .L0 
C:\Users\stapi\AppData\Local\Temp\ccbizAf1.s:94     .text.CoAPObsServer_deinit:0000000000000008 .L0 
C:\Users\stapi\AppData\Local\Temp\ccbizAf1.s:95     .text.CoAPObsServer_deinit:0000000000000008 .L0 
C:\Users\stapi\AppData\Local\Temp\ccbizAf1.s:96     .text.CoAPObsServer_deinit:0000000000000008 .L0 
C:\Users\stapi\AppData\Local\Temp\ccbizAf1.s:97     .text.CoAPObsServer_deinit:0000000000000008 .L0 
C:\Users\stapi\AppData\Local\Temp\ccbizAf1.s:98     .text.CoAPObsServer_deinit:0000000000000008 .L0 
C:\Users\stapi\AppData\Local\Temp\ccbizAf1.s:99     .text.CoAPObsServer_deinit:0000000000000008 .L0 
C:\Users\stapi\AppData\Local\Temp\ccbizAf1.s:100    .text.CoAPObsServer_deinit:0000000000000008 .L0 
C:\Users\stapi\AppData\Local\Temp\ccbizAf1.s:101    .text.CoAPObsServer_deinit:0000000000000008 .L0 
C:\Users\stapi\AppData\Local\Temp\ccbizAf1.s:104    .text.CoAPObsServer_deinit:0000000000000008 .L0 
C:\Users\stapi\AppData\Local\Temp\ccbizAf1.s:105    .text.CoAPObsServer_deinit:0000000000000008 .L0 
C:\Users\stapi\AppData\Local\Temp\ccbizAf1.s:106    .text.CoAPObsServer_deinit:0000000000000008 .L0 
C:\Users\stapi\AppData\Local\Temp\ccbizAf1.s:107    .text.CoAPObsServer_deinit:0000000000000008 .L0 
C:\Users\stapi\AppData\Local\Temp\ccbizAf1.s:109    .text.CoAPObsServer_deinit:000000000000000a .L0 
C:\Users\stapi\AppData\Local\Temp\ccbizAf1.s:112    .text.CoAPObsServer_deinit:000000000000000c .L0 
C:\Users\stapi\AppData\Local\Temp\ccbizAf1.s:115    .text.CoAPObsServer_deinit:0000000000000014 .L0 
C:\Users\stapi\AppData\Local\Temp\ccbizAf1.s:118    .text.CoAPObsServer_deinit:000000000000001c .L0 
C:\Users\stapi\AppData\Local\Temp\ccbizAf1.s:120    .text.CoAPObsServer_deinit:000000000000001e .L0 
C:\Users\stapi\AppData\Local\Temp\ccbizAf1.s:122    .text.CoAPObsServer_deinit:0000000000000022 .L0 
C:\Users\stapi\AppData\Local\Temp\ccbizAf1.s:129    .text.CoAPObsServer_deinit:000000000000002e .L0 
C:\Users\stapi\AppData\Local\Temp\ccbizAf1.s:131    .text.CoAPObsServer_deinit:0000000000000032 .L0 
C:\Users\stapi\AppData\Local\Temp\ccbizAf1.s:132    .text.CoAPObsServer_deinit:0000000000000032 .L0 
C:\Users\stapi\AppData\Local\Temp\ccbizAf1.s:133    .text.CoAPObsServer_deinit:0000000000000032 .L0 
C:\Users\stapi\AppData\Local\Temp\ccbizAf1.s:135    .text.CoAPObsServer_deinit:0000000000000034 .L0 
C:\Users\stapi\AppData\Local\Temp\ccbizAf1.s:137    .text.CoAPObsServer_deinit:0000000000000038 .L0 
C:\Users\stapi\AppData\Local\Temp\ccbizAf1.s:140    .text.CoAPObsServer_deinit:0000000000000040 .L0 
C:\Users\stapi\AppData\Local\Temp\ccbizAf1.s:144    .text.CoAPObsServer_deinit:000000000000004a .L0 
C:\Users\stapi\AppData\Local\Temp\ccbizAf1.s:145    .text.CoAPObsServer_deinit:000000000000004a .L0 
C:\Users\stapi\AppData\Local\Temp\ccbizAf1.s:147    .text.CoAPObsServer_deinit:000000000000004c .L0 
C:\Users\stapi\AppData\Local\Temp\ccbizAf1.s:149    .text.CoAPObsServer_deinit:0000000000000050 .L0 
C:\Users\stapi\AppData\Local\Temp\ccbizAf1.s:150    .text.CoAPObsServer_deinit:0000000000000050 .L0 
C:\Users\stapi\AppData\Local\Temp\ccbizAf1.s:151    .text.CoAPObsServer_deinit:0000000000000058 .L0 
C:\Users\stapi\AppData\Local\Temp\ccbizAf1.s:152    .text.CoAPObsServer_deinit:0000000000000058 .L0 
C:\Users\stapi\AppData\Local\Temp\ccbizAf1.s:153    .text.CoAPObsServer_deinit:0000000000000058 .L0 
C:\Users\stapi\AppData\Local\Temp\ccbizAf1.s:154    .text.CoAPObsServer_deinit:0000000000000058 .L0 
C:\Users\stapi\AppData\Local\Temp\ccbizAf1.s:155    .text.CoAPObsServer_deinit:0000000000000058 .L0 
C:\Users\stapi\AppData\Local\Temp\ccbizAf1.s:156    .text.CoAPObsServer_deinit:0000000000000058 .L0 
C:\Users\stapi\AppData\Local\Temp\ccbizAf1.s:157    .text.CoAPObsServer_deinit:0000000000000058 .L0 
C:\Users\stapi\AppData\Local\Temp\ccbizAf1.s:158    .text.CoAPObsServer_deinit:0000000000000058 .L0 
C:\Users\stapi\AppData\Local\Temp\ccbizAf1.s:159    .text.CoAPObsServer_deinit:0000000000000058 .L0 
C:\Users\stapi\AppData\Local\Temp\ccbizAf1.s:161    .text.CoAPObsServer_deinit:0000000000000058 .L0 
C:\Users\stapi\AppData\Local\Temp\ccbizAf1.s:166    .text.CoAPObsServer_deinit:0000000000000058 .L0 
C:\Users\stapi\AppData\Local\Temp\ccbizAf1.s:167    .text.CoAPObsServer_deinit:0000000000000058 .L0 
C:\Users\stapi\AppData\Local\Temp\ccbizAf1.s:168    .text.CoAPObsServer_deinit:0000000000000058 .L0 
C:\Users\stapi\AppData\Local\Temp\ccbizAf1.s:171    .text.CoAPObsServer_deinit:000000000000005a .L0 
C:\Users\stapi\AppData\Local\Temp\ccbizAf1.s:172    .text.CoAPObsServer_deinit:000000000000005a .L0 
C:\Users\stapi\AppData\Local\Temp\ccbizAf1.s:177    .text.CoAPObsServer_deinit:000000000000005c .L0 
C:\Users\stapi\AppData\Local\Temp\ccbizAf1.s:178    .text.CoAPObsServer_deinit:000000000000005c .L0 
C:\Users\stapi\AppData\Local\Temp\ccbizAf1.s:183    .text.CoAPObsServer_deinit:0000000000000062 .L0 
C:\Users\stapi\AppData\Local\Temp\ccbizAf1.s:185    .text.CoAPObsServer_deinit:0000000000000064 .L0 
C:\Users\stapi\AppData\Local\Temp\ccbizAf1.s:186    .text.CoAPObsServer_deinit:0000000000000064 .L0 
C:\Users\stapi\AppData\Local\Temp\ccbizAf1.s:191    .text.CoAPObsServer_deinit:0000000000000066 .L0 
C:\Users\stapi\AppData\Local\Temp\ccbizAf1.s:199    .text.CoAPObsServer_deinit:0000000000000080 .L0 
C:\Users\stapi\AppData\Local\Temp\ccbizAf1.s:203    .text.CoAPObsServer_deinit:000000000000008a .L0 
C:\Users\stapi\AppData\Local\Temp\ccbizAf1.s:209    .text.CoAPObsServer_deinit:0000000000000096 .L0 
C:\Users\stapi\AppData\Local\Temp\ccbizAf1.s:238    .text.CoAPObsServer_add:0000000000000000 CoAPObsServer_add
C:\Users\stapi\AppData\Local\Temp\ccbizAf1.s:241    .text.CoAPObsServer_add:0000000000000000 .L0 
C:\Users\stapi\AppData\Local\Temp\ccbizAf1.s:243    .text.CoAPObsServer_add:0000000000000000 .L0 
C:\Users\stapi\AppData\Local\Temp\ccbizAf1.s:244    .text.CoAPObsServer_add:0000000000000008 .L0 
C:\Users\stapi\AppData\Local\Temp\ccbizAf1.s:245    .text.CoAPObsServer_add:0000000000000008 .L0 
C:\Users\stapi\AppData\Local\Temp\ccbizAf1.s:246    .text.CoAPObsServer_add:0000000000000008 .L0 
C:\Users\stapi\AppData\Local\Temp\ccbizAf1.s:247    .text.CoAPObsServer_add:0000000000000008 .L0 
C:\Users\stapi\AppData\Local\Temp\ccbizAf1.s:248    .text.CoAPObsServer_add:0000000000000008 .L0 
C:\Users\stapi\AppData\Local\Temp\ccbizAf1.s:249    .text.CoAPObsServer_add:0000000000000008 .L0 
C:\Users\stapi\AppData\Local\Temp\ccbizAf1.s:250    .text.CoAPObsServer_add:0000000000000008 .L0 
C:\Users\stapi\AppData\Local\Temp\ccbizAf1.s:253    .text.CoAPObsServer_add:0000000000000008 .L0 
C:\Users\stapi\AppData\Local\Temp\ccbizAf1.s:254    .text.CoAPObsServer_add:0000000000000008 .L0 
C:\Users\stapi\AppData\Local\Temp\ccbizAf1.s:255    .text.CoAPObsServer_add:0000000000000008 .L0 
C:\Users\stapi\AppData\Local\Temp\ccbizAf1.s:256    .text.CoAPObsServer_add:0000000000000008 .L0 
C:\Users\stapi\AppData\Local\Temp\ccbizAf1.s:257    .text.CoAPObsServer_add:000000000000000a .L0 
C:\Users\stapi\AppData\Local\Temp\ccbizAf1.s:259    .text.CoAPObsServer_add:000000000000000a .L0 
C:\Users\stapi\AppData\Local\Temp\ccbizAf1.s:263    .text.CoAPObsServer_add:0000000000000010 .L0 
C:\Users\stapi\AppData\Local\Temp\ccbizAf1.s:266    .text.CoAPObsServer_add:0000000000000012 .L0 
C:\Users\stapi\AppData\Local\Temp\ccbizAf1.s:267    .text.CoAPObsServer_add:0000000000000012 .L0 
C:\Users\stapi\AppData\Local\Temp\ccbizAf1.s:268    .text.CoAPObsServer_add:0000000000000012 .L0 
C:\Users\stapi\AppData\Local\Temp\ccbizAf1.s:269    .text.CoAPObsServer_add:0000000000000012 .L0 
C:\Users\stapi\AppData\Local\Temp\ccbizAf1.s:270    .text.CoAPObsServer_add:0000000000000012 .L0 
C:\Users\stapi\AppData\Local\Temp\ccbizAf1.s:271    .text.CoAPObsServer_add:0000000000000012 .L0 
C:\Users\stapi\AppData\Local\Temp\ccbizAf1.s:276    .text.CoAPObsServer_add:000000000000001c .L0 
C:\Users\stapi\AppData\Local\Temp\ccbizAf1.s:277    .text.CoAPObsServer_add:000000000000001c .L0 
C:\Users\stapi\AppData\Local\Temp\ccbizAf1.s:284    .text.CoAPObsServer_add:000000000000002a .L0 
C:\Users\stapi\AppData\Local\Temp\ccbizAf1.s:285    .text.CoAPObsServer_add:000000000000002a .L0 
C:\Users\stapi\AppData\Local\Temp\ccbizAf1.s:287    .text.CoAPObsServer_add:000000000000002e .L0 
C:\Users\stapi\AppData\Local\Temp\ccbizAf1.s:290    .text.CoAPObsServer_add:0000000000000032 .L0 
C:\Users\stapi\AppData\Local\Temp\ccbizAf1.s:293    .text.CoAPObsServer_add:0000000000000036 .L0 
C:\Users\stapi\AppData\Local\Temp\ccbizAf1.s:295    .text.CoAPObsServer_add:0000000000000038 .L0 
C:\Users\stapi\AppData\Local\Temp\ccbizAf1.s:299    .text.CoAPObsServer_add:0000000000000042 .L0 
C:\Users\stapi\AppData\Local\Temp\ccbizAf1.s:303    .text.CoAPObsServer_add:0000000000000044 .L0 
C:\Users\stapi\AppData\Local\Temp\ccbizAf1.s:306    .text.CoAPObsServer_add:0000000000000048 .L0 
C:\Users\stapi\AppData\Local\Temp\ccbizAf1.s:308    .text.CoAPObsServer_add:000000000000004c .L0 
C:\Users\stapi\AppData\Local\Temp\ccbizAf1.s:312    .text.CoAPObsServer_add:0000000000000056 .L0 
C:\Users\stapi\AppData\Local\Temp\ccbizAf1.s:313    .text.CoAPObsServer_add:0000000000000056 .L0 
C:\Users\stapi\AppData\Local\Temp\ccbizAf1.s:321    .text.CoAPObsServer_add:0000000000000068 .L0 
C:\Users\stapi\AppData\Local\Temp\ccbizAf1.s:322    .text.CoAPObsServer_add:0000000000000068 .L0 
C:\Users\stapi\AppData\Local\Temp\ccbizAf1.s:324    .text.CoAPObsServer_add:000000000000006a .L0 
C:\Users\stapi\AppData\Local\Temp\ccbizAf1.s:325    .text.CoAPObsServer_add:000000000000006a .L0 
C:\Users\stapi\AppData\Local\Temp\ccbizAf1.s:330    .text.CoAPObsServer_add:000000000000007a .L0 
C:\Users\stapi\AppData\Local\Temp\ccbizAf1.s:335    .text.CoAPObsServer_add:000000000000008a .L0 
C:\Users\stapi\AppData\Local\Temp\ccbizAf1.s:340    .text.CoAPObsServer_add:000000000000009a .L0 
C:\Users\stapi\AppData\Local\Temp\ccbizAf1.s:341    .text.CoAPObsServer_add:000000000000009a .L0 
C:\Users\stapi\AppData\Local\Temp\ccbizAf1.s:342    .text.CoAPObsServer_add:000000000000009a .L0 
C:\Users\stapi\AppData\Local\Temp\ccbizAf1.s:347    .text.CoAPObsServer_add:00000000000000a0 .L0 
C:\Users\stapi\AppData\Local\Temp\ccbizAf1.s:348    .text.CoAPObsServer_add:00000000000000a0 .L0 
C:\Users\stapi\AppData\Local\Temp\ccbizAf1.s:351    .text.CoAPObsServer_add:00000000000000a6 .L0 
C:\Users\stapi\AppData\Local\Temp\ccbizAf1.s:353    .text.CoAPObsServer_add:00000000000000aa .L0 
C:\Users\stapi\AppData\Local\Temp\ccbizAf1.s:356    .text.CoAPObsServer_add:00000000000000b2 .L0 
C:\Users\stapi\AppData\Local\Temp\ccbizAf1.s:363    .text.CoAPObsServer_add:00000000000000c2 .L0 
C:\Users\stapi\AppData\Local\Temp\ccbizAf1.s:366    .text.CoAPObsServer_add:00000000000000c6 .L0 
C:\Users\stapi\AppData\Local\Temp\ccbizAf1.s:378    .text.CoAPObsServer_add:00000000000000ee .L0 
C:\Users\stapi\AppData\Local\Temp\ccbizAf1.s:379    .text.CoAPObsServer_add:00000000000000ee .L0 
C:\Users\stapi\AppData\Local\Temp\ccbizAf1.s:381    .text.CoAPObsServer_add:00000000000000f2 .L0 
C:\Users\stapi\AppData\Local\Temp\ccbizAf1.s:384    .text.CoAPObsServer_add:00000000000000fa .L0 
C:\Users\stapi\AppData\Local\Temp\ccbizAf1.s:386    .text.CoAPObsServer_add:00000000000000fc .L0 
C:\Users\stapi\AppData\Local\Temp\ccbizAf1.s:390    .text.CoAPObsServer_add:0000000000000106 .L0 
C:\Users\stapi\AppData\Local\Temp\ccbizAf1.s:391    .text.CoAPObsServer_add:0000000000000106 .L0 
C:\Users\stapi\AppData\Local\Temp\ccbizAf1.s:395    .text.CoAPObsServer_add:000000000000010e .L0 
C:\Users\stapi\AppData\Local\Temp\ccbizAf1.s:397    .text.CoAPObsServer_add:0000000000000112 .L0 
C:\Users\stapi\AppData\Local\Temp\ccbizAf1.s:401    .text.CoAPObsServer_add:000000000000011c .L0 
C:\Users\stapi\AppData\Local\Temp\ccbizAf1.s:402    .text.CoAPObsServer_add:000000000000011c .L0 
C:\Users\stapi\AppData\Local\Temp\ccbizAf1.s:406    .text.CoAPObsServer_add:0000000000000120 .L0 
C:\Users\stapi\AppData\Local\Temp\ccbizAf1.s:407    .text.CoAPObsServer_add:0000000000000122 .L0 
C:\Users\stapi\AppData\Local\Temp\ccbizAf1.s:408    .text.CoAPObsServer_add:0000000000000122 .L0 
C:\Users\stapi\AppData\Local\Temp\ccbizAf1.s:410    .text.CoAPObsServer_add:000000000000012a .L0 
C:\Users\stapi\AppData\Local\Temp\ccbizAf1.s:411    .text.CoAPObsServer_add:000000000000012a .L0 
C:\Users\stapi\AppData\Local\Temp\ccbizAf1.s:412    .text.CoAPObsServer_add:000000000000012a .L0 
C:\Users\stapi\AppData\Local\Temp\ccbizAf1.s:413    .text.CoAPObsServer_add:000000000000012a .L0 
C:\Users\stapi\AppData\Local\Temp\ccbizAf1.s:414    .text.CoAPObsServer_add:000000000000012a .L0 
C:\Users\stapi\AppData\Local\Temp\ccbizAf1.s:415    .text.CoAPObsServer_add:000000000000012a .L0 
C:\Users\stapi\AppData\Local\Temp\ccbizAf1.s:416    .text.CoAPObsServer_add:000000000000012a .L0 
C:\Users\stapi\AppData\Local\Temp\ccbizAf1.s:419    .text.CoAPObsServer_add:000000000000012a .L0 
C:\Users\stapi\AppData\Local\Temp\ccbizAf1.s:421    .text.CoAPObsServer_add:000000000000012a .L0 
C:\Users\stapi\AppData\Local\Temp\ccbizAf1.s:427    .text.CoAPObsServer_add:000000000000012e .L0 
C:\Users\stapi\AppData\Local\Temp\ccbizAf1.s:432    .text.CoAPObsServer_add:000000000000013c .L0 
C:\Users\stapi\AppData\Local\Temp\ccbizAf1.s:433    .text.CoAPObsServer_add:000000000000013c .L0 
C:\Users\stapi\AppData\Local\Temp\ccbizAf1.s:435    .text.CoAPObsServer_add:0000000000000140 .L0 
C:\Users\stapi\AppData\Local\Temp\ccbizAf1.s:438    .text.CoAPObsServer_add:0000000000000144 .L0 
C:\Users\stapi\AppData\Local\Temp\ccbizAf1.s:442    .text.CoAPObsServer_add:000000000000014a .L0 
C:\Users\stapi\AppData\Local\Temp\ccbizAf1.s:443    .text.CoAPObsServer_add:000000000000014a .L0 
C:\Users\stapi\AppData\Local\Temp\ccbizAf1.s:445    .text.CoAPObsServer_add:000000000000014e .L0 
C:\Users\stapi\AppData\Local\Temp\ccbizAf1.s:449    .text.CoAPObsServer_add:0000000000000158 .L0 
C:\Users\stapi\AppData\Local\Temp\ccbizAf1.s:450    .text.CoAPObsServer_add:0000000000000158 .L0 
C:\Users\stapi\AppData\Local\Temp\ccbizAf1.s:452    .text.CoAPObsServer_add:000000000000015c .L0 
C:\Users\stapi\AppData\Local\Temp\ccbizAf1.s:455    .text.CoAPObsServer_add:0000000000000164 .L0 
C:\Users\stapi\AppData\Local\Temp\ccbizAf1.s:457    .text.CoAPObsServer_add:0000000000000166 .L0 
C:\Users\stapi\AppData\Local\Temp\ccbizAf1.s:461    .text.CoAPObsServer_add:0000000000000170 .L0 
C:\Users\stapi\AppData\Local\Temp\ccbizAf1.s:462    .text.CoAPObsServer_add:0000000000000170 .L0 
C:\Users\stapi\AppData\Local\Temp\ccbizAf1.s:464    .text.CoAPObsServer_add:0000000000000174 .L0 
C:\Users\stapi\AppData\Local\Temp\ccbizAf1.s:467    .text.CoAPObsServer_add:0000000000000178 .L0 
C:\Users\stapi\AppData\Local\Temp\ccbizAf1.s:470    .text.CoAPObsServer_add:000000000000017c .L0 
C:\Users\stapi\AppData\Local\Temp\ccbizAf1.s:472    .text.CoAPObsServer_add:0000000000000180 .L0 
C:\Users\stapi\AppData\Local\Temp\ccbizAf1.s:476    .text.CoAPObsServer_add:000000000000018a .L0 
C:\Users\stapi\AppData\Local\Temp\ccbizAf1.s:477    .text.CoAPObsServer_add:000000000000018a .L0 
C:\Users\stapi\AppData\Local\Temp\ccbizAf1.s:479    .text.CoAPObsServer_add:000000000000018c .L0 
C:\Users\stapi\AppData\Local\Temp\ccbizAf1.s:483    .text.CoAPObsServer_add:0000000000000192 .L0 
C:\Users\stapi\AppData\Local\Temp\ccbizAf1.s:485    .text.CoAPObsServer_add:0000000000000196 .L0 
C:\Users\stapi\AppData\Local\Temp\ccbizAf1.s:486    .text.CoAPObsServer_add:0000000000000196 .L0 
C:\Users\stapi\AppData\Local\Temp\ccbizAf1.s:488    .text.CoAPObsServer_add:0000000000000198 .L0 
C:\Users\stapi\AppData\Local\Temp\ccbizAf1.s:490    .text.CoAPObsServer_add:000000000000019c .L0 
C:\Users\stapi\AppData\Local\Temp\ccbizAf1.s:493    .text.CoAPObsServer_add:00000000000001a4 .L0 
C:\Users\stapi\AppData\Local\Temp\ccbizAf1.s:494    .text.CoAPObsServer_add:00000000000001a4 .L0 
C:\Users\stapi\AppData\Local\Temp\ccbizAf1.s:496    .text.CoAPObsServer_add:00000000000001a8 .L0 
C:\Users\stapi\AppData\Local\Temp\ccbizAf1.s:499    .text.CoAPObsServer_add:00000000000001b0 .L0 
C:\Users\stapi\AppData\Local\Temp\ccbizAf1.s:503    .text.CoAPObsServer_add:00000000000001ba .L0 
C:\Users\stapi\AppData\Local\Temp\ccbizAf1.s:507    .text.CoAPObsServer_add:00000000000001c4 .L0 
C:\Users\stapi\AppData\Local\Temp\ccbizAf1.s:508    .text.CoAPObsServer_add:00000000000001c4 .L0 
C:\Users\stapi\AppData\Local\Temp\ccbizAf1.s:513    .text.CoAPObsServer_add:00000000000001d4 .L0 
C:\Users\stapi\AppData\Local\Temp\ccbizAf1.s:520    .text.CoAPObsServer_add:00000000000001ec .L0 
C:\Users\stapi\AppData\Local\Temp\ccbizAf1.s:525    .text.CoAPObsServer_add:00000000000001fc .L0 
C:\Users\stapi\AppData\Local\Temp\ccbizAf1.s:526    .text.CoAPObsServer_add:00000000000001fc .L0 
C:\Users\stapi\AppData\Local\Temp\ccbizAf1.s:527    .text.CoAPObsServer_add:00000000000001fc .L0 
C:\Users\stapi\AppData\Local\Temp\ccbizAf1.s:533    .text.CoAPObsServer_add:0000000000000202 .L0 
C:\Users\stapi\AppData\Local\Temp\ccbizAf1.s:534    .text.CoAPObsServer_add:0000000000000202 .L0 
C:\Users\stapi\AppData\Local\Temp\ccbizAf1.s:538    .text.CoAPObsServer_add:0000000000000204 .L0 
C:\Users\stapi\AppData\Local\Temp\ccbizAf1.s:544    .text.CoAPObsServer_add:0000000000000208 .L0 
C:\Users\stapi\AppData\Local\Temp\ccbizAf1.s:546    .text.CoAPObsServer_add:000000000000020a .L0 
C:\Users\stapi\AppData\Local\Temp\ccbizAf1.s:552    .text.CoAPObsServer_add:000000000000020c .L0 
C:\Users\stapi\AppData\Local\Temp\ccbizAf1.s:559    .text.CoAPObsServer_add:0000000000000210 .L0 
C:\Users\stapi\AppData\Local\Temp\ccbizAf1.s:560    .text.CoAPObsServer_add:0000000000000210 .L0 
C:\Users\stapi\AppData\Local\Temp\ccbizAf1.s:561    .text.CoAPObsServer_add:0000000000000210 .L0 
C:\Users\stapi\AppData\Local\Temp\ccbizAf1.s:562    .text.CoAPObsServer_add:0000000000000210 .L0 
C:\Users\stapi\AppData\Local\Temp\ccbizAf1.s:563    .text.CoAPObsServer_add:0000000000000210 .L0 
C:\Users\stapi\AppData\Local\Temp\ccbizAf1.s:569    .text.CoAPObsServer_add:0000000000000212 .L0 
C:\Users\stapi\AppData\Local\Temp\ccbizAf1.s:570    .text.CoAPObsServer_add:0000000000000212 .L0 
C:\Users\stapi\AppData\Local\Temp\ccbizAf1.s:577    .text.CoAPObsServer_add:0000000000000218 .L0 
C:\Users\stapi\AppData\Local\Temp\ccbizAf1.s:584    .text.CoAPObsServer_add:000000000000021a .L0 
C:\Users\stapi\AppData\Local\Temp\ccbizAf1.s:585    .text.CoAPObsServer_add:000000000000021a .L0 
C:\Users\stapi\AppData\Local\Temp\ccbizAf1.s:589    .text.CoAPObsServer_add:0000000000000226 .L0 
C:\Users\stapi\AppData\Local\Temp\ccbizAf1.s:591    .text.CoAPObsServer_add:000000000000022a .L0 
C:\Users\stapi\AppData\Local\Temp\ccbizAf1.s:599    .text.CoAPObsServer_add:0000000000000244 .L0 
C:\Users\stapi\AppData\Local\Temp\ccbizAf1.s:603    .text.CoAPObsServer_add:000000000000024e .L0 
C:\Users\stapi\AppData\Local\Temp\ccbizAf1.s:604    .text.CoAPObsServer_add:000000000000024e .L0 
C:\Users\stapi\AppData\Local\Temp\ccbizAf1.s:609    .text.CoAPObsServer_add:0000000000000252 .L0 
C:\Users\stapi\AppData\Local\Temp\ccbizAf1.s:612    .text.CoAPObsServer_add:0000000000000258 .L0 
C:\Users\stapi\AppData\Local\Temp\ccbizAf1.s:619    .text.CoapObsServer_delete:0000000000000000 CoapObsServer_delete
C:\Users\stapi\AppData\Local\Temp\ccbizAf1.s:622    .text.CoapObsServer_delete:0000000000000000 .L0 
C:\Users\stapi\AppData\Local\Temp\ccbizAf1.s:624    .text.CoapObsServer_delete:0000000000000000 .L0 
C:\Users\stapi\AppData\Local\Temp\ccbizAf1.s:625    .text.CoapObsServer_delete:0000000000000008 .L0 
C:\Users\stapi\AppData\Local\Temp\ccbizAf1.s:626    .text.CoapObsServer_delete:0000000000000008 .L0 
C:\Users\stapi\AppData\Local\Temp\ccbizAf1.s:627    .text.CoapObsServer_delete:0000000000000008 .L0 
C:\Users\stapi\AppData\Local\Temp\ccbizAf1.s:628    .text.CoapObsServer_delete:0000000000000008 .L0 
C:\Users\stapi\AppData\Local\Temp\ccbizAf1.s:629    .text.CoapObsServer_delete:0000000000000008 .L0 
C:\Users\stapi\AppData\Local\Temp\ccbizAf1.s:630    .text.CoapObsServer_delete:0000000000000008 .L0 
C:\Users\stapi\AppData\Local\Temp\ccbizAf1.s:631    .text.CoapObsServer_delete:0000000000000008 .L0 
C:\Users\stapi\AppData\Local\Temp\ccbizAf1.s:634    .text.CoapObsServer_delete:0000000000000008 .L0 
C:\Users\stapi\AppData\Local\Temp\ccbizAf1.s:635    .text.CoapObsServer_delete:0000000000000008 .L0 
C:\Users\stapi\AppData\Local\Temp\ccbizAf1.s:636    .text.CoapObsServer_delete:0000000000000008 .L0 
C:\Users\stapi\AppData\Local\Temp\ccbizAf1.s:637    .text.CoapObsServer_delete:0000000000000008 .L0 
C:\Users\stapi\AppData\Local\Temp\ccbizAf1.s:639    .text.CoapObsServer_delete:000000000000000a .L0 
C:\Users\stapi\AppData\Local\Temp\ccbizAf1.s:642    .text.CoapObsServer_delete:000000000000000c .L0 
C:\Users\stapi\AppData\Local\Temp\ccbizAf1.s:643    .text.CoapObsServer_delete:000000000000000e .L0 
C:\Users\stapi\AppData\Local\Temp\ccbizAf1.s:645    .text.CoapObsServer_delete:000000000000000e .L0 
C:\Users\stapi\AppData\Local\Temp\ccbizAf1.s:648    .text.CoapObsServer_delete:0000000000000012 .L0 
C:\Users\stapi\AppData\Local\Temp\ccbizAf1.s:651    .text.CoapObsServer_delete:000000000000001a .L0 
C:\Users\stapi\AppData\Local\Temp\ccbizAf1.s:659    .text.CoapObsServer_delete:0000000000000028 .L0 
C:\Users\stapi\AppData\Local\Temp\ccbizAf1.s:661    .text.CoapObsServer_delete:000000000000002c .L0 
C:\Users\stapi\AppData\Local\Temp\ccbizAf1.s:662    .text.CoapObsServer_delete:000000000000002c .L0 
C:\Users\stapi\AppData\Local\Temp\ccbizAf1.s:665    .text.CoapObsServer_delete:0000000000000032 .L0 
C:\Users\stapi\AppData\Local\Temp\ccbizAf1.s:667    .text.CoapObsServer_delete:0000000000000036 .L0 
C:\Users\stapi\AppData\Local\Temp\ccbizAf1.s:670    .text.CoapObsServer_delete:000000000000003e .L0 
C:\Users\stapi\AppData\Local\Temp\ccbizAf1.s:677    .text.CoapObsServer_delete:000000000000004e .L0 
C:\Users\stapi\AppData\Local\Temp\ccbizAf1.s:680    .text.CoapObsServer_delete:0000000000000052 .L0 
C:\Users\stapi\AppData\Local\Temp\ccbizAf1.s:681    .text.CoapObsServer_delete:0000000000000052 .L0 
C:\Users\stapi\AppData\Local\Temp\ccbizAf1.s:683    .text.CoapObsServer_delete:0000000000000056 .L0 
C:\Users\stapi\AppData\Local\Temp\ccbizAf1.s:686    .text.CoapObsServer_delete:000000000000005e .L0 
C:\Users\stapi\AppData\Local\Temp\ccbizAf1.s:692    .text.CoapObsServer_delete:0000000000000064 .L0 
C:\Users\stapi\AppData\Local\Temp\ccbizAf1.s:693    .text.CoapObsServer_delete:0000000000000064 .L0 
C:\Users\stapi\AppData\Local\Temp\ccbizAf1.s:694    .text.CoapObsServer_delete:0000000000000064 .L0 
C:\Users\stapi\AppData\Local\Temp\ccbizAf1.s:697    .text.CoapObsServer_delete:0000000000000066 .L0 
C:\Users\stapi\AppData\Local\Temp\ccbizAf1.s:698    .text.CoapObsServer_delete:0000000000000066 .L0 
C:\Users\stapi\AppData\Local\Temp\ccbizAf1.s:703    .text.CoapObsServer_delete:0000000000000068 .L0 
C:\Users\stapi\AppData\Local\Temp\ccbizAf1.s:704    .text.CoapObsServer_delete:0000000000000068 .L0 
C:\Users\stapi\AppData\Local\Temp\ccbizAf1.s:709    .text.CoapObsServer_delete:000000000000006e .L0 
C:\Users\stapi\AppData\Local\Temp\ccbizAf1.s:711    .text.CoapObsServer_delete:0000000000000070 .L0 
C:\Users\stapi\AppData\Local\Temp\ccbizAf1.s:712    .text.CoapObsServer_delete:0000000000000070 .L0 
C:\Users\stapi\AppData\Local\Temp\ccbizAf1.s:717    .text.CoapObsServer_delete:0000000000000072 .L0 
C:\Users\stapi\AppData\Local\Temp\ccbizAf1.s:725    .text.CoapObsServer_delete:000000000000008c .L0 
C:\Users\stapi\AppData\Local\Temp\ccbizAf1.s:730    .text.CoapObsServer_delete:0000000000000096 .L0 
C:\Users\stapi\AppData\Local\Temp\ccbizAf1.s:731    .text.CoapObsServer_delete:0000000000000096 .L0 
C:\Users\stapi\AppData\Local\Temp\ccbizAf1.s:735    .text.CoapObsServer_delete:00000000000000a0 .L0 
C:\Users\stapi\AppData\Local\Temp\ccbizAf1.s:736    .text.CoapObsServer_delete:00000000000000a0 .L0 
C:\Users\stapi\AppData\Local\Temp\ccbizAf1.s:738    .text.CoapObsServer_delete:00000000000000a4 .L0 
C:\Users\stapi\AppData\Local\Temp\ccbizAf1.s:739    .text.CoapObsServer_delete:00000000000000a4 .L0 
C:\Users\stapi\AppData\Local\Temp\ccbizAf1.s:741    .text.CoapObsServer_delete:00000000000000ac .L0 
C:\Users\stapi\AppData\Local\Temp\ccbizAf1.s:742    .text.CoapObsServer_delete:00000000000000ac .L0 
C:\Users\stapi\AppData\Local\Temp\ccbizAf1.s:743    .text.CoapObsServer_delete:00000000000000ac .L0 
C:\Users\stapi\AppData\Local\Temp\ccbizAf1.s:744    .text.CoapObsServer_delete:00000000000000ac .L0 
C:\Users\stapi\AppData\Local\Temp\ccbizAf1.s:745    .text.CoapObsServer_delete:00000000000000ac .L0 
C:\Users\stapi\AppData\Local\Temp\ccbizAf1.s:746    .text.CoapObsServer_delete:00000000000000ac .L0 
C:\Users\stapi\AppData\Local\Temp\ccbizAf1.s:747    .text.CoapObsServer_delete:00000000000000ac .L0 
C:\Users\stapi\AppData\Local\Temp\ccbizAf1.s:749    .text.CoapObsServer_delete:00000000000000ac .L0 
C:\Users\stapi\AppData\Local\Temp\ccbizAf1.s:752    .text.CoapObsServer_delete:00000000000000ac .L0 
C:\Users\stapi\AppData\Local\Temp\ccbizAf1.s:758    .text.CoapObsServer_delete:00000000000000b8 .L0 
C:\Users\stapi\AppData\Local\Temp\ccbizAf1.s:769    .text.CoapObsServerAll_delete:0000000000000000 CoapObsServerAll_delete
C:\Users\stapi\AppData\Local\Temp\ccbizAf1.s:772    .text.CoapObsServerAll_delete:0000000000000000 .L0 
C:\Users\stapi\AppData\Local\Temp\ccbizAf1.s:774    .text.CoapObsServerAll_delete:0000000000000000 .L0 
C:\Users\stapi\AppData\Local\Temp\ccbizAf1.s:775    .text.CoapObsServerAll_delete:0000000000000008 .L0 
C:\Users\stapi\AppData\Local\Temp\ccbizAf1.s:776    .text.CoapObsServerAll_delete:0000000000000008 .L0 
C:\Users\stapi\AppData\Local\Temp\ccbizAf1.s:777    .text.CoapObsServerAll_delete:0000000000000008 .L0 
C:\Users\stapi\AppData\Local\Temp\ccbizAf1.s:778    .text.CoapObsServerAll_delete:0000000000000008 .L0 
C:\Users\stapi\AppData\Local\Temp\ccbizAf1.s:779    .text.CoapObsServerAll_delete:0000000000000008 .L0 
C:\Users\stapi\AppData\Local\Temp\ccbizAf1.s:780    .text.CoapObsServerAll_delete:0000000000000008 .L0 
C:\Users\stapi\AppData\Local\Temp\ccbizAf1.s:781    .text.CoapObsServerAll_delete:0000000000000008 .L0 
C:\Users\stapi\AppData\Local\Temp\ccbizAf1.s:782    .text.CoapObsServerAll_delete:0000000000000008 .L0 
C:\Users\stapi\AppData\Local\Temp\ccbizAf1.s:783    .text.CoapObsServerAll_delete:0000000000000008 .L0 
C:\Users\stapi\AppData\Local\Temp\ccbizAf1.s:786    .text.CoapObsServerAll_delete:0000000000000008 .L0 
C:\Users\stapi\AppData\Local\Temp\ccbizAf1.s:787    .text.CoapObsServerAll_delete:0000000000000008 .L0 
C:\Users\stapi\AppData\Local\Temp\ccbizAf1.s:788    .text.CoapObsServerAll_delete:0000000000000008 .L0 
C:\Users\stapi\AppData\Local\Temp\ccbizAf1.s:789    .text.CoapObsServerAll_delete:0000000000000008 .L0 
C:\Users\stapi\AppData\Local\Temp\ccbizAf1.s:791    .text.CoapObsServerAll_delete:000000000000000a .L0 
C:\Users\stapi\AppData\Local\Temp\ccbizAf1.s:794    .text.CoapObsServerAll_delete:000000000000000c .L0 
C:\Users\stapi\AppData\Local\Temp\ccbizAf1.s:795    .text.CoapObsServerAll_delete:000000000000000e .L0 
C:\Users\stapi\AppData\Local\Temp\ccbizAf1.s:797    .text.CoapObsServerAll_delete:000000000000000e .L0 
C:\Users\stapi\AppData\Local\Temp\ccbizAf1.s:799    .text.CoapObsServerAll_delete:0000000000000010 .L0 
C:\Users\stapi\AppData\Local\Temp\ccbizAf1.s:802    .text.CoapObsServerAll_delete:0000000000000018 .L0 
C:\Users\stapi\AppData\Local\Temp\ccbizAf1.s:804    .text.CoapObsServerAll_delete:000000000000001a .L0 
C:\Users\stapi\AppData\Local\Temp\ccbizAf1.s:807    .text.CoapObsServerAll_delete:0000000000000022 .L0 
C:\Users\stapi\AppData\Local\Temp\ccbizAf1.s:811    .text.CoapObsServerAll_delete:000000000000002a .L0 
C:\Users\stapi\AppData\Local\Temp\ccbizAf1.s:813    .text.CoapObsServerAll_delete:000000000000002e .L0 
C:\Users\stapi\AppData\Local\Temp\ccbizAf1.s:817    .text.CoapObsServerAll_delete:0000000000000032 .L0 
C:\Users\stapi\AppData\Local\Temp\ccbizAf1.s:819    .text.CoapObsServerAll_delete:0000000000000036 .L0 
C:\Users\stapi\AppData\Local\Temp\ccbizAf1.s:823    .text.CoapObsServerAll_delete:0000000000000040 .L0 
C:\Users\stapi\AppData\Local\Temp\ccbizAf1.s:824    .text.CoapObsServerAll_delete:0000000000000040 .L0 
C:\Users\stapi\AppData\Local\Temp\ccbizAf1.s:826    .text.CoapObsServerAll_delete:0000000000000044 .L0 
C:\Users\stapi\AppData\Local\Temp\ccbizAf1.s:827    .text.CoapObsServerAll_delete:0000000000000044 .L0 
C:\Users\stapi\AppData\Local\Temp\ccbizAf1.s:829    .text.CoapObsServerAll_delete:000000000000004c .L0 
C:\Users\stapi\AppData\Local\Temp\ccbizAf1.s:830    .text.CoapObsServerAll_delete:000000000000004c .L0 
C:\Users\stapi\AppData\Local\Temp\ccbizAf1.s:831    .text.CoapObsServerAll_delete:000000000000004c .L0 
C:\Users\stapi\AppData\Local\Temp\ccbizAf1.s:832    .text.CoapObsServerAll_delete:000000000000004c .L0 
C:\Users\stapi\AppData\Local\Temp\ccbizAf1.s:833    .text.CoapObsServerAll_delete:000000000000004c .L0 
C:\Users\stapi\AppData\Local\Temp\ccbizAf1.s:834    .text.CoapObsServerAll_delete:000000000000004c .L0 
C:\Users\stapi\AppData\Local\Temp\ccbizAf1.s:835    .text.CoapObsServerAll_delete:000000000000004c .L0 
C:\Users\stapi\AppData\Local\Temp\ccbizAf1.s:836    .text.CoapObsServerAll_delete:000000000000004c .L0 
C:\Users\stapi\AppData\Local\Temp\ccbizAf1.s:837    .text.CoapObsServerAll_delete:000000000000004c .L0 
C:\Users\stapi\AppData\Local\Temp\ccbizAf1.s:839    .text.CoapObsServerAll_delete:000000000000004c .L0 
C:\Users\stapi\AppData\Local\Temp\ccbizAf1.s:841    .text.CoapObsServerAll_delete:000000000000004c .L0 
C:\Users\stapi\AppData\Local\Temp\ccbizAf1.s:842    .text.CoapObsServerAll_delete:000000000000004c .L0 
C:\Users\stapi\AppData\Local\Temp\ccbizAf1.s:844    .text.CoapObsServerAll_delete:0000000000000050 .L0 
C:\Users\stapi\AppData\Local\Temp\ccbizAf1.s:847    .text.CoapObsServerAll_delete:0000000000000058 .L0 
C:\Users\stapi\AppData\Local\Temp\ccbizAf1.s:854    .text.CoapObsServerAll_delete:0000000000000068 .L0 
C:\Users\stapi\AppData\Local\Temp\ccbizAf1.s:857    .text.CoapObsServerAll_delete:000000000000006c .L0 
C:\Users\stapi\AppData\Local\Temp\ccbizAf1.s:858    .text.CoapObsServerAll_delete:000000000000006c .L0 
C:\Users\stapi\AppData\Local\Temp\ccbizAf1.s:860    .text.CoapObsServerAll_delete:0000000000000070 .L0 
C:\Users\stapi\AppData\Local\Temp\ccbizAf1.s:863    .text.CoapObsServerAll_delete:0000000000000076 .L0 
C:\Users\stapi\AppData\Local\Temp\ccbizAf1.s:870    .text.CoapObsServerAll_delete:0000000000000080 .L0 
C:\Users\stapi\AppData\Local\Temp\ccbizAf1.s:871    .text.CoapObsServerAll_delete:0000000000000080 .L0 
C:\Users\stapi\AppData\Local\Temp\ccbizAf1.s:872    .text.CoapObsServerAll_delete:0000000000000080 .L0 
C:\Users\stapi\AppData\Local\Temp\ccbizAf1.s:875    .text.CoapObsServerAll_delete:0000000000000082 .L0 
C:\Users\stapi\AppData\Local\Temp\ccbizAf1.s:876    .text.CoapObsServerAll_delete:0000000000000082 .L0 
C:\Users\stapi\AppData\Local\Temp\ccbizAf1.s:881    .text.CoapObsServerAll_delete:0000000000000084 .L0 
C:\Users\stapi\AppData\Local\Temp\ccbizAf1.s:882    .text.CoapObsServerAll_delete:0000000000000084 .L0 
C:\Users\stapi\AppData\Local\Temp\ccbizAf1.s:887    .text.CoapObsServerAll_delete:000000000000008c .L0 
C:\Users\stapi\AppData\Local\Temp\ccbizAf1.s:889    .text.CoapObsServerAll_delete:000000000000008e .L0 
C:\Users\stapi\AppData\Local\Temp\ccbizAf1.s:890    .text.CoapObsServerAll_delete:000000000000008e .L0 
C:\Users\stapi\AppData\Local\Temp\ccbizAf1.s:895    .text.CoapObsServerAll_delete:0000000000000090 .L0 
C:\Users\stapi\AppData\Local\Temp\ccbizAf1.s:900    .text.CoapObsServerAll_delete:000000000000009e .L0 
C:\Users\stapi\AppData\Local\Temp\ccbizAf1.s:905    .text.CoapObsServerAll_delete:00000000000000a8 .L0 
C:\Users\stapi\AppData\Local\Temp\ccbizAf1.s:911    .text.CoapObsServerAll_delete:00000000000000b4 .L0 
C:\Users\stapi\AppData\Local\Temp\ccbizAf1.s:925    .text.CoAPObsServer_notify:0000000000000000 CoAPObsServer_notify
C:\Users\stapi\AppData\Local\Temp\ccbizAf1.s:928    .text.CoAPObsServer_notify:0000000000000000 .L0 
C:\Users\stapi\AppData\Local\Temp\ccbizAf1.s:930    .text.CoAPObsServer_notify:0000000000000000 .L0 
C:\Users\stapi\AppData\Local\Temp\ccbizAf1.s:931    .text.CoAPObsServer_notify:0000000000000008 .L0 
C:\Users\stapi\AppData\Local\Temp\ccbizAf1.s:932    .text.CoAPObsServer_notify:0000000000000008 .L0 
C:\Users\stapi\AppData\Local\Temp\ccbizAf1.s:933    .text.CoAPObsServer_notify:0000000000000008 .L0 
C:\Users\stapi\AppData\Local\Temp\ccbizAf1.s:934    .text.CoAPObsServer_notify:0000000000000008 .L0 
C:\Users\stapi\AppData\Local\Temp\ccbizAf1.s:935    .text.CoAPObsServer_notify:0000000000000008 .L0 
C:\Users\stapi\AppData\Local\Temp\ccbizAf1.s:936    .text.CoAPObsServer_notify:0000000000000008 .L0 
C:\Users\stapi\AppData\Local\Temp\ccbizAf1.s:937    .text.CoAPObsServer_notify:0000000000000008 .L0 
C:\Users\stapi\AppData\Local\Temp\ccbizAf1.s:938    .text.CoAPObsServer_notify:0000000000000008 .L0 
C:\Users\stapi\AppData\Local\Temp\ccbizAf1.s:939    .text.CoAPObsServer_notify:0000000000000008 .L0 
C:\Users\stapi\AppData\Local\Temp\ccbizAf1.s:940    .text.CoAPObsServer_notify:0000000000000008 .L0 
C:\Users\stapi\AppData\Local\Temp\ccbizAf1.s:941    .text.CoAPObsServer_notify:0000000000000008 .L0 
C:\Users\stapi\AppData\Local\Temp\ccbizAf1.s:942    .text.CoAPObsServer_notify:0000000000000008 .L0 
C:\Users\stapi\AppData\Local\Temp\ccbizAf1.s:943    .text.CoAPObsServer_notify:0000000000000008 .L0 
C:\Users\stapi\AppData\Local\Temp\ccbizAf1.s:944    .text.CoAPObsServer_notify:0000000000000008 .L0 
C:\Users\stapi\AppData\Local\Temp\ccbizAf1.s:947    .text.CoAPObsServer_notify:0000000000000008 .L0 
C:\Users\stapi\AppData\Local\Temp\ccbizAf1.s:948    .text.CoAPObsServer_notify:0000000000000008 .L0 
C:\Users\stapi\AppData\Local\Temp\ccbizAf1.s:949    .text.CoAPObsServer_notify:0000000000000008 .L0 
C:\Users\stapi\AppData\Local\Temp\ccbizAf1.s:950    .text.CoAPObsServer_notify:0000000000000008 .L0 
C:\Users\stapi\AppData\Local\Temp\ccbizAf1.s:951    .text.CoAPObsServer_notify:0000000000000008 .L0 
C:\Users\stapi\AppData\Local\Temp\ccbizAf1.s:952    .text.CoAPObsServer_notify:0000000000000008 .L0 
C:\Users\stapi\AppData\Local\Temp\ccbizAf1.s:953    .text.CoAPObsServer_notify:0000000000000008 .L0 
C:\Users\stapi\AppData\Local\Temp\ccbizAf1.s:954    .text.CoAPObsServer_notify:000000000000000a .L0 
C:\Users\stapi\AppData\Local\Temp\ccbizAf1.s:956    .text.CoAPObsServer_notify:000000000000000a .L0 
C:\Users\stapi\AppData\Local\Temp\ccbizAf1.s:959    .text.CoAPObsServer_notify:000000000000000c .L0 
C:\Users\stapi\AppData\Local\Temp\ccbizAf1.s:960    .text.CoAPObsServer_notify:000000000000000c .L0 
C:\Users\stapi\AppData\Local\Temp\ccbizAf1.s:965    .text.CoAPObsServer_notify:0000000000000014 .L0 
C:\Users\stapi\AppData\Local\Temp\ccbizAf1.s:968    .text.CoAPObsServer_notify:000000000000001c .L0 
C:\Users\stapi\AppData\Local\Temp\ccbizAf1.s:969    .text.CoAPObsServer_notify:000000000000001c .L0 
C:\Users\stapi\AppData\Local\Temp\ccbizAf1.s:971    .text.CoAPObsServer_notify:000000000000001e .L0 
C:\Users\stapi\AppData\Local\Temp\ccbizAf1.s:974    .text.CoAPObsServer_notify:0000000000000022 .L0 
C:\Users\stapi\AppData\Local\Temp\ccbizAf1.s:977    .text.CoAPObsServer_notify:0000000000000024 .L0 
C:\Users\stapi\AppData\Local\Temp\ccbizAf1.s:980    .text.CoAPObsServer_notify:0000000000000026 .L0 
C:\Users\stapi\AppData\Local\Temp\ccbizAf1.s:983    .text.CoAPObsServer_notify:000000000000002a .L0 
C:\Users\stapi\AppData\Local\Temp\ccbizAf1.s:986    .text.CoAPObsServer_notify:0000000000000032 .L0 
C:\Users\stapi\AppData\Local\Temp\ccbizAf1.s:989    .text.CoAPObsServer_notify:0000000000000034 .L0 
C:\Users\stapi\AppData\Local\Temp\ccbizAf1.s:993    .text.CoAPObsServer_notify:000000000000003c .L0 
C:\Users\stapi\AppData\Local\Temp\ccbizAf1.s:997    .text.CoAPObsServer_notify:0000000000000040 .L0 
C:\Users\stapi\AppData\Local\Temp\ccbizAf1.s:1002   .text.CoAPObsServer_notify:0000000000000044 .L0 
C:\Users\stapi\AppData\Local\Temp\ccbizAf1.s:1004   .text.CoAPObsServer_notify:0000000000000048 .L0 
C:\Users\stapi\AppData\Local\Temp\ccbizAf1.s:1009   .text.CoAPObsServer_notify:0000000000000052 .L0 
C:\Users\stapi\AppData\Local\Temp\ccbizAf1.s:1010   .text.CoAPObsServer_notify:0000000000000052 .L0 
C:\Users\stapi\AppData\Local\Temp\ccbizAf1.s:1012   .text.CoAPObsServer_notify:0000000000000056 .L0 
C:\Users\stapi\AppData\Local\Temp\ccbizAf1.s:1013   .text.CoAPObsServer_notify:0000000000000056 .L0 
C:\Users\stapi\AppData\Local\Temp\ccbizAf1.s:1015   .text.CoAPObsServer_notify:000000000000005e .L0 
C:\Users\stapi\AppData\Local\Temp\ccbizAf1.s:1016   .text.CoAPObsServer_notify:000000000000005e .L0 
C:\Users\stapi\AppData\Local\Temp\ccbizAf1.s:1017   .text.CoAPObsServer_notify:000000000000005e .L0 
C:\Users\stapi\AppData\Local\Temp\ccbizAf1.s:1018   .text.CoAPObsServer_notify:000000000000005e .L0 
C:\Users\stapi\AppData\Local\Temp\ccbizAf1.s:1019   .text.CoAPObsServer_notify:000000000000005e .L0 
C:\Users\stapi\AppData\Local\Temp\ccbizAf1.s:1020   .text.CoAPObsServer_notify:000000000000005e .L0 
C:\Users\stapi\AppData\Local\Temp\ccbizAf1.s:1021   .text.CoAPObsServer_notify:000000000000005e .L0 
C:\Users\stapi\AppData\Local\Temp\ccbizAf1.s:1022   .text.CoAPObsServer_notify:000000000000005e .L0 
C:\Users\stapi\AppData\Local\Temp\ccbizAf1.s:1023   .text.CoAPObsServer_notify:000000000000005e .L0 
C:\Users\stapi\AppData\Local\Temp\ccbizAf1.s:1024   .text.CoAPObsServer_notify:000000000000005e .L0 
C:\Users\stapi\AppData\Local\Temp\ccbizAf1.s:1025   .text.CoAPObsServer_notify:000000000000005e .L0 
C:\Users\stapi\AppData\Local\Temp\ccbizAf1.s:1026   .text.CoAPObsServer_notify:000000000000005e .L0 
C:\Users\stapi\AppData\Local\Temp\ccbizAf1.s:1027   .text.CoAPObsServer_notify:000000000000005e .L0 
C:\Users\stapi\AppData\Local\Temp\ccbizAf1.s:1028   .text.CoAPObsServer_notify:000000000000005e .L0 
C:\Users\stapi\AppData\Local\Temp\ccbizAf1.s:1031   .text.CoAPObsServer_notify:000000000000005e .L0 
C:\Users\stapi\AppData\Local\Temp\ccbizAf1.s:1033   .text.CoAPObsServer_notify:000000000000005e .L0 
C:\Users\stapi\AppData\Local\Temp\ccbizAf1.s:1034   .text.CoAPObsServer_notify:000000000000005e .L0 
C:\Users\stapi\AppData\Local\Temp\ccbizAf1.s:1038   .text.CoAPObsServer_notify:0000000000000064 .L0 
C:\Users\stapi\AppData\Local\Temp\ccbizAf1.s:1039   .text.CoAPObsServer_notify:0000000000000064 .L0 
C:\Users\stapi\AppData\Local\Temp\ccbizAf1.s:1043   .text.CoAPObsServer_notify:000000000000006e .L0 
C:\Users\stapi\AppData\Local\Temp\ccbizAf1.s:1048   .text.CoAPObsServer_notify:000000000000007c .L0 
C:\Users\stapi\AppData\Local\Temp\ccbizAf1.s:1053   .text.CoAPObsServer_notify:000000000000008a .L0 
C:\Users\stapi\AppData\Local\Temp\ccbizAf1.s:1061   .text.CoAPObsServer_notify:00000000000000a0 .L0 
C:\Users\stapi\AppData\Local\Temp\ccbizAf1.s:1066   .text.CoAPObsServer_notify:00000000000000ac .L0 
C:\Users\stapi\AppData\Local\Temp\ccbizAf1.s:1071   .text.CoAPObsServer_notify:00000000000000b8 .L0 
C:\Users\stapi\AppData\Local\Temp\ccbizAf1.s:1077   .text.CoAPObsServer_notify:00000000000000ca .L0 
C:\Users\stapi\AppData\Local\Temp\ccbizAf1.s:1078   .text.CoAPObsServer_notify:00000000000000ca .L0 
C:\Users\stapi\AppData\Local\Temp\ccbizAf1.s:1080   .text.CoAPObsServer_notify:00000000000000cc .L0 
C:\Users\stapi\AppData\Local\Temp\ccbizAf1.s:1087   .text.CoAPObsServer_notify:00000000000000de .L0 
C:\Users\stapi\AppData\Local\Temp\ccbizAf1.s:1093   .text.CoAPObsServer_notify:00000000000000ee .L0 
C:\Users\stapi\AppData\Local\Temp\ccbizAf1.s:1099   .text.CoAPObsServer_notify:00000000000000fe .L0 
C:\Users\stapi\AppData\Local\Temp\ccbizAf1.s:1112   .text.CoAPObsServer_notify:0000000000000128 .L0 
C:\Users\stapi\AppData\Local\Temp\ccbizAf1.s:1115   .text.CoAPObsServer_notify:000000000000012c .L0 
C:\Users\stapi\AppData\Local\Temp\ccbizAf1.s:1116   .text.CoAPObsServer_notify:000000000000012c .L0 
C:\Users\stapi\AppData\Local\Temp\ccbizAf1.s:1118   .text.CoAPObsServer_notify:0000000000000130 .L0 
C:\Users\stapi\AppData\Local\Temp\ccbizAf1.s:1119   .text.CoAPObsServer_notify:0000000000000130 .L0 
C:\Users\stapi\AppData\Local\Temp\ccbizAf1.s:1126   .text.CoAPObsServer_notify:000000000000013c .L0 
C:\Users\stapi\AppData\Local\Temp\ccbizAf1.s:1128   .text.CoAPObsServer_notify:000000000000013e .L0 
C:\Users\stapi\AppData\Local\Temp\ccbizAf1.s:1129   .text.CoAPObsServer_notify:000000000000013e .L0 
C:\Users\stapi\AppData\Local\Temp\ccbizAf1.s:1131   .text.CoAPObsServer_notify:0000000000000140 .L0 
C:\Users\stapi\AppData\Local\Temp\ccbizAf1.s:1132   .text.CoAPObsServer_notify:0000000000000140 .L0 
C:\Users\stapi\AppData\Local\Temp\ccbizAf1.s:1135   .text.CoAPObsServer_notify:0000000000000142 .L0 
C:\Users\stapi\AppData\Local\Temp\ccbizAf1.s:1136   .text.CoAPObsServer_notify:0000000000000142 .L0 
C:\Users\stapi\AppData\Local\Temp\ccbizAf1.s:1138   .text.CoAPObsServer_notify:0000000000000144 .L0 
C:\Users\stapi\AppData\Local\Temp\ccbizAf1.s:1143   .text.CoAPObsServer_notify:000000000000014a .L0 
C:\Users\stapi\AppData\Local\Temp\ccbizAf1.s:1150   .text.CoAPObsServer_notify:0000000000000156 .L0 
C:\Users\stapi\AppData\Local\Temp\ccbizAf1.s:1151   .text.CoAPObsServer_notify:0000000000000156 .L0 
C:\Users\stapi\AppData\Local\Temp\ccbizAf1.s:1156   .text.CoAPObsServer_notify:0000000000000162 .L0 
C:\Users\stapi\AppData\Local\Temp\ccbizAf1.s:1160   .text.CoAPObsServer_notify:000000000000016e .L0 
C:\Users\stapi\AppData\Local\Temp\ccbizAf1.s:1165   .text.CoAPObsServer_notify:000000000000017a .L0 
C:\Users\stapi\AppData\Local\Temp\ccbizAf1.s:1166   .text.CoAPObsServer_notify:000000000000017a .L0 
C:\Users\stapi\AppData\Local\Temp\ccbizAf1.s:1174   .text.CoAPObsServer_notify:000000000000018a .L0 
C:\Users\stapi\AppData\Local\Temp\ccbizAf1.s:1175   .text.CoAPObsServer_notify:000000000000018a .L0 
C:\Users\stapi\AppData\Local\Temp\ccbizAf1.s:1177   .text.CoAPObsServer_notify:000000000000018e .L0 
C:\Users\stapi\AppData\Local\Temp\ccbizAf1.s:1180   .text.CoAPObsServer_notify:0000000000000192 .L0 
C:\Users\stapi\AppData\Local\Temp\ccbizAf1.s:1183   .text.CoAPObsServer_notify:0000000000000194 .L0 
C:\Users\stapi\AppData\Local\Temp\ccbizAf1.s:1185   .text.CoAPObsServer_notify:0000000000000196 .L0 
C:\Users\stapi\AppData\Local\Temp\ccbizAf1.s:1188   .text.CoAPObsServer_notify:000000000000019e .L0 
C:\Users\stapi\AppData\Local\Temp\ccbizAf1.s:1189   .text.CoAPObsServer_notify:000000000000019e .L0 
C:\Users\stapi\AppData\Local\Temp\ccbizAf1.s:1192   .text.CoAPObsServer_notify:00000000000001a0 .L0 
C:\Users\stapi\AppData\Local\Temp\ccbizAf1.s:1198   .text.CoAPObsServer_notify:00000000000001aa .L0 
C:\Users\stapi\AppData\Local\Temp\ccbizAf1.s:1206   .text.CoAPObsServer_notify:00000000000001b2 .L0 
C:\Users\stapi\AppData\Local\Temp\ccbizAf1.s:1210   .text.CoAPObsServer_notify:00000000000001b8 .L0 
C:\Users\stapi\AppData\Local\Temp\ccbizAf1.s:1215   .rodata.__FUNCTION__.0:0000000000000000 .LANCHOR4
C:\Users\stapi\AppData\Local\Temp\ccbizAf1.s:1218   .rodata.__FUNCTION__.0:0000000000000000 __FUNCTION__.0
C:\Users\stapi\AppData\Local\Temp\ccbizAf1.s:1222   .rodata.__FUNCTION__.1:0000000000000000 .LANCHOR3
C:\Users\stapi\AppData\Local\Temp\ccbizAf1.s:1225   .rodata.__FUNCTION__.1:0000000000000000 __FUNCTION__.1
C:\Users\stapi\AppData\Local\Temp\ccbizAf1.s:1229   .rodata.__FUNCTION__.2:0000000000000000 .LANCHOR2
C:\Users\stapi\AppData\Local\Temp\ccbizAf1.s:1232   .rodata.__FUNCTION__.2:0000000000000000 __FUNCTION__.2
C:\Users\stapi\AppData\Local\Temp\ccbizAf1.s:1236   .rodata.__FUNCTION__.3:0000000000000000 .LANCHOR1
C:\Users\stapi\AppData\Local\Temp\ccbizAf1.s:1239   .rodata.__FUNCTION__.3:0000000000000000 __FUNCTION__.3
C:\Users\stapi\AppData\Local\Temp\ccbizAf1.s:1243   .rodata.__FUNCTION__.4:0000000000000000 .LANCHOR0
C:\Users\stapi\AppData\Local\Temp\ccbizAf1.s:1246   .rodata.__FUNCTION__.4:0000000000000000 __FUNCTION__.4
C:\Users\stapi\AppData\Local\Temp\ccbizAf1.s:77     .text.CoAPObsServer_init:0000000000000042 .L0 
C:\Users\stapi\AppData\Local\Temp\ccbizAf1.s:212    .text.CoAPObsServer_deinit:0000000000000096 .L0 
C:\Users\stapi\AppData\Local\Temp\ccbizAf1.s:615    .text.CoAPObsServer_add:0000000000000258 .L0 
C:\Users\stapi\AppData\Local\Temp\ccbizAf1.s:761    .text.CoapObsServer_delete:00000000000000b8 .L0 
C:\Users\stapi\AppData\Local\Temp\ccbizAf1.s:914    .text.CoapObsServerAll_delete:00000000000000b4 .L0 
C:\Users\stapi\AppData\Local\Temp\ccbizAf1.s:1213   .text.CoAPObsServer_notify:00000000000001b8 .L0 
                     .debug_frame:0000000000000000 .L0 
C:\Users\stapi\AppData\Local\Temp\ccbizAf1.s:79     .rodata.CoAPObsServer_deinit.str1.4:0000000000000000 .LC0
C:\Users\stapi\AppData\Local\Temp\ccbizAf1.s:82     .rodata.CoAPObsServer_deinit.str1.4:0000000000000024 .LC1
C:\Users\stapi\AppData\Local\Temp\ccbizAf1.s:160    .text.CoAPObsServer_deinit:0000000000000058 .L5
C:\Users\stapi\AppData\Local\Temp\ccbizAf1.s:127    .text.CoAPObsServer_deinit:000000000000002e .L4
C:\Users\stapi\AppData\Local\Temp\ccbizAf1.s:217    .rodata.CoAPObsServer_add.str1.4:0000000000000034 .LC3
C:\Users\stapi\AppData\Local\Temp\ccbizAf1.s:220    .rodata.CoAPObsServer_add.str1.4:000000000000003c .LC4
C:\Users\stapi\AppData\Local\Temp\ccbizAf1.s:223    .rodata.CoAPObsServer_add.str1.4:0000000000000054 .LC5
C:\Users\stapi\AppData\Local\Temp\ccbizAf1.s:214    .rodata.CoAPObsServer_add.str1.4:0000000000000000 .LC2
C:\Users\stapi\AppData\Local\Temp\ccbizAf1.s:226    .rodata.CoAPObsServer_add.str1.4:0000000000000058 .LC6
C:\Users\stapi\AppData\Local\Temp\ccbizAf1.s:229    .rodata.CoAPObsServer_add.str1.4:0000000000000060 .LC7
C:\Users\stapi\AppData\Local\Temp\ccbizAf1.s:232    .rodata.CoAPObsServer_add.str1.4:0000000000000084 .LC8
C:\Users\stapi\AppData\Local\Temp\ccbizAf1.s:607    .text.CoAPObsServer_add:0000000000000252 .L15
C:\Users\stapi\AppData\Local\Temp\ccbizAf1.s:404    .text.CoAPObsServer_add:0000000000000120 .L7
C:\Users\stapi\AppData\Local\Temp\ccbizAf1.s:345    .text.CoAPObsServer_add:00000000000000a0 .L11
C:\Users\stapi\AppData\Local\Temp\ccbizAf1.s:425    .text.CoAPObsServer_add:000000000000012e .L12
C:\Users\stapi\AppData\Local\Temp\ccbizAf1.s:418    .text.CoAPObsServer_add:000000000000012a .L10
C:\Users\stapi\AppData\Local\Temp\ccbizAf1.s:301    .text.CoAPObsServer_add:0000000000000044 .L19
C:\Users\stapi\AppData\Local\Temp\ccbizAf1.s:481    .text.CoAPObsServer_add:0000000000000192 .L13
C:\Users\stapi\AppData\Local\Temp\ccbizAf1.s:529    .text.CoAPObsServer_add:0000000000000202 .L14
C:\Users\stapi\AppData\Local\Temp\ccbizAf1.s:729    .text.CoapObsServer_delete:0000000000000096 .L23
C:\Users\stapi\AppData\Local\Temp\ccbizAf1.s:748    .text.CoapObsServer_delete:00000000000000ac .L22
C:\Users\stapi\AppData\Local\Temp\ccbizAf1.s:657    .text.CoapObsServer_delete:0000000000000028 .L21
C:\Users\stapi\AppData\Local\Temp\ccbizAf1.s:763    .rodata.CoapObsServerAll_delete.str1.4:0000000000000000 .LC9
C:\Users\stapi\AppData\Local\Temp\ccbizAf1.s:838    .text.CoapObsServerAll_delete:000000000000004c .L29
C:\Users\stapi\AppData\Local\Temp\ccbizAf1.s:903    .text.CoapObsServerAll_delete:00000000000000a8 .L28
C:\Users\stapi\AppData\Local\Temp\ccbizAf1.s:815    .text.CoapObsServerAll_delete:0000000000000032 .L27
C:\Users\stapi\AppData\Local\Temp\ccbizAf1.s:919    .rodata.CoAPObsServer_notify.str1.4:0000000000000030 .LC11
C:\Users\stapi\AppData\Local\Temp\ccbizAf1.s:916    .rodata.CoAPObsServer_notify.str1.4:0000000000000000 .LC10
C:\Users\stapi\AppData\Local\Temp\ccbizAf1.s:1007   .text.CoAPObsServer_notify:0000000000000052 .L32
C:\Users\stapi\AppData\Local\Temp\ccbizAf1.s:1030   .text.CoAPObsServer_notify:000000000000005e .L39
C:\Users\stapi\AppData\Local\Temp\ccbizAf1.s:1195   .text.CoAPObsServer_notify:00000000000001aa .L34
C:\Users\stapi\AppData\Local\Temp\ccbizAf1.s:1203   .text.CoAPObsServer_notify:00000000000001b2 .L35
C:\Users\stapi\AppData\Local\Temp\ccbizAf1.s:1148   .text.CoAPObsServer_notify:0000000000000156 .L36
C:\Users\stapi\AppData\Local\Temp\ccbizAf1.s:1163   .text.CoAPObsServer_notify:000000000000017a .L37
C:\Users\stapi\AppData\Local\Temp\ccbizAf1.s:1190   .text.CoAPObsServer_notify:00000000000001a0 .L38
C:\Users\stapi\AppData\Local\Temp\ccbizAf1.s:999    .text.CoAPObsServer_notify:0000000000000044 .L33
C:\Users\stapi\AppData\Local\Temp\ccbizAf1.s:1141   .text.CoAPObsServer_notify:000000000000014a .L51
C:\Users\stapi\AppData\Local\Temp\ccbizAf1.s:3902   .debug_abbrev:0000000000000000 .Ldebug_abbrev0
C:\Users\stapi\AppData\Local\Temp\ccbizAf1.s:5624   .debug_str:0000000000000ac1 .LASF165
C:\Users\stapi\AppData\Local\Temp\ccbizAf1.s:5532   .debug_str:000000000000078f .LASF166
C:\Users\stapi\AppData\Local\Temp\ccbizAf1.s:5454   .debug_str:000000000000046e .LASF167
C:\Users\stapi\AppData\Local\Temp\ccbizAf1.s:5240   .debug_ranges:0000000000000000 .Ldebug_ranges0
C:\Users\stapi\AppData\Local\Temp\ccbizAf1.s:5304   .debug_line:0000000000000000 .Ldebug_line0
C:\Users\stapi\AppData\Local\Temp\ccbizAf1.s:5380   .debug_str:0000000000000242 .LASF0
C:\Users\stapi\AppData\Local\Temp\ccbizAf1.s:5546   .debug_str:0000000000000867 .LASF1
C:\Users\stapi\AppData\Local\Temp\ccbizAf1.s:5554   .debug_str:000000000000088a .LASF2
C:\Users\stapi\AppData\Local\Temp\ccbizAf1.s:5448   .debug_str:000000000000043e .LASF3
C:\Users\stapi\AppData\Local\Temp\ccbizAf1.s:5390   .debug_str:000000000000027a .LASF4
C:\Users\stapi\AppData\Local\Temp\ccbizAf1.s:5436   .debug_str:00000000000003c1 .LASF5
C:\Users\stapi\AppData\Local\Temp\ccbizAf1.s:5378   .debug_str:0000000000000234 .LASF6
C:\Users\stapi\AppData\Local\Temp\ccbizAf1.s:5520   .debug_str:000000000000072d .LASF9
C:\Users\stapi\AppData\Local\Temp\ccbizAf1.s:5350   .debug_str:000000000000013d .LASF7
C:\Users\stapi\AppData\Local\Temp\ccbizAf1.s:5426   .debug_str:0000000000000367 .LASF8
C:\Users\stapi\AppData\Local\Temp\ccbizAf1.s:5318   .debug_str:000000000000004f .LASF10
C:\Users\stapi\AppData\Local\Temp\ccbizAf1.s:5580   .debug_str:0000000000000967 .LASF11
C:\Users\stapi\AppData\Local\Temp\ccbizAf1.s:5322   .debug_str:000000000000005b .LASF12
C:\Users\stapi\AppData\Local\Temp\ccbizAf1.s:5544   .debug_str:0000000000000857 .LASF59
C:\Users\stapi\AppData\Local\Temp\ccbizAf1.s:5356   .debug_str:000000000000016b .LASF13
C:\Users\stapi\AppData\Local\Temp\ccbizAf1.s:5420   .debug_str:000000000000033e .LASF14
C:\Users\stapi\AppData\Local\Temp\ccbizAf1.s:5466   .debug_str:0000000000000544 .LASF15
C:\Users\stapi\AppData\Local\Temp\ccbizAf1.s:5504   .debug_str:000000000000069b .LASF16
C:\Users\stapi\AppData\Local\Temp\ccbizAf1.s:5422   .debug_str:0000000000000343 .LASF17
C:\Users\stapi\AppData\Local\Temp\ccbizAf1.s:5616   .debug_str:0000000000000a6b .LASF18
C:\Users\stapi\AppData\Local\Temp\ccbizAf1.s:5524   .debug_str:000000000000074c .LASF19
C:\Users\stapi\AppData\Local\Temp\ccbizAf1.s:5326   .debug_str:0000000000000070 .LASF20
C:\Users\stapi\AppData\Local\Temp\ccbizAf1.s:5432   .debug_str:0000000000000392 .LASF21
C:\Users\stapi\AppData\Local\Temp\ccbizAf1.s:5334   .debug_str:00000000000000bc .LASF22
C:\Users\stapi\AppData\Local\Temp\ccbizAf1.s:5402   .debug_str:00000000000002bf .LASF23
C:\Users\stapi\AppData\Local\Temp\ccbizAf1.s:5338   .debug_str:00000000000000db .LASF24
C:\Users\stapi\AppData\Local\Temp\ccbizAf1.s:5586   .debug_str:0000000000000996 .LASF25
C:\Users\stapi\AppData\Local\Temp\ccbizAf1.s:5628   .debug_str:0000000000000bad .LASF26
C:\Users\stapi\AppData\Local\Temp\ccbizAf1.s:5530   .debug_str:0000000000000771 .LASF27
C:\Users\stapi\AppData\Local\Temp\ccbizAf1.s:5328   .debug_str:0000000000000085 .LASF28
C:\Users\stapi\AppData\Local\Temp\ccbizAf1.s:5518   .debug_str:0000000000000710 .LASF29
C:\Users\stapi\AppData\Local\Temp\ccbizAf1.s:5360   .debug_str:0000000000000175 .LASF30
C:\Users\stapi\AppData\Local\Temp\ccbizAf1.s:5612   .debug_str:0000000000000a38 .LASF31
C:\Users\stapi\AppData\Local\Temp\ccbizAf1.s:5482   .debug_str:00000000000005da .LASF32
C:\Users\stapi\AppData\Local\Temp\ccbizAf1.s:5584   .debug_str:0000000000000975 .LASF33
C:\Users\stapi\AppData\Local\Temp\ccbizAf1.s:5494   .debug_str:000000000000063c .LASF34
C:\Users\stapi\AppData\Local\Temp\ccbizAf1.s:5620   .debug_str:0000000000000a88 .LASF35
C:\Users\stapi\AppData\Local\Temp\ccbizAf1.s:5576   .debug_str:0000000000000935 .LASF36
C:\Users\stapi\AppData\Local\Temp\ccbizAf1.s:5366   .debug_str:00000000000001b4 .LASF37
C:\Users\stapi\AppData\Local\Temp\ccbizAf1.s:5474   .debug_str:000000000000058c .LASF38
C:\Users\stapi\AppData\Local\Temp\ccbizAf1.s:5512   .debug_str:00000000000006e0 .LASF39
C:\Users\stapi\AppData\Local\Temp\ccbizAf1.s:5600   .debug_str:00000000000009f5 .LASF40
C:\Users\stapi\AppData\Local\Temp\ccbizAf1.s:5556   .debug_str:0000000000000894 .LASF41
C:\Users\stapi\AppData\Local\Temp\ccbizAf1.s:5444   .debug_str:0000000000000414 .LASF42
C:\Users\stapi\AppData\Local\Temp\ccbizAf1.s:5442   .debug_str:00000000000003eb .LASF43
C:\Users\stapi\AppData\Local\Temp\ccbizAf1.s:5562   .debug_str:00000000000008ce .LASF44
C:\Users\stapi\AppData\Local\Temp\ccbizAf1.s:5394   .debug_str:000000000000028f .LASF45
C:\Users\stapi\AppData\Local\Temp\ccbizAf1.s:5346   .debug_str:0000000000000115 .LASF46
C:\Users\stapi\AppData\Local\Temp\ccbizAf1.s:5368   .debug_str:00000000000001e1 .LASF47
C:\Users\stapi\AppData\Local\Temp\ccbizAf1.s:5312   .debug_str:000000000000002e .LASF48
C:\Users\stapi\AppData\Local\Temp\ccbizAf1.s:5358   .debug_str:0000000000000170 .LASF49
C:\Users\stapi\AppData\Local\Temp\ccbizAf1.s:5456   .debug_str:00000000000004ff .LASF50
C:\Users\stapi\AppData\Local\Temp\ccbizAf1.s:5550   .debug_str:000000000000087a .LASF51
C:\Users\stapi\AppData\Local\Temp\ccbizAf1.s:5336   .debug_str:00000000000000d6 .LASF52
C:\Users\stapi\AppData\Local\Temp\ccbizAf1.s:5604   .debug_str:0000000000000a1b .LASF53
C:\Users\stapi\AppData\Local\Temp\ccbizAf1.s:5608   .debug_str:0000000000000a2c .LASF54
C:\Users\stapi\AppData\Local\Temp\ccbizAf1.s:5558   .debug_str:00000000000008ba .LASF55
C:\Users\stapi\AppData\Local\Temp\ccbizAf1.s:5458   .debug_str:000000000000050d .LASF56
C:\Users\stapi\AppData\Local\Temp\ccbizAf1.s:5396   .debug_str:00000000000002a4 .LASF57
C:\Users\stapi\AppData\Local\Temp\ccbizAf1.s:5496   .debug_str:0000000000000668 .LASF98
C:\Users\stapi\AppData\Local\Temp\ccbizAf1.s:5502   .debug_str:000000000000068f .LASF58
C:\Users\stapi\AppData\Local\Temp\ccbizAf1.s:5638   .debug_str:0000000000000bf8 .LASF60
C:\Users\stapi\AppData\Local\Temp\ccbizAf1.s:5528   .debug_str:000000000000076b .LASF61
C:\Users\stapi\AppData\Local\Temp\ccbizAf1.s:5412   .debug_str:0000000000000316 .LASF62
C:\Users\stapi\AppData\Local\Temp\ccbizAf1.s:5582   .debug_str:000000000000096c .LASF63
C:\Users\stapi\AppData\Local\Temp\ccbizAf1.s:5570   .debug_str:0000000000000912 .LASF64
C:\Users\stapi\AppData\Local\Temp\ccbizAf1.s:5486   .debug_str:0000000000000611 .LASF65
C:\Users\stapi\AppData\Local\Temp\ccbizAf1.s:5598   .debug_str:00000000000009ed .LASF66
C:\Users\stapi\AppData\Local\Temp\ccbizAf1.s:5480   .debug_str:00000000000005d2 .LASF67
C:\Users\stapi\AppData\Local\Temp\ccbizAf1.s:5534   .debug_str:000000000000082e .LASF68
C:\Users\stapi\AppData\Local\Temp\ccbizAf1.s:5626   .debug_str:0000000000000ba8 .LASF69
C:\Users\stapi\AppData\Local\Temp\ccbizAf1.s:5370   .debug_str:00000000000001f4 .LASF70
C:\Users\stapi\AppData\Local\Temp\ccbizAf1.s:5472   .debug_str:0000000000000579 .LASF71
C:\Users\stapi\AppData\Local\Temp\ccbizAf1.s:5500   .debug_str:000000000000067d .LASF72
C:\Users\stapi\AppData\Local\Temp\ccbizAf1.s:5332   .debug_str:00000000000000a9 .LASF73
C:\Users\stapi\AppData\Local\Temp\ccbizAf1.s:5506   .debug_str:00000000000006b7 .LASF74
C:\Users\stapi\AppData\Local\Temp\ccbizAf1.s:5478   .debug_str:00000000000005c6 .LASF75
C:\Users\stapi\AppData\Local\Temp\ccbizAf1.s:5324   .debug_str:0000000000000064 .LASF76
C:\Users\stapi\AppData\Local\Temp\ccbizAf1.s:5452   .debug_str:0000000000000462 .LASF77
C:\Users\stapi\AppData\Local\Temp\ccbizAf1.s:5418   .debug_str:0000000000000336 .LASF78
C:\Users\stapi\AppData\Local\Temp\ccbizAf1.s:5330   .debug_str:00000000000000a4 .LASF79
C:\Users\stapi\AppData\Local\Temp\ccbizAf1.s:5320   .debug_str:0000000000000056 .LASF80
C:\Users\stapi\AppData\Local\Temp\ccbizAf1.s:5542   .debug_str:000000000000084f .LASF81
C:\Users\stapi\AppData\Local\Temp\ccbizAf1.s:5384   .debug_str:0000000000000256 .LASF82
C:\Users\stapi\AppData\Local\Temp\ccbizAf1.s:5462   .debug_str:000000000000052f .LASF83
C:\Users\stapi\AppData\Local\Temp\ccbizAf1.s:5634   .debug_str:0000000000000bdd .LASF84
C:\Users\stapi\AppData\Local\Temp\ccbizAf1.s:5538   .debug_str:0000000000000842 .LASF85
C:\Users\stapi\AppData\Local\Temp\ccbizAf1.s:5594   .debug_str:00000000000009de .LASF86
C:\Users\stapi\AppData\Local\Temp\ccbizAf1.s:5344   .debug_str:0000000000000110 .LASF87
C:\Users\stapi\AppData\Local\Temp\ccbizAf1.s:5490   .debug_str:0000000000000626 .LASF88
C:\Users\stapi\AppData\Local\Temp\ccbizAf1.s:5488   .debug_str:000000000000061c .LASF89
C:\Users\stapi\AppData\Local\Temp\ccbizAf1.s:5526   .debug_str:000000000000075e .LASF90
C:\Users\stapi\AppData\Local\Temp\ccbizAf1.s:5578   .debug_str:0000000000000960 .LASF91
C:\Users\stapi\AppData\Local\Temp\ccbizAf1.s:5614   .debug_str:0000000000000a54 .LASF92
C:\Users\stapi\AppData\Local\Temp\ccbizAf1.s:5376   .debug_str:000000000000021e .LASF93
C:\Users\stapi\AppData\Local\Temp\ccbizAf1.s:5514   .debug_str:0000000000000702 .LASF94
C:\Users\stapi\AppData\Local\Temp\ccbizAf1.s:5382   .debug_str:000000000000024e .LASF95
C:\Users\stapi\AppData\Local\Temp\ccbizAf1.s:5410   .debug_str:0000000000000309 .LASF96
C:\Users\stapi\AppData\Local\Temp\ccbizAf1.s:5404   .debug_str:00000000000002d7 .LASF97
C:\Users\stapi\AppData\Local\Temp\ccbizAf1.s:5352   .debug_str:0000000000000154 .LASF99
C:\Users\stapi\AppData\Local\Temp\ccbizAf1.s:5630   .debug_str:0000000000000bc8 .LASF100
C:\Users\stapi\AppData\Local\Temp\ccbizAf1.s:5388   .debug_str:0000000000000275 .LASF101
C:\Users\stapi\AppData\Local\Temp\ccbizAf1.s:5310   .debug_str:0000000000000028 .LASF102
C:\Users\stapi\AppData\Local\Temp\ccbizAf1.s:5372   .debug_str:00000000000001fe .LASF103
C:\Users\stapi\AppData\Local\Temp\ccbizAf1.s:5574   .debug_str:000000000000092c .LASF104
C:\Users\stapi\AppData\Local\Temp\ccbizAf1.s:5438   .debug_str:00000000000003d3 .LASF105
C:\Users\stapi\AppData\Local\Temp\ccbizAf1.s:5618   .debug_str:0000000000000a7e .LASF106
C:\Users\stapi\AppData\Local\Temp\ccbizAf1.s:5416   .debug_str:000000000000032d .LASF107
C:\Users\stapi\AppData\Local\Temp\ccbizAf1.s:5446   .debug_str:0000000000000436 .LASF108
C:\Users\stapi\AppData\Local\Temp\ccbizAf1.s:5564   .debug_str:00000000000008de .LASF109
C:\Users\stapi\AppData\Local\Temp\ccbizAf1.s:5430   .debug_str:0000000000000389 .LASF110
C:\Users\stapi\AppData\Local\Temp\ccbizAf1.s:5588   .debug_str:00000000000009b0 .LASF111
C:\Users\stapi\AppData\Local\Temp\ccbizAf1.s:5632   .debug_str:0000000000000bd3 .LASF112
C:\Users\stapi\AppData\Local\Temp\ccbizAf1.s:5314   .debug_str:000000000000003c .LASF113
C:\Users\stapi\AppData\Local\Temp\ccbizAf1.s:5498   .debug_str:0000000000000674 .LASF114
C:\Users\stapi\AppData\Local\Temp\ccbizAf1.s:5354   .debug_str:0000000000000163 .LASF115
C:\Users\stapi\AppData\Local\Temp\ccbizAf1.s:5540   .debug_str:0000000000000849 .LASF116
C:\Users\stapi\AppData\Local\Temp\ccbizAf1.s:5536   .debug_str:0000000000000833 .LASF117
C:\Users\stapi\AppData\Local\Temp\ccbizAf1.s:5568   .debug_str:00000000000008fd .LASF122
C:\Users\stapi\AppData\Local\Temp\ccbizAf1.s:926    .text.CoAPObsServer_notify:0000000000000000 .LFB25
C:\Users\stapi\AppData\Local\Temp\ccbizAf1.s:1211   .text.CoAPObsServer_notify:00000000000001b8 .LFE25
C:\Users\stapi\AppData\Local\Temp\ccbizAf1.s:5602   .debug_str:0000000000000a13 .LASF118
C:\Users\stapi\AppData\Local\Temp\ccbizAf1.s:4576   .debug_loc:0000000000000000 .LLST42
C:\Users\stapi\AppData\Local\Temp\ccbizAf1.s:4587   .debug_loc:000000000000001e .LLST43
C:\Users\stapi\AppData\Local\Temp\ccbizAf1.s:4598   .debug_loc:000000000000003c .LLST44
C:\Users\stapi\AppData\Local\Temp\ccbizAf1.s:4609   .debug_loc:000000000000005a .LLST45
C:\Users\stapi\AppData\Local\Temp\ccbizAf1.s:4623   .debug_loc:000000000000007b .LLST46
C:\Users\stapi\AppData\Local\Temp\ccbizAf1.s:4634   .debug_loc:0000000000000099 .LLST47
C:\Users\stapi\AppData\Local\Temp\ccbizAf1.s:4662   .debug_loc:00000000000000e4 .LLST48
C:\Users\stapi\AppData\Local\Temp\ccbizAf1.s:5548   .debug_str:0000000000000875 .LASF119
C:\Users\stapi\AppData\Local\Temp\ccbizAf1.s:4682   .debug_loc:0000000000000119 .LLST49
C:\Users\stapi\AppData\Local\Temp\ccbizAf1.s:5516   .debug_str:000000000000070b .LASF120
C:\Users\stapi\AppData\Local\Temp\ccbizAf1.s:4702   .debug_loc:000000000000014e .LLST50
C:\Users\stapi\AppData\Local\Temp\ccbizAf1.s:5440   .debug_str:00000000000003de .LASF124
C:\Users\stapi\AppData\Local\Temp\ccbizAf1.s:5510   .debug_str:00000000000006d8 .LASF121
C:\Users\stapi\AppData\Local\Temp\ccbizAf1.s:1041   .text.CoAPObsServer_notify:000000000000006e .LVL108
C:\Users\stapi\AppData\Local\Temp\ccbizAf1.s:1046   .text.CoAPObsServer_notify:000000000000007c .LVL109
C:\Users\stapi\AppData\Local\Temp\ccbizAf1.s:1051   .text.CoAPObsServer_notify:000000000000008a .LVL110
C:\Users\stapi\AppData\Local\Temp\ccbizAf1.s:1055   .text.CoAPObsServer_notify:0000000000000094 .LVL111
C:\Users\stapi\AppData\Local\Temp\ccbizAf1.s:1059   .text.CoAPObsServer_notify:00000000000000a0 .LVL112
C:\Users\stapi\AppData\Local\Temp\ccbizAf1.s:1064   .text.CoAPObsServer_notify:00000000000000ac .LVL113
C:\Users\stapi\AppData\Local\Temp\ccbizAf1.s:1069   .text.CoAPObsServer_notify:00000000000000b8 .LVL114
C:\Users\stapi\AppData\Local\Temp\ccbizAf1.s:1075   .text.CoAPObsServer_notify:00000000000000ca .LVL115
C:\Users\stapi\AppData\Local\Temp\ccbizAf1.s:1085   .text.CoAPObsServer_notify:00000000000000de .LVL116
C:\Users\stapi\AppData\Local\Temp\ccbizAf1.s:1091   .text.CoAPObsServer_notify:00000000000000ee .LVL117
C:\Users\stapi\AppData\Local\Temp\ccbizAf1.s:1097   .text.CoAPObsServer_notify:00000000000000fe .LVL118
C:\Users\stapi\AppData\Local\Temp\ccbizAf1.s:1110   .text.CoAPObsServer_notify:0000000000000128 .LVL119
C:\Users\stapi\AppData\Local\Temp\ccbizAf1.s:1133   .text.CoAPObsServer_notify:0000000000000142 .LVL120
C:\Users\stapi\AppData\Local\Temp\ccbizAf1.s:1145   .text.CoAPObsServer_notify:0000000000000154 .LVL122
C:\Users\stapi\AppData\Local\Temp\ccbizAf1.s:1154   .text.CoAPObsServer_notify:0000000000000162 .LVL125
C:\Users\stapi\AppData\Local\Temp\ccbizAf1.s:1158   .text.CoAPObsServer_notify:000000000000016e .LVL126
C:\Users\stapi\AppData\Local\Temp\ccbizAf1.s:1162   .text.CoAPObsServer_notify:000000000000017a .LVL127
C:\Users\stapi\AppData\Local\Temp\ccbizAf1.s:1170   .text.CoAPObsServer_notify:0000000000000188 .LVL128
C:\Users\stapi\AppData\Local\Temp\ccbizAf1.s:1186   .text.CoAPObsServer_notify:000000000000019e .LVL131
C:\Users\stapi\AppData\Local\Temp\ccbizAf1.s:1194   .text.CoAPObsServer_notify:00000000000001aa .LVL132
C:\Users\stapi\AppData\Local\Temp\ccbizAf1.s:966    .text.CoAPObsServer_notify:000000000000001c .LVL101
C:\Users\stapi\AppData\Local\Temp\ccbizAf1.s:984    .text.CoAPObsServer_notify:0000000000000032 .LVL103
C:\Users\stapi\AppData\Local\Temp\ccbizAf1.s:1006   .text.CoAPObsServer_notify:0000000000000052 .LVL106
C:\Users\stapi\AppData\Local\Temp\ccbizAf1.s:5408   .debug_str:00000000000002f1 .LASF123
C:\Users\stapi\AppData\Local\Temp\ccbizAf1.s:770    .text.CoapObsServerAll_delete:0000000000000000 .LFB24
C:\Users\stapi\AppData\Local\Temp\ccbizAf1.s:912    .text.CoapObsServerAll_delete:00000000000000b4 .LFE24
C:\Users\stapi\AppData\Local\Temp\ccbizAf1.s:4713   .debug_loc:000000000000016c .LLST34
C:\Users\stapi\AppData\Local\Temp\ccbizAf1.s:4724   .debug_loc:000000000000018a .LLST35
C:\Users\stapi\AppData\Local\Temp\ccbizAf1.s:4735   .debug_loc:00000000000001a8 .LLST36
C:\Users\stapi\AppData\Local\Temp\ccbizAf1.s:4755   .debug_loc:00000000000001dd .LLST37
C:\Users\stapi\AppData\Local\Temp\ccbizAf1.s:4777   .debug_loc:0000000000000214 .LLST38
C:\Users\stapi\AppData\Local\Temp\ccbizAf1.s:868    .text.CoapObsServerAll_delete:0000000000000080 .LBB40
C:\Users\stapi\AppData\Local\Temp\ccbizAf1.s:4788   .debug_loc:0000000000000232 .LLST39
C:\Users\stapi\AppData\Local\Temp\ccbizAf1.s:4797   .debug_loc:0000000000000247 .LLST40
C:\Users\stapi\AppData\Local\Temp\ccbizAf1.s:4804   .debug_loc:000000000000025a .LLST41
C:\Users\stapi\AppData\Local\Temp\ccbizAf1.s:800    .text.CoapObsServerAll_delete:0000000000000018 .LVL85
C:\Users\stapi\AppData\Local\Temp\ccbizAf1.s:821    .text.CoapObsServerAll_delete:0000000000000040 .LVL88
C:\Users\stapi\AppData\Local\Temp\ccbizAf1.s:852    .text.CoapObsServerAll_delete:0000000000000068 .LVL89
C:\Users\stapi\AppData\Local\Temp\ccbizAf1.s:898    .text.CoapObsServerAll_delete:000000000000009e .LVL94
C:\Users\stapi\AppData\Local\Temp\ccbizAf1.s:902    .text.CoapObsServerAll_delete:00000000000000a8 .LVL95
C:\Users\stapi\AppData\Local\Temp\ccbizAf1.s:5434   .debug_str:00000000000003ac .LASF125
C:\Users\stapi\AppData\Local\Temp\ccbizAf1.s:620    .text.CoapObsServer_delete:0000000000000000 .LFB23
C:\Users\stapi\AppData\Local\Temp\ccbizAf1.s:759    .text.CoapObsServer_delete:00000000000000b8 .LFE23
C:\Users\stapi\AppData\Local\Temp\ccbizAf1.s:4811   .debug_loc:000000000000026d .LLST25
C:\Users\stapi\AppData\Local\Temp\ccbizAf1.s:4822   .debug_loc:000000000000028b .LLST26
C:\Users\stapi\AppData\Local\Temp\ccbizAf1.s:4833   .debug_loc:00000000000002a9 .LLST27
C:\Users\stapi\AppData\Local\Temp\ccbizAf1.s:4844   .debug_loc:00000000000002c7 .LLST28
C:\Users\stapi\AppData\Local\Temp\ccbizAf1.s:4864   .debug_loc:00000000000002fc .LLST29
C:\Users\stapi\AppData\Local\Temp\ccbizAf1.s:4886   .debug_loc:0000000000000333 .LLST30
C:\Users\stapi\AppData\Local\Temp\ccbizAf1.s:690    .text.CoapObsServer_delete:0000000000000064 .LBB34
C:\Users\stapi\AppData\Local\Temp\ccbizAf1.s:4897   .debug_loc:0000000000000351 .LLST31
C:\Users\stapi\AppData\Local\Temp\ccbizAf1.s:4906   .debug_loc:0000000000000366 .LLST32
C:\Users\stapi\AppData\Local\Temp\ccbizAf1.s:4913   .debug_loc:0000000000000379 .LLST33
C:\Users\stapi\AppData\Local\Temp\ccbizAf1.s:649    .text.CoapObsServer_delete:000000000000001a .LVL68
C:\Users\stapi\AppData\Local\Temp\ccbizAf1.s:675    .text.CoapObsServer_delete:000000000000004e .LVL71
C:\Users\stapi\AppData\Local\Temp\ccbizAf1.s:723    .text.CoapObsServer_delete:000000000000008c .LVL76
C:\Users\stapi\AppData\Local\Temp\ccbizAf1.s:727    .text.CoapObsServer_delete:0000000000000096 .LVL77
C:\Users\stapi\AppData\Local\Temp\ccbizAf1.s:733    .text.CoapObsServer_delete:00000000000000a0 .LVL78
C:\Users\stapi\AppData\Local\Temp\ccbizAf1.s:5476   .debug_str:00000000000005b4 .LASF126
C:\Users\stapi\AppData\Local\Temp\ccbizAf1.s:239    .text.CoAPObsServer_add:0000000000000000 .LFB22
C:\Users\stapi\AppData\Local\Temp\ccbizAf1.s:613    .text.CoAPObsServer_add:0000000000000258 .LFE22
C:\Users\stapi\AppData\Local\Temp\ccbizAf1.s:4920   .debug_loc:000000000000038c .LLST11
C:\Users\stapi\AppData\Local\Temp\ccbizAf1.s:4931   .debug_loc:00000000000003aa .LLST12
C:\Users\stapi\AppData\Local\Temp\ccbizAf1.s:4945   .debug_loc:00000000000003cb .LLST13
C:\Users\stapi\AppData\Local\Temp\ccbizAf1.s:5606   .debug_str:0000000000000a24 .LASF127
C:\Users\stapi\AppData\Local\Temp\ccbizAf1.s:4956   .debug_loc:00000000000003e9 .LLST14
C:\Users\stapi\AppData\Local\Temp\ccbizAf1.s:4967   .debug_loc:0000000000000407 .LLST15
C:\Users\stapi\AppData\Local\Temp\ccbizAf1.s:5552   .debug_str:0000000000000882 .LASF128
C:\Users\stapi\AppData\Local\Temp\ccbizAf1.s:5492   .debug_str:0000000000000632 .LASF129
C:\Users\stapi\AppData\Local\Temp\ccbizAf1.s:4983   .debug_loc:0000000000000431 .LLST16
C:\Users\stapi\AppData\Local\Temp\ccbizAf1.s:5014   .debug_loc:000000000000047f .LLST17
C:\Users\stapi\AppData\Local\Temp\ccbizAf1.s:5030   .debug_loc:00000000000004a9 .LLST18
C:\Users\stapi\AppData\Local\Temp\ccbizAf1.s:5055   .debug_loc:00000000000004ea .LLST19
C:\Users\stapi\AppData\Local\Temp\ccbizAf1.s:531    .text.CoAPObsServer_add:0000000000000202 .LBB18
C:\Users\stapi\AppData\Local\Temp\ccbizAf1.s:5066   .debug_loc:0000000000000508 .LLST20
C:\Users\stapi\AppData\Local\Temp\ccbizAf1.s:5073   .debug_loc:000000000000051b .LLST21
C:\Users\stapi\AppData\Local\Temp\ccbizAf1.s:541    .text.CoAPObsServer_add:0000000000000208 .LBB20
C:\Users\stapi\AppData\Local\Temp\ccbizAf1.s:5080   .debug_loc:000000000000052e .LLST23
C:\Users\stapi\AppData\Local\Temp\ccbizAf1.s:272    .text.CoAPObsServer_add:000000000000001a .LVL26
C:\Users\stapi\AppData\Local\Temp\ccbizAf1.s:282    .text.CoAPObsServer_add:000000000000002a .LVL29
C:\Users\stapi\AppData\Local\Temp\ccbizAf1.s:297    .text.CoAPObsServer_add:0000000000000042 .LVL31
C:\Users\stapi\AppData\Local\Temp\ccbizAf1.s:310    .text.CoAPObsServer_add:0000000000000056 .LVL34
C:\Users\stapi\AppData\Local\Temp\ccbizAf1.s:317    .text.CoAPObsServer_add:0000000000000066 .LVL35
C:\Users\stapi\AppData\Local\Temp\ccbizAf1.s:328    .text.CoAPObsServer_add:000000000000007a .LVL37
C:\Users\stapi\AppData\Local\Temp\ccbizAf1.s:333    .text.CoAPObsServer_add:000000000000008a .LVL38
C:\Users\stapi\AppData\Local\Temp\ccbizAf1.s:338    .text.CoAPObsServer_add:000000000000009a .LVL39
C:\Users\stapi\AppData\Local\Temp\ccbizAf1.s:361    .text.CoAPObsServer_add:00000000000000c2 .LVL41
C:\Users\stapi\AppData\Local\Temp\ccbizAf1.s:376    .text.CoAPObsServer_add:00000000000000ee .LVL42
C:\Users\stapi\AppData\Local\Temp\ccbizAf1.s:388    .text.CoAPObsServer_add:0000000000000106 .LVL43
C:\Users\stapi\AppData\Local\Temp\ccbizAf1.s:399    .text.CoAPObsServer_add:000000000000011c .LVL44
C:\Users\stapi\AppData\Local\Temp\ccbizAf1.s:430    .text.CoAPObsServer_add:000000000000013c .LVL49
C:\Users\stapi\AppData\Local\Temp\ccbizAf1.s:447    .text.CoAPObsServer_add:0000000000000158 .LVL50
C:\Users\stapi\AppData\Local\Temp\ccbizAf1.s:459    .text.CoAPObsServer_add:0000000000000170 .LVL51
C:\Users\stapi\AppData\Local\Temp\ccbizAf1.s:474    .text.CoAPObsServer_add:000000000000018a .LVL52
C:\Users\stapi\AppData\Local\Temp\ccbizAf1.s:491    .text.CoAPObsServer_add:00000000000001a4 .LVL53
C:\Users\stapi\AppData\Local\Temp\ccbizAf1.s:501    .text.CoAPObsServer_add:00000000000001ba .LVL54
C:\Users\stapi\AppData\Local\Temp\ccbizAf1.s:505    .text.CoAPObsServer_add:00000000000001c4 .LVL55
C:\Users\stapi\AppData\Local\Temp\ccbizAf1.s:511    .text.CoAPObsServer_add:00000000000001d4 .LVL56
C:\Users\stapi\AppData\Local\Temp\ccbizAf1.s:518    .text.CoAPObsServer_add:00000000000001ec .LVL57
C:\Users\stapi\AppData\Local\Temp\ccbizAf1.s:523    .text.CoAPObsServer_add:00000000000001fc .LVL58
C:\Users\stapi\AppData\Local\Temp\ccbizAf1.s:597    .text.CoAPObsServer_add:0000000000000244 .LVL61
C:\Users\stapi\AppData\Local\Temp\ccbizAf1.s:601    .text.CoAPObsServer_add:000000000000024e .LVL62
C:\Users\stapi\AppData\Local\Temp\ccbizAf1.s:5306   .debug_str:0000000000000000 .LASF130
C:\Users\stapi\AppData\Local\Temp\ccbizAf1.s:89     .text.CoAPObsServer_deinit:0000000000000000 .LFB21
C:\Users\stapi\AppData\Local\Temp\ccbizAf1.s:210    .text.CoAPObsServer_deinit:0000000000000096 .LFE21
C:\Users\stapi\AppData\Local\Temp\ccbizAf1.s:5087   .debug_loc:0000000000000541 .LLST4
C:\Users\stapi\AppData\Local\Temp\ccbizAf1.s:5098   .debug_loc:000000000000055f .LLST5
C:\Users\stapi\AppData\Local\Temp\ccbizAf1.s:5109   .debug_loc:000000000000057d .LLST6
C:\Users\stapi\AppData\Local\Temp\ccbizAf1.s:5129   .debug_loc:00000000000005b2 .LLST7
C:\Users\stapi\AppData\Local\Temp\ccbizAf1.s:164    .text.CoAPObsServer_deinit:0000000000000058 .LBB14
C:\Users\stapi\AppData\Local\Temp\ccbizAf1.s:5151   .debug_loc:00000000000005e9 .LLST8
C:\Users\stapi\AppData\Local\Temp\ccbizAf1.s:5160   .debug_loc:00000000000005fe .LLST9
C:\Users\stapi\AppData\Local\Temp\ccbizAf1.s:5167   .debug_loc:0000000000000611 .LLST10
C:\Users\stapi\AppData\Local\Temp\ccbizAf1.s:116    .text.CoAPObsServer_deinit:000000000000001c .LVL10
C:\Users\stapi\AppData\Local\Temp\ccbizAf1.s:138    .text.CoAPObsServer_deinit:0000000000000040 .LVL13
C:\Users\stapi\AppData\Local\Temp\ccbizAf1.s:142    .text.CoAPObsServer_deinit:000000000000004a .LVL14
C:\Users\stapi\AppData\Local\Temp\ccbizAf1.s:197    .text.CoAPObsServer_deinit:0000000000000080 .LVL19
C:\Users\stapi\AppData\Local\Temp\ccbizAf1.s:201    .text.CoAPObsServer_deinit:000000000000008a .LVL20
C:\Users\stapi\AppData\Local\Temp\ccbizAf1.s:5364   .debug_str:00000000000001a1 .LASF131
C:\Users\stapi\AppData\Local\Temp\ccbizAf1.s:14     .text.CoAPObsServer_init:0000000000000000 .LFB20
C:\Users\stapi\AppData\Local\Temp\ccbizAf1.s:75     .text.CoAPObsServer_init:0000000000000042 .LFE20
C:\Users\stapi\AppData\Local\Temp\ccbizAf1.s:5174   .debug_loc:0000000000000624 .LLST0
C:\Users\stapi\AppData\Local\Temp\ccbizAf1.s:5590   .debug_str:00000000000009ba .LASF132
C:\Users\stapi\AppData\Local\Temp\ccbizAf1.s:5185   .debug_loc:0000000000000642 .LLST1
C:\Users\stapi\AppData\Local\Temp\ccbizAf1.s:5199   .debug_loc:0000000000000663 .LLST2
C:\Users\stapi\AppData\Local\Temp\ccbizAf1.s:45     .text.CoAPObsServer_init:0000000000000024 .LBB10
C:\Users\stapi\AppData\Local\Temp\ccbizAf1.s:56     .text.CoAPObsServer_init:0000000000000028 .LBE10
C:\Users\stapi\AppData\Local\Temp\ccbizAf1.s:5210   .debug_loc:0000000000000681 .LLST3
C:\Users\stapi\AppData\Local\Temp\ccbizAf1.s:33     .text.CoAPObsServer_init:0000000000000014 .LVL2
C:\Users\stapi\AppData\Local\Temp\ccbizAf1.s:38     .text.CoAPObsServer_init:000000000000001e .LVL3
C:\Users\stapi\AppData\Local\Temp\ccbizAf1.s:65     .text.CoAPObsServer_init:0000000000000038 .LVL6
C:\Users\stapi\AppData\Local\Temp\ccbizAf1.s:5460   .debug_str:000000000000051b .LASF133
C:\Users\stapi\AppData\Local\Temp\ccbizAf1.s:5316   .debug_str:0000000000000045 .LASF134
C:\Users\stapi\AppData\Local\Temp\ccbizAf1.s:5414   .debug_str:000000000000031e .LASF135
C:\Users\stapi\AppData\Local\Temp\ccbizAf1.s:5400   .debug_str:00000000000002b9 .LASF136
C:\Users\stapi\AppData\Local\Temp\ccbizAf1.s:5392   .debug_str:0000000000000283 .LASF137
C:\Users\stapi\AppData\Local\Temp\ccbizAf1.s:5450   .debug_str:0000000000000451 .LASF138
C:\Users\stapi\AppData\Local\Temp\ccbizAf1.s:5386   .debug_str:0000000000000261 .LASF139
C:\Users\stapi\AppData\Local\Temp\ccbizAf1.s:5522   .debug_str:0000000000000738 .LASF140
C:\Users\stapi\AppData\Local\Temp\ccbizAf1.s:5484   .debug_str:00000000000005ff .LASF141
C:\Users\stapi\AppData\Local\Temp\ccbizAf1.s:5424   .debug_str:0000000000000355 .LASF142
C:\Users\stapi\AppData\Local\Temp\ccbizAf1.s:5374   .debug_str:0000000000000207 .LASF143
C:\Users\stapi\AppData\Local\Temp\ccbizAf1.s:5468   .debug_str:0000000000000550 .LASF144
C:\Users\stapi\AppData\Local\Temp\ccbizAf1.s:5428   .debug_str:0000000000000374 .LASF145
C:\Users\stapi\AppData\Local\Temp\ccbizAf1.s:5622   .debug_str:0000000000000aae .LASF146
C:\Users\stapi\AppData\Local\Temp\ccbizAf1.s:5464   .debug_str:0000000000000538 .LASF147
C:\Users\stapi\AppData\Local\Temp\ccbizAf1.s:5592   .debug_str:00000000000009c7 .LASF148
C:\Users\stapi\AppData\Local\Temp\ccbizAf1.s:5340   .debug_str:00000000000000f5 .LASF149
C:\Users\stapi\AppData\Local\Temp\ccbizAf1.s:5508   .debug_str:00000000000006c7 .LASF150
C:\Users\stapi\AppData\Local\Temp\ccbizAf1.s:5406   .debug_str:00000000000002de .LASF151
C:\Users\stapi\AppData\Local\Temp\ccbizAf1.s:5640   .debug_str:0000000000000bff .LASF152
C:\Users\stapi\AppData\Local\Temp\ccbizAf1.s:5566   .debug_str:00000000000008e6 .LASF153
C:\Users\stapi\AppData\Local\Temp\ccbizAf1.s:5560   .debug_str:00000000000008c0 .LASF154
C:\Users\stapi\AppData\Local\Temp\ccbizAf1.s:5342   .debug_str:0000000000000100 .LASF155
C:\Users\stapi\AppData\Local\Temp\ccbizAf1.s:5596   .debug_str:00000000000009e6 .LASF156
C:\Users\stapi\AppData\Local\Temp\ccbizAf1.s:5308   .debug_str:0000000000000015 .LASF157
C:\Users\stapi\AppData\Local\Temp\ccbizAf1.s:5636   .debug_str:0000000000000be3 .LASF158
C:\Users\stapi\AppData\Local\Temp\ccbizAf1.s:5398   .debug_str:00000000000002b2 .LASF159
C:\Users\stapi\AppData\Local\Temp\ccbizAf1.s:5470   .debug_str:0000000000000568 .LASF161
C:\Users\stapi\AppData\Local\Temp\ccbizAf1.s:5610   .debug_str:0000000000000a31 .LASF160
C:\Users\stapi\AppData\Local\Temp\ccbizAf1.s:5348   .debug_str:000000000000012c .LASF162
C:\Users\stapi\AppData\Local\Temp\ccbizAf1.s:5572   .debug_str:000000000000091b .LASF163
C:\Users\stapi\AppData\Local\Temp\ccbizAf1.s:5362   .debug_str:0000000000000191 .LASF164
C:\Users\stapi\AppData\Local\Temp\ccbizAf1.s:929    .text.CoAPObsServer_notify:0000000000000000 .LVL98
C:\Users\stapi\AppData\Local\Temp\ccbizAf1.s:946    .text.CoAPObsServer_notify:0000000000000008 .LVL99
C:\Users\stapi\AppData\Local\Temp\ccbizAf1.s:998    .text.CoAPObsServer_notify:0000000000000044 .LVL105
C:\Users\stapi\AppData\Local\Temp\ccbizAf1.s:1140   .text.CoAPObsServer_notify:000000000000014a .LVL121
C:\Users\stapi\AppData\Local\Temp\ccbizAf1.s:1147   .text.CoAPObsServer_notify:0000000000000156 .LVL123
C:\Users\stapi\AppData\Local\Temp\ccbizAf1.s:1152   .text.CoAPObsServer_notify:000000000000015a .LVL124
C:\Users\stapi\AppData\Local\Temp\ccbizAf1.s:1172   .text.CoAPObsServer_notify:000000000000018a .LVL129
C:\Users\stapi\AppData\Local\Temp\ccbizAf1.s:1181   .text.CoAPObsServer_notify:0000000000000194 .LVL130
C:\Users\stapi\AppData\Local\Temp\ccbizAf1.s:975    .text.CoAPObsServer_notify:0000000000000024 .LVL102
C:\Users\stapi\AppData\Local\Temp\ccbizAf1.s:1029   .text.CoAPObsServer_notify:000000000000005e .LVL107
C:\Users\stapi\AppData\Local\Temp\ccbizAf1.s:994    .text.CoAPObsServer_notify:0000000000000040 .LVL104
C:\Users\stapi\AppData\Local\Temp\ccbizAf1.s:1199   .text.CoAPObsServer_notify:00000000000001ac .LVL133
C:\Users\stapi\AppData\Local\Temp\ccbizAf1.s:1201   .text.CoAPObsServer_notify:00000000000001b0 .LVL134
C:\Users\stapi\AppData\Local\Temp\ccbizAf1.s:957    .text.CoAPObsServer_notify:000000000000000c .LVL100
C:\Users\stapi\AppData\Local\Temp\ccbizAf1.s:773    .text.CoapObsServerAll_delete:0000000000000000 .LVL82
C:\Users\stapi\AppData\Local\Temp\ccbizAf1.s:792    .text.CoapObsServerAll_delete:000000000000000c .LVL84
C:\Users\stapi\AppData\Local\Temp\ccbizAf1.s:785    .text.CoapObsServerAll_delete:0000000000000008 .LVL83
C:\Users\stapi\AppData\Local\Temp\ccbizAf1.s:809    .text.CoapObsServerAll_delete:000000000000002a .LVL86
C:\Users\stapi\AppData\Local\Temp\ccbizAf1.s:909    .text.CoapObsServerAll_delete:00000000000000b2 .LVL97
C:\Users\stapi\AppData\Local\Temp\ccbizAf1.s:814    .text.CoapObsServerAll_delete:0000000000000032 .LVL87
C:\Users\stapi\AppData\Local\Temp\ccbizAf1.s:906    .text.CoapObsServerAll_delete:00000000000000ac .LVL96
C:\Users\stapi\AppData\Local\Temp\ccbizAf1.s:867    .text.CoapObsServerAll_delete:0000000000000080 .LVL90
C:\Users\stapi\AppData\Local\Temp\ccbizAf1.s:891    .text.CoapObsServerAll_delete:0000000000000090 .LVL93
C:\Users\stapi\AppData\Local\Temp\ccbizAf1.s:873    .text.CoapObsServerAll_delete:0000000000000082 .LVL91
C:\Users\stapi\AppData\Local\Temp\ccbizAf1.s:877    .text.CoapObsServerAll_delete:0000000000000084 .LVL92
C:\Users\stapi\AppData\Local\Temp\ccbizAf1.s:623    .text.CoapObsServer_delete:0000000000000000 .LVL65
C:\Users\stapi\AppData\Local\Temp\ccbizAf1.s:640    .text.CoapObsServer_delete:000000000000000c .LVL67
C:\Users\stapi\AppData\Local\Temp\ccbizAf1.s:633    .text.CoapObsServer_delete:0000000000000008 .LVL66
C:\Users\stapi\AppData\Local\Temp\ccbizAf1.s:654    .text.CoapObsServer_delete:0000000000000024 .LVL69
C:\Users\stapi\AppData\Local\Temp\ccbizAf1.s:751    .text.CoapObsServer_delete:00000000000000ac .LVL79
C:\Users\stapi\AppData\Local\Temp\ccbizAf1.s:756    .text.CoapObsServer_delete:00000000000000b6 .LVL81
C:\Users\stapi\AppData\Local\Temp\ccbizAf1.s:656    .text.CoapObsServer_delete:0000000000000028 .LVL70
C:\Users\stapi\AppData\Local\Temp\ccbizAf1.s:753    .text.CoapObsServer_delete:00000000000000b0 .LVL80
C:\Users\stapi\AppData\Local\Temp\ccbizAf1.s:689    .text.CoapObsServer_delete:0000000000000064 .LVL72
C:\Users\stapi\AppData\Local\Temp\ccbizAf1.s:713    .text.CoapObsServer_delete:0000000000000072 .LVL75
C:\Users\stapi\AppData\Local\Temp\ccbizAf1.s:695    .text.CoapObsServer_delete:0000000000000066 .LVL73
C:\Users\stapi\AppData\Local\Temp\ccbizAf1.s:699    .text.CoapObsServer_delete:0000000000000068 .LVL74
C:\Users\stapi\AppData\Local\Temp\ccbizAf1.s:242    .text.CoAPObsServer_add:0000000000000000 .LVL23
C:\Users\stapi\AppData\Local\Temp\ccbizAf1.s:252    .text.CoAPObsServer_add:0000000000000008 .LVL24
C:\Users\stapi\AppData\Local\Temp\ccbizAf1.s:291    .text.CoAPObsServer_add:0000000000000036 .LVL30
C:\Users\stapi\AppData\Local\Temp\ccbizAf1.s:606    .text.CoAPObsServer_add:0000000000000252 .LVL63
C:\Users\stapi\AppData\Local\Temp\ccbizAf1.s:610    .text.CoAPObsServer_add:0000000000000256 .LVL64
C:\Users\stapi\AppData\Local\Temp\ccbizAf1.s:265    .text.CoAPObsServer_add:0000000000000012 .LVL25
C:\Users\stapi\AppData\Local\Temp\ccbizAf1.s:319    .text.CoAPObsServer_add:0000000000000068 .LVL36
C:\Users\stapi\AppData\Local\Temp\ccbizAf1.s:344    .text.CoAPObsServer_add:00000000000000a0 .LVL40
C:\Users\stapi\AppData\Local\Temp\ccbizAf1.s:403    .text.CoAPObsServer_add:0000000000000120 .LVL45
C:\Users\stapi\AppData\Local\Temp\ccbizAf1.s:417    .text.CoAPObsServer_add:000000000000012a .LVL46
C:\Users\stapi\AppData\Local\Temp\ccbizAf1.s:424    .text.CoAPObsServer_add:000000000000012e .LVL48
C:\Users\stapi\AppData\Local\Temp\ccbizAf1.s:274    .text.CoAPObsServer_add:000000000000001c .LVL27
C:\Users\stapi\AppData\Local\Temp\ccbizAf1.s:280    .text.CoAPObsServer_add:0000000000000022 .LVL28
C:\Users\stapi\AppData\Local\Temp\ccbizAf1.s:300    .text.CoAPObsServer_add:0000000000000044 .LVL32
C:\Users\stapi\AppData\Local\Temp\ccbizAf1.s:304    .text.CoAPObsServer_add:0000000000000048 .LVL33
C:\Users\stapi\AppData\Local\Temp\ccbizAf1.s:422    .text.CoAPObsServer_add:000000000000012c .LVL47
C:\Users\stapi\AppData\Local\Temp\ccbizAf1.s:553    .text.CoAPObsServer_add:0000000000000210 .LVL59
C:\Users\stapi\AppData\Local\Temp\ccbizAf1.s:578    .text.CoAPObsServer_add:000000000000021a .LVL60
C:\Users\stapi\AppData\Local\Temp\ccbizAf1.s:92     .text.CoAPObsServer_deinit:0000000000000000 .LVL7
C:\Users\stapi\AppData\Local\Temp\ccbizAf1.s:110    .text.CoAPObsServer_deinit:000000000000000c .LVL9
C:\Users\stapi\AppData\Local\Temp\ccbizAf1.s:103    .text.CoAPObsServer_deinit:0000000000000008 .LVL8
C:\Users\stapi\AppData\Local\Temp\ccbizAf1.s:124    .text.CoAPObsServer_deinit:000000000000002a .LVL11
C:\Users\stapi\AppData\Local\Temp\ccbizAf1.s:207    .text.CoAPObsServer_deinit:0000000000000094 .LVL22
C:\Users\stapi\AppData\Local\Temp\ccbizAf1.s:126    .text.CoAPObsServer_deinit:000000000000002e .LVL12
C:\Users\stapi\AppData\Local\Temp\ccbizAf1.s:204    .text.CoAPObsServer_deinit:000000000000008e .LVL21
C:\Users\stapi\AppData\Local\Temp\ccbizAf1.s:163    .text.CoAPObsServer_deinit:0000000000000058 .LVL15
C:\Users\stapi\AppData\Local\Temp\ccbizAf1.s:187    .text.CoAPObsServer_deinit:0000000000000066 .LVL18
C:\Users\stapi\AppData\Local\Temp\ccbizAf1.s:169    .text.CoAPObsServer_deinit:000000000000005a .LVL16
C:\Users\stapi\AppData\Local\Temp\ccbizAf1.s:173    .text.CoAPObsServer_deinit:000000000000005c .LVL17
C:\Users\stapi\AppData\Local\Temp\ccbizAf1.s:18     .text.CoAPObsServer_init:0000000000000000 .LVL0
C:\Users\stapi\AppData\Local\Temp\ccbizAf1.s:27     .text.CoAPObsServer_init:000000000000000a .LVL1
C:\Users\stapi\AppData\Local\Temp\ccbizAf1.s:44     .text.CoAPObsServer_init:0000000000000024 .LVL4
C:\Users\stapi\AppData\Local\Temp\ccbizAf1.s:54     .text.CoAPObsServer_init:0000000000000028 .LVL5
C:\Users\stapi\AppData\Local\Temp\ccbizAf1.s:1265   .debug_info:0000000000000000 .Ldebug_info0
C:\Users\stapi\AppData\Local\Temp\ccbizAf1.s:176    .text.CoAPObsServer_deinit:000000000000005c .LBE14
C:\Users\stapi\AppData\Local\Temp\ccbizAf1.s:180    .text.CoAPObsServer_deinit:0000000000000062 .LBB17
C:\Users\stapi\AppData\Local\Temp\ccbizAf1.s:189    .text.CoAPObsServer_deinit:0000000000000066 .LBE17
C:\Users\stapi\AppData\Local\Temp\ccbizAf1.s:536    .text.CoAPObsServer_add:0000000000000204 .LBE18
C:\Users\stapi\AppData\Local\Temp\ccbizAf1.s:539    .text.CoAPObsServer_add:0000000000000208 .LBB29
C:\Users\stapi\AppData\Local\Temp\ccbizAf1.s:550    .text.CoAPObsServer_add:000000000000020c .LBE29
C:\Users\stapi\AppData\Local\Temp\ccbizAf1.s:554    .text.CoAPObsServer_add:0000000000000210 .LBB30
C:\Users\stapi\AppData\Local\Temp\ccbizAf1.s:568    .text.CoAPObsServer_add:0000000000000212 .LBE30
C:\Users\stapi\AppData\Local\Temp\ccbizAf1.s:572    .text.CoAPObsServer_add:0000000000000218 .LBB31
C:\Users\stapi\AppData\Local\Temp\ccbizAf1.s:582    .text.CoAPObsServer_add:000000000000021a .LBE31
C:\Users\stapi\AppData\Local\Temp\ccbizAf1.s:548    .text.CoAPObsServer_add:000000000000020c .LBE20
C:\Users\stapi\AppData\Local\Temp\ccbizAf1.s:557    .text.CoAPObsServer_add:0000000000000210 .LBB24
C:\Users\stapi\AppData\Local\Temp\ccbizAf1.s:566    .text.CoAPObsServer_add:0000000000000212 .LBE24
C:\Users\stapi\AppData\Local\Temp\ccbizAf1.s:574    .text.CoAPObsServer_add:0000000000000218 .LBB25
C:\Users\stapi\AppData\Local\Temp\ccbizAf1.s:580    .text.CoAPObsServer_add:000000000000021a .LBE25
C:\Users\stapi\AppData\Local\Temp\ccbizAf1.s:702    .text.CoapObsServer_delete:0000000000000068 .LBE34
C:\Users\stapi\AppData\Local\Temp\ccbizAf1.s:706    .text.CoapObsServer_delete:000000000000006e .LBB37
C:\Users\stapi\AppData\Local\Temp\ccbizAf1.s:715    .text.CoapObsServer_delete:0000000000000072 .LBE37
C:\Users\stapi\AppData\Local\Temp\ccbizAf1.s:880    .text.CoapObsServerAll_delete:0000000000000084 .LBE40
C:\Users\stapi\AppData\Local\Temp\ccbizAf1.s:884    .text.CoapObsServerAll_delete:000000000000008c .LBB43
C:\Users\stapi\AppData\Local\Temp\ccbizAf1.s:893    .text.CoapObsServerAll_delete:0000000000000090 .LBE43
C:\Users\stapi\AppData\Local\Temp\ccbizAf1.s:978    .text.CoAPObsServer_notify:0000000000000026 .LBB44
C:\Users\stapi\AppData\Local\Temp\ccbizAf1.s:981    .text.CoAPObsServer_notify:000000000000002a .LBE44
C:\Users\stapi\AppData\Local\Temp\ccbizAf1.s:987    .text.CoAPObsServer_notify:0000000000000034 .LBB45
C:\Users\stapi\AppData\Local\Temp\ccbizAf1.s:991    .text.CoAPObsServer_notify:000000000000003c .LBE45
C:\Users\stapi\AppData\Local\Temp\ccbizAf1.s:995    .text.CoAPObsServer_notify:0000000000000040 .LBB46
C:\Users\stapi\AppData\Local\Temp\ccbizAf1.s:1000   .text.CoAPObsServer_notify:0000000000000044 .LBE46
C:\Users\stapi\AppData\Local\Temp\ccbizAf1.s:1036   .text.CoAPObsServer_notify:0000000000000064 .LBB47
C:\Users\stapi\AppData\Local\Temp\ccbizAf1.s:1196   .text.CoAPObsServer_notify:00000000000001aa .LBE47
C:\Users\stapi\AppData\Local\Temp\ccbizAf1.s:1204   .text.CoAPObsServer_notify:00000000000001b2 .LBB48
C:\Users\stapi\AppData\Local\Temp\ccbizAf1.s:1209   .text.CoAPObsServer_notify:00000000000001b8 .LBE48

UNDEFINED SYMBOLS
__riscv_save_2
HAL_MutexCreate
HAL_MutexLock
HAL_MutexUnlock
__riscv_restore_2
__riscv_save_6
HAL_MutexDestroy
__riscv_restore_6
LITE_syslog
LITE_free_internal
__riscv_save_5
CoAPResourceByPath_get
CoAPUintOption_get
LITE_malloc_internal
HAL_Printf
memcmp
memcpy
__riscv_restore_5
memset
__riscv_save_7
__riscv_restore_7
__riscv_save_12
__riscv_restore_12
CoAPMessage_init
CoAPMessageType_set
CoAPMessageCode_set
CoAPMessageId_gen
CoAPMessageId_set
CoAPMessageHandler_set
CoAPMessageUserData_set
CoAPMessageToken_set
CoAPUintOption_add
CoAPMessagePayload_set
CoAPMessage_send
CoAPMessage_destory
