   1              		.file	"CoAPMessage.c"
   2              		.option nopic
   3              		.attribute arch, "rv32i2p0_m2p0_a2p0_f2p0_c2p0_b_p0p94"
   4              		.attribute unaligned_access, 0
   5              		.attribute stack_align, 16
   6              		.text
   7              	.Ltext0:
   8              		.cfi_sections	.debug_frame
   9              		.section	.text.CoAPOption_sort,"ax",@progbits
  10              		.align	1
  11              		.globl	CoAPOption_sort
  13              	CoAPOption_sort:
  14              	.LFB20:
  15              		.file 1 "C:/Users/stapi/OneDrive/Desktop/GD32VW553/V1_MQTT_OK/GD32VW55X_Wifi_BLE_SDK/GD32VW55x_REL
   1:C:/Users/stapi/OneDrive/Desktop/GD32VW553/V1_MQTT_OK/GD32VW55X_Wifi_BLE_SDK/GD32VW55x_RELEASE_V1.0.2/MSDK/cloud/alicloud/src/protocol/coap/local\CoAPMessage.c **** /*
   2:C:/Users/stapi/OneDrive/Desktop/GD32VW553/V1_MQTT_OK/GD32VW55X_Wifi_BLE_SDK/GD32VW55x_RELEASE_V1.0.2/MSDK/cloud/alicloud/src/protocol/coap/local\CoAPMessage.c ****  * Copyright (C) 2015-2018 Alibaba Group Holding Limited
   3:C:/Users/stapi/OneDrive/Desktop/GD32VW553/V1_MQTT_OK/GD32VW55X_Wifi_BLE_SDK/GD32VW55x_RELEASE_V1.0.2/MSDK/cloud/alicloud/src/protocol/coap/local\CoAPMessage.c ****  */
   4:C:/Users/stapi/OneDrive/Desktop/GD32VW553/V1_MQTT_OK/GD32VW55X_Wifi_BLE_SDK/GD32VW55x_RELEASE_V1.0.2/MSDK/cloud/alicloud/src/protocol/coap/local\CoAPMessage.c **** 
   5:C:/Users/stapi/OneDrive/Desktop/GD32VW553/V1_MQTT_OK/GD32VW55X_Wifi_BLE_SDK/GD32VW55x_RELEASE_V1.0.2/MSDK/cloud/alicloud/src/protocol/coap/local\CoAPMessage.c **** #include <stdio.h>
   6:C:/Users/stapi/OneDrive/Desktop/GD32VW553/V1_MQTT_OK/GD32VW55X_Wifi_BLE_SDK/GD32VW55x_RELEASE_V1.0.2/MSDK/cloud/alicloud/src/protocol/coap/local\CoAPMessage.c **** #include <string.h>
   7:C:/Users/stapi/OneDrive/Desktop/GD32VW553/V1_MQTT_OK/GD32VW55X_Wifi_BLE_SDK/GD32VW55x_RELEASE_V1.0.2/MSDK/cloud/alicloud/src/protocol/coap/local\CoAPMessage.c **** #include "CoAPExport.h"
   8:C:/Users/stapi/OneDrive/Desktop/GD32VW553/V1_MQTT_OK/GD32VW55X_Wifi_BLE_SDK/GD32VW55x_RELEASE_V1.0.2/MSDK/cloud/alicloud/src/protocol/coap/local\CoAPMessage.c **** #include "CoAPSerialize.h"
   9:C:/Users/stapi/OneDrive/Desktop/GD32VW553/V1_MQTT_OK/GD32VW55X_Wifi_BLE_SDK/GD32VW55x_RELEASE_V1.0.2/MSDK/cloud/alicloud/src/protocol/coap/local\CoAPMessage.c **** #include "CoAPDeserialize.h"
  10:C:/Users/stapi/OneDrive/Desktop/GD32VW553/V1_MQTT_OK/GD32VW55X_Wifi_BLE_SDK/GD32VW55x_RELEASE_V1.0.2/MSDK/cloud/alicloud/src/protocol/coap/local\CoAPMessage.c **** #include "CoAPResource.h"
  11:C:/Users/stapi/OneDrive/Desktop/GD32VW553/V1_MQTT_OK/GD32VW55X_Wifi_BLE_SDK/GD32VW55x_RELEASE_V1.0.2/MSDK/cloud/alicloud/src/protocol/coap/local\CoAPMessage.c **** #include "CoAPObserve.h"
  12:C:/Users/stapi/OneDrive/Desktop/GD32VW553/V1_MQTT_OK/GD32VW55X_Wifi_BLE_SDK/GD32VW55x_RELEASE_V1.0.2/MSDK/cloud/alicloud/src/protocol/coap/local\CoAPMessage.c **** #include "iot_import.h"
  13:C:/Users/stapi/OneDrive/Desktop/GD32VW553/V1_MQTT_OK/GD32VW55X_Wifi_BLE_SDK/GD32VW55x_RELEASE_V1.0.2/MSDK/cloud/alicloud/src/protocol/coap/local\CoAPMessage.c **** #include "CoAPPlatform.h"
  14:C:/Users/stapi/OneDrive/Desktop/GD32VW553/V1_MQTT_OK/GD32VW55X_Wifi_BLE_SDK/GD32VW55x_RELEASE_V1.0.2/MSDK/cloud/alicloud/src/protocol/coap/local\CoAPMessage.c **** #include "CoAPInternal.h"
  15:C:/Users/stapi/OneDrive/Desktop/GD32VW553/V1_MQTT_OK/GD32VW55X_Wifi_BLE_SDK/GD32VW55x_RELEASE_V1.0.2/MSDK/cloud/alicloud/src/protocol/coap/local\CoAPMessage.c **** #include "lite-list.h"
  16:C:/Users/stapi/OneDrive/Desktop/GD32VW553/V1_MQTT_OK/GD32VW55X_Wifi_BLE_SDK/GD32VW55x_RELEASE_V1.0.2/MSDK/cloud/alicloud/src/protocol/coap/local\CoAPMessage.c **** 
  17:C:/Users/stapi/OneDrive/Desktop/GD32VW553/V1_MQTT_OK/GD32VW55X_Wifi_BLE_SDK/GD32VW55x_RELEASE_V1.0.2/MSDK/cloud/alicloud/src/protocol/coap/local\CoAPMessage.c **** //#define DEBUG_OPEN_COAP_MSG_LOG
  18:C:/Users/stapi/OneDrive/Desktop/GD32VW553/V1_MQTT_OK/GD32VW55X_Wifi_BLE_SDK/GD32VW55x_RELEASE_V1.0.2/MSDK/cloud/alicloud/src/protocol/coap/local\CoAPMessage.c **** 
  19:C:/Users/stapi/OneDrive/Desktop/GD32VW553/V1_MQTT_OK/GD32VW55X_Wifi_BLE_SDK/GD32VW55x_RELEASE_V1.0.2/MSDK/cloud/alicloud/src/protocol/coap/local\CoAPMessage.c **** #define COAPAckMsg(header) \
  20:C:/Users/stapi/OneDrive/Desktop/GD32VW553/V1_MQTT_OK/GD32VW55X_Wifi_BLE_SDK/GD32VW55x_RELEASE_V1.0.2/MSDK/cloud/alicloud/src/protocol/coap/local\CoAPMessage.c ****     ((header.code == COAP_MSG_CODE_EMPTY_MESSAGE) \
  21:C:/Users/stapi/OneDrive/Desktop/GD32VW553/V1_MQTT_OK/GD32VW55X_Wifi_BLE_SDK/GD32VW55x_RELEASE_V1.0.2/MSDK/cloud/alicloud/src/protocol/coap/local\CoAPMessage.c ****      &&(header.type == COAP_MESSAGE_TYPE_ACK))
  22:C:/Users/stapi/OneDrive/Desktop/GD32VW553/V1_MQTT_OK/GD32VW55X_Wifi_BLE_SDK/GD32VW55x_RELEASE_V1.0.2/MSDK/cloud/alicloud/src/protocol/coap/local\CoAPMessage.c **** 
  23:C:/Users/stapi/OneDrive/Desktop/GD32VW553/V1_MQTT_OK/GD32VW55X_Wifi_BLE_SDK/GD32VW55x_RELEASE_V1.0.2/MSDK/cloud/alicloud/src/protocol/coap/local\CoAPMessage.c **** #define CoAPRespMsg(header)\
  24:C:/Users/stapi/OneDrive/Desktop/GD32VW553/V1_MQTT_OK/GD32VW55X_Wifi_BLE_SDK/GD32VW55x_RELEASE_V1.0.2/MSDK/cloud/alicloud/src/protocol/coap/local\CoAPMessage.c ****     ((header.code >= 0x40) && (header.code < 0xc0))
  25:C:/Users/stapi/OneDrive/Desktop/GD32VW553/V1_MQTT_OK/GD32VW55X_Wifi_BLE_SDK/GD32VW55x_RELEASE_V1.0.2/MSDK/cloud/alicloud/src/protocol/coap/local\CoAPMessage.c **** 
  26:C:/Users/stapi/OneDrive/Desktop/GD32VW553/V1_MQTT_OK/GD32VW55X_Wifi_BLE_SDK/GD32VW55x_RELEASE_V1.0.2/MSDK/cloud/alicloud/src/protocol/coap/local\CoAPMessage.c **** #define CoAPPingMsg(header)\
  27:C:/Users/stapi/OneDrive/Desktop/GD32VW553/V1_MQTT_OK/GD32VW55X_Wifi_BLE_SDK/GD32VW55x_RELEASE_V1.0.2/MSDK/cloud/alicloud/src/protocol/coap/local\CoAPMessage.c ****     ((header.code == COAP_MSG_CODE_EMPTY_MESSAGE)\
  28:C:/Users/stapi/OneDrive/Desktop/GD32VW553/V1_MQTT_OK/GD32VW55X_Wifi_BLE_SDK/GD32VW55x_RELEASE_V1.0.2/MSDK/cloud/alicloud/src/protocol/coap/local\CoAPMessage.c ****      && (header.type == COAP_MESSAGE_TYPE_CON))
  29:C:/Users/stapi/OneDrive/Desktop/GD32VW553/V1_MQTT_OK/GD32VW55X_Wifi_BLE_SDK/GD32VW55x_RELEASE_V1.0.2/MSDK/cloud/alicloud/src/protocol/coap/local\CoAPMessage.c **** 
  30:C:/Users/stapi/OneDrive/Desktop/GD32VW553/V1_MQTT_OK/GD32VW55X_Wifi_BLE_SDK/GD32VW55x_RELEASE_V1.0.2/MSDK/cloud/alicloud/src/protocol/coap/local\CoAPMessage.c **** #define CoAPResetMsg(header)\
  31:C:/Users/stapi/OneDrive/Desktop/GD32VW553/V1_MQTT_OK/GD32VW55X_Wifi_BLE_SDK/GD32VW55x_RELEASE_V1.0.2/MSDK/cloud/alicloud/src/protocol/coap/local\CoAPMessage.c ****     (header.type == COAP_MESSAGE_TYPE_RST)
  32:C:/Users/stapi/OneDrive/Desktop/GD32VW553/V1_MQTT_OK/GD32VW55X_Wifi_BLE_SDK/GD32VW55x_RELEASE_V1.0.2/MSDK/cloud/alicloud/src/protocol/coap/local\CoAPMessage.c **** 
  33:C:/Users/stapi/OneDrive/Desktop/GD32VW553/V1_MQTT_OK/GD32VW55X_Wifi_BLE_SDK/GD32VW55x_RELEASE_V1.0.2/MSDK/cloud/alicloud/src/protocol/coap/local\CoAPMessage.c **** #define CoAPCONRespMsg(header)\
  34:C:/Users/stapi/OneDrive/Desktop/GD32VW553/V1_MQTT_OK/GD32VW55X_Wifi_BLE_SDK/GD32VW55x_RELEASE_V1.0.2/MSDK/cloud/alicloud/src/protocol/coap/local\CoAPMessage.c ****     ((header.code == COAP_MSG_CODE_205_CONTENT) \
  35:C:/Users/stapi/OneDrive/Desktop/GD32VW553/V1_MQTT_OK/GD32VW55X_Wifi_BLE_SDK/GD32VW55x_RELEASE_V1.0.2/MSDK/cloud/alicloud/src/protocol/coap/local\CoAPMessage.c ****      && (header.type == COAP_MESSAGE_TYPE_CON))
  36:C:/Users/stapi/OneDrive/Desktop/GD32VW553/V1_MQTT_OK/GD32VW55X_Wifi_BLE_SDK/GD32VW55x_RELEASE_V1.0.2/MSDK/cloud/alicloud/src/protocol/coap/local\CoAPMessage.c **** 
  37:C:/Users/stapi/OneDrive/Desktop/GD32VW553/V1_MQTT_OK/GD32VW55X_Wifi_BLE_SDK/GD32VW55x_RELEASE_V1.0.2/MSDK/cloud/alicloud/src/protocol/coap/local\CoAPMessage.c **** #define CoAPReqMsg(header)\
  38:C:/Users/stapi/OneDrive/Desktop/GD32VW553/V1_MQTT_OK/GD32VW55X_Wifi_BLE_SDK/GD32VW55x_RELEASE_V1.0.2/MSDK/cloud/alicloud/src/protocol/coap/local\CoAPMessage.c ****     ((1 <= header.code) && (32 > header.code))
  39:C:/Users/stapi/OneDrive/Desktop/GD32VW553/V1_MQTT_OK/GD32VW55X_Wifi_BLE_SDK/GD32VW55x_RELEASE_V1.0.2/MSDK/cloud/alicloud/src/protocol/coap/local\CoAPMessage.c **** 
  40:C:/Users/stapi/OneDrive/Desktop/GD32VW553/V1_MQTT_OK/GD32VW55X_Wifi_BLE_SDK/GD32VW55x_RELEASE_V1.0.2/MSDK/cloud/alicloud/src/protocol/coap/local\CoAPMessage.c **** #define CoAPConMsg(header) (header.type == COAP_MESSAGE_TYPE_CON)
  41:C:/Users/stapi/OneDrive/Desktop/GD32VW553/V1_MQTT_OK/GD32VW55X_Wifi_BLE_SDK/GD32VW55x_RELEASE_V1.0.2/MSDK/cloud/alicloud/src/protocol/coap/local\CoAPMessage.c **** #define CoAPNonMsg(header) (header.type == COAP_MESSAGE_TYPE_NON)
  42:C:/Users/stapi/OneDrive/Desktop/GD32VW553/V1_MQTT_OK/GD32VW55X_Wifi_BLE_SDK/GD32VW55x_RELEASE_V1.0.2/MSDK/cloud/alicloud/src/protocol/coap/local\CoAPMessage.c **** 
  43:C:/Users/stapi/OneDrive/Desktop/GD32VW553/V1_MQTT_OK/GD32VW55X_Wifi_BLE_SDK/GD32VW55x_RELEASE_V1.0.2/MSDK/cloud/alicloud/src/protocol/coap/local\CoAPMessage.c **** #define NOKEEP 0
  44:C:/Users/stapi/OneDrive/Desktop/GD32VW553/V1_MQTT_OK/GD32VW55X_Wifi_BLE_SDK/GD32VW55x_RELEASE_V1.0.2/MSDK/cloud/alicloud/src/protocol/coap/local\CoAPMessage.c **** #define KEEPING 1
  45:C:/Users/stapi/OneDrive/Desktop/GD32VW553/V1_MQTT_OK/GD32VW55X_Wifi_BLE_SDK/GD32VW55x_RELEASE_V1.0.2/MSDK/cloud/alicloud/src/protocol/coap/local\CoAPMessage.c **** 
  46:C:/Users/stapi/OneDrive/Desktop/GD32VW553/V1_MQTT_OK/GD32VW55X_Wifi_BLE_SDK/GD32VW55x_RELEASE_V1.0.2/MSDK/cloud/alicloud/src/protocol/coap/local\CoAPMessage.c **** #define COAP_MAX_MESSAGE_ID     65535
  47:C:/Users/stapi/OneDrive/Desktop/GD32VW553/V1_MQTT_OK/GD32VW55X_Wifi_BLE_SDK/GD32VW55x_RELEASE_V1.0.2/MSDK/cloud/alicloud/src/protocol/coap/local\CoAPMessage.c **** #define COAP_MAX_RETRY_COUNT    4
  48:C:/Users/stapi/OneDrive/Desktop/GD32VW553/V1_MQTT_OK/GD32VW55X_Wifi_BLE_SDK/GD32VW55x_RELEASE_V1.0.2/MSDK/cloud/alicloud/src/protocol/coap/local\CoAPMessage.c **** #define COAP_ACK_TIMEOUT        600
  49:C:/Users/stapi/OneDrive/Desktop/GD32VW553/V1_MQTT_OK/GD32VW55X_Wifi_BLE_SDK/GD32VW55x_RELEASE_V1.0.2/MSDK/cloud/alicloud/src/protocol/coap/local\CoAPMessage.c **** #define COAP_ACK_RANDOM_FACTOR  1
  50:C:/Users/stapi/OneDrive/Desktop/GD32VW553/V1_MQTT_OK/GD32VW55X_Wifi_BLE_SDK/GD32VW55x_RELEASE_V1.0.2/MSDK/cloud/alicloud/src/protocol/coap/local\CoAPMessage.c **** 
  51:C:/Users/stapi/OneDrive/Desktop/GD32VW553/V1_MQTT_OK/GD32VW55X_Wifi_BLE_SDK/GD32VW55x_RELEASE_V1.0.2/MSDK/cloud/alicloud/src/protocol/coap/local\CoAPMessage.c **** int CoAPMessage_print_sendlist(CoAPContext *context);
  52:C:/Users/stapi/OneDrive/Desktop/GD32VW553/V1_MQTT_OK/GD32VW55X_Wifi_BLE_SDK/GD32VW55x_RELEASE_V1.0.2/MSDK/cloud/alicloud/src/protocol/coap/local\CoAPMessage.c **** 
  53:C:/Users/stapi/OneDrive/Desktop/GD32VW553/V1_MQTT_OK/GD32VW55X_Wifi_BLE_SDK/GD32VW55x_RELEASE_V1.0.2/MSDK/cloud/alicloud/src/protocol/coap/local\CoAPMessage.c **** int CoAPOption_sort(CoAPMessage *message)
  54:C:/Users/stapi/OneDrive/Desktop/GD32VW553/V1_MQTT_OK/GD32VW55X_Wifi_BLE_SDK/GD32VW55x_RELEASE_V1.0.2/MSDK/cloud/alicloud/src/protocol/coap/local\CoAPMessage.c **** {
  16              		.loc 1 54 1
  17              		.cfi_startproc
  18              	.LVL0:
  19 0000 17030000 		call	t0,__riscv_save_8
  19      E7020300 
  20              		.cfi_offset 23, -36
  21              		.cfi_offset 22, -32
  22              		.cfi_offset 21, -28
  23              		.cfi_offset 20, -24
  24              		.cfi_offset 19, -20
  25              		.cfi_offset 18, -16
  26              		.cfi_offset 9, -12
  27              		.cfi_offset 8, -8
  28              		.cfi_offset 1, -4
  29              		.cfi_def_cfa_offset 48
  55:C:/Users/stapi/OneDrive/Desktop/GD32VW553/V1_MQTT_OK/GD32VW55X_Wifi_BLE_SDK/GD32VW55x_RELEASE_V1.0.2/MSDK/cloud/alicloud/src/protocol/coap/local\CoAPMessage.c ****     int opt_count = message->optcount;
  30              		.loc 1 55 5
  31              		.loc 1 55 9 is_stmt 0
  32 0008 834AC506 		lbu	s5,108(a0)
  33              	.LVL1:
  56:C:/Users/stapi/OneDrive/Desktop/GD32VW553/V1_MQTT_OK/GD32VW55X_Wifi_BLE_SDK/GD32VW55x_RELEASE_V1.0.2/MSDK/cloud/alicloud/src/protocol/coap/local\CoAPMessage.c ****     CoAPMsgOption *options = message->options;
  34              		.loc 1 56 5 is_stmt 1
  57:C:/Users/stapi/OneDrive/Desktop/GD32VW553/V1_MQTT_OK/GD32VW55X_Wifi_BLE_SDK/GD32VW55x_RELEASE_V1.0.2/MSDK/cloud/alicloud/src/protocol/coap/local\CoAPMessage.c ****     CoAPMsgOption temp;
  35              		.loc 1 57 5
  58:C:/Users/stapi/OneDrive/Desktop/GD32VW553/V1_MQTT_OK/GD32VW55X_Wifi_BLE_SDK/GD32VW55x_RELEASE_V1.0.2/MSDK/cloud/alicloud/src/protocol/coap/local\CoAPMessage.c ****     int i, j;
  36              		.loc 1 58 5
  59:C:/Users/stapi/OneDrive/Desktop/GD32VW553/V1_MQTT_OK/GD32VW55X_Wifi_BLE_SDK/GD32VW55x_RELEASE_V1.0.2/MSDK/cloud/alicloud/src/protocol/coap/local\CoAPMessage.c **** 
  60:C:/Users/stapi/OneDrive/Desktop/GD32VW553/V1_MQTT_OK/GD32VW55X_Wifi_BLE_SDK/GD32VW55x_RELEASE_V1.0.2/MSDK/cloud/alicloud/src/protocol/coap/local\CoAPMessage.c ****     if (opt_count <= 1) {
  37              		.loc 1 60 5
  38              		.loc 1 60 8 is_stmt 0
  39 000c 8547     		li	a5,1
  54:C:/Users/stapi/OneDrive/Desktop/GD32VW553/V1_MQTT_OK/GD32VW55X_Wifi_BLE_SDK/GD32VW55x_RELEASE_V1.0.2/MSDK/cloud/alicloud/src/protocol/coap/local\CoAPMessage.c ****     int opt_count = message->optcount;
  40              		.loc 1 54 1
  41 000e 4111     		addi	sp,sp,-16
  42              		.cfi_def_cfa_offset 64
  43              		.loc 1 60 8
  44 0010 63D55707 		ble	s5,a5,.L10
  56:C:/Users/stapi/OneDrive/Desktop/GD32VW553/V1_MQTT_OK/GD32VW55X_Wifi_BLE_SDK/GD32VW55x_RELEASE_V1.0.2/MSDK/cloud/alicloud/src/protocol/coap/local\CoAPMessage.c ****     CoAPMsgOption temp;
  45              		.loc 1 56 20
  46 0014 1304C500 		addi	s0,a0,12
  47              	.LVL2:
  48 0018 228A     		mv	s4,s0
  61:C:/Users/stapi/OneDrive/Desktop/GD32VW553/V1_MQTT_OK/GD32VW55X_Wifi_BLE_SDK/GD32VW55x_RELEASE_V1.0.2/MSDK/cloud/alicloud/src/protocol/coap/local\CoAPMessage.c ****         return COAP_SUCCESS;
  62:C:/Users/stapi/OneDrive/Desktop/GD32VW553/V1_MQTT_OK/GD32VW55X_Wifi_BLE_SDK/GD32VW55x_RELEASE_V1.0.2/MSDK/cloud/alicloud/src/protocol/coap/local\CoAPMessage.c ****     }
  63:C:/Users/stapi/OneDrive/Desktop/GD32VW553/V1_MQTT_OK/GD32VW55X_Wifi_BLE_SDK/GD32VW55x_RELEASE_V1.0.2/MSDK/cloud/alicloud/src/protocol/coap/local\CoAPMessage.c **** 
  64:C:/Users/stapi/OneDrive/Desktop/GD32VW553/V1_MQTT_OK/GD32VW55X_Wifi_BLE_SDK/GD32VW55x_RELEASE_V1.0.2/MSDK/cloud/alicloud/src/protocol/coap/local\CoAPMessage.c ****     for (i = 1; i < opt_count; i++) {
  49              		.loc 1 64 12
  50 001a 8549     		li	s3,1
  65:C:/Users/stapi/OneDrive/Desktop/GD32VW553/V1_MQTT_OK/GD32VW55X_Wifi_BLE_SDK/GD32VW55x_RELEASE_V1.0.2/MSDK/cloud/alicloud/src/protocol/coap/local\CoAPMessage.c ****         if (options[i].num < options[i-1].num) {
  66:C:/Users/stapi/OneDrive/Desktop/GD32VW553/V1_MQTT_OK/GD32VW55X_Wifi_BLE_SDK/GD32VW55x_RELEASE_V1.0.2/MSDK/cloud/alicloud/src/protocol/coap/local\CoAPMessage.c ****             memcpy((void *)&temp, (void *)&options[i], sizeof(CoAPMsgOption));
  67:C:/Users/stapi/OneDrive/Desktop/GD32VW553/V1_MQTT_OK/GD32VW55X_Wifi_BLE_SDK/GD32VW55x_RELEASE_V1.0.2/MSDK/cloud/alicloud/src/protocol/coap/local\CoAPMessage.c ****             for (j = i - 1; j >= 0 && options[j].num > temp.num; j--) {
  51              		.loc 1 67 13
  52 001c FD5B     		li	s7,-1
  53              	.LVL3:
  54              	.L7:
  65:C:/Users/stapi/OneDrive/Desktop/GD32VW553/V1_MQTT_OK/GD32VW55X_Wifi_BLE_SDK/GD32VW55x_RELEASE_V1.0.2/MSDK/cloud/alicloud/src/protocol/coap/local\CoAPMessage.c ****         if (options[i].num < options[i-1].num) {
  55              		.loc 1 65 9 is_stmt 1
  56 001e D284     		mv	s1,s4
  65:C:/Users/stapi/OneDrive/Desktop/GD32VW553/V1_MQTT_OK/GD32VW55X_Wifi_BLE_SDK/GD32VW55x_RELEASE_V1.0.2/MSDK/cloud/alicloud/src/protocol/coap/local\CoAPMessage.c ****         if (options[i].num < options[i-1].num) {
  57              		.loc 1 65 23 is_stmt 0
  58 0020 03DB8400 		lhu	s6,8(s1)
  65:C:/Users/stapi/OneDrive/Desktop/GD32VW553/V1_MQTT_OK/GD32VW55X_Wifi_BLE_SDK/GD32VW55x_RELEASE_V1.0.2/MSDK/cloud/alicloud/src/protocol/coap/local\CoAPMessage.c ****         if (options[i].num < options[i-1].num) {
  59              		.loc 1 65 12
  60 0024 83D70400 		lhu	a5,0(s1)
  61 0028 210A     		addi	s4,s4,8
  62 002a 6375FB04 		bleu	a5,s6,.L3
  66:C:/Users/stapi/OneDrive/Desktop/GD32VW553/V1_MQTT_OK/GD32VW55X_Wifi_BLE_SDK/GD32VW55x_RELEASE_V1.0.2/MSDK/cloud/alicloud/src/protocol/coap/local\CoAPMessage.c ****             for (j = i - 1; j >= 0 && options[j].num > temp.num; j--) {
  63              		.loc 1 66 13 is_stmt 1
  64 002e 2146     		li	a2,8
  65 0030 D285     		mv	a1,s4
  66 0032 2800     		addi	a0,sp,8
  67 0034 97000000 		call	memcpy
  67      E7800000 
  68              	.LVL4:
  69              		.loc 1 67 13
  70 003c 1389F9FF 		addi	s2,s3,-1
  71              	.LVL5:
  72              		.loc 1 67 29
  73              	.L4:
  74              		.loc 1 67 36 is_stmt 0 discriminator 3
  75 0040 83D70400 		lhu	a5,0(s1)
  76 0044 13858400 		addi	a0,s1,8
  77 0048 637CFB00 		bleu	a5,s6,.L5
  68:C:/Users/stapi/OneDrive/Desktop/GD32VW553/V1_MQTT_OK/GD32VW55X_Wifi_BLE_SDK/GD32VW55x_RELEASE_V1.0.2/MSDK/cloud/alicloud/src/protocol/coap/local\CoAPMessage.c ****                 memcpy((void *)&options[j + 1], (void *)&options[j], sizeof(CoAPMsgOption));
  78              		.loc 1 68 17 is_stmt 1 discriminator 4
  79 004c A685     		mv	a1,s1
  80 004e 2146     		li	a2,8
  67:C:/Users/stapi/OneDrive/Desktop/GD32VW553/V1_MQTT_OK/GD32VW55X_Wifi_BLE_SDK/GD32VW55x_RELEASE_V1.0.2/MSDK/cloud/alicloud/src/protocol/coap/local\CoAPMessage.c ****                 memcpy((void *)&options[j + 1], (void *)&options[j], sizeof(CoAPMsgOption));
  81              		.loc 1 67 67 is_stmt 0 discriminator 4
  82 0050 7D19     		addi	s2,s2,-1
  83              	.LVL6:
  84              		.loc 1 68 17 discriminator 4
  85 0052 97000000 		call	memcpy
  85      E7800000 
  86              	.LVL7:
  67:C:/Users/stapi/OneDrive/Desktop/GD32VW553/V1_MQTT_OK/GD32VW55X_Wifi_BLE_SDK/GD32VW55x_RELEASE_V1.0.2/MSDK/cloud/alicloud/src/protocol/coap/local\CoAPMessage.c ****                 memcpy((void *)&options[j + 1], (void *)&options[j], sizeof(CoAPMsgOption));
  87              		.loc 1 67 66 is_stmt 1 discriminator 4
  67:C:/Users/stapi/OneDrive/Desktop/GD32VW553/V1_MQTT_OK/GD32VW55X_Wifi_BLE_SDK/GD32VW55x_RELEASE_V1.0.2/MSDK/cloud/alicloud/src/protocol/coap/local\CoAPMessage.c ****                 memcpy((void *)&options[j + 1], (void *)&options[j], sizeof(CoAPMsgOption));
  88              		.loc 1 67 29 discriminator 4
  67:C:/Users/stapi/OneDrive/Desktop/GD32VW553/V1_MQTT_OK/GD32VW55X_Wifi_BLE_SDK/GD32VW55x_RELEASE_V1.0.2/MSDK/cloud/alicloud/src/protocol/coap/local\CoAPMessage.c ****                 memcpy((void *)&options[j + 1], (void *)&options[j], sizeof(CoAPMsgOption));
  89              		.loc 1 67 13 is_stmt 0 discriminator 4
  90 005a E114     		addi	s1,s1,-8
  91 005c E31279FF 		bne	s2,s7,.L4
  92              	.L5:
  69:C:/Users/stapi/OneDrive/Desktop/GD32VW553/V1_MQTT_OK/GD32VW55X_Wifi_BLE_SDK/GD32VW55x_RELEASE_V1.0.2/MSDK/cloud/alicloud/src/protocol/coap/local\CoAPMessage.c ****             }
  70:C:/Users/stapi/OneDrive/Desktop/GD32VW553/V1_MQTT_OK/GD32VW55X_Wifi_BLE_SDK/GD32VW55x_RELEASE_V1.0.2/MSDK/cloud/alicloud/src/protocol/coap/local\CoAPMessage.c ****             memcpy((void *)&options[j + 1], (void *)&temp, sizeof(CoAPMsgOption));
  93              		.loc 1 70 13 is_stmt 1
  94              		.loc 1 70 36 is_stmt 0
  95 0060 13051900 		addi	a0,s2,1
  96              		.loc 1 70 13
  97 0064 2146     		li	a2,8
  98 0066 2C00     		addi	a1,sp,8
  99 0068 33658520 		sh3add	a0,a0,s0
 100 006c 97000000 		call	memcpy
 100      E7800000 
 101              	.LVL8:
 102              	.L3:
  64:C:/Users/stapi/OneDrive/Desktop/GD32VW553/V1_MQTT_OK/GD32VW55X_Wifi_BLE_SDK/GD32VW55x_RELEASE_V1.0.2/MSDK/cloud/alicloud/src/protocol/coap/local\CoAPMessage.c ****         if (options[i].num < options[i-1].num) {
 103              		.loc 1 64 32 is_stmt 1 discriminator 2
  64:C:/Users/stapi/OneDrive/Desktop/GD32VW553/V1_MQTT_OK/GD32VW55X_Wifi_BLE_SDK/GD32VW55x_RELEASE_V1.0.2/MSDK/cloud/alicloud/src/protocol/coap/local\CoAPMessage.c ****         if (options[i].num < options[i-1].num) {
 104              		.loc 1 64 33 is_stmt 0 discriminator 2
 105 0074 8509     		addi	s3,s3,1
 106              	.LVL9:
  64:C:/Users/stapi/OneDrive/Desktop/GD32VW553/V1_MQTT_OK/GD32VW55X_Wifi_BLE_SDK/GD32VW55x_RELEASE_V1.0.2/MSDK/cloud/alicloud/src/protocol/coap/local\CoAPMessage.c ****         if (options[i].num < options[i-1].num) {
 107              		.loc 1 64 17 is_stmt 1 discriminator 2
  64:C:/Users/stapi/OneDrive/Desktop/GD32VW553/V1_MQTT_OK/GD32VW55X_Wifi_BLE_SDK/GD32VW55x_RELEASE_V1.0.2/MSDK/cloud/alicloud/src/protocol/coap/local\CoAPMessage.c ****         if (options[i].num < options[i-1].num) {
 108              		.loc 1 64 5 is_stmt 0 discriminator 2
 109 0076 E3C459FB 		bgt	s5,s3,.L7
 110              	.LVL10:
 111              	.L10:
  71:C:/Users/stapi/OneDrive/Desktop/GD32VW553/V1_MQTT_OK/GD32VW55X_Wifi_BLE_SDK/GD32VW55x_RELEASE_V1.0.2/MSDK/cloud/alicloud/src/protocol/coap/local\CoAPMessage.c ****         }
  72:C:/Users/stapi/OneDrive/Desktop/GD32VW553/V1_MQTT_OK/GD32VW55X_Wifi_BLE_SDK/GD32VW55x_RELEASE_V1.0.2/MSDK/cloud/alicloud/src/protocol/coap/local\CoAPMessage.c ****     }
  73:C:/Users/stapi/OneDrive/Desktop/GD32VW553/V1_MQTT_OK/GD32VW55X_Wifi_BLE_SDK/GD32VW55x_RELEASE_V1.0.2/MSDK/cloud/alicloud/src/protocol/coap/local\CoAPMessage.c **** 
  74:C:/Users/stapi/OneDrive/Desktop/GD32VW553/V1_MQTT_OK/GD32VW55X_Wifi_BLE_SDK/GD32VW55x_RELEASE_V1.0.2/MSDK/cloud/alicloud/src/protocol/coap/local\CoAPMessage.c ****     return COAP_SUCCESS;
  75:C:/Users/stapi/OneDrive/Desktop/GD32VW553/V1_MQTT_OK/GD32VW55X_Wifi_BLE_SDK/GD32VW55x_RELEASE_V1.0.2/MSDK/cloud/alicloud/src/protocol/coap/local\CoAPMessage.c **** }
 112              		.loc 1 75 1
 113 007a 0145     		li	a0,0
 114 007c 4101     		addi	sp,sp,16
 115              		.cfi_def_cfa_offset 0
 116 007e 17030000 		tail	__riscv_restore_8
 116      67000300 
 117              		.cfi_restore 23
 118              		.cfi_restore 22
 119              		.cfi_restore 21
 120              		.cfi_restore 20
 121              		.cfi_restore 19
 122              		.cfi_restore 18
 123              		.cfi_restore 9
 124              		.cfi_restore 8
 125              		.cfi_restore 1
 126              		.cfi_def_cfa_offset -48
 127              		.cfi_endproc
 128              	.LFE20:
 130              		.section	.text.CoAPStrOption_add,"ax",@progbits
 131              		.align	1
 132              		.globl	CoAPStrOption_add
 134              	CoAPStrOption_add:
 135              	.LFB21:
  76:C:/Users/stapi/OneDrive/Desktop/GD32VW553/V1_MQTT_OK/GD32VW55X_Wifi_BLE_SDK/GD32VW55x_RELEASE_V1.0.2/MSDK/cloud/alicloud/src/protocol/coap/local\CoAPMessage.c **** 
  77:C:/Users/stapi/OneDrive/Desktop/GD32VW553/V1_MQTT_OK/GD32VW55X_Wifi_BLE_SDK/GD32VW55x_RELEASE_V1.0.2/MSDK/cloud/alicloud/src/protocol/coap/local\CoAPMessage.c **** int CoAPStrOption_add(CoAPMessage *message, unsigned short optnum, unsigned char *data, unsigned sh
  78:C:/Users/stapi/OneDrive/Desktop/GD32VW553/V1_MQTT_OK/GD32VW55X_Wifi_BLE_SDK/GD32VW55x_RELEASE_V1.0.2/MSDK/cloud/alicloud/src/protocol/coap/local\CoAPMessage.c **** {
 136              		.loc 1 78 1 is_stmt 1
 137              		.cfi_startproc
 138              	.LVL11:
  79:C:/Users/stapi/OneDrive/Desktop/GD32VW553/V1_MQTT_OK/GD32VW55X_Wifi_BLE_SDK/GD32VW55x_RELEASE_V1.0.2/MSDK/cloud/alicloud/src/protocol/coap/local\CoAPMessage.c ****     unsigned char *ptr = NULL;
 139              		.loc 1 79 5
  80:C:/Users/stapi/OneDrive/Desktop/GD32VW553/V1_MQTT_OK/GD32VW55X_Wifi_BLE_SDK/GD32VW55x_RELEASE_V1.0.2/MSDK/cloud/alicloud/src/protocol/coap/local\CoAPMessage.c ****     if (COAP_MSG_MAX_OPTION_NUM <= message->optcount) {
 140              		.loc 1 80 5
 141              		.loc 1 80 43 is_stmt 0
 142 0000 8347C506 		lbu	a5,108(a0)
 143              		.loc 1 80 8
 144 0004 2D47     		li	a4,11
 145 0006 6362F706 		bgtu	a5,a4,.L15
  78:C:/Users/stapi/OneDrive/Desktop/GD32VW553/V1_MQTT_OK/GD32VW55X_Wifi_BLE_SDK/GD32VW55x_RELEASE_V1.0.2/MSDK/cloud/alicloud/src/protocol/coap/local\CoAPMessage.c ****     unsigned char *ptr = NULL;
 146              		.loc 1 78 1
 147 000a 17030000 		call	t0,__riscv_save_3
 147      E7020300 
 148              		.cfi_offset 18, -16
 149              		.cfi_offset 9, -12
 150              		.cfi_offset 8, -8
 151              		.cfi_offset 1, -4
 152              		.cfi_def_cfa_offset 16
 153 0012 B3E7A720 		sh3add	a5,a5,a0
  81:C:/Users/stapi/OneDrive/Desktop/GD32VW553/V1_MQTT_OK/GD32VW55X_Wifi_BLE_SDK/GD32VW55x_RELEASE_V1.0.2/MSDK/cloud/alicloud/src/protocol/coap/local\CoAPMessage.c ****         return COAP_ERROR_INVALID_PARAM;
  82:C:/Users/stapi/OneDrive/Desktop/GD32VW553/V1_MQTT_OK/GD32VW55X_Wifi_BLE_SDK/GD32VW55x_RELEASE_V1.0.2/MSDK/cloud/alicloud/src/protocol/coap/local\CoAPMessage.c ****     }
  83:C:/Users/stapi/OneDrive/Desktop/GD32VW553/V1_MQTT_OK/GD32VW55X_Wifi_BLE_SDK/GD32VW55x_RELEASE_V1.0.2/MSDK/cloud/alicloud/src/protocol/coap/local\CoAPMessage.c **** 
  84:C:/Users/stapi/OneDrive/Desktop/GD32VW553/V1_MQTT_OK/GD32VW55X_Wifi_BLE_SDK/GD32VW55x_RELEASE_V1.0.2/MSDK/cloud/alicloud/src/protocol/coap/local\CoAPMessage.c ****     /* coap options will be sorted in coap send message */
  85:C:/Users/stapi/OneDrive/Desktop/GD32VW553/V1_MQTT_OK/GD32VW55X_Wifi_BLE_SDK/GD32VW55x_RELEASE_V1.0.2/MSDK/cloud/alicloud/src/protocol/coap/local\CoAPMessage.c ****     message->options[message->optcount].num = optnum;
 154              		.loc 1 85 45
 155 0016 2396B700 		sh	a1,12(a5)
  86:C:/Users/stapi/OneDrive/Desktop/GD32VW553/V1_MQTT_OK/GD32VW55X_Wifi_BLE_SDK/GD32VW55x_RELEASE_V1.0.2/MSDK/cloud/alicloud/src/protocol/coap/local\CoAPMessage.c ****     message->options[message->optcount].len = datalen;
 156              		.loc 1 86 45
 157 001a 2397D700 		sh	a3,14(a5)
 158 001e 3289     		mv	s2,a2
  78:C:/Users/stapi/OneDrive/Desktop/GD32VW553/V1_MQTT_OK/GD32VW55X_Wifi_BLE_SDK/GD32VW55x_RELEASE_V1.0.2/MSDK/cloud/alicloud/src/protocol/coap/local\CoAPMessage.c ****     unsigned char *ptr = NULL;
 159              		.loc 1 78 1
 160 0020 4111     		addi	sp,sp,-16
 161              		.cfi_def_cfa_offset 32
 162 0022 2A84     		mv	s0,a0
 163 0024 3686     		mv	a2,a3
 164              	.LVL12:
  85:C:/Users/stapi/OneDrive/Desktop/GD32VW553/V1_MQTT_OK/GD32VW55X_Wifi_BLE_SDK/GD32VW55x_RELEASE_V1.0.2/MSDK/cloud/alicloud/src/protocol/coap/local\CoAPMessage.c ****     message->options[message->optcount].len = datalen;
 165              		.loc 1 85 5 is_stmt 1
 166              		.loc 1 86 5
  87:C:/Users/stapi/OneDrive/Desktop/GD32VW553/V1_MQTT_OK/GD32VW55X_Wifi_BLE_SDK/GD32VW55x_RELEASE_V1.0.2/MSDK/cloud/alicloud/src/protocol/coap/local\CoAPMessage.c **** 
  88:C:/Users/stapi/OneDrive/Desktop/GD32VW553/V1_MQTT_OK/GD32VW55X_Wifi_BLE_SDK/GD32VW55x_RELEASE_V1.0.2/MSDK/cloud/alicloud/src/protocol/coap/local\CoAPMessage.c ****     if (datalen) {
 167              		.loc 1 88 5
  79:C:/Users/stapi/OneDrive/Desktop/GD32VW553/V1_MQTT_OK/GD32VW55X_Wifi_BLE_SDK/GD32VW55x_RELEASE_V1.0.2/MSDK/cloud/alicloud/src/protocol/coap/local\CoAPMessage.c ****     if (COAP_MSG_MAX_OPTION_NUM <= message->optcount) {
 168              		.loc 1 79 20 is_stmt 0
 169 0026 8144     		li	s1,0
 170              		.loc 1 88 8
 171 0028 95C2     		beq	a3,zero,.L14
  89:C:/Users/stapi/OneDrive/Desktop/GD32VW553/V1_MQTT_OK/GD32VW55X_Wifi_BLE_SDK/GD32VW55x_RELEASE_V1.0.2/MSDK/cloud/alicloud/src/protocol/coap/local\CoAPMessage.c ****         ptr = (unsigned char *)coap_malloc(datalen);
 172              		.loc 1 89 9 is_stmt 1
 173              		.loc 1 89 32 is_stmt 0
 174 002a 8145     		li	a1,0
 175              	.LVL13:
 176 002c 0145     		li	a0,0
 177              	.LVL14:
 178 002e 36C6     		sw	a3,12(sp)
 179 0030 97000000 		call	LITE_malloc_internal
 179      E7800000 
 180              	.LVL15:
 181 0038 AA84     		mv	s1,a0
 182              	.LVL16:
  90:C:/Users/stapi/OneDrive/Desktop/GD32VW553/V1_MQTT_OK/GD32VW55X_Wifi_BLE_SDK/GD32VW55x_RELEASE_V1.0.2/MSDK/cloud/alicloud/src/protocol/coap/local\CoAPMessage.c ****         if (NULL == ptr) {
 183              		.loc 1 90 9 is_stmt 1
  91:C:/Users/stapi/OneDrive/Desktop/GD32VW553/V1_MQTT_OK/GD32VW55X_Wifi_BLE_SDK/GD32VW55x_RELEASE_V1.0.2/MSDK/cloud/alicloud/src/protocol/coap/local\CoAPMessage.c ****             return COAP_ERROR_MALLOC;
 184              		.loc 1 91 20 is_stmt 0
 185 003a 93073010 		li	a5,259
  90:C:/Users/stapi/OneDrive/Desktop/GD32VW553/V1_MQTT_OK/GD32VW55X_Wifi_BLE_SDK/GD32VW55x_RELEASE_V1.0.2/MSDK/cloud/alicloud/src/protocol/coap/local\CoAPMessage.c ****         if (NULL == ptr) {
 186              		.loc 1 90 12
 187 003e 05C1     		beq	a0,zero,.L12
  92:C:/Users/stapi/OneDrive/Desktop/GD32VW553/V1_MQTT_OK/GD32VW55X_Wifi_BLE_SDK/GD32VW55x_RELEASE_V1.0.2/MSDK/cloud/alicloud/src/protocol/coap/local\CoAPMessage.c ****         }
  93:C:/Users/stapi/OneDrive/Desktop/GD32VW553/V1_MQTT_OK/GD32VW55X_Wifi_BLE_SDK/GD32VW55x_RELEASE_V1.0.2/MSDK/cloud/alicloud/src/protocol/coap/local\CoAPMessage.c ****         memcpy(ptr, data, datalen);
 188              		.loc 1 93 9 is_stmt 1
 189 0040 3246     		lw	a2,12(sp)
 190 0042 CA85     		mv	a1,s2
 191 0044 97000000 		call	memcpy
 191      E7800000 
 192              	.LVL17:
 193              	.L14:
  94:C:/Users/stapi/OneDrive/Desktop/GD32VW553/V1_MQTT_OK/GD32VW55X_Wifi_BLE_SDK/GD32VW55x_RELEASE_V1.0.2/MSDK/cloud/alicloud/src/protocol/coap/local\CoAPMessage.c ****     }
  95:C:/Users/stapi/OneDrive/Desktop/GD32VW553/V1_MQTT_OK/GD32VW55X_Wifi_BLE_SDK/GD32VW55x_RELEASE_V1.0.2/MSDK/cloud/alicloud/src/protocol/coap/local\CoAPMessage.c ****     message->options[message->optcount].val = ptr;
 194              		.loc 1 95 5
 195              		.loc 1 95 29 is_stmt 0
 196 004c 8347C406 		lbu	a5,108(s0)
 197              		.loc 1 95 45
 198 0050 33E78720 		sh3add	a4,a5,s0
  96:C:/Users/stapi/OneDrive/Desktop/GD32VW553/V1_MQTT_OK/GD32VW55X_Wifi_BLE_SDK/GD32VW55x_RELEASE_V1.0.2/MSDK/cloud/alicloud/src/protocol/coap/local\CoAPMessage.c ****     message->optcount ++;
 199              		.loc 1 96 23
 200 0054 8507     		addi	a5,a5,1
  95:C:/Users/stapi/OneDrive/Desktop/GD32VW553/V1_MQTT_OK/GD32VW55X_Wifi_BLE_SDK/GD32VW55x_RELEASE_V1.0.2/MSDK/cloud/alicloud/src/protocol/coap/local\CoAPMessage.c ****     message->optcount ++;
 201              		.loc 1 95 45
 202 0056 04CB     		sw	s1,16(a4)
 203              		.loc 1 96 5 is_stmt 1
 204              		.loc 1 96 23 is_stmt 0
 205 0058 2306F406 		sb	a5,108(s0)
  97:C:/Users/stapi/OneDrive/Desktop/GD32VW553/V1_MQTT_OK/GD32VW55X_Wifi_BLE_SDK/GD32VW55x_RELEASE_V1.0.2/MSDK/cloud/alicloud/src/protocol/coap/local\CoAPMessage.c **** 
  98:C:/Users/stapi/OneDrive/Desktop/GD32VW553/V1_MQTT_OK/GD32VW55X_Wifi_BLE_SDK/GD32VW55x_RELEASE_V1.0.2/MSDK/cloud/alicloud/src/protocol/coap/local\CoAPMessage.c ****     return COAP_SUCCESS;
 206              		.loc 1 98 5 is_stmt 1
 207              		.loc 1 98 12 is_stmt 0
 208 005c 8147     		li	a5,0
 209              	.L12:
  99:C:/Users/stapi/OneDrive/Desktop/GD32VW553/V1_MQTT_OK/GD32VW55X_Wifi_BLE_SDK/GD32VW55x_RELEASE_V1.0.2/MSDK/cloud/alicloud/src/protocol/coap/local\CoAPMessage.c **** 
 100:C:/Users/stapi/OneDrive/Desktop/GD32VW553/V1_MQTT_OK/GD32VW55X_Wifi_BLE_SDK/GD32VW55x_RELEASE_V1.0.2/MSDK/cloud/alicloud/src/protocol/coap/local\CoAPMessage.c **** }
 210              		.loc 1 100 1
 211 005e 3E85     		mv	a0,a5
 212 0060 4101     		addi	sp,sp,16
 213              		.cfi_def_cfa_offset 0
 214 0062 17030000 		tail	__riscv_restore_3
 214      67000300 
 215              		.cfi_restore 18
 216              		.cfi_restore 9
 217              		.cfi_restore 8
 218              		.cfi_restore 1
 219              		.cfi_def_cfa_offset -16
 220              	.LVL18:
 221              	.L15:
 222              		.cfi_def_cfa_offset 0
  81:C:/Users/stapi/OneDrive/Desktop/GD32VW553/V1_MQTT_OK/GD32VW55X_Wifi_BLE_SDK/GD32VW55x_RELEASE_V1.0.2/MSDK/cloud/alicloud/src/protocol/coap/local\CoAPMessage.c ****     }
 223              		.loc 1 81 16
 224 006a 93071010 		li	a5,257
 225              		.loc 1 100 1
 226 006e 3E85     		mv	a0,a5
 227              	.LVL19:
 228 0070 8280     		ret
 229              		.cfi_endproc
 230              	.LFE21:
 232              		.section	.text.CoAPStrOption_get,"ax",@progbits
 233              		.align	1
 234              		.globl	CoAPStrOption_get
 236              	CoAPStrOption_get:
 237              	.LFB22:
 101:C:/Users/stapi/OneDrive/Desktop/GD32VW553/V1_MQTT_OK/GD32VW55X_Wifi_BLE_SDK/GD32VW55x_RELEASE_V1.0.2/MSDK/cloud/alicloud/src/protocol/coap/local\CoAPMessage.c **** 
 102:C:/Users/stapi/OneDrive/Desktop/GD32VW553/V1_MQTT_OK/GD32VW55X_Wifi_BLE_SDK/GD32VW55x_RELEASE_V1.0.2/MSDK/cloud/alicloud/src/protocol/coap/local\CoAPMessage.c **** int CoAPStrOption_get(CoAPMessage *message, unsigned short optnum, unsigned char *data, unsigned sh
 103:C:/Users/stapi/OneDrive/Desktop/GD32VW553/V1_MQTT_OK/GD32VW55X_Wifi_BLE_SDK/GD32VW55x_RELEASE_V1.0.2/MSDK/cloud/alicloud/src/protocol/coap/local\CoAPMessage.c **** {
 238              		.loc 1 103 1 is_stmt 1
 239              		.cfi_startproc
 240              	.LVL20:
 241 0000 17030000 		call	t0,__riscv_save_2
 241      E7020300 
 242              		.cfi_offset 9, -12
 243              		.cfi_offset 8, -8
 244              		.cfi_offset 1, -4
 245              		.cfi_def_cfa_offset 16
 104:C:/Users/stapi/OneDrive/Desktop/GD32VW553/V1_MQTT_OK/GD32VW55X_Wifi_BLE_SDK/GD32VW55x_RELEASE_V1.0.2/MSDK/cloud/alicloud/src/protocol/coap/local\CoAPMessage.c ****     unsigned char index = 0;
 246              		.loc 1 104 5
 247              	.LVL21:
 105:C:/Users/stapi/OneDrive/Desktop/GD32VW553/V1_MQTT_OK/GD32VW55X_Wifi_BLE_SDK/GD32VW55x_RELEASE_V1.0.2/MSDK/cloud/alicloud/src/protocol/coap/local\CoAPMessage.c **** 
 106:C:/Users/stapi/OneDrive/Desktop/GD32VW553/V1_MQTT_OK/GD32VW55X_Wifi_BLE_SDK/GD32VW55x_RELEASE_V1.0.2/MSDK/cloud/alicloud/src/protocol/coap/local\CoAPMessage.c ****     for (index = 0; index < message->optcount; index++) {
 248              		.loc 1 106 5
 103:C:/Users/stapi/OneDrive/Desktop/GD32VW553/V1_MQTT_OK/GD32VW55X_Wifi_BLE_SDK/GD32VW55x_RELEASE_V1.0.2/MSDK/cloud/alicloud/src/protocol/coap/local\CoAPMessage.c ****     unsigned char index = 0;
 249              		.loc 1 103 1 is_stmt 0
 250 0008 2A84     		mv	s0,a0
 251 000a 3285     		mv	a0,a2
 252              	.LVL22:
 253              		.loc 1 106 36
 254 000c 0346C406 		lbu	a2,108(s0)
 255              	.LVL23:
 103:C:/Users/stapi/OneDrive/Desktop/GD32VW553/V1_MQTT_OK/GD32VW55X_Wifi_BLE_SDK/GD32VW55x_RELEASE_V1.0.2/MSDK/cloud/alicloud/src/protocol/coap/local\CoAPMessage.c ****     unsigned char index = 0;
 256              		.loc 1 103 1
 257 0010 B684     		mv	s1,a3
 258 0012 1307C400 		addi	a4,s0,12
 259              		.loc 1 106 5
 260 0016 8147     		li	a5,0
 261              	.LVL24:
 262              	.L24:
 263              		.loc 1 106 21 is_stmt 1 discriminator 1
 264              		.loc 1 106 5 is_stmt 0 discriminator 1
 265 0018 93F6F70F 		andi	a3,a5,0xff
 266 001c 63E5C600 		bgtu	a2,a3,.L26
 107:C:/Users/stapi/OneDrive/Desktop/GD32VW553/V1_MQTT_OK/GD32VW55X_Wifi_BLE_SDK/GD32VW55x_RELEASE_V1.0.2/MSDK/cloud/alicloud/src/protocol/coap/local\CoAPMessage.c ****         if (message->options[index].num == optnum) {
 108:C:/Users/stapi/OneDrive/Desktop/GD32VW553/V1_MQTT_OK/GD32VW55X_Wifi_BLE_SDK/GD32VW55x_RELEASE_V1.0.2/MSDK/cloud/alicloud/src/protocol/coap/local\CoAPMessage.c ****             if (*datalen >= message->options[index].len) {
 109:C:/Users/stapi/OneDrive/Desktop/GD32VW553/V1_MQTT_OK/GD32VW55X_Wifi_BLE_SDK/GD32VW55x_RELEASE_V1.0.2/MSDK/cloud/alicloud/src/protocol/coap/local\CoAPMessage.c ****                 memcpy(data, message->options[index].val, message->options[index].len);
 110:C:/Users/stapi/OneDrive/Desktop/GD32VW553/V1_MQTT_OK/GD32VW55X_Wifi_BLE_SDK/GD32VW55x_RELEASE_V1.0.2/MSDK/cloud/alicloud/src/protocol/coap/local\CoAPMessage.c ****                 *datalen = message->options[index].len;
 111:C:/Users/stapi/OneDrive/Desktop/GD32VW553/V1_MQTT_OK/GD32VW55X_Wifi_BLE_SDK/GD32VW55x_RELEASE_V1.0.2/MSDK/cloud/alicloud/src/protocol/coap/local\CoAPMessage.c ****                 return COAP_SUCCESS;
 112:C:/Users/stapi/OneDrive/Desktop/GD32VW553/V1_MQTT_OK/GD32VW55X_Wifi_BLE_SDK/GD32VW55x_RELEASE_V1.0.2/MSDK/cloud/alicloud/src/protocol/coap/local\CoAPMessage.c ****             } else {
 113:C:/Users/stapi/OneDrive/Desktop/GD32VW553/V1_MQTT_OK/GD32VW55X_Wifi_BLE_SDK/GD32VW55x_RELEASE_V1.0.2/MSDK/cloud/alicloud/src/protocol/coap/local\CoAPMessage.c ****                 return COAP_ERROR_INVALID_LENGTH;
 114:C:/Users/stapi/OneDrive/Desktop/GD32VW553/V1_MQTT_OK/GD32VW55X_Wifi_BLE_SDK/GD32VW55x_RELEASE_V1.0.2/MSDK/cloud/alicloud/src/protocol/coap/local\CoAPMessage.c ****             }
 115:C:/Users/stapi/OneDrive/Desktop/GD32VW553/V1_MQTT_OK/GD32VW55X_Wifi_BLE_SDK/GD32VW55x_RELEASE_V1.0.2/MSDK/cloud/alicloud/src/protocol/coap/local\CoAPMessage.c ****         }
 116:C:/Users/stapi/OneDrive/Desktop/GD32VW553/V1_MQTT_OK/GD32VW55X_Wifi_BLE_SDK/GD32VW55x_RELEASE_V1.0.2/MSDK/cloud/alicloud/src/protocol/coap/local\CoAPMessage.c ****     }
 117:C:/Users/stapi/OneDrive/Desktop/GD32VW553/V1_MQTT_OK/GD32VW55X_Wifi_BLE_SDK/GD32VW55x_RELEASE_V1.0.2/MSDK/cloud/alicloud/src/protocol/coap/local\CoAPMessage.c **** 
 118:C:/Users/stapi/OneDrive/Desktop/GD32VW553/V1_MQTT_OK/GD32VW55X_Wifi_BLE_SDK/GD32VW55x_RELEASE_V1.0.2/MSDK/cloud/alicloud/src/protocol/coap/local\CoAPMessage.c ****     return COAP_ERROR_NOT_FOUND;
 267              		.loc 1 118 12
 268 0020 93077010 		li	a5,263
 269              	.LVL25:
 270 0024 25A8     		j	.L23
 271              	.LVL26:
 272              	.L26:
 107:C:/Users/stapi/OneDrive/Desktop/GD32VW553/V1_MQTT_OK/GD32VW55X_Wifi_BLE_SDK/GD32VW55x_RELEASE_V1.0.2/MSDK/cloud/alicloud/src/protocol/coap/local\CoAPMessage.c ****         if (message->options[index].num == optnum) {
 273              		.loc 1 107 9 is_stmt 1
 107:C:/Users/stapi/OneDrive/Desktop/GD32VW553/V1_MQTT_OK/GD32VW55X_Wifi_BLE_SDK/GD32VW55x_RELEASE_V1.0.2/MSDK/cloud/alicloud/src/protocol/coap/local\CoAPMessage.c ****         if (message->options[index].num == optnum) {
 274              		.loc 1 107 36 is_stmt 0
 275 0026 03580700 		lhu	a6,0(a4)
 107:C:/Users/stapi/OneDrive/Desktop/GD32VW553/V1_MQTT_OK/GD32VW55X_Wifi_BLE_SDK/GD32VW55x_RELEASE_V1.0.2/MSDK/cloud/alicloud/src/protocol/coap/local\CoAPMessage.c ****         if (message->options[index].num == optnum) {
 276              		.loc 1 107 12
 277 002a 93861700 		addi	a3,a5,1
 278 002e 2107     		addi	a4,a4,8
 279 0030 631BB802 		bne	a6,a1,.L27
 108:C:/Users/stapi/OneDrive/Desktop/GD32VW553/V1_MQTT_OK/GD32VW55X_Wifi_BLE_SDK/GD32VW55x_RELEASE_V1.0.2/MSDK/cloud/alicloud/src/protocol/coap/local\CoAPMessage.c ****                 memcpy(data, message->options[index].val, message->options[index].len);
 280              		.loc 1 108 13 is_stmt 1
 281 0034 33E48720 		sh3add	s0,a5,s0
 282              	.LVL27:
 108:C:/Users/stapi/OneDrive/Desktop/GD32VW553/V1_MQTT_OK/GD32VW55X_Wifi_BLE_SDK/GD32VW55x_RELEASE_V1.0.2/MSDK/cloud/alicloud/src/protocol/coap/local\CoAPMessage.c ****                 memcpy(data, message->options[index].val, message->options[index].len);
 283              		.loc 1 108 16 is_stmt 0
 284 0038 03D70400 		lhu	a4,0(s1)
 108:C:/Users/stapi/OneDrive/Desktop/GD32VW553/V1_MQTT_OK/GD32VW55X_Wifi_BLE_SDK/GD32VW55x_RELEASE_V1.0.2/MSDK/cloud/alicloud/src/protocol/coap/local\CoAPMessage.c ****                 memcpy(data, message->options[index].val, message->options[index].len);
 285              		.loc 1 108 52
 286 003c 0356E400 		lhu	a2,14(s0)
 113:C:/Users/stapi/OneDrive/Desktop/GD32VW553/V1_MQTT_OK/GD32VW55X_Wifi_BLE_SDK/GD32VW55x_RELEASE_V1.0.2/MSDK/cloud/alicloud/src/protocol/coap/local\CoAPMessage.c ****             }
 287              		.loc 1 113 24
 288 0040 93074010 		li	a5,260
 289              	.LVL28:
 108:C:/Users/stapi/OneDrive/Desktop/GD32VW553/V1_MQTT_OK/GD32VW55X_Wifi_BLE_SDK/GD32VW55x_RELEASE_V1.0.2/MSDK/cloud/alicloud/src/protocol/coap/local\CoAPMessage.c ****                 memcpy(data, message->options[index].val, message->options[index].len);
 290              		.loc 1 108 16
 291 0044 636CC700 		bltu	a4,a2,.L23
 109:C:/Users/stapi/OneDrive/Desktop/GD32VW553/V1_MQTT_OK/GD32VW55X_Wifi_BLE_SDK/GD32VW55x_RELEASE_V1.0.2/MSDK/cloud/alicloud/src/protocol/coap/local\CoAPMessage.c ****                 *datalen = message->options[index].len;
 292              		.loc 1 109 17 is_stmt 1
 293 0048 0C48     		lw	a1,16(s0)
 294              	.LVL29:
 295 004a 97000000 		call	memcpy
 295      E7800000 
 296              	.LVL30:
 110:C:/Users/stapi/OneDrive/Desktop/GD32VW553/V1_MQTT_OK/GD32VW55X_Wifi_BLE_SDK/GD32VW55x_RELEASE_V1.0.2/MSDK/cloud/alicloud/src/protocol/coap/local\CoAPMessage.c ****                 return COAP_SUCCESS;
 297              		.loc 1 110 17
 110:C:/Users/stapi/OneDrive/Desktop/GD32VW553/V1_MQTT_OK/GD32VW55X_Wifi_BLE_SDK/GD32VW55x_RELEASE_V1.0.2/MSDK/cloud/alicloud/src/protocol/coap/local\CoAPMessage.c ****                 return COAP_SUCCESS;
 298              		.loc 1 110 51 is_stmt 0
 299 0052 8357E400 		lhu	a5,14(s0)
 110:C:/Users/stapi/OneDrive/Desktop/GD32VW553/V1_MQTT_OK/GD32VW55X_Wifi_BLE_SDK/GD32VW55x_RELEASE_V1.0.2/MSDK/cloud/alicloud/src/protocol/coap/local\CoAPMessage.c ****                 return COAP_SUCCESS;
 300              		.loc 1 110 26
 301 0056 2390F400 		sh	a5,0(s1)
 111:C:/Users/stapi/OneDrive/Desktop/GD32VW553/V1_MQTT_OK/GD32VW55X_Wifi_BLE_SDK/GD32VW55x_RELEASE_V1.0.2/MSDK/cloud/alicloud/src/protocol/coap/local\CoAPMessage.c ****             } else {
 302              		.loc 1 111 17 is_stmt 1
 111:C:/Users/stapi/OneDrive/Desktop/GD32VW553/V1_MQTT_OK/GD32VW55X_Wifi_BLE_SDK/GD32VW55x_RELEASE_V1.0.2/MSDK/cloud/alicloud/src/protocol/coap/local\CoAPMessage.c ****             } else {
 303              		.loc 1 111 24 is_stmt 0
 304 005a 8147     		li	a5,0
 305              	.L23:
 119:C:/Users/stapi/OneDrive/Desktop/GD32VW553/V1_MQTT_OK/GD32VW55X_Wifi_BLE_SDK/GD32VW55x_RELEASE_V1.0.2/MSDK/cloud/alicloud/src/protocol/coap/local\CoAPMessage.c **** 
 120:C:/Users/stapi/OneDrive/Desktop/GD32VW553/V1_MQTT_OK/GD32VW55X_Wifi_BLE_SDK/GD32VW55x_RELEASE_V1.0.2/MSDK/cloud/alicloud/src/protocol/coap/local\CoAPMessage.c **** }
 306              		.loc 1 120 1
 307 005c 3E85     		mv	a0,a5
 308 005e 17030000 		tail	__riscv_restore_2
 308      67000300 
 309              		.cfi_remember_state
 310              		.cfi_restore 9
 311              		.cfi_restore 8
 312              		.cfi_restore 1
 313              		.cfi_def_cfa_offset 0
 314              	.LVL31:
 315              	.L27:
 316              		.cfi_restore_state
 317 0066 B687     		mv	a5,a3
 318              	.LVL32:
 319 0068 45BF     		j	.L24
 320              		.cfi_endproc
 321              	.LFE22:
 323              		.section	.text.CoAPUintOption_add,"ax",@progbits
 324              		.align	1
 325              		.globl	CoAPUintOption_add
 327              	CoAPUintOption_add:
 328              	.LFB23:
 121:C:/Users/stapi/OneDrive/Desktop/GD32VW553/V1_MQTT_OK/GD32VW55X_Wifi_BLE_SDK/GD32VW55x_RELEASE_V1.0.2/MSDK/cloud/alicloud/src/protocol/coap/local\CoAPMessage.c **** 
 122:C:/Users/stapi/OneDrive/Desktop/GD32VW553/V1_MQTT_OK/GD32VW55X_Wifi_BLE_SDK/GD32VW55x_RELEASE_V1.0.2/MSDK/cloud/alicloud/src/protocol/coap/local\CoAPMessage.c **** 
 123:C:/Users/stapi/OneDrive/Desktop/GD32VW553/V1_MQTT_OK/GD32VW55X_Wifi_BLE_SDK/GD32VW55x_RELEASE_V1.0.2/MSDK/cloud/alicloud/src/protocol/coap/local\CoAPMessage.c **** int CoAPUintOption_add(CoAPMessage *message, unsigned short  optnum, unsigned int data)
 124:C:/Users/stapi/OneDrive/Desktop/GD32VW553/V1_MQTT_OK/GD32VW55X_Wifi_BLE_SDK/GD32VW55x_RELEASE_V1.0.2/MSDK/cloud/alicloud/src/protocol/coap/local\CoAPMessage.c **** {
 329              		.loc 1 124 1 is_stmt 1
 330              		.cfi_startproc
 331              	.LVL33:
 332 0000 17030000 		call	t0,__riscv_save_0
 332      E7020300 
 333              		.cfi_offset 1, -4
 334              		.cfi_def_cfa_offset 16
 125:C:/Users/stapi/OneDrive/Desktop/GD32VW553/V1_MQTT_OK/GD32VW55X_Wifi_BLE_SDK/GD32VW55x_RELEASE_V1.0.2/MSDK/cloud/alicloud/src/protocol/coap/local\CoAPMessage.c ****     unsigned char buf[4];
 335              		.loc 1 125 5
 126:C:/Users/stapi/OneDrive/Desktop/GD32VW553/V1_MQTT_OK/GD32VW55X_Wifi_BLE_SDK/GD32VW55x_RELEASE_V1.0.2/MSDK/cloud/alicloud/src/protocol/coap/local\CoAPMessage.c ****     unsigned short datalen = 0;
 336              		.loc 1 126 5
 337              	.LVL34:
 127:C:/Users/stapi/OneDrive/Desktop/GD32VW553/V1_MQTT_OK/GD32VW55X_Wifi_BLE_SDK/GD32VW55x_RELEASE_V1.0.2/MSDK/cloud/alicloud/src/protocol/coap/local\CoAPMessage.c **** 
 128:C:/Users/stapi/OneDrive/Desktop/GD32VW553/V1_MQTT_OK/GD32VW55X_Wifi_BLE_SDK/GD32VW55x_RELEASE_V1.0.2/MSDK/cloud/alicloud/src/protocol/coap/local\CoAPMessage.c ****     if (data & 0xFFFF0000) {
 338              		.loc 1 128 5
 339              		.loc 1 128 14 is_stmt 0
 340 0008 C177     		li	a5,-65536
 341 000a F18F     		and	a5,a2,a5
 124:C:/Users/stapi/OneDrive/Desktop/GD32VW553/V1_MQTT_OK/GD32VW55X_Wifi_BLE_SDK/GD32VW55x_RELEASE_V1.0.2/MSDK/cloud/alicloud/src/protocol/coap/local\CoAPMessage.c ****     unsigned char buf[4];
 342              		.loc 1 124 1
 343 000c 4111     		addi	sp,sp,-16
 344              		.cfi_def_cfa_offset 32
 345              		.loc 1 128 8
 346 000e 99CF     		beq	a5,zero,.L31
 129:C:/Users/stapi/OneDrive/Desktop/GD32VW553/V1_MQTT_OK/GD32VW55X_Wifi_BLE_SDK/GD32VW55x_RELEASE_V1.0.2/MSDK/cloud/alicloud/src/protocol/coap/local\CoAPMessage.c ****         datalen = 4;
 347              		.loc 1 129 9 is_stmt 1
 348              	.LVL35:
 130:C:/Users/stapi/OneDrive/Desktop/GD32VW553/V1_MQTT_OK/GD32VW55X_Wifi_BLE_SDK/GD32VW55x_RELEASE_V1.0.2/MSDK/cloud/alicloud/src/protocol/coap/local\CoAPMessage.c ****         buf[0] = (unsigned char)((data & 0xFF000000) >> 24);
 349              		.loc 1 130 9
 131:C:/Users/stapi/OneDrive/Desktop/GD32VW553/V1_MQTT_OK/GD32VW55X_Wifi_BLE_SDK/GD32VW55x_RELEASE_V1.0.2/MSDK/cloud/alicloud/src/protocol/coap/local\CoAPMessage.c ****         buf[1] = (unsigned char)((data & 0x00FF0000) >> 16);
 350              		.loc 1 131 9
 132:C:/Users/stapi/OneDrive/Desktop/GD32VW553/V1_MQTT_OK/GD32VW55X_Wifi_BLE_SDK/GD32VW55x_RELEASE_V1.0.2/MSDK/cloud/alicloud/src/protocol/coap/local\CoAPMessage.c ****         buf[2] = (unsigned char)((data & 0x0000FF00) >> 8);
 351              		.loc 1 132 9
 133:C:/Users/stapi/OneDrive/Desktop/GD32VW553/V1_MQTT_OK/GD32VW55X_Wifi_BLE_SDK/GD32VW55x_RELEASE_V1.0.2/MSDK/cloud/alicloud/src/protocol/coap/local\CoAPMessage.c ****         buf[3] = (unsigned char)(data & 0x000000FF);
 352              		.loc 1 133 9
 353 0010 13568669 		rev8	a2,a2
 354              	.LVL36:
 129:C:/Users/stapi/OneDrive/Desktop/GD32VW553/V1_MQTT_OK/GD32VW55X_Wifi_BLE_SDK/GD32VW55x_RELEASE_V1.0.2/MSDK/cloud/alicloud/src/protocol/coap/local\CoAPMessage.c ****         buf[0] = (unsigned char)((data & 0xFF000000) >> 24);
 355              		.loc 1 129 17 is_stmt 0
 356 0014 9146     		li	a3,4
 130:C:/Users/stapi/OneDrive/Desktop/GD32VW553/V1_MQTT_OK/GD32VW55X_Wifi_BLE_SDK/GD32VW55x_RELEASE_V1.0.2/MSDK/cloud/alicloud/src/protocol/coap/local\CoAPMessage.c ****         buf[1] = (unsigned char)((data & 0x00FF0000) >> 16);
 357              		.loc 1 130 16
 358 0016 32C6     		sw	a2,12(sp)
 359              	.LVL37:
 360              	.L32:
 134:C:/Users/stapi/OneDrive/Desktop/GD32VW553/V1_MQTT_OK/GD32VW55X_Wifi_BLE_SDK/GD32VW55x_RELEASE_V1.0.2/MSDK/cloud/alicloud/src/protocol/coap/local\CoAPMessage.c ****     } else if (data & 0x0000FF00) {
 135:C:/Users/stapi/OneDrive/Desktop/GD32VW553/V1_MQTT_OK/GD32VW55X_Wifi_BLE_SDK/GD32VW55x_RELEASE_V1.0.2/MSDK/cloud/alicloud/src/protocol/coap/local\CoAPMessage.c ****         datalen = 2;
 136:C:/Users/stapi/OneDrive/Desktop/GD32VW553/V1_MQTT_OK/GD32VW55X_Wifi_BLE_SDK/GD32VW55x_RELEASE_V1.0.2/MSDK/cloud/alicloud/src/protocol/coap/local\CoAPMessage.c ****         buf[0] = (unsigned char)((data & 0xFF00) >> 8);
 137:C:/Users/stapi/OneDrive/Desktop/GD32VW553/V1_MQTT_OK/GD32VW55X_Wifi_BLE_SDK/GD32VW55x_RELEASE_V1.0.2/MSDK/cloud/alicloud/src/protocol/coap/local\CoAPMessage.c ****         buf[1] = (unsigned char)(data & 0x00FF);
 138:C:/Users/stapi/OneDrive/Desktop/GD32VW553/V1_MQTT_OK/GD32VW55X_Wifi_BLE_SDK/GD32VW55x_RELEASE_V1.0.2/MSDK/cloud/alicloud/src/protocol/coap/local\CoAPMessage.c ****     } else if (data) {
 139:C:/Users/stapi/OneDrive/Desktop/GD32VW553/V1_MQTT_OK/GD32VW55X_Wifi_BLE_SDK/GD32VW55x_RELEASE_V1.0.2/MSDK/cloud/alicloud/src/protocol/coap/local\CoAPMessage.c ****         data = 1;
 140:C:/Users/stapi/OneDrive/Desktop/GD32VW553/V1_MQTT_OK/GD32VW55X_Wifi_BLE_SDK/GD32VW55x_RELEASE_V1.0.2/MSDK/cloud/alicloud/src/protocol/coap/local\CoAPMessage.c ****         buf[0] = (unsigned char)data;
 141:C:/Users/stapi/OneDrive/Desktop/GD32VW553/V1_MQTT_OK/GD32VW55X_Wifi_BLE_SDK/GD32VW55x_RELEASE_V1.0.2/MSDK/cloud/alicloud/src/protocol/coap/local\CoAPMessage.c ****     }
 142:C:/Users/stapi/OneDrive/Desktop/GD32VW553/V1_MQTT_OK/GD32VW55X_Wifi_BLE_SDK/GD32VW55x_RELEASE_V1.0.2/MSDK/cloud/alicloud/src/protocol/coap/local\CoAPMessage.c **** 
 143:C:/Users/stapi/OneDrive/Desktop/GD32VW553/V1_MQTT_OK/GD32VW55X_Wifi_BLE_SDK/GD32VW55x_RELEASE_V1.0.2/MSDK/cloud/alicloud/src/protocol/coap/local\CoAPMessage.c ****     return CoAPStrOption_add (message, optnum, buf, datalen);
 361              		.loc 1 143 5 is_stmt 1
 362              		.loc 1 143 12 is_stmt 0
 363 0018 7000     		addi	a2,sp,12
 364 001a 97000000 		call	CoAPStrOption_add
 364      E7800000 
 365              	.LVL38:
 144:C:/Users/stapi/OneDrive/Desktop/GD32VW553/V1_MQTT_OK/GD32VW55X_Wifi_BLE_SDK/GD32VW55x_RELEASE_V1.0.2/MSDK/cloud/alicloud/src/protocol/coap/local\CoAPMessage.c **** }
 366              		.loc 1 144 1
 367 0022 4101     		addi	sp,sp,16
 368              		.cfi_remember_state
 369              		.cfi_def_cfa_offset 0
 370 0024 17030000 		tail	__riscv_restore_0
 370      67000300 
 371              		.cfi_restore 1
 372              		.cfi_def_cfa_offset -16
 373              	.LVL39:
 374              	.L31:
 375              		.cfi_restore_state
 134:C:/Users/stapi/OneDrive/Desktop/GD32VW553/V1_MQTT_OK/GD32VW55X_Wifi_BLE_SDK/GD32VW55x_RELEASE_V1.0.2/MSDK/cloud/alicloud/src/protocol/coap/local\CoAPMessage.c ****     } else if (data & 0x0000FF00) {
 376              		.loc 1 134 12 is_stmt 1
 134:C:/Users/stapi/OneDrive/Desktop/GD32VW553/V1_MQTT_OK/GD32VW55X_Wifi_BLE_SDK/GD32VW55x_RELEASE_V1.0.2/MSDK/cloud/alicloud/src/protocol/coap/local\CoAPMessage.c ****     } else if (data & 0x0000FF00) {
 377              		.loc 1 134 21 is_stmt 0
 378 002c C167     		li	a5,65536
 379 002e 938707F0 		addi	a5,a5,-256
 380 0032 F18F     		and	a5,a2,a5
 134:C:/Users/stapi/OneDrive/Desktop/GD32VW553/V1_MQTT_OK/GD32VW55X_Wifi_BLE_SDK/GD32VW55x_RELEASE_V1.0.2/MSDK/cloud/alicloud/src/protocol/coap/local\CoAPMessage.c ****     } else if (data & 0x0000FF00) {
 381              		.loc 1 134 15
 382 0034 99CB     		beq	a5,zero,.L33
 135:C:/Users/stapi/OneDrive/Desktop/GD32VW553/V1_MQTT_OK/GD32VW55X_Wifi_BLE_SDK/GD32VW55x_RELEASE_V1.0.2/MSDK/cloud/alicloud/src/protocol/coap/local\CoAPMessage.c ****         buf[0] = (unsigned char)((data & 0xFF00) >> 8);
 383              		.loc 1 135 9 is_stmt 1
 384              	.LVL40:
 136:C:/Users/stapi/OneDrive/Desktop/GD32VW553/V1_MQTT_OK/GD32VW55X_Wifi_BLE_SDK/GD32VW55x_RELEASE_V1.0.2/MSDK/cloud/alicloud/src/protocol/coap/local\CoAPMessage.c ****         buf[1] = (unsigned char)(data & 0x00FF);
 385              		.loc 1 136 9
 137:C:/Users/stapi/OneDrive/Desktop/GD32VW553/V1_MQTT_OK/GD32VW55X_Wifi_BLE_SDK/GD32VW55x_RELEASE_V1.0.2/MSDK/cloud/alicloud/src/protocol/coap/local\CoAPMessage.c ****     } else if (data) {
 386              		.loc 1 137 9
 136:C:/Users/stapi/OneDrive/Desktop/GD32VW553/V1_MQTT_OK/GD32VW55X_Wifi_BLE_SDK/GD32VW55x_RELEASE_V1.0.2/MSDK/cloud/alicloud/src/protocol/coap/local\CoAPMessage.c ****         buf[1] = (unsigned char)(data & 0x00FF);
 387              		.loc 1 136 16 is_stmt 0
 388 0036 93178600 		slli	a5,a2,8
 389 003a 33460608 		zext.h	a2,a2
 390              	.LVL41:
 391 003e 2182     		srli	a2,a2,8
 392 0040 5D8E     		or	a2,a5,a2
 393 0042 2316C100 		sh	a2,12(sp)
 135:C:/Users/stapi/OneDrive/Desktop/GD32VW553/V1_MQTT_OK/GD32VW55X_Wifi_BLE_SDK/GD32VW55x_RELEASE_V1.0.2/MSDK/cloud/alicloud/src/protocol/coap/local\CoAPMessage.c ****         buf[0] = (unsigned char)((data & 0xFF00) >> 8);
 394              		.loc 1 135 17
 395 0046 8946     		li	a3,2
 396 0048 C1BF     		j	.L32
 397              	.LVL42:
 398              	.L33:
 138:C:/Users/stapi/OneDrive/Desktop/GD32VW553/V1_MQTT_OK/GD32VW55X_Wifi_BLE_SDK/GD32VW55x_RELEASE_V1.0.2/MSDK/cloud/alicloud/src/protocol/coap/local\CoAPMessage.c ****         data = 1;
 399              		.loc 1 138 12 is_stmt 1
 126:C:/Users/stapi/OneDrive/Desktop/GD32VW553/V1_MQTT_OK/GD32VW55X_Wifi_BLE_SDK/GD32VW55x_RELEASE_V1.0.2/MSDK/cloud/alicloud/src/protocol/coap/local\CoAPMessage.c **** 
 400              		.loc 1 126 20 is_stmt 0
 401 004a 8146     		li	a3,0
 138:C:/Users/stapi/OneDrive/Desktop/GD32VW553/V1_MQTT_OK/GD32VW55X_Wifi_BLE_SDK/GD32VW55x_RELEASE_V1.0.2/MSDK/cloud/alicloud/src/protocol/coap/local\CoAPMessage.c ****         data = 1;
 402              		.loc 1 138 15
 403 004c 71D6     		beq	a2,zero,.L32
 139:C:/Users/stapi/OneDrive/Desktop/GD32VW553/V1_MQTT_OK/GD32VW55X_Wifi_BLE_SDK/GD32VW55x_RELEASE_V1.0.2/MSDK/cloud/alicloud/src/protocol/coap/local\CoAPMessage.c ****         buf[0] = (unsigned char)data;
 404              		.loc 1 139 9 is_stmt 1
 405              	.LVL43:
 140:C:/Users/stapi/OneDrive/Desktop/GD32VW553/V1_MQTT_OK/GD32VW55X_Wifi_BLE_SDK/GD32VW55x_RELEASE_V1.0.2/MSDK/cloud/alicloud/src/protocol/coap/local\CoAPMessage.c ****     }
 406              		.loc 1 140 9
 140:C:/Users/stapi/OneDrive/Desktop/GD32VW553/V1_MQTT_OK/GD32VW55X_Wifi_BLE_SDK/GD32VW55x_RELEASE_V1.0.2/MSDK/cloud/alicloud/src/protocol/coap/local\CoAPMessage.c ****     }
 407              		.loc 1 140 16 is_stmt 0
 408 004e 8547     		li	a5,1
 409 0050 2306F100 		sb	a5,12(sp)
 410 0054 D1B7     		j	.L32
 411              		.cfi_endproc
 412              	.LFE23:
 414              		.section	.text.CoAPUintOption_get,"ax",@progbits
 415              		.align	1
 416              		.globl	CoAPUintOption_get
 418              	CoAPUintOption_get:
 419              	.LFB24:
 145:C:/Users/stapi/OneDrive/Desktop/GD32VW553/V1_MQTT_OK/GD32VW55X_Wifi_BLE_SDK/GD32VW55x_RELEASE_V1.0.2/MSDK/cloud/alicloud/src/protocol/coap/local\CoAPMessage.c **** 
 146:C:/Users/stapi/OneDrive/Desktop/GD32VW553/V1_MQTT_OK/GD32VW55X_Wifi_BLE_SDK/GD32VW55x_RELEASE_V1.0.2/MSDK/cloud/alicloud/src/protocol/coap/local\CoAPMessage.c **** int CoAPUintOption_get(CoAPMessage *message,
 147:C:/Users/stapi/OneDrive/Desktop/GD32VW553/V1_MQTT_OK/GD32VW55X_Wifi_BLE_SDK/GD32VW55x_RELEASE_V1.0.2/MSDK/cloud/alicloud/src/protocol/coap/local\CoAPMessage.c ****                        unsigned short  optnum,
 148:C:/Users/stapi/OneDrive/Desktop/GD32VW553/V1_MQTT_OK/GD32VW55X_Wifi_BLE_SDK/GD32VW55x_RELEASE_V1.0.2/MSDK/cloud/alicloud/src/protocol/coap/local\CoAPMessage.c ****                        unsigned int *data)
 149:C:/Users/stapi/OneDrive/Desktop/GD32VW553/V1_MQTT_OK/GD32VW55X_Wifi_BLE_SDK/GD32VW55x_RELEASE_V1.0.2/MSDK/cloud/alicloud/src/protocol/coap/local\CoAPMessage.c **** {
 420              		.loc 1 149 1 is_stmt 1
 421              		.cfi_startproc
 422              	.LVL44:
 150:C:/Users/stapi/OneDrive/Desktop/GD32VW553/V1_MQTT_OK/GD32VW55X_Wifi_BLE_SDK/GD32VW55x_RELEASE_V1.0.2/MSDK/cloud/alicloud/src/protocol/coap/local\CoAPMessage.c **** 
 151:C:/Users/stapi/OneDrive/Desktop/GD32VW553/V1_MQTT_OK/GD32VW55X_Wifi_BLE_SDK/GD32VW55x_RELEASE_V1.0.2/MSDK/cloud/alicloud/src/protocol/coap/local\CoAPMessage.c ****     unsigned char index = 0;
 423              		.loc 1 151 5
 152:C:/Users/stapi/OneDrive/Desktop/GD32VW553/V1_MQTT_OK/GD32VW55X_Wifi_BLE_SDK/GD32VW55x_RELEASE_V1.0.2/MSDK/cloud/alicloud/src/protocol/coap/local\CoAPMessage.c **** 
 153:C:/Users/stapi/OneDrive/Desktop/GD32VW553/V1_MQTT_OK/GD32VW55X_Wifi_BLE_SDK/GD32VW55x_RELEASE_V1.0.2/MSDK/cloud/alicloud/src/protocol/coap/local\CoAPMessage.c ****     for (index = 0; index < message->optcount; index++) {
 424              		.loc 1 153 5
 425              		.loc 1 153 36 is_stmt 0
 426 0000 8346C506 		lbu	a3,108(a0)
 427 0004 1307C500 		addi	a4,a0,12
 428              		.loc 1 153 5
 429 0008 8147     		li	a5,0
 430              	.LVL45:
 431              	.L38:
 432              		.loc 1 153 21 is_stmt 1 discriminator 1
 433              		.loc 1 153 5 is_stmt 0 discriminator 1
 434 000a 13F8F70F 		andi	a6,a5,0xff
 435 000e 6365D800 		bltu	a6,a3,.L46
 154:C:/Users/stapi/OneDrive/Desktop/GD32VW553/V1_MQTT_OK/GD32VW55X_Wifi_BLE_SDK/GD32VW55x_RELEASE_V1.0.2/MSDK/cloud/alicloud/src/protocol/coap/local\CoAPMessage.c ****         if (message->options[index].num == optnum) {
 155:C:/Users/stapi/OneDrive/Desktop/GD32VW553/V1_MQTT_OK/GD32VW55X_Wifi_BLE_SDK/GD32VW55x_RELEASE_V1.0.2/MSDK/cloud/alicloud/src/protocol/coap/local\CoAPMessage.c ****             int byte = 0;
 156:C:/Users/stapi/OneDrive/Desktop/GD32VW553/V1_MQTT_OK/GD32VW55X_Wifi_BLE_SDK/GD32VW55x_RELEASE_V1.0.2/MSDK/cloud/alicloud/src/protocol/coap/local\CoAPMessage.c ****             switch (message->options[index].len) {
 157:C:/Users/stapi/OneDrive/Desktop/GD32VW553/V1_MQTT_OK/GD32VW55X_Wifi_BLE_SDK/GD32VW55x_RELEASE_V1.0.2/MSDK/cloud/alicloud/src/protocol/coap/local\CoAPMessage.c ****                 case 1:
 158:C:/Users/stapi/OneDrive/Desktop/GD32VW553/V1_MQTT_OK/GD32VW55X_Wifi_BLE_SDK/GD32VW55x_RELEASE_V1.0.2/MSDK/cloud/alicloud/src/protocol/coap/local\CoAPMessage.c ****                     *data |= message->options[index].val[byte++];
 159:C:/Users/stapi/OneDrive/Desktop/GD32VW553/V1_MQTT_OK/GD32VW55X_Wifi_BLE_SDK/GD32VW55x_RELEASE_V1.0.2/MSDK/cloud/alicloud/src/protocol/coap/local\CoAPMessage.c ****                     break;
 160:C:/Users/stapi/OneDrive/Desktop/GD32VW553/V1_MQTT_OK/GD32VW55X_Wifi_BLE_SDK/GD32VW55x_RELEASE_V1.0.2/MSDK/cloud/alicloud/src/protocol/coap/local\CoAPMessage.c ****                 case 2:
 161:C:/Users/stapi/OneDrive/Desktop/GD32VW553/V1_MQTT_OK/GD32VW55X_Wifi_BLE_SDK/GD32VW55x_RELEASE_V1.0.2/MSDK/cloud/alicloud/src/protocol/coap/local\CoAPMessage.c ****                     *data |= (message->options[index].val[byte++] << 8);
 162:C:/Users/stapi/OneDrive/Desktop/GD32VW553/V1_MQTT_OK/GD32VW55X_Wifi_BLE_SDK/GD32VW55x_RELEASE_V1.0.2/MSDK/cloud/alicloud/src/protocol/coap/local\CoAPMessage.c ****                     *data |= message->options[index].val[byte++];
 163:C:/Users/stapi/OneDrive/Desktop/GD32VW553/V1_MQTT_OK/GD32VW55X_Wifi_BLE_SDK/GD32VW55x_RELEASE_V1.0.2/MSDK/cloud/alicloud/src/protocol/coap/local\CoAPMessage.c ****                     break;
 164:C:/Users/stapi/OneDrive/Desktop/GD32VW553/V1_MQTT_OK/GD32VW55X_Wifi_BLE_SDK/GD32VW55x_RELEASE_V1.0.2/MSDK/cloud/alicloud/src/protocol/coap/local\CoAPMessage.c ****                 case 3:
 165:C:/Users/stapi/OneDrive/Desktop/GD32VW553/V1_MQTT_OK/GD32VW55X_Wifi_BLE_SDK/GD32VW55x_RELEASE_V1.0.2/MSDK/cloud/alicloud/src/protocol/coap/local\CoAPMessage.c ****                     *data |= (message->options[index].val[byte++] << 16);
 166:C:/Users/stapi/OneDrive/Desktop/GD32VW553/V1_MQTT_OK/GD32VW55X_Wifi_BLE_SDK/GD32VW55x_RELEASE_V1.0.2/MSDK/cloud/alicloud/src/protocol/coap/local\CoAPMessage.c ****                     *data |= (message->options[index].val[byte++] << 8);
 167:C:/Users/stapi/OneDrive/Desktop/GD32VW553/V1_MQTT_OK/GD32VW55X_Wifi_BLE_SDK/GD32VW55x_RELEASE_V1.0.2/MSDK/cloud/alicloud/src/protocol/coap/local\CoAPMessage.c ****                     *data |= message->options[index].val[byte++];
 168:C:/Users/stapi/OneDrive/Desktop/GD32VW553/V1_MQTT_OK/GD32VW55X_Wifi_BLE_SDK/GD32VW55x_RELEASE_V1.0.2/MSDK/cloud/alicloud/src/protocol/coap/local\CoAPMessage.c ****                     break;
 169:C:/Users/stapi/OneDrive/Desktop/GD32VW553/V1_MQTT_OK/GD32VW55X_Wifi_BLE_SDK/GD32VW55x_RELEASE_V1.0.2/MSDK/cloud/alicloud/src/protocol/coap/local\CoAPMessage.c ****                 case 4:
 170:C:/Users/stapi/OneDrive/Desktop/GD32VW553/V1_MQTT_OK/GD32VW55X_Wifi_BLE_SDK/GD32VW55x_RELEASE_V1.0.2/MSDK/cloud/alicloud/src/protocol/coap/local\CoAPMessage.c ****                     *data |= (message->options[index].val[byte++] << 24);
 171:C:/Users/stapi/OneDrive/Desktop/GD32VW553/V1_MQTT_OK/GD32VW55X_Wifi_BLE_SDK/GD32VW55x_RELEASE_V1.0.2/MSDK/cloud/alicloud/src/protocol/coap/local\CoAPMessage.c ****                     *data |= (message->options[index].val[byte++] << 16);
 172:C:/Users/stapi/OneDrive/Desktop/GD32VW553/V1_MQTT_OK/GD32VW55X_Wifi_BLE_SDK/GD32VW55x_RELEASE_V1.0.2/MSDK/cloud/alicloud/src/protocol/coap/local\CoAPMessage.c ****                     *data |= (message->options[index].val[byte++] << 8);
 173:C:/Users/stapi/OneDrive/Desktop/GD32VW553/V1_MQTT_OK/GD32VW55X_Wifi_BLE_SDK/GD32VW55x_RELEASE_V1.0.2/MSDK/cloud/alicloud/src/protocol/coap/local\CoAPMessage.c ****                     *data |= message->options[index].val[byte++];
 174:C:/Users/stapi/OneDrive/Desktop/GD32VW553/V1_MQTT_OK/GD32VW55X_Wifi_BLE_SDK/GD32VW55x_RELEASE_V1.0.2/MSDK/cloud/alicloud/src/protocol/coap/local\CoAPMessage.c ****                     break;
 175:C:/Users/stapi/OneDrive/Desktop/GD32VW553/V1_MQTT_OK/GD32VW55X_Wifi_BLE_SDK/GD32VW55x_RELEASE_V1.0.2/MSDK/cloud/alicloud/src/protocol/coap/local\CoAPMessage.c ****                 default:
 176:C:/Users/stapi/OneDrive/Desktop/GD32VW553/V1_MQTT_OK/GD32VW55X_Wifi_BLE_SDK/GD32VW55x_RELEASE_V1.0.2/MSDK/cloud/alicloud/src/protocol/coap/local\CoAPMessage.c ****                     *data = 0;
 177:C:/Users/stapi/OneDrive/Desktop/GD32VW553/V1_MQTT_OK/GD32VW55X_Wifi_BLE_SDK/GD32VW55x_RELEASE_V1.0.2/MSDK/cloud/alicloud/src/protocol/coap/local\CoAPMessage.c ****                     break;
 178:C:/Users/stapi/OneDrive/Desktop/GD32VW553/V1_MQTT_OK/GD32VW55X_Wifi_BLE_SDK/GD32VW55x_RELEASE_V1.0.2/MSDK/cloud/alicloud/src/protocol/coap/local\CoAPMessage.c ****             }
 179:C:/Users/stapi/OneDrive/Desktop/GD32VW553/V1_MQTT_OK/GD32VW55X_Wifi_BLE_SDK/GD32VW55x_RELEASE_V1.0.2/MSDK/cloud/alicloud/src/protocol/coap/local\CoAPMessage.c ****             return COAP_SUCCESS;
 180:C:/Users/stapi/OneDrive/Desktop/GD32VW553/V1_MQTT_OK/GD32VW55X_Wifi_BLE_SDK/GD32VW55x_RELEASE_V1.0.2/MSDK/cloud/alicloud/src/protocol/coap/local\CoAPMessage.c ****         }
 181:C:/Users/stapi/OneDrive/Desktop/GD32VW553/V1_MQTT_OK/GD32VW55X_Wifi_BLE_SDK/GD32VW55x_RELEASE_V1.0.2/MSDK/cloud/alicloud/src/protocol/coap/local\CoAPMessage.c ****     }
 182:C:/Users/stapi/OneDrive/Desktop/GD32VW553/V1_MQTT_OK/GD32VW55X_Wifi_BLE_SDK/GD32VW55x_RELEASE_V1.0.2/MSDK/cloud/alicloud/src/protocol/coap/local\CoAPMessage.c **** 
 183:C:/Users/stapi/OneDrive/Desktop/GD32VW553/V1_MQTT_OK/GD32VW55X_Wifi_BLE_SDK/GD32VW55x_RELEASE_V1.0.2/MSDK/cloud/alicloud/src/protocol/coap/local\CoAPMessage.c ****     return COAP_ERROR_NOT_FOUND;
 436              		.loc 1 183 12
 437 0012 13057010 		li	a0,263
 438              	.LVL46:
 184:C:/Users/stapi/OneDrive/Desktop/GD32VW553/V1_MQTT_OK/GD32VW55X_Wifi_BLE_SDK/GD32VW55x_RELEASE_V1.0.2/MSDK/cloud/alicloud/src/protocol/coap/local\CoAPMessage.c **** }
 439              		.loc 1 184 1
 440 0016 8280     		ret
 441              	.LVL47:
 442              	.L46:
 154:C:/Users/stapi/OneDrive/Desktop/GD32VW553/V1_MQTT_OK/GD32VW55X_Wifi_BLE_SDK/GD32VW55x_RELEASE_V1.0.2/MSDK/cloud/alicloud/src/protocol/coap/local\CoAPMessage.c ****         if (message->options[index].num == optnum) {
 443              		.loc 1 154 9 is_stmt 1
 154:C:/Users/stapi/OneDrive/Desktop/GD32VW553/V1_MQTT_OK/GD32VW55X_Wifi_BLE_SDK/GD32VW55x_RELEASE_V1.0.2/MSDK/cloud/alicloud/src/protocol/coap/local\CoAPMessage.c ****         if (message->options[index].num == optnum) {
 444              		.loc 1 154 36 is_stmt 0
 445 0018 83580700 		lhu	a7,0(a4)
 154:C:/Users/stapi/OneDrive/Desktop/GD32VW553/V1_MQTT_OK/GD32VW55X_Wifi_BLE_SDK/GD32VW55x_RELEASE_V1.0.2/MSDK/cloud/alicloud/src/protocol/coap/local\CoAPMessage.c ****         if (message->options[index].num == optnum) {
 446              		.loc 1 154 12
 447 001c 13881700 		addi	a6,a5,1
 448 0020 2107     		addi	a4,a4,8
 449 0022 639CB808 		bne	a7,a1,.L47
 450              	.LBB49:
 155:C:/Users/stapi/OneDrive/Desktop/GD32VW553/V1_MQTT_OK/GD32VW55X_Wifi_BLE_SDK/GD32VW55x_RELEASE_V1.0.2/MSDK/cloud/alicloud/src/protocol/coap/local\CoAPMessage.c ****             switch (message->options[index].len) {
 451              		.loc 1 155 13 is_stmt 1
 452              	.LVL48:
 156:C:/Users/stapi/OneDrive/Desktop/GD32VW553/V1_MQTT_OK/GD32VW55X_Wifi_BLE_SDK/GD32VW55x_RELEASE_V1.0.2/MSDK/cloud/alicloud/src/protocol/coap/local\CoAPMessage.c ****                 case 1:
 453              		.loc 1 156 13
 454 0026 33E5A720 		sh3add	a0,a5,a0
 455              	.LVL49:
 156:C:/Users/stapi/OneDrive/Desktop/GD32VW553/V1_MQTT_OK/GD32VW55X_Wifi_BLE_SDK/GD32VW55x_RELEASE_V1.0.2/MSDK/cloud/alicloud/src/protocol/coap/local\CoAPMessage.c ****                 case 1:
 456              		.loc 1 156 44 is_stmt 0
 457 002a 8357E500 		lhu	a5,14(a0)
 458              	.LVL50:
 156:C:/Users/stapi/OneDrive/Desktop/GD32VW553/V1_MQTT_OK/GD32VW55X_Wifi_BLE_SDK/GD32VW55x_RELEASE_V1.0.2/MSDK/cloud/alicloud/src/protocol/coap/local\CoAPMessage.c ****                 case 1:
 459              		.loc 1 156 13
 460 002e 0D47     		li	a4,3
 461 0030 6386E706 		beq	a5,a4,.L39
 462 0034 636BF700 		bgtu	a5,a4,.L40
 463 0038 0547     		li	a4,1
 464 003a 638FE702 		beq	a5,a4,.L41
 465 003e 0947     		li	a4,2
 466 0040 6384E704 		beq	a5,a4,.L42
 467              	.L43:
 176:C:/Users/stapi/OneDrive/Desktop/GD32VW553/V1_MQTT_OK/GD32VW55X_Wifi_BLE_SDK/GD32VW55x_RELEASE_V1.0.2/MSDK/cloud/alicloud/src/protocol/coap/local\CoAPMessage.c ****                     break;
 468              		.loc 1 176 21 is_stmt 1
 176:C:/Users/stapi/OneDrive/Desktop/GD32VW553/V1_MQTT_OK/GD32VW55X_Wifi_BLE_SDK/GD32VW55x_RELEASE_V1.0.2/MSDK/cloud/alicloud/src/protocol/coap/local\CoAPMessage.c ****                     break;
 469              		.loc 1 176 27 is_stmt 0
 470 0044 23200600 		sw	zero,0(a2)
 177:C:/Users/stapi/OneDrive/Desktop/GD32VW553/V1_MQTT_OK/GD32VW55X_Wifi_BLE_SDK/GD32VW55x_RELEASE_V1.0.2/MSDK/cloud/alicloud/src/protocol/coap/local\CoAPMessage.c ****             }
 471              		.loc 1 177 21 is_stmt 1
 472 0048 35A8     		j	.L49
 473              	.L40:
 156:C:/Users/stapi/OneDrive/Desktop/GD32VW553/V1_MQTT_OK/GD32VW55X_Wifi_BLE_SDK/GD32VW55x_RELEASE_V1.0.2/MSDK/cloud/alicloud/src/protocol/coap/local\CoAPMessage.c ****                 case 1:
 474              		.loc 1 156 13 is_stmt 0
 475 004a 1147     		li	a4,4
 476 004c E39CE7FE 		bne	a5,a4,.L43
 170:C:/Users/stapi/OneDrive/Desktop/GD32VW553/V1_MQTT_OK/GD32VW55X_Wifi_BLE_SDK/GD32VW55x_RELEASE_V1.0.2/MSDK/cloud/alicloud/src/protocol/coap/local\CoAPMessage.c ****                     *data |= (message->options[index].val[byte++] << 16);
 477              		.loc 1 170 21 is_stmt 1
 170:C:/Users/stapi/OneDrive/Desktop/GD32VW553/V1_MQTT_OK/GD32VW55X_Wifi_BLE_SDK/GD32VW55x_RELEASE_V1.0.2/MSDK/cloud/alicloud/src/protocol/coap/local\CoAPMessage.c ****                     *data |= (message->options[index].val[byte++] << 16);
 478              		.loc 1 170 54 is_stmt 0
 479 0050 1449     		lw	a3,16(a0)
 480              	.LVL51:
 170:C:/Users/stapi/OneDrive/Desktop/GD32VW553/V1_MQTT_OK/GD32VW55X_Wifi_BLE_SDK/GD32VW55x_RELEASE_V1.0.2/MSDK/cloud/alicloud/src/protocol/coap/local\CoAPMessage.c ****                     *data |= (message->options[index].val[byte++] << 16);
 481              		.loc 1 170 27
 482 0052 1C42     		lw	a5,0(a2)
 170:C:/Users/stapi/OneDrive/Desktop/GD32VW553/V1_MQTT_OK/GD32VW55X_Wifi_BLE_SDK/GD32VW55x_RELEASE_V1.0.2/MSDK/cloud/alicloud/src/protocol/coap/local\CoAPMessage.c ****                     *data |= (message->options[index].val[byte++] << 16);
 483              		.loc 1 170 58
 484 0054 03C70600 		lbu	a4,0(a3)
 170:C:/Users/stapi/OneDrive/Desktop/GD32VW553/V1_MQTT_OK/GD32VW55X_Wifi_BLE_SDK/GD32VW55x_RELEASE_V1.0.2/MSDK/cloud/alicloud/src/protocol/coap/local\CoAPMessage.c ****                     *data |= (message->options[index].val[byte++] << 16);
 485              		.loc 1 170 67
 486 0058 6207     		slli	a4,a4,24
 170:C:/Users/stapi/OneDrive/Desktop/GD32VW553/V1_MQTT_OK/GD32VW55X_Wifi_BLE_SDK/GD32VW55x_RELEASE_V1.0.2/MSDK/cloud/alicloud/src/protocol/coap/local\CoAPMessage.c ****                     *data |= (message->options[index].val[byte++] << 16);
 487              		.loc 1 170 27
 488 005a 5D8F     		or	a4,a4,a5
 489 005c 18C2     		sw	a4,0(a2)
 171:C:/Users/stapi/OneDrive/Desktop/GD32VW553/V1_MQTT_OK/GD32VW55X_Wifi_BLE_SDK/GD32VW55x_RELEASE_V1.0.2/MSDK/cloud/alicloud/src/protocol/coap/local\CoAPMessage.c ****                     *data |= (message->options[index].val[byte++] << 8);
 490              		.loc 1 171 21 is_stmt 1
 491              	.LVL52:
 171:C:/Users/stapi/OneDrive/Desktop/GD32VW553/V1_MQTT_OK/GD32VW55X_Wifi_BLE_SDK/GD32VW55x_RELEASE_V1.0.2/MSDK/cloud/alicloud/src/protocol/coap/local\CoAPMessage.c ****                     *data |= (message->options[index].val[byte++] << 8);
 492              		.loc 1 171 58 is_stmt 0
 493 005e 83C71600 		lbu	a5,1(a3)
 171:C:/Users/stapi/OneDrive/Desktop/GD32VW553/V1_MQTT_OK/GD32VW55X_Wifi_BLE_SDK/GD32VW55x_RELEASE_V1.0.2/MSDK/cloud/alicloud/src/protocol/coap/local\CoAPMessage.c ****                     *data |= (message->options[index].val[byte++] << 8);
 494              		.loc 1 171 67
 495 0062 C207     		slli	a5,a5,16
 171:C:/Users/stapi/OneDrive/Desktop/GD32VW553/V1_MQTT_OK/GD32VW55X_Wifi_BLE_SDK/GD32VW55x_RELEASE_V1.0.2/MSDK/cloud/alicloud/src/protocol/coap/local\CoAPMessage.c ****                     *data |= (message->options[index].val[byte++] << 8);
 496              		.loc 1 171 27
 497 0064 5D8F     		or	a4,a5,a4
 498 0066 18C2     		sw	a4,0(a2)
 172:C:/Users/stapi/OneDrive/Desktop/GD32VW553/V1_MQTT_OK/GD32VW55X_Wifi_BLE_SDK/GD32VW55x_RELEASE_V1.0.2/MSDK/cloud/alicloud/src/protocol/coap/local\CoAPMessage.c ****                     *data |= message->options[index].val[byte++];
 499              		.loc 1 172 21 is_stmt 1
 500              	.LVL53:
 172:C:/Users/stapi/OneDrive/Desktop/GD32VW553/V1_MQTT_OK/GD32VW55X_Wifi_BLE_SDK/GD32VW55x_RELEASE_V1.0.2/MSDK/cloud/alicloud/src/protocol/coap/local\CoAPMessage.c ****                     *data |= message->options[index].val[byte++];
 501              		.loc 1 172 58 is_stmt 0
 502 0068 83C72600 		lbu	a5,2(a3)
 172:C:/Users/stapi/OneDrive/Desktop/GD32VW553/V1_MQTT_OK/GD32VW55X_Wifi_BLE_SDK/GD32VW55x_RELEASE_V1.0.2/MSDK/cloud/alicloud/src/protocol/coap/local\CoAPMessage.c ****                     *data |= message->options[index].val[byte++];
 503              		.loc 1 172 67
 504 006c A207     		slli	a5,a5,8
 172:C:/Users/stapi/OneDrive/Desktop/GD32VW553/V1_MQTT_OK/GD32VW55X_Wifi_BLE_SDK/GD32VW55x_RELEASE_V1.0.2/MSDK/cloud/alicloud/src/protocol/coap/local\CoAPMessage.c ****                     *data |= message->options[index].val[byte++];
 505              		.loc 1 172 27
 506 006e D98F     		or	a5,a5,a4
 507 0070 1CC2     		sw	a5,0(a2)
 173:C:/Users/stapi/OneDrive/Desktop/GD32VW553/V1_MQTT_OK/GD32VW55X_Wifi_BLE_SDK/GD32VW55x_RELEASE_V1.0.2/MSDK/cloud/alicloud/src/protocol/coap/local\CoAPMessage.c ****                     break;
 508              		.loc 1 173 21 is_stmt 1
 509              	.LVL54:
 173:C:/Users/stapi/OneDrive/Desktop/GD32VW553/V1_MQTT_OK/GD32VW55X_Wifi_BLE_SDK/GD32VW55x_RELEASE_V1.0.2/MSDK/cloud/alicloud/src/protocol/coap/local\CoAPMessage.c ****                     break;
 510              		.loc 1 173 57 is_stmt 0
 511 0072 03C73600 		lbu	a4,3(a3)
 512 0076 29A0     		j	.L48
 513              	.LVL55:
 514              	.L41:
 158:C:/Users/stapi/OneDrive/Desktop/GD32VW553/V1_MQTT_OK/GD32VW55X_Wifi_BLE_SDK/GD32VW55x_RELEASE_V1.0.2/MSDK/cloud/alicloud/src/protocol/coap/local\CoAPMessage.c ****                     break;
 515              		.loc 1 158 21 is_stmt 1
 158:C:/Users/stapi/OneDrive/Desktop/GD32VW553/V1_MQTT_OK/GD32VW55X_Wifi_BLE_SDK/GD32VW55x_RELEASE_V1.0.2/MSDK/cloud/alicloud/src/protocol/coap/local\CoAPMessage.c ****                     break;
 516              		.loc 1 158 57 is_stmt 0
 517 0078 1C49     		lw	a5,16(a0)
 518 007a 03C70700 		lbu	a4,0(a5)
 158:C:/Users/stapi/OneDrive/Desktop/GD32VW553/V1_MQTT_OK/GD32VW55X_Wifi_BLE_SDK/GD32VW55x_RELEASE_V1.0.2/MSDK/cloud/alicloud/src/protocol/coap/local\CoAPMessage.c ****                     break;
 519              		.loc 1 158 27
 520 007e 1C42     		lw	a5,0(a2)
 521              	.LVL56:
 522              	.L48:
 162:C:/Users/stapi/OneDrive/Desktop/GD32VW553/V1_MQTT_OK/GD32VW55X_Wifi_BLE_SDK/GD32VW55x_RELEASE_V1.0.2/MSDK/cloud/alicloud/src/protocol/coap/local\CoAPMessage.c ****                     break;
 523              		.loc 1 162 27
 524 0080 D98F     		or	a5,a4,a5
 525 0082 1CC2     		sw	a5,0(a2)
 526              	.L49:
 163:C:/Users/stapi/OneDrive/Desktop/GD32VW553/V1_MQTT_OK/GD32VW55X_Wifi_BLE_SDK/GD32VW55x_RELEASE_V1.0.2/MSDK/cloud/alicloud/src/protocol/coap/local\CoAPMessage.c ****                 case 3:
 527              		.loc 1 163 21 is_stmt 1
 179:C:/Users/stapi/OneDrive/Desktop/GD32VW553/V1_MQTT_OK/GD32VW55X_Wifi_BLE_SDK/GD32VW55x_RELEASE_V1.0.2/MSDK/cloud/alicloud/src/protocol/coap/local\CoAPMessage.c ****         }
 528              		.loc 1 179 20 is_stmt 0
 529 0084 0145     		li	a0,0
 163:C:/Users/stapi/OneDrive/Desktop/GD32VW553/V1_MQTT_OK/GD32VW55X_Wifi_BLE_SDK/GD32VW55x_RELEASE_V1.0.2/MSDK/cloud/alicloud/src/protocol/coap/local\CoAPMessage.c ****                 case 3:
 530              		.loc 1 163 21
 531 0086 8280     		ret
 532              	.LVL57:
 533              	.L42:
 161:C:/Users/stapi/OneDrive/Desktop/GD32VW553/V1_MQTT_OK/GD32VW55X_Wifi_BLE_SDK/GD32VW55x_RELEASE_V1.0.2/MSDK/cloud/alicloud/src/protocol/coap/local\CoAPMessage.c ****                     *data |= message->options[index].val[byte++];
 534              		.loc 1 161 21 is_stmt 1
 161:C:/Users/stapi/OneDrive/Desktop/GD32VW553/V1_MQTT_OK/GD32VW55X_Wifi_BLE_SDK/GD32VW55x_RELEASE_V1.0.2/MSDK/cloud/alicloud/src/protocol/coap/local\CoAPMessage.c ****                     *data |= message->options[index].val[byte++];
 535              		.loc 1 161 54 is_stmt 0
 536 0088 1849     		lw	a4,16(a0)
 537              	.LVL58:
 161:C:/Users/stapi/OneDrive/Desktop/GD32VW553/V1_MQTT_OK/GD32VW55X_Wifi_BLE_SDK/GD32VW55x_RELEASE_V1.0.2/MSDK/cloud/alicloud/src/protocol/coap/local\CoAPMessage.c ****                     *data |= message->options[index].val[byte++];
 538              		.loc 1 161 27
 539 008a 1442     		lw	a3,0(a2)
 161:C:/Users/stapi/OneDrive/Desktop/GD32VW553/V1_MQTT_OK/GD32VW55X_Wifi_BLE_SDK/GD32VW55x_RELEASE_V1.0.2/MSDK/cloud/alicloud/src/protocol/coap/local\CoAPMessage.c ****                     *data |= message->options[index].val[byte++];
 540              		.loc 1 161 58
 541 008c 83470700 		lbu	a5,0(a4)
 161:C:/Users/stapi/OneDrive/Desktop/GD32VW553/V1_MQTT_OK/GD32VW55X_Wifi_BLE_SDK/GD32VW55x_RELEASE_V1.0.2/MSDK/cloud/alicloud/src/protocol/coap/local\CoAPMessage.c ****                     *data |= message->options[index].val[byte++];
 542              		.loc 1 161 67
 543 0090 A207     		slli	a5,a5,8
 161:C:/Users/stapi/OneDrive/Desktop/GD32VW553/V1_MQTT_OK/GD32VW55X_Wifi_BLE_SDK/GD32VW55x_RELEASE_V1.0.2/MSDK/cloud/alicloud/src/protocol/coap/local\CoAPMessage.c ****                     *data |= message->options[index].val[byte++];
 544              		.loc 1 161 27
 545 0092 D58F     		or	a5,a5,a3
 546 0094 1CC2     		sw	a5,0(a2)
 162:C:/Users/stapi/OneDrive/Desktop/GD32VW553/V1_MQTT_OK/GD32VW55X_Wifi_BLE_SDK/GD32VW55x_RELEASE_V1.0.2/MSDK/cloud/alicloud/src/protocol/coap/local\CoAPMessage.c ****                     break;
 547              		.loc 1 162 21 is_stmt 1
 548              	.LVL59:
 162:C:/Users/stapi/OneDrive/Desktop/GD32VW553/V1_MQTT_OK/GD32VW55X_Wifi_BLE_SDK/GD32VW55x_RELEASE_V1.0.2/MSDK/cloud/alicloud/src/protocol/coap/local\CoAPMessage.c ****                     break;
 549              		.loc 1 162 57 is_stmt 0
 550 0096 03471700 		lbu	a4,1(a4)
 551 009a DDB7     		j	.L48
 552              	.LVL60:
 553              	.L39:
 165:C:/Users/stapi/OneDrive/Desktop/GD32VW553/V1_MQTT_OK/GD32VW55X_Wifi_BLE_SDK/GD32VW55x_RELEASE_V1.0.2/MSDK/cloud/alicloud/src/protocol/coap/local\CoAPMessage.c ****                     *data |= (message->options[index].val[byte++] << 8);
 554              		.loc 1 165 21 is_stmt 1
 165:C:/Users/stapi/OneDrive/Desktop/GD32VW553/V1_MQTT_OK/GD32VW55X_Wifi_BLE_SDK/GD32VW55x_RELEASE_V1.0.2/MSDK/cloud/alicloud/src/protocol/coap/local\CoAPMessage.c ****                     *data |= (message->options[index].val[byte++] << 8);
 555              		.loc 1 165 54 is_stmt 0
 556 009c 1449     		lw	a3,16(a0)
 557              	.LVL61:
 165:C:/Users/stapi/OneDrive/Desktop/GD32VW553/V1_MQTT_OK/GD32VW55X_Wifi_BLE_SDK/GD32VW55x_RELEASE_V1.0.2/MSDK/cloud/alicloud/src/protocol/coap/local\CoAPMessage.c ****                     *data |= (message->options[index].val[byte++] << 8);
 558              		.loc 1 165 27
 559 009e 1842     		lw	a4,0(a2)
 165:C:/Users/stapi/OneDrive/Desktop/GD32VW553/V1_MQTT_OK/GD32VW55X_Wifi_BLE_SDK/GD32VW55x_RELEASE_V1.0.2/MSDK/cloud/alicloud/src/protocol/coap/local\CoAPMessage.c ****                     *data |= (message->options[index].val[byte++] << 8);
 560              		.loc 1 165 58
 561 00a0 83C70600 		lbu	a5,0(a3)
 165:C:/Users/stapi/OneDrive/Desktop/GD32VW553/V1_MQTT_OK/GD32VW55X_Wifi_BLE_SDK/GD32VW55x_RELEASE_V1.0.2/MSDK/cloud/alicloud/src/protocol/coap/local\CoAPMessage.c ****                     *data |= (message->options[index].val[byte++] << 8);
 562              		.loc 1 165 67
 563 00a4 C207     		slli	a5,a5,16
 165:C:/Users/stapi/OneDrive/Desktop/GD32VW553/V1_MQTT_OK/GD32VW55X_Wifi_BLE_SDK/GD32VW55x_RELEASE_V1.0.2/MSDK/cloud/alicloud/src/protocol/coap/local\CoAPMessage.c ****                     *data |= (message->options[index].val[byte++] << 8);
 564              		.loc 1 165 27
 565 00a6 5D8F     		or	a4,a5,a4
 566 00a8 18C2     		sw	a4,0(a2)
 166:C:/Users/stapi/OneDrive/Desktop/GD32VW553/V1_MQTT_OK/GD32VW55X_Wifi_BLE_SDK/GD32VW55x_RELEASE_V1.0.2/MSDK/cloud/alicloud/src/protocol/coap/local\CoAPMessage.c ****                     *data |= message->options[index].val[byte++];
 567              		.loc 1 166 21 is_stmt 1
 568              	.LVL62:
 166:C:/Users/stapi/OneDrive/Desktop/GD32VW553/V1_MQTT_OK/GD32VW55X_Wifi_BLE_SDK/GD32VW55x_RELEASE_V1.0.2/MSDK/cloud/alicloud/src/protocol/coap/local\CoAPMessage.c ****                     *data |= message->options[index].val[byte++];
 569              		.loc 1 166 58 is_stmt 0
 570 00aa 83C71600 		lbu	a5,1(a3)
 166:C:/Users/stapi/OneDrive/Desktop/GD32VW553/V1_MQTT_OK/GD32VW55X_Wifi_BLE_SDK/GD32VW55x_RELEASE_V1.0.2/MSDK/cloud/alicloud/src/protocol/coap/local\CoAPMessage.c ****                     *data |= message->options[index].val[byte++];
 571              		.loc 1 166 67
 572 00ae A207     		slli	a5,a5,8
 166:C:/Users/stapi/OneDrive/Desktop/GD32VW553/V1_MQTT_OK/GD32VW55X_Wifi_BLE_SDK/GD32VW55x_RELEASE_V1.0.2/MSDK/cloud/alicloud/src/protocol/coap/local\CoAPMessage.c ****                     *data |= message->options[index].val[byte++];
 573              		.loc 1 166 27
 574 00b0 D98F     		or	a5,a5,a4
 575 00b2 1CC2     		sw	a5,0(a2)
 167:C:/Users/stapi/OneDrive/Desktop/GD32VW553/V1_MQTT_OK/GD32VW55X_Wifi_BLE_SDK/GD32VW55x_RELEASE_V1.0.2/MSDK/cloud/alicloud/src/protocol/coap/local\CoAPMessage.c ****                     break;
 576              		.loc 1 167 21 is_stmt 1
 577              	.LVL63:
 167:C:/Users/stapi/OneDrive/Desktop/GD32VW553/V1_MQTT_OK/GD32VW55X_Wifi_BLE_SDK/GD32VW55x_RELEASE_V1.0.2/MSDK/cloud/alicloud/src/protocol/coap/local\CoAPMessage.c ****                     break;
 578              		.loc 1 167 57 is_stmt 0
 579 00b4 03C72600 		lbu	a4,2(a3)
 580 00b8 E1B7     		j	.L48
 581              	.LVL64:
 582              	.L47:
 583              	.LBE49:
 584 00ba C287     		mv	a5,a6
 585              	.LVL65:
 586 00bc B9B7     		j	.L38
 587              		.cfi_endproc
 588              	.LFE24:
 590              		.section	.text.CoAPOption_present,"ax",@progbits
 591              		.align	1
 592              		.globl	CoAPOption_present
 594              	CoAPOption_present:
 595              	.LFB25:
 185:C:/Users/stapi/OneDrive/Desktop/GD32VW553/V1_MQTT_OK/GD32VW55X_Wifi_BLE_SDK/GD32VW55x_RELEASE_V1.0.2/MSDK/cloud/alicloud/src/protocol/coap/local\CoAPMessage.c **** 
 186:C:/Users/stapi/OneDrive/Desktop/GD32VW553/V1_MQTT_OK/GD32VW55X_Wifi_BLE_SDK/GD32VW55x_RELEASE_V1.0.2/MSDK/cloud/alicloud/src/protocol/coap/local\CoAPMessage.c **** 
 187:C:/Users/stapi/OneDrive/Desktop/GD32VW553/V1_MQTT_OK/GD32VW55X_Wifi_BLE_SDK/GD32VW55x_RELEASE_V1.0.2/MSDK/cloud/alicloud/src/protocol/coap/local\CoAPMessage.c **** int CoAPOption_present(CoAPMessage *message, unsigned short option)
 188:C:/Users/stapi/OneDrive/Desktop/GD32VW553/V1_MQTT_OK/GD32VW55X_Wifi_BLE_SDK/GD32VW55x_RELEASE_V1.0.2/MSDK/cloud/alicloud/src/protocol/coap/local\CoAPMessage.c **** {
 596              		.loc 1 188 1 is_stmt 1
 597              		.cfi_startproc
 598              	.LVL66:
 189:C:/Users/stapi/OneDrive/Desktop/GD32VW553/V1_MQTT_OK/GD32VW55X_Wifi_BLE_SDK/GD32VW55x_RELEASE_V1.0.2/MSDK/cloud/alicloud/src/protocol/coap/local\CoAPMessage.c ****     unsigned char index = 0;
 599              		.loc 1 189 5
 190:C:/Users/stapi/OneDrive/Desktop/GD32VW553/V1_MQTT_OK/GD32VW55X_Wifi_BLE_SDK/GD32VW55x_RELEASE_V1.0.2/MSDK/cloud/alicloud/src/protocol/coap/local\CoAPMessage.c **** 
 191:C:/Users/stapi/OneDrive/Desktop/GD32VW553/V1_MQTT_OK/GD32VW55X_Wifi_BLE_SDK/GD32VW55x_RELEASE_V1.0.2/MSDK/cloud/alicloud/src/protocol/coap/local\CoAPMessage.c **** 
 192:C:/Users/stapi/OneDrive/Desktop/GD32VW553/V1_MQTT_OK/GD32VW55X_Wifi_BLE_SDK/GD32VW55x_RELEASE_V1.0.2/MSDK/cloud/alicloud/src/protocol/coap/local\CoAPMessage.c ****     for (index = 0; index < message->optcount; index++) {
 600              		.loc 1 192 5
 601              		.loc 1 192 36 is_stmt 0
 602 0000 0347C506 		lbu	a4,108(a0)
 603              		.loc 1 192 16
 604 0004 8147     		li	a5,0
 605 0006 3105     		addi	a0,a0,12
 606              	.LVL67:
 607              	.L51:
 608              		.loc 1 192 21 is_stmt 1 discriminator 1
 609              		.loc 1 192 5 is_stmt 0 discriminator 1
 610 0008 6315F700 		bne	a4,a5,.L53
 193:C:/Users/stapi/OneDrive/Desktop/GD32VW553/V1_MQTT_OK/GD32VW55X_Wifi_BLE_SDK/GD32VW55x_RELEASE_V1.0.2/MSDK/cloud/alicloud/src/protocol/coap/local\CoAPMessage.c ****         if (message->options[index].num == option) {
 194:C:/Users/stapi/OneDrive/Desktop/GD32VW553/V1_MQTT_OK/GD32VW55X_Wifi_BLE_SDK/GD32VW55x_RELEASE_V1.0.2/MSDK/cloud/alicloud/src/protocol/coap/local\CoAPMessage.c ****             return COAP_SUCCESS;
 195:C:/Users/stapi/OneDrive/Desktop/GD32VW553/V1_MQTT_OK/GD32VW55X_Wifi_BLE_SDK/GD32VW55x_RELEASE_V1.0.2/MSDK/cloud/alicloud/src/protocol/coap/local\CoAPMessage.c ****         }
 196:C:/Users/stapi/OneDrive/Desktop/GD32VW553/V1_MQTT_OK/GD32VW55X_Wifi_BLE_SDK/GD32VW55x_RELEASE_V1.0.2/MSDK/cloud/alicloud/src/protocol/coap/local\CoAPMessage.c ****     }
 197:C:/Users/stapi/OneDrive/Desktop/GD32VW553/V1_MQTT_OK/GD32VW55X_Wifi_BLE_SDK/GD32VW55x_RELEASE_V1.0.2/MSDK/cloud/alicloud/src/protocol/coap/local\CoAPMessage.c ****     return COAP_ERROR_NOT_FOUND;
 611              		.loc 1 197 12
 612 000c 13057010 		li	a0,263
 613 0010 8280     		ret
 614              	.L53:
 193:C:/Users/stapi/OneDrive/Desktop/GD32VW553/V1_MQTT_OK/GD32VW55X_Wifi_BLE_SDK/GD32VW55x_RELEASE_V1.0.2/MSDK/cloud/alicloud/src/protocol/coap/local\CoAPMessage.c ****         if (message->options[index].num == option) {
 615              		.loc 1 193 9 is_stmt 1
 193:C:/Users/stapi/OneDrive/Desktop/GD32VW553/V1_MQTT_OK/GD32VW55X_Wifi_BLE_SDK/GD32VW55x_RELEASE_V1.0.2/MSDK/cloud/alicloud/src/protocol/coap/local\CoAPMessage.c ****         if (message->options[index].num == option) {
 616              		.loc 1 193 12 is_stmt 0
 617 0012 83560500 		lhu	a3,0(a0)
 618 0016 2105     		addi	a0,a0,8
 619 0018 6386B600 		beq	a3,a1,.L54
 192:C:/Users/stapi/OneDrive/Desktop/GD32VW553/V1_MQTT_OK/GD32VW55X_Wifi_BLE_SDK/GD32VW55x_RELEASE_V1.0.2/MSDK/cloud/alicloud/src/protocol/coap/local\CoAPMessage.c ****         if (message->options[index].num == option) {
 620              		.loc 1 192 48 is_stmt 1 discriminator 2
 192:C:/Users/stapi/OneDrive/Desktop/GD32VW553/V1_MQTT_OK/GD32VW55X_Wifi_BLE_SDK/GD32VW55x_RELEASE_V1.0.2/MSDK/cloud/alicloud/src/protocol/coap/local\CoAPMessage.c ****         if (message->options[index].num == option) {
 621              		.loc 1 192 53 is_stmt 0 discriminator 2
 622 001c 8507     		addi	a5,a5,1
 623              	.LVL68:
 624 001e 93F7F70F 		andi	a5,a5,0xff
 625              	.LVL69:
 626 0022 DDB7     		j	.L51
 627              	.L54:
 194:C:/Users/stapi/OneDrive/Desktop/GD32VW553/V1_MQTT_OK/GD32VW55X_Wifi_BLE_SDK/GD32VW55x_RELEASE_V1.0.2/MSDK/cloud/alicloud/src/protocol/coap/local\CoAPMessage.c ****         }
 628              		.loc 1 194 20
 629 0024 0145     		li	a0,0
 198:C:/Users/stapi/OneDrive/Desktop/GD32VW553/V1_MQTT_OK/GD32VW55X_Wifi_BLE_SDK/GD32VW55x_RELEASE_V1.0.2/MSDK/cloud/alicloud/src/protocol/coap/local\CoAPMessage.c **** }
 630              		.loc 1 198 1
 631 0026 8280     		ret
 632              		.cfi_endproc
 633              	.LFE25:
 635              		.section	.text.CoAPMessageId_gen,"ax",@progbits
 636              		.align	1
 637              		.globl	CoAPMessageId_gen
 639              	CoAPMessageId_gen:
 640              	.LFB26:
 199:C:/Users/stapi/OneDrive/Desktop/GD32VW553/V1_MQTT_OK/GD32VW55X_Wifi_BLE_SDK/GD32VW55x_RELEASE_V1.0.2/MSDK/cloud/alicloud/src/protocol/coap/local\CoAPMessage.c **** 
 200:C:/Users/stapi/OneDrive/Desktop/GD32VW553/V1_MQTT_OK/GD32VW55X_Wifi_BLE_SDK/GD32VW55x_RELEASE_V1.0.2/MSDK/cloud/alicloud/src/protocol/coap/local\CoAPMessage.c **** unsigned short CoAPMessageId_gen(CoAPContext *context)
 201:C:/Users/stapi/OneDrive/Desktop/GD32VW553/V1_MQTT_OK/GD32VW55X_Wifi_BLE_SDK/GD32VW55x_RELEASE_V1.0.2/MSDK/cloud/alicloud/src/protocol/coap/local\CoAPMessage.c **** {
 641              		.loc 1 201 1 is_stmt 1
 642              		.cfi_startproc
 643              	.LVL70:
 644 0000 17030000 		call	t0,__riscv_save_2
 644      E7020300 
 645              		.cfi_offset 9, -12
 646              		.cfi_offset 8, -8
 647              		.cfi_offset 1, -4
 648              		.cfi_def_cfa_offset 16
 202:C:/Users/stapi/OneDrive/Desktop/GD32VW553/V1_MQTT_OK/GD32VW55X_Wifi_BLE_SDK/GD32VW55x_RELEASE_V1.0.2/MSDK/cloud/alicloud/src/protocol/coap/local\CoAPMessage.c ****     unsigned short msg_id = 0;
 649              		.loc 1 202 5
 650              	.LVL71:
 203:C:/Users/stapi/OneDrive/Desktop/GD32VW553/V1_MQTT_OK/GD32VW55X_Wifi_BLE_SDK/GD32VW55x_RELEASE_V1.0.2/MSDK/cloud/alicloud/src/protocol/coap/local\CoAPMessage.c ****     if (!context) {
 651              		.loc 1 203 5
 204:C:/Users/stapi/OneDrive/Desktop/GD32VW553/V1_MQTT_OK/GD32VW55X_Wifi_BLE_SDK/GD32VW55x_RELEASE_V1.0.2/MSDK/cloud/alicloud/src/protocol/coap/local\CoAPMessage.c ****         return msg_id;
 652              		.loc 1 204 16 is_stmt 0
 653 0008 8144     		li	s1,0
 203:C:/Users/stapi/OneDrive/Desktop/GD32VW553/V1_MQTT_OK/GD32VW55X_Wifi_BLE_SDK/GD32VW55x_RELEASE_V1.0.2/MSDK/cloud/alicloud/src/protocol/coap/local\CoAPMessage.c ****     if (!context) {
 654              		.loc 1 203 8
 655 000a 05C9     		beq	a0,zero,.L56
 656 000c 2A84     		mv	s0,a0
 205:C:/Users/stapi/OneDrive/Desktop/GD32VW553/V1_MQTT_OK/GD32VW55X_Wifi_BLE_SDK/GD32VW55x_RELEASE_V1.0.2/MSDK/cloud/alicloud/src/protocol/coap/local\CoAPMessage.c ****     }
 206:C:/Users/stapi/OneDrive/Desktop/GD32VW553/V1_MQTT_OK/GD32VW55X_Wifi_BLE_SDK/GD32VW55x_RELEASE_V1.0.2/MSDK/cloud/alicloud/src/protocol/coap/local\CoAPMessage.c ****     CoAPIntContext *ctx = (CoAPIntContext *)context;
 657              		.loc 1 206 5 is_stmt 1
 658              	.LVL72:
 207:C:/Users/stapi/OneDrive/Desktop/GD32VW553/V1_MQTT_OK/GD32VW55X_Wifi_BLE_SDK/GD32VW55x_RELEASE_V1.0.2/MSDK/cloud/alicloud/src/protocol/coap/local\CoAPMessage.c ****     HAL_MutexLock(ctx->mutex);
 659              		.loc 1 207 5
 660 000e 684D     		lw	a0,92(a0)
 661              	.LVL73:
 662 0010 97000000 		call	HAL_MutexLock
 662      E7800000 
 663              	.LVL74:
 208:C:/Users/stapi/OneDrive/Desktop/GD32VW553/V1_MQTT_OK/GD32VW55X_Wifi_BLE_SDK/GD32VW55x_RELEASE_V1.0.2/MSDK/cloud/alicloud/src/protocol/coap/local\CoAPMessage.c ****     msg_id = ((COAP_MAX_MESSAGE_ID == ctx->message_id)  ? (ctx->message_id = 1) : ctx->message_id++
 664              		.loc 1 208 5
 665              		.loc 1 208 42 is_stmt 0
 666 0018 83540400 		lhu	s1,0(s0)
 667              		.loc 1 208 12
 668 001c C167     		li	a5,65536
 669 001e FD17     		addi	a5,a5,-1
 670 0020 6382F402 		beq	s1,a5,.L59
 671              		.loc 1 208 98 discriminator 2
 672 0024 93871400 		addi	a5,s1,1
 673 0028 B3C70708 		zext.h	a5,a5
 674              	.L57:
 209:C:/Users/stapi/OneDrive/Desktop/GD32VW553/V1_MQTT_OK/GD32VW55X_Wifi_BLE_SDK/GD32VW55x_RELEASE_V1.0.2/MSDK/cloud/alicloud/src/protocol/coap/local\CoAPMessage.c ****     HAL_MutexUnlock(ctx->mutex);
 675              		.loc 1 209 5 discriminator 4
 676 002c 684C     		lw	a0,92(s0)
 677 002e 2310F400 		sh	a5,0(s0)
 678              	.LVL75:
 679              		.loc 1 209 5 is_stmt 1 discriminator 4
 680 0032 97000000 		call	HAL_MutexUnlock
 680      E7800000 
 681              	.LVL76:
 210:C:/Users/stapi/OneDrive/Desktop/GD32VW553/V1_MQTT_OK/GD32VW55X_Wifi_BLE_SDK/GD32VW55x_RELEASE_V1.0.2/MSDK/cloud/alicloud/src/protocol/coap/local\CoAPMessage.c ****     return msg_id;
 682              		.loc 1 210 5 discriminator 4
 683              	.L56:
 211:C:/Users/stapi/OneDrive/Desktop/GD32VW553/V1_MQTT_OK/GD32VW55X_Wifi_BLE_SDK/GD32VW55x_RELEASE_V1.0.2/MSDK/cloud/alicloud/src/protocol/coap/local\CoAPMessage.c **** }
 684              		.loc 1 211 1 is_stmt 0
 685 003a 2685     		mv	a0,s1
 686 003c 17030000 		tail	__riscv_restore_2
 686      67000300 
 687              		.cfi_remember_state
 688              		.cfi_restore 9
 689              		.cfi_restore 8
 690              		.cfi_restore 1
 691              		.cfi_def_cfa_offset 0
 692              	.LVL77:
 693              	.L59:
 694              		.cfi_restore_state
 208:C:/Users/stapi/OneDrive/Desktop/GD32VW553/V1_MQTT_OK/GD32VW55X_Wifi_BLE_SDK/GD32VW55x_RELEASE_V1.0.2/MSDK/cloud/alicloud/src/protocol/coap/local\CoAPMessage.c ****     HAL_MutexUnlock(ctx->mutex);
 695              		.loc 1 208 76
 696 0044 8547     		li	a5,1
 208:C:/Users/stapi/OneDrive/Desktop/GD32VW553/V1_MQTT_OK/GD32VW55X_Wifi_BLE_SDK/GD32VW55x_RELEASE_V1.0.2/MSDK/cloud/alicloud/src/protocol/coap/local\CoAPMessage.c ****     HAL_MutexUnlock(ctx->mutex);
 697              		.loc 1 208 12
 698 0046 8544     		li	s1,1
 699 0048 D5B7     		j	.L57
 700              		.cfi_endproc
 701              	.LFE26:
 703              		.section	.text.CoAPMessageId_set,"ax",@progbits
 704              		.align	1
 705              		.globl	CoAPMessageId_set
 707              	CoAPMessageId_set:
 708              	.LFB27:
 212:C:/Users/stapi/OneDrive/Desktop/GD32VW553/V1_MQTT_OK/GD32VW55X_Wifi_BLE_SDK/GD32VW55x_RELEASE_V1.0.2/MSDK/cloud/alicloud/src/protocol/coap/local\CoAPMessage.c **** 
 213:C:/Users/stapi/OneDrive/Desktop/GD32VW553/V1_MQTT_OK/GD32VW55X_Wifi_BLE_SDK/GD32VW55x_RELEASE_V1.0.2/MSDK/cloud/alicloud/src/protocol/coap/local\CoAPMessage.c **** 
 214:C:/Users/stapi/OneDrive/Desktop/GD32VW553/V1_MQTT_OK/GD32VW55X_Wifi_BLE_SDK/GD32VW55x_RELEASE_V1.0.2/MSDK/cloud/alicloud/src/protocol/coap/local\CoAPMessage.c **** int CoAPMessageId_set(CoAPMessage *message, unsigned short msgid)
 215:C:/Users/stapi/OneDrive/Desktop/GD32VW553/V1_MQTT_OK/GD32VW55X_Wifi_BLE_SDK/GD32VW55x_RELEASE_V1.0.2/MSDK/cloud/alicloud/src/protocol/coap/local\CoAPMessage.c **** {
 709              		.loc 1 215 1 is_stmt 1
 710              		.cfi_startproc
 711              	.LVL78:
 216:C:/Users/stapi/OneDrive/Desktop/GD32VW553/V1_MQTT_OK/GD32VW55X_Wifi_BLE_SDK/GD32VW55x_RELEASE_V1.0.2/MSDK/cloud/alicloud/src/protocol/coap/local\CoAPMessage.c ****     if (NULL == message) {
 712              		.loc 1 216 5
 713              		.loc 1 216 8 is_stmt 0
 714 0000 09C5     		beq	a0,zero,.L63
 217:C:/Users/stapi/OneDrive/Desktop/GD32VW553/V1_MQTT_OK/GD32VW55X_Wifi_BLE_SDK/GD32VW55x_RELEASE_V1.0.2/MSDK/cloud/alicloud/src/protocol/coap/local\CoAPMessage.c ****         return COAP_ERROR_NULL;
 218:C:/Users/stapi/OneDrive/Desktop/GD32VW553/V1_MQTT_OK/GD32VW55X_Wifi_BLE_SDK/GD32VW55x_RELEASE_V1.0.2/MSDK/cloud/alicloud/src/protocol/coap/local\CoAPMessage.c ****     }
 219:C:/Users/stapi/OneDrive/Desktop/GD32VW553/V1_MQTT_OK/GD32VW55X_Wifi_BLE_SDK/GD32VW55x_RELEASE_V1.0.2/MSDK/cloud/alicloud/src/protocol/coap/local\CoAPMessage.c ****     message->header.msgid = msgid;
 715              		.loc 1 219 5 is_stmt 1
 716              		.loc 1 219 27 is_stmt 0
 717 0002 2311B500 		sh	a1,2(a0)
 220:C:/Users/stapi/OneDrive/Desktop/GD32VW553/V1_MQTT_OK/GD32VW55X_Wifi_BLE_SDK/GD32VW55x_RELEASE_V1.0.2/MSDK/cloud/alicloud/src/protocol/coap/local\CoAPMessage.c ****     return COAP_SUCCESS;
 718              		.loc 1 220 5 is_stmt 1
 719              		.loc 1 220 12 is_stmt 0
 720 0006 0145     		li	a0,0
 721              	.LVL79:
 722 0008 8280     		ret
 723              	.LVL80:
 724              	.L63:
 217:C:/Users/stapi/OneDrive/Desktop/GD32VW553/V1_MQTT_OK/GD32VW55X_Wifi_BLE_SDK/GD32VW55x_RELEASE_V1.0.2/MSDK/cloud/alicloud/src/protocol/coap/local\CoAPMessage.c ****         return COAP_ERROR_NULL;
 725              		.loc 1 217 16
 726 000a 13052010 		li	a0,258
 727              	.LVL81:
 221:C:/Users/stapi/OneDrive/Desktop/GD32VW553/V1_MQTT_OK/GD32VW55X_Wifi_BLE_SDK/GD32VW55x_RELEASE_V1.0.2/MSDK/cloud/alicloud/src/protocol/coap/local\CoAPMessage.c **** }
 728              		.loc 1 221 1
 729 000e 8280     		ret
 730              		.cfi_endproc
 731              	.LFE27:
 733              		.section	.text.CoAPMessageType_set,"ax",@progbits
 734              		.align	1
 735              		.globl	CoAPMessageType_set
 737              	CoAPMessageType_set:
 738              	.LFB28:
 222:C:/Users/stapi/OneDrive/Desktop/GD32VW553/V1_MQTT_OK/GD32VW55X_Wifi_BLE_SDK/GD32VW55x_RELEASE_V1.0.2/MSDK/cloud/alicloud/src/protocol/coap/local\CoAPMessage.c **** 
 223:C:/Users/stapi/OneDrive/Desktop/GD32VW553/V1_MQTT_OK/GD32VW55X_Wifi_BLE_SDK/GD32VW55x_RELEASE_V1.0.2/MSDK/cloud/alicloud/src/protocol/coap/local\CoAPMessage.c **** int CoAPMessageType_set(CoAPMessage *message, unsigned char type)
 224:C:/Users/stapi/OneDrive/Desktop/GD32VW553/V1_MQTT_OK/GD32VW55X_Wifi_BLE_SDK/GD32VW55x_RELEASE_V1.0.2/MSDK/cloud/alicloud/src/protocol/coap/local\CoAPMessage.c **** {
 739              		.loc 1 224 1 is_stmt 1
 740              		.cfi_startproc
 741              	.LVL82:
 225:C:/Users/stapi/OneDrive/Desktop/GD32VW553/V1_MQTT_OK/GD32VW55X_Wifi_BLE_SDK/GD32VW55x_RELEASE_V1.0.2/MSDK/cloud/alicloud/src/protocol/coap/local\CoAPMessage.c ****     if (NULL == message) {
 742              		.loc 1 225 5
 224:C:/Users/stapi/OneDrive/Desktop/GD32VW553/V1_MQTT_OK/GD32VW55X_Wifi_BLE_SDK/GD32VW55x_RELEASE_V1.0.2/MSDK/cloud/alicloud/src/protocol/coap/local\CoAPMessage.c ****     if (NULL == message) {
 743              		.loc 1 224 1 is_stmt 0
 744 0000 AA87     		mv	a5,a0
 745              		.loc 1 225 8
 746 0002 05C5     		beq	a0,zero,.L66
 226:C:/Users/stapi/OneDrive/Desktop/GD32VW553/V1_MQTT_OK/GD32VW55X_Wifi_BLE_SDK/GD32VW55x_RELEASE_V1.0.2/MSDK/cloud/alicloud/src/protocol/coap/local\CoAPMessage.c ****         return COAP_ERROR_NULL;
 227:C:/Users/stapi/OneDrive/Desktop/GD32VW553/V1_MQTT_OK/GD32VW55X_Wifi_BLE_SDK/GD32VW55x_RELEASE_V1.0.2/MSDK/cloud/alicloud/src/protocol/coap/local\CoAPMessage.c ****     }
 228:C:/Users/stapi/OneDrive/Desktop/GD32VW553/V1_MQTT_OK/GD32VW55X_Wifi_BLE_SDK/GD32VW55x_RELEASE_V1.0.2/MSDK/cloud/alicloud/src/protocol/coap/local\CoAPMessage.c ****     if (COAP_MESSAGE_TYPE_NON > type || COAP_MESSAGE_TYPE_RST < type) {
 747              		.loc 1 228 5 is_stmt 1
 748              		.loc 1 228 38 is_stmt 0
 749 0004 1387F5FF 		addi	a4,a1,-1
 750              		.loc 1 228 8
 751 0008 1377F70F 		andi	a4,a4,0xff
 752 000c 8946     		li	a3,2
 229:C:/Users/stapi/OneDrive/Desktop/GD32VW553/V1_MQTT_OK/GD32VW55X_Wifi_BLE_SDK/GD32VW55x_RELEASE_V1.0.2/MSDK/cloud/alicloud/src/protocol/coap/local\CoAPMessage.c ****         return COAP_ERROR_INVALID_PARAM;
 753              		.loc 1 229 16
 754 000e 13051010 		li	a0,257
 755              	.LVL83:
 228:C:/Users/stapi/OneDrive/Desktop/GD32VW553/V1_MQTT_OK/GD32VW55X_Wifi_BLE_SDK/GD32VW55x_RELEASE_V1.0.2/MSDK/cloud/alicloud/src/protocol/coap/local\CoAPMessage.c ****         return COAP_ERROR_INVALID_PARAM;
 756              		.loc 1 228 8
 757 0012 63EEE600 		bgtu	a4,a3,.L64
 230:C:/Users/stapi/OneDrive/Desktop/GD32VW553/V1_MQTT_OK/GD32VW55X_Wifi_BLE_SDK/GD32VW55x_RELEASE_V1.0.2/MSDK/cloud/alicloud/src/protocol/coap/local\CoAPMessage.c ****     }
 231:C:/Users/stapi/OneDrive/Desktop/GD32VW553/V1_MQTT_OK/GD32VW55X_Wifi_BLE_SDK/GD32VW55x_RELEASE_V1.0.2/MSDK/cloud/alicloud/src/protocol/coap/local\CoAPMessage.c **** 
 232:C:/Users/stapi/OneDrive/Desktop/GD32VW553/V1_MQTT_OK/GD32VW55X_Wifi_BLE_SDK/GD32VW55x_RELEASE_V1.0.2/MSDK/cloud/alicloud/src/protocol/coap/local\CoAPMessage.c ****     message->header.type = type;
 758              		.loc 1 232 5 is_stmt 1
 759              		.loc 1 232 26 is_stmt 0
 760 0016 03C70700 		lbu	a4,0(a5)
 761 001a 8D89     		andi	a1,a1,3
 762              	.LVL84:
 763 001c 8A05     		slli	a1,a1,2
 764 001e 4D9B     		andi	a4,a4,-13
 765 0020 D98D     		or	a1,a4,a1
 766 0022 2380B700 		sb	a1,0(a5)
 233:C:/Users/stapi/OneDrive/Desktop/GD32VW553/V1_MQTT_OK/GD32VW55X_Wifi_BLE_SDK/GD32VW55x_RELEASE_V1.0.2/MSDK/cloud/alicloud/src/protocol/coap/local\CoAPMessage.c ****     return COAP_SUCCESS;
 767              		.loc 1 233 5 is_stmt 1
 768              		.loc 1 233 12 is_stmt 0
 769 0026 0145     		li	a0,0
 770 0028 8280     		ret
 771              	.LVL85:
 772              	.L66:
 226:C:/Users/stapi/OneDrive/Desktop/GD32VW553/V1_MQTT_OK/GD32VW55X_Wifi_BLE_SDK/GD32VW55x_RELEASE_V1.0.2/MSDK/cloud/alicloud/src/protocol/coap/local\CoAPMessage.c ****     }
 773              		.loc 1 226 16
 774 002a 13052010 		li	a0,258
 775              	.LVL86:
 776              	.L64:
 234:C:/Users/stapi/OneDrive/Desktop/GD32VW553/V1_MQTT_OK/GD32VW55X_Wifi_BLE_SDK/GD32VW55x_RELEASE_V1.0.2/MSDK/cloud/alicloud/src/protocol/coap/local\CoAPMessage.c **** }
 777              		.loc 1 234 1
 778 002e 8280     		ret
 779              		.cfi_endproc
 780              	.LFE28:
 782              		.section	.text.CoAPMessageCode_set,"ax",@progbits
 783              		.align	1
 784              		.globl	CoAPMessageCode_set
 786              	CoAPMessageCode_set:
 787              	.LFB29:
 235:C:/Users/stapi/OneDrive/Desktop/GD32VW553/V1_MQTT_OK/GD32VW55X_Wifi_BLE_SDK/GD32VW55x_RELEASE_V1.0.2/MSDK/cloud/alicloud/src/protocol/coap/local\CoAPMessage.c **** 
 236:C:/Users/stapi/OneDrive/Desktop/GD32VW553/V1_MQTT_OK/GD32VW55X_Wifi_BLE_SDK/GD32VW55x_RELEASE_V1.0.2/MSDK/cloud/alicloud/src/protocol/coap/local\CoAPMessage.c **** int CoAPMessageCode_set(CoAPMessage *message, CoAPMessageCode code)
 237:C:/Users/stapi/OneDrive/Desktop/GD32VW553/V1_MQTT_OK/GD32VW55X_Wifi_BLE_SDK/GD32VW55x_RELEASE_V1.0.2/MSDK/cloud/alicloud/src/protocol/coap/local\CoAPMessage.c **** {
 788              		.loc 1 237 1 is_stmt 1
 789              		.cfi_startproc
 790              	.LVL87:
 238:C:/Users/stapi/OneDrive/Desktop/GD32VW553/V1_MQTT_OK/GD32VW55X_Wifi_BLE_SDK/GD32VW55x_RELEASE_V1.0.2/MSDK/cloud/alicloud/src/protocol/coap/local\CoAPMessage.c ****     if (NULL == message) {
 791              		.loc 1 238 5
 792              		.loc 1 238 8 is_stmt 0
 793 0000 09C5     		beq	a0,zero,.L70
 239:C:/Users/stapi/OneDrive/Desktop/GD32VW553/V1_MQTT_OK/GD32VW55X_Wifi_BLE_SDK/GD32VW55x_RELEASE_V1.0.2/MSDK/cloud/alicloud/src/protocol/coap/local\CoAPMessage.c ****         return COAP_ERROR_NULL;
 240:C:/Users/stapi/OneDrive/Desktop/GD32VW553/V1_MQTT_OK/GD32VW55X_Wifi_BLE_SDK/GD32VW55x_RELEASE_V1.0.2/MSDK/cloud/alicloud/src/protocol/coap/local\CoAPMessage.c ****     }
 241:C:/Users/stapi/OneDrive/Desktop/GD32VW553/V1_MQTT_OK/GD32VW55X_Wifi_BLE_SDK/GD32VW55x_RELEASE_V1.0.2/MSDK/cloud/alicloud/src/protocol/coap/local\CoAPMessage.c ****     message->header.code  = code;
 794              		.loc 1 241 5 is_stmt 1
 795              		.loc 1 241 27 is_stmt 0
 796 0002 A300B500 		sb	a1,1(a0)
 242:C:/Users/stapi/OneDrive/Desktop/GD32VW553/V1_MQTT_OK/GD32VW55X_Wifi_BLE_SDK/GD32VW55x_RELEASE_V1.0.2/MSDK/cloud/alicloud/src/protocol/coap/local\CoAPMessage.c ****     return COAP_SUCCESS;
 797              		.loc 1 242 5 is_stmt 1
 798              		.loc 1 242 12 is_stmt 0
 799 0006 0145     		li	a0,0
 800              	.LVL88:
 801 0008 8280     		ret
 802              	.LVL89:
 803              	.L70:
 239:C:/Users/stapi/OneDrive/Desktop/GD32VW553/V1_MQTT_OK/GD32VW55X_Wifi_BLE_SDK/GD32VW55x_RELEASE_V1.0.2/MSDK/cloud/alicloud/src/protocol/coap/local\CoAPMessage.c ****         return COAP_ERROR_NULL;
 804              		.loc 1 239 16
 805 000a 13052010 		li	a0,258
 806              	.LVL90:
 243:C:/Users/stapi/OneDrive/Desktop/GD32VW553/V1_MQTT_OK/GD32VW55X_Wifi_BLE_SDK/GD32VW55x_RELEASE_V1.0.2/MSDK/cloud/alicloud/src/protocol/coap/local\CoAPMessage.c **** }
 807              		.loc 1 243 1
 808 000e 8280     		ret
 809              		.cfi_endproc
 810              	.LFE29:
 812              		.section	.text.CoAPMessageCode_get,"ax",@progbits
 813              		.align	1
 814              		.globl	CoAPMessageCode_get
 816              	CoAPMessageCode_get:
 817              	.LFB30:
 244:C:/Users/stapi/OneDrive/Desktop/GD32VW553/V1_MQTT_OK/GD32VW55X_Wifi_BLE_SDK/GD32VW55x_RELEASE_V1.0.2/MSDK/cloud/alicloud/src/protocol/coap/local\CoAPMessage.c **** 
 245:C:/Users/stapi/OneDrive/Desktop/GD32VW553/V1_MQTT_OK/GD32VW55X_Wifi_BLE_SDK/GD32VW55x_RELEASE_V1.0.2/MSDK/cloud/alicloud/src/protocol/coap/local\CoAPMessage.c **** int CoAPMessageCode_get(CoAPMessage *message, CoAPMessageCode *code)
 246:C:/Users/stapi/OneDrive/Desktop/GD32VW553/V1_MQTT_OK/GD32VW55X_Wifi_BLE_SDK/GD32VW55x_RELEASE_V1.0.2/MSDK/cloud/alicloud/src/protocol/coap/local\CoAPMessage.c **** {
 818              		.loc 1 246 1 is_stmt 1
 819              		.cfi_startproc
 820              	.LVL91:
 247:C:/Users/stapi/OneDrive/Desktop/GD32VW553/V1_MQTT_OK/GD32VW55X_Wifi_BLE_SDK/GD32VW55x_RELEASE_V1.0.2/MSDK/cloud/alicloud/src/protocol/coap/local\CoAPMessage.c ****     if (NULL == message || NULL == code) {
 821              		.loc 1 247 5
 246:C:/Users/stapi/OneDrive/Desktop/GD32VW553/V1_MQTT_OK/GD32VW55X_Wifi_BLE_SDK/GD32VW55x_RELEASE_V1.0.2/MSDK/cloud/alicloud/src/protocol/coap/local\CoAPMessage.c ****     if (NULL == message || NULL == code) {
 822              		.loc 1 246 1 is_stmt 0
 823 0000 AA87     		mv	a5,a0
 248:C:/Users/stapi/OneDrive/Desktop/GD32VW553/V1_MQTT_OK/GD32VW55X_Wifi_BLE_SDK/GD32VW55x_RELEASE_V1.0.2/MSDK/cloud/alicloud/src/protocol/coap/local\CoAPMessage.c ****         return COAP_ERROR_NULL;
 824              		.loc 1 248 16
 825 0002 13052010 		li	a0,258
 826              	.LVL92:
 247:C:/Users/stapi/OneDrive/Desktop/GD32VW553/V1_MQTT_OK/GD32VW55X_Wifi_BLE_SDK/GD32VW55x_RELEASE_V1.0.2/MSDK/cloud/alicloud/src/protocol/coap/local\CoAPMessage.c ****     if (NULL == message || NULL == code) {
 827              		.loc 1 247 8
 828 0006 99C7     		beq	a5,zero,.L71
 247:C:/Users/stapi/OneDrive/Desktop/GD32VW553/V1_MQTT_OK/GD32VW55X_Wifi_BLE_SDK/GD32VW55x_RELEASE_V1.0.2/MSDK/cloud/alicloud/src/protocol/coap/local\CoAPMessage.c ****     if (NULL == message || NULL == code) {
 829              		.loc 1 247 25 discriminator 1
 830 0008 91C5     		beq	a1,zero,.L71
 249:C:/Users/stapi/OneDrive/Desktop/GD32VW553/V1_MQTT_OK/GD32VW55X_Wifi_BLE_SDK/GD32VW55x_RELEASE_V1.0.2/MSDK/cloud/alicloud/src/protocol/coap/local\CoAPMessage.c ****     }
 250:C:/Users/stapi/OneDrive/Desktop/GD32VW553/V1_MQTT_OK/GD32VW55X_Wifi_BLE_SDK/GD32VW55x_RELEASE_V1.0.2/MSDK/cloud/alicloud/src/protocol/coap/local\CoAPMessage.c ****     *code = message->header.code;
 831              		.loc 1 250 5 is_stmt 1
 832              		.loc 1 250 28 is_stmt 0
 833 000a 83C71700 		lbu	a5,1(a5)
 834              	.LVL93:
 251:C:/Users/stapi/OneDrive/Desktop/GD32VW553/V1_MQTT_OK/GD32VW55X_Wifi_BLE_SDK/GD32VW55x_RELEASE_V1.0.2/MSDK/cloud/alicloud/src/protocol/coap/local\CoAPMessage.c ****     return COAP_SUCCESS;
 835              		.loc 1 251 12
 836 000e 0145     		li	a0,0
 250:C:/Users/stapi/OneDrive/Desktop/GD32VW553/V1_MQTT_OK/GD32VW55X_Wifi_BLE_SDK/GD32VW55x_RELEASE_V1.0.2/MSDK/cloud/alicloud/src/protocol/coap/local\CoAPMessage.c ****     return COAP_SUCCESS;
 837              		.loc 1 250 28
 838 0010 9CC1     		sw	a5,0(a1)
 839              		.loc 1 251 5 is_stmt 1
 840              		.loc 1 251 12 is_stmt 0
 841 0012 8280     		ret
 842              	.LVL94:
 843              	.L71:
 252:C:/Users/stapi/OneDrive/Desktop/GD32VW553/V1_MQTT_OK/GD32VW55X_Wifi_BLE_SDK/GD32VW55x_RELEASE_V1.0.2/MSDK/cloud/alicloud/src/protocol/coap/local\CoAPMessage.c **** }
 844              		.loc 1 252 1
 845 0014 8280     		ret
 846              		.cfi_endproc
 847              	.LFE30:
 849              		.section	.text.CoAPMessageToken_set,"ax",@progbits
 850              		.align	1
 851              		.globl	CoAPMessageToken_set
 853              	CoAPMessageToken_set:
 854              	.LFB31:
 253:C:/Users/stapi/OneDrive/Desktop/GD32VW553/V1_MQTT_OK/GD32VW55X_Wifi_BLE_SDK/GD32VW55x_RELEASE_V1.0.2/MSDK/cloud/alicloud/src/protocol/coap/local\CoAPMessage.c **** 
 254:C:/Users/stapi/OneDrive/Desktop/GD32VW553/V1_MQTT_OK/GD32VW55X_Wifi_BLE_SDK/GD32VW55x_RELEASE_V1.0.2/MSDK/cloud/alicloud/src/protocol/coap/local\CoAPMessage.c **** int CoAPMessageToken_set(CoAPMessage *message, unsigned char *token,
 255:C:/Users/stapi/OneDrive/Desktop/GD32VW553/V1_MQTT_OK/GD32VW55X_Wifi_BLE_SDK/GD32VW55x_RELEASE_V1.0.2/MSDK/cloud/alicloud/src/protocol/coap/local\CoAPMessage.c ****                          unsigned char tokenlen)
 256:C:/Users/stapi/OneDrive/Desktop/GD32VW553/V1_MQTT_OK/GD32VW55X_Wifi_BLE_SDK/GD32VW55x_RELEASE_V1.0.2/MSDK/cloud/alicloud/src/protocol/coap/local\CoAPMessage.c **** {
 855              		.loc 1 256 1 is_stmt 1
 856              		.cfi_startproc
 857              	.LVL95:
 257:C:/Users/stapi/OneDrive/Desktop/GD32VW553/V1_MQTT_OK/GD32VW55X_Wifi_BLE_SDK/GD32VW55x_RELEASE_V1.0.2/MSDK/cloud/alicloud/src/protocol/coap/local\CoAPMessage.c ****     if (NULL == message || NULL == token) {
 858              		.loc 1 257 5
 859              		.loc 1 257 8 is_stmt 0
 860 0000 29C1     		beq	a0,zero,.L77
 256:C:/Users/stapi/OneDrive/Desktop/GD32VW553/V1_MQTT_OK/GD32VW55X_Wifi_BLE_SDK/GD32VW55x_RELEASE_V1.0.2/MSDK/cloud/alicloud/src/protocol/coap/local\CoAPMessage.c ****     if (NULL == message || NULL == token) {
 861              		.loc 1 256 1 discriminator 1
 862 0002 17030000 		call	t0,__riscv_save_2
 862      E7020300 
 863              		.cfi_offset 9, -12
 864              		.cfi_offset 8, -8
 865              		.cfi_offset 1, -4
 866              		.cfi_def_cfa_offset 16
 867 000a 2A84     		mv	s0,a0
 258:C:/Users/stapi/OneDrive/Desktop/GD32VW553/V1_MQTT_OK/GD32VW55X_Wifi_BLE_SDK/GD32VW55x_RELEASE_V1.0.2/MSDK/cloud/alicloud/src/protocol/coap/local\CoAPMessage.c ****         return COAP_ERROR_NULL;
 868              		.loc 1 258 16 discriminator 1
 869 000c 13052010 		li	a0,258
 870              	.LVL96:
 257:C:/Users/stapi/OneDrive/Desktop/GD32VW553/V1_MQTT_OK/GD32VW55X_Wifi_BLE_SDK/GD32VW55x_RELEASE_V1.0.2/MSDK/cloud/alicloud/src/protocol/coap/local\CoAPMessage.c ****     if (NULL == message || NULL == token) {
 871              		.loc 1 257 25 discriminator 1
 872 0010 8DC5     		beq	a1,zero,.L75
 259:C:/Users/stapi/OneDrive/Desktop/GD32VW553/V1_MQTT_OK/GD32VW55X_Wifi_BLE_SDK/GD32VW55x_RELEASE_V1.0.2/MSDK/cloud/alicloud/src/protocol/coap/local\CoAPMessage.c ****     }
 260:C:/Users/stapi/OneDrive/Desktop/GD32VW553/V1_MQTT_OK/GD32VW55X_Wifi_BLE_SDK/GD32VW55x_RELEASE_V1.0.2/MSDK/cloud/alicloud/src/protocol/coap/local\CoAPMessage.c ****     if (COAP_MSG_MAX_TOKEN_LEN < tokenlen) {
 873              		.loc 1 260 8
 874 0012 A147     		li	a5,8
 875 0014 B284     		mv	s1,a2
 876              		.loc 1 260 5 is_stmt 1
 261:C:/Users/stapi/OneDrive/Desktop/GD32VW553/V1_MQTT_OK/GD32VW55X_Wifi_BLE_SDK/GD32VW55x_RELEASE_V1.0.2/MSDK/cloud/alicloud/src/protocol/coap/local\CoAPMessage.c ****         return COAP_ERROR_INVALID_LENGTH;
 877              		.loc 1 261 16 is_stmt 0
 878 0016 13054010 		li	a0,260
 260:C:/Users/stapi/OneDrive/Desktop/GD32VW553/V1_MQTT_OK/GD32VW55X_Wifi_BLE_SDK/GD32VW55x_RELEASE_V1.0.2/MSDK/cloud/alicloud/src/protocol/coap/local\CoAPMessage.c ****         return COAP_ERROR_INVALID_LENGTH;
 879              		.loc 1 260 8
 880 001a 63E0C702 		bgtu	a2,a5,.L75
 262:C:/Users/stapi/OneDrive/Desktop/GD32VW553/V1_MQTT_OK/GD32VW55X_Wifi_BLE_SDK/GD32VW55x_RELEASE_V1.0.2/MSDK/cloud/alicloud/src/protocol/coap/local\CoAPMessage.c ****     }
 263:C:/Users/stapi/OneDrive/Desktop/GD32VW553/V1_MQTT_OK/GD32VW55X_Wifi_BLE_SDK/GD32VW55x_RELEASE_V1.0.2/MSDK/cloud/alicloud/src/protocol/coap/local\CoAPMessage.c ****     memcpy(message->token, token, tokenlen);
 881              		.loc 1 263 5 is_stmt 1
 882 001e 13054400 		addi	a0,s0,4
 883 0022 97000000 		call	memcpy
 883      E7800000 
 884              	.LVL97:
 264:C:/Users/stapi/OneDrive/Desktop/GD32VW553/V1_MQTT_OK/GD32VW55X_Wifi_BLE_SDK/GD32VW55x_RELEASE_V1.0.2/MSDK/cloud/alicloud/src/protocol/coap/local\CoAPMessage.c ****     message->header.tokenlen = tokenlen;
 885              		.loc 1 264 5
 886              		.loc 1 264 30 is_stmt 0
 887 002a 03460400 		lbu	a2,0(s0)
 888 002e 9204     		slli	s1,s1,4
 265:C:/Users/stapi/OneDrive/Desktop/GD32VW553/V1_MQTT_OK/GD32VW55X_Wifi_BLE_SDK/GD32VW55x_RELEASE_V1.0.2/MSDK/cloud/alicloud/src/protocol/coap/local\CoAPMessage.c **** 
 266:C:/Users/stapi/OneDrive/Desktop/GD32VW553/V1_MQTT_OK/GD32VW55X_Wifi_BLE_SDK/GD32VW55x_RELEASE_V1.0.2/MSDK/cloud/alicloud/src/protocol/coap/local\CoAPMessage.c ****     return COAP_SUCCESS;
 889              		.loc 1 266 12
 890 0030 0145     		li	a0,0
 264:C:/Users/stapi/OneDrive/Desktop/GD32VW553/V1_MQTT_OK/GD32VW55X_Wifi_BLE_SDK/GD32VW55x_RELEASE_V1.0.2/MSDK/cloud/alicloud/src/protocol/coap/local\CoAPMessage.c ****     message->header.tokenlen = tokenlen;
 891              		.loc 1 264 30
 892 0032 3D8A     		andi	a2,a2,15
 893 0034 D18C     		or	s1,a2,s1
 894 0036 23009400 		sb	s1,0(s0)
 895              		.loc 1 266 5 is_stmt 1
 896              	.L75:
 267:C:/Users/stapi/OneDrive/Desktop/GD32VW553/V1_MQTT_OK/GD32VW55X_Wifi_BLE_SDK/GD32VW55x_RELEASE_V1.0.2/MSDK/cloud/alicloud/src/protocol/coap/local\CoAPMessage.c **** }
 897              		.loc 1 267 1 is_stmt 0
 898 003a 17030000 		tail	__riscv_restore_2
 898      67000300 
 899              		.cfi_restore 9
 900              		.cfi_restore 8
 901              		.cfi_restore 1
 902              		.cfi_def_cfa_offset 0
 903              	.LVL98:
 904              	.L77:
 258:C:/Users/stapi/OneDrive/Desktop/GD32VW553/V1_MQTT_OK/GD32VW55X_Wifi_BLE_SDK/GD32VW55x_RELEASE_V1.0.2/MSDK/cloud/alicloud/src/protocol/coap/local\CoAPMessage.c ****     }
 905              		.loc 1 258 16
 906 0042 13052010 		li	a0,258
 907              	.LVL99:
 908              		.loc 1 267 1
 909 0046 8280     		ret
 910              		.cfi_endproc
 911              	.LFE31:
 913              		.section	.text.CoAPMessageUserData_set,"ax",@progbits
 914              		.align	1
 915              		.globl	CoAPMessageUserData_set
 917              	CoAPMessageUserData_set:
 918              	.LFB32:
 268:C:/Users/stapi/OneDrive/Desktop/GD32VW553/V1_MQTT_OK/GD32VW55X_Wifi_BLE_SDK/GD32VW55x_RELEASE_V1.0.2/MSDK/cloud/alicloud/src/protocol/coap/local\CoAPMessage.c **** 
 269:C:/Users/stapi/OneDrive/Desktop/GD32VW553/V1_MQTT_OK/GD32VW55X_Wifi_BLE_SDK/GD32VW55x_RELEASE_V1.0.2/MSDK/cloud/alicloud/src/protocol/coap/local\CoAPMessage.c **** int CoAPMessageUserData_set(CoAPMessage *message, void *userdata)
 270:C:/Users/stapi/OneDrive/Desktop/GD32VW553/V1_MQTT_OK/GD32VW55X_Wifi_BLE_SDK/GD32VW55x_RELEASE_V1.0.2/MSDK/cloud/alicloud/src/protocol/coap/local\CoAPMessage.c **** {
 919              		.loc 1 270 1 is_stmt 1
 920              		.cfi_startproc
 921              	.LVL100:
 271:C:/Users/stapi/OneDrive/Desktop/GD32VW553/V1_MQTT_OK/GD32VW55X_Wifi_BLE_SDK/GD32VW55x_RELEASE_V1.0.2/MSDK/cloud/alicloud/src/protocol/coap/local\CoAPMessage.c ****     if (NULL == message || NULL == userdata) {
 922              		.loc 1 271 5
 270:C:/Users/stapi/OneDrive/Desktop/GD32VW553/V1_MQTT_OK/GD32VW55X_Wifi_BLE_SDK/GD32VW55x_RELEASE_V1.0.2/MSDK/cloud/alicloud/src/protocol/coap/local\CoAPMessage.c ****     if (NULL == message || NULL == userdata) {
 923              		.loc 1 270 1 is_stmt 0
 924 0000 AA87     		mv	a5,a0
 272:C:/Users/stapi/OneDrive/Desktop/GD32VW553/V1_MQTT_OK/GD32VW55X_Wifi_BLE_SDK/GD32VW55x_RELEASE_V1.0.2/MSDK/cloud/alicloud/src/protocol/coap/local\CoAPMessage.c ****         return COAP_ERROR_NULL;
 925              		.loc 1 272 16
 926 0002 13052010 		li	a0,258
 927              	.LVL101:
 271:C:/Users/stapi/OneDrive/Desktop/GD32VW553/V1_MQTT_OK/GD32VW55X_Wifi_BLE_SDK/GD32VW55x_RELEASE_V1.0.2/MSDK/cloud/alicloud/src/protocol/coap/local\CoAPMessage.c ****     if (NULL == message || NULL == userdata) {
 928              		.loc 1 271 8
 929 0006 89C7     		beq	a5,zero,.L84
 271:C:/Users/stapi/OneDrive/Desktop/GD32VW553/V1_MQTT_OK/GD32VW55X_Wifi_BLE_SDK/GD32VW55x_RELEASE_V1.0.2/MSDK/cloud/alicloud/src/protocol/coap/local\CoAPMessage.c ****     if (NULL == message || NULL == userdata) {
 930              		.loc 1 271 25 discriminator 1
 931 0008 81C5     		beq	a1,zero,.L84
 273:C:/Users/stapi/OneDrive/Desktop/GD32VW553/V1_MQTT_OK/GD32VW55X_Wifi_BLE_SDK/GD32VW55x_RELEASE_V1.0.2/MSDK/cloud/alicloud/src/protocol/coap/local\CoAPMessage.c ****     }
 274:C:/Users/stapi/OneDrive/Desktop/GD32VW553/V1_MQTT_OK/GD32VW55X_Wifi_BLE_SDK/GD32VW55x_RELEASE_V1.0.2/MSDK/cloud/alicloud/src/protocol/coap/local\CoAPMessage.c ****     message->user = userdata;
 932              		.loc 1 274 5 is_stmt 1
 933              		.loc 1 274 19 is_stmt 0
 934 000a ACDF     		sw	a1,120(a5)
 275:C:/Users/stapi/OneDrive/Desktop/GD32VW553/V1_MQTT_OK/GD32VW55X_Wifi_BLE_SDK/GD32VW55x_RELEASE_V1.0.2/MSDK/cloud/alicloud/src/protocol/coap/local\CoAPMessage.c ****     return COAP_SUCCESS;
 935              		.loc 1 275 5 is_stmt 1
 936              		.loc 1 275 12 is_stmt 0
 937 000c 0145     		li	a0,0
 938 000e 8280     		ret
 939              	.L84:
 276:C:/Users/stapi/OneDrive/Desktop/GD32VW553/V1_MQTT_OK/GD32VW55X_Wifi_BLE_SDK/GD32VW55x_RELEASE_V1.0.2/MSDK/cloud/alicloud/src/protocol/coap/local\CoAPMessage.c **** }
 940              		.loc 1 276 1
 941 0010 8280     		ret
 942              		.cfi_endproc
 943              	.LFE32:
 945              		.section	.text.CoAPMessageKeep_Set,"ax",@progbits
 946              		.align	1
 947              		.globl	CoAPMessageKeep_Set
 949              	CoAPMessageKeep_Set:
 950              	.LFB33:
 277:C:/Users/stapi/OneDrive/Desktop/GD32VW553/V1_MQTT_OK/GD32VW55X_Wifi_BLE_SDK/GD32VW55x_RELEASE_V1.0.2/MSDK/cloud/alicloud/src/protocol/coap/local\CoAPMessage.c **** 
 278:C:/Users/stapi/OneDrive/Desktop/GD32VW553/V1_MQTT_OK/GD32VW55X_Wifi_BLE_SDK/GD32VW55x_RELEASE_V1.0.2/MSDK/cloud/alicloud/src/protocol/coap/local\CoAPMessage.c **** int CoAPMessageKeep_Set(CoAPMessage *message, int keep)
 279:C:/Users/stapi/OneDrive/Desktop/GD32VW553/V1_MQTT_OK/GD32VW55X_Wifi_BLE_SDK/GD32VW55x_RELEASE_V1.0.2/MSDK/cloud/alicloud/src/protocol/coap/local\CoAPMessage.c **** {
 951              		.loc 1 279 1 is_stmt 1
 952              		.cfi_startproc
 953              	.LVL102:
 280:C:/Users/stapi/OneDrive/Desktop/GD32VW553/V1_MQTT_OK/GD32VW55X_Wifi_BLE_SDK/GD32VW55x_RELEASE_V1.0.2/MSDK/cloud/alicloud/src/protocol/coap/local\CoAPMessage.c ****     if (NULL == message || keep < 0) {
 954              		.loc 1 280 5
 279:C:/Users/stapi/OneDrive/Desktop/GD32VW553/V1_MQTT_OK/GD32VW55X_Wifi_BLE_SDK/GD32VW55x_RELEASE_V1.0.2/MSDK/cloud/alicloud/src/protocol/coap/local\CoAPMessage.c ****     if (NULL == message || keep < 0) {
 955              		.loc 1 279 1 is_stmt 0
 956 0000 AA87     		mv	a5,a0
 281:C:/Users/stapi/OneDrive/Desktop/GD32VW553/V1_MQTT_OK/GD32VW55X_Wifi_BLE_SDK/GD32VW55x_RELEASE_V1.0.2/MSDK/cloud/alicloud/src/protocol/coap/local\CoAPMessage.c ****         return COAP_ERROR_NULL;
 957              		.loc 1 281 16
 958 0002 13052010 		li	a0,258
 959              	.LVL103:
 280:C:/Users/stapi/OneDrive/Desktop/GD32VW553/V1_MQTT_OK/GD32VW55X_Wifi_BLE_SDK/GD32VW55x_RELEASE_V1.0.2/MSDK/cloud/alicloud/src/protocol/coap/local\CoAPMessage.c ****     if (NULL == message || keep < 0) {
 960              		.loc 1 280 8
 961 0006 91C7     		beq	a5,zero,.L88
 280:C:/Users/stapi/OneDrive/Desktop/GD32VW553/V1_MQTT_OK/GD32VW55X_Wifi_BLE_SDK/GD32VW55x_RELEASE_V1.0.2/MSDK/cloud/alicloud/src/protocol/coap/local\CoAPMessage.c ****     if (NULL == message || keep < 0) {
 962              		.loc 1 280 25 discriminator 1
 963 0008 63C50500 		blt	a1,zero,.L88
 282:C:/Users/stapi/OneDrive/Desktop/GD32VW553/V1_MQTT_OK/GD32VW55X_Wifi_BLE_SDK/GD32VW55x_RELEASE_V1.0.2/MSDK/cloud/alicloud/src/protocol/coap/local\CoAPMessage.c ****     }
 283:C:/Users/stapi/OneDrive/Desktop/GD32VW553/V1_MQTT_OK/GD32VW55X_Wifi_BLE_SDK/GD32VW55x_RELEASE_V1.0.2/MSDK/cloud/alicloud/src/protocol/coap/local\CoAPMessage.c ****     message->keep = keep;
 964              		.loc 1 283 5 is_stmt 1
 965              		.loc 1 283 19 is_stmt 0
 966 000c ECDF     		sw	a1,124(a5)
 284:C:/Users/stapi/OneDrive/Desktop/GD32VW553/V1_MQTT_OK/GD32VW55X_Wifi_BLE_SDK/GD32VW55x_RELEASE_V1.0.2/MSDK/cloud/alicloud/src/protocol/coap/local\CoAPMessage.c ****     return COAP_SUCCESS;
 967              		.loc 1 284 5 is_stmt 1
 968              		.loc 1 284 12 is_stmt 0
 969 000e 0145     		li	a0,0
 970 0010 8280     		ret
 971              	.L88:
 285:C:/Users/stapi/OneDrive/Desktop/GD32VW553/V1_MQTT_OK/GD32VW55X_Wifi_BLE_SDK/GD32VW55x_RELEASE_V1.0.2/MSDK/cloud/alicloud/src/protocol/coap/local\CoAPMessage.c **** }
 972              		.loc 1 285 1
 973 0012 8280     		ret
 974              		.cfi_endproc
 975              	.LFE33:
 977              		.section	.text.CoAPMessagePayload_set,"ax",@progbits
 978              		.align	1
 979              		.globl	CoAPMessagePayload_set
 981              	CoAPMessagePayload_set:
 982              	.LFB34:
 286:C:/Users/stapi/OneDrive/Desktop/GD32VW553/V1_MQTT_OK/GD32VW55X_Wifi_BLE_SDK/GD32VW55x_RELEASE_V1.0.2/MSDK/cloud/alicloud/src/protocol/coap/local\CoAPMessage.c **** 
 287:C:/Users/stapi/OneDrive/Desktop/GD32VW553/V1_MQTT_OK/GD32VW55X_Wifi_BLE_SDK/GD32VW55x_RELEASE_V1.0.2/MSDK/cloud/alicloud/src/protocol/coap/local\CoAPMessage.c **** int CoAPMessagePayload_set(CoAPMessage *message, unsigned char *payload,
 288:C:/Users/stapi/OneDrive/Desktop/GD32VW553/V1_MQTT_OK/GD32VW55X_Wifi_BLE_SDK/GD32VW55x_RELEASE_V1.0.2/MSDK/cloud/alicloud/src/protocol/coap/local\CoAPMessage.c ****                            unsigned short payloadlen)
 289:C:/Users/stapi/OneDrive/Desktop/GD32VW553/V1_MQTT_OK/GD32VW55X_Wifi_BLE_SDK/GD32VW55x_RELEASE_V1.0.2/MSDK/cloud/alicloud/src/protocol/coap/local\CoAPMessage.c **** {
 983              		.loc 1 289 1 is_stmt 1
 984              		.cfi_startproc
 985              	.LVL104:
 290:C:/Users/stapi/OneDrive/Desktop/GD32VW553/V1_MQTT_OK/GD32VW55X_Wifi_BLE_SDK/GD32VW55x_RELEASE_V1.0.2/MSDK/cloud/alicloud/src/protocol/coap/local\CoAPMessage.c ****     if (NULL == message || (0 < payloadlen && NULL == payload)) {
 986              		.loc 1 290 5
 289:C:/Users/stapi/OneDrive/Desktop/GD32VW553/V1_MQTT_OK/GD32VW55X_Wifi_BLE_SDK/GD32VW55x_RELEASE_V1.0.2/MSDK/cloud/alicloud/src/protocol/coap/local\CoAPMessage.c ****     if (NULL == message || (0 < payloadlen && NULL == payload)) {
 987              		.loc 1 289 1 is_stmt 0
 988 0000 AA87     		mv	a5,a0
 989              		.loc 1 290 8
 990 0002 11C9     		beq	a0,zero,.L95
 991              		.loc 1 290 25 discriminator 1
 992 0004 01C6     		beq	a2,zero,.L94
 291:C:/Users/stapi/OneDrive/Desktop/GD32VW553/V1_MQTT_OK/GD32VW55X_Wifi_BLE_SDK/GD32VW55x_RELEASE_V1.0.2/MSDK/cloud/alicloud/src/protocol/coap/local\CoAPMessage.c ****         return COAP_ERROR_NULL;
 993              		.loc 1 291 16 discriminator 2
 994 0006 13052010 		li	a0,258
 995              	.LVL105:
 290:C:/Users/stapi/OneDrive/Desktop/GD32VW553/V1_MQTT_OK/GD32VW55X_Wifi_BLE_SDK/GD32VW55x_RELEASE_V1.0.2/MSDK/cloud/alicloud/src/protocol/coap/local\CoAPMessage.c ****     if (NULL == message || (0 < payloadlen && NULL == payload)) {
 996              		.loc 1 290 44 discriminator 2
 997 000a 81C9     		beq	a1,zero,.L92
 998              	.L94:
 292:C:/Users/stapi/OneDrive/Desktop/GD32VW553/V1_MQTT_OK/GD32VW55X_Wifi_BLE_SDK/GD32VW55x_RELEASE_V1.0.2/MSDK/cloud/alicloud/src/protocol/coap/local\CoAPMessage.c ****     }
 293:C:/Users/stapi/OneDrive/Desktop/GD32VW553/V1_MQTT_OK/GD32VW55X_Wifi_BLE_SDK/GD32VW55x_RELEASE_V1.0.2/MSDK/cloud/alicloud/src/protocol/coap/local\CoAPMessage.c ****     message->payload = payload;
 999              		.loc 1 293 5 is_stmt 1
 1000              		.loc 1 293 22 is_stmt 0
 1001 000c ACDB     		sw	a1,112(a5)
 294:C:/Users/stapi/OneDrive/Desktop/GD32VW553/V1_MQTT_OK/GD32VW55X_Wifi_BLE_SDK/GD32VW55x_RELEASE_V1.0.2/MSDK/cloud/alicloud/src/protocol/coap/local\CoAPMessage.c ****     message->payloadlen = payloadlen;
 1002              		.loc 1 294 5 is_stmt 1
 1003              		.loc 1 294 25 is_stmt 0
 1004 000e 2397C706 		sh	a2,110(a5)
 295:C:/Users/stapi/OneDrive/Desktop/GD32VW553/V1_MQTT_OK/GD32VW55X_Wifi_BLE_SDK/GD32VW55x_RELEASE_V1.0.2/MSDK/cloud/alicloud/src/protocol/coap/local\CoAPMessage.c **** 
 296:C:/Users/stapi/OneDrive/Desktop/GD32VW553/V1_MQTT_OK/GD32VW55X_Wifi_BLE_SDK/GD32VW55x_RELEASE_V1.0.2/MSDK/cloud/alicloud/src/protocol/coap/local\CoAPMessage.c ****     return COAP_SUCCESS;
 1005              		.loc 1 296 5 is_stmt 1
 1006              		.loc 1 296 12 is_stmt 0
 1007 0012 0145     		li	a0,0
 1008 0014 8280     		ret
 1009              	.LVL106:
 1010              	.L95:
 291:C:/Users/stapi/OneDrive/Desktop/GD32VW553/V1_MQTT_OK/GD32VW55X_Wifi_BLE_SDK/GD32VW55x_RELEASE_V1.0.2/MSDK/cloud/alicloud/src/protocol/coap/local\CoAPMessage.c ****     }
 1011              		.loc 1 291 16
 1012 0016 13052010 		li	a0,258
 1013              	.LVL107:
 1014              	.L92:
 297:C:/Users/stapi/OneDrive/Desktop/GD32VW553/V1_MQTT_OK/GD32VW55X_Wifi_BLE_SDK/GD32VW55x_RELEASE_V1.0.2/MSDK/cloud/alicloud/src/protocol/coap/local\CoAPMessage.c **** }
 1015              		.loc 1 297 1
 1016 001a 8280     		ret
 1017              		.cfi_endproc
 1018              	.LFE34:
 1020              		.section	.text.CoAPMessageHandler_set,"ax",@progbits
 1021              		.align	1
 1022              		.globl	CoAPMessageHandler_set
 1024              	CoAPMessageHandler_set:
 1025              	.LFB35:
 298:C:/Users/stapi/OneDrive/Desktop/GD32VW553/V1_MQTT_OK/GD32VW55X_Wifi_BLE_SDK/GD32VW55x_RELEASE_V1.0.2/MSDK/cloud/alicloud/src/protocol/coap/local\CoAPMessage.c **** 
 299:C:/Users/stapi/OneDrive/Desktop/GD32VW553/V1_MQTT_OK/GD32VW55X_Wifi_BLE_SDK/GD32VW55x_RELEASE_V1.0.2/MSDK/cloud/alicloud/src/protocol/coap/local\CoAPMessage.c **** int CoAPMessageHandler_set(CoAPMessage *message, CoAPSendMsgHandler handler)
 300:C:/Users/stapi/OneDrive/Desktop/GD32VW553/V1_MQTT_OK/GD32VW55X_Wifi_BLE_SDK/GD32VW55x_RELEASE_V1.0.2/MSDK/cloud/alicloud/src/protocol/coap/local\CoAPMessage.c **** {
 1026              		.loc 1 300 1 is_stmt 1
 1027              		.cfi_startproc
 1028              	.LVL108:
 301:C:/Users/stapi/OneDrive/Desktop/GD32VW553/V1_MQTT_OK/GD32VW55X_Wifi_BLE_SDK/GD32VW55x_RELEASE_V1.0.2/MSDK/cloud/alicloud/src/protocol/coap/local\CoAPMessage.c ****     if (NULL == message) {
 1029              		.loc 1 301 5
 1030              		.loc 1 301 8 is_stmt 0
 1031 0000 01C5     		beq	a0,zero,.L102
 302:C:/Users/stapi/OneDrive/Desktop/GD32VW553/V1_MQTT_OK/GD32VW55X_Wifi_BLE_SDK/GD32VW55x_RELEASE_V1.0.2/MSDK/cloud/alicloud/src/protocol/coap/local\CoAPMessage.c ****         return COAP_ERROR_NULL;
 303:C:/Users/stapi/OneDrive/Desktop/GD32VW553/V1_MQTT_OK/GD32VW55X_Wifi_BLE_SDK/GD32VW55x_RELEASE_V1.0.2/MSDK/cloud/alicloud/src/protocol/coap/local\CoAPMessage.c ****     }
 304:C:/Users/stapi/OneDrive/Desktop/GD32VW553/V1_MQTT_OK/GD32VW55X_Wifi_BLE_SDK/GD32VW55x_RELEASE_V1.0.2/MSDK/cloud/alicloud/src/protocol/coap/local\CoAPMessage.c ****     message->handler = handler;
 1032              		.loc 1 304 5 is_stmt 1
 1033              		.loc 1 304 22 is_stmt 0
 1034 0002 6CD9     		sw	a1,116(a0)
 305:C:/Users/stapi/OneDrive/Desktop/GD32VW553/V1_MQTT_OK/GD32VW55X_Wifi_BLE_SDK/GD32VW55x_RELEASE_V1.0.2/MSDK/cloud/alicloud/src/protocol/coap/local\CoAPMessage.c ****     return COAP_SUCCESS;
 1035              		.loc 1 305 5 is_stmt 1
 1036              		.loc 1 305 12 is_stmt 0
 1037 0004 0145     		li	a0,0
 1038              	.LVL109:
 1039 0006 8280     		ret
 1040              	.LVL110:
 1041              	.L102:
 302:C:/Users/stapi/OneDrive/Desktop/GD32VW553/V1_MQTT_OK/GD32VW55X_Wifi_BLE_SDK/GD32VW55x_RELEASE_V1.0.2/MSDK/cloud/alicloud/src/protocol/coap/local\CoAPMessage.c ****         return COAP_ERROR_NULL;
 1042              		.loc 1 302 16
 1043 0008 13052010 		li	a0,258
 1044              	.LVL111:
 306:C:/Users/stapi/OneDrive/Desktop/GD32VW553/V1_MQTT_OK/GD32VW55X_Wifi_BLE_SDK/GD32VW55x_RELEASE_V1.0.2/MSDK/cloud/alicloud/src/protocol/coap/local\CoAPMessage.c **** }
 1045              		.loc 1 306 1
 1046 000c 8280     		ret
 1047              		.cfi_endproc
 1048              	.LFE35:
 1050              		.section	.text.CoAPMessage_init,"ax",@progbits
 1051              		.align	1
 1052              		.globl	CoAPMessage_init
 1054              	CoAPMessage_init:
 1055              	.LFB36:
 307:C:/Users/stapi/OneDrive/Desktop/GD32VW553/V1_MQTT_OK/GD32VW55X_Wifi_BLE_SDK/GD32VW55x_RELEASE_V1.0.2/MSDK/cloud/alicloud/src/protocol/coap/local\CoAPMessage.c **** 
 308:C:/Users/stapi/OneDrive/Desktop/GD32VW553/V1_MQTT_OK/GD32VW55X_Wifi_BLE_SDK/GD32VW55x_RELEASE_V1.0.2/MSDK/cloud/alicloud/src/protocol/coap/local\CoAPMessage.c **** int CoAPMessage_init(CoAPMessage *message)
 309:C:/Users/stapi/OneDrive/Desktop/GD32VW553/V1_MQTT_OK/GD32VW55X_Wifi_BLE_SDK/GD32VW55x_RELEASE_V1.0.2/MSDK/cloud/alicloud/src/protocol/coap/local\CoAPMessage.c **** {
 1056              		.loc 1 309 1 is_stmt 1
 1057              		.cfi_startproc
 1058              	.LVL112:
 310:C:/Users/stapi/OneDrive/Desktop/GD32VW553/V1_MQTT_OK/GD32VW55X_Wifi_BLE_SDK/GD32VW55x_RELEASE_V1.0.2/MSDK/cloud/alicloud/src/protocol/coap/local\CoAPMessage.c ****     int count = 0;
 1059              		.loc 1 310 5
 311:C:/Users/stapi/OneDrive/Desktop/GD32VW553/V1_MQTT_OK/GD32VW55X_Wifi_BLE_SDK/GD32VW55x_RELEASE_V1.0.2/MSDK/cloud/alicloud/src/protocol/coap/local\CoAPMessage.c **** 
 312:C:/Users/stapi/OneDrive/Desktop/GD32VW553/V1_MQTT_OK/GD32VW55X_Wifi_BLE_SDK/GD32VW55x_RELEASE_V1.0.2/MSDK/cloud/alicloud/src/protocol/coap/local\CoAPMessage.c ****     if (NULL == message) {
 1060              		.loc 1 312 5
 1061              		.loc 1 312 8 is_stmt 0
 1062 0000 0DC9     		beq	a0,zero,.L105
 309:C:/Users/stapi/OneDrive/Desktop/GD32VW553/V1_MQTT_OK/GD32VW55X_Wifi_BLE_SDK/GD32VW55x_RELEASE_V1.0.2/MSDK/cloud/alicloud/src/protocol/coap/local\CoAPMessage.c ****     int count = 0;
 1063              		.loc 1 309 1
 1064 0002 17030000 		call	t0,__riscv_save_1
 1064      E7020300 
 1065              		.cfi_offset 8, -8
 1066              		.cfi_offset 1, -4
 1067              		.cfi_def_cfa_offset 16
 313:C:/Users/stapi/OneDrive/Desktop/GD32VW553/V1_MQTT_OK/GD32VW55X_Wifi_BLE_SDK/GD32VW55x_RELEASE_V1.0.2/MSDK/cloud/alicloud/src/protocol/coap/local\CoAPMessage.c ****         return COAP_ERROR_NULL;
 314:C:/Users/stapi/OneDrive/Desktop/GD32VW553/V1_MQTT_OK/GD32VW55X_Wifi_BLE_SDK/GD32VW55x_RELEASE_V1.0.2/MSDK/cloud/alicloud/src/protocol/coap/local\CoAPMessage.c ****     }
 315:C:/Users/stapi/OneDrive/Desktop/GD32VW553/V1_MQTT_OK/GD32VW55X_Wifi_BLE_SDK/GD32VW55x_RELEASE_V1.0.2/MSDK/cloud/alicloud/src/protocol/coap/local\CoAPMessage.c ****     memset(message, 0x00, sizeof(CoAPMessage));
 1068              		.loc 1 315 5
 1069 000a 13068008 		li	a2,136
 1070 000e 8145     		li	a1,0
 1071 0010 2A84     		mv	s0,a0
 1072              		.loc 1 315 5 is_stmt 1
 1073 0012 97000000 		call	memset
 1073      E7800000 
 1074              	.LVL113:
 316:C:/Users/stapi/OneDrive/Desktop/GD32VW553/V1_MQTT_OK/GD32VW55X_Wifi_BLE_SDK/GD32VW55x_RELEASE_V1.0.2/MSDK/cloud/alicloud/src/protocol/coap/local\CoAPMessage.c ****     message->header.version    = COAP_CUR_VERSION;
 1075              		.loc 1 316 5
 317:C:/Users/stapi/OneDrive/Desktop/GD32VW553/V1_MQTT_OK/GD32VW55X_Wifi_BLE_SDK/GD32VW55x_RELEASE_V1.0.2/MSDK/cloud/alicloud/src/protocol/coap/local\CoAPMessage.c ****     message->header.type       = COAP_MESSAGE_TYPE_ACK;
 1076              		.loc 1 317 5
 316:C:/Users/stapi/OneDrive/Desktop/GD32VW553/V1_MQTT_OK/GD32VW55X_Wifi_BLE_SDK/GD32VW55x_RELEASE_V1.0.2/MSDK/cloud/alicloud/src/protocol/coap/local\CoAPMessage.c ****     message->header.version    = COAP_CUR_VERSION;
 1077              		.loc 1 316 32 is_stmt 0
 1078 001a 83470400 		lbu	a5,0(s0)
 318:C:/Users/stapi/OneDrive/Desktop/GD32VW553/V1_MQTT_OK/GD32VW55X_Wifi_BLE_SDK/GD32VW55x_RELEASE_V1.0.2/MSDK/cloud/alicloud/src/protocol/coap/local\CoAPMessage.c ****     message->header.code       = COAP_MSG_CODE_EMPTY_MESSAGE;
 319:C:/Users/stapi/OneDrive/Desktop/GD32VW553/V1_MQTT_OK/GD32VW55X_Wifi_BLE_SDK/GD32VW55x_RELEASE_V1.0.2/MSDK/cloud/alicloud/src/protocol/coap/local\CoAPMessage.c ****     message->keep              = NOKEEP;
 320:C:/Users/stapi/OneDrive/Desktop/GD32VW553/V1_MQTT_OK/GD32VW55X_Wifi_BLE_SDK/GD32VW55x_RELEASE_V1.0.2/MSDK/cloud/alicloud/src/protocol/coap/local\CoAPMessage.c ****     return COAP_SUCCESS;
 1079              		.loc 1 320 12
 1080 001e 0145     		li	a0,0
 316:C:/Users/stapi/OneDrive/Desktop/GD32VW553/V1_MQTT_OK/GD32VW55X_Wifi_BLE_SDK/GD32VW55x_RELEASE_V1.0.2/MSDK/cloud/alicloud/src/protocol/coap/local\CoAPMessage.c ****     message->header.type       = COAP_MESSAGE_TYPE_ACK;
 1081              		.loc 1 316 32
 1082 0020 C19B     		andi	a5,a5,-16
 1083 0022 93E79700 		ori	a5,a5,9
 1084 0026 2300F400 		sb	a5,0(s0)
 318:C:/Users/stapi/OneDrive/Desktop/GD32VW553/V1_MQTT_OK/GD32VW55X_Wifi_BLE_SDK/GD32VW55x_RELEASE_V1.0.2/MSDK/cloud/alicloud/src/protocol/coap/local\CoAPMessage.c ****     message->header.code       = COAP_MSG_CODE_EMPTY_MESSAGE;
 1085              		.loc 1 318 5 is_stmt 1
 319:C:/Users/stapi/OneDrive/Desktop/GD32VW553/V1_MQTT_OK/GD32VW55X_Wifi_BLE_SDK/GD32VW55x_RELEASE_V1.0.2/MSDK/cloud/alicloud/src/protocol/coap/local\CoAPMessage.c ****     return COAP_SUCCESS;
 1086              		.loc 1 319 5
 1087              		.loc 1 320 5
 321:C:/Users/stapi/OneDrive/Desktop/GD32VW553/V1_MQTT_OK/GD32VW55X_Wifi_BLE_SDK/GD32VW55x_RELEASE_V1.0.2/MSDK/cloud/alicloud/src/protocol/coap/local\CoAPMessage.c **** }
 1088              		.loc 1 321 1 is_stmt 0
 1089 002a 17030000 		tail	__riscv_restore_1
 1089      67000300 
 1090              		.cfi_restore 8
 1091              		.cfi_restore 1
 1092              		.cfi_def_cfa_offset 0
 1093              	.LVL114:
 1094              	.L105:
 313:C:/Users/stapi/OneDrive/Desktop/GD32VW553/V1_MQTT_OK/GD32VW55X_Wifi_BLE_SDK/GD32VW55x_RELEASE_V1.0.2/MSDK/cloud/alicloud/src/protocol/coap/local\CoAPMessage.c ****     }
 1095              		.loc 1 313 16
 1096 0032 13052010 		li	a0,258
 1097              	.LVL115:
 1098              		.loc 1 321 1
 1099 0036 8280     		ret
 1100              		.cfi_endproc
 1101              	.LFE36:
 1103              		.section	.text.CoAPMessage_destory,"ax",@progbits
 1104              		.align	1
 1105              		.globl	CoAPMessage_destory
 1107              	CoAPMessage_destory:
 1108              	.LFB37:
 322:C:/Users/stapi/OneDrive/Desktop/GD32VW553/V1_MQTT_OK/GD32VW55X_Wifi_BLE_SDK/GD32VW55x_RELEASE_V1.0.2/MSDK/cloud/alicloud/src/protocol/coap/local\CoAPMessage.c **** 
 323:C:/Users/stapi/OneDrive/Desktop/GD32VW553/V1_MQTT_OK/GD32VW55X_Wifi_BLE_SDK/GD32VW55x_RELEASE_V1.0.2/MSDK/cloud/alicloud/src/protocol/coap/local\CoAPMessage.c **** int CoAPMessage_destory(CoAPMessage *message)
 324:C:/Users/stapi/OneDrive/Desktop/GD32VW553/V1_MQTT_OK/GD32VW55X_Wifi_BLE_SDK/GD32VW55x_RELEASE_V1.0.2/MSDK/cloud/alicloud/src/protocol/coap/local\CoAPMessage.c **** {
 1109              		.loc 1 324 1 is_stmt 1
 1110              		.cfi_startproc
 1111              	.LVL116:
 325:C:/Users/stapi/OneDrive/Desktop/GD32VW553/V1_MQTT_OK/GD32VW55X_Wifi_BLE_SDK/GD32VW55x_RELEASE_V1.0.2/MSDK/cloud/alicloud/src/protocol/coap/local\CoAPMessage.c ****     int count = 0;
 1112              		.loc 1 325 5
 326:C:/Users/stapi/OneDrive/Desktop/GD32VW553/V1_MQTT_OK/GD32VW55X_Wifi_BLE_SDK/GD32VW55x_RELEASE_V1.0.2/MSDK/cloud/alicloud/src/protocol/coap/local\CoAPMessage.c ****     if (NULL == message) {
 1113              		.loc 1 326 5
 1114              		.loc 1 326 8 is_stmt 0
 1115 0000 0DC9     		beq	a0,zero,.L114
 324:C:/Users/stapi/OneDrive/Desktop/GD32VW553/V1_MQTT_OK/GD32VW55X_Wifi_BLE_SDK/GD32VW55x_RELEASE_V1.0.2/MSDK/cloud/alicloud/src/protocol/coap/local\CoAPMessage.c ****     int count = 0;
 1116              		.loc 1 324 1
 1117 0002 17030000 		call	t0,__riscv_save_2
 1117      E7020300 
 1118              		.cfi_offset 9, -12
 1119              		.cfi_offset 8, -8
 1120              		.cfi_offset 1, -4
 1121              		.cfi_def_cfa_offset 16
 1122 000a 93040501 		addi	s1,a0,16
 1123 000e 13040507 		addi	s0,a0,112
 1124              	.LVL117:
 1125              	.L113:
 1126              	.LBB52:
 1127              	.LBB53:
 327:C:/Users/stapi/OneDrive/Desktop/GD32VW553/V1_MQTT_OK/GD32VW55X_Wifi_BLE_SDK/GD32VW55x_RELEASE_V1.0.2/MSDK/cloud/alicloud/src/protocol/coap/local\CoAPMessage.c ****         return COAP_ERROR_NULL;
 328:C:/Users/stapi/OneDrive/Desktop/GD32VW553/V1_MQTT_OK/GD32VW55X_Wifi_BLE_SDK/GD32VW55x_RELEASE_V1.0.2/MSDK/cloud/alicloud/src/protocol/coap/local\CoAPMessage.c ****     }
 329:C:/Users/stapi/OneDrive/Desktop/GD32VW553/V1_MQTT_OK/GD32VW55X_Wifi_BLE_SDK/GD32VW55x_RELEASE_V1.0.2/MSDK/cloud/alicloud/src/protocol/coap/local\CoAPMessage.c **** 
 330:C:/Users/stapi/OneDrive/Desktop/GD32VW553/V1_MQTT_OK/GD32VW55X_Wifi_BLE_SDK/GD32VW55x_RELEASE_V1.0.2/MSDK/cloud/alicloud/src/protocol/coap/local\CoAPMessage.c ****     for (count = 0; count < COAP_MSG_MAX_OPTION_NUM; count++) {
 331:C:/Users/stapi/OneDrive/Desktop/GD32VW553/V1_MQTT_OK/GD32VW55X_Wifi_BLE_SDK/GD32VW55x_RELEASE_V1.0.2/MSDK/cloud/alicloud/src/protocol/coap/local\CoAPMessage.c ****         if (NULL != message->options[count].val) {
 1128              		.loc 1 331 9 is_stmt 1
 1129              		.loc 1 331 44 is_stmt 0
 1130 0012 8840     		lw	a0,0(s1)
 1131              		.loc 1 331 12
 1132 0014 19C5     		beq	a0,zero,.L112
 332:C:/Users/stapi/OneDrive/Desktop/GD32VW553/V1_MQTT_OK/GD32VW55X_Wifi_BLE_SDK/GD32VW55x_RELEASE_V1.0.2/MSDK/cloud/alicloud/src/protocol/coap/local\CoAPMessage.c ****             coap_free(message->options[count].val);
 1133              		.loc 1 332 13 is_stmt 1
 1134 0016 97000000 		call	LITE_free_internal
 1134      E7800000 
 1135              	.LVL118:
 333:C:/Users/stapi/OneDrive/Desktop/GD32VW553/V1_MQTT_OK/GD32VW55X_Wifi_BLE_SDK/GD32VW55x_RELEASE_V1.0.2/MSDK/cloud/alicloud/src/protocol/coap/local\CoAPMessage.c ****             message->options[count].val = NULL;
 1136              		.loc 1 333 13
 1137              		.loc 1 333 41 is_stmt 0
 1138 001e 23A00400 		sw	zero,0(s1)
 1139              	.L112:
 330:C:/Users/stapi/OneDrive/Desktop/GD32VW553/V1_MQTT_OK/GD32VW55X_Wifi_BLE_SDK/GD32VW55x_RELEASE_V1.0.2/MSDK/cloud/alicloud/src/protocol/coap/local\CoAPMessage.c ****         if (NULL != message->options[count].val) {
 1140              		.loc 1 330 54 is_stmt 1
 330:C:/Users/stapi/OneDrive/Desktop/GD32VW553/V1_MQTT_OK/GD32VW55X_Wifi_BLE_SDK/GD32VW55x_RELEASE_V1.0.2/MSDK/cloud/alicloud/src/protocol/coap/local\CoAPMessage.c ****         if (NULL != message->options[count].val) {
 1141              		.loc 1 330 21
 330:C:/Users/stapi/OneDrive/Desktop/GD32VW553/V1_MQTT_OK/GD32VW55X_Wifi_BLE_SDK/GD32VW55x_RELEASE_V1.0.2/MSDK/cloud/alicloud/src/protocol/coap/local\CoAPMessage.c ****         if (NULL != message->options[count].val) {
 1142              		.loc 1 330 5 is_stmt 0
 1143 0022 A104     		addi	s1,s1,8
 1144 0024 E39784FE 		bne	s1,s0,.L113
 1145 0028 0145     		li	a0,0
 1146              	.LBE53:
 1147              	.LBE52:
 334:C:/Users/stapi/OneDrive/Desktop/GD32VW553/V1_MQTT_OK/GD32VW55X_Wifi_BLE_SDK/GD32VW55x_RELEASE_V1.0.2/MSDK/cloud/alicloud/src/protocol/coap/local\CoAPMessage.c ****         }
 335:C:/Users/stapi/OneDrive/Desktop/GD32VW553/V1_MQTT_OK/GD32VW55X_Wifi_BLE_SDK/GD32VW55x_RELEASE_V1.0.2/MSDK/cloud/alicloud/src/protocol/coap/local\CoAPMessage.c ****     }
 336:C:/Users/stapi/OneDrive/Desktop/GD32VW553/V1_MQTT_OK/GD32VW55X_Wifi_BLE_SDK/GD32VW55x_RELEASE_V1.0.2/MSDK/cloud/alicloud/src/protocol/coap/local\CoAPMessage.c **** 
 337:C:/Users/stapi/OneDrive/Desktop/GD32VW553/V1_MQTT_OK/GD32VW55X_Wifi_BLE_SDK/GD32VW55x_RELEASE_V1.0.2/MSDK/cloud/alicloud/src/protocol/coap/local\CoAPMessage.c ****     return COAP_SUCCESS;
 338:C:/Users/stapi/OneDrive/Desktop/GD32VW553/V1_MQTT_OK/GD32VW55X_Wifi_BLE_SDK/GD32VW55x_RELEASE_V1.0.2/MSDK/cloud/alicloud/src/protocol/coap/local\CoAPMessage.c **** }
 1148              		.loc 1 338 1
 1149 002a 17030000 		tail	__riscv_restore_2
 1149      67000300 
 1150              		.cfi_restore 9
 1151              		.cfi_restore 8
 1152              		.cfi_restore 1
 1153              		.cfi_def_cfa_offset 0
 1154              	.LVL119:
 1155              	.L114:
 327:C:/Users/stapi/OneDrive/Desktop/GD32VW553/V1_MQTT_OK/GD32VW55X_Wifi_BLE_SDK/GD32VW55x_RELEASE_V1.0.2/MSDK/cloud/alicloud/src/protocol/coap/local\CoAPMessage.c ****     }
 1156              		.loc 1 327 16
 1157 0032 13052010 		li	a0,258
 1158              	.LVL120:
 1159              		.loc 1 338 1
 1160 0036 8280     		ret
 1161              		.cfi_endproc
 1162              	.LFE37:
 1164              		.section	.rodata.CoAPMessageCheckDup.str1.4,"aMS",@progbits,1
 1165              		.align	2
 1166              	.LC0:
 1167 0000 72656365 		.string	"receive repeat data"
 1167      69766520 
 1167      72657065 
 1167      61742064 
 1167      61746100 
 1168              		.align	2
 1169              	.LC1:
 1170 0014 636F6170 		.string	"coap_local"
 1170      5F6C6F63 
 1170      616C00
 1171              		.section	.text.CoAPMessageCheckDup,"ax",@progbits
 1172              		.align	1
 1173              		.globl	CoAPMessageCheckDup
 1175              	CoAPMessageCheckDup:
 1176              	.LFB38:
 339:C:/Users/stapi/OneDrive/Desktop/GD32VW553/V1_MQTT_OK/GD32VW55X_Wifi_BLE_SDK/GD32VW55x_RELEASE_V1.0.2/MSDK/cloud/alicloud/src/protocol/coap/local\CoAPMessage.c **** 
 340:C:/Users/stapi/OneDrive/Desktop/GD32VW553/V1_MQTT_OK/GD32VW55X_Wifi_BLE_SDK/GD32VW55x_RELEASE_V1.0.2/MSDK/cloud/alicloud/src/protocol/coap/local\CoAPMessage.c **** int CoAPMessageCheckDup(CoAPMessage *message, CoAPPreventDuplicate* preventDup)
 341:C:/Users/stapi/OneDrive/Desktop/GD32VW553/V1_MQTT_OK/GD32VW55X_Wifi_BLE_SDK/GD32VW55x_RELEASE_V1.0.2/MSDK/cloud/alicloud/src/protocol/coap/local\CoAPMessage.c **** {
 1177              		.loc 1 341 1 is_stmt 1
 1178              		.cfi_startproc
 1179              	.LVL121:
 342:C:/Users/stapi/OneDrive/Desktop/GD32VW553/V1_MQTT_OK/GD32VW55X_Wifi_BLE_SDK/GD32VW55x_RELEASE_V1.0.2/MSDK/cloud/alicloud/src/protocol/coap/local\CoAPMessage.c ****     unsigned char checksum[16];
 1180              		.loc 1 342 5
 343:C:/Users/stapi/OneDrive/Desktop/GD32VW553/V1_MQTT_OK/GD32VW55X_Wifi_BLE_SDK/GD32VW55x_RELEASE_V1.0.2/MSDK/cloud/alicloud/src/protocol/coap/local\CoAPMessage.c ****     int i;
 1181              		.loc 1 343 5
 344:C:/Users/stapi/OneDrive/Desktop/GD32VW553/V1_MQTT_OK/GD32VW55X_Wifi_BLE_SDK/GD32VW55x_RELEASE_V1.0.2/MSDK/cloud/alicloud/src/protocol/coap/local\CoAPMessage.c **** 
 345:C:/Users/stapi/OneDrive/Desktop/GD32VW553/V1_MQTT_OK/GD32VW55X_Wifi_BLE_SDK/GD32VW55x_RELEASE_V1.0.2/MSDK/cloud/alicloud/src/protocol/coap/local\CoAPMessage.c ****     if (message == NULL || preventDup == NULL) {
 1182              		.loc 1 345 5
 1183              		.loc 1 345 8 is_stmt 0
 1184 0000 79C9     		beq	a0,zero,.L129
 341:C:/Users/stapi/OneDrive/Desktop/GD32VW553/V1_MQTT_OK/GD32VW55X_Wifi_BLE_SDK/GD32VW55x_RELEASE_V1.0.2/MSDK/cloud/alicloud/src/protocol/coap/local\CoAPMessage.c ****     unsigned char checksum[16];
 1185              		.loc 1 341 1 discriminator 1
 1186 0002 17030000 		call	t0,__riscv_save_4
 1186      E7020300 
 1187              		.cfi_offset 19, -20
 1188              		.cfi_offset 18, -16
 1189              		.cfi_offset 9, -12
 1190              		.cfi_offset 8, -8
 1191              		.cfi_offset 1, -4
 1192              		.cfi_def_cfa_offset 32
 1193 000a 2A89     		mv	s2,a0
 1194 000c 4111     		addi	sp,sp,-16
 1195              		.cfi_def_cfa_offset 48
 1196 000e 2E84     		mv	s0,a1
 346:C:/Users/stapi/OneDrive/Desktop/GD32VW553/V1_MQTT_OK/GD32VW55X_Wifi_BLE_SDK/GD32VW55x_RELEASE_V1.0.2/MSDK/cloud/alicloud/src/protocol/coap/local\CoAPMessage.c ****         return 0;
 1197              		.loc 1 346 16 discriminator 1
 1198 0010 0145     		li	a0,0
 1199              	.LVL122:
 345:C:/Users/stapi/OneDrive/Desktop/GD32VW553/V1_MQTT_OK/GD32VW55X_Wifi_BLE_SDK/GD32VW55x_RELEASE_V1.0.2/MSDK/cloud/alicloud/src/protocol/coap/local\CoAPMessage.c ****         return 0;
 1200              		.loc 1 345 25 discriminator 1
 1201 0012 C9C9     		beq	a1,zero,.L123
 347:C:/Users/stapi/OneDrive/Desktop/GD32VW553/V1_MQTT_OK/GD32VW55X_Wifi_BLE_SDK/GD32VW55x_RELEASE_V1.0.2/MSDK/cloud/alicloud/src/protocol/coap/local\CoAPMessage.c ****     }
 348:C:/Users/stapi/OneDrive/Desktop/GD32VW553/V1_MQTT_OK/GD32VW55X_Wifi_BLE_SDK/GD32VW55x_RELEASE_V1.0.2/MSDK/cloud/alicloud/src/protocol/coap/local\CoAPMessage.c ****     uint64_t tick = HAL_UptimeMs ();
 1202              		.loc 1 348 5 is_stmt 1
 1203              		.loc 1 348 21 is_stmt 0
 1204 0014 97000000 		call	HAL_UptimeMs
 1204      E7800000 
 1205              	.LVL123:
 349:C:/Users/stapi/OneDrive/Desktop/GD32VW553/V1_MQTT_OK/GD32VW55X_Wifi_BLE_SDK/GD32VW55x_RELEASE_V1.0.2/MSDK/cloud/alicloud/src/protocol/coap/local\CoAPMessage.c ****     if (tick > preventDup->last_tick + 60000) {
 1206              		.loc 1 349 38
 1207 001c 1C44     		lw	a5,8(s0)
 1208 001e 3D67     		li	a4,61440
 1209 0020 5444     		lw	a3,12(s0)
 1210 0022 130707A6 		addi	a4,a4,-1440
 1211 0026 3E97     		add	a4,a5,a4
 1212 0028 B337F700 		sltu	a5,a4,a5
 1213 002c B697     		add	a5,a5,a3
 348:C:/Users/stapi/OneDrive/Desktop/GD32VW553/V1_MQTT_OK/GD32VW55X_Wifi_BLE_SDK/GD32VW55x_RELEASE_V1.0.2/MSDK/cloud/alicloud/src/protocol/coap/local\CoAPMessage.c ****     if (tick > preventDup->last_tick + 60000) {
 1214              		.loc 1 348 21
 1215 002e AA89     		mv	s3,a0
 1216 0030 AE84     		mv	s1,a1
 1217              	.LVL124:
 1218              		.loc 1 349 5 is_stmt 1
 1219              		.loc 1 349 8 is_stmt 0
 1220 0032 63E6B700 		bgtu	a1,a5,.L131
 1221 0036 639FF500 		bne	a1,a5,.L125
 1222 003a 637DA700 		bleu	a0,a4,.L125
 1223              	.L131:
 350:C:/Users/stapi/OneDrive/Desktop/GD32VW553/V1_MQTT_OK/GD32VW55X_Wifi_BLE_SDK/GD32VW55x_RELEASE_V1.0.2/MSDK/cloud/alicloud/src/protocol/coap/local\CoAPMessage.c ****         memset (preventDup, 0, sizeof(CoAPPreventDuplicate));
 1224              		.loc 1 350 9 is_stmt 1
 1225 003e 13060005 		li	a2,80
 1226 0042 8145     		li	a1,0
 1227 0044 2285     		mv	a0,s0
 1228              	.LVL125:
 1229 0046 97000000 		call	memset
 1229      E7800000 
 1230              	.LVL126:
 351:C:/Users/stapi/OneDrive/Desktop/GD32VW553/V1_MQTT_OK/GD32VW55X_Wifi_BLE_SDK/GD32VW55x_RELEASE_V1.0.2/MSDK/cloud/alicloud/src/protocol/coap/local\CoAPMessage.c ****         preventDup->last_tick = tick;
 1231              		.loc 1 351 9
 1232              		.loc 1 351 31 is_stmt 0
 1233 004e 23243401 		sw	s3,8(s0)
 1234 0052 44C4     		sw	s1,12(s0)
 1235              	.L125:
 352:C:/Users/stapi/OneDrive/Desktop/GD32VW553/V1_MQTT_OK/GD32VW55X_Wifi_BLE_SDK/GD32VW55x_RELEASE_V1.0.2/MSDK/cloud/alicloud/src/protocol/coap/local\CoAPMessage.c ****     }
 353:C:/Users/stapi/OneDrive/Desktop/GD32VW553/V1_MQTT_OK/GD32VW55X_Wifi_BLE_SDK/GD32VW55x_RELEASE_V1.0.2/MSDK/cloud/alicloud/src/protocol/coap/local\CoAPMessage.c **** 
 354:C:/Users/stapi/OneDrive/Desktop/GD32VW553/V1_MQTT_OK/GD32VW55X_Wifi_BLE_SDK/GD32VW55x_RELEASE_V1.0.2/MSDK/cloud/alicloud/src/protocol/coap/local\CoAPMessage.c ****     utils_md5 ((unsigned char*)&message->header, sizeof(CoAPMsgHeader), checksum);
 1236              		.loc 1 354 5 is_stmt 1
 1237 0054 4A85     		mv	a0,s2
 1238 0056 0A86     		mv	a2,sp
 1239 0058 9145     		li	a1,4
 1240 005a 93040401 		addi	s1,s0,16
 1241              	.LVL127:
 1242 005e 97000000 		call	utils_md5
 1242      E7800000 
 1243              	.LVL128:
 355:C:/Users/stapi/OneDrive/Desktop/GD32VW553/V1_MQTT_OK/GD32VW55X_Wifi_BLE_SDK/GD32VW55x_RELEASE_V1.0.2/MSDK/cloud/alicloud/src/protocol/coap/local\CoAPMessage.c **** 
 356:C:/Users/stapi/OneDrive/Desktop/GD32VW553/V1_MQTT_OK/GD32VW55X_Wifi_BLE_SDK/GD32VW55x_RELEASE_V1.0.2/MSDK/cloud/alicloud/src/protocol/coap/local\CoAPMessage.c ****     for (i = 0; i < DUP_CHECKSUM_COUNT; ++i) {
 1244              		.loc 1 356 5
 1245              		.loc 1 356 17
 1246 0066 9309C404 		addi	s3,s0,76
 1247 006a 2689     		mv	s2,s1
 1248              	.LVL129:
 1249              	.L128:
 357:C:/Users/stapi/OneDrive/Desktop/GD32VW553/V1_MQTT_OK/GD32VW55X_Wifi_BLE_SDK/GD32VW55x_RELEASE_V1.0.2/MSDK/cloud/alicloud/src/protocol/coap/local\CoAPMessage.c ****         if (memcmp(preventDup->checksum_list + i * DUP_CHECKSUM_LEN, checksum, DUP_CHECKSUM_LEN) ==
 1250              		.loc 1 357 9
 1251              		.loc 1 357 13 is_stmt 0
 1252 006c 1146     		li	a2,4
 1253 006e 8A85     		mv	a1,sp
 1254 0070 2685     		mv	a0,s1
 1255 0072 97000000 		call	memcmp
 1255      E7800000 
 1256              	.LVL130:
 1257              		.loc 1 357 12
 1258 007a 15E9     		bne	a0,zero,.L127
 358:C:/Users/stapi/OneDrive/Desktop/GD32VW553/V1_MQTT_OK/GD32VW55X_Wifi_BLE_SDK/GD32VW55x_RELEASE_V1.0.2/MSDK/cloud/alicloud/src/protocol/coap/local\CoAPMessage.c ****             COAP_DEBUG("receive repeat data");
 1259              		.loc 1 358 13 is_stmt 1
 1260 007c 37070000 		lui	a4,%hi(.LC0)
 1261 0080 B7050000 		lui	a1,%hi(.LANCHOR0)
 1262 0084 37050000 		lui	a0,%hi(.LC1)
 1263 0088 13050500 		addi	a0,a0,%lo(.LC1)
 1264 008c 13070700 		addi	a4,a4,%lo(.LC0)
 1265 0090 9546     		li	a3,5
 1266 0092 13066016 		li	a2,358
 1267 0096 93850500 		addi	a1,a1,%lo(.LANCHOR0)
 1268 009a 97000000 		call	LITE_syslog
 1268      E7800000 
 1269              	.LVL131:
 359:C:/Users/stapi/OneDrive/Desktop/GD32VW553/V1_MQTT_OK/GD32VW55X_Wifi_BLE_SDK/GD32VW55x_RELEASE_V1.0.2/MSDK/cloud/alicloud/src/protocol/coap/local\CoAPMessage.c ****             return 1;
 1270              		.loc 1 359 13
 1271              		.loc 1 359 20 is_stmt 0
 1272 00a2 0545     		li	a0,1
 1273              	.L123:
 360:C:/Users/stapi/OneDrive/Desktop/GD32VW553/V1_MQTT_OK/GD32VW55X_Wifi_BLE_SDK/GD32VW55x_RELEASE_V1.0.2/MSDK/cloud/alicloud/src/protocol/coap/local\CoAPMessage.c ****         }
 361:C:/Users/stapi/OneDrive/Desktop/GD32VW553/V1_MQTT_OK/GD32VW55X_Wifi_BLE_SDK/GD32VW55x_RELEASE_V1.0.2/MSDK/cloud/alicloud/src/protocol/coap/local\CoAPMessage.c ****     }
 362:C:/Users/stapi/OneDrive/Desktop/GD32VW553/V1_MQTT_OK/GD32VW55X_Wifi_BLE_SDK/GD32VW55x_RELEASE_V1.0.2/MSDK/cloud/alicloud/src/protocol/coap/local\CoAPMessage.c **** 
 363:C:/Users/stapi/OneDrive/Desktop/GD32VW553/V1_MQTT_OK/GD32VW55X_Wifi_BLE_SDK/GD32VW55x_RELEASE_V1.0.2/MSDK/cloud/alicloud/src/protocol/coap/local\CoAPMessage.c ****     memcpy (preventDup->checksum_list + preventDup->write_index * DUP_CHECKSUM_LEN, checksum, DUP_C
 364:C:/Users/stapi/OneDrive/Desktop/GD32VW553/V1_MQTT_OK/GD32VW55X_Wifi_BLE_SDK/GD32VW55x_RELEASE_V1.0.2/MSDK/cloud/alicloud/src/protocol/coap/local\CoAPMessage.c ****     preventDup->write_index = (preventDup->write_index + 1) % DUP_CHECKSUM_COUNT;
 365:C:/Users/stapi/OneDrive/Desktop/GD32VW553/V1_MQTT_OK/GD32VW55X_Wifi_BLE_SDK/GD32VW55x_RELEASE_V1.0.2/MSDK/cloud/alicloud/src/protocol/coap/local\CoAPMessage.c ****     return 0;
 366:C:/Users/stapi/OneDrive/Desktop/GD32VW553/V1_MQTT_OK/GD32VW55X_Wifi_BLE_SDK/GD32VW55x_RELEASE_V1.0.2/MSDK/cloud/alicloud/src/protocol/coap/local\CoAPMessage.c **** }
 1274              		.loc 1 366 1
 1275 00a4 4101     		addi	sp,sp,16
 1276              		.cfi_remember_state
 1277              		.cfi_def_cfa_offset 0
 1278 00a6 17030000 		tail	__riscv_restore_4
 1278      67000300 
 1279              		.cfi_restore 19
 1280              		.cfi_restore 18
 1281              		.cfi_restore 9
 1282              		.cfi_restore 8
 1283              		.cfi_restore 1
 1284              		.cfi_def_cfa_offset -32
 1285              	.L127:
 1286              		.cfi_restore_state
 356:C:/Users/stapi/OneDrive/Desktop/GD32VW553/V1_MQTT_OK/GD32VW55X_Wifi_BLE_SDK/GD32VW55x_RELEASE_V1.0.2/MSDK/cloud/alicloud/src/protocol/coap/local\CoAPMessage.c ****         if (memcmp(preventDup->checksum_list + i * DUP_CHECKSUM_LEN, checksum, DUP_CHECKSUM_LEN) ==
 1287              		.loc 1 356 41 is_stmt 1 discriminator 2
 356:C:/Users/stapi/OneDrive/Desktop/GD32VW553/V1_MQTT_OK/GD32VW55X_Wifi_BLE_SDK/GD32VW55x_RELEASE_V1.0.2/MSDK/cloud/alicloud/src/protocol/coap/local\CoAPMessage.c ****         if (memcmp(preventDup->checksum_list + i * DUP_CHECKSUM_LEN, checksum, DUP_CHECKSUM_LEN) ==
 1288              		.loc 1 356 17 discriminator 2
 356:C:/Users/stapi/OneDrive/Desktop/GD32VW553/V1_MQTT_OK/GD32VW55X_Wifi_BLE_SDK/GD32VW55x_RELEASE_V1.0.2/MSDK/cloud/alicloud/src/protocol/coap/local\CoAPMessage.c ****         if (memcmp(preventDup->checksum_list + i * DUP_CHECKSUM_LEN, checksum, DUP_CHECKSUM_LEN) ==
 1289              		.loc 1 356 5 is_stmt 0 discriminator 2
 1290 00ae 9104     		addi	s1,s1,4
 1291 00b0 E39E34FB 		bne	s1,s3,.L128
 363:C:/Users/stapi/OneDrive/Desktop/GD32VW553/V1_MQTT_OK/GD32VW55X_Wifi_BLE_SDK/GD32VW55x_RELEASE_V1.0.2/MSDK/cloud/alicloud/src/protocol/coap/local\CoAPMessage.c ****     preventDup->write_index = (preventDup->write_index + 1) % DUP_CHECKSUM_COUNT;
 1292              		.loc 1 363 5 is_stmt 1
 363:C:/Users/stapi/OneDrive/Desktop/GD32VW553/V1_MQTT_OK/GD32VW55X_Wifi_BLE_SDK/GD32VW55x_RELEASE_V1.0.2/MSDK/cloud/alicloud/src/protocol/coap/local\CoAPMessage.c ****     preventDup->write_index = (preventDup->write_index + 1) % DUP_CHECKSUM_COUNT;
 1293              		.loc 1 363 65 is_stmt 0
 1294 00b4 0840     		lw	a0,0(s0)
 363:C:/Users/stapi/OneDrive/Desktop/GD32VW553/V1_MQTT_OK/GD32VW55X_Wifi_BLE_SDK/GD32VW55x_RELEASE_V1.0.2/MSDK/cloud/alicloud/src/protocol/coap/local\CoAPMessage.c ****     preventDup->write_index = (preventDup->write_index + 1) % DUP_CHECKSUM_COUNT;
 1295              		.loc 1 363 5
 1296 00b6 1146     		li	a2,4
 1297 00b8 8A85     		mv	a1,sp
 1298 00ba 33452521 		sh2add	a0,a0,s2
 1299 00be 97000000 		call	memcpy
 1299      E7800000 
 1300              	.LVL132:
 364:C:/Users/stapi/OneDrive/Desktop/GD32VW553/V1_MQTT_OK/GD32VW55X_Wifi_BLE_SDK/GD32VW55x_RELEASE_V1.0.2/MSDK/cloud/alicloud/src/protocol/coap/local\CoAPMessage.c ****     return 0;
 1301              		.loc 1 364 5 is_stmt 1
 364:C:/Users/stapi/OneDrive/Desktop/GD32VW553/V1_MQTT_OK/GD32VW55X_Wifi_BLE_SDK/GD32VW55x_RELEASE_V1.0.2/MSDK/cloud/alicloud/src/protocol/coap/local\CoAPMessage.c ****     return 0;
 1302              		.loc 1 364 56 is_stmt 0
 1303 00c6 1C40     		lw	a5,0(s0)
 364:C:/Users/stapi/OneDrive/Desktop/GD32VW553/V1_MQTT_OK/GD32VW55X_Wifi_BLE_SDK/GD32VW55x_RELEASE_V1.0.2/MSDK/cloud/alicloud/src/protocol/coap/local\CoAPMessage.c ****     return 0;
 1304              		.loc 1 364 61
 1305 00c8 3D47     		li	a4,15
 365:C:/Users/stapi/OneDrive/Desktop/GD32VW553/V1_MQTT_OK/GD32VW55X_Wifi_BLE_SDK/GD32VW55x_RELEASE_V1.0.2/MSDK/cloud/alicloud/src/protocol/coap/local\CoAPMessage.c **** }
 1306              		.loc 1 365 12
 1307 00ca 0145     		li	a0,0
 364:C:/Users/stapi/OneDrive/Desktop/GD32VW553/V1_MQTT_OK/GD32VW55X_Wifi_BLE_SDK/GD32VW55x_RELEASE_V1.0.2/MSDK/cloud/alicloud/src/protocol/coap/local\CoAPMessage.c ****     return 0;
 1308              		.loc 1 364 56
 1309 00cc 8507     		addi	a5,a5,1
 364:C:/Users/stapi/OneDrive/Desktop/GD32VW553/V1_MQTT_OK/GD32VW55X_Wifi_BLE_SDK/GD32VW55x_RELEASE_V1.0.2/MSDK/cloud/alicloud/src/protocol/coap/local\CoAPMessage.c ****     return 0;
 1310              		.loc 1 364 61
 1311 00ce B3E7E702 		rem	a5,a5,a4
 364:C:/Users/stapi/OneDrive/Desktop/GD32VW553/V1_MQTT_OK/GD32VW55X_Wifi_BLE_SDK/GD32VW55x_RELEASE_V1.0.2/MSDK/cloud/alicloud/src/protocol/coap/local\CoAPMessage.c ****     return 0;
 1312              		.loc 1 364 29
 1313 00d2 1CC0     		sw	a5,0(s0)
 365:C:/Users/stapi/OneDrive/Desktop/GD32VW553/V1_MQTT_OK/GD32VW55X_Wifi_BLE_SDK/GD32VW55x_RELEASE_V1.0.2/MSDK/cloud/alicloud/src/protocol/coap/local\CoAPMessage.c **** }
 1314              		.loc 1 365 5 is_stmt 1
 365:C:/Users/stapi/OneDrive/Desktop/GD32VW553/V1_MQTT_OK/GD32VW55X_Wifi_BLE_SDK/GD32VW55x_RELEASE_V1.0.2/MSDK/cloud/alicloud/src/protocol/coap/local\CoAPMessage.c **** }
 1315              		.loc 1 365 12 is_stmt 0
 1316 00d4 C1BF     		j	.L123
 1317              	.LVL133:
 1318              	.L129:
 1319              		.cfi_def_cfa_offset 0
 1320              		.cfi_restore 1
 1321              		.cfi_restore 8
 1322              		.cfi_restore 9
 1323              		.cfi_restore 18
 1324              		.cfi_restore 19
 346:C:/Users/stapi/OneDrive/Desktop/GD32VW553/V1_MQTT_OK/GD32VW55X_Wifi_BLE_SDK/GD32VW55x_RELEASE_V1.0.2/MSDK/cloud/alicloud/src/protocol/coap/local\CoAPMessage.c ****     }
 1325              		.loc 1 346 16
 1326 00d6 0145     		li	a0,0
 1327              	.LVL134:
 1328              		.loc 1 366 1
 1329 00d8 8280     		ret
 1330              		.cfi_endproc
 1331              	.LFE38:
 1333              		.section	.rodata.CoAPMessageToken_dump.str1.4,"aMS",@progbits,1
 1334              		.align	2
 1335              	.LC2:
 1336 0000 25303258 		.string	"%02X"
 1336      00
 1337 0005 000000   		.align	2
 1338              	.LC3:
 1339 0008 546F6B65 		.string	"Token Len   : %d"
 1339      6E204C65 
 1339      6E202020 
 1339      3A202564 
 1339      00
 1340 0019 000000   		.align	2
 1341              	.LC4:
 1342 001c 546F6B65 		.string	"Token       : %s"
 1342      6E202020 
 1342      20202020 
 1342      3A202573 
 1342      00
 1343              		.section	.text.CoAPMessageToken_dump,"ax",@progbits
 1344              		.align	1
 1345              		.globl	CoAPMessageToken_dump
 1347              	CoAPMessageToken_dump:
 1348              	.LFB40:
 367:C:/Users/stapi/OneDrive/Desktop/GD32VW553/V1_MQTT_OK/GD32VW55X_Wifi_BLE_SDK/GD32VW55x_RELEASE_V1.0.2/MSDK/cloud/alicloud/src/protocol/coap/local\CoAPMessage.c **** 
 368:C:/Users/stapi/OneDrive/Desktop/GD32VW553/V1_MQTT_OK/GD32VW55X_Wifi_BLE_SDK/GD32VW55x_RELEASE_V1.0.2/MSDK/cloud/alicloud/src/protocol/coap/local\CoAPMessage.c **** static int CoAPMessageList_add(CoAPContext *context, NetworkAddr *remote,
 369:C:/Users/stapi/OneDrive/Desktop/GD32VW553/V1_MQTT_OK/GD32VW55X_Wifi_BLE_SDK/GD32VW55x_RELEASE_V1.0.2/MSDK/cloud/alicloud/src/protocol/coap/local\CoAPMessage.c ****                                CoAPMessage *message, unsigned char *buffer, int len)
 370:C:/Users/stapi/OneDrive/Desktop/GD32VW553/V1_MQTT_OK/GD32VW55X_Wifi_BLE_SDK/GD32VW55x_RELEASE_V1.0.2/MSDK/cloud/alicloud/src/protocol/coap/local\CoAPMessage.c **** {
 371:C:/Users/stapi/OneDrive/Desktop/GD32VW553/V1_MQTT_OK/GD32VW55X_Wifi_BLE_SDK/GD32VW55x_RELEASE_V1.0.2/MSDK/cloud/alicloud/src/protocol/coap/local\CoAPMessage.c ****     CoAPIntContext *ctx = (CoAPIntContext *)context;
 372:C:/Users/stapi/OneDrive/Desktop/GD32VW553/V1_MQTT_OK/GD32VW55X_Wifi_BLE_SDK/GD32VW55x_RELEASE_V1.0.2/MSDK/cloud/alicloud/src/protocol/coap/local\CoAPMessage.c ****     CoAPSendNode *node = NULL;
 373:C:/Users/stapi/OneDrive/Desktop/GD32VW553/V1_MQTT_OK/GD32VW55X_Wifi_BLE_SDK/GD32VW55x_RELEASE_V1.0.2/MSDK/cloud/alicloud/src/protocol/coap/local\CoAPMessage.c ****     CoAPSendNode *next = NULL;
 374:C:/Users/stapi/OneDrive/Desktop/GD32VW553/V1_MQTT_OK/GD32VW55X_Wifi_BLE_SDK/GD32VW55x_RELEASE_V1.0.2/MSDK/cloud/alicloud/src/protocol/coap/local\CoAPMessage.c ****     int no_response = 0;
 375:C:/Users/stapi/OneDrive/Desktop/GD32VW553/V1_MQTT_OK/GD32VW55X_Wifi_BLE_SDK/GD32VW55x_RELEASE_V1.0.2/MSDK/cloud/alicloud/src/protocol/coap/local\CoAPMessage.c ****     int keep = NOKEEP;
 376:C:/Users/stapi/OneDrive/Desktop/GD32VW553/V1_MQTT_OK/GD32VW55X_Wifi_BLE_SDK/GD32VW55x_RELEASE_V1.0.2/MSDK/cloud/alicloud/src/protocol/coap/local\CoAPMessage.c **** 
 377:C:/Users/stapi/OneDrive/Desktop/GD32VW553/V1_MQTT_OK/GD32VW55X_Wifi_BLE_SDK/GD32VW55x_RELEASE_V1.0.2/MSDK/cloud/alicloud/src/protocol/coap/local\CoAPMessage.c ****     if(COAP_SUCCESS == CoAPOption_present(message, COAP_OPTION_NO_RESPONSE)){
 378:C:/Users/stapi/OneDrive/Desktop/GD32VW553/V1_MQTT_OK/GD32VW55X_Wifi_BLE_SDK/GD32VW55x_RELEASE_V1.0.2/MSDK/cloud/alicloud/src/protocol/coap/local\CoAPMessage.c ****        no_response = 1;
 379:C:/Users/stapi/OneDrive/Desktop/GD32VW553/V1_MQTT_OK/GD32VW55X_Wifi_BLE_SDK/GD32VW55x_RELEASE_V1.0.2/MSDK/cloud/alicloud/src/protocol/coap/local\CoAPMessage.c ****     }
 380:C:/Users/stapi/OneDrive/Desktop/GD32VW553/V1_MQTT_OK/GD32VW55X_Wifi_BLE_SDK/GD32VW55x_RELEASE_V1.0.2/MSDK/cloud/alicloud/src/protocol/coap/local\CoAPMessage.c ****     if (no_response && CoAPNonMsg(message->header)) {
 381:C:/Users/stapi/OneDrive/Desktop/GD32VW553/V1_MQTT_OK/GD32VW55X_Wifi_BLE_SDK/GD32VW55x_RELEASE_V1.0.2/MSDK/cloud/alicloud/src/protocol/coap/local\CoAPMessage.c ****         COAP_DEBUG("The message %d don't add to list", message->header.msgid);
 382:C:/Users/stapi/OneDrive/Desktop/GD32VW553/V1_MQTT_OK/GD32VW55X_Wifi_BLE_SDK/GD32VW55x_RELEASE_V1.0.2/MSDK/cloud/alicloud/src/protocol/coap/local\CoAPMessage.c ****         return COAP_ERROR_NULL;
 383:C:/Users/stapi/OneDrive/Desktop/GD32VW553/V1_MQTT_OK/GD32VW55X_Wifi_BLE_SDK/GD32VW55x_RELEASE_V1.0.2/MSDK/cloud/alicloud/src/protocol/coap/local\CoAPMessage.c ****     }
 384:C:/Users/stapi/OneDrive/Desktop/GD32VW553/V1_MQTT_OK/GD32VW55X_Wifi_BLE_SDK/GD32VW55x_RELEASE_V1.0.2/MSDK/cloud/alicloud/src/protocol/coap/local\CoAPMessage.c **** 
 385:C:/Users/stapi/OneDrive/Desktop/GD32VW553/V1_MQTT_OK/GD32VW55X_Wifi_BLE_SDK/GD32VW55x_RELEASE_V1.0.2/MSDK/cloud/alicloud/src/protocol/coap/local\CoAPMessage.c ****     HAL_MutexLock(ctx->sendlist.list_mutex);
 386:C:/Users/stapi/OneDrive/Desktop/GD32VW553/V1_MQTT_OK/GD32VW55X_Wifi_BLE_SDK/GD32VW55x_RELEASE_V1.0.2/MSDK/cloud/alicloud/src/protocol/coap/local\CoAPMessage.c ****     list_for_each_entry_safe(node, next, &ctx->sendlist.list, sendlist, CoAPSendNode) {
 387:C:/Users/stapi/OneDrive/Desktop/GD32VW553/V1_MQTT_OK/GD32VW55X_Wifi_BLE_SDK/GD32VW55x_RELEASE_V1.0.2/MSDK/cloud/alicloud/src/protocol/coap/local\CoAPMessage.c ****         if (NULL != node && node->keep == KEEPING){
 388:C:/Users/stapi/OneDrive/Desktop/GD32VW553/V1_MQTT_OK/GD32VW55X_Wifi_BLE_SDK/GD32VW55x_RELEASE_V1.0.2/MSDK/cloud/alicloud/src/protocol/coap/local\CoAPMessage.c ****             if (node->header.msgid == message->header.msgid) {
 389:C:/Users/stapi/OneDrive/Desktop/GD32VW553/V1_MQTT_OK/GD32VW55X_Wifi_BLE_SDK/GD32VW55x_RELEASE_V1.0.2/MSDK/cloud/alicloud/src/protocol/coap/local\CoAPMessage.c ****                 COAP_INFO("message already present!");
 390:C:/Users/stapi/OneDrive/Desktop/GD32VW553/V1_MQTT_OK/GD32VW55X_Wifi_BLE_SDK/GD32VW55x_RELEASE_V1.0.2/MSDK/cloud/alicloud/src/protocol/coap/local\CoAPMessage.c ****                 HAL_MutexUnlock(ctx->sendlist.list_mutex);
 391:C:/Users/stapi/OneDrive/Desktop/GD32VW553/V1_MQTT_OK/GD32VW55X_Wifi_BLE_SDK/GD32VW55x_RELEASE_V1.0.2/MSDK/cloud/alicloud/src/protocol/coap/local\CoAPMessage.c ****                 return COAP_SUCCESS;
 392:C:/Users/stapi/OneDrive/Desktop/GD32VW553/V1_MQTT_OK/GD32VW55X_Wifi_BLE_SDK/GD32VW55x_RELEASE_V1.0.2/MSDK/cloud/alicloud/src/protocol/coap/local\CoAPMessage.c ****             }
 393:C:/Users/stapi/OneDrive/Desktop/GD32VW553/V1_MQTT_OK/GD32VW55X_Wifi_BLE_SDK/GD32VW55x_RELEASE_V1.0.2/MSDK/cloud/alicloud/src/protocol/coap/local\CoAPMessage.c ****         }
 394:C:/Users/stapi/OneDrive/Desktop/GD32VW553/V1_MQTT_OK/GD32VW55X_Wifi_BLE_SDK/GD32VW55x_RELEASE_V1.0.2/MSDK/cloud/alicloud/src/protocol/coap/local\CoAPMessage.c ****     }
 395:C:/Users/stapi/OneDrive/Desktop/GD32VW553/V1_MQTT_OK/GD32VW55X_Wifi_BLE_SDK/GD32VW55x_RELEASE_V1.0.2/MSDK/cloud/alicloud/src/protocol/coap/local\CoAPMessage.c ****     HAL_MutexUnlock(ctx->sendlist.list_mutex);
 396:C:/Users/stapi/OneDrive/Desktop/GD32VW553/V1_MQTT_OK/GD32VW55X_Wifi_BLE_SDK/GD32VW55x_RELEASE_V1.0.2/MSDK/cloud/alicloud/src/protocol/coap/local\CoAPMessage.c **** 
 397:C:/Users/stapi/OneDrive/Desktop/GD32VW553/V1_MQTT_OK/GD32VW55X_Wifi_BLE_SDK/GD32VW55x_RELEASE_V1.0.2/MSDK/cloud/alicloud/src/protocol/coap/local\CoAPMessage.c ****     if(platform_is_multicast((const char *)remote->addr) || 1 == message->keep){
 398:C:/Users/stapi/OneDrive/Desktop/GD32VW553/V1_MQTT_OK/GD32VW55X_Wifi_BLE_SDK/GD32VW55x_RELEASE_V1.0.2/MSDK/cloud/alicloud/src/protocol/coap/local\CoAPMessage.c ****         keep = KEEPING;
 399:C:/Users/stapi/OneDrive/Desktop/GD32VW553/V1_MQTT_OK/GD32VW55X_Wifi_BLE_SDK/GD32VW55x_RELEASE_V1.0.2/MSDK/cloud/alicloud/src/protocol/coap/local\CoAPMessage.c ****     }
 400:C:/Users/stapi/OneDrive/Desktop/GD32VW553/V1_MQTT_OK/GD32VW55X_Wifi_BLE_SDK/GD32VW55x_RELEASE_V1.0.2/MSDK/cloud/alicloud/src/protocol/coap/local\CoAPMessage.c **** 
 401:C:/Users/stapi/OneDrive/Desktop/GD32VW553/V1_MQTT_OK/GD32VW55X_Wifi_BLE_SDK/GD32VW55x_RELEASE_V1.0.2/MSDK/cloud/alicloud/src/protocol/coap/local\CoAPMessage.c ****     node = coap_malloc(sizeof(CoAPSendNode));
 402:C:/Users/stapi/OneDrive/Desktop/GD32VW553/V1_MQTT_OK/GD32VW55X_Wifi_BLE_SDK/GD32VW55x_RELEASE_V1.0.2/MSDK/cloud/alicloud/src/protocol/coap/local\CoAPMessage.c ****     if (NULL != node) {
 403:C:/Users/stapi/OneDrive/Desktop/GD32VW553/V1_MQTT_OK/GD32VW55X_Wifi_BLE_SDK/GD32VW55x_RELEASE_V1.0.2/MSDK/cloud/alicloud/src/protocol/coap/local\CoAPMessage.c ****         memset(node, 0x00, sizeof(CoAPSendNode));
 404:C:/Users/stapi/OneDrive/Desktop/GD32VW553/V1_MQTT_OK/GD32VW55X_Wifi_BLE_SDK/GD32VW55x_RELEASE_V1.0.2/MSDK/cloud/alicloud/src/protocol/coap/local\CoAPMessage.c ****         node->acked        = 0;
 405:C:/Users/stapi/OneDrive/Desktop/GD32VW553/V1_MQTT_OK/GD32VW55X_Wifi_BLE_SDK/GD32VW55x_RELEASE_V1.0.2/MSDK/cloud/alicloud/src/protocol/coap/local\CoAPMessage.c ****         node->user         = message->user;
 406:C:/Users/stapi/OneDrive/Desktop/GD32VW553/V1_MQTT_OK/GD32VW55X_Wifi_BLE_SDK/GD32VW55x_RELEASE_V1.0.2/MSDK/cloud/alicloud/src/protocol/coap/local\CoAPMessage.c ****         node->header       = message->header;
 407:C:/Users/stapi/OneDrive/Desktop/GD32VW553/V1_MQTT_OK/GD32VW55X_Wifi_BLE_SDK/GD32VW55x_RELEASE_V1.0.2/MSDK/cloud/alicloud/src/protocol/coap/local\CoAPMessage.c ****         node->handler      = message->handler;
 408:C:/Users/stapi/OneDrive/Desktop/GD32VW553/V1_MQTT_OK/GD32VW55X_Wifi_BLE_SDK/GD32VW55x_RELEASE_V1.0.2/MSDK/cloud/alicloud/src/protocol/coap/local\CoAPMessage.c ****         node->msglen       = len;
 409:C:/Users/stapi/OneDrive/Desktop/GD32VW553/V1_MQTT_OK/GD32VW55X_Wifi_BLE_SDK/GD32VW55x_RELEASE_V1.0.2/MSDK/cloud/alicloud/src/protocol/coap/local\CoAPMessage.c ****         node->message      = buffer;
 410:C:/Users/stapi/OneDrive/Desktop/GD32VW553/V1_MQTT_OK/GD32VW55X_Wifi_BLE_SDK/GD32VW55x_RELEASE_V1.0.2/MSDK/cloud/alicloud/src/protocol/coap/local\CoAPMessage.c ****         node->timeout_val   = COAP_ACK_TIMEOUT * COAP_ACK_RANDOM_FACTOR;
 411:C:/Users/stapi/OneDrive/Desktop/GD32VW553/V1_MQTT_OK/GD32VW55X_Wifi_BLE_SDK/GD32VW55x_RELEASE_V1.0.2/MSDK/cloud/alicloud/src/protocol/coap/local\CoAPMessage.c ****         node->no_response = no_response;
 412:C:/Users/stapi/OneDrive/Desktop/GD32VW553/V1_MQTT_OK/GD32VW55X_Wifi_BLE_SDK/GD32VW55x_RELEASE_V1.0.2/MSDK/cloud/alicloud/src/protocol/coap/local\CoAPMessage.c ****         node->keep = keep;
 413:C:/Users/stapi/OneDrive/Desktop/GD32VW553/V1_MQTT_OK/GD32VW55X_Wifi_BLE_SDK/GD32VW55x_RELEASE_V1.0.2/MSDK/cloud/alicloud/src/protocol/coap/local\CoAPMessage.c ****         memcpy(&node->remote, remote, sizeof(NetworkAddr));
 414:C:/Users/stapi/OneDrive/Desktop/GD32VW553/V1_MQTT_OK/GD32VW55X_Wifi_BLE_SDK/GD32VW55x_RELEASE_V1.0.2/MSDK/cloud/alicloud/src/protocol/coap/local\CoAPMessage.c ****         memcpy(node->token, message->token, message->header.tokenlen);
 415:C:/Users/stapi/OneDrive/Desktop/GD32VW553/V1_MQTT_OK/GD32VW55X_Wifi_BLE_SDK/GD32VW55x_RELEASE_V1.0.2/MSDK/cloud/alicloud/src/protocol/coap/local\CoAPMessage.c **** 
 416:C:/Users/stapi/OneDrive/Desktop/GD32VW553/V1_MQTT_OK/GD32VW55X_Wifi_BLE_SDK/GD32VW55x_RELEASE_V1.0.2/MSDK/cloud/alicloud/src/protocol/coap/local\CoAPMessage.c ****         uint64_t tick = HAL_UptimeMs ();
 417:C:/Users/stapi/OneDrive/Desktop/GD32VW553/V1_MQTT_OK/GD32VW55X_Wifi_BLE_SDK/GD32VW55x_RELEASE_V1.0.2/MSDK/cloud/alicloud/src/protocol/coap/local\CoAPMessage.c ****         if (CoAPConMsg(message->header)) {
 418:C:/Users/stapi/OneDrive/Desktop/GD32VW553/V1_MQTT_OK/GD32VW55X_Wifi_BLE_SDK/GD32VW55x_RELEASE_V1.0.2/MSDK/cloud/alicloud/src/protocol/coap/local\CoAPMessage.c ****             node->timeout = node->timeout_val + tick;
 419:C:/Users/stapi/OneDrive/Desktop/GD32VW553/V1_MQTT_OK/GD32VW55X_Wifi_BLE_SDK/GD32VW55x_RELEASE_V1.0.2/MSDK/cloud/alicloud/src/protocol/coap/local\CoAPMessage.c ****             node->retrans_count = COAP_MAX_RETRY_COUNT;
 420:C:/Users/stapi/OneDrive/Desktop/GD32VW553/V1_MQTT_OK/GD32VW55X_Wifi_BLE_SDK/GD32VW55x_RELEASE_V1.0.2/MSDK/cloud/alicloud/src/protocol/coap/local\CoAPMessage.c ****         } else {
 421:C:/Users/stapi/OneDrive/Desktop/GD32VW553/V1_MQTT_OK/GD32VW55X_Wifi_BLE_SDK/GD32VW55x_RELEASE_V1.0.2/MSDK/cloud/alicloud/src/protocol/coap/local\CoAPMessage.c ****             node->timeout = node->timeout_val * 4 + tick;
 422:C:/Users/stapi/OneDrive/Desktop/GD32VW553/V1_MQTT_OK/GD32VW55X_Wifi_BLE_SDK/GD32VW55x_RELEASE_V1.0.2/MSDK/cloud/alicloud/src/protocol/coap/local\CoAPMessage.c ****             node->retrans_count = 0;
 423:C:/Users/stapi/OneDrive/Desktop/GD32VW553/V1_MQTT_OK/GD32VW55X_Wifi_BLE_SDK/GD32VW55x_RELEASE_V1.0.2/MSDK/cloud/alicloud/src/protocol/coap/local\CoAPMessage.c ****         }
 424:C:/Users/stapi/OneDrive/Desktop/GD32VW553/V1_MQTT_OK/GD32VW55X_Wifi_BLE_SDK/GD32VW55x_RELEASE_V1.0.2/MSDK/cloud/alicloud/src/protocol/coap/local\CoAPMessage.c **** 
 425:C:/Users/stapi/OneDrive/Desktop/GD32VW553/V1_MQTT_OK/GD32VW55X_Wifi_BLE_SDK/GD32VW55x_RELEASE_V1.0.2/MSDK/cloud/alicloud/src/protocol/coap/local\CoAPMessage.c ****         if(keep == KEEPING){
 426:C:/Users/stapi/OneDrive/Desktop/GD32VW553/V1_MQTT_OK/GD32VW55X_Wifi_BLE_SDK/GD32VW55x_RELEASE_V1.0.2/MSDK/cloud/alicloud/src/protocol/coap/local\CoAPMessage.c ****             COAP_DEBUG("The message %d need keep", message->header.msgid);
 427:C:/Users/stapi/OneDrive/Desktop/GD32VW553/V1_MQTT_OK/GD32VW55X_Wifi_BLE_SDK/GD32VW55x_RELEASE_V1.0.2/MSDK/cloud/alicloud/src/protocol/coap/local\CoAPMessage.c ****         }
 428:C:/Users/stapi/OneDrive/Desktop/GD32VW553/V1_MQTT_OK/GD32VW55X_Wifi_BLE_SDK/GD32VW55x_RELEASE_V1.0.2/MSDK/cloud/alicloud/src/protocol/coap/local\CoAPMessage.c **** 
 429:C:/Users/stapi/OneDrive/Desktop/GD32VW553/V1_MQTT_OK/GD32VW55X_Wifi_BLE_SDK/GD32VW55x_RELEASE_V1.0.2/MSDK/cloud/alicloud/src/protocol/coap/local\CoAPMessage.c ****         HAL_MutexLock(ctx->sendlist.list_mutex);
 430:C:/Users/stapi/OneDrive/Desktop/GD32VW553/V1_MQTT_OK/GD32VW55X_Wifi_BLE_SDK/GD32VW55x_RELEASE_V1.0.2/MSDK/cloud/alicloud/src/protocol/coap/local\CoAPMessage.c ****         if (ctx->sendlist.count >= ctx->sendlist.maxcount) {
 431:C:/Users/stapi/OneDrive/Desktop/GD32VW553/V1_MQTT_OK/GD32VW55X_Wifi_BLE_SDK/GD32VW55x_RELEASE_V1.0.2/MSDK/cloud/alicloud/src/protocol/coap/local\CoAPMessage.c ****             HAL_MutexUnlock(ctx->sendlist.list_mutex);
 432:C:/Users/stapi/OneDrive/Desktop/GD32VW553/V1_MQTT_OK/GD32VW55X_Wifi_BLE_SDK/GD32VW55x_RELEASE_V1.0.2/MSDK/cloud/alicloud/src/protocol/coap/local\CoAPMessage.c ****             coap_free(node);
 433:C:/Users/stapi/OneDrive/Desktop/GD32VW553/V1_MQTT_OK/GD32VW55X_Wifi_BLE_SDK/GD32VW55x_RELEASE_V1.0.2/MSDK/cloud/alicloud/src/protocol/coap/local\CoAPMessage.c ****             COAP_INFO("The send list is full");
 434:C:/Users/stapi/OneDrive/Desktop/GD32VW553/V1_MQTT_OK/GD32VW55X_Wifi_BLE_SDK/GD32VW55x_RELEASE_V1.0.2/MSDK/cloud/alicloud/src/protocol/coap/local\CoAPMessage.c ****             return COAP_ERROR_DATA_SIZE;
 435:C:/Users/stapi/OneDrive/Desktop/GD32VW553/V1_MQTT_OK/GD32VW55X_Wifi_BLE_SDK/GD32VW55x_RELEASE_V1.0.2/MSDK/cloud/alicloud/src/protocol/coap/local\CoAPMessage.c ****         } else {
 436:C:/Users/stapi/OneDrive/Desktop/GD32VW553/V1_MQTT_OK/GD32VW55X_Wifi_BLE_SDK/GD32VW55x_RELEASE_V1.0.2/MSDK/cloud/alicloud/src/protocol/coap/local\CoAPMessage.c ****             list_add_tail(&node->sendlist, &ctx->sendlist.list);
 437:C:/Users/stapi/OneDrive/Desktop/GD32VW553/V1_MQTT_OK/GD32VW55X_Wifi_BLE_SDK/GD32VW55x_RELEASE_V1.0.2/MSDK/cloud/alicloud/src/protocol/coap/local\CoAPMessage.c ****             ctx->sendlist.count ++;
 438:C:/Users/stapi/OneDrive/Desktop/GD32VW553/V1_MQTT_OK/GD32VW55X_Wifi_BLE_SDK/GD32VW55x_RELEASE_V1.0.2/MSDK/cloud/alicloud/src/protocol/coap/local\CoAPMessage.c ****             HAL_MutexUnlock(ctx->sendlist.list_mutex);
 439:C:/Users/stapi/OneDrive/Desktop/GD32VW553/V1_MQTT_OK/GD32VW55X_Wifi_BLE_SDK/GD32VW55x_RELEASE_V1.0.2/MSDK/cloud/alicloud/src/protocol/coap/local\CoAPMessage.c ****             return COAP_SUCCESS;
 440:C:/Users/stapi/OneDrive/Desktop/GD32VW553/V1_MQTT_OK/GD32VW55X_Wifi_BLE_SDK/GD32VW55x_RELEASE_V1.0.2/MSDK/cloud/alicloud/src/protocol/coap/local\CoAPMessage.c ****         }
 441:C:/Users/stapi/OneDrive/Desktop/GD32VW553/V1_MQTT_OK/GD32VW55X_Wifi_BLE_SDK/GD32VW55x_RELEASE_V1.0.2/MSDK/cloud/alicloud/src/protocol/coap/local\CoAPMessage.c ****     } else {
 442:C:/Users/stapi/OneDrive/Desktop/GD32VW553/V1_MQTT_OK/GD32VW55X_Wifi_BLE_SDK/GD32VW55x_RELEASE_V1.0.2/MSDK/cloud/alicloud/src/protocol/coap/local\CoAPMessage.c ****         return COAP_ERROR_NULL;
 443:C:/Users/stapi/OneDrive/Desktop/GD32VW553/V1_MQTT_OK/GD32VW55X_Wifi_BLE_SDK/GD32VW55x_RELEASE_V1.0.2/MSDK/cloud/alicloud/src/protocol/coap/local\CoAPMessage.c ****     }
 444:C:/Users/stapi/OneDrive/Desktop/GD32VW553/V1_MQTT_OK/GD32VW55X_Wifi_BLE_SDK/GD32VW55x_RELEASE_V1.0.2/MSDK/cloud/alicloud/src/protocol/coap/local\CoAPMessage.c **** }
 445:C:/Users/stapi/OneDrive/Desktop/GD32VW553/V1_MQTT_OK/GD32VW55X_Wifi_BLE_SDK/GD32VW55x_RELEASE_V1.0.2/MSDK/cloud/alicloud/src/protocol/coap/local\CoAPMessage.c **** 
 446:C:/Users/stapi/OneDrive/Desktop/GD32VW553/V1_MQTT_OK/GD32VW55X_Wifi_BLE_SDK/GD32VW55x_RELEASE_V1.0.2/MSDK/cloud/alicloud/src/protocol/coap/local\CoAPMessage.c **** void CoAPMessageToken_dump(unsigned char *token, unsigned char tokenlen)
 447:C:/Users/stapi/OneDrive/Desktop/GD32VW553/V1_MQTT_OK/GD32VW55X_Wifi_BLE_SDK/GD32VW55x_RELEASE_V1.0.2/MSDK/cloud/alicloud/src/protocol/coap/local\CoAPMessage.c **** {
 1349              		.loc 1 447 1 is_stmt 1
 1350              		.cfi_startproc
 1351              	.LVL135:
 1352 0000 17030000 		call	t0,__riscv_save_6
 1352      E7020300 
 1353              		.cfi_offset 21, -28
 1354              		.cfi_offset 20, -24
 1355              		.cfi_offset 19, -20
 1356              		.cfi_offset 18, -16
 1357              		.cfi_offset 9, -12
 1358              		.cfi_offset 8, -8
 1359              		.cfi_offset 1, -4
 1360              		.cfi_def_cfa_offset 32
 448:C:/Users/stapi/OneDrive/Desktop/GD32VW553/V1_MQTT_OK/GD32VW55X_Wifi_BLE_SDK/GD32VW55x_RELEASE_V1.0.2/MSDK/cloud/alicloud/src/protocol/coap/local\CoAPMessage.c ****     int index = 0, count = 0;
 1361              		.loc 1 448 5
 1362              	.LVL136:
 449:C:/Users/stapi/OneDrive/Desktop/GD32VW553/V1_MQTT_OK/GD32VW55X_Wifi_BLE_SDK/GD32VW55x_RELEASE_V1.0.2/MSDK/cloud/alicloud/src/protocol/coap/local\CoAPMessage.c ****     int total = 2 * COAP_MSG_MAX_TOKEN_LEN;
 1363              		.loc 1 449 5
 450:C:/Users/stapi/OneDrive/Desktop/GD32VW553/V1_MQTT_OK/GD32VW55X_Wifi_BLE_SDK/GD32VW55x_RELEASE_V1.0.2/MSDK/cloud/alicloud/src/protocol/coap/local\CoAPMessage.c ****     char   buff[2 * COAP_MSG_MAX_TOKEN_LEN + 1] = {0}, *ptr = NULL;
 1364              		.loc 1 450 5
 447:C:/Users/stapi/OneDrive/Desktop/GD32VW553/V1_MQTT_OK/GD32VW55X_Wifi_BLE_SDK/GD32VW55x_RELEASE_V1.0.2/MSDK/cloud/alicloud/src/protocol/coap/local\CoAPMessage.c ****     int index = 0, count = 0;
 1365              		.loc 1 447 1 is_stmt 0
 1366 0008 7971     		addi	sp,sp,-48
 1367              		.cfi_def_cfa_offset 80
 451:C:/Users/stapi/OneDrive/Desktop/GD32VW553/V1_MQTT_OK/GD32VW55X_Wifi_BLE_SDK/GD32VW55x_RELEASE_V1.0.2/MSDK/cloud/alicloud/src/protocol/coap/local\CoAPMessage.c **** 
 452:C:/Users/stapi/OneDrive/Desktop/GD32VW553/V1_MQTT_OK/GD32VW55X_Wifi_BLE_SDK/GD32VW55x_RELEASE_V1.0.2/MSDK/cloud/alicloud/src/protocol/coap/local\CoAPMessage.c ****     ptr = buff;
 1368              		.loc 1 452 9
 1369 000a 6408     		addi	s1,sp,28
 447:C:/Users/stapi/OneDrive/Desktop/GD32VW553/V1_MQTT_OK/GD32VW55X_Wifi_BLE_SDK/GD32VW55x_RELEASE_V1.0.2/MSDK/cloud/alicloud/src/protocol/coap/local\CoAPMessage.c ****     int index = 0, count = 0;
 1370              		.loc 1 447 1
 1371 000c AA89     		mv	s3,a0
 1372 000e AE87     		mv	a5,a1
 450:C:/Users/stapi/OneDrive/Desktop/GD32VW553/V1_MQTT_OK/GD32VW55X_Wifi_BLE_SDK/GD32VW55x_RELEASE_V1.0.2/MSDK/cloud/alicloud/src/protocol/coap/local\CoAPMessage.c **** 
 1373              		.loc 1 450 12
 1374 0010 02CE     		sw	zero,28(sp)
 1375 0012 02D0     		sw	zero,32(sp)
 1376 0014 02D2     		sw	zero,36(sp)
 1377 0016 02D4     		sw	zero,40(sp)
 1378 0018 23060102 		sb	zero,44(sp)
 1379              	.LVL137:
 1380              		.loc 1 452 5 is_stmt 1
 453:C:/Users/stapi/OneDrive/Desktop/GD32VW553/V1_MQTT_OK/GD32VW55X_Wifi_BLE_SDK/GD32VW55x_RELEASE_V1.0.2/MSDK/cloud/alicloud/src/protocol/coap/local\CoAPMessage.c ****     for (index = 0; index < tokenlen; index++) {
 1381              		.loc 1 453 5
 449:C:/Users/stapi/OneDrive/Desktop/GD32VW553/V1_MQTT_OK/GD32VW55X_Wifi_BLE_SDK/GD32VW55x_RELEASE_V1.0.2/MSDK/cloud/alicloud/src/protocol/coap/local\CoAPMessage.c ****     char   buff[2 * COAP_MSG_MAX_TOKEN_LEN + 1] = {0}, *ptr = NULL;
 1382              		.loc 1 449 9 is_stmt 0
 1383 001c 4149     		li	s2,16
 1384              		.loc 1 453 16
 1385 001e 0144     		li	s0,0
 1386 0020 268A     		mv	s4,s1
 454:C:/Users/stapi/OneDrive/Desktop/GD32VW553/V1_MQTT_OK/GD32VW55X_Wifi_BLE_SDK/GD32VW55x_RELEASE_V1.0.2/MSDK/cloud/alicloud/src/protocol/coap/local\CoAPMessage.c ****         count = HAL_Snprintf(ptr, total, "%02X", token[index]);
 1387              		.loc 1 454 17
 1388 0022 B70A0000 		lui	s5,%hi(.LC2)
 1389              	.LVL138:
 1390              	.L138:
 453:C:/Users/stapi/OneDrive/Desktop/GD32VW553/V1_MQTT_OK/GD32VW55X_Wifi_BLE_SDK/GD32VW55x_RELEASE_V1.0.2/MSDK/cloud/alicloud/src/protocol/coap/local\CoAPMessage.c ****     for (index = 0; index < tokenlen; index++) {
 1391              		.loc 1 453 21 is_stmt 1 discriminator 1
 453:C:/Users/stapi/OneDrive/Desktop/GD32VW553/V1_MQTT_OK/GD32VW55X_Wifi_BLE_SDK/GD32VW55x_RELEASE_V1.0.2/MSDK/cloud/alicloud/src/protocol/coap/local\CoAPMessage.c ****     for (index = 0; index < tokenlen; index++) {
 1392              		.loc 1 453 5 is_stmt 0 discriminator 1
 1393 0026 634AF404 		bgt	a5,s0,.L139
 455:C:/Users/stapi/OneDrive/Desktop/GD32VW553/V1_MQTT_OK/GD32VW55X_Wifi_BLE_SDK/GD32VW55x_RELEASE_V1.0.2/MSDK/cloud/alicloud/src/protocol/coap/local\CoAPMessage.c ****         ptr += count;
 456:C:/Users/stapi/OneDrive/Desktop/GD32VW553/V1_MQTT_OK/GD32VW55X_Wifi_BLE_SDK/GD32VW55x_RELEASE_V1.0.2/MSDK/cloud/alicloud/src/protocol/coap/local\CoAPMessage.c ****         total -= count;
 457:C:/Users/stapi/OneDrive/Desktop/GD32VW553/V1_MQTT_OK/GD32VW55X_Wifi_BLE_SDK/GD32VW55x_RELEASE_V1.0.2/MSDK/cloud/alicloud/src/protocol/coap/local\CoAPMessage.c ****     }
 458:C:/Users/stapi/OneDrive/Desktop/GD32VW553/V1_MQTT_OK/GD32VW55X_Wifi_BLE_SDK/GD32VW55x_RELEASE_V1.0.2/MSDK/cloud/alicloud/src/protocol/coap/local\CoAPMessage.c **** 
 459:C:/Users/stapi/OneDrive/Desktop/GD32VW553/V1_MQTT_OK/GD32VW55X_Wifi_BLE_SDK/GD32VW55x_RELEASE_V1.0.2/MSDK/cloud/alicloud/src/protocol/coap/local\CoAPMessage.c ****     COAP_FLOW("Token Len   : %d", tokenlen);
 1394              		.loc 1 459 5 is_stmt 1
 1395 002a 37040000 		lui	s0,%hi(.LC1)
 1396              	.LVL139:
 1397 002e B7040000 		lui	s1,%hi(.LANCHOR1)
 1398              	.LVL140:
 1399 0032 37070000 		lui	a4,%hi(.LC3)
 1400 0036 93850400 		addi	a1,s1,%lo(.LANCHOR1)
 1401 003a 13050400 		addi	a0,s0,%lo(.LC1)
 1402 003e 13070700 		addi	a4,a4,%lo(.LC3)
 1403 0042 9546     		li	a3,5
 1404 0044 1306B01C 		li	a2,459
 1405 0048 97000000 		call	LITE_syslog
 1405      E7800000 
 1406              	.LVL141:
 460:C:/Users/stapi/OneDrive/Desktop/GD32VW553/V1_MQTT_OK/GD32VW55X_Wifi_BLE_SDK/GD32VW55x_RELEASE_V1.0.2/MSDK/cloud/alicloud/src/protocol/coap/local\CoAPMessage.c ****     COAP_FLOW("Token       : %s", buff);
 1407              		.loc 1 460 5
 1408 0050 37070000 		lui	a4,%hi(.LC4)
 1409 0054 D287     		mv	a5,s4
 1410 0056 13070700 		addi	a4,a4,%lo(.LC4)
 1411 005a 9546     		li	a3,5
 1412 005c 1306C01C 		li	a2,460
 1413 0060 93850400 		addi	a1,s1,%lo(.LANCHOR1)
 1414 0064 13050400 		addi	a0,s0,%lo(.LC1)
 1415 0068 97000000 		call	LITE_syslog
 1415      E7800000 
 1416              	.LVL142:
 461:C:/Users/stapi/OneDrive/Desktop/GD32VW553/V1_MQTT_OK/GD32VW55X_Wifi_BLE_SDK/GD32VW55x_RELEASE_V1.0.2/MSDK/cloud/alicloud/src/protocol/coap/local\CoAPMessage.c **** }
 1417              		.loc 1 461 1 is_stmt 0
 1418 0070 4561     		addi	sp,sp,48
 1419              		.cfi_remember_state
 1420              		.cfi_def_cfa_offset 0
 1421 0072 17030000 		tail	__riscv_restore_6
 1421      67000300 
 1422              		.cfi_restore 21
 1423              		.cfi_restore 20
 1424              		.cfi_restore 19
 1425              		.cfi_restore 18
 1426              		.cfi_restore 9
 1427              		.cfi_restore 8
 1428              		.cfi_restore 1
 1429              		.cfi_def_cfa_offset -32
 1430              	.LVL143:
 1431              	.L139:
 1432              		.cfi_restore_state
 454:C:/Users/stapi/OneDrive/Desktop/GD32VW553/V1_MQTT_OK/GD32VW55X_Wifi_BLE_SDK/GD32VW55x_RELEASE_V1.0.2/MSDK/cloud/alicloud/src/protocol/coap/local\CoAPMessage.c ****         ptr += count;
 1433              		.loc 1 454 55 discriminator 3
 1434 007a 33878900 		add	a4,s3,s0
 454:C:/Users/stapi/OneDrive/Desktop/GD32VW553/V1_MQTT_OK/GD32VW55X_Wifi_BLE_SDK/GD32VW55x_RELEASE_V1.0.2/MSDK/cloud/alicloud/src/protocol/coap/local\CoAPMessage.c ****         ptr += count;
 1435              		.loc 1 454 17 discriminator 3
 1436 007e 83460700 		lbu	a3,0(a4)
 1437 0082 CA85     		mv	a1,s2
 1438 0084 2685     		mv	a0,s1
 1439 0086 13860A00 		addi	a2,s5,%lo(.LC2)
 1440 008a 3EC6     		sw	a5,12(sp)
 454:C:/Users/stapi/OneDrive/Desktop/GD32VW553/V1_MQTT_OK/GD32VW55X_Wifi_BLE_SDK/GD32VW55x_RELEASE_V1.0.2/MSDK/cloud/alicloud/src/protocol/coap/local\CoAPMessage.c ****         ptr += count;
 1441              		.loc 1 454 9 is_stmt 1 discriminator 3
 454:C:/Users/stapi/OneDrive/Desktop/GD32VW553/V1_MQTT_OK/GD32VW55X_Wifi_BLE_SDK/GD32VW55x_RELEASE_V1.0.2/MSDK/cloud/alicloud/src/protocol/coap/local\CoAPMessage.c ****         ptr += count;
 1442              		.loc 1 454 17 is_stmt 0 discriminator 3
 1443 008c 97000000 		call	HAL_Snprintf
 1443      E7800000 
 1444              	.LVL144:
 455:C:/Users/stapi/OneDrive/Desktop/GD32VW553/V1_MQTT_OK/GD32VW55X_Wifi_BLE_SDK/GD32VW55x_RELEASE_V1.0.2/MSDK/cloud/alicloud/src/protocol/coap/local\CoAPMessage.c ****         total -= count;
 1445              		.loc 1 455 9 is_stmt 1 discriminator 3
 453:C:/Users/stapi/OneDrive/Desktop/GD32VW553/V1_MQTT_OK/GD32VW55X_Wifi_BLE_SDK/GD32VW55x_RELEASE_V1.0.2/MSDK/cloud/alicloud/src/protocol/coap/local\CoAPMessage.c ****         count = HAL_Snprintf(ptr, total, "%02X", token[index]);
 1446              		.loc 1 453 44 is_stmt 0 discriminator 3
 1447 0094 B247     		lw	a5,12(sp)
 455:C:/Users/stapi/OneDrive/Desktop/GD32VW553/V1_MQTT_OK/GD32VW55X_Wifi_BLE_SDK/GD32VW55x_RELEASE_V1.0.2/MSDK/cloud/alicloud/src/protocol/coap/local\CoAPMessage.c ****         total -= count;
 1448              		.loc 1 455 13 discriminator 3
 1449 0096 AA94     		add	s1,s1,a0
 1450              	.LVL145:
 456:C:/Users/stapi/OneDrive/Desktop/GD32VW553/V1_MQTT_OK/GD32VW55X_Wifi_BLE_SDK/GD32VW55x_RELEASE_V1.0.2/MSDK/cloud/alicloud/src/protocol/coap/local\CoAPMessage.c ****     }
 1451              		.loc 1 456 9 is_stmt 1 discriminator 3
 456:C:/Users/stapi/OneDrive/Desktop/GD32VW553/V1_MQTT_OK/GD32VW55X_Wifi_BLE_SDK/GD32VW55x_RELEASE_V1.0.2/MSDK/cloud/alicloud/src/protocol/coap/local\CoAPMessage.c ****     }
 1452              		.loc 1 456 15 is_stmt 0 discriminator 3
 1453 0098 3309A940 		sub	s2,s2,a0
 1454              	.LVL146:
 453:C:/Users/stapi/OneDrive/Desktop/GD32VW553/V1_MQTT_OK/GD32VW55X_Wifi_BLE_SDK/GD32VW55x_RELEASE_V1.0.2/MSDK/cloud/alicloud/src/protocol/coap/local\CoAPMessage.c ****         count = HAL_Snprintf(ptr, total, "%02X", token[index]);
 1455              		.loc 1 453 39 is_stmt 1 discriminator 3
 453:C:/Users/stapi/OneDrive/Desktop/GD32VW553/V1_MQTT_OK/GD32VW55X_Wifi_BLE_SDK/GD32VW55x_RELEASE_V1.0.2/MSDK/cloud/alicloud/src/protocol/coap/local\CoAPMessage.c ****         count = HAL_Snprintf(ptr, total, "%02X", token[index]);
 1456              		.loc 1 453 44 is_stmt 0 discriminator 3
 1457 009c 0504     		addi	s0,s0,1
 1458              	.LVL147:
 1459 009e 61B7     		j	.L138
 1460              		.cfi_endproc
 1461              	.LFE40:
 1463              		.section	.text.CoAPMessage_dump,"ax",@progbits
 1464              		.align	1
 1465              		.globl	CoAPMessage_dump
 1467              	CoAPMessage_dump:
 1468              	.LFB41:
 462:C:/Users/stapi/OneDrive/Desktop/GD32VW553/V1_MQTT_OK/GD32VW55X_Wifi_BLE_SDK/GD32VW55x_RELEASE_V1.0.2/MSDK/cloud/alicloud/src/protocol/coap/local\CoAPMessage.c **** 
 463:C:/Users/stapi/OneDrive/Desktop/GD32VW553/V1_MQTT_OK/GD32VW55X_Wifi_BLE_SDK/GD32VW55x_RELEASE_V1.0.2/MSDK/cloud/alicloud/src/protocol/coap/local\CoAPMessage.c **** void CoAPMessage_dump(NetworkAddr *remote, CoAPMessage *message)
 464:C:/Users/stapi/OneDrive/Desktop/GD32VW553/V1_MQTT_OK/GD32VW55X_Wifi_BLE_SDK/GD32VW55x_RELEASE_V1.0.2/MSDK/cloud/alicloud/src/protocol/coap/local\CoAPMessage.c **** {
 1469              		.loc 1 464 1 is_stmt 1
 1470              		.cfi_startproc
 1471              	.LVL148:
 465:C:/Users/stapi/OneDrive/Desktop/GD32VW553/V1_MQTT_OK/GD32VW55X_Wifi_BLE_SDK/GD32VW55x_RELEASE_V1.0.2/MSDK/cloud/alicloud/src/protocol/coap/local\CoAPMessage.c ****     int ret = COAP_SUCCESS;
 1472              		.loc 1 465 5
 466:C:/Users/stapi/OneDrive/Desktop/GD32VW553/V1_MQTT_OK/GD32VW55X_Wifi_BLE_SDK/GD32VW55x_RELEASE_V1.0.2/MSDK/cloud/alicloud/src/protocol/coap/local\CoAPMessage.c ****     unsigned int ctype;
 1473              		.loc 1 466 5
 467:C:/Users/stapi/OneDrive/Desktop/GD32VW553/V1_MQTT_OK/GD32VW55X_Wifi_BLE_SDK/GD32VW55x_RELEASE_V1.0.2/MSDK/cloud/alicloud/src/protocol/coap/local\CoAPMessage.c ****     unsigned char code, msgclass, detail;
 1474              		.loc 1 467 5
 468:C:/Users/stapi/OneDrive/Desktop/GD32VW553/V1_MQTT_OK/GD32VW55X_Wifi_BLE_SDK/GD32VW55x_RELEASE_V1.0.2/MSDK/cloud/alicloud/src/protocol/coap/local\CoAPMessage.c **** 
 469:C:/Users/stapi/OneDrive/Desktop/GD32VW553/V1_MQTT_OK/GD32VW55X_Wifi_BLE_SDK/GD32VW55x_RELEASE_V1.0.2/MSDK/cloud/alicloud/src/protocol/coap/local\CoAPMessage.c ****     if (NULL == remote || NULL == message) {
 1475              		.loc 1 469 5
 1476              		.loc 1 469 8 is_stmt 0
 1477 0000 1DC1     		beq	a0,zero,.L150
 1478 0002 2E85     		mv	a0,a1
 1479              	.LVL149:
 1480              		.loc 1 469 24 discriminator 1
 1481 0004 8DC1     		beq	a1,zero,.L150
 464:C:/Users/stapi/OneDrive/Desktop/GD32VW553/V1_MQTT_OK/GD32VW55X_Wifi_BLE_SDK/GD32VW55x_RELEASE_V1.0.2/MSDK/cloud/alicloud/src/protocol/coap/local\CoAPMessage.c ****     int ret = COAP_SUCCESS;
 1482              		.loc 1 464 1
 1483 0006 17030000 		call	t0,__riscv_save_0
 1483      E7020300 
 1484              		.cfi_offset 1, -4
 1485              		.cfi_def_cfa_offset 16
 1486              	.LVL150:
 1487              	.LBB56:
 1488              	.LBB57:
 470:C:/Users/stapi/OneDrive/Desktop/GD32VW553/V1_MQTT_OK/GD32VW55X_Wifi_BLE_SDK/GD32VW55x_RELEASE_V1.0.2/MSDK/cloud/alicloud/src/protocol/coap/local\CoAPMessage.c ****         return;
 471:C:/Users/stapi/OneDrive/Desktop/GD32VW553/V1_MQTT_OK/GD32VW55X_Wifi_BLE_SDK/GD32VW55x_RELEASE_V1.0.2/MSDK/cloud/alicloud/src/protocol/coap/local\CoAPMessage.c ****     }
 472:C:/Users/stapi/OneDrive/Desktop/GD32VW553/V1_MQTT_OK/GD32VW55X_Wifi_BLE_SDK/GD32VW55x_RELEASE_V1.0.2/MSDK/cloud/alicloud/src/protocol/coap/local\CoAPMessage.c ****     code = (unsigned char)message->header.code;
 1489              		.loc 1 472 5 is_stmt 1
 473:C:/Users/stapi/OneDrive/Desktop/GD32VW553/V1_MQTT_OK/GD32VW55X_Wifi_BLE_SDK/GD32VW55x_RELEASE_V1.0.2/MSDK/cloud/alicloud/src/protocol/coap/local\CoAPMessage.c ****     msgclass = code >> 5;
 1490              		.loc 1 473 5
 474:C:/Users/stapi/OneDrive/Desktop/GD32VW553/V1_MQTT_OK/GD32VW55X_Wifi_BLE_SDK/GD32VW55x_RELEASE_V1.0.2/MSDK/cloud/alicloud/src/protocol/coap/local\CoAPMessage.c ****     detail = code & 0x1F;
 1491              		.loc 1 474 5
 475:C:/Users/stapi/OneDrive/Desktop/GD32VW553/V1_MQTT_OK/GD32VW55X_Wifi_BLE_SDK/GD32VW55x_RELEASE_V1.0.2/MSDK/cloud/alicloud/src/protocol/coap/local\CoAPMessage.c **** #ifdef DEBUG_OPEN_COAP_MSG_LOG
 476:C:/Users/stapi/OneDrive/Desktop/GD32VW553/V1_MQTT_OK/GD32VW55X_Wifi_BLE_SDK/GD32VW55x_RELEASE_V1.0.2/MSDK/cloud/alicloud/src/protocol/coap/local\CoAPMessage.c ****     COAP_FLOW("*********Message Info**********");
 477:C:/Users/stapi/OneDrive/Desktop/GD32VW553/V1_MQTT_OK/GD32VW55X_Wifi_BLE_SDK/GD32VW55x_RELEASE_V1.0.2/MSDK/cloud/alicloud/src/protocol/coap/local\CoAPMessage.c ****     COAP_FLOW("Version     : %d", message->header.version);
 478:C:/Users/stapi/OneDrive/Desktop/GD32VW553/V1_MQTT_OK/GD32VW55X_Wifi_BLE_SDK/GD32VW55x_RELEASE_V1.0.2/MSDK/cloud/alicloud/src/protocol/coap/local\CoAPMessage.c ****     COAP_FLOW("Code        : %d.%02d(0x%x)", msgclass, detail, code);
 479:C:/Users/stapi/OneDrive/Desktop/GD32VW553/V1_MQTT_OK/GD32VW55X_Wifi_BLE_SDK/GD32VW55x_RELEASE_V1.0.2/MSDK/cloud/alicloud/src/protocol/coap/local\CoAPMessage.c ****     COAP_FLOW("Type        : 0x%x", message->header.type);
 480:C:/Users/stapi/OneDrive/Desktop/GD32VW553/V1_MQTT_OK/GD32VW55X_Wifi_BLE_SDK/GD32VW55x_RELEASE_V1.0.2/MSDK/cloud/alicloud/src/protocol/coap/local\CoAPMessage.c ****     COAP_FLOW("Msgid       : %d", message->header.msgid);
 481:C:/Users/stapi/OneDrive/Desktop/GD32VW553/V1_MQTT_OK/GD32VW55X_Wifi_BLE_SDK/GD32VW55x_RELEASE_V1.0.2/MSDK/cloud/alicloud/src/protocol/coap/local\CoAPMessage.c ****     COAP_FLOW("Option      : %d", message->optcount);
 482:C:/Users/stapi/OneDrive/Desktop/GD32VW553/V1_MQTT_OK/GD32VW55X_Wifi_BLE_SDK/GD32VW55x_RELEASE_V1.0.2/MSDK/cloud/alicloud/src/protocol/coap/local\CoAPMessage.c ****     COAP_FLOW("Payload Len : %d", message->payloadlen);
 483:C:/Users/stapi/OneDrive/Desktop/GD32VW553/V1_MQTT_OK/GD32VW55X_Wifi_BLE_SDK/GD32VW55x_RELEASE_V1.0.2/MSDK/cloud/alicloud/src/protocol/coap/local\CoAPMessage.c **** #endif
 484:C:/Users/stapi/OneDrive/Desktop/GD32VW553/V1_MQTT_OK/GD32VW55X_Wifi_BLE_SDK/GD32VW55x_RELEASE_V1.0.2/MSDK/cloud/alicloud/src/protocol/coap/local\CoAPMessage.c ****     (void)msgclass;
 1492              		.loc 1 484 5
 485:C:/Users/stapi/OneDrive/Desktop/GD32VW553/V1_MQTT_OK/GD32VW55X_Wifi_BLE_SDK/GD32VW55x_RELEASE_V1.0.2/MSDK/cloud/alicloud/src/protocol/coap/local\CoAPMessage.c ****     (void)detail;
 1493              		.loc 1 485 5
 486:C:/Users/stapi/OneDrive/Desktop/GD32VW553/V1_MQTT_OK/GD32VW55X_Wifi_BLE_SDK/GD32VW55x_RELEASE_V1.0.2/MSDK/cloud/alicloud/src/protocol/coap/local\CoAPMessage.c **** #ifdef DEBUG_OPEN_COAP_MSG_LOG
 487:C:/Users/stapi/OneDrive/Desktop/GD32VW553/V1_MQTT_OK/GD32VW55X_Wifi_BLE_SDK/GD32VW55x_RELEASE_V1.0.2/MSDK/cloud/alicloud/src/protocol/coap/local\CoAPMessage.c ****     CoAPMessageToken_dump(message->token, message->header.tokenlen);
 488:C:/Users/stapi/OneDrive/Desktop/GD32VW553/V1_MQTT_OK/GD32VW55X_Wifi_BLE_SDK/GD32VW55x_RELEASE_V1.0.2/MSDK/cloud/alicloud/src/protocol/coap/local\CoAPMessage.c ****     COAP_FLOW("Remote      : %s:%d", remote->addr, remote->port);
 489:C:/Users/stapi/OneDrive/Desktop/GD32VW553/V1_MQTT_OK/GD32VW55X_Wifi_BLE_SDK/GD32VW55x_RELEASE_V1.0.2/MSDK/cloud/alicloud/src/protocol/coap/local\CoAPMessage.c **** #endif
 490:C:/Users/stapi/OneDrive/Desktop/GD32VW553/V1_MQTT_OK/GD32VW55X_Wifi_BLE_SDK/GD32VW55x_RELEASE_V1.0.2/MSDK/cloud/alicloud/src/protocol/coap/local\CoAPMessage.c ****     ret = CoAPUintOption_get(message, COAP_OPTION_CONTENT_FORMAT, &ctype);
 1494              		.loc 1 490 5
 1495              	.LBE57:
 1496              	.LBE56:
 464:C:/Users/stapi/OneDrive/Desktop/GD32VW553/V1_MQTT_OK/GD32VW55X_Wifi_BLE_SDK/GD32VW55x_RELEASE_V1.0.2/MSDK/cloud/alicloud/src/protocol/coap/local\CoAPMessage.c ****     int ret = COAP_SUCCESS;
 1497              		.loc 1 464 1 is_stmt 0
 1498 000e 4111     		addi	sp,sp,-16
 1499              		.cfi_def_cfa_offset 32
 1500              	.LBB59:
 1501              	.LBB58:
 1502              		.loc 1 490 11
 1503 0010 7000     		addi	a2,sp,12
 1504 0012 B145     		li	a1,12
 1505              	.LVL151:
 1506 0014 97000000 		call	CoAPUintOption_get
 1506      E7800000 
 1507              	.LVL152:
 491:C:/Users/stapi/OneDrive/Desktop/GD32VW553/V1_MQTT_OK/GD32VW55X_Wifi_BLE_SDK/GD32VW55x_RELEASE_V1.0.2/MSDK/cloud/alicloud/src/protocol/coap/local\CoAPMessage.c ****     if (COAP_SUCCESS == ret && NULL != message->payload
 1508              		.loc 1 491 5 is_stmt 1
 492:C:/Users/stapi/OneDrive/Desktop/GD32VW553/V1_MQTT_OK/GD32VW55X_Wifi_BLE_SDK/GD32VW55x_RELEASE_V1.0.2/MSDK/cloud/alicloud/src/protocol/coap/local\CoAPMessage.c ****         && (COAP_CT_APP_OCTET_STREAM != ctype && COAP_CT_APP_CBOR != ctype)) {
 493:C:/Users/stapi/OneDrive/Desktop/GD32VW553/V1_MQTT_OK/GD32VW55X_Wifi_BLE_SDK/GD32VW55x_RELEASE_V1.0.2/MSDK/cloud/alicloud/src/protocol/coap/local\CoAPMessage.c ****         //     COAP_FLOW("Payload     : %s", message->payload);
 494:C:/Users/stapi/OneDrive/Desktop/GD32VW553/V1_MQTT_OK/GD32VW55X_Wifi_BLE_SDK/GD32VW55x_RELEASE_V1.0.2/MSDK/cloud/alicloud/src/protocol/coap/local\CoAPMessage.c ****     }
 1509              		.loc 1 494 5
 1510              	.LBE58:
 1511              	.LBE59:
 495:C:/Users/stapi/OneDrive/Desktop/GD32VW553/V1_MQTT_OK/GD32VW55X_Wifi_BLE_SDK/GD32VW55x_RELEASE_V1.0.2/MSDK/cloud/alicloud/src/protocol/coap/local\CoAPMessage.c **** #ifdef DEBUG_OPEN_COAP_MSG_LOG
 496:C:/Users/stapi/OneDrive/Desktop/GD32VW553/V1_MQTT_OK/GD32VW55X_Wifi_BLE_SDK/GD32VW55x_RELEASE_V1.0.2/MSDK/cloud/alicloud/src/protocol/coap/local\CoAPMessage.c ****     COAP_FLOW("********************************");
 497:C:/Users/stapi/OneDrive/Desktop/GD32VW553/V1_MQTT_OK/GD32VW55X_Wifi_BLE_SDK/GD32VW55x_RELEASE_V1.0.2/MSDK/cloud/alicloud/src/protocol/coap/local\CoAPMessage.c **** #endif
 498:C:/Users/stapi/OneDrive/Desktop/GD32VW553/V1_MQTT_OK/GD32VW55X_Wifi_BLE_SDK/GD32VW55x_RELEASE_V1.0.2/MSDK/cloud/alicloud/src/protocol/coap/local\CoAPMessage.c **** }
 1512              		.loc 1 498 1 is_stmt 0
 1513 001c 4101     		addi	sp,sp,16
 1514              		.cfi_def_cfa_offset 0
 1515 001e 17030000 		tail	__riscv_restore_0
 1515      67000300 
 1516              		.cfi_restore 1
 1517              		.cfi_def_cfa_offset -16
 1518              	.LVL153:
 1519              	.L150:
 1520              		.cfi_def_cfa_offset 0
 1521 0026 8280     		ret
 1522              		.cfi_endproc
 1523              	.LFE41:
 1525              		.section	.rodata.CoAPMessage_send.str1.4,"aMS",@progbits,1
 1526              		.align	2
 1527              	.LC5:
 1528 0000 5B696E66 		.string	"[inf] "
 1528      5D2000
 1529 0007 00       		.align	2
 1530              	.LC6:
 1531 0008 54686520 		.string	"The message length %d is too long"
 1531      6D657373 
 1531      61676520 
 1531      6C656E67 
 1531      74682025 
 1532 002a 0000     		.align	2
 1533              	.LC7:
 1534 002c 0D0A00   		.string	"\r\n"
 1535 002f 00       		.align	2
 1536              	.LC8:
 1537 0030 4D616C6C 		.string	"Malloc memory failed"
 1537      6F63206D 
 1537      656D6F72 
 1537      79206661 
 1537      696C6564 
 1538 0045 000000   		.align	2
 1539              	.LC9:
 1540 0048 54686520 		.string	"The message id %d len %d send success, add to the list"
 1540      6D657373 
 1540      61676520 
 1540      69642025 
 1540      64206C65 
 1541 007f 00       		.align	2
 1542              	.LC10:
 1543 0080 54686520 		.string	"The message %d don't add to list"
 1543      6D657373 
 1543      61676520 
 1543      25642064 
 1543      6F6E2774 
 1544 00a1 000000   		.align	2
 1545              	.LC11:
 1546 00a4 6D657373 		.string	"message already present!"
 1546      61676520 
 1546      616C7265 
 1546      61647920 
 1546      70726573 
 1547 00bd 000000   		.align	2
 1548              	.LC12:
 1549 00c0 54686520 		.string	"The message %d need keep"
 1549      6D657373 
 1549      61676520 
 1549      2564206E 
 1549      65656420 
 1550 00d9 000000   		.align	2
 1551              	.LC13:
 1552 00dc 54686520 		.string	"The send list is full"
 1552      73656E64 
 1552      206C6973 
 1552      74206973 
 1552      2066756C 
 1553 00f2 0000     		.align	2
 1554              	.LC14:
 1555 00f4 5B657272 		.string	"[err] "
 1555      5D2000
 1556 00fb 00       		.align	2
 1557              	.LC15:
 1558 00fc 41646420 		.string	"Add the message %d to list failed"
 1558      74686520 
 1558      6D657373 
 1558      61676520 
 1558      25642074 
 1559 011e 0000     		.align	2
 1560              	.LC16:
 1561 0120 54686520 		.string	"The message %d isn't CON msg, needless to be retransmitted"
 1561      6D657373 
 1561      61676520 
 1561      25642069 
 1561      736E2774 
 1562 015b 00       		.align	2
 1563              	.LC17:
 1564 015c 436F4150 		.string	"CoAP transport write failed, send message %d return %d"
 1564      20747261 
 1564      6E73706F 
 1564      72742077 
 1564      72697465 
 1565              		.section	.text.CoAPMessage_send,"ax",@progbits
 1566              		.align	1
 1567              		.globl	CoAPMessage_send
 1569              	CoAPMessage_send:
 1570              	.LFB42:
 499:C:/Users/stapi/OneDrive/Desktop/GD32VW553/V1_MQTT_OK/GD32VW55X_Wifi_BLE_SDK/GD32VW55x_RELEASE_V1.0.2/MSDK/cloud/alicloud/src/protocol/coap/local\CoAPMessage.c **** 
 500:C:/Users/stapi/OneDrive/Desktop/GD32VW553/V1_MQTT_OK/GD32VW55X_Wifi_BLE_SDK/GD32VW55x_RELEASE_V1.0.2/MSDK/cloud/alicloud/src/protocol/coap/local\CoAPMessage.c **** int CoAPMessage_send(CoAPContext *context, NetworkAddr *remote, CoAPMessage *message)
 501:C:/Users/stapi/OneDrive/Desktop/GD32VW553/V1_MQTT_OK/GD32VW55X_Wifi_BLE_SDK/GD32VW55x_RELEASE_V1.0.2/MSDK/cloud/alicloud/src/protocol/coap/local\CoAPMessage.c **** {
 1571              		.loc 1 501 1 is_stmt 1
 1572              		.cfi_startproc
 1573              	.LVL154:
 1574 0000 17030000 		call	t0,__riscv_save_10
 1574      E7020300 
 1575              		.cfi_offset 25, -44
 1576              		.cfi_offset 24, -40
 1577              		.cfi_offset 23, -36
 1578              		.cfi_offset 22, -32
 1579              		.cfi_offset 21, -28
 1580              		.cfi_offset 20, -24
 1581              		.cfi_offset 19, -20
 1582              		.cfi_offset 18, -16
 1583              		.cfi_offset 9, -12
 1584              		.cfi_offset 8, -8
 1585              		.cfi_offset 1, -4
 1586              		.cfi_def_cfa_offset 48
 502:C:/Users/stapi/OneDrive/Desktop/GD32VW553/V1_MQTT_OK/GD32VW55X_Wifi_BLE_SDK/GD32VW55x_RELEASE_V1.0.2/MSDK/cloud/alicloud/src/protocol/coap/local\CoAPMessage.c ****     int   ret              = COAP_SUCCESS;
 1587              		.loc 1 502 5
 1588              	.LVL155:
 503:C:/Users/stapi/OneDrive/Desktop/GD32VW553/V1_MQTT_OK/GD32VW55X_Wifi_BLE_SDK/GD32VW55x_RELEASE_V1.0.2/MSDK/cloud/alicloud/src/protocol/coap/local\CoAPMessage.c ****     unsigned short msglen  = 0;
 1589              		.loc 1 503 5
 504:C:/Users/stapi/OneDrive/Desktop/GD32VW553/V1_MQTT_OK/GD32VW55X_Wifi_BLE_SDK/GD32VW55x_RELEASE_V1.0.2/MSDK/cloud/alicloud/src/protocol/coap/local\CoAPMessage.c ****     unsigned char  *buff   = NULL;
 1590              		.loc 1 504 5
 505:C:/Users/stapi/OneDrive/Desktop/GD32VW553/V1_MQTT_OK/GD32VW55X_Wifi_BLE_SDK/GD32VW55x_RELEASE_V1.0.2/MSDK/cloud/alicloud/src/protocol/coap/local\CoAPMessage.c ****     unsigned short readlen = 0;
 1591              		.loc 1 505 5
 506:C:/Users/stapi/OneDrive/Desktop/GD32VW553/V1_MQTT_OK/GD32VW55X_Wifi_BLE_SDK/GD32VW55x_RELEASE_V1.0.2/MSDK/cloud/alicloud/src/protocol/coap/local\CoAPMessage.c ****     CoAPIntContext *ctx    = NULL;
 1592              		.loc 1 506 5
 507:C:/Users/stapi/OneDrive/Desktop/GD32VW553/V1_MQTT_OK/GD32VW55X_Wifi_BLE_SDK/GD32VW55x_RELEASE_V1.0.2/MSDK/cloud/alicloud/src/protocol/coap/local\CoAPMessage.c **** 
 508:C:/Users/stapi/OneDrive/Desktop/GD32VW553/V1_MQTT_OK/GD32VW55X_Wifi_BLE_SDK/GD32VW55x_RELEASE_V1.0.2/MSDK/cloud/alicloud/src/protocol/coap/local\CoAPMessage.c ****     if (NULL == message || NULL == context) {
 1593              		.loc 1 508 5
 501:C:/Users/stapi/OneDrive/Desktop/GD32VW553/V1_MQTT_OK/GD32VW55X_Wifi_BLE_SDK/GD32VW55x_RELEASE_V1.0.2/MSDK/cloud/alicloud/src/protocol/coap/local\CoAPMessage.c ****     int   ret              = COAP_SUCCESS;
 1594              		.loc 1 501 1 is_stmt 0
 1595 0008 4111     		addi	sp,sp,-16
 1596              		.cfi_def_cfa_offset 64
 509:C:/Users/stapi/OneDrive/Desktop/GD32VW553/V1_MQTT_OK/GD32VW55X_Wifi_BLE_SDK/GD32VW55x_RELEASE_V1.0.2/MSDK/cloud/alicloud/src/protocol/coap/local\CoAPMessage.c ****         return (COAP_ERROR_INVALID_PARAM);
 1597              		.loc 1 509 16
 1598 000a 93041010 		li	s1,257
 508:C:/Users/stapi/OneDrive/Desktop/GD32VW553/V1_MQTT_OK/GD32VW55X_Wifi_BLE_SDK/GD32VW55x_RELEASE_V1.0.2/MSDK/cloud/alicloud/src/protocol/coap/local\CoAPMessage.c ****         return (COAP_ERROR_INVALID_PARAM);
 1599              		.loc 1 508 8
 1600 000e 2DC2     		beq	a2,zero,.L153
 1601 0010 2A89     		mv	s2,a0
 1602              		.loc 1 509 16 discriminator 1
 1603 0012 93041010 		li	s1,257
 508:C:/Users/stapi/OneDrive/Desktop/GD32VW553/V1_MQTT_OK/GD32VW55X_Wifi_BLE_SDK/GD32VW55x_RELEASE_V1.0.2/MSDK/cloud/alicloud/src/protocol/coap/local\CoAPMessage.c ****         return (COAP_ERROR_INVALID_PARAM);
 1604              		.loc 1 508 25 discriminator 1
 1605 0016 29CD     		beq	a0,zero,.L153
 510:C:/Users/stapi/OneDrive/Desktop/GD32VW553/V1_MQTT_OK/GD32VW55X_Wifi_BLE_SDK/GD32VW55x_RELEASE_V1.0.2/MSDK/cloud/alicloud/src/protocol/coap/local\CoAPMessage.c ****     }
 511:C:/Users/stapi/OneDrive/Desktop/GD32VW553/V1_MQTT_OK/GD32VW55X_Wifi_BLE_SDK/GD32VW55x_RELEASE_V1.0.2/MSDK/cloud/alicloud/src/protocol/coap/local\CoAPMessage.c **** 
 512:C:/Users/stapi/OneDrive/Desktop/GD32VW553/V1_MQTT_OK/GD32VW55X_Wifi_BLE_SDK/GD32VW55x_RELEASE_V1.0.2/MSDK/cloud/alicloud/src/protocol/coap/local\CoAPMessage.c ****     ctx = (CoAPIntContext *)context;
 513:C:/Users/stapi/OneDrive/Desktop/GD32VW553/V1_MQTT_OK/GD32VW55X_Wifi_BLE_SDK/GD32VW55x_RELEASE_V1.0.2/MSDK/cloud/alicloud/src/protocol/coap/local\CoAPMessage.c ****     /* sort coap options */
 514:C:/Users/stapi/OneDrive/Desktop/GD32VW553/V1_MQTT_OK/GD32VW55X_Wifi_BLE_SDK/GD32VW55x_RELEASE_V1.0.2/MSDK/cloud/alicloud/src/protocol/coap/local\CoAPMessage.c ****     CoAPOption_sort(message);
 1606              		.loc 1 514 5
 1607 0018 3285     		mv	a0,a2
 1608              	.LVL156:
 1609 001a 3284     		mv	s0,a2
 512:C:/Users/stapi/OneDrive/Desktop/GD32VW553/V1_MQTT_OK/GD32VW55X_Wifi_BLE_SDK/GD32VW55x_RELEASE_V1.0.2/MSDK/cloud/alicloud/src/protocol/coap/local\CoAPMessage.c ****     /* sort coap options */
 1610              		.loc 1 512 5 is_stmt 1
 1611              	.LVL157:
 1612              		.loc 1 514 5
 1613 001c AE8A     		mv	s5,a1
 1614 001e 97000000 		call	CoAPOption_sort
 1614      E7800000 
 1615              	.LVL158:
 515:C:/Users/stapi/OneDrive/Desktop/GD32VW553/V1_MQTT_OK/GD32VW55X_Wifi_BLE_SDK/GD32VW55x_RELEASE_V1.0.2/MSDK/cloud/alicloud/src/protocol/coap/local\CoAPMessage.c **** 
 516:C:/Users/stapi/OneDrive/Desktop/GD32VW553/V1_MQTT_OK/GD32VW55X_Wifi_BLE_SDK/GD32VW55x_RELEASE_V1.0.2/MSDK/cloud/alicloud/src/protocol/coap/local\CoAPMessage.c ****     msglen = CoAPSerialize_MessageLength(message);
 1616              		.loc 1 516 5
 1617              		.loc 1 516 14 is_stmt 0
 1618 0026 2285     		mv	a0,s0
 1619 0028 97000000 		call	CoAPSerialize_MessageLength
 1619      E7800000 
 1620              	.LVL159:
 517:C:/Users/stapi/OneDrive/Desktop/GD32VW553/V1_MQTT_OK/GD32VW55X_Wifi_BLE_SDK/GD32VW55x_RELEASE_V1.0.2/MSDK/cloud/alicloud/src/protocol/coap/local\CoAPMessage.c ****     if (COAP_MSG_MAX_PDU_LEN < msglen) {
 1621              		.loc 1 517 8
 1622 0030 93070050 		li	a5,1280
 516:C:/Users/stapi/OneDrive/Desktop/GD32VW553/V1_MQTT_OK/GD32VW55X_Wifi_BLE_SDK/GD32VW55x_RELEASE_V1.0.2/MSDK/cloud/alicloud/src/protocol/coap/local\CoAPMessage.c ****     if (COAP_MSG_MAX_PDU_LEN < msglen) {
 1623              		.loc 1 516 14
 1624 0034 AA84     		mv	s1,a0
 1625              	.LVL160:
 1626              		.loc 1 517 5 is_stmt 1
 1627              		.loc 1 517 8 is_stmt 0
 1628 0036 63F3A704 		bleu	a0,a5,.L155
 518:C:/Users/stapi/OneDrive/Desktop/GD32VW553/V1_MQTT_OK/GD32VW55X_Wifi_BLE_SDK/GD32VW55x_RELEASE_V1.0.2/MSDK/cloud/alicloud/src/protocol/coap/local\CoAPMessage.c ****         COAP_INFO("The message length %d is too long", msglen);
 1629              		.loc 1 518 9 is_stmt 1
 1630              		.loc 1 518 9
 1631 003a 37050000 		lui	a0,%hi(.LC5)
 1632              	.LVL161:
 1633 003e 13050500 		addi	a0,a0,%lo(.LC5)
 1634 0042 97000000 		call	HAL_Printf
 1634      E7800000 
 1635              	.LVL162:
 1636              		.loc 1 518 9
 1637 004a 37050000 		lui	a0,%hi(.LC6)
 1638 004e A685     		mv	a1,s1
 1639 0050 13050500 		addi	a0,a0,%lo(.LC6)
 1640 0054 97000000 		call	HAL_Printf
 1640      E7800000 
 1641              	.LVL163:
 1642              		.loc 1 518 9
 1643 005c 37050000 		lui	a0,%hi(.LC7)
 1644 0060 13050500 		addi	a0,a0,%lo(.LC7)
 1645 0064 97000000 		call	HAL_Printf
 1645      E7800000 
 1646              	.LVL164:
 1647              		.loc 1 518 9
 519:C:/Users/stapi/OneDrive/Desktop/GD32VW553/V1_MQTT_OK/GD32VW55X_Wifi_BLE_SDK/GD32VW55x_RELEASE_V1.0.2/MSDK/cloud/alicloud/src/protocol/coap/local\CoAPMessage.c ****         return COAP_ERROR_DATA_SIZE;
 1648              		.loc 1 519 9
 1649              		.loc 1 519 16 is_stmt 0
 1650 006c 93045010 		li	s1,261
 1651              	.LVL165:
 1652              	.L153:
 520:C:/Users/stapi/OneDrive/Desktop/GD32VW553/V1_MQTT_OK/GD32VW55X_Wifi_BLE_SDK/GD32VW55x_RELEASE_V1.0.2/MSDK/cloud/alicloud/src/protocol/coap/local\CoAPMessage.c ****     }
 521:C:/Users/stapi/OneDrive/Desktop/GD32VW553/V1_MQTT_OK/GD32VW55X_Wifi_BLE_SDK/GD32VW55x_RELEASE_V1.0.2/MSDK/cloud/alicloud/src/protocol/coap/local\CoAPMessage.c **** 
 522:C:/Users/stapi/OneDrive/Desktop/GD32VW553/V1_MQTT_OK/GD32VW55X_Wifi_BLE_SDK/GD32VW55x_RELEASE_V1.0.2/MSDK/cloud/alicloud/src/protocol/coap/local\CoAPMessage.c ****     buff = (unsigned char *)coap_malloc(msglen);
 523:C:/Users/stapi/OneDrive/Desktop/GD32VW553/V1_MQTT_OK/GD32VW55X_Wifi_BLE_SDK/GD32VW55x_RELEASE_V1.0.2/MSDK/cloud/alicloud/src/protocol/coap/local\CoAPMessage.c ****     if (NULL == buff) {
 524:C:/Users/stapi/OneDrive/Desktop/GD32VW553/V1_MQTT_OK/GD32VW55X_Wifi_BLE_SDK/GD32VW55x_RELEASE_V1.0.2/MSDK/cloud/alicloud/src/protocol/coap/local\CoAPMessage.c ****         COAP_INFO("Malloc memory failed");
 525:C:/Users/stapi/OneDrive/Desktop/GD32VW553/V1_MQTT_OK/GD32VW55X_Wifi_BLE_SDK/GD32VW55x_RELEASE_V1.0.2/MSDK/cloud/alicloud/src/protocol/coap/local\CoAPMessage.c ****         return COAP_ERROR_NULL;
 526:C:/Users/stapi/OneDrive/Desktop/GD32VW553/V1_MQTT_OK/GD32VW55X_Wifi_BLE_SDK/GD32VW55x_RELEASE_V1.0.2/MSDK/cloud/alicloud/src/protocol/coap/local\CoAPMessage.c ****     }
 527:C:/Users/stapi/OneDrive/Desktop/GD32VW553/V1_MQTT_OK/GD32VW55X_Wifi_BLE_SDK/GD32VW55x_RELEASE_V1.0.2/MSDK/cloud/alicloud/src/protocol/coap/local\CoAPMessage.c ****     memset(buff, 0x00, msglen);
 528:C:/Users/stapi/OneDrive/Desktop/GD32VW553/V1_MQTT_OK/GD32VW55X_Wifi_BLE_SDK/GD32VW55x_RELEASE_V1.0.2/MSDK/cloud/alicloud/src/protocol/coap/local\CoAPMessage.c ****     msglen = CoAPSerialize_Message(message, buff, msglen);
 529:C:/Users/stapi/OneDrive/Desktop/GD32VW553/V1_MQTT_OK/GD32VW55X_Wifi_BLE_SDK/GD32VW55x_RELEASE_V1.0.2/MSDK/cloud/alicloud/src/protocol/coap/local\CoAPMessage.c **** 
 530:C:/Users/stapi/OneDrive/Desktop/GD32VW553/V1_MQTT_OK/GD32VW55X_Wifi_BLE_SDK/GD32VW55x_RELEASE_V1.0.2/MSDK/cloud/alicloud/src/protocol/coap/local\CoAPMessage.c **** #ifndef COAP_OBSERVE_CLIENT_DISABLE
 531:C:/Users/stapi/OneDrive/Desktop/GD32VW553/V1_MQTT_OK/GD32VW55X_Wifi_BLE_SDK/GD32VW55x_RELEASE_V1.0.2/MSDK/cloud/alicloud/src/protocol/coap/local\CoAPMessage.c ****     CoAPObsClient_delete(ctx, message);
 532:C:/Users/stapi/OneDrive/Desktop/GD32VW553/V1_MQTT_OK/GD32VW55X_Wifi_BLE_SDK/GD32VW55x_RELEASE_V1.0.2/MSDK/cloud/alicloud/src/protocol/coap/local\CoAPMessage.c **** #endif
 533:C:/Users/stapi/OneDrive/Desktop/GD32VW553/V1_MQTT_OK/GD32VW55X_Wifi_BLE_SDK/GD32VW55x_RELEASE_V1.0.2/MSDK/cloud/alicloud/src/protocol/coap/local\CoAPMessage.c ****     readlen = CoAPNetwork_write(ctx->p_network, remote,
 534:C:/Users/stapi/OneDrive/Desktop/GD32VW553/V1_MQTT_OK/GD32VW55X_Wifi_BLE_SDK/GD32VW55x_RELEASE_V1.0.2/MSDK/cloud/alicloud/src/protocol/coap/local\CoAPMessage.c ****                                 buff, (unsigned int)msglen, ctx->waittime);
 535:C:/Users/stapi/OneDrive/Desktop/GD32VW553/V1_MQTT_OK/GD32VW55X_Wifi_BLE_SDK/GD32VW55x_RELEASE_V1.0.2/MSDK/cloud/alicloud/src/protocol/coap/local\CoAPMessage.c ****     if (msglen == readlen) {/*Send message success*/
 536:C:/Users/stapi/OneDrive/Desktop/GD32VW553/V1_MQTT_OK/GD32VW55X_Wifi_BLE_SDK/GD32VW55x_RELEASE_V1.0.2/MSDK/cloud/alicloud/src/protocol/coap/local\CoAPMessage.c ****         if (CoAPReqMsg(message->header) || CoAPCONRespMsg(message->header)) {
 537:C:/Users/stapi/OneDrive/Desktop/GD32VW553/V1_MQTT_OK/GD32VW55X_Wifi_BLE_SDK/GD32VW55x_RELEASE_V1.0.2/MSDK/cloud/alicloud/src/protocol/coap/local\CoAPMessage.c ****             COAP_FLOW("The message id %d len %d send success, add to the list",
 538:C:/Users/stapi/OneDrive/Desktop/GD32VW553/V1_MQTT_OK/GD32VW55X_Wifi_BLE_SDK/GD32VW55x_RELEASE_V1.0.2/MSDK/cloud/alicloud/src/protocol/coap/local\CoAPMessage.c ****                       message->header.msgid, msglen);
 539:C:/Users/stapi/OneDrive/Desktop/GD32VW553/V1_MQTT_OK/GD32VW55X_Wifi_BLE_SDK/GD32VW55x_RELEASE_V1.0.2/MSDK/cloud/alicloud/src/protocol/coap/local\CoAPMessage.c ****             ret = CoAPMessageList_add(ctx, remote, message, buff, msglen);
 540:C:/Users/stapi/OneDrive/Desktop/GD32VW553/V1_MQTT_OK/GD32VW55X_Wifi_BLE_SDK/GD32VW55x_RELEASE_V1.0.2/MSDK/cloud/alicloud/src/protocol/coap/local\CoAPMessage.c ****             if (COAP_SUCCESS != ret) {
 541:C:/Users/stapi/OneDrive/Desktop/GD32VW553/V1_MQTT_OK/GD32VW55X_Wifi_BLE_SDK/GD32VW55x_RELEASE_V1.0.2/MSDK/cloud/alicloud/src/protocol/coap/local\CoAPMessage.c ****                 coap_free(buff);
 542:C:/Users/stapi/OneDrive/Desktop/GD32VW553/V1_MQTT_OK/GD32VW55X_Wifi_BLE_SDK/GD32VW55x_RELEASE_V1.0.2/MSDK/cloud/alicloud/src/protocol/coap/local\CoAPMessage.c ****                 COAP_ERR("Add the message %d to list failed", message->header.msgid);
 543:C:/Users/stapi/OneDrive/Desktop/GD32VW553/V1_MQTT_OK/GD32VW55X_Wifi_BLE_SDK/GD32VW55x_RELEASE_V1.0.2/MSDK/cloud/alicloud/src/protocol/coap/local\CoAPMessage.c ****                 return ret;
 544:C:/Users/stapi/OneDrive/Desktop/GD32VW553/V1_MQTT_OK/GD32VW55X_Wifi_BLE_SDK/GD32VW55x_RELEASE_V1.0.2/MSDK/cloud/alicloud/src/protocol/coap/local\CoAPMessage.c ****             }
 545:C:/Users/stapi/OneDrive/Desktop/GD32VW553/V1_MQTT_OK/GD32VW55X_Wifi_BLE_SDK/GD32VW55x_RELEASE_V1.0.2/MSDK/cloud/alicloud/src/protocol/coap/local\CoAPMessage.c ****         } else {
 546:C:/Users/stapi/OneDrive/Desktop/GD32VW553/V1_MQTT_OK/GD32VW55X_Wifi_BLE_SDK/GD32VW55x_RELEASE_V1.0.2/MSDK/cloud/alicloud/src/protocol/coap/local\CoAPMessage.c ****             coap_free(buff);
 547:C:/Users/stapi/OneDrive/Desktop/GD32VW553/V1_MQTT_OK/GD32VW55X_Wifi_BLE_SDK/GD32VW55x_RELEASE_V1.0.2/MSDK/cloud/alicloud/src/protocol/coap/local\CoAPMessage.c ****             COAP_FLOW("The message %d isn't CON msg, needless to be retransmitted",
 548:C:/Users/stapi/OneDrive/Desktop/GD32VW553/V1_MQTT_OK/GD32VW55X_Wifi_BLE_SDK/GD32VW55x_RELEASE_V1.0.2/MSDK/cloud/alicloud/src/protocol/coap/local\CoAPMessage.c ****                       message->header.msgid);
 549:C:/Users/stapi/OneDrive/Desktop/GD32VW553/V1_MQTT_OK/GD32VW55X_Wifi_BLE_SDK/GD32VW55x_RELEASE_V1.0.2/MSDK/cloud/alicloud/src/protocol/coap/local\CoAPMessage.c ****         }
 550:C:/Users/stapi/OneDrive/Desktop/GD32VW553/V1_MQTT_OK/GD32VW55X_Wifi_BLE_SDK/GD32VW55x_RELEASE_V1.0.2/MSDK/cloud/alicloud/src/protocol/coap/local\CoAPMessage.c ****     } else {
 551:C:/Users/stapi/OneDrive/Desktop/GD32VW553/V1_MQTT_OK/GD32VW55X_Wifi_BLE_SDK/GD32VW55x_RELEASE_V1.0.2/MSDK/cloud/alicloud/src/protocol/coap/local\CoAPMessage.c ****         coap_free(buff);
 552:C:/Users/stapi/OneDrive/Desktop/GD32VW553/V1_MQTT_OK/GD32VW55X_Wifi_BLE_SDK/GD32VW55x_RELEASE_V1.0.2/MSDK/cloud/alicloud/src/protocol/coap/local\CoAPMessage.c ****         COAP_ERR("CoAP transport write failed, send message %d return %d", message->header.msgid, r
 553:C:/Users/stapi/OneDrive/Desktop/GD32VW553/V1_MQTT_OK/GD32VW55X_Wifi_BLE_SDK/GD32VW55x_RELEASE_V1.0.2/MSDK/cloud/alicloud/src/protocol/coap/local\CoAPMessage.c ****         return COAP_ERROR_WRITE_FAILED;
 554:C:/Users/stapi/OneDrive/Desktop/GD32VW553/V1_MQTT_OK/GD32VW55X_Wifi_BLE_SDK/GD32VW55x_RELEASE_V1.0.2/MSDK/cloud/alicloud/src/protocol/coap/local\CoAPMessage.c ****     }
 555:C:/Users/stapi/OneDrive/Desktop/GD32VW553/V1_MQTT_OK/GD32VW55X_Wifi_BLE_SDK/GD32VW55x_RELEASE_V1.0.2/MSDK/cloud/alicloud/src/protocol/coap/local\CoAPMessage.c **** 
 556:C:/Users/stapi/OneDrive/Desktop/GD32VW553/V1_MQTT_OK/GD32VW55X_Wifi_BLE_SDK/GD32VW55x_RELEASE_V1.0.2/MSDK/cloud/alicloud/src/protocol/coap/local\CoAPMessage.c ****     CoAPMessage_dump(remote, message);
 557:C:/Users/stapi/OneDrive/Desktop/GD32VW553/V1_MQTT_OK/GD32VW55X_Wifi_BLE_SDK/GD32VW55x_RELEASE_V1.0.2/MSDK/cloud/alicloud/src/protocol/coap/local\CoAPMessage.c ****     return COAP_SUCCESS;
 558:C:/Users/stapi/OneDrive/Desktop/GD32VW553/V1_MQTT_OK/GD32VW55X_Wifi_BLE_SDK/GD32VW55x_RELEASE_V1.0.2/MSDK/cloud/alicloud/src/protocol/coap/local\CoAPMessage.c **** }
 1653              		.loc 1 558 1
 1654 0070 2685     		mv	a0,s1
 1655 0072 4101     		addi	sp,sp,16
 1656              		.cfi_remember_state
 1657              		.cfi_def_cfa_offset 0
 1658 0074 17030000 		tail	__riscv_restore_10
 1658      67000300 
 1659              		.cfi_restore 25
 1660              		.cfi_restore 24
 1661              		.cfi_restore 23
 1662              		.cfi_restore 22
 1663              		.cfi_restore 21
 1664              		.cfi_restore 20
 1665              		.cfi_restore 19
 1666              		.cfi_restore 18
 1667              		.cfi_restore 9
 1668              		.cfi_restore 8
 1669              		.cfi_restore 1
 1670              		.cfi_def_cfa_offset -48
 1671              	.LVL166:
 1672              	.L155:
 1673              		.cfi_restore_state
 522:C:/Users/stapi/OneDrive/Desktop/GD32VW553/V1_MQTT_OK/GD32VW55X_Wifi_BLE_SDK/GD32VW55x_RELEASE_V1.0.2/MSDK/cloud/alicloud/src/protocol/coap/local\CoAPMessage.c ****     if (NULL == buff) {
 1674              		.loc 1 522 5 is_stmt 1
 522:C:/Users/stapi/OneDrive/Desktop/GD32VW553/V1_MQTT_OK/GD32VW55X_Wifi_BLE_SDK/GD32VW55x_RELEASE_V1.0.2/MSDK/cloud/alicloud/src/protocol/coap/local\CoAPMessage.c ****     if (NULL == buff) {
 1675              		.loc 1 522 29 is_stmt 0
 1676 007c 2A86     		mv	a2,a0
 1677 007e 8145     		li	a1,0
 1678 0080 0145     		li	a0,0
 1679              	.LVL167:
 1680 0082 97000000 		call	LITE_malloc_internal
 1680      E7800000 
 1681              	.LVL168:
 1682 008a AA89     		mv	s3,a0
 1683              	.LVL169:
 523:C:/Users/stapi/OneDrive/Desktop/GD32VW553/V1_MQTT_OK/GD32VW55X_Wifi_BLE_SDK/GD32VW55x_RELEASE_V1.0.2/MSDK/cloud/alicloud/src/protocol/coap/local\CoAPMessage.c ****         COAP_INFO("Malloc memory failed");
 1684              		.loc 1 523 5 is_stmt 1
 523:C:/Users/stapi/OneDrive/Desktop/GD32VW553/V1_MQTT_OK/GD32VW55X_Wifi_BLE_SDK/GD32VW55x_RELEASE_V1.0.2/MSDK/cloud/alicloud/src/protocol/coap/local\CoAPMessage.c ****         COAP_INFO("Malloc memory failed");
 1685              		.loc 1 523 8 is_stmt 0
 1686 008c 05ED     		bne	a0,zero,.L156
 524:C:/Users/stapi/OneDrive/Desktop/GD32VW553/V1_MQTT_OK/GD32VW55X_Wifi_BLE_SDK/GD32VW55x_RELEASE_V1.0.2/MSDK/cloud/alicloud/src/protocol/coap/local\CoAPMessage.c ****         return COAP_ERROR_NULL;
 1687              		.loc 1 524 9 is_stmt 1
 524:C:/Users/stapi/OneDrive/Desktop/GD32VW553/V1_MQTT_OK/GD32VW55X_Wifi_BLE_SDK/GD32VW55x_RELEASE_V1.0.2/MSDK/cloud/alicloud/src/protocol/coap/local\CoAPMessage.c ****         return COAP_ERROR_NULL;
 1688              		.loc 1 524 9
 1689 008e 37050000 		lui	a0,%hi(.LC5)
 1690              	.LVL170:
 1691 0092 13050500 		addi	a0,a0,%lo(.LC5)
 1692 0096 97000000 		call	HAL_Printf
 1692      E7800000 
 1693              	.LVL171:
 524:C:/Users/stapi/OneDrive/Desktop/GD32VW553/V1_MQTT_OK/GD32VW55X_Wifi_BLE_SDK/GD32VW55x_RELEASE_V1.0.2/MSDK/cloud/alicloud/src/protocol/coap/local\CoAPMessage.c ****         return COAP_ERROR_NULL;
 1694              		.loc 1 524 9
 1695 009e 37050000 		lui	a0,%hi(.LC8)
 1696 00a2 13050500 		addi	a0,a0,%lo(.LC8)
 1697 00a6 97000000 		call	HAL_Printf
 1697      E7800000 
 1698              	.LVL172:
 524:C:/Users/stapi/OneDrive/Desktop/GD32VW553/V1_MQTT_OK/GD32VW55X_Wifi_BLE_SDK/GD32VW55x_RELEASE_V1.0.2/MSDK/cloud/alicloud/src/protocol/coap/local\CoAPMessage.c ****         return COAP_ERROR_NULL;
 1699              		.loc 1 524 9
 1700 00ae 37050000 		lui	a0,%hi(.LC7)
 1701 00b2 13050500 		addi	a0,a0,%lo(.LC7)
 1702 00b6 97000000 		call	HAL_Printf
 1702      E7800000 
 1703              	.LVL173:
 524:C:/Users/stapi/OneDrive/Desktop/GD32VW553/V1_MQTT_OK/GD32VW55X_Wifi_BLE_SDK/GD32VW55x_RELEASE_V1.0.2/MSDK/cloud/alicloud/src/protocol/coap/local\CoAPMessage.c ****         return COAP_ERROR_NULL;
 1704              		.loc 1 524 9
 525:C:/Users/stapi/OneDrive/Desktop/GD32VW553/V1_MQTT_OK/GD32VW55X_Wifi_BLE_SDK/GD32VW55x_RELEASE_V1.0.2/MSDK/cloud/alicloud/src/protocol/coap/local\CoAPMessage.c ****     }
 1705              		.loc 1 525 9
 525:C:/Users/stapi/OneDrive/Desktop/GD32VW553/V1_MQTT_OK/GD32VW55X_Wifi_BLE_SDK/GD32VW55x_RELEASE_V1.0.2/MSDK/cloud/alicloud/src/protocol/coap/local\CoAPMessage.c ****     }
 1706              		.loc 1 525 16 is_stmt 0
 1707 00be 93042010 		li	s1,258
 1708 00c2 7DB7     		j	.L153
 1709              	.LVL174:
 1710              	.L156:
 527:C:/Users/stapi/OneDrive/Desktop/GD32VW553/V1_MQTT_OK/GD32VW55X_Wifi_BLE_SDK/GD32VW55x_RELEASE_V1.0.2/MSDK/cloud/alicloud/src/protocol/coap/local\CoAPMessage.c ****     msglen = CoAPSerialize_Message(message, buff, msglen);
 1711              		.loc 1 527 5 is_stmt 1
 1712 00c4 2686     		mv	a2,s1
 1713 00c6 8145     		li	a1,0
 1714 00c8 97000000 		call	memset
 1714      E7800000 
 1715              	.LVL175:
 528:C:/Users/stapi/OneDrive/Desktop/GD32VW553/V1_MQTT_OK/GD32VW55X_Wifi_BLE_SDK/GD32VW55x_RELEASE_V1.0.2/MSDK/cloud/alicloud/src/protocol/coap/local\CoAPMessage.c **** 
 1716              		.loc 1 528 5
 528:C:/Users/stapi/OneDrive/Desktop/GD32VW553/V1_MQTT_OK/GD32VW55X_Wifi_BLE_SDK/GD32VW55x_RELEASE_V1.0.2/MSDK/cloud/alicloud/src/protocol/coap/local\CoAPMessage.c **** 
 1717              		.loc 1 528 14 is_stmt 0
 1718 00d0 2686     		mv	a2,s1
 1719 00d2 CE85     		mv	a1,s3
 1720 00d4 2285     		mv	a0,s0
 1721 00d6 97000000 		call	CoAPSerialize_Message
 1721      E7800000 
 1722              	.LVL176:
 533:C:/Users/stapi/OneDrive/Desktop/GD32VW553/V1_MQTT_OK/GD32VW55X_Wifi_BLE_SDK/GD32VW55x_RELEASE_V1.0.2/MSDK/cloud/alicloud/src/protocol/coap/local\CoAPMessage.c ****                                 buff, (unsigned int)msglen, ctx->waittime);
 1723              		.loc 1 533 5 is_stmt 1
 1724 00de 334C0508 		zext.h	s8,a0
 533:C:/Users/stapi/OneDrive/Desktop/GD32VW553/V1_MQTT_OK/GD32VW55X_Wifi_BLE_SDK/GD32VW55x_RELEASE_V1.0.2/MSDK/cloud/alicloud/src/protocol/coap/local\CoAPMessage.c ****                                 buff, (unsigned int)msglen, ctx->waittime);
 1725              		.loc 1 533 15 is_stmt 0
 1726 00e2 03274905 		lw	a4,84(s2)
 1727 00e6 03254900 		lw	a0,4(s2)
 1728              	.LVL177:
 1729 00ea E286     		mv	a3,s8
 1730 00ec 4E86     		mv	a2,s3
 1731 00ee D685     		mv	a1,s5
 1732 00f0 97000000 		call	CoAPNetwork_write
 1732      E7800000 
 1733              	.LVL178:
 535:C:/Users/stapi/OneDrive/Desktop/GD32VW553/V1_MQTT_OK/GD32VW55X_Wifi_BLE_SDK/GD32VW55x_RELEASE_V1.0.2/MSDK/cloud/alicloud/src/protocol/coap/local\CoAPMessage.c ****         if (CoAPReqMsg(message->header) || CoAPCONRespMsg(message->header)) {
 1734              		.loc 1 535 5 is_stmt 1
 535:C:/Users/stapi/OneDrive/Desktop/GD32VW553/V1_MQTT_OK/GD32VW55X_Wifi_BLE_SDK/GD32VW55x_RELEASE_V1.0.2/MSDK/cloud/alicloud/src/protocol/coap/local\CoAPMessage.c ****         if (CoAPReqMsg(message->header) || CoAPCONRespMsg(message->header)) {
 1735              		.loc 1 535 8 is_stmt 0
 1736 00f8 33450508 		zext.h	a0,a0
 1737 00fc 6316AC32 		bne	s8,a0,.L157
 536:C:/Users/stapi/OneDrive/Desktop/GD32VW553/V1_MQTT_OK/GD32VW55X_Wifi_BLE_SDK/GD32VW55x_RELEASE_V1.0.2/MSDK/cloud/alicloud/src/protocol/coap/local\CoAPMessage.c ****             COAP_FLOW("The message id %d len %d send success, add to the list",
 1738              		.loc 1 536 9 is_stmt 1
 536:C:/Users/stapi/OneDrive/Desktop/GD32VW553/V1_MQTT_OK/GD32VW55X_Wifi_BLE_SDK/GD32VW55x_RELEASE_V1.0.2/MSDK/cloud/alicloud/src/protocol/coap/local\CoAPMessage.c ****             COAP_FLOW("The message id %d len %d send success, add to the list",
 1739              		.loc 1 536 13 is_stmt 0
 1740 0100 83471400 		lbu	a5,1(s0)
 536:C:/Users/stapi/OneDrive/Desktop/GD32VW553/V1_MQTT_OK/GD32VW55X_Wifi_BLE_SDK/GD32VW55x_RELEASE_V1.0.2/MSDK/cloud/alicloud/src/protocol/coap/local\CoAPMessage.c ****             COAP_FLOW("The message id %d len %d send success, add to the list",
 1741              		.loc 1 536 12
 1742 0104 7947     		li	a4,30
 1743 0106 B7040000 		lui	s1,%hi(.LANCHOR2)
 536:C:/Users/stapi/OneDrive/Desktop/GD32VW553/V1_MQTT_OK/GD32VW55X_Wifi_BLE_SDK/GD32VW55x_RELEASE_V1.0.2/MSDK/cloud/alicloud/src/protocol/coap/local\CoAPMessage.c ****             COAP_FLOW("The message id %d len %d send success, add to the list",
 1744              		.loc 1 536 13
 1745 010a FD17     		addi	a5,a5,-1
 536:C:/Users/stapi/OneDrive/Desktop/GD32VW553/V1_MQTT_OK/GD32VW55X_Wifi_BLE_SDK/GD32VW55x_RELEASE_V1.0.2/MSDK/cloud/alicloud/src/protocol/coap/local\CoAPMessage.c ****             COAP_FLOW("The message id %d len %d send success, add to the list",
 1746              		.loc 1 536 12
 1747 010c 93F7F70F 		andi	a5,a5,0xff
 1748 0110 370B0000 		lui	s6,%hi(.LC1)
 1749 0114 6374F702 		bleu	a5,a4,.L158
 536:C:/Users/stapi/OneDrive/Desktop/GD32VW553/V1_MQTT_OK/GD32VW55X_Wifi_BLE_SDK/GD32VW55x_RELEASE_V1.0.2/MSDK/cloud/alicloud/src/protocol/coap/local\CoAPMessage.c ****             COAP_FLOW("The message id %d len %d send success, add to the list",
 1750              		.loc 1 536 44 discriminator 1
 1751 0118 83570400 		lhu	a5,0(s0)
 1752 011c 2316F100 		sh	a5,12(sp)
 1753 0120 83572400 		lhu	a5,2(s0)
 1754 0124 2317F100 		sh	a5,14(sp)
 1755 0128 3247     		lw	a4,12(sp)
 1756 012a C167     		li	a5,65536
 1757 012c 9387C7F0 		addi	a5,a5,-244
 1758 0130 7D8F     		and	a4,a4,a5
 536:C:/Users/stapi/OneDrive/Desktop/GD32VW553/V1_MQTT_OK/GD32VW55X_Wifi_BLE_SDK/GD32VW55x_RELEASE_V1.0.2/MSDK/cloud/alicloud/src/protocol/coap/local\CoAPMessage.c ****             COAP_FLOW("The message id %d len %d send success, add to the list",
 1759              		.loc 1 536 41 discriminator 1
 1760 0132 9167     		li	a5,16384
 1761 0134 93870750 		addi	a5,a5,1280
 1762 0138 6311F72C 		bne	a4,a5,.L159
 1763              	.L158:
 537:C:/Users/stapi/OneDrive/Desktop/GD32VW553/V1_MQTT_OK/GD32VW55X_Wifi_BLE_SDK/GD32VW55x_RELEASE_V1.0.2/MSDK/cloud/alicloud/src/protocol/coap/local\CoAPMessage.c ****                       message->header.msgid, msglen);
 1764              		.loc 1 537 13 is_stmt 1
 1765 013c 83572400 		lhu	a5,2(s0)
 1766 0140 37070000 		lui	a4,%hi(.LC9)
 1767 0144 93850400 		addi	a1,s1,%lo(.LANCHOR2)
 1768 0148 13050B00 		addi	a0,s6,%lo(.LC1)
 1769              	.LVL179:
 1770 014c 6288     		mv	a6,s8
 1771 014e 13070700 		addi	a4,a4,%lo(.LC9)
 1772 0152 9546     		li	a3,5
 1773 0154 13069021 		li	a2,537
 1774 0158 97000000 		call	LITE_syslog
 1774      E7800000 
 1775              	.LVL180:
 539:C:/Users/stapi/OneDrive/Desktop/GD32VW553/V1_MQTT_OK/GD32VW55X_Wifi_BLE_SDK/GD32VW55x_RELEASE_V1.0.2/MSDK/cloud/alicloud/src/protocol/coap/local\CoAPMessage.c ****             if (COAP_SUCCESS != ret) {
 1776              		.loc 1 539 13
 1777              	.LBB67:
 1778              	.LBB68:
 371:C:/Users/stapi/OneDrive/Desktop/GD32VW553/V1_MQTT_OK/GD32VW55X_Wifi_BLE_SDK/GD32VW55x_RELEASE_V1.0.2/MSDK/cloud/alicloud/src/protocol/coap/local\CoAPMessage.c ****     CoAPSendNode *node = NULL;
 1779              		.loc 1 371 5
 372:C:/Users/stapi/OneDrive/Desktop/GD32VW553/V1_MQTT_OK/GD32VW55X_Wifi_BLE_SDK/GD32VW55x_RELEASE_V1.0.2/MSDK/cloud/alicloud/src/protocol/coap/local\CoAPMessage.c ****     CoAPSendNode *next = NULL;
 1780              		.loc 1 372 5
 373:C:/Users/stapi/OneDrive/Desktop/GD32VW553/V1_MQTT_OK/GD32VW55X_Wifi_BLE_SDK/GD32VW55x_RELEASE_V1.0.2/MSDK/cloud/alicloud/src/protocol/coap/local\CoAPMessage.c ****     int no_response = 0;
 1781              		.loc 1 373 5
 374:C:/Users/stapi/OneDrive/Desktop/GD32VW553/V1_MQTT_OK/GD32VW55X_Wifi_BLE_SDK/GD32VW55x_RELEASE_V1.0.2/MSDK/cloud/alicloud/src/protocol/coap/local\CoAPMessage.c ****     int keep = NOKEEP;
 1782              		.loc 1 374 5
 375:C:/Users/stapi/OneDrive/Desktop/GD32VW553/V1_MQTT_OK/GD32VW55X_Wifi_BLE_SDK/GD32VW55x_RELEASE_V1.0.2/MSDK/cloud/alicloud/src/protocol/coap/local\CoAPMessage.c **** 
 1783              		.loc 1 375 5
 377:C:/Users/stapi/OneDrive/Desktop/GD32VW553/V1_MQTT_OK/GD32VW55X_Wifi_BLE_SDK/GD32VW55x_RELEASE_V1.0.2/MSDK/cloud/alicloud/src/protocol/coap/local\CoAPMessage.c ****        no_response = 1;
 1784              		.loc 1 377 5
 377:C:/Users/stapi/OneDrive/Desktop/GD32VW553/V1_MQTT_OK/GD32VW55X_Wifi_BLE_SDK/GD32VW55x_RELEASE_V1.0.2/MSDK/cloud/alicloud/src/protocol/coap/local\CoAPMessage.c ****        no_response = 1;
 1785              		.loc 1 377 24 is_stmt 0
 1786 0160 93052010 		li	a1,258
 1787 0164 2285     		mv	a0,s0
 1788 0166 97000000 		call	CoAPOption_present
 1788      E7800000 
 1789              	.LVL181:
 377:C:/Users/stapi/OneDrive/Desktop/GD32VW553/V1_MQTT_OK/GD32VW55X_Wifi_BLE_SDK/GD32VW55x_RELEASE_V1.0.2/MSDK/cloud/alicloud/src/protocol/coap/local\CoAPMessage.c ****        no_response = 1;
 1790              		.loc 1 377 7
 1791 016e 15ED     		bne	a0,zero,.L173
 378:C:/Users/stapi/OneDrive/Desktop/GD32VW553/V1_MQTT_OK/GD32VW55X_Wifi_BLE_SDK/GD32VW55x_RELEASE_V1.0.2/MSDK/cloud/alicloud/src/protocol/coap/local\CoAPMessage.c ****     }
 1792              		.loc 1 378 8 is_stmt 1
 1793              	.LVL182:
 380:C:/Users/stapi/OneDrive/Desktop/GD32VW553/V1_MQTT_OK/GD32VW55X_Wifi_BLE_SDK/GD32VW55x_RELEASE_V1.0.2/MSDK/cloud/alicloud/src/protocol/coap/local\CoAPMessage.c ****         COAP_DEBUG("The message %d don't add to list", message->header.msgid);
 1794              		.loc 1 380 5
 380:C:/Users/stapi/OneDrive/Desktop/GD32VW553/V1_MQTT_OK/GD32VW55X_Wifi_BLE_SDK/GD32VW55x_RELEASE_V1.0.2/MSDK/cloud/alicloud/src/protocol/coap/local\CoAPMessage.c ****         COAP_DEBUG("The message %d don't add to list", message->header.msgid);
 1795              		.loc 1 380 24 is_stmt 0
 1796 0170 83470400 		lbu	a5,0(s0)
 380:C:/Users/stapi/OneDrive/Desktop/GD32VW553/V1_MQTT_OK/GD32VW55X_Wifi_BLE_SDK/GD32VW55x_RELEASE_V1.0.2/MSDK/cloud/alicloud/src/protocol/coap/local\CoAPMessage.c ****         COAP_DEBUG("The message %d don't add to list", message->header.msgid);
 1797              		.loc 1 380 21
 1798 0174 1147     		li	a4,4
 378:C:/Users/stapi/OneDrive/Desktop/GD32VW553/V1_MQTT_OK/GD32VW55X_Wifi_BLE_SDK/GD32VW55x_RELEASE_V1.0.2/MSDK/cloud/alicloud/src/protocol/coap/local\CoAPMessage.c ****     }
 1799              		.loc 1 378 20
 1800 0176 854C     		li	s9,1
 380:C:/Users/stapi/OneDrive/Desktop/GD32VW553/V1_MQTT_OK/GD32VW55X_Wifi_BLE_SDK/GD32VW55x_RELEASE_V1.0.2/MSDK/cloud/alicloud/src/protocol/coap/local\CoAPMessage.c ****         COAP_DEBUG("The message %d don't add to list", message->header.msgid);
 1801              		.loc 1 380 21
 1802 0178 B18B     		andi	a5,a5,12
 1803 017a 6399E702 		bne	a5,a4,.L160
 381:C:/Users/stapi/OneDrive/Desktop/GD32VW553/V1_MQTT_OK/GD32VW55X_Wifi_BLE_SDK/GD32VW55x_RELEASE_V1.0.2/MSDK/cloud/alicloud/src/protocol/coap/local\CoAPMessage.c ****         return COAP_ERROR_NULL;
 1804              		.loc 1 381 9 is_stmt 1
 1805 017e 83572400 		lhu	a5,2(s0)
 1806 0182 37070000 		lui	a4,%hi(.LC10)
 1807 0186 B7050000 		lui	a1,%hi(.LANCHOR3)
 1808 018a 13070700 		addi	a4,a4,%lo(.LC10)
 1809 018e 9546     		li	a3,5
 1810 0190 1306D017 		li	a2,381
 1811 0194 93850500 		addi	a1,a1,%lo(.LANCHOR3)
 1812 0198 13050B00 		addi	a0,s6,%lo(.LC1)
 1813 019c 97000000 		call	LITE_syslog
 1813      E7800000 
 1814              	.LVL183:
 382:C:/Users/stapi/OneDrive/Desktop/GD32VW553/V1_MQTT_OK/GD32VW55X_Wifi_BLE_SDK/GD32VW55x_RELEASE_V1.0.2/MSDK/cloud/alicloud/src/protocol/coap/local\CoAPMessage.c ****     }
 1815              		.loc 1 382 9
 1816              	.LBE68:
 1817              	.LBE67:
 540:C:/Users/stapi/OneDrive/Desktop/GD32VW553/V1_MQTT_OK/GD32VW55X_Wifi_BLE_SDK/GD32VW55x_RELEASE_V1.0.2/MSDK/cloud/alicloud/src/protocol/coap/local\CoAPMessage.c ****                 coap_free(buff);
 1818              		.loc 1 540 13
 1819              	.L176:
 1820              	.LBB87:
 1821              	.LBB83:
 442:C:/Users/stapi/OneDrive/Desktop/GD32VW553/V1_MQTT_OK/GD32VW55X_Wifi_BLE_SDK/GD32VW55x_RELEASE_V1.0.2/MSDK/cloud/alicloud/src/protocol/coap/local\CoAPMessage.c ****     }
 1822              		.loc 1 442 16 is_stmt 0
 1823 01a4 93042010 		li	s1,258
 1824 01a8 95AA     		j	.L161
 1825              	.LVL184:
 1826              	.L173:
 374:C:/Users/stapi/OneDrive/Desktop/GD32VW553/V1_MQTT_OK/GD32VW55X_Wifi_BLE_SDK/GD32VW55x_RELEASE_V1.0.2/MSDK/cloud/alicloud/src/protocol/coap/local\CoAPMessage.c ****     int keep = NOKEEP;
 1827              		.loc 1 374 9
 1828 01aa 814C     		li	s9,0
 1829              	.LVL185:
 1830              	.L160:
 385:C:/Users/stapi/OneDrive/Desktop/GD32VW553/V1_MQTT_OK/GD32VW55X_Wifi_BLE_SDK/GD32VW55x_RELEASE_V1.0.2/MSDK/cloud/alicloud/src/protocol/coap/local\CoAPMessage.c ****     list_for_each_entry_safe(node, next, &ctx->sendlist.list, sendlist, CoAPSendNode) {
 1831              		.loc 1 385 5 is_stmt 1
 1832 01ac 03254901 		lw	a0,20(s2)
 386:C:/Users/stapi/OneDrive/Desktop/GD32VW553/V1_MQTT_OK/GD32VW55X_Wifi_BLE_SDK/GD32VW55x_RELEASE_V1.0.2/MSDK/cloud/alicloud/src/protocol/coap/local\CoAPMessage.c ****         if (NULL != node && node->keep == KEEPING){
 1833              		.loc 1 386 5 is_stmt 0
 1834 01b0 930B8901 		addi	s7,s2,24
 385:C:/Users/stapi/OneDrive/Desktop/GD32VW553/V1_MQTT_OK/GD32VW55X_Wifi_BLE_SDK/GD32VW55x_RELEASE_V1.0.2/MSDK/cloud/alicloud/src/protocol/coap/local\CoAPMessage.c ****     list_for_each_entry_safe(node, next, &ctx->sendlist.list, sendlist, CoAPSendNode) {
 1835              		.loc 1 385 5
 1836 01b4 97000000 		call	HAL_MutexLock
 1836      E7800000 
 1837              	.LVL186:
 386:C:/Users/stapi/OneDrive/Desktop/GD32VW553/V1_MQTT_OK/GD32VW55X_Wifi_BLE_SDK/GD32VW55x_RELEASE_V1.0.2/MSDK/cloud/alicloud/src/protocol/coap/local\CoAPMessage.c ****         if (NULL != node && node->keep == KEEPING){
 1838              		.loc 1 386 5 is_stmt 1
 1839 01bc 8327C901 		lw	a5,28(s2)
 387:C:/Users/stapi/OneDrive/Desktop/GD32VW553/V1_MQTT_OK/GD32VW55X_Wifi_BLE_SDK/GD32VW55x_RELEASE_V1.0.2/MSDK/cloud/alicloud/src/protocol/coap/local\CoAPMessage.c ****             if (node->header.msgid == message->header.msgid) {
 1840              		.loc 1 387 26 is_stmt 0
 1841 01c0 0546     		li	a2,1
 386:C:/Users/stapi/OneDrive/Desktop/GD32VW553/V1_MQTT_OK/GD32VW55X_Wifi_BLE_SDK/GD32VW55x_RELEASE_V1.0.2/MSDK/cloud/alicloud/src/protocol/coap/local\CoAPMessage.c ****         if (NULL != node && node->keep == KEEPING){
 1842              		.loc 1 386 5
 1843 01c2 138787FC 		addi	a4,a5,-56
 1844              	.LVL187:
 1845 01c6 DC43     		lw	a5,4(a5)
 1846 01c8 938787FC 		addi	a5,a5,-56
 1847              	.LVL188:
 1848              	.L162:
 386:C:/Users/stapi/OneDrive/Desktop/GD32VW553/V1_MQTT_OK/GD32VW55X_Wifi_BLE_SDK/GD32VW55x_RELEASE_V1.0.2/MSDK/cloud/alicloud/src/protocol/coap/local\CoAPMessage.c ****         if (NULL != node && node->keep == KEEPING){
 1849              		.loc 1 386 5 is_stmt 1
 1850 01cc 93068703 		addi	a3,a4,56
 1851 01d0 6396DB18 		bne	s7,a3,.L165
 395:C:/Users/stapi/OneDrive/Desktop/GD32VW553/V1_MQTT_OK/GD32VW55X_Wifi_BLE_SDK/GD32VW55x_RELEASE_V1.0.2/MSDK/cloud/alicloud/src/protocol/coap/local\CoAPMessage.c **** 
 1852              		.loc 1 395 5
 1853 01d4 03254901 		lw	a0,20(s2)
 398:C:/Users/stapi/OneDrive/Desktop/GD32VW553/V1_MQTT_OK/GD32VW55X_Wifi_BLE_SDK/GD32VW55x_RELEASE_V1.0.2/MSDK/cloud/alicloud/src/protocol/coap/local\CoAPMessage.c ****     }
 1854              		.loc 1 398 14 is_stmt 0
 1855 01d8 054A     		li	s4,1
 395:C:/Users/stapi/OneDrive/Desktop/GD32VW553/V1_MQTT_OK/GD32VW55X_Wifi_BLE_SDK/GD32VW55x_RELEASE_V1.0.2/MSDK/cloud/alicloud/src/protocol/coap/local\CoAPMessage.c **** 
 1856              		.loc 1 395 5
 1857 01da 97000000 		call	HAL_MutexUnlock
 1857      E7800000 
 1858              	.LVL189:
 397:C:/Users/stapi/OneDrive/Desktop/GD32VW553/V1_MQTT_OK/GD32VW55X_Wifi_BLE_SDK/GD32VW55x_RELEASE_V1.0.2/MSDK/cloud/alicloud/src/protocol/coap/local\CoAPMessage.c ****         keep = KEEPING;
 1859              		.loc 1 397 5 is_stmt 1
 397:C:/Users/stapi/OneDrive/Desktop/GD32VW553/V1_MQTT_OK/GD32VW55X_Wifi_BLE_SDK/GD32VW55x_RELEASE_V1.0.2/MSDK/cloud/alicloud/src/protocol/coap/local\CoAPMessage.c ****         keep = KEEPING;
 1860              		.loc 1 397 8 is_stmt 0
 1861 01e2 5685     		mv	a0,s5
 1862 01e4 97000000 		call	platform_is_multicast
 1862      E7800000 
 1863              	.LVL190:
 397:C:/Users/stapi/OneDrive/Desktop/GD32VW553/V1_MQTT_OK/GD32VW55X_Wifi_BLE_SDK/GD32VW55x_RELEASE_V1.0.2/MSDK/cloud/alicloud/src/protocol/coap/local\CoAPMessage.c ****         keep = KEEPING;
 1864              		.loc 1 397 7
 1865 01ec 11E5     		bne	a0,zero,.L166
 397:C:/Users/stapi/OneDrive/Desktop/GD32VW553/V1_MQTT_OK/GD32VW55X_Wifi_BLE_SDK/GD32VW55x_RELEASE_V1.0.2/MSDK/cloud/alicloud/src/protocol/coap/local\CoAPMessage.c ****         keep = KEEPING;
 1866              		.loc 1 397 58
 1867 01ee 032AC407 		lw	s4,124(s0)
 1868 01f2 7D1A     		addi	s4,s4,-1
 1869 01f4 133A1A00 		seqz	s4,s4
 1870              	.L166:
 1871              	.LVL191:
 401:C:/Users/stapi/OneDrive/Desktop/GD32VW553/V1_MQTT_OK/GD32VW55X_Wifi_BLE_SDK/GD32VW55x_RELEASE_V1.0.2/MSDK/cloud/alicloud/src/protocol/coap/local\CoAPMessage.c ****     if (NULL != node) {
 1872              		.loc 1 401 5 is_stmt 1
 401:C:/Users/stapi/OneDrive/Desktop/GD32VW553/V1_MQTT_OK/GD32VW55X_Wifi_BLE_SDK/GD32VW55x_RELEASE_V1.0.2/MSDK/cloud/alicloud/src/protocol/coap/local\CoAPMessage.c ****     if (NULL != node) {
 1873              		.loc 1 401 12 is_stmt 0
 1874 01f8 13068005 		li	a2,88
 1875 01fc 8145     		li	a1,0
 1876 01fe 0145     		li	a0,0
 1877 0200 97000000 		call	LITE_malloc_internal
 1877      E7800000 
 1878              	.LVL192:
 1879 0208 AA84     		mv	s1,a0
 1880              	.LVL193:
 402:C:/Users/stapi/OneDrive/Desktop/GD32VW553/V1_MQTT_OK/GD32VW55X_Wifi_BLE_SDK/GD32VW55x_RELEASE_V1.0.2/MSDK/cloud/alicloud/src/protocol/coap/local\CoAPMessage.c ****         memset(node, 0x00, sizeof(CoAPSendNode));
 1881              		.loc 1 402 5 is_stmt 1
 402:C:/Users/stapi/OneDrive/Desktop/GD32VW553/V1_MQTT_OK/GD32VW55X_Wifi_BLE_SDK/GD32VW55x_RELEASE_V1.0.2/MSDK/cloud/alicloud/src/protocol/coap/local\CoAPMessage.c ****         memset(node, 0x00, sizeof(CoAPSendNode));
 1882              		.loc 1 402 8 is_stmt 0
 1883 020a 49DD     		beq	a0,zero,.L176
 1884              	.LBB69:
 403:C:/Users/stapi/OneDrive/Desktop/GD32VW553/V1_MQTT_OK/GD32VW55X_Wifi_BLE_SDK/GD32VW55x_RELEASE_V1.0.2/MSDK/cloud/alicloud/src/protocol/coap/local\CoAPMessage.c ****         node->acked        = 0;
 1885              		.loc 1 403 9 is_stmt 1
 1886 020c 13068005 		li	a2,88
 1887 0210 8145     		li	a1,0
 1888 0212 97000000 		call	memset
 1888      E7800000 
 1889              	.LVL194:
 404:C:/Users/stapi/OneDrive/Desktop/GD32VW553/V1_MQTT_OK/GD32VW55X_Wifi_BLE_SDK/GD32VW55x_RELEASE_V1.0.2/MSDK/cloud/alicloud/src/protocol/coap/local\CoAPMessage.c ****         node->user         = message->user;
 1890              		.loc 1 404 9
 405:C:/Users/stapi/OneDrive/Desktop/GD32VW553/V1_MQTT_OK/GD32VW55X_Wifi_BLE_SDK/GD32VW55x_RELEASE_V1.0.2/MSDK/cloud/alicloud/src/protocol/coap/local\CoAPMessage.c ****         node->header       = message->header;
 1891              		.loc 1 405 9
 405:C:/Users/stapi/OneDrive/Desktop/GD32VW553/V1_MQTT_OK/GD32VW55X_Wifi_BLE_SDK/GD32VW55x_RELEASE_V1.0.2/MSDK/cloud/alicloud/src/protocol/coap/local\CoAPMessage.c ****         node->header       = message->header;
 1892              		.loc 1 405 28 is_stmt 0
 1893 021a 3C5C     		lw	a5,120(s0)
 413:C:/Users/stapi/OneDrive/Desktop/GD32VW553/V1_MQTT_OK/GD32VW55X_Wifi_BLE_SDK/GD32VW55x_RELEASE_V1.0.2/MSDK/cloud/alicloud/src/protocol/coap/local\CoAPMessage.c ****         memcpy(node->token, message->token, message->header.tokenlen);
 1894              		.loc 1 413 9
 1895 021c 4946     		li	a2,18
 1896 021e D685     		mv	a1,s5
 405:C:/Users/stapi/OneDrive/Desktop/GD32VW553/V1_MQTT_OK/GD32VW55X_Wifi_BLE_SDK/GD32VW55x_RELEASE_V1.0.2/MSDK/cloud/alicloud/src/protocol/coap/local\CoAPMessage.c ****         node->header       = message->header;
 1897              		.loc 1 405 28
 1898 0220 BCC0     		sw	a5,64(s1)
 406:C:/Users/stapi/OneDrive/Desktop/GD32VW553/V1_MQTT_OK/GD32VW55X_Wifi_BLE_SDK/GD32VW55x_RELEASE_V1.0.2/MSDK/cloud/alicloud/src/protocol/coap/local\CoAPMessage.c ****         node->handler      = message->handler;
 1899              		.loc 1 406 9 is_stmt 1
 406:C:/Users/stapi/OneDrive/Desktop/GD32VW553/V1_MQTT_OK/GD32VW55X_Wifi_BLE_SDK/GD32VW55x_RELEASE_V1.0.2/MSDK/cloud/alicloud/src/protocol/coap/local\CoAPMessage.c ****         node->handler      = message->handler;
 1900              		.loc 1 406 28 is_stmt 0
 1901 0222 1C40     		lw	a5,0(s0)
 413:C:/Users/stapi/OneDrive/Desktop/GD32VW553/V1_MQTT_OK/GD32VW55X_Wifi_BLE_SDK/GD32VW55x_RELEASE_V1.0.2/MSDK/cloud/alicloud/src/protocol/coap/local\CoAPMessage.c ****         memcpy(node->token, message->token, message->header.tokenlen);
 1902              		.loc 1 413 9
 1903 0224 13854402 		addi	a0,s1,36
 406:C:/Users/stapi/OneDrive/Desktop/GD32VW553/V1_MQTT_OK/GD32VW55X_Wifi_BLE_SDK/GD32VW55x_RELEASE_V1.0.2/MSDK/cloud/alicloud/src/protocol/coap/local\CoAPMessage.c ****         node->handler      = message->handler;
 1904              		.loc 1 406 28
 1905 0228 9CC0     		sw	a5,0(s1)
 407:C:/Users/stapi/OneDrive/Desktop/GD32VW553/V1_MQTT_OK/GD32VW55X_Wifi_BLE_SDK/GD32VW55x_RELEASE_V1.0.2/MSDK/cloud/alicloud/src/protocol/coap/local\CoAPMessage.c ****         node->msglen       = len;
 1906              		.loc 1 407 9 is_stmt 1
 407:C:/Users/stapi/OneDrive/Desktop/GD32VW553/V1_MQTT_OK/GD32VW55X_Wifi_BLE_SDK/GD32VW55x_RELEASE_V1.0.2/MSDK/cloud/alicloud/src/protocol/coap/local\CoAPMessage.c ****         node->msglen       = len;
 1907              		.loc 1 407 28 is_stmt 0
 1908 022a 7C58     		lw	a5,116(s0)
 408:C:/Users/stapi/OneDrive/Desktop/GD32VW553/V1_MQTT_OK/GD32VW55X_Wifi_BLE_SDK/GD32VW55x_RELEASE_V1.0.2/MSDK/cloud/alicloud/src/protocol/coap/local\CoAPMessage.c ****         node->message      = buffer;
 1909              		.loc 1 408 28
 1910 022c 23AE8401 		sw	s8,28(s1)
 409:C:/Users/stapi/OneDrive/Desktop/GD32VW553/V1_MQTT_OK/GD32VW55X_Wifi_BLE_SDK/GD32VW55x_RELEASE_V1.0.2/MSDK/cloud/alicloud/src/protocol/coap/local\CoAPMessage.c ****         node->timeout_val   = COAP_ACK_TIMEOUT * COAP_ACK_RANDOM_FACTOR;
 1911              		.loc 1 409 28
 1912 0230 23A23405 		sw	s3,68(s1)
 407:C:/Users/stapi/OneDrive/Desktop/GD32VW553/V1_MQTT_OK/GD32VW55X_Wifi_BLE_SDK/GD32VW55x_RELEASE_V1.0.2/MSDK/cloud/alicloud/src/protocol/coap/local\CoAPMessage.c ****         node->msglen       = len;
 1913              		.loc 1 407 28
 1914 0234 9CD0     		sw	a5,32(s1)
 408:C:/Users/stapi/OneDrive/Desktop/GD32VW553/V1_MQTT_OK/GD32VW55X_Wifi_BLE_SDK/GD32VW55x_RELEASE_V1.0.2/MSDK/cloud/alicloud/src/protocol/coap/local\CoAPMessage.c ****         node->message      = buffer;
 1915              		.loc 1 408 9 is_stmt 1
 409:C:/Users/stapi/OneDrive/Desktop/GD32VW553/V1_MQTT_OK/GD32VW55X_Wifi_BLE_SDK/GD32VW55x_RELEASE_V1.0.2/MSDK/cloud/alicloud/src/protocol/coap/local\CoAPMessage.c ****         node->timeout_val   = COAP_ACK_TIMEOUT * COAP_ACK_RANDOM_FACTOR;
 1916              		.loc 1 409 9
 410:C:/Users/stapi/OneDrive/Desktop/GD32VW553/V1_MQTT_OK/GD32VW55X_Wifi_BLE_SDK/GD32VW55x_RELEASE_V1.0.2/MSDK/cloud/alicloud/src/protocol/coap/local\CoAPMessage.c ****         node->no_response = no_response;
 1917              		.loc 1 410 9
 410:C:/Users/stapi/OneDrive/Desktop/GD32VW553/V1_MQTT_OK/GD32VW55X_Wifi_BLE_SDK/GD32VW55x_RELEASE_V1.0.2/MSDK/cloud/alicloud/src/protocol/coap/local\CoAPMessage.c ****         node->no_response = no_response;
 1918              		.loc 1 410 29 is_stmt 0
 1919 0236 93078025 		li	a5,600
 1920 023a 239CF400 		sh	a5,24(s1)
 411:C:/Users/stapi/OneDrive/Desktop/GD32VW553/V1_MQTT_OK/GD32VW55X_Wifi_BLE_SDK/GD32VW55x_RELEASE_V1.0.2/MSDK/cloud/alicloud/src/protocol/coap/local\CoAPMessage.c ****         node->keep = keep;
 1921              		.loc 1 411 9 is_stmt 1
 411:C:/Users/stapi/OneDrive/Desktop/GD32VW553/V1_MQTT_OK/GD32VW55X_Wifi_BLE_SDK/GD32VW55x_RELEASE_V1.0.2/MSDK/cloud/alicloud/src/protocol/coap/local\CoAPMessage.c ****         node->keep = keep;
 1922              		.loc 1 411 27 is_stmt 0
 1923 023e 23989405 		sh	s9,80(s1)
 412:C:/Users/stapi/OneDrive/Desktop/GD32VW553/V1_MQTT_OK/GD32VW55X_Wifi_BLE_SDK/GD32VW55x_RELEASE_V1.0.2/MSDK/cloud/alicloud/src/protocol/coap/local\CoAPMessage.c ****         memcpy(&node->remote, remote, sizeof(NetworkAddr));
 1924              		.loc 1 412 9 is_stmt 1
 412:C:/Users/stapi/OneDrive/Desktop/GD32VW553/V1_MQTT_OK/GD32VW55X_Wifi_BLE_SDK/GD32VW55x_RELEASE_V1.0.2/MSDK/cloud/alicloud/src/protocol/coap/local\CoAPMessage.c ****         memcpy(&node->remote, remote, sizeof(NetworkAddr));
 1925              		.loc 1 412 20 is_stmt 0
 1926 0242 23A64405 		sw	s4,76(s1)
 413:C:/Users/stapi/OneDrive/Desktop/GD32VW553/V1_MQTT_OK/GD32VW55X_Wifi_BLE_SDK/GD32VW55x_RELEASE_V1.0.2/MSDK/cloud/alicloud/src/protocol/coap/local\CoAPMessage.c ****         memcpy(node->token, message->token, message->header.tokenlen);
 1927              		.loc 1 413 9 is_stmt 1
 1928 0246 97000000 		call	memcpy
 1928      E7800000 
 1929              	.LVL195:
 414:C:/Users/stapi/OneDrive/Desktop/GD32VW553/V1_MQTT_OK/GD32VW55X_Wifi_BLE_SDK/GD32VW55x_RELEASE_V1.0.2/MSDK/cloud/alicloud/src/protocol/coap/local\CoAPMessage.c **** 
 1930              		.loc 1 414 9
 414:C:/Users/stapi/OneDrive/Desktop/GD32VW553/V1_MQTT_OK/GD32VW55X_Wifi_BLE_SDK/GD32VW55x_RELEASE_V1.0.2/MSDK/cloud/alicloud/src/protocol/coap/local\CoAPMessage.c **** 
 1931              		.loc 1 414 60 is_stmt 0
 1932 024e 1040     		lw	a2,0(s0)
 414:C:/Users/stapi/OneDrive/Desktop/GD32VW553/V1_MQTT_OK/GD32VW55X_Wifi_BLE_SDK/GD32VW55x_RELEASE_V1.0.2/MSDK/cloud/alicloud/src/protocol/coap/local\CoAPMessage.c **** 
 1933              		.loc 1 414 9
 1934 0250 93054400 		addi	a1,s0,4
 1935 0254 13855400 		addi	a0,s1,5
 414:C:/Users/stapi/OneDrive/Desktop/GD32VW553/V1_MQTT_OK/GD32VW55X_Wifi_BLE_SDK/GD32VW55x_RELEASE_V1.0.2/MSDK/cloud/alicloud/src/protocol/coap/local\CoAPMessage.c **** 
 1936              		.loc 1 414 60
 1937 0258 1182     		srli	a2,a2,4
 414:C:/Users/stapi/OneDrive/Desktop/GD32VW553/V1_MQTT_OK/GD32VW55X_Wifi_BLE_SDK/GD32VW55x_RELEASE_V1.0.2/MSDK/cloud/alicloud/src/protocol/coap/local\CoAPMessage.c **** 
 1938              		.loc 1 414 9
 1939 025a 3D8A     		andi	a2,a2,15
 1940 025c 97000000 		call	memcpy
 1940      E7800000 
 1941              	.LVL196:
 416:C:/Users/stapi/OneDrive/Desktop/GD32VW553/V1_MQTT_OK/GD32VW55X_Wifi_BLE_SDK/GD32VW55x_RELEASE_V1.0.2/MSDK/cloud/alicloud/src/protocol/coap/local\CoAPMessage.c ****         if (CoAPConMsg(message->header)) {
 1942              		.loc 1 416 9 is_stmt 1
 416:C:/Users/stapi/OneDrive/Desktop/GD32VW553/V1_MQTT_OK/GD32VW55X_Wifi_BLE_SDK/GD32VW55x_RELEASE_V1.0.2/MSDK/cloud/alicloud/src/protocol/coap/local\CoAPMessage.c ****         if (CoAPConMsg(message->header)) {
 1943              		.loc 1 416 25 is_stmt 0
 1944 0264 97000000 		call	HAL_UptimeMs
 1944      E7800000 
 1945              	.LVL197:
 417:C:/Users/stapi/OneDrive/Desktop/GD32VW553/V1_MQTT_OK/GD32VW55X_Wifi_BLE_SDK/GD32VW55x_RELEASE_V1.0.2/MSDK/cloud/alicloud/src/protocol/coap/local\CoAPMessage.c ****             node->timeout = node->timeout_val + tick;
 1946              		.loc 1 417 9 is_stmt 1
 417:C:/Users/stapi/OneDrive/Desktop/GD32VW553/V1_MQTT_OK/GD32VW55X_Wifi_BLE_SDK/GD32VW55x_RELEASE_V1.0.2/MSDK/cloud/alicloud/src/protocol/coap/local\CoAPMessage.c ****             node->timeout = node->timeout_val + tick;
 1947              		.loc 1 417 13 is_stmt 0
 1948 026c 83470400 		lbu	a5,0(s0)
 417:C:/Users/stapi/OneDrive/Desktop/GD32VW553/V1_MQTT_OK/GD32VW55X_Wifi_BLE_SDK/GD32VW55x_RELEASE_V1.0.2/MSDK/cloud/alicloud/src/protocol/coap/local\CoAPMessage.c ****             node->timeout = node->timeout_val + tick;
 1949              		.loc 1 417 12
 1950 0270 B18B     		andi	a5,a5,12
 1951 0272 63990714 		bne	a5,zero,.L167
 418:C:/Users/stapi/OneDrive/Desktop/GD32VW553/V1_MQTT_OK/GD32VW55X_Wifi_BLE_SDK/GD32VW55x_RELEASE_V1.0.2/MSDK/cloud/alicloud/src/protocol/coap/local\CoAPMessage.c ****             node->retrans_count = COAP_MAX_RETRY_COUNT;
 1952              		.loc 1 418 13 is_stmt 1
 418:C:/Users/stapi/OneDrive/Desktop/GD32VW553/V1_MQTT_OK/GD32VW55X_Wifi_BLE_SDK/GD32VW55x_RELEASE_V1.0.2/MSDK/cloud/alicloud/src/protocol/coap/local\CoAPMessage.c ****             node->retrans_count = COAP_MAX_RETRY_COUNT;
 1953              		.loc 1 418 33 is_stmt 0
 1954 0276 83D68401 		lhu	a3,24(s1)
 418:C:/Users/stapi/OneDrive/Desktop/GD32VW553/V1_MQTT_OK/GD32VW55X_Wifi_BLE_SDK/GD32VW55x_RELEASE_V1.0.2/MSDK/cloud/alicloud/src/protocol/coap/local\CoAPMessage.c ****             node->retrans_count = COAP_MAX_RETRY_COUNT;
 1955              		.loc 1 418 47
 1956 027a B387A600 		add	a5,a3,a0
 1957 027e B3B6D700 		sltu	a3,a5,a3
 1958 0282 3387B600 		add	a4,a3,a1
 418:C:/Users/stapi/OneDrive/Desktop/GD32VW553/V1_MQTT_OK/GD32VW55X_Wifi_BLE_SDK/GD32VW55x_RELEASE_V1.0.2/MSDK/cloud/alicloud/src/protocol/coap/local\CoAPMessage.c ****             node->retrans_count = COAP_MAX_RETRY_COUNT;
 1959              		.loc 1 418 27
 1960 0286 9CC8     		sw	a5,16(s1)
 419:C:/Users/stapi/OneDrive/Desktop/GD32VW553/V1_MQTT_OK/GD32VW55X_Wifi_BLE_SDK/GD32VW55x_RELEASE_V1.0.2/MSDK/cloud/alicloud/src/protocol/coap/local\CoAPMessage.c ****         } else {
 1961              		.loc 1 419 33
 1962 0288 9147     		li	a5,4
 418:C:/Users/stapi/OneDrive/Desktop/GD32VW553/V1_MQTT_OK/GD32VW55X_Wifi_BLE_SDK/GD32VW55x_RELEASE_V1.0.2/MSDK/cloud/alicloud/src/protocol/coap/local\CoAPMessage.c ****             node->retrans_count = COAP_MAX_RETRY_COUNT;
 1963              		.loc 1 418 27
 1964 028a D8C8     		sw	a4,20(s1)
 419:C:/Users/stapi/OneDrive/Desktop/GD32VW553/V1_MQTT_OK/GD32VW55X_Wifi_BLE_SDK/GD32VW55x_RELEASE_V1.0.2/MSDK/cloud/alicloud/src/protocol/coap/local\CoAPMessage.c ****         } else {
 1965              		.loc 1 419 13 is_stmt 1
 419:C:/Users/stapi/OneDrive/Desktop/GD32VW553/V1_MQTT_OK/GD32VW55X_Wifi_BLE_SDK/GD32VW55x_RELEASE_V1.0.2/MSDK/cloud/alicloud/src/protocol/coap/local\CoAPMessage.c ****         } else {
 1966              		.loc 1 419 33 is_stmt 0
 1967 028c 2382F400 		sb	a5,4(s1)
 1968              	.L168:
 425:C:/Users/stapi/OneDrive/Desktop/GD32VW553/V1_MQTT_OK/GD32VW55X_Wifi_BLE_SDK/GD32VW55x_RELEASE_V1.0.2/MSDK/cloud/alicloud/src/protocol/coap/local\CoAPMessage.c ****             COAP_DEBUG("The message %d need keep", message->header.msgid);
 1969              		.loc 1 425 9 is_stmt 1
 425:C:/Users/stapi/OneDrive/Desktop/GD32VW553/V1_MQTT_OK/GD32VW55X_Wifi_BLE_SDK/GD32VW55x_RELEASE_V1.0.2/MSDK/cloud/alicloud/src/protocol/coap/local\CoAPMessage.c ****             COAP_DEBUG("The message %d need keep", message->header.msgid);
 1970              		.loc 1 425 11 is_stmt 0
 1971 0290 63050A02 		beq	s4,zero,.L169
 426:C:/Users/stapi/OneDrive/Desktop/GD32VW553/V1_MQTT_OK/GD32VW55X_Wifi_BLE_SDK/GD32VW55x_RELEASE_V1.0.2/MSDK/cloud/alicloud/src/protocol/coap/local\CoAPMessage.c ****         }
 1972              		.loc 1 426 13 is_stmt 1
 1973 0294 83572400 		lhu	a5,2(s0)
 1974 0298 37070000 		lui	a4,%hi(.LC12)
 1975 029c B7050000 		lui	a1,%hi(.LANCHOR3)
 1976              	.LVL198:
 1977 02a0 13070700 		addi	a4,a4,%lo(.LC12)
 1978 02a4 9546     		li	a3,5
 1979 02a6 1306A01A 		li	a2,426
 1980 02aa 93850500 		addi	a1,a1,%lo(.LANCHOR3)
 1981 02ae 13050B00 		addi	a0,s6,%lo(.LC1)
 1982 02b2 97000000 		call	LITE_syslog
 1982      E7800000 
 1983              	.LVL199:
 1984              	.L169:
 429:C:/Users/stapi/OneDrive/Desktop/GD32VW553/V1_MQTT_OK/GD32VW55X_Wifi_BLE_SDK/GD32VW55x_RELEASE_V1.0.2/MSDK/cloud/alicloud/src/protocol/coap/local\CoAPMessage.c ****         if (ctx->sendlist.count >= ctx->sendlist.maxcount) {
 1985              		.loc 1 429 9
 1986 02ba 03254901 		lw	a0,20(s2)
 1987 02be 97000000 		call	HAL_MutexLock
 1987      E7800000 
 1988              	.LVL200:
 430:C:/Users/stapi/OneDrive/Desktop/GD32VW553/V1_MQTT_OK/GD32VW55X_Wifi_BLE_SDK/GD32VW55x_RELEASE_V1.0.2/MSDK/cloud/alicloud/src/protocol/coap/local\CoAPMessage.c ****             HAL_MutexUnlock(ctx->sendlist.list_mutex);
 1989              		.loc 1 430 9
 430:C:/Users/stapi/OneDrive/Desktop/GD32VW553/V1_MQTT_OK/GD32VW55X_Wifi_BLE_SDK/GD32VW55x_RELEASE_V1.0.2/MSDK/cloud/alicloud/src/protocol/coap/local\CoAPMessage.c ****             HAL_MutexUnlock(ctx->sendlist.list_mutex);
 1990              		.loc 1 430 26 is_stmt 0
 1991 02c6 83470902 		lbu	a5,32(s2)
 430:C:/Users/stapi/OneDrive/Desktop/GD32VW553/V1_MQTT_OK/GD32VW55X_Wifi_BLE_SDK/GD32VW55x_RELEASE_V1.0.2/MSDK/cloud/alicloud/src/protocol/coap/local\CoAPMessage.c ****             HAL_MutexUnlock(ctx->sendlist.list_mutex);
 1992              		.loc 1 430 12
 1993 02ca 03471902 		lbu	a4,33(s2)
 1994 02ce 03254901 		lw	a0,20(s2)
 1995 02d2 63E6E710 		bgtu	a4,a5,.L170
 431:C:/Users/stapi/OneDrive/Desktop/GD32VW553/V1_MQTT_OK/GD32VW55X_Wifi_BLE_SDK/GD32VW55x_RELEASE_V1.0.2/MSDK/cloud/alicloud/src/protocol/coap/local\CoAPMessage.c ****             coap_free(node);
 1996              		.loc 1 431 13 is_stmt 1
 1997 02d6 97000000 		call	HAL_MutexUnlock
 1997      E7800000 
 1998              	.LVL201:
 432:C:/Users/stapi/OneDrive/Desktop/GD32VW553/V1_MQTT_OK/GD32VW55X_Wifi_BLE_SDK/GD32VW55x_RELEASE_V1.0.2/MSDK/cloud/alicloud/src/protocol/coap/local\CoAPMessage.c ****             COAP_INFO("The send list is full");
 1999              		.loc 1 432 13
 2000 02de 2685     		mv	a0,s1
 2001 02e0 97000000 		call	LITE_free_internal
 2001      E7800000 
 2002              	.LVL202:
 433:C:/Users/stapi/OneDrive/Desktop/GD32VW553/V1_MQTT_OK/GD32VW55X_Wifi_BLE_SDK/GD32VW55x_RELEASE_V1.0.2/MSDK/cloud/alicloud/src/protocol/coap/local\CoAPMessage.c ****             return COAP_ERROR_DATA_SIZE;
 2003              		.loc 1 433 13
 433:C:/Users/stapi/OneDrive/Desktop/GD32VW553/V1_MQTT_OK/GD32VW55X_Wifi_BLE_SDK/GD32VW55x_RELEASE_V1.0.2/MSDK/cloud/alicloud/src/protocol/coap/local\CoAPMessage.c ****             return COAP_ERROR_DATA_SIZE;
 2004              		.loc 1 433 13
 2005 02e8 37050000 		lui	a0,%hi(.LC5)
 2006 02ec 13050500 		addi	a0,a0,%lo(.LC5)
 2007 02f0 97000000 		call	HAL_Printf
 2007      E7800000 
 2008              	.LVL203:
 433:C:/Users/stapi/OneDrive/Desktop/GD32VW553/V1_MQTT_OK/GD32VW55X_Wifi_BLE_SDK/GD32VW55x_RELEASE_V1.0.2/MSDK/cloud/alicloud/src/protocol/coap/local\CoAPMessage.c ****             return COAP_ERROR_DATA_SIZE;
 2009              		.loc 1 433 13
 2010 02f8 37050000 		lui	a0,%hi(.LC13)
 2011 02fc 13050500 		addi	a0,a0,%lo(.LC13)
 2012 0300 97000000 		call	HAL_Printf
 2012      E7800000 
 2013              	.LVL204:
 433:C:/Users/stapi/OneDrive/Desktop/GD32VW553/V1_MQTT_OK/GD32VW55X_Wifi_BLE_SDK/GD32VW55x_RELEASE_V1.0.2/MSDK/cloud/alicloud/src/protocol/coap/local\CoAPMessage.c ****             return COAP_ERROR_DATA_SIZE;
 2014              		.loc 1 433 13
 2015 0308 37050000 		lui	a0,%hi(.LC7)
 2016 030c 13050500 		addi	a0,a0,%lo(.LC7)
 2017 0310 97000000 		call	HAL_Printf
 2017      E7800000 
 2018              	.LVL205:
 433:C:/Users/stapi/OneDrive/Desktop/GD32VW553/V1_MQTT_OK/GD32VW55X_Wifi_BLE_SDK/GD32VW55x_RELEASE_V1.0.2/MSDK/cloud/alicloud/src/protocol/coap/local\CoAPMessage.c ****             return COAP_ERROR_DATA_SIZE;
 2019              		.loc 1 433 13
 434:C:/Users/stapi/OneDrive/Desktop/GD32VW553/V1_MQTT_OK/GD32VW55X_Wifi_BLE_SDK/GD32VW55x_RELEASE_V1.0.2/MSDK/cloud/alicloud/src/protocol/coap/local\CoAPMessage.c ****         } else {
 2020              		.loc 1 434 13
 2021              	.LBE69:
 2022              	.LBE83:
 2023              	.LBE87:
 540:C:/Users/stapi/OneDrive/Desktop/GD32VW553/V1_MQTT_OK/GD32VW55X_Wifi_BLE_SDK/GD32VW55x_RELEASE_V1.0.2/MSDK/cloud/alicloud/src/protocol/coap/local\CoAPMessage.c ****                 coap_free(buff);
 2024              		.loc 1 540 13
 2025              	.LBB88:
 2026              	.LBB84:
 2027              	.LBB80:
 434:C:/Users/stapi/OneDrive/Desktop/GD32VW553/V1_MQTT_OK/GD32VW55X_Wifi_BLE_SDK/GD32VW55x_RELEASE_V1.0.2/MSDK/cloud/alicloud/src/protocol/coap/local\CoAPMessage.c ****         } else {
 2028              		.loc 1 434 20 is_stmt 0
 2029 0318 93045010 		li	s1,261
 2030              	.LVL206:
 2031              	.L161:
 2032              	.LBE80:
 2033              	.LBE84:
 2034              	.LBE88:
 541:C:/Users/stapi/OneDrive/Desktop/GD32VW553/V1_MQTT_OK/GD32VW55X_Wifi_BLE_SDK/GD32VW55x_RELEASE_V1.0.2/MSDK/cloud/alicloud/src/protocol/coap/local\CoAPMessage.c ****                 COAP_ERR("Add the message %d to list failed", message->header.msgid);
 2035              		.loc 1 541 17 is_stmt 1
 2036 031c 4E85     		mv	a0,s3
 2037 031e 97000000 		call	LITE_free_internal
 2037      E7800000 
 2038              	.LVL207:
 542:C:/Users/stapi/OneDrive/Desktop/GD32VW553/V1_MQTT_OK/GD32VW55X_Wifi_BLE_SDK/GD32VW55x_RELEASE_V1.0.2/MSDK/cloud/alicloud/src/protocol/coap/local\CoAPMessage.c ****                 return ret;
 2039              		.loc 1 542 17
 542:C:/Users/stapi/OneDrive/Desktop/GD32VW553/V1_MQTT_OK/GD32VW55X_Wifi_BLE_SDK/GD32VW55x_RELEASE_V1.0.2/MSDK/cloud/alicloud/src/protocol/coap/local\CoAPMessage.c ****                 return ret;
 2040              		.loc 1 542 17
 2041 0326 37050000 		lui	a0,%hi(.LC14)
 2042 032a 13050500 		addi	a0,a0,%lo(.LC14)
 2043 032e 97000000 		call	HAL_Printf
 2043      E7800000 
 2044              	.LVL208:
 542:C:/Users/stapi/OneDrive/Desktop/GD32VW553/V1_MQTT_OK/GD32VW55X_Wifi_BLE_SDK/GD32VW55x_RELEASE_V1.0.2/MSDK/cloud/alicloud/src/protocol/coap/local\CoAPMessage.c ****                 return ret;
 2045              		.loc 1 542 17
 2046 0336 83552400 		lhu	a1,2(s0)
 2047 033a 37050000 		lui	a0,%hi(.LC15)
 2048 033e 13050500 		addi	a0,a0,%lo(.LC15)
 2049 0342 97000000 		call	HAL_Printf
 2049      E7800000 
 2050              	.LVL209:
 542:C:/Users/stapi/OneDrive/Desktop/GD32VW553/V1_MQTT_OK/GD32VW55X_Wifi_BLE_SDK/GD32VW55x_RELEASE_V1.0.2/MSDK/cloud/alicloud/src/protocol/coap/local\CoAPMessage.c ****                 return ret;
 2051              		.loc 1 542 17
 2052 034a 37050000 		lui	a0,%hi(.LC7)
 2053 034e 13050500 		addi	a0,a0,%lo(.LC7)
 2054 0352 97000000 		call	HAL_Printf
 2054      E7800000 
 2055              	.LVL210:
 542:C:/Users/stapi/OneDrive/Desktop/GD32VW553/V1_MQTT_OK/GD32VW55X_Wifi_BLE_SDK/GD32VW55x_RELEASE_V1.0.2/MSDK/cloud/alicloud/src/protocol/coap/local\CoAPMessage.c ****                 return ret;
 2056              		.loc 1 542 17
 543:C:/Users/stapi/OneDrive/Desktop/GD32VW553/V1_MQTT_OK/GD32VW55X_Wifi_BLE_SDK/GD32VW55x_RELEASE_V1.0.2/MSDK/cloud/alicloud/src/protocol/coap/local\CoAPMessage.c ****             }
 2057              		.loc 1 543 17
 543:C:/Users/stapi/OneDrive/Desktop/GD32VW553/V1_MQTT_OK/GD32VW55X_Wifi_BLE_SDK/GD32VW55x_RELEASE_V1.0.2/MSDK/cloud/alicloud/src/protocol/coap/local\CoAPMessage.c ****             }
 2058              		.loc 1 543 24 is_stmt 0
 2059 035a 19BB     		j	.L153
 2060              	.LVL211:
 2061              	.L165:
 2062              	.LBB89:
 2063              	.LBB85:
 387:C:/Users/stapi/OneDrive/Desktop/GD32VW553/V1_MQTT_OK/GD32VW55X_Wifi_BLE_SDK/GD32VW55x_RELEASE_V1.0.2/MSDK/cloud/alicloud/src/protocol/coap/local\CoAPMessage.c ****             if (node->header.msgid == message->header.msgid) {
 2064              		.loc 1 387 9 is_stmt 1
 387:C:/Users/stapi/OneDrive/Desktop/GD32VW553/V1_MQTT_OK/GD32VW55X_Wifi_BLE_SDK/GD32VW55x_RELEASE_V1.0.2/MSDK/cloud/alicloud/src/protocol/coap/local\CoAPMessage.c ****             if (node->header.msgid == message->header.msgid) {
 2065              		.loc 1 387 26 is_stmt 0
 2066 035c 7447     		lw	a3,76(a4)
 2067 035e 639EC604 		bne	a3,a2,.L163
 388:C:/Users/stapi/OneDrive/Desktop/GD32VW553/V1_MQTT_OK/GD32VW55X_Wifi_BLE_SDK/GD32VW55x_RELEASE_V1.0.2/MSDK/cloud/alicloud/src/protocol/coap/local\CoAPMessage.c ****                 COAP_INFO("message already present!");
 2068              		.loc 1 388 13 is_stmt 1
 388:C:/Users/stapi/OneDrive/Desktop/GD32VW553/V1_MQTT_OK/GD32VW55X_Wifi_BLE_SDK/GD32VW55x_RELEASE_V1.0.2/MSDK/cloud/alicloud/src/protocol/coap/local\CoAPMessage.c ****                 COAP_INFO("message already present!");
 2069              		.loc 1 388 16 is_stmt 0
 2070 0362 83562700 		lhu	a3,2(a4)
 2071 0366 03572400 		lhu	a4,2(s0)
 2072              	.LVL212:
 2073 036a 6398E604 		bne	a3,a4,.L163
 389:C:/Users/stapi/OneDrive/Desktop/GD32VW553/V1_MQTT_OK/GD32VW55X_Wifi_BLE_SDK/GD32VW55x_RELEASE_V1.0.2/MSDK/cloud/alicloud/src/protocol/coap/local\CoAPMessage.c ****                 HAL_MutexUnlock(ctx->sendlist.list_mutex);
 2074              		.loc 1 389 17 is_stmt 1
 389:C:/Users/stapi/OneDrive/Desktop/GD32VW553/V1_MQTT_OK/GD32VW55X_Wifi_BLE_SDK/GD32VW55x_RELEASE_V1.0.2/MSDK/cloud/alicloud/src/protocol/coap/local\CoAPMessage.c ****                 HAL_MutexUnlock(ctx->sendlist.list_mutex);
 2075              		.loc 1 389 17
 2076 036e 37050000 		lui	a0,%hi(.LC5)
 2077 0372 13050500 		addi	a0,a0,%lo(.LC5)
 2078 0376 97000000 		call	HAL_Printf
 2078      E7800000 
 2079              	.LVL213:
 389:C:/Users/stapi/OneDrive/Desktop/GD32VW553/V1_MQTT_OK/GD32VW55X_Wifi_BLE_SDK/GD32VW55x_RELEASE_V1.0.2/MSDK/cloud/alicloud/src/protocol/coap/local\CoAPMessage.c ****                 HAL_MutexUnlock(ctx->sendlist.list_mutex);
 2080              		.loc 1 389 17
 2081 037e 37050000 		lui	a0,%hi(.LC11)
 2082 0382 13050500 		addi	a0,a0,%lo(.LC11)
 2083 0386 97000000 		call	HAL_Printf
 2083      E7800000 
 2084              	.LVL214:
 389:C:/Users/stapi/OneDrive/Desktop/GD32VW553/V1_MQTT_OK/GD32VW55X_Wifi_BLE_SDK/GD32VW55x_RELEASE_V1.0.2/MSDK/cloud/alicloud/src/protocol/coap/local\CoAPMessage.c ****                 HAL_MutexUnlock(ctx->sendlist.list_mutex);
 2085              		.loc 1 389 17
 2086 038e 37050000 		lui	a0,%hi(.LC7)
 2087 0392 13050500 		addi	a0,a0,%lo(.LC7)
 2088 0396 97000000 		call	HAL_Printf
 2088      E7800000 
 2089              	.LVL215:
 389:C:/Users/stapi/OneDrive/Desktop/GD32VW553/V1_MQTT_OK/GD32VW55X_Wifi_BLE_SDK/GD32VW55x_RELEASE_V1.0.2/MSDK/cloud/alicloud/src/protocol/coap/local\CoAPMessage.c ****                 HAL_MutexUnlock(ctx->sendlist.list_mutex);
 2090              		.loc 1 389 17
 390:C:/Users/stapi/OneDrive/Desktop/GD32VW553/V1_MQTT_OK/GD32VW55X_Wifi_BLE_SDK/GD32VW55x_RELEASE_V1.0.2/MSDK/cloud/alicloud/src/protocol/coap/local\CoAPMessage.c ****                 return COAP_SUCCESS;
 2091              		.loc 1 390 17
 2092 039e 03254901 		lw	a0,20(s2)
 2093              	.LVL216:
 2094              	.L178:
 2095              	.LBB81:
 438:C:/Users/stapi/OneDrive/Desktop/GD32VW553/V1_MQTT_OK/GD32VW55X_Wifi_BLE_SDK/GD32VW55x_RELEASE_V1.0.2/MSDK/cloud/alicloud/src/protocol/coap/local\CoAPMessage.c ****             return COAP_SUCCESS;
 2096              		.loc 1 438 13
 2097 03a2 97000000 		call	HAL_MutexUnlock
 2097      E7800000 
 2098              	.LVL217:
 439:C:/Users/stapi/OneDrive/Desktop/GD32VW553/V1_MQTT_OK/GD32VW55X_Wifi_BLE_SDK/GD32VW55x_RELEASE_V1.0.2/MSDK/cloud/alicloud/src/protocol/coap/local\CoAPMessage.c ****         }
 2099              		.loc 1 439 13
 2100              	.LBE81:
 2101              	.LBE85:
 2102              	.LBE89:
 540:C:/Users/stapi/OneDrive/Desktop/GD32VW553/V1_MQTT_OK/GD32VW55X_Wifi_BLE_SDK/GD32VW55x_RELEASE_V1.0.2/MSDK/cloud/alicloud/src/protocol/coap/local\CoAPMessage.c ****                 coap_free(buff);
 2103              		.loc 1 540 13
 2104              	.L164:
 556:C:/Users/stapi/OneDrive/Desktop/GD32VW553/V1_MQTT_OK/GD32VW55X_Wifi_BLE_SDK/GD32VW55x_RELEASE_V1.0.2/MSDK/cloud/alicloud/src/protocol/coap/local\CoAPMessage.c ****     return COAP_SUCCESS;
 2105              		.loc 1 556 5
 2106 03aa A285     		mv	a1,s0
 2107 03ac 5685     		mv	a0,s5
 2108 03ae 97000000 		call	CoAPMessage_dump
 2108      E7800000 
 2109              	.LVL218:
 557:C:/Users/stapi/OneDrive/Desktop/GD32VW553/V1_MQTT_OK/GD32VW55X_Wifi_BLE_SDK/GD32VW55x_RELEASE_V1.0.2/MSDK/cloud/alicloud/src/protocol/coap/local\CoAPMessage.c **** }
 2110              		.loc 1 557 5
 557:C:/Users/stapi/OneDrive/Desktop/GD32VW553/V1_MQTT_OK/GD32VW55X_Wifi_BLE_SDK/GD32VW55x_RELEASE_V1.0.2/MSDK/cloud/alicloud/src/protocol/coap/local\CoAPMessage.c **** }
 2111              		.loc 1 557 12 is_stmt 0
 2112 03b6 8144     		li	s1,0
 2113 03b8 65B9     		j	.L153
 2114              	.LVL219:
 2115              	.L163:
 2116              	.LBB90:
 2117              	.LBB86:
 386:C:/Users/stapi/OneDrive/Desktop/GD32VW553/V1_MQTT_OK/GD32VW55X_Wifi_BLE_SDK/GD32VW55x_RELEASE_V1.0.2/MSDK/cloud/alicloud/src/protocol/coap/local\CoAPMessage.c ****         if (NULL != node && node->keep == KEEPING){
 2118              		.loc 1 386 5 is_stmt 1
 2119 03ba D45F     		lw	a3,60(a5)
 2120              	.LVL220:
 2121 03bc 3E87     		mv	a4,a5
 2122 03be 938786FC 		addi	a5,a3,-56
 2123              	.LVL221:
 2124 03c2 29B5     		j	.L162
 2125              	.LVL222:
 2126              	.L167:
 2127              	.LBB82:
 421:C:/Users/stapi/OneDrive/Desktop/GD32VW553/V1_MQTT_OK/GD32VW55X_Wifi_BLE_SDK/GD32VW55x_RELEASE_V1.0.2/MSDK/cloud/alicloud/src/protocol/coap/local\CoAPMessage.c ****             node->retrans_count = 0;
 2128              		.loc 1 421 13
 421:C:/Users/stapi/OneDrive/Desktop/GD32VW553/V1_MQTT_OK/GD32VW55X_Wifi_BLE_SDK/GD32VW55x_RELEASE_V1.0.2/MSDK/cloud/alicloud/src/protocol/coap/local\CoAPMessage.c ****             node->retrans_count = 0;
 2129              		.loc 1 421 33 is_stmt 0
 2130 03c4 03D78401 		lhu	a4,24(s1)
 422:C:/Users/stapi/OneDrive/Desktop/GD32VW553/V1_MQTT_OK/GD32VW55X_Wifi_BLE_SDK/GD32VW55x_RELEASE_V1.0.2/MSDK/cloud/alicloud/src/protocol/coap/local\CoAPMessage.c ****         }
 2131              		.loc 1 422 33
 2132 03c8 23820400 		sb	zero,4(s1)
 421:C:/Users/stapi/OneDrive/Desktop/GD32VW553/V1_MQTT_OK/GD32VW55X_Wifi_BLE_SDK/GD32VW55x_RELEASE_V1.0.2/MSDK/cloud/alicloud/src/protocol/coap/local\CoAPMessage.c ****             node->retrans_count = 0;
 2133              		.loc 1 421 47
 2134 03cc 0A07     		slli	a4,a4,2
 421:C:/Users/stapi/OneDrive/Desktop/GD32VW553/V1_MQTT_OK/GD32VW55X_Wifi_BLE_SDK/GD32VW55x_RELEASE_V1.0.2/MSDK/cloud/alicloud/src/protocol/coap/local\CoAPMessage.c ****             node->retrans_count = 0;
 2135              		.loc 1 421 51
 2136 03ce B307A700 		add	a5,a4,a0
 2137 03d2 33B7E700 		sltu	a4,a5,a4
 2138 03d6 2E97     		add	a4,a4,a1
 421:C:/Users/stapi/OneDrive/Desktop/GD32VW553/V1_MQTT_OK/GD32VW55X_Wifi_BLE_SDK/GD32VW55x_RELEASE_V1.0.2/MSDK/cloud/alicloud/src/protocol/coap/local\CoAPMessage.c ****             node->retrans_count = 0;
 2139              		.loc 1 421 27
 2140 03d8 9CC8     		sw	a5,16(s1)
 2141 03da D8C8     		sw	a4,20(s1)
 422:C:/Users/stapi/OneDrive/Desktop/GD32VW553/V1_MQTT_OK/GD32VW55X_Wifi_BLE_SDK/GD32VW55x_RELEASE_V1.0.2/MSDK/cloud/alicloud/src/protocol/coap/local\CoAPMessage.c ****         }
 2142              		.loc 1 422 13 is_stmt 1
 2143 03dc 55BD     		j	.L168
 2144              	.LVL223:
 2145              	.L170:
 436:C:/Users/stapi/OneDrive/Desktop/GD32VW553/V1_MQTT_OK/GD32VW55X_Wifi_BLE_SDK/GD32VW55x_RELEASE_V1.0.2/MSDK/cloud/alicloud/src/protocol/coap/local\CoAPMessage.c ****             ctx->sendlist.count ++;
 2146              		.loc 1 436 13
 2147              	.LBB70:
 2148              	.LBB71:
 2149              		.file 2 "..\\..\\..\\..\\cloud\\alicloud\\src\\infra\\utils\\misc/lite-list.h"
   1:..\..\..\..\cloud\alicloud\src\infra\utils\misc/lite-list.h **** /*
   2:..\..\..\..\cloud\alicloud\src\infra\utils\misc/lite-list.h ****  * Copyright (C) 2015-2018 Alibaba Group Holding Limited
   3:..\..\..\..\cloud\alicloud\src\infra\utils\misc/lite-list.h ****  */
   4:..\..\..\..\cloud\alicloud\src\infra\utils\misc/lite-list.h **** 
   5:..\..\..\..\cloud\alicloud\src\infra\utils\misc/lite-list.h **** #ifndef AOS_LIST_H
   6:..\..\..\..\cloud\alicloud\src\infra\utils\misc/lite-list.h **** #define AOS_LIST_H
   7:..\..\..\..\cloud\alicloud\src\infra\utils\misc/lite-list.h **** 
   8:..\..\..\..\cloud\alicloud\src\infra\utils\misc/lite-list.h **** #ifdef __cplusplus
   9:..\..\..\..\cloud\alicloud\src\infra\utils\misc/lite-list.h **** extern "C" {
  10:..\..\..\..\cloud\alicloud\src\infra\utils\misc/lite-list.h **** #endif
  11:..\..\..\..\cloud\alicloud\src\infra\utils\misc/lite-list.h **** 
  12:..\..\..\..\cloud\alicloud\src\infra\utils\misc/lite-list.h **** /*
  13:..\..\..\..\cloud\alicloud\src\infra\utils\misc/lite-list.h ****  * Get offset of a member variable.
  14:..\..\..\..\cloud\alicloud\src\infra\utils\misc/lite-list.h ****  *
  15:..\..\..\..\cloud\alicloud\src\infra\utils\misc/lite-list.h ****  * @param[in]   type     the type of the struct this is embedded in.
  16:..\..\..\..\cloud\alicloud\src\infra\utils\misc/lite-list.h ****  * @param[in]   member   the name of the variable within the struct.
  17:..\..\..\..\cloud\alicloud\src\infra\utils\misc/lite-list.h ****  */
  18:..\..\..\..\cloud\alicloud\src\infra\utils\misc/lite-list.h **** #define aos_offsetof(type, member)   ((size_t)&(((type *)0)->member))
  19:..\..\..\..\cloud\alicloud\src\infra\utils\misc/lite-list.h **** 
  20:..\..\..\..\cloud\alicloud\src\infra\utils\misc/lite-list.h **** /*
  21:..\..\..\..\cloud\alicloud\src\infra\utils\misc/lite-list.h ****  * Get the struct for this entry.
  22:..\..\..\..\cloud\alicloud\src\infra\utils\misc/lite-list.h ****  *
  23:..\..\..\..\cloud\alicloud\src\infra\utils\misc/lite-list.h ****  * @param[in]   ptr     the list head to take the element from.
  24:..\..\..\..\cloud\alicloud\src\infra\utils\misc/lite-list.h ****  * @param[in]   type    the type of the struct this is embedded in.
  25:..\..\..\..\cloud\alicloud\src\infra\utils\misc/lite-list.h ****  * @param[in]   member  the name of the variable within the struct.
  26:..\..\..\..\cloud\alicloud\src\infra\utils\misc/lite-list.h ****  */
  27:..\..\..\..\cloud\alicloud\src\infra\utils\misc/lite-list.h **** #define aos_container_of(ptr, type, member) \
  28:..\..\..\..\cloud\alicloud\src\infra\utils\misc/lite-list.h ****     ((type *) ((char *) (ptr) - aos_offsetof(type, member)))
  29:..\..\..\..\cloud\alicloud\src\infra\utils\misc/lite-list.h **** 
  30:..\..\..\..\cloud\alicloud\src\infra\utils\misc/lite-list.h **** /* for double link list */
  31:..\..\..\..\cloud\alicloud\src\infra\utils\misc/lite-list.h **** typedef struct dlist_s {
  32:..\..\..\..\cloud\alicloud\src\infra\utils\misc/lite-list.h ****     struct dlist_s *prev;
  33:..\..\..\..\cloud\alicloud\src\infra\utils\misc/lite-list.h ****     struct dlist_s *next;
  34:..\..\..\..\cloud\alicloud\src\infra\utils\misc/lite-list.h **** } dlist_t;
  35:..\..\..\..\cloud\alicloud\src\infra\utils\misc/lite-list.h **** 
  36:..\..\..\..\cloud\alicloud\src\infra\utils\misc/lite-list.h **** static inline void __dlist_add(dlist_t *node, dlist_t *prev, dlist_t *next)
  37:..\..\..\..\cloud\alicloud\src\infra\utils\misc/lite-list.h **** {
  38:..\..\..\..\cloud\alicloud\src\infra\utils\misc/lite-list.h ****     node->next = next;
  39:..\..\..\..\cloud\alicloud\src\infra\utils\misc/lite-list.h ****     node->prev = prev;
  40:..\..\..\..\cloud\alicloud\src\infra\utils\misc/lite-list.h **** 
  41:..\..\..\..\cloud\alicloud\src\infra\utils\misc/lite-list.h ****     prev->next = node;
  42:..\..\..\..\cloud\alicloud\src\infra\utils\misc/lite-list.h ****     next->prev = node;
  43:..\..\..\..\cloud\alicloud\src\infra\utils\misc/lite-list.h **** }
  44:..\..\..\..\cloud\alicloud\src\infra\utils\misc/lite-list.h **** 
  45:..\..\..\..\cloud\alicloud\src\infra\utils\misc/lite-list.h **** /*
  46:..\..\..\..\cloud\alicloud\src\infra\utils\misc/lite-list.h ****  * Get the struct for this entry.
  47:..\..\..\..\cloud\alicloud\src\infra\utils\misc/lite-list.h ****  *
  48:..\..\..\..\cloud\alicloud\src\infra\utils\misc/lite-list.h ****  * @param[in]   addr    the list head to take the element from.
  49:..\..\..\..\cloud\alicloud\src\infra\utils\misc/lite-list.h ****  * @param[in]   type    the type of the struct this is embedded in.
  50:..\..\..\..\cloud\alicloud\src\infra\utils\misc/lite-list.h ****  * @param[in]   member  the name of the dlist_t within the struct.
  51:..\..\..\..\cloud\alicloud\src\infra\utils\misc/lite-list.h ****  */
  52:..\..\..\..\cloud\alicloud\src\infra\utils\misc/lite-list.h **** #define dlist_entry(addr, type, member) \
  53:..\..\..\..\cloud\alicloud\src\infra\utils\misc/lite-list.h ****     ((type *)((long)addr - aos_offsetof(type, member)))
  54:..\..\..\..\cloud\alicloud\src\infra\utils\misc/lite-list.h **** 
  55:..\..\..\..\cloud\alicloud\src\infra\utils\misc/lite-list.h **** 
  56:..\..\..\..\cloud\alicloud\src\infra\utils\misc/lite-list.h **** static inline void dlist_add(dlist_t *node, dlist_t *queue)
  57:..\..\..\..\cloud\alicloud\src\infra\utils\misc/lite-list.h **** {
  58:..\..\..\..\cloud\alicloud\src\infra\utils\misc/lite-list.h ****     __dlist_add(node, queue, queue->next);
  59:..\..\..\..\cloud\alicloud\src\infra\utils\misc/lite-list.h **** }
  60:..\..\..\..\cloud\alicloud\src\infra\utils\misc/lite-list.h **** 
  61:..\..\..\..\cloud\alicloud\src\infra\utils\misc/lite-list.h **** static inline void dlist_add_tail(dlist_t *node, dlist_t *queue)
  62:..\..\..\..\cloud\alicloud\src\infra\utils\misc/lite-list.h **** {
  63:..\..\..\..\cloud\alicloud\src\infra\utils\misc/lite-list.h ****     __dlist_add(node, queue->prev, queue);
 2150              		.loc 2 63 28 is_stmt 0
 2151 03de 83268901 		lw	a3,24(s2)
 2152              	.LBE71:
 2153              	.LBE70:
 436:C:/Users/stapi/OneDrive/Desktop/GD32VW553/V1_MQTT_OK/GD32VW55X_Wifi_BLE_SDK/GD32VW55x_RELEASE_V1.0.2/MSDK/cloud/alicloud/src/protocol/coap/local\CoAPMessage.c ****             ctx->sendlist.count ++;
 2154              		.loc 1 436 27
 2155 03e2 13878403 		addi	a4,s1,56
 2156              	.LVL224:
 2157              	.LBB78:
 2158              	.LBB76:
 2159              		.loc 2 63 5 is_stmt 1
 2160              	.LBB72:
 2161              	.LBB73:
  38:..\..\..\..\cloud\alicloud\src\infra\utils\misc/lite-list.h ****     node->prev = prev;
 2162              		.loc 2 38 5
  38:..\..\..\..\cloud\alicloud\src\infra\utils\misc/lite-list.h ****     node->prev = prev;
 2163              		.loc 2 38 16 is_stmt 0
 2164 03e6 23AE7403 		sw	s7,60(s1)
  39:..\..\..\..\cloud\alicloud\src\infra\utils\misc/lite-list.h **** 
 2165              		.loc 2 39 5 is_stmt 1
  39:..\..\..\..\cloud\alicloud\src\infra\utils\misc/lite-list.h **** 
 2166              		.loc 2 39 16 is_stmt 0
 2167 03ea 94DC     		sw	a3,56(s1)
  41:..\..\..\..\cloud\alicloud\src\infra\utils\misc/lite-list.h ****     next->prev = node;
 2168              		.loc 2 41 5 is_stmt 1
  41:..\..\..\..\cloud\alicloud\src\infra\utils\misc/lite-list.h ****     next->prev = node;
 2169              		.loc 2 41 16 is_stmt 0
 2170 03ec D8C2     		sw	a4,4(a3)
  42:..\..\..\..\cloud\alicloud\src\infra\utils\misc/lite-list.h **** }
 2171              		.loc 2 42 5 is_stmt 1
 2172              	.LBE73:
 2173              	.LBE72:
 2174              	.LBE76:
 2175              	.LBE78:
 437:C:/Users/stapi/OneDrive/Desktop/GD32VW553/V1_MQTT_OK/GD32VW55X_Wifi_BLE_SDK/GD32VW55x_RELEASE_V1.0.2/MSDK/cloud/alicloud/src/protocol/coap/local\CoAPMessage.c ****             HAL_MutexUnlock(ctx->sendlist.list_mutex);
 2176              		.loc 1 437 33 is_stmt 0
 2177 03ee 8507     		addi	a5,a5,1
 2178              	.LBB79:
 2179              	.LBB77:
 2180              	.LBB75:
 2181              	.LBB74:
  42:..\..\..\..\cloud\alicloud\src\infra\utils\misc/lite-list.h **** }
 2182              		.loc 2 42 16
 2183 03f0 232CE900 		sw	a4,24(s2)
 2184              	.LVL225:
 2185              	.LBE74:
 2186              	.LBE75:
 2187              	.LBE77:
 2188              	.LBE79:
 437:C:/Users/stapi/OneDrive/Desktop/GD32VW553/V1_MQTT_OK/GD32VW55X_Wifi_BLE_SDK/GD32VW55x_RELEASE_V1.0.2/MSDK/cloud/alicloud/src/protocol/coap/local\CoAPMessage.c ****             HAL_MutexUnlock(ctx->sendlist.list_mutex);
 2189              		.loc 1 437 13 is_stmt 1
 437:C:/Users/stapi/OneDrive/Desktop/GD32VW553/V1_MQTT_OK/GD32VW55X_Wifi_BLE_SDK/GD32VW55x_RELEASE_V1.0.2/MSDK/cloud/alicloud/src/protocol/coap/local\CoAPMessage.c ****             HAL_MutexUnlock(ctx->sendlist.list_mutex);
 2190              		.loc 1 437 33 is_stmt 0
 2191 03f4 2300F902 		sb	a5,32(s2)
 2192 03f8 6DB7     		j	.L178
 2193              	.LVL226:
 2194              	.L159:
 2195              	.LBE82:
 2196              	.LBE86:
 2197              	.LBE90:
 546:C:/Users/stapi/OneDrive/Desktop/GD32VW553/V1_MQTT_OK/GD32VW55X_Wifi_BLE_SDK/GD32VW55x_RELEASE_V1.0.2/MSDK/cloud/alicloud/src/protocol/coap/local\CoAPMessage.c ****             COAP_FLOW("The message %d isn't CON msg, needless to be retransmitted",
 2198              		.loc 1 546 13 is_stmt 1
 2199 03fa 4E85     		mv	a0,s3
 2200              	.LVL227:
 2201 03fc 97000000 		call	LITE_free_internal
 2201      E7800000 
 2202              	.LVL228:
 547:C:/Users/stapi/OneDrive/Desktop/GD32VW553/V1_MQTT_OK/GD32VW55X_Wifi_BLE_SDK/GD32VW55x_RELEASE_V1.0.2/MSDK/cloud/alicloud/src/protocol/coap/local\CoAPMessage.c ****                       message->header.msgid);
 2203              		.loc 1 547 13
 2204 0404 83572400 		lhu	a5,2(s0)
 2205 0408 37070000 		lui	a4,%hi(.LC16)
 2206 040c 13070700 		addi	a4,a4,%lo(.LC16)
 2207 0410 9546     		li	a3,5
 2208 0412 13063022 		li	a2,547
 2209 0416 93850400 		addi	a1,s1,%lo(.LANCHOR2)
 2210 041a 13050B00 		addi	a0,s6,%lo(.LC1)
 2211 041e 97000000 		call	LITE_syslog
 2211      E7800000 
 2212              	.LVL229:
 2213 0426 51B7     		j	.L164
 2214              	.LVL230:
 2215              	.L157:
 551:C:/Users/stapi/OneDrive/Desktop/GD32VW553/V1_MQTT_OK/GD32VW55X_Wifi_BLE_SDK/GD32VW55x_RELEASE_V1.0.2/MSDK/cloud/alicloud/src/protocol/coap/local\CoAPMessage.c ****         COAP_ERR("CoAP transport write failed, send message %d return %d", message->header.msgid, r
 2216              		.loc 1 551 9
 2217 0428 4E85     		mv	a0,s3
 2218              	.LVL231:
 2219 042a 97000000 		call	LITE_free_internal
 2219      E7800000 
 2220              	.LVL232:
 552:C:/Users/stapi/OneDrive/Desktop/GD32VW553/V1_MQTT_OK/GD32VW55X_Wifi_BLE_SDK/GD32VW55x_RELEASE_V1.0.2/MSDK/cloud/alicloud/src/protocol/coap/local\CoAPMessage.c ****         return COAP_ERROR_WRITE_FAILED;
 2221              		.loc 1 552 9
 552:C:/Users/stapi/OneDrive/Desktop/GD32VW553/V1_MQTT_OK/GD32VW55X_Wifi_BLE_SDK/GD32VW55x_RELEASE_V1.0.2/MSDK/cloud/alicloud/src/protocol/coap/local\CoAPMessage.c ****         return COAP_ERROR_WRITE_FAILED;
 2222              		.loc 1 552 9
 2223 0432 37050000 		lui	a0,%hi(.LC14)
 2224 0436 13050500 		addi	a0,a0,%lo(.LC14)
 2225 043a 97000000 		call	HAL_Printf
 2225      E7800000 
 2226              	.LVL233:
 552:C:/Users/stapi/OneDrive/Desktop/GD32VW553/V1_MQTT_OK/GD32VW55X_Wifi_BLE_SDK/GD32VW55x_RELEASE_V1.0.2/MSDK/cloud/alicloud/src/protocol/coap/local\CoAPMessage.c ****         return COAP_ERROR_WRITE_FAILED;
 2227              		.loc 1 552 9
 2228 0442 83552400 		lhu	a1,2(s0)
 2229 0446 37050000 		lui	a0,%hi(.LC17)
 2230 044a 0146     		li	a2,0
 2231 044c 13050500 		addi	a0,a0,%lo(.LC17)
 2232 0450 97000000 		call	HAL_Printf
 2232      E7800000 
 2233              	.LVL234:
 552:C:/Users/stapi/OneDrive/Desktop/GD32VW553/V1_MQTT_OK/GD32VW55X_Wifi_BLE_SDK/GD32VW55x_RELEASE_V1.0.2/MSDK/cloud/alicloud/src/protocol/coap/local\CoAPMessage.c ****         return COAP_ERROR_WRITE_FAILED;
 2234              		.loc 1 552 9
 2235 0458 37050000 		lui	a0,%hi(.LC7)
 2236 045c 13050500 		addi	a0,a0,%lo(.LC7)
 2237 0460 97000000 		call	HAL_Printf
 2237      E7800000 
 2238              	.LVL235:
 552:C:/Users/stapi/OneDrive/Desktop/GD32VW553/V1_MQTT_OK/GD32VW55X_Wifi_BLE_SDK/GD32VW55x_RELEASE_V1.0.2/MSDK/cloud/alicloud/src/protocol/coap/local\CoAPMessage.c ****         return COAP_ERROR_WRITE_FAILED;
 2239              		.loc 1 552 9
 553:C:/Users/stapi/OneDrive/Desktop/GD32VW553/V1_MQTT_OK/GD32VW55X_Wifi_BLE_SDK/GD32VW55x_RELEASE_V1.0.2/MSDK/cloud/alicloud/src/protocol/coap/local\CoAPMessage.c ****     }
 2240              		.loc 1 553 9
 553:C:/Users/stapi/OneDrive/Desktop/GD32VW553/V1_MQTT_OK/GD32VW55X_Wifi_BLE_SDK/GD32VW55x_RELEASE_V1.0.2/MSDK/cloud/alicloud/src/protocol/coap/local\CoAPMessage.c ****     }
 2241              		.loc 1 553 16 is_stmt 0
 2242 0468 9304A010 		li	s1,266
 2243 046c 11B1     		j	.L153
 2244              		.cfi_endproc
 2245              	.LFE42:
 2247              		.section	.rodata.CoAPErrRespMessage_send.isra.0.str1.4,"aMS",@progbits,1
 2248              		.align	2
 2249              	.LC18:
 2250 0000 53656E64 		.string	"Send Error Response Message"
 2250      20457272 
 2250      6F722052 
 2250      6573706F 
 2250      6E736520 
 2251              		.section	.text.CoAPErrRespMessage_send.isra.0,"ax",@progbits
 2252              		.align	1
 2254              	CoAPErrRespMessage_send.isra.0:
 2255              	.LFB62:
 559:C:/Users/stapi/OneDrive/Desktop/GD32VW553/V1_MQTT_OK/GD32VW55X_Wifi_BLE_SDK/GD32VW55x_RELEASE_V1.0.2/MSDK/cloud/alicloud/src/protocol/coap/local\CoAPMessage.c **** 
 560:C:/Users/stapi/OneDrive/Desktop/GD32VW553/V1_MQTT_OK/GD32VW55X_Wifi_BLE_SDK/GD32VW55x_RELEASE_V1.0.2/MSDK/cloud/alicloud/src/protocol/coap/local\CoAPMessage.c **** int CoAPMessage_cancel(CoAPContext *context, CoAPMessage *message)
 561:C:/Users/stapi/OneDrive/Desktop/GD32VW553/V1_MQTT_OK/GD32VW55X_Wifi_BLE_SDK/GD32VW55x_RELEASE_V1.0.2/MSDK/cloud/alicloud/src/protocol/coap/local\CoAPMessage.c **** {
 562:C:/Users/stapi/OneDrive/Desktop/GD32VW553/V1_MQTT_OK/GD32VW55X_Wifi_BLE_SDK/GD32VW55x_RELEASE_V1.0.2/MSDK/cloud/alicloud/src/protocol/coap/local\CoAPMessage.c ****     CoAPSendNode *node = NULL, *next = NULL;
 563:C:/Users/stapi/OneDrive/Desktop/GD32VW553/V1_MQTT_OK/GD32VW55X_Wifi_BLE_SDK/GD32VW55x_RELEASE_V1.0.2/MSDK/cloud/alicloud/src/protocol/coap/local\CoAPMessage.c ****     CoAPIntContext *ctx = (CoAPIntContext *)context;
 564:C:/Users/stapi/OneDrive/Desktop/GD32VW553/V1_MQTT_OK/GD32VW55X_Wifi_BLE_SDK/GD32VW55x_RELEASE_V1.0.2/MSDK/cloud/alicloud/src/protocol/coap/local\CoAPMessage.c **** 
 565:C:/Users/stapi/OneDrive/Desktop/GD32VW553/V1_MQTT_OK/GD32VW55X_Wifi_BLE_SDK/GD32VW55x_RELEASE_V1.0.2/MSDK/cloud/alicloud/src/protocol/coap/local\CoAPMessage.c ****     if (NULL == context || NULL == message) {
 566:C:/Users/stapi/OneDrive/Desktop/GD32VW553/V1_MQTT_OK/GD32VW55X_Wifi_BLE_SDK/GD32VW55x_RELEASE_V1.0.2/MSDK/cloud/alicloud/src/protocol/coap/local\CoAPMessage.c ****         return COAP_ERROR_NULL;
 567:C:/Users/stapi/OneDrive/Desktop/GD32VW553/V1_MQTT_OK/GD32VW55X_Wifi_BLE_SDK/GD32VW55x_RELEASE_V1.0.2/MSDK/cloud/alicloud/src/protocol/coap/local\CoAPMessage.c ****     }
 568:C:/Users/stapi/OneDrive/Desktop/GD32VW553/V1_MQTT_OK/GD32VW55X_Wifi_BLE_SDK/GD32VW55x_RELEASE_V1.0.2/MSDK/cloud/alicloud/src/protocol/coap/local\CoAPMessage.c **** 
 569:C:/Users/stapi/OneDrive/Desktop/GD32VW553/V1_MQTT_OK/GD32VW55X_Wifi_BLE_SDK/GD32VW55x_RELEASE_V1.0.2/MSDK/cloud/alicloud/src/protocol/coap/local\CoAPMessage.c **** 
 570:C:/Users/stapi/OneDrive/Desktop/GD32VW553/V1_MQTT_OK/GD32VW55X_Wifi_BLE_SDK/GD32VW55x_RELEASE_V1.0.2/MSDK/cloud/alicloud/src/protocol/coap/local\CoAPMessage.c ****     HAL_MutexLock(ctx->sendlist.list_mutex);
 571:C:/Users/stapi/OneDrive/Desktop/GD32VW553/V1_MQTT_OK/GD32VW55X_Wifi_BLE_SDK/GD32VW55x_RELEASE_V1.0.2/MSDK/cloud/alicloud/src/protocol/coap/local\CoAPMessage.c ****     list_for_each_entry_safe(node, next, &ctx->sendlist.list, sendlist, CoAPSendNode) {
 572:C:/Users/stapi/OneDrive/Desktop/GD32VW553/V1_MQTT_OK/GD32VW55X_Wifi_BLE_SDK/GD32VW55x_RELEASE_V1.0.2/MSDK/cloud/alicloud/src/protocol/coap/local\CoAPMessage.c ****         if (node->header.msgid == message->header.msgid) {
 573:C:/Users/stapi/OneDrive/Desktop/GD32VW553/V1_MQTT_OK/GD32VW55X_Wifi_BLE_SDK/GD32VW55x_RELEASE_V1.0.2/MSDK/cloud/alicloud/src/protocol/coap/local\CoAPMessage.c ****             list_del(&node->sendlist);
 574:C:/Users/stapi/OneDrive/Desktop/GD32VW553/V1_MQTT_OK/GD32VW55X_Wifi_BLE_SDK/GD32VW55x_RELEASE_V1.0.2/MSDK/cloud/alicloud/src/protocol/coap/local\CoAPMessage.c ****             ctx->sendlist.count--;
 575:C:/Users/stapi/OneDrive/Desktop/GD32VW553/V1_MQTT_OK/GD32VW55X_Wifi_BLE_SDK/GD32VW55x_RELEASE_V1.0.2/MSDK/cloud/alicloud/src/protocol/coap/local\CoAPMessage.c ****             COAP_INFO("Cancel message %d from list, cur count %d",
 576:C:/Users/stapi/OneDrive/Desktop/GD32VW553/V1_MQTT_OK/GD32VW55X_Wifi_BLE_SDK/GD32VW55x_RELEASE_V1.0.2/MSDK/cloud/alicloud/src/protocol/coap/local\CoAPMessage.c ****                       node->header.msgid, ctx->sendlist.count);
 577:C:/Users/stapi/OneDrive/Desktop/GD32VW553/V1_MQTT_OK/GD32VW55X_Wifi_BLE_SDK/GD32VW55x_RELEASE_V1.0.2/MSDK/cloud/alicloud/src/protocol/coap/local\CoAPMessage.c ****             coap_free(node->message);
 578:C:/Users/stapi/OneDrive/Desktop/GD32VW553/V1_MQTT_OK/GD32VW55X_Wifi_BLE_SDK/GD32VW55x_RELEASE_V1.0.2/MSDK/cloud/alicloud/src/protocol/coap/local\CoAPMessage.c ****             coap_free(node);
 579:C:/Users/stapi/OneDrive/Desktop/GD32VW553/V1_MQTT_OK/GD32VW55X_Wifi_BLE_SDK/GD32VW55x_RELEASE_V1.0.2/MSDK/cloud/alicloud/src/protocol/coap/local\CoAPMessage.c ****         }
 580:C:/Users/stapi/OneDrive/Desktop/GD32VW553/V1_MQTT_OK/GD32VW55X_Wifi_BLE_SDK/GD32VW55x_RELEASE_V1.0.2/MSDK/cloud/alicloud/src/protocol/coap/local\CoAPMessage.c ****     }
 581:C:/Users/stapi/OneDrive/Desktop/GD32VW553/V1_MQTT_OK/GD32VW55X_Wifi_BLE_SDK/GD32VW55x_RELEASE_V1.0.2/MSDK/cloud/alicloud/src/protocol/coap/local\CoAPMessage.c ****     HAL_MutexUnlock(ctx->sendlist.list_mutex);
 582:C:/Users/stapi/OneDrive/Desktop/GD32VW553/V1_MQTT_OK/GD32VW55X_Wifi_BLE_SDK/GD32VW55x_RELEASE_V1.0.2/MSDK/cloud/alicloud/src/protocol/coap/local\CoAPMessage.c ****     return COAP_SUCCESS;
 583:C:/Users/stapi/OneDrive/Desktop/GD32VW553/V1_MQTT_OK/GD32VW55X_Wifi_BLE_SDK/GD32VW55x_RELEASE_V1.0.2/MSDK/cloud/alicloud/src/protocol/coap/local\CoAPMessage.c **** }
 584:C:/Users/stapi/OneDrive/Desktop/GD32VW553/V1_MQTT_OK/GD32VW55X_Wifi_BLE_SDK/GD32VW55x_RELEASE_V1.0.2/MSDK/cloud/alicloud/src/protocol/coap/local\CoAPMessage.c **** 
 585:C:/Users/stapi/OneDrive/Desktop/GD32VW553/V1_MQTT_OK/GD32VW55X_Wifi_BLE_SDK/GD32VW55x_RELEASE_V1.0.2/MSDK/cloud/alicloud/src/protocol/coap/local\CoAPMessage.c **** int CoAPMessage_print_sendlist(CoAPContext *context)
 586:C:/Users/stapi/OneDrive/Desktop/GD32VW553/V1_MQTT_OK/GD32VW55X_Wifi_BLE_SDK/GD32VW55x_RELEASE_V1.0.2/MSDK/cloud/alicloud/src/protocol/coap/local\CoAPMessage.c **** {
 587:C:/Users/stapi/OneDrive/Desktop/GD32VW553/V1_MQTT_OK/GD32VW55X_Wifi_BLE_SDK/GD32VW55x_RELEASE_V1.0.2/MSDK/cloud/alicloud/src/protocol/coap/local\CoAPMessage.c **** #ifdef ALCS_COAP_SENDLIST_DEBUG
 588:C:/Users/stapi/OneDrive/Desktop/GD32VW553/V1_MQTT_OK/GD32VW55X_Wifi_BLE_SDK/GD32VW55x_RELEASE_V1.0.2/MSDK/cloud/alicloud/src/protocol/coap/local\CoAPMessage.c ****     CoAPSendNode *node = NULL, *next = NULL;
 589:C:/Users/stapi/OneDrive/Desktop/GD32VW553/V1_MQTT_OK/GD32VW55X_Wifi_BLE_SDK/GD32VW55x_RELEASE_V1.0.2/MSDK/cloud/alicloud/src/protocol/coap/local\CoAPMessage.c ****     CoAPIntContext *ctx = (CoAPIntContext *)context;
 590:C:/Users/stapi/OneDrive/Desktop/GD32VW553/V1_MQTT_OK/GD32VW55X_Wifi_BLE_SDK/GD32VW55x_RELEASE_V1.0.2/MSDK/cloud/alicloud/src/protocol/coap/local\CoAPMessage.c **** 
 591:C:/Users/stapi/OneDrive/Desktop/GD32VW553/V1_MQTT_OK/GD32VW55X_Wifi_BLE_SDK/GD32VW55x_RELEASE_V1.0.2/MSDK/cloud/alicloud/src/protocol/coap/local\CoAPMessage.c ****     if (NULL == context || NULL == ctx->sendlist.list_mutex) {
 592:C:/Users/stapi/OneDrive/Desktop/GD32VW553/V1_MQTT_OK/GD32VW55X_Wifi_BLE_SDK/GD32VW55x_RELEASE_V1.0.2/MSDK/cloud/alicloud/src/protocol/coap/local\CoAPMessage.c ****         return COAP_ERROR_NULL;
 593:C:/Users/stapi/OneDrive/Desktop/GD32VW553/V1_MQTT_OK/GD32VW55X_Wifi_BLE_SDK/GD32VW55x_RELEASE_V1.0.2/MSDK/cloud/alicloud/src/protocol/coap/local\CoAPMessage.c ****     }
 594:C:/Users/stapi/OneDrive/Desktop/GD32VW553/V1_MQTT_OK/GD32VW55X_Wifi_BLE_SDK/GD32VW55x_RELEASE_V1.0.2/MSDK/cloud/alicloud/src/protocol/coap/local\CoAPMessage.c **** 
 595:C:/Users/stapi/OneDrive/Desktop/GD32VW553/V1_MQTT_OK/GD32VW55X_Wifi_BLE_SDK/GD32VW55x_RELEASE_V1.0.2/MSDK/cloud/alicloud/src/protocol/coap/local\CoAPMessage.c ****     //HAL_MutexLock(ctx->sendlist.list_mutex);
 596:C:/Users/stapi/OneDrive/Desktop/GD32VW553/V1_MQTT_OK/GD32VW55X_Wifi_BLE_SDK/GD32VW55x_RELEASE_V1.0.2/MSDK/cloud/alicloud/src/protocol/coap/local\CoAPMessage.c ****     COAP_INFO("-------------------------------------");
 597:C:/Users/stapi/OneDrive/Desktop/GD32VW553/V1_MQTT_OK/GD32VW55X_Wifi_BLE_SDK/GD32VW55x_RELEASE_V1.0.2/MSDK/cloud/alicloud/src/protocol/coap/local\CoAPMessage.c ****     COAP_INFO("sendlist.count %d",ctx->sendlist.count);
 598:C:/Users/stapi/OneDrive/Desktop/GD32VW553/V1_MQTT_OK/GD32VW55X_Wifi_BLE_SDK/GD32VW55x_RELEASE_V1.0.2/MSDK/cloud/alicloud/src/protocol/coap/local\CoAPMessage.c ****     list_for_each_entry_safe(node, next, &ctx->sendlist.list, sendlist, CoAPSendNode) {
 599:C:/Users/stapi/OneDrive/Desktop/GD32VW553/V1_MQTT_OK/GD32VW55X_Wifi_BLE_SDK/GD32VW55x_RELEASE_V1.0.2/MSDK/cloud/alicloud/src/protocol/coap/local\CoAPMessage.c ****         if (NULL != node) {
 600:C:/Users/stapi/OneDrive/Desktop/GD32VW553/V1_MQTT_OK/GD32VW55X_Wifi_BLE_SDK/GD32VW55x_RELEASE_V1.0.2/MSDK/cloud/alicloud/src/protocol/coap/local\CoAPMessage.c ****             COAP_INFO("message id %d, ack:%d, keep:%d, type:%d, code:%d",
 601:C:/Users/stapi/OneDrive/Desktop/GD32VW553/V1_MQTT_OK/GD32VW55X_Wifi_BLE_SDK/GD32VW55x_RELEASE_V1.0.2/MSDK/cloud/alicloud/src/protocol/coap/local\CoAPMessage.c ****                     node->header.msgid, node->acked, node->keep,
 602:C:/Users/stapi/OneDrive/Desktop/GD32VW553/V1_MQTT_OK/GD32VW55X_Wifi_BLE_SDK/GD32VW55x_RELEASE_V1.0.2/MSDK/cloud/alicloud/src/protocol/coap/local\CoAPMessage.c ****                     node->header.type, node->header.code);
 603:C:/Users/stapi/OneDrive/Desktop/GD32VW553/V1_MQTT_OK/GD32VW55X_Wifi_BLE_SDK/GD32VW55x_RELEASE_V1.0.2/MSDK/cloud/alicloud/src/protocol/coap/local\CoAPMessage.c ****         }
 604:C:/Users/stapi/OneDrive/Desktop/GD32VW553/V1_MQTT_OK/GD32VW55X_Wifi_BLE_SDK/GD32VW55x_RELEASE_V1.0.2/MSDK/cloud/alicloud/src/protocol/coap/local\CoAPMessage.c ****     }
 605:C:/Users/stapi/OneDrive/Desktop/GD32VW553/V1_MQTT_OK/GD32VW55X_Wifi_BLE_SDK/GD32VW55x_RELEASE_V1.0.2/MSDK/cloud/alicloud/src/protocol/coap/local\CoAPMessage.c ****     COAP_INFO("-------------------------------------");
 606:C:/Users/stapi/OneDrive/Desktop/GD32VW553/V1_MQTT_OK/GD32VW55X_Wifi_BLE_SDK/GD32VW55x_RELEASE_V1.0.2/MSDK/cloud/alicloud/src/protocol/coap/local\CoAPMessage.c ****     //HAL_MutexUnlock(ctx->sendlist.list_mutex);
 607:C:/Users/stapi/OneDrive/Desktop/GD32VW553/V1_MQTT_OK/GD32VW55X_Wifi_BLE_SDK/GD32VW55x_RELEASE_V1.0.2/MSDK/cloud/alicloud/src/protocol/coap/local\CoAPMessage.c **** #endif
 608:C:/Users/stapi/OneDrive/Desktop/GD32VW553/V1_MQTT_OK/GD32VW55X_Wifi_BLE_SDK/GD32VW55x_RELEASE_V1.0.2/MSDK/cloud/alicloud/src/protocol/coap/local\CoAPMessage.c ****     return COAP_SUCCESS;
 609:C:/Users/stapi/OneDrive/Desktop/GD32VW553/V1_MQTT_OK/GD32VW55X_Wifi_BLE_SDK/GD32VW55x_RELEASE_V1.0.2/MSDK/cloud/alicloud/src/protocol/coap/local\CoAPMessage.c **** }
 610:C:/Users/stapi/OneDrive/Desktop/GD32VW553/V1_MQTT_OK/GD32VW55X_Wifi_BLE_SDK/GD32VW55x_RELEASE_V1.0.2/MSDK/cloud/alicloud/src/protocol/coap/local\CoAPMessage.c **** 
 611:C:/Users/stapi/OneDrive/Desktop/GD32VW553/V1_MQTT_OK/GD32VW55X_Wifi_BLE_SDK/GD32VW55x_RELEASE_V1.0.2/MSDK/cloud/alicloud/src/protocol/coap/local\CoAPMessage.c **** int CoAPMessageId_cancel(CoAPContext *context, unsigned short msgid)
 612:C:/Users/stapi/OneDrive/Desktop/GD32VW553/V1_MQTT_OK/GD32VW55X_Wifi_BLE_SDK/GD32VW55x_RELEASE_V1.0.2/MSDK/cloud/alicloud/src/protocol/coap/local\CoAPMessage.c **** {
 613:C:/Users/stapi/OneDrive/Desktop/GD32VW553/V1_MQTT_OK/GD32VW55X_Wifi_BLE_SDK/GD32VW55x_RELEASE_V1.0.2/MSDK/cloud/alicloud/src/protocol/coap/local\CoAPMessage.c ****     CoAPSendNode *node = NULL, *next = NULL;
 614:C:/Users/stapi/OneDrive/Desktop/GD32VW553/V1_MQTT_OK/GD32VW55X_Wifi_BLE_SDK/GD32VW55x_RELEASE_V1.0.2/MSDK/cloud/alicloud/src/protocol/coap/local\CoAPMessage.c ****     CoAPIntContext *ctx = (CoAPIntContext *)context;
 615:C:/Users/stapi/OneDrive/Desktop/GD32VW553/V1_MQTT_OK/GD32VW55X_Wifi_BLE_SDK/GD32VW55x_RELEASE_V1.0.2/MSDK/cloud/alicloud/src/protocol/coap/local\CoAPMessage.c **** 
 616:C:/Users/stapi/OneDrive/Desktop/GD32VW553/V1_MQTT_OK/GD32VW55X_Wifi_BLE_SDK/GD32VW55x_RELEASE_V1.0.2/MSDK/cloud/alicloud/src/protocol/coap/local\CoAPMessage.c ****     if (NULL == context || NULL == ctx->sendlist.list_mutex) {
 617:C:/Users/stapi/OneDrive/Desktop/GD32VW553/V1_MQTT_OK/GD32VW55X_Wifi_BLE_SDK/GD32VW55x_RELEASE_V1.0.2/MSDK/cloud/alicloud/src/protocol/coap/local\CoAPMessage.c ****         return COAP_ERROR_NULL;
 618:C:/Users/stapi/OneDrive/Desktop/GD32VW553/V1_MQTT_OK/GD32VW55X_Wifi_BLE_SDK/GD32VW55x_RELEASE_V1.0.2/MSDK/cloud/alicloud/src/protocol/coap/local\CoAPMessage.c ****     }
 619:C:/Users/stapi/OneDrive/Desktop/GD32VW553/V1_MQTT_OK/GD32VW55X_Wifi_BLE_SDK/GD32VW55x_RELEASE_V1.0.2/MSDK/cloud/alicloud/src/protocol/coap/local\CoAPMessage.c **** 
 620:C:/Users/stapi/OneDrive/Desktop/GD32VW553/V1_MQTT_OK/GD32VW55X_Wifi_BLE_SDK/GD32VW55x_RELEASE_V1.0.2/MSDK/cloud/alicloud/src/protocol/coap/local\CoAPMessage.c ****     HAL_MutexLock(ctx->sendlist.list_mutex);
 621:C:/Users/stapi/OneDrive/Desktop/GD32VW553/V1_MQTT_OK/GD32VW55X_Wifi_BLE_SDK/GD32VW55x_RELEASE_V1.0.2/MSDK/cloud/alicloud/src/protocol/coap/local\CoAPMessage.c ****     list_for_each_entry_safe(node, next, &ctx->sendlist.list, sendlist, CoAPSendNode) {
 622:C:/Users/stapi/OneDrive/Desktop/GD32VW553/V1_MQTT_OK/GD32VW55X_Wifi_BLE_SDK/GD32VW55x_RELEASE_V1.0.2/MSDK/cloud/alicloud/src/protocol/coap/local\CoAPMessage.c ****         if (NULL != node) {
 623:C:/Users/stapi/OneDrive/Desktop/GD32VW553/V1_MQTT_OK/GD32VW55X_Wifi_BLE_SDK/GD32VW55x_RELEASE_V1.0.2/MSDK/cloud/alicloud/src/protocol/coap/local\CoAPMessage.c ****             if (node->header.msgid == msgid) {
 624:C:/Users/stapi/OneDrive/Desktop/GD32VW553/V1_MQTT_OK/GD32VW55X_Wifi_BLE_SDK/GD32VW55x_RELEASE_V1.0.2/MSDK/cloud/alicloud/src/protocol/coap/local\CoAPMessage.c ****                 list_del(&node->sendlist);
 625:C:/Users/stapi/OneDrive/Desktop/GD32VW553/V1_MQTT_OK/GD32VW55X_Wifi_BLE_SDK/GD32VW55x_RELEASE_V1.0.2/MSDK/cloud/alicloud/src/protocol/coap/local\CoAPMessage.c ****                 ctx->sendlist.count--;
 626:C:/Users/stapi/OneDrive/Desktop/GD32VW553/V1_MQTT_OK/GD32VW55X_Wifi_BLE_SDK/GD32VW55x_RELEASE_V1.0.2/MSDK/cloud/alicloud/src/protocol/coap/local\CoAPMessage.c ****                 COAP_FLOW("Cancel message id %d from list, cur count %d",
 627:C:/Users/stapi/OneDrive/Desktop/GD32VW553/V1_MQTT_OK/GD32VW55X_Wifi_BLE_SDK/GD32VW55x_RELEASE_V1.0.2/MSDK/cloud/alicloud/src/protocol/coap/local\CoAPMessage.c ****                           node->header.msgid, ctx->sendlist.count);
 628:C:/Users/stapi/OneDrive/Desktop/GD32VW553/V1_MQTT_OK/GD32VW55X_Wifi_BLE_SDK/GD32VW55x_RELEASE_V1.0.2/MSDK/cloud/alicloud/src/protocol/coap/local\CoAPMessage.c ****                 coap_free(node->message);
 629:C:/Users/stapi/OneDrive/Desktop/GD32VW553/V1_MQTT_OK/GD32VW55X_Wifi_BLE_SDK/GD32VW55x_RELEASE_V1.0.2/MSDK/cloud/alicloud/src/protocol/coap/local\CoAPMessage.c ****                 coap_free(node);
 630:C:/Users/stapi/OneDrive/Desktop/GD32VW553/V1_MQTT_OK/GD32VW55X_Wifi_BLE_SDK/GD32VW55x_RELEASE_V1.0.2/MSDK/cloud/alicloud/src/protocol/coap/local\CoAPMessage.c ****                 CoAPMessage_print_sendlist(context);
 631:C:/Users/stapi/OneDrive/Desktop/GD32VW553/V1_MQTT_OK/GD32VW55X_Wifi_BLE_SDK/GD32VW55x_RELEASE_V1.0.2/MSDK/cloud/alicloud/src/protocol/coap/local\CoAPMessage.c ****             }
 632:C:/Users/stapi/OneDrive/Desktop/GD32VW553/V1_MQTT_OK/GD32VW55X_Wifi_BLE_SDK/GD32VW55x_RELEASE_V1.0.2/MSDK/cloud/alicloud/src/protocol/coap/local\CoAPMessage.c ****         }
 633:C:/Users/stapi/OneDrive/Desktop/GD32VW553/V1_MQTT_OK/GD32VW55X_Wifi_BLE_SDK/GD32VW55x_RELEASE_V1.0.2/MSDK/cloud/alicloud/src/protocol/coap/local\CoAPMessage.c ****     }
 634:C:/Users/stapi/OneDrive/Desktop/GD32VW553/V1_MQTT_OK/GD32VW55X_Wifi_BLE_SDK/GD32VW55x_RELEASE_V1.0.2/MSDK/cloud/alicloud/src/protocol/coap/local\CoAPMessage.c ****     HAL_MutexUnlock(ctx->sendlist.list_mutex);
 635:C:/Users/stapi/OneDrive/Desktop/GD32VW553/V1_MQTT_OK/GD32VW55X_Wifi_BLE_SDK/GD32VW55x_RELEASE_V1.0.2/MSDK/cloud/alicloud/src/protocol/coap/local\CoAPMessage.c **** 
 636:C:/Users/stapi/OneDrive/Desktop/GD32VW553/V1_MQTT_OK/GD32VW55X_Wifi_BLE_SDK/GD32VW55x_RELEASE_V1.0.2/MSDK/cloud/alicloud/src/protocol/coap/local\CoAPMessage.c ****     return COAP_SUCCESS;
 637:C:/Users/stapi/OneDrive/Desktop/GD32VW553/V1_MQTT_OK/GD32VW55X_Wifi_BLE_SDK/GD32VW55x_RELEASE_V1.0.2/MSDK/cloud/alicloud/src/protocol/coap/local\CoAPMessage.c **** }
 638:C:/Users/stapi/OneDrive/Desktop/GD32VW553/V1_MQTT_OK/GD32VW55X_Wifi_BLE_SDK/GD32VW55x_RELEASE_V1.0.2/MSDK/cloud/alicloud/src/protocol/coap/local\CoAPMessage.c **** 
 639:C:/Users/stapi/OneDrive/Desktop/GD32VW553/V1_MQTT_OK/GD32VW55X_Wifi_BLE_SDK/GD32VW55x_RELEASE_V1.0.2/MSDK/cloud/alicloud/src/protocol/coap/local\CoAPMessage.c **** static int CoAPAckMessage_handle(CoAPContext *context, CoAPMessage *message)
 640:C:/Users/stapi/OneDrive/Desktop/GD32VW553/V1_MQTT_OK/GD32VW55X_Wifi_BLE_SDK/GD32VW55x_RELEASE_V1.0.2/MSDK/cloud/alicloud/src/protocol/coap/local\CoAPMessage.c **** {
 641:C:/Users/stapi/OneDrive/Desktop/GD32VW553/V1_MQTT_OK/GD32VW55X_Wifi_BLE_SDK/GD32VW55x_RELEASE_V1.0.2/MSDK/cloud/alicloud/src/protocol/coap/local\CoAPMessage.c ****     CoAPSendNode *node = NULL, *next;
 642:C:/Users/stapi/OneDrive/Desktop/GD32VW553/V1_MQTT_OK/GD32VW55X_Wifi_BLE_SDK/GD32VW55x_RELEASE_V1.0.2/MSDK/cloud/alicloud/src/protocol/coap/local\CoAPMessage.c ****     CoAPIntContext *ctx = (CoAPIntContext *)context;
 643:C:/Users/stapi/OneDrive/Desktop/GD32VW553/V1_MQTT_OK/GD32VW55X_Wifi_BLE_SDK/GD32VW55x_RELEASE_V1.0.2/MSDK/cloud/alicloud/src/protocol/coap/local\CoAPMessage.c **** 
 644:C:/Users/stapi/OneDrive/Desktop/GD32VW553/V1_MQTT_OK/GD32VW55X_Wifi_BLE_SDK/GD32VW55x_RELEASE_V1.0.2/MSDK/cloud/alicloud/src/protocol/coap/local\CoAPMessage.c ****     HAL_MutexLock(ctx->sendlist.list_mutex);
 645:C:/Users/stapi/OneDrive/Desktop/GD32VW553/V1_MQTT_OK/GD32VW55X_Wifi_BLE_SDK/GD32VW55x_RELEASE_V1.0.2/MSDK/cloud/alicloud/src/protocol/coap/local\CoAPMessage.c ****     list_for_each_entry_safe(node, next, &ctx->sendlist.list, sendlist, CoAPSendNode) {
 646:C:/Users/stapi/OneDrive/Desktop/GD32VW553/V1_MQTT_OK/GD32VW55X_Wifi_BLE_SDK/GD32VW55x_RELEASE_V1.0.2/MSDK/cloud/alicloud/src/protocol/coap/local\CoAPMessage.c ****         if (node->header.msgid == message->header.msgid) {
 647:C:/Users/stapi/OneDrive/Desktop/GD32VW553/V1_MQTT_OK/GD32VW55X_Wifi_BLE_SDK/GD32VW55x_RELEASE_V1.0.2/MSDK/cloud/alicloud/src/protocol/coap/local\CoAPMessage.c ****             CoAPSendMsgHandler handler = node->handler;
 648:C:/Users/stapi/OneDrive/Desktop/GD32VW553/V1_MQTT_OK/GD32VW55X_Wifi_BLE_SDK/GD32VW55x_RELEASE_V1.0.2/MSDK/cloud/alicloud/src/protocol/coap/local\CoAPMessage.c ****             void *user_data = node->user;
 649:C:/Users/stapi/OneDrive/Desktop/GD32VW553/V1_MQTT_OK/GD32VW55X_Wifi_BLE_SDK/GD32VW55x_RELEASE_V1.0.2/MSDK/cloud/alicloud/src/protocol/coap/local\CoAPMessage.c ****             NetworkAddr remote = {0};
 650:C:/Users/stapi/OneDrive/Desktop/GD32VW553/V1_MQTT_OK/GD32VW55X_Wifi_BLE_SDK/GD32VW55x_RELEASE_V1.0.2/MSDK/cloud/alicloud/src/protocol/coap/local\CoAPMessage.c ****             memcpy(&remote, &node->remote, sizeof(remote));
 651:C:/Users/stapi/OneDrive/Desktop/GD32VW553/V1_MQTT_OK/GD32VW55X_Wifi_BLE_SDK/GD32VW55x_RELEASE_V1.0.2/MSDK/cloud/alicloud/src/protocol/coap/local\CoAPMessage.c ****             node->acked = 1;
 652:C:/Users/stapi/OneDrive/Desktop/GD32VW553/V1_MQTT_OK/GD32VW55X_Wifi_BLE_SDK/GD32VW55x_RELEASE_V1.0.2/MSDK/cloud/alicloud/src/protocol/coap/local\CoAPMessage.c ****             if (CoAPRespMsg(node->header)) { //CON response message
 653:C:/Users/stapi/OneDrive/Desktop/GD32VW553/V1_MQTT_OK/GD32VW55X_Wifi_BLE_SDK/GD32VW55x_RELEASE_V1.0.2/MSDK/cloud/alicloud/src/protocol/coap/local\CoAPMessage.c ****                 list_del(&node->sendlist);
 654:C:/Users/stapi/OneDrive/Desktop/GD32VW553/V1_MQTT_OK/GD32VW55X_Wifi_BLE_SDK/GD32VW55x_RELEASE_V1.0.2/MSDK/cloud/alicloud/src/protocol/coap/local\CoAPMessage.c ****                 coap_free(node->message);
 655:C:/Users/stapi/OneDrive/Desktop/GD32VW553/V1_MQTT_OK/GD32VW55X_Wifi_BLE_SDK/GD32VW55x_RELEASE_V1.0.2/MSDK/cloud/alicloud/src/protocol/coap/local\CoAPMessage.c ****                 coap_free(node);
 656:C:/Users/stapi/OneDrive/Desktop/GD32VW553/V1_MQTT_OK/GD32VW55X_Wifi_BLE_SDK/GD32VW55x_RELEASE_V1.0.2/MSDK/cloud/alicloud/src/protocol/coap/local\CoAPMessage.c ****                 ctx->sendlist.count --;
 657:C:/Users/stapi/OneDrive/Desktop/GD32VW553/V1_MQTT_OK/GD32VW55X_Wifi_BLE_SDK/GD32VW55x_RELEASE_V1.0.2/MSDK/cloud/alicloud/src/protocol/coap/local\CoAPMessage.c ****                 COAP_DEBUG("The CON response message %d receive ACK, remove it, cur:%d",
 658:C:/Users/stapi/OneDrive/Desktop/GD32VW553/V1_MQTT_OK/GD32VW55X_Wifi_BLE_SDK/GD32VW55x_RELEASE_V1.0.2/MSDK/cloud/alicloud/src/protocol/coap/local\CoAPMessage.c ****                         message->header.msgid, ctx->sendlist.count);
 659:C:/Users/stapi/OneDrive/Desktop/GD32VW553/V1_MQTT_OK/GD32VW55X_Wifi_BLE_SDK/GD32VW55x_RELEASE_V1.0.2/MSDK/cloud/alicloud/src/protocol/coap/local\CoAPMessage.c ****             }
 660:C:/Users/stapi/OneDrive/Desktop/GD32VW553/V1_MQTT_OK/GD32VW55X_Wifi_BLE_SDK/GD32VW55x_RELEASE_V1.0.2/MSDK/cloud/alicloud/src/protocol/coap/local\CoAPMessage.c ****             CoAPMessage_print_sendlist(context);
 661:C:/Users/stapi/OneDrive/Desktop/GD32VW553/V1_MQTT_OK/GD32VW55X_Wifi_BLE_SDK/GD32VW55x_RELEASE_V1.0.2/MSDK/cloud/alicloud/src/protocol/coap/local\CoAPMessage.c ****             HAL_MutexUnlock(ctx->sendlist.list_mutex);
 662:C:/Users/stapi/OneDrive/Desktop/GD32VW553/V1_MQTT_OK/GD32VW55X_Wifi_BLE_SDK/GD32VW55x_RELEASE_V1.0.2/MSDK/cloud/alicloud/src/protocol/coap/local\CoAPMessage.c ****             if (handler) handler(ctx, COAP_RECV_RESP_SUC, user_data, &remote, NULL);
 663:C:/Users/stapi/OneDrive/Desktop/GD32VW553/V1_MQTT_OK/GD32VW55X_Wifi_BLE_SDK/GD32VW55x_RELEASE_V1.0.2/MSDK/cloud/alicloud/src/protocol/coap/local\CoAPMessage.c ****             return COAP_SUCCESS;
 664:C:/Users/stapi/OneDrive/Desktop/GD32VW553/V1_MQTT_OK/GD32VW55X_Wifi_BLE_SDK/GD32VW55x_RELEASE_V1.0.2/MSDK/cloud/alicloud/src/protocol/coap/local\CoAPMessage.c ****         }
 665:C:/Users/stapi/OneDrive/Desktop/GD32VW553/V1_MQTT_OK/GD32VW55X_Wifi_BLE_SDK/GD32VW55x_RELEASE_V1.0.2/MSDK/cloud/alicloud/src/protocol/coap/local\CoAPMessage.c ****     }
 666:C:/Users/stapi/OneDrive/Desktop/GD32VW553/V1_MQTT_OK/GD32VW55X_Wifi_BLE_SDK/GD32VW55x_RELEASE_V1.0.2/MSDK/cloud/alicloud/src/protocol/coap/local\CoAPMessage.c ****     HAL_MutexUnlock(ctx->sendlist.list_mutex);
 667:C:/Users/stapi/OneDrive/Desktop/GD32VW553/V1_MQTT_OK/GD32VW55X_Wifi_BLE_SDK/GD32VW55x_RELEASE_V1.0.2/MSDK/cloud/alicloud/src/protocol/coap/local\CoAPMessage.c **** 
 668:C:/Users/stapi/OneDrive/Desktop/GD32VW553/V1_MQTT_OK/GD32VW55X_Wifi_BLE_SDK/GD32VW55x_RELEASE_V1.0.2/MSDK/cloud/alicloud/src/protocol/coap/local\CoAPMessage.c ****     return COAP_SUCCESS;
 669:C:/Users/stapi/OneDrive/Desktop/GD32VW553/V1_MQTT_OK/GD32VW55X_Wifi_BLE_SDK/GD32VW55x_RELEASE_V1.0.2/MSDK/cloud/alicloud/src/protocol/coap/local\CoAPMessage.c **** }
 670:C:/Users/stapi/OneDrive/Desktop/GD32VW553/V1_MQTT_OK/GD32VW55X_Wifi_BLE_SDK/GD32VW55x_RELEASE_V1.0.2/MSDK/cloud/alicloud/src/protocol/coap/local\CoAPMessage.c **** 
 671:C:/Users/stapi/OneDrive/Desktop/GD32VW553/V1_MQTT_OK/GD32VW55X_Wifi_BLE_SDK/GD32VW55x_RELEASE_V1.0.2/MSDK/cloud/alicloud/src/protocol/coap/local\CoAPMessage.c **** static int CoAPAckMessage_send(CoAPContext *context, NetworkAddr *remote, unsigned short msgid)
 672:C:/Users/stapi/OneDrive/Desktop/GD32VW553/V1_MQTT_OK/GD32VW55X_Wifi_BLE_SDK/GD32VW55x_RELEASE_V1.0.2/MSDK/cloud/alicloud/src/protocol/coap/local\CoAPMessage.c **** {
 673:C:/Users/stapi/OneDrive/Desktop/GD32VW553/V1_MQTT_OK/GD32VW55X_Wifi_BLE_SDK/GD32VW55x_RELEASE_V1.0.2/MSDK/cloud/alicloud/src/protocol/coap/local\CoAPMessage.c ****     int ret   = COAP_SUCCESS;
 674:C:/Users/stapi/OneDrive/Desktop/GD32VW553/V1_MQTT_OK/GD32VW55X_Wifi_BLE_SDK/GD32VW55x_RELEASE_V1.0.2/MSDK/cloud/alicloud/src/protocol/coap/local\CoAPMessage.c ****     CoAPMessage message;
 675:C:/Users/stapi/OneDrive/Desktop/GD32VW553/V1_MQTT_OK/GD32VW55X_Wifi_BLE_SDK/GD32VW55x_RELEASE_V1.0.2/MSDK/cloud/alicloud/src/protocol/coap/local\CoAPMessage.c ****     CoAPIntContext *ctx = (CoAPIntContext *)context;
 676:C:/Users/stapi/OneDrive/Desktop/GD32VW553/V1_MQTT_OK/GD32VW55X_Wifi_BLE_SDK/GD32VW55x_RELEASE_V1.0.2/MSDK/cloud/alicloud/src/protocol/coap/local\CoAPMessage.c **** 
 677:C:/Users/stapi/OneDrive/Desktop/GD32VW553/V1_MQTT_OK/GD32VW55X_Wifi_BLE_SDK/GD32VW55x_RELEASE_V1.0.2/MSDK/cloud/alicloud/src/protocol/coap/local\CoAPMessage.c ****     CoAPMessage_init(&message);
 678:C:/Users/stapi/OneDrive/Desktop/GD32VW553/V1_MQTT_OK/GD32VW55X_Wifi_BLE_SDK/GD32VW55x_RELEASE_V1.0.2/MSDK/cloud/alicloud/src/protocol/coap/local\CoAPMessage.c ****     CoAPMessageId_set(&message, msgid);
 679:C:/Users/stapi/OneDrive/Desktop/GD32VW553/V1_MQTT_OK/GD32VW55X_Wifi_BLE_SDK/GD32VW55x_RELEASE_V1.0.2/MSDK/cloud/alicloud/src/protocol/coap/local\CoAPMessage.c ****     COAP_DEBUG("Send Ack Response Message");
 680:C:/Users/stapi/OneDrive/Desktop/GD32VW553/V1_MQTT_OK/GD32VW55X_Wifi_BLE_SDK/GD32VW55x_RELEASE_V1.0.2/MSDK/cloud/alicloud/src/protocol/coap/local\CoAPMessage.c ****     ret = CoAPMessage_send(ctx, remote, &message);
 681:C:/Users/stapi/OneDrive/Desktop/GD32VW553/V1_MQTT_OK/GD32VW55X_Wifi_BLE_SDK/GD32VW55x_RELEASE_V1.0.2/MSDK/cloud/alicloud/src/protocol/coap/local\CoAPMessage.c ****     CoAPMessage_destory(&message);
 682:C:/Users/stapi/OneDrive/Desktop/GD32VW553/V1_MQTT_OK/GD32VW55X_Wifi_BLE_SDK/GD32VW55x_RELEASE_V1.0.2/MSDK/cloud/alicloud/src/protocol/coap/local\CoAPMessage.c ****     return ret;
 683:C:/Users/stapi/OneDrive/Desktop/GD32VW553/V1_MQTT_OK/GD32VW55X_Wifi_BLE_SDK/GD32VW55x_RELEASE_V1.0.2/MSDK/cloud/alicloud/src/protocol/coap/local\CoAPMessage.c **** }
 684:C:/Users/stapi/OneDrive/Desktop/GD32VW553/V1_MQTT_OK/GD32VW55X_Wifi_BLE_SDK/GD32VW55x_RELEASE_V1.0.2/MSDK/cloud/alicloud/src/protocol/coap/local\CoAPMessage.c **** 
 685:C:/Users/stapi/OneDrive/Desktop/GD32VW553/V1_MQTT_OK/GD32VW55X_Wifi_BLE_SDK/GD32VW55x_RELEASE_V1.0.2/MSDK/cloud/alicloud/src/protocol/coap/local\CoAPMessage.c **** static int CoAPRestMessage_send(CoAPContext *context, NetworkAddr *remote, unsigned short msgid)
 686:C:/Users/stapi/OneDrive/Desktop/GD32VW553/V1_MQTT_OK/GD32VW55X_Wifi_BLE_SDK/GD32VW55x_RELEASE_V1.0.2/MSDK/cloud/alicloud/src/protocol/coap/local\CoAPMessage.c **** {
 687:C:/Users/stapi/OneDrive/Desktop/GD32VW553/V1_MQTT_OK/GD32VW55X_Wifi_BLE_SDK/GD32VW55x_RELEASE_V1.0.2/MSDK/cloud/alicloud/src/protocol/coap/local\CoAPMessage.c ****     int ret   = COAP_SUCCESS;
 688:C:/Users/stapi/OneDrive/Desktop/GD32VW553/V1_MQTT_OK/GD32VW55X_Wifi_BLE_SDK/GD32VW55x_RELEASE_V1.0.2/MSDK/cloud/alicloud/src/protocol/coap/local\CoAPMessage.c ****     CoAPMessage message;
 689:C:/Users/stapi/OneDrive/Desktop/GD32VW553/V1_MQTT_OK/GD32VW55X_Wifi_BLE_SDK/GD32VW55x_RELEASE_V1.0.2/MSDK/cloud/alicloud/src/protocol/coap/local\CoAPMessage.c ****     CoAPIntContext *ctx = (CoAPIntContext *)context;
 690:C:/Users/stapi/OneDrive/Desktop/GD32VW553/V1_MQTT_OK/GD32VW55X_Wifi_BLE_SDK/GD32VW55x_RELEASE_V1.0.2/MSDK/cloud/alicloud/src/protocol/coap/local\CoAPMessage.c **** 
 691:C:/Users/stapi/OneDrive/Desktop/GD32VW553/V1_MQTT_OK/GD32VW55X_Wifi_BLE_SDK/GD32VW55x_RELEASE_V1.0.2/MSDK/cloud/alicloud/src/protocol/coap/local\CoAPMessage.c ****     CoAPMessage_init(&message);
 692:C:/Users/stapi/OneDrive/Desktop/GD32VW553/V1_MQTT_OK/GD32VW55X_Wifi_BLE_SDK/GD32VW55x_RELEASE_V1.0.2/MSDK/cloud/alicloud/src/protocol/coap/local\CoAPMessage.c ****     CoAPMessageType_set(&message, COAP_MESSAGE_TYPE_RST);
 693:C:/Users/stapi/OneDrive/Desktop/GD32VW553/V1_MQTT_OK/GD32VW55X_Wifi_BLE_SDK/GD32VW55x_RELEASE_V1.0.2/MSDK/cloud/alicloud/src/protocol/coap/local\CoAPMessage.c ****     CoAPMessageId_set(&message, msgid);
 694:C:/Users/stapi/OneDrive/Desktop/GD32VW553/V1_MQTT_OK/GD32VW55X_Wifi_BLE_SDK/GD32VW55x_RELEASE_V1.0.2/MSDK/cloud/alicloud/src/protocol/coap/local\CoAPMessage.c ****     COAP_DEBUG("Send Rest Pong Message");
 695:C:/Users/stapi/OneDrive/Desktop/GD32VW553/V1_MQTT_OK/GD32VW55X_Wifi_BLE_SDK/GD32VW55x_RELEASE_V1.0.2/MSDK/cloud/alicloud/src/protocol/coap/local\CoAPMessage.c ****     ret = CoAPMessage_send(ctx, remote, &message);
 696:C:/Users/stapi/OneDrive/Desktop/GD32VW553/V1_MQTT_OK/GD32VW55X_Wifi_BLE_SDK/GD32VW55x_RELEASE_V1.0.2/MSDK/cloud/alicloud/src/protocol/coap/local\CoAPMessage.c ****     CoAPMessage_destory(&message);
 697:C:/Users/stapi/OneDrive/Desktop/GD32VW553/V1_MQTT_OK/GD32VW55X_Wifi_BLE_SDK/GD32VW55x_RELEASE_V1.0.2/MSDK/cloud/alicloud/src/protocol/coap/local\CoAPMessage.c ****     return ret;
 698:C:/Users/stapi/OneDrive/Desktop/GD32VW553/V1_MQTT_OK/GD32VW55X_Wifi_BLE_SDK/GD32VW55x_RELEASE_V1.0.2/MSDK/cloud/alicloud/src/protocol/coap/local\CoAPMessage.c **** }
 699:C:/Users/stapi/OneDrive/Desktop/GD32VW553/V1_MQTT_OK/GD32VW55X_Wifi_BLE_SDK/GD32VW55x_RELEASE_V1.0.2/MSDK/cloud/alicloud/src/protocol/coap/local\CoAPMessage.c **** 
 700:C:/Users/stapi/OneDrive/Desktop/GD32VW553/V1_MQTT_OK/GD32VW55X_Wifi_BLE_SDK/GD32VW55x_RELEASE_V1.0.2/MSDK/cloud/alicloud/src/protocol/coap/local\CoAPMessage.c **** static int CoAPErrRespMessage_send(CoAPContext *context, NetworkAddr *remote, CoAPMessage *message,
 2256              		.loc 1 700 12 is_stmt 1
 2257              		.cfi_startproc
 2258              	.LVL236:
 2259 0000 17030000 		call	t0,__riscv_save_4
 2259      E7020300 
 2260              		.cfi_offset 19, -20
 2261              		.cfi_offset 18, -16
 2262              		.cfi_offset 9, -12
 2263              		.cfi_offset 8, -8
 2264              		.cfi_offset 1, -4
 2265              		.cfi_def_cfa_offset 32
 701:C:/Users/stapi/OneDrive/Desktop/GD32VW553/V1_MQTT_OK/GD32VW55X_Wifi_BLE_SDK/GD32VW55x_RELEASE_V1.0.2/MSDK/cloud/alicloud/src/protocol/coap/local\CoAPMessage.c ****                                    unsigned char err_code)
 702:C:/Users/stapi/OneDrive/Desktop/GD32VW553/V1_MQTT_OK/GD32VW55X_Wifi_BLE_SDK/GD32VW55x_RELEASE_V1.0.2/MSDK/cloud/alicloud/src/protocol/coap/local\CoAPMessage.c **** {
 703:C:/Users/stapi/OneDrive/Desktop/GD32VW553/V1_MQTT_OK/GD32VW55X_Wifi_BLE_SDK/GD32VW55x_RELEASE_V1.0.2/MSDK/cloud/alicloud/src/protocol/coap/local\CoAPMessage.c ****     CoAPMessage response;
 2266              		.loc 1 703 5
 704:C:/Users/stapi/OneDrive/Desktop/GD32VW553/V1_MQTT_OK/GD32VW55X_Wifi_BLE_SDK/GD32VW55x_RELEASE_V1.0.2/MSDK/cloud/alicloud/src/protocol/coap/local\CoAPMessage.c ****     int ret   = COAP_SUCCESS;
 2267              		.loc 1 704 5
 2268              	.LVL237:
 705:C:/Users/stapi/OneDrive/Desktop/GD32VW553/V1_MQTT_OK/GD32VW55X_Wifi_BLE_SDK/GD32VW55x_RELEASE_V1.0.2/MSDK/cloud/alicloud/src/protocol/coap/local\CoAPMessage.c ****     CoAPIntContext *ctx = (CoAPIntContext *)context;
 2269              		.loc 1 705 5
 700:C:/Users/stapi/OneDrive/Desktop/GD32VW553/V1_MQTT_OK/GD32VW55X_Wifi_BLE_SDK/GD32VW55x_RELEASE_V1.0.2/MSDK/cloud/alicloud/src/protocol/coap/local\CoAPMessage.c ****                                    unsigned char err_code)
 2270              		.loc 1 700 12 is_stmt 0
 2271 0008 7571     		addi	sp,sp,-144
 2272              		.cfi_def_cfa_offset 176
 700:C:/Users/stapi/OneDrive/Desktop/GD32VW553/V1_MQTT_OK/GD32VW55X_Wifi_BLE_SDK/GD32VW55x_RELEASE_V1.0.2/MSDK/cloud/alicloud/src/protocol/coap/local\CoAPMessage.c ****                                    unsigned char err_code)
 2273              		.loc 1 700 12
 2274 000a AA84     		mv	s1,a0
 2275              	.LVL238:
 706:C:/Users/stapi/OneDrive/Desktop/GD32VW553/V1_MQTT_OK/GD32VW55X_Wifi_BLE_SDK/GD32VW55x_RELEASE_V1.0.2/MSDK/cloud/alicloud/src/protocol/coap/local\CoAPMessage.c **** 
 707:C:/Users/stapi/OneDrive/Desktop/GD32VW553/V1_MQTT_OK/GD32VW55X_Wifi_BLE_SDK/GD32VW55x_RELEASE_V1.0.2/MSDK/cloud/alicloud/src/protocol/coap/local\CoAPMessage.c ****     CoAPMessage_init(&response);
 2276              		.loc 1 707 5 is_stmt 1
 2277 000c 2800     		addi	a0,sp,8
 2278              	.LVL239:
 700:C:/Users/stapi/OneDrive/Desktop/GD32VW553/V1_MQTT_OK/GD32VW55X_Wifi_BLE_SDK/GD32VW55x_RELEASE_V1.0.2/MSDK/cloud/alicloud/src/protocol/coap/local\CoAPMessage.c ****                                    unsigned char err_code)
 2279              		.loc 1 700 12 is_stmt 0
 2280 000e 3284     		mv	s0,a2
 2281 0010 B689     		mv	s3,a3
 2282 0012 2E89     		mv	s2,a1
 2283              		.loc 1 707 5
 2284 0014 97000000 		call	CoAPMessage_init
 2284      E7800000 
 2285              	.LVL240:
 708:C:/Users/stapi/OneDrive/Desktop/GD32VW553/V1_MQTT_OK/GD32VW55X_Wifi_BLE_SDK/GD32VW55x_RELEASE_V1.0.2/MSDK/cloud/alicloud/src/protocol/coap/local\CoAPMessage.c ****     CoAPMessageCode_set(&response, err_code);
 2286              		.loc 1 708 5 is_stmt 1
 2287              	.LBB91:
 2288              	.LBB92:
 238:C:/Users/stapi/OneDrive/Desktop/GD32VW553/V1_MQTT_OK/GD32VW55X_Wifi_BLE_SDK/GD32VW55x_RELEASE_V1.0.2/MSDK/cloud/alicloud/src/protocol/coap/local\CoAPMessage.c ****         return COAP_ERROR_NULL;
 2289              		.loc 1 238 5
 241:C:/Users/stapi/OneDrive/Desktop/GD32VW553/V1_MQTT_OK/GD32VW55X_Wifi_BLE_SDK/GD32VW55x_RELEASE_V1.0.2/MSDK/cloud/alicloud/src/protocol/coap/local\CoAPMessage.c ****     return COAP_SUCCESS;
 2290              		.loc 1 241 5
 2291              	.LBE92:
 2292              	.LBE91:
 709:C:/Users/stapi/OneDrive/Desktop/GD32VW553/V1_MQTT_OK/GD32VW55X_Wifi_BLE_SDK/GD32VW55x_RELEASE_V1.0.2/MSDK/cloud/alicloud/src/protocol/coap/local\CoAPMessage.c ****     CoAPMessageId_set(&response, message->header.msgid);
 710:C:/Users/stapi/OneDrive/Desktop/GD32VW553/V1_MQTT_OK/GD32VW55X_Wifi_BLE_SDK/GD32VW55x_RELEASE_V1.0.2/MSDK/cloud/alicloud/src/protocol/coap/local\CoAPMessage.c ****     CoAPMessageToken_set(&response, message->token, message->header.tokenlen);
 2293              		.loc 1 710 68 is_stmt 0
 2294 001c 1040     		lw	a2,0(s0)
 2295              	.LBB94:
 2296              	.LBB95:
 219:C:/Users/stapi/OneDrive/Desktop/GD32VW553/V1_MQTT_OK/GD32VW55X_Wifi_BLE_SDK/GD32VW55x_RELEASE_V1.0.2/MSDK/cloud/alicloud/src/protocol/coap/local\CoAPMessage.c ****     return COAP_SUCCESS;
 2297              		.loc 1 219 27
 2298 001e 83572400 		lhu	a5,2(s0)
 2299              	.LBE95:
 2300              	.LBE94:
 2301              		.loc 1 710 5
 2302 0022 93054400 		addi	a1,s0,4
 2303              		.loc 1 710 68
 2304 0026 1182     		srli	a2,a2,4
 2305              		.loc 1 710 5
 2306 0028 3D8A     		andi	a2,a2,15
 2307 002a 2800     		addi	a0,sp,8
 2308              	.LVL241:
 2309              	.LBB98:
 2310              	.LBB96:
 219:C:/Users/stapi/OneDrive/Desktop/GD32VW553/V1_MQTT_OK/GD32VW55X_Wifi_BLE_SDK/GD32VW55x_RELEASE_V1.0.2/MSDK/cloud/alicloud/src/protocol/coap/local\CoAPMessage.c ****     return COAP_SUCCESS;
 2311              		.loc 1 219 27
 2312 002c 2315F100 		sh	a5,10(sp)
 2313              	.LBE96:
 2314              	.LBE98:
 2315              	.LBB99:
 2316              	.LBB93:
 241:C:/Users/stapi/OneDrive/Desktop/GD32VW553/V1_MQTT_OK/GD32VW55X_Wifi_BLE_SDK/GD32VW55x_RELEASE_V1.0.2/MSDK/cloud/alicloud/src/protocol/coap/local\CoAPMessage.c ****     return COAP_SUCCESS;
 2317              		.loc 1 241 27
 2318 0030 A3043101 		sb	s3,9(sp)
 242:C:/Users/stapi/OneDrive/Desktop/GD32VW553/V1_MQTT_OK/GD32VW55X_Wifi_BLE_SDK/GD32VW55x_RELEASE_V1.0.2/MSDK/cloud/alicloud/src/protocol/coap/local\CoAPMessage.c **** }
 2319              		.loc 1 242 5 is_stmt 1
 2320              	.LVL242:
 2321              	.LBE93:
 2322              	.LBE99:
 709:C:/Users/stapi/OneDrive/Desktop/GD32VW553/V1_MQTT_OK/GD32VW55X_Wifi_BLE_SDK/GD32VW55x_RELEASE_V1.0.2/MSDK/cloud/alicloud/src/protocol/coap/local\CoAPMessage.c ****     CoAPMessageId_set(&response, message->header.msgid);
 2323              		.loc 1 709 5
 2324              	.LBB100:
 2325              	.LBB97:
 216:C:/Users/stapi/OneDrive/Desktop/GD32VW553/V1_MQTT_OK/GD32VW55X_Wifi_BLE_SDK/GD32VW55x_RELEASE_V1.0.2/MSDK/cloud/alicloud/src/protocol/coap/local\CoAPMessage.c ****         return COAP_ERROR_NULL;
 2326              		.loc 1 216 5
 219:C:/Users/stapi/OneDrive/Desktop/GD32VW553/V1_MQTT_OK/GD32VW55X_Wifi_BLE_SDK/GD32VW55x_RELEASE_V1.0.2/MSDK/cloud/alicloud/src/protocol/coap/local\CoAPMessage.c ****     return COAP_SUCCESS;
 2327              		.loc 1 219 5
 220:C:/Users/stapi/OneDrive/Desktop/GD32VW553/V1_MQTT_OK/GD32VW55X_Wifi_BLE_SDK/GD32VW55x_RELEASE_V1.0.2/MSDK/cloud/alicloud/src/protocol/coap/local\CoAPMessage.c **** }
 2328              		.loc 1 220 5
 2329              	.LBE97:
 2330              	.LBE100:
 2331              		.loc 1 710 5
 2332 0034 97000000 		call	CoAPMessageToken_set
 2332      E7800000 
 2333              	.LVL243:
 711:C:/Users/stapi/OneDrive/Desktop/GD32VW553/V1_MQTT_OK/GD32VW55X_Wifi_BLE_SDK/GD32VW55x_RELEASE_V1.0.2/MSDK/cloud/alicloud/src/protocol/coap/local\CoAPMessage.c ****     if (COAP_MESSAGE_TYPE_CON == message->header.type) {
 2334              		.loc 1 711 5
 2335              		.loc 1 711 31 is_stmt 0
 2336 003c 83470400 		lbu	a5,0(s0)
 2337              		.loc 1 711 8
 2338 0040 B18B     		andi	a5,a5,12
 2339 0042 A1EF     		bne	a5,zero,.L180
 712:C:/Users/stapi/OneDrive/Desktop/GD32VW553/V1_MQTT_OK/GD32VW55X_Wifi_BLE_SDK/GD32VW55x_RELEASE_V1.0.2/MSDK/cloud/alicloud/src/protocol/coap/local\CoAPMessage.c ****         CoAPMessageType_set(&response, COAP_MESSAGE_TYPE_ACK);
 2340              		.loc 1 712 9 is_stmt 1
 2341              	.LVL244:
 2342              	.LBB101:
 2343              	.LBB102:
 225:C:/Users/stapi/OneDrive/Desktop/GD32VW553/V1_MQTT_OK/GD32VW55X_Wifi_BLE_SDK/GD32VW55x_RELEASE_V1.0.2/MSDK/cloud/alicloud/src/protocol/coap/local\CoAPMessage.c ****         return COAP_ERROR_NULL;
 2344              		.loc 1 225 5
 228:C:/Users/stapi/OneDrive/Desktop/GD32VW553/V1_MQTT_OK/GD32VW55X_Wifi_BLE_SDK/GD32VW55x_RELEASE_V1.0.2/MSDK/cloud/alicloud/src/protocol/coap/local\CoAPMessage.c ****         return COAP_ERROR_INVALID_PARAM;
 2345              		.loc 1 228 5
 232:C:/Users/stapi/OneDrive/Desktop/GD32VW553/V1_MQTT_OK/GD32VW55X_Wifi_BLE_SDK/GD32VW55x_RELEASE_V1.0.2/MSDK/cloud/alicloud/src/protocol/coap/local\CoAPMessage.c ****     return COAP_SUCCESS;
 2346              		.loc 1 232 5
 232:C:/Users/stapi/OneDrive/Desktop/GD32VW553/V1_MQTT_OK/GD32VW55X_Wifi_BLE_SDK/GD32VW55x_RELEASE_V1.0.2/MSDK/cloud/alicloud/src/protocol/coap/local\CoAPMessage.c ****     return COAP_SUCCESS;
 2347              		.loc 1 232 26 is_stmt 0
 2348 0044 83478100 		lbu	a5,8(sp)
 2349 0048 CD9B     		andi	a5,a5,-13
 2350 004a 93E78700 		ori	a5,a5,8
 2351 004e 2304F100 		sb	a5,8(sp)
 233:C:/Users/stapi/OneDrive/Desktop/GD32VW553/V1_MQTT_OK/GD32VW55X_Wifi_BLE_SDK/GD32VW55x_RELEASE_V1.0.2/MSDK/cloud/alicloud/src/protocol/coap/local\CoAPMessage.c **** }
 2352              		.loc 1 233 5 is_stmt 1
 2353              	.LVL245:
 2354              	.L181:
 2355              	.LBE102:
 2356              	.LBE101:
 713:C:/Users/stapi/OneDrive/Desktop/GD32VW553/V1_MQTT_OK/GD32VW55X_Wifi_BLE_SDK/GD32VW55x_RELEASE_V1.0.2/MSDK/cloud/alicloud/src/protocol/coap/local\CoAPMessage.c ****     } else {
 714:C:/Users/stapi/OneDrive/Desktop/GD32VW553/V1_MQTT_OK/GD32VW55X_Wifi_BLE_SDK/GD32VW55x_RELEASE_V1.0.2/MSDK/cloud/alicloud/src/protocol/coap/local\CoAPMessage.c ****         CoAPMessageType_set(&response, message->header.type);
 715:C:/Users/stapi/OneDrive/Desktop/GD32VW553/V1_MQTT_OK/GD32VW55X_Wifi_BLE_SDK/GD32VW55x_RELEASE_V1.0.2/MSDK/cloud/alicloud/src/protocol/coap/local\CoAPMessage.c ****     }
 716:C:/Users/stapi/OneDrive/Desktop/GD32VW553/V1_MQTT_OK/GD32VW55X_Wifi_BLE_SDK/GD32VW55x_RELEASE_V1.0.2/MSDK/cloud/alicloud/src/protocol/coap/local\CoAPMessage.c ****     COAP_FLOW("Send Error Response Message");
 2357              		.loc 1 716 5
 2358 0052 37070000 		lui	a4,%hi(.LC18)
 2359 0056 B7050000 		lui	a1,%hi(.LANCHOR4)
 2360 005a 37050000 		lui	a0,%hi(.LC1)
 2361 005e 13070700 		addi	a4,a4,%lo(.LC18)
 2362 0062 9546     		li	a3,5
 2363 0064 1306C02C 		li	a2,716
 2364 0068 93850500 		addi	a1,a1,%lo(.LANCHOR4)
 2365 006c 13050500 		addi	a0,a0,%lo(.LC1)
 2366 0070 97000000 		call	LITE_syslog
 2366      E7800000 
 2367              	.LVL246:
 717:C:/Users/stapi/OneDrive/Desktop/GD32VW553/V1_MQTT_OK/GD32VW55X_Wifi_BLE_SDK/GD32VW55x_RELEASE_V1.0.2/MSDK/cloud/alicloud/src/protocol/coap/local\CoAPMessage.c ****     ret = CoAPMessage_send(ctx, remote, &response);
 2368              		.loc 1 717 5
 2369              		.loc 1 717 11 is_stmt 0
 2370 0078 3000     		addi	a2,sp,8
 2371 007a CA85     		mv	a1,s2
 2372 007c 2685     		mv	a0,s1
 2373 007e 97000000 		call	CoAPMessage_send
 2373      E7800000 
 2374              	.LVL247:
 718:C:/Users/stapi/OneDrive/Desktop/GD32VW553/V1_MQTT_OK/GD32VW55X_Wifi_BLE_SDK/GD32VW55x_RELEASE_V1.0.2/MSDK/cloud/alicloud/src/protocol/coap/local\CoAPMessage.c ****     CoAPMessage_destory(&response);
 2375              		.loc 1 718 5 is_stmt 1
 2376 0086 2800     		addi	a0,sp,8
 2377 0088 97000000 		call	CoAPMessage_destory
 2377      E7800000 
 2378              	.LVL248:
 719:C:/Users/stapi/OneDrive/Desktop/GD32VW553/V1_MQTT_OK/GD32VW55X_Wifi_BLE_SDK/GD32VW55x_RELEASE_V1.0.2/MSDK/cloud/alicloud/src/protocol/coap/local\CoAPMessage.c ****     return ret;
 2379              		.loc 1 719 5
 720:C:/Users/stapi/OneDrive/Desktop/GD32VW553/V1_MQTT_OK/GD32VW55X_Wifi_BLE_SDK/GD32VW55x_RELEASE_V1.0.2/MSDK/cloud/alicloud/src/protocol/coap/local\CoAPMessage.c **** }
 2380              		.loc 1 720 1 is_stmt 0
 2381 0090 4961     		addi	sp,sp,144
 2382              		.cfi_remember_state
 2383              		.cfi_def_cfa_offset 0
 2384 0092 17030000 		tail	__riscv_restore_4
 2384      67000300 
 2385              		.cfi_restore 19
 2386              		.cfi_restore 18
 2387              		.cfi_restore 9
 2388              		.cfi_restore 8
 2389              		.cfi_restore 1
 2390              		.cfi_def_cfa_offset -32
 2391              	.LVL249:
 2392              	.L180:
 2393              		.cfi_restore_state
 714:C:/Users/stapi/OneDrive/Desktop/GD32VW553/V1_MQTT_OK/GD32VW55X_Wifi_BLE_SDK/GD32VW55x_RELEASE_V1.0.2/MSDK/cloud/alicloud/src/protocol/coap/local\CoAPMessage.c ****     }
 2394              		.loc 1 714 9 is_stmt 1
 714:C:/Users/stapi/OneDrive/Desktop/GD32VW553/V1_MQTT_OK/GD32VW55X_Wifi_BLE_SDK/GD32VW55x_RELEASE_V1.0.2/MSDK/cloud/alicloud/src/protocol/coap/local\CoAPMessage.c ****     }
 2395              		.loc 1 714 55 is_stmt 0
 2396 009a 0C40     		lw	a1,0(s0)
 714:C:/Users/stapi/OneDrive/Desktop/GD32VW553/V1_MQTT_OK/GD32VW55X_Wifi_BLE_SDK/GD32VW55x_RELEASE_V1.0.2/MSDK/cloud/alicloud/src/protocol/coap/local\CoAPMessage.c ****     }
 2397              		.loc 1 714 9
 2398 009c 2800     		addi	a0,sp,8
 714:C:/Users/stapi/OneDrive/Desktop/GD32VW553/V1_MQTT_OK/GD32VW55X_Wifi_BLE_SDK/GD32VW55x_RELEASE_V1.0.2/MSDK/cloud/alicloud/src/protocol/coap/local\CoAPMessage.c ****     }
 2399              		.loc 1 714 55
 2400 009e 8981     		srli	a1,a1,2
 714:C:/Users/stapi/OneDrive/Desktop/GD32VW553/V1_MQTT_OK/GD32VW55X_Wifi_BLE_SDK/GD32VW55x_RELEASE_V1.0.2/MSDK/cloud/alicloud/src/protocol/coap/local\CoAPMessage.c ****     }
 2401              		.loc 1 714 9
 2402 00a0 8D89     		andi	a1,a1,3
 2403 00a2 97000000 		call	CoAPMessageType_set
 2403      E7800000 
 2404              	.LVL250:
 2405 00aa 65B7     		j	.L181
 2406              		.cfi_endproc
 2407              	.LFE62:
 2409              		.section	.rodata.CoAPAckMessage_send.isra.0.str1.4,"aMS",@progbits,1
 2410              		.align	2
 2411              	.LC19:
 2412 0000 53656E64 		.string	"Send Ack Response Message"
 2412      2041636B 
 2412      20526573 
 2412      706F6E73 
 2412      65204D65 
 2413              		.section	.text.CoAPAckMessage_send.isra.0,"ax",@progbits
 2414              		.align	1
 2416              	CoAPAckMessage_send.isra.0:
 2417              	.LFB60:
 671:C:/Users/stapi/OneDrive/Desktop/GD32VW553/V1_MQTT_OK/GD32VW55X_Wifi_BLE_SDK/GD32VW55x_RELEASE_V1.0.2/MSDK/cloud/alicloud/src/protocol/coap/local\CoAPMessage.c **** {
 2418              		.loc 1 671 12 is_stmt 1
 2419              		.cfi_startproc
 2420              	.LVL251:
 2421 0000 17030000 		call	t0,__riscv_save_3
 2421      E7020300 
 2422              		.cfi_offset 18, -16
 2423              		.cfi_offset 9, -12
 2424              		.cfi_offset 8, -8
 2425              		.cfi_offset 1, -4
 2426              		.cfi_def_cfa_offset 16
 673:C:/Users/stapi/OneDrive/Desktop/GD32VW553/V1_MQTT_OK/GD32VW55X_Wifi_BLE_SDK/GD32VW55x_RELEASE_V1.0.2/MSDK/cloud/alicloud/src/protocol/coap/local\CoAPMessage.c ****     CoAPMessage message;
 2427              		.loc 1 673 5
 2428              	.LVL252:
 674:C:/Users/stapi/OneDrive/Desktop/GD32VW553/V1_MQTT_OK/GD32VW55X_Wifi_BLE_SDK/GD32VW55x_RELEASE_V1.0.2/MSDK/cloud/alicloud/src/protocol/coap/local\CoAPMessage.c ****     CoAPIntContext *ctx = (CoAPIntContext *)context;
 2429              		.loc 1 674 5
 675:C:/Users/stapi/OneDrive/Desktop/GD32VW553/V1_MQTT_OK/GD32VW55X_Wifi_BLE_SDK/GD32VW55x_RELEASE_V1.0.2/MSDK/cloud/alicloud/src/protocol/coap/local\CoAPMessage.c **** 
 2430              		.loc 1 675 5
 671:C:/Users/stapi/OneDrive/Desktop/GD32VW553/V1_MQTT_OK/GD32VW55X_Wifi_BLE_SDK/GD32VW55x_RELEASE_V1.0.2/MSDK/cloud/alicloud/src/protocol/coap/local\CoAPMessage.c **** {
 2431              		.loc 1 671 12 is_stmt 0
 2432 0008 7571     		addi	sp,sp,-144
 2433              		.cfi_def_cfa_offset 160
 671:C:/Users/stapi/OneDrive/Desktop/GD32VW553/V1_MQTT_OK/GD32VW55X_Wifi_BLE_SDK/GD32VW55x_RELEASE_V1.0.2/MSDK/cloud/alicloud/src/protocol/coap/local\CoAPMessage.c **** {
 2434              		.loc 1 671 12
 2435 000a 2A84     		mv	s0,a0
 2436              	.LVL253:
 677:C:/Users/stapi/OneDrive/Desktop/GD32VW553/V1_MQTT_OK/GD32VW55X_Wifi_BLE_SDK/GD32VW55x_RELEASE_V1.0.2/MSDK/cloud/alicloud/src/protocol/coap/local\CoAPMessage.c ****     CoAPMessageId_set(&message, msgid);
 2437              		.loc 1 677 5 is_stmt 1
 2438 000c 2800     		addi	a0,sp,8
 2439              	.LVL254:
 671:C:/Users/stapi/OneDrive/Desktop/GD32VW553/V1_MQTT_OK/GD32VW55X_Wifi_BLE_SDK/GD32VW55x_RELEASE_V1.0.2/MSDK/cloud/alicloud/src/protocol/coap/local\CoAPMessage.c **** {
 2440              		.loc 1 671 12 is_stmt 0
 2441 000e AE84     		mv	s1,a1
 2442 0010 3289     		mv	s2,a2
 677:C:/Users/stapi/OneDrive/Desktop/GD32VW553/V1_MQTT_OK/GD32VW55X_Wifi_BLE_SDK/GD32VW55x_RELEASE_V1.0.2/MSDK/cloud/alicloud/src/protocol/coap/local\CoAPMessage.c ****     CoAPMessageId_set(&message, msgid);
 2443              		.loc 1 677 5
 2444 0012 97000000 		call	CoAPMessage_init
 2444      E7800000 
 2445              	.LVL255:
 678:C:/Users/stapi/OneDrive/Desktop/GD32VW553/V1_MQTT_OK/GD32VW55X_Wifi_BLE_SDK/GD32VW55x_RELEASE_V1.0.2/MSDK/cloud/alicloud/src/protocol/coap/local\CoAPMessage.c ****     COAP_DEBUG("Send Ack Response Message");
 2446              		.loc 1 678 5 is_stmt 1
 2447              	.LBB103:
 2448              	.LBB104:
 216:C:/Users/stapi/OneDrive/Desktop/GD32VW553/V1_MQTT_OK/GD32VW55X_Wifi_BLE_SDK/GD32VW55x_RELEASE_V1.0.2/MSDK/cloud/alicloud/src/protocol/coap/local\CoAPMessage.c ****         return COAP_ERROR_NULL;
 2449              		.loc 1 216 5
 219:C:/Users/stapi/OneDrive/Desktop/GD32VW553/V1_MQTT_OK/GD32VW55X_Wifi_BLE_SDK/GD32VW55x_RELEASE_V1.0.2/MSDK/cloud/alicloud/src/protocol/coap/local\CoAPMessage.c ****     return COAP_SUCCESS;
 2450              		.loc 1 219 5
 2451              	.LBE104:
 2452              	.LBE103:
 679:C:/Users/stapi/OneDrive/Desktop/GD32VW553/V1_MQTT_OK/GD32VW55X_Wifi_BLE_SDK/GD32VW55x_RELEASE_V1.0.2/MSDK/cloud/alicloud/src/protocol/coap/local\CoAPMessage.c ****     ret = CoAPMessage_send(ctx, remote, &message);
 2453              		.loc 1 679 5 is_stmt 0
 2454 001a 37070000 		lui	a4,%hi(.LC19)
 2455 001e B7050000 		lui	a1,%hi(.LANCHOR5)
 2456 0022 37050000 		lui	a0,%hi(.LC1)
 2457 0026 13070700 		addi	a4,a4,%lo(.LC19)
 2458 002a 9546     		li	a3,5
 2459 002c 1306702A 		li	a2,679
 2460 0030 93850500 		addi	a1,a1,%lo(.LANCHOR5)
 2461 0034 13050500 		addi	a0,a0,%lo(.LC1)
 2462              	.LBB106:
 2463              	.LBB105:
 219:C:/Users/stapi/OneDrive/Desktop/GD32VW553/V1_MQTT_OK/GD32VW55X_Wifi_BLE_SDK/GD32VW55x_RELEASE_V1.0.2/MSDK/cloud/alicloud/src/protocol/coap/local\CoAPMessage.c ****     return COAP_SUCCESS;
 2464              		.loc 1 219 27
 2465 0038 23152101 		sh	s2,10(sp)
 220:C:/Users/stapi/OneDrive/Desktop/GD32VW553/V1_MQTT_OK/GD32VW55X_Wifi_BLE_SDK/GD32VW55x_RELEASE_V1.0.2/MSDK/cloud/alicloud/src/protocol/coap/local\CoAPMessage.c **** }
 2466              		.loc 1 220 5 is_stmt 1
 2467              	.LVL256:
 2468              	.LBE105:
 2469              	.LBE106:
 679:C:/Users/stapi/OneDrive/Desktop/GD32VW553/V1_MQTT_OK/GD32VW55X_Wifi_BLE_SDK/GD32VW55x_RELEASE_V1.0.2/MSDK/cloud/alicloud/src/protocol/coap/local\CoAPMessage.c ****     ret = CoAPMessage_send(ctx, remote, &message);
 2470              		.loc 1 679 5
 2471 003c 97000000 		call	LITE_syslog
 2471      E7800000 
 2472              	.LVL257:
 680:C:/Users/stapi/OneDrive/Desktop/GD32VW553/V1_MQTT_OK/GD32VW55X_Wifi_BLE_SDK/GD32VW55x_RELEASE_V1.0.2/MSDK/cloud/alicloud/src/protocol/coap/local\CoAPMessage.c ****     CoAPMessage_destory(&message);
 2473              		.loc 1 680 5
 680:C:/Users/stapi/OneDrive/Desktop/GD32VW553/V1_MQTT_OK/GD32VW55X_Wifi_BLE_SDK/GD32VW55x_RELEASE_V1.0.2/MSDK/cloud/alicloud/src/protocol/coap/local\CoAPMessage.c ****     CoAPMessage_destory(&message);
 2474              		.loc 1 680 11 is_stmt 0
 2475 0044 3000     		addi	a2,sp,8
 2476 0046 A685     		mv	a1,s1
 2477 0048 2285     		mv	a0,s0
 2478 004a 97000000 		call	CoAPMessage_send
 2478      E7800000 
 2479              	.LVL258:
 681:C:/Users/stapi/OneDrive/Desktop/GD32VW553/V1_MQTT_OK/GD32VW55X_Wifi_BLE_SDK/GD32VW55x_RELEASE_V1.0.2/MSDK/cloud/alicloud/src/protocol/coap/local\CoAPMessage.c ****     return ret;
 2480              		.loc 1 681 5 is_stmt 1
 2481 0052 2800     		addi	a0,sp,8
 2482 0054 97000000 		call	CoAPMessage_destory
 2482      E7800000 
 2483              	.LVL259:
 682:C:/Users/stapi/OneDrive/Desktop/GD32VW553/V1_MQTT_OK/GD32VW55X_Wifi_BLE_SDK/GD32VW55x_RELEASE_V1.0.2/MSDK/cloud/alicloud/src/protocol/coap/local\CoAPMessage.c **** }
 2484              		.loc 1 682 5
 683:C:/Users/stapi/OneDrive/Desktop/GD32VW553/V1_MQTT_OK/GD32VW55X_Wifi_BLE_SDK/GD32VW55x_RELEASE_V1.0.2/MSDK/cloud/alicloud/src/protocol/coap/local\CoAPMessage.c **** 
 2485              		.loc 1 683 1 is_stmt 0
 2486 005c 4961     		addi	sp,sp,144
 2487              		.cfi_def_cfa_offset 0
 2488 005e 17030000 		tail	__riscv_restore_3
 2488      67000300 
 2489              		.cfi_restore 18
 2490              		.cfi_restore 9
 2491              		.cfi_restore 8
 2492              		.cfi_restore 1
 2493              		.cfi_def_cfa_offset -16
 2494              		.cfi_endproc
 2495              	.LFE60:
 2497              		.section	.rodata.CoAPMessage_cancel.str1.4,"aMS",@progbits,1
 2498              		.align	2
 2499              	.LC20:
 2500 0000 43616E63 		.string	"Cancel message %d from list, cur count %d"
 2500      656C206D 
 2500      65737361 
 2500      67652025 
 2500      64206672 
 2501              		.section	.text.CoAPMessage_cancel,"ax",@progbits
 2502              		.align	1
 2503              		.globl	CoAPMessage_cancel
 2505              	CoAPMessage_cancel:
 2506              	.LFB43:
 561:C:/Users/stapi/OneDrive/Desktop/GD32VW553/V1_MQTT_OK/GD32VW55X_Wifi_BLE_SDK/GD32VW55x_RELEASE_V1.0.2/MSDK/cloud/alicloud/src/protocol/coap/local\CoAPMessage.c ****     CoAPSendNode *node = NULL, *next = NULL;
 2507              		.loc 1 561 1 is_stmt 1
 2508              		.cfi_startproc
 2509              	.LVL260:
 562:C:/Users/stapi/OneDrive/Desktop/GD32VW553/V1_MQTT_OK/GD32VW55X_Wifi_BLE_SDK/GD32VW55x_RELEASE_V1.0.2/MSDK/cloud/alicloud/src/protocol/coap/local\CoAPMessage.c ****     CoAPIntContext *ctx = (CoAPIntContext *)context;
 2510              		.loc 1 562 5
 563:C:/Users/stapi/OneDrive/Desktop/GD32VW553/V1_MQTT_OK/GD32VW55X_Wifi_BLE_SDK/GD32VW55x_RELEASE_V1.0.2/MSDK/cloud/alicloud/src/protocol/coap/local\CoAPMessage.c **** 
 2511              		.loc 1 563 5
 565:C:/Users/stapi/OneDrive/Desktop/GD32VW553/V1_MQTT_OK/GD32VW55X_Wifi_BLE_SDK/GD32VW55x_RELEASE_V1.0.2/MSDK/cloud/alicloud/src/protocol/coap/local\CoAPMessage.c ****         return COAP_ERROR_NULL;
 2512              		.loc 1 565 5
 565:C:/Users/stapi/OneDrive/Desktop/GD32VW553/V1_MQTT_OK/GD32VW55X_Wifi_BLE_SDK/GD32VW55x_RELEASE_V1.0.2/MSDK/cloud/alicloud/src/protocol/coap/local\CoAPMessage.c ****         return COAP_ERROR_NULL;
 2513              		.loc 1 565 8 is_stmt 0
 2514 0000 69C1     		beq	a0,zero,.L190
 561:C:/Users/stapi/OneDrive/Desktop/GD32VW553/V1_MQTT_OK/GD32VW55X_Wifi_BLE_SDK/GD32VW55x_RELEASE_V1.0.2/MSDK/cloud/alicloud/src/protocol/coap/local\CoAPMessage.c ****     CoAPSendNode *node = NULL, *next = NULL;
 2515              		.loc 1 561 1 discriminator 1
 2516 0002 17030000 		call	t0,__riscv_save_8
 2516      E7020300 
 2517              		.cfi_offset 23, -36
 2518              		.cfi_offset 22, -32
 2519              		.cfi_offset 21, -28
 2520              		.cfi_offset 20, -24
 2521              		.cfi_offset 19, -20
 2522              		.cfi_offset 18, -16
 2523              		.cfi_offset 9, -12
 2524              		.cfi_offset 8, -8
 2525              		.cfi_offset 1, -4
 2526              		.cfi_def_cfa_offset 48
 2527 000a 2A84     		mv	s0,a0
 2528 000c AE89     		mv	s3,a1
 566:C:/Users/stapi/OneDrive/Desktop/GD32VW553/V1_MQTT_OK/GD32VW55X_Wifi_BLE_SDK/GD32VW55x_RELEASE_V1.0.2/MSDK/cloud/alicloud/src/protocol/coap/local\CoAPMessage.c ****     }
 2529              		.loc 1 566 16 discriminator 1
 2530 000e 13052010 		li	a0,258
 2531              	.LVL261:
 565:C:/Users/stapi/OneDrive/Desktop/GD32VW553/V1_MQTT_OK/GD32VW55X_Wifi_BLE_SDK/GD32VW55x_RELEASE_V1.0.2/MSDK/cloud/alicloud/src/protocol/coap/local\CoAPMessage.c ****         return COAP_ERROR_NULL;
 2532              		.loc 1 565 25 discriminator 1
 2533 0012 9DCD     		beq	a1,zero,.L185
 570:C:/Users/stapi/OneDrive/Desktop/GD32VW553/V1_MQTT_OK/GD32VW55X_Wifi_BLE_SDK/GD32VW55x_RELEASE_V1.0.2/MSDK/cloud/alicloud/src/protocol/coap/local\CoAPMessage.c ****     list_for_each_entry_safe(node, next, &ctx->sendlist.list, sendlist, CoAPSendNode) {
 2534              		.loc 1 570 5 is_stmt 1
 2535 0014 4848     		lw	a0,20(s0)
 571:C:/Users/stapi/OneDrive/Desktop/GD32VW553/V1_MQTT_OK/GD32VW55X_Wifi_BLE_SDK/GD32VW55x_RELEASE_V1.0.2/MSDK/cloud/alicloud/src/protocol/coap/local\CoAPMessage.c ****         if (node->header.msgid == message->header.msgid) {
 2536              		.loc 1 571 5 is_stmt 0
 2537 0016 130A8401 		addi	s4,s0,24
 575:C:/Users/stapi/OneDrive/Desktop/GD32VW553/V1_MQTT_OK/GD32VW55X_Wifi_BLE_SDK/GD32VW55x_RELEASE_V1.0.2/MSDK/cloud/alicloud/src/protocol/coap/local\CoAPMessage.c ****                       node->header.msgid, ctx->sendlist.count);
 2538              		.loc 1 575 13
 2539 001a B70B0000 		lui	s7,%hi(.LC5)
 570:C:/Users/stapi/OneDrive/Desktop/GD32VW553/V1_MQTT_OK/GD32VW55X_Wifi_BLE_SDK/GD32VW55x_RELEASE_V1.0.2/MSDK/cloud/alicloud/src/protocol/coap/local\CoAPMessage.c ****     list_for_each_entry_safe(node, next, &ctx->sendlist.list, sendlist, CoAPSendNode) {
 2540              		.loc 1 570 5
 2541 001e 97000000 		call	HAL_MutexLock
 2541      E7800000 
 2542              	.LVL262:
 571:C:/Users/stapi/OneDrive/Desktop/GD32VW553/V1_MQTT_OK/GD32VW55X_Wifi_BLE_SDK/GD32VW55x_RELEASE_V1.0.2/MSDK/cloud/alicloud/src/protocol/coap/local\CoAPMessage.c ****         if (node->header.msgid == message->header.msgid) {
 2543              		.loc 1 571 5 is_stmt 1
 2544 0026 5C4C     		lw	a5,28(s0)
 575:C:/Users/stapi/OneDrive/Desktop/GD32VW553/V1_MQTT_OK/GD32VW55X_Wifi_BLE_SDK/GD32VW55x_RELEASE_V1.0.2/MSDK/cloud/alicloud/src/protocol/coap/local\CoAPMessage.c ****                       node->header.msgid, ctx->sendlist.count);
 2545              		.loc 1 575 13 is_stmt 0
 2546 0028 B70A0000 		lui	s5,%hi(.LC20)
 2547 002c 370B0000 		lui	s6,%hi(.LC7)
 571:C:/Users/stapi/OneDrive/Desktop/GD32VW553/V1_MQTT_OK/GD32VW55X_Wifi_BLE_SDK/GD32VW55x_RELEASE_V1.0.2/MSDK/cloud/alicloud/src/protocol/coap/local\CoAPMessage.c ****         if (node->header.msgid == message->header.msgid) {
 2548              		.loc 1 571 5
 2549 0030 03A94700 		lw	s2,4(a5)
 2550 0034 938487FC 		addi	s1,a5,-56
 2551              	.LVL263:
 2552 0038 130989FC 		addi	s2,s2,-56
 2553              	.LVL264:
 2554              	.L187:
 571:C:/Users/stapi/OneDrive/Desktop/GD32VW553/V1_MQTT_OK/GD32VW55X_Wifi_BLE_SDK/GD32VW55x_RELEASE_V1.0.2/MSDK/cloud/alicloud/src/protocol/coap/local\CoAPMessage.c ****         if (node->header.msgid == message->header.msgid) {
 2555              		.loc 1 571 5 is_stmt 1 discriminator 1
 2556 003c 93878403 		addi	a5,s1,56
 2557 0040 639C4701 		bne	a5,s4,.L189
 581:C:/Users/stapi/OneDrive/Desktop/GD32VW553/V1_MQTT_OK/GD32VW55X_Wifi_BLE_SDK/GD32VW55x_RELEASE_V1.0.2/MSDK/cloud/alicloud/src/protocol/coap/local\CoAPMessage.c ****     return COAP_SUCCESS;
 2558              		.loc 1 581 5
 2559 0044 4848     		lw	a0,20(s0)
 2560 0046 97000000 		call	HAL_MutexUnlock
 2560      E7800000 
 2561              	.LVL265:
 582:C:/Users/stapi/OneDrive/Desktop/GD32VW553/V1_MQTT_OK/GD32VW55X_Wifi_BLE_SDK/GD32VW55x_RELEASE_V1.0.2/MSDK/cloud/alicloud/src/protocol/coap/local\CoAPMessage.c **** }
 2562              		.loc 1 582 5
 582:C:/Users/stapi/OneDrive/Desktop/GD32VW553/V1_MQTT_OK/GD32VW55X_Wifi_BLE_SDK/GD32VW55x_RELEASE_V1.0.2/MSDK/cloud/alicloud/src/protocol/coap/local\CoAPMessage.c **** }
 2563              		.loc 1 582 12 is_stmt 0
 2564 004e 0145     		li	a0,0
 2565              	.LVL266:
 2566              	.L185:
 583:C:/Users/stapi/OneDrive/Desktop/GD32VW553/V1_MQTT_OK/GD32VW55X_Wifi_BLE_SDK/GD32VW55x_RELEASE_V1.0.2/MSDK/cloud/alicloud/src/protocol/coap/local\CoAPMessage.c **** 
 2567              		.loc 1 583 1
 2568 0050 17030000 		tail	__riscv_restore_8
 2568      67000300 
 2569              		.cfi_remember_state
 2570              		.cfi_restore 23
 2571              		.cfi_restore 22
 2572              		.cfi_restore 21
 2573              		.cfi_restore 20
 2574              		.cfi_restore 19
 2575              		.cfi_restore 18
 2576              		.cfi_restore 9
 2577              		.cfi_restore 8
 2578              		.cfi_restore 1
 2579              		.cfi_def_cfa_offset 0
 2580              	.LVL267:
 2581              	.L189:
 2582              		.cfi_restore_state
 572:C:/Users/stapi/OneDrive/Desktop/GD32VW553/V1_MQTT_OK/GD32VW55X_Wifi_BLE_SDK/GD32VW55x_RELEASE_V1.0.2/MSDK/cloud/alicloud/src/protocol/coap/local\CoAPMessage.c ****             list_del(&node->sendlist);
 2583              		.loc 1 572 9 is_stmt 1
 572:C:/Users/stapi/OneDrive/Desktop/GD32VW553/V1_MQTT_OK/GD32VW55X_Wifi_BLE_SDK/GD32VW55x_RELEASE_V1.0.2/MSDK/cloud/alicloud/src/protocol/coap/local\CoAPMessage.c ****             list_del(&node->sendlist);
 2584              		.loc 1 572 12 is_stmt 0
 2585 0058 03D72400 		lhu	a4,2(s1)
 2586 005c 83D72900 		lhu	a5,2(s3)
 2587 0060 631BF704 		bne	a4,a5,.L188
 573:C:/Users/stapi/OneDrive/Desktop/GD32VW553/V1_MQTT_OK/GD32VW55X_Wifi_BLE_SDK/GD32VW55x_RELEASE_V1.0.2/MSDK/cloud/alicloud/src/protocol/coap/local\CoAPMessage.c ****             ctx->sendlist.count--;
 2588              		.loc 1 573 13 is_stmt 1
 2589              	.LVL268:
 2590              	.LBB109:
 2591              	.LBB110:
  64:..\..\..\..\cloud\alicloud\src\infra\utils\misc/lite-list.h **** }
  65:..\..\..\..\cloud\alicloud\src\infra\utils\misc/lite-list.h **** 
  66:..\..\..\..\cloud\alicloud\src\infra\utils\misc/lite-list.h **** static inline void dlist_del(dlist_t *node)
  67:..\..\..\..\cloud\alicloud\src\infra\utils\misc/lite-list.h **** {
  68:..\..\..\..\cloud\alicloud\src\infra\utils\misc/lite-list.h ****     dlist_t *prev = node->prev;
 2592              		.loc 2 68 5
 2593              		.loc 2 68 14 is_stmt 0
 2594 0064 985C     		lw	a4,56(s1)
 2595              	.LVL269:
  69:..\..\..\..\cloud\alicloud\src\infra\utils\misc/lite-list.h ****     dlist_t *next = node->next;
 2596              		.loc 2 69 5 is_stmt 1
 2597              		.loc 2 69 14 is_stmt 0
 2598 0066 DC5C     		lw	a5,60(s1)
 2599              	.LVL270:
  70:..\..\..\..\cloud\alicloud\src\infra\utils\misc/lite-list.h **** 
  71:..\..\..\..\cloud\alicloud\src\infra\utils\misc/lite-list.h ****     prev->next = next;
 2600              		.loc 2 71 5 is_stmt 1
 2601              	.LBE110:
 2602              	.LBE109:
 575:C:/Users/stapi/OneDrive/Desktop/GD32VW553/V1_MQTT_OK/GD32VW55X_Wifi_BLE_SDK/GD32VW55x_RELEASE_V1.0.2/MSDK/cloud/alicloud/src/protocol/coap/local\CoAPMessage.c ****                       node->header.msgid, ctx->sendlist.count);
 2603              		.loc 1 575 13 is_stmt 0
 2604 0068 13850B00 		addi	a0,s7,%lo(.LC5)
 2605              	.LBB112:
 2606              	.LBB111:
 2607              		.loc 2 71 16
 2608 006c 5CC3     		sw	a5,4(a4)
  72:..\..\..\..\cloud\alicloud\src\infra\utils\misc/lite-list.h ****     next->prev = prev;
 2609              		.loc 2 72 5 is_stmt 1
 2610              		.loc 2 72 16 is_stmt 0
 2611 006e 98C3     		sw	a4,0(a5)
 2612              	.LVL271:
 2613              	.LBE111:
 2614              	.LBE112:
 574:C:/Users/stapi/OneDrive/Desktop/GD32VW553/V1_MQTT_OK/GD32VW55X_Wifi_BLE_SDK/GD32VW55x_RELEASE_V1.0.2/MSDK/cloud/alicloud/src/protocol/coap/local\CoAPMessage.c ****             COAP_INFO("Cancel message %d from list, cur count %d",
 2615              		.loc 1 574 13 is_stmt 1
 574:C:/Users/stapi/OneDrive/Desktop/GD32VW553/V1_MQTT_OK/GD32VW55X_Wifi_BLE_SDK/GD32VW55x_RELEASE_V1.0.2/MSDK/cloud/alicloud/src/protocol/coap/local\CoAPMessage.c ****             COAP_INFO("Cancel message %d from list, cur count %d",
 2616              		.loc 1 574 32 is_stmt 0
 2617 0070 83470402 		lbu	a5,32(s0)
 2618 0074 FD17     		addi	a5,a5,-1
 2619 0076 2300F402 		sb	a5,32(s0)
 575:C:/Users/stapi/OneDrive/Desktop/GD32VW553/V1_MQTT_OK/GD32VW55X_Wifi_BLE_SDK/GD32VW55x_RELEASE_V1.0.2/MSDK/cloud/alicloud/src/protocol/coap/local\CoAPMessage.c ****                       node->header.msgid, ctx->sendlist.count);
 2620              		.loc 1 575 13 is_stmt 1
 575:C:/Users/stapi/OneDrive/Desktop/GD32VW553/V1_MQTT_OK/GD32VW55X_Wifi_BLE_SDK/GD32VW55x_RELEASE_V1.0.2/MSDK/cloud/alicloud/src/protocol/coap/local\CoAPMessage.c ****                       node->header.msgid, ctx->sendlist.count);
 2621              		.loc 1 575 13
 2622 007a 97000000 		call	HAL_Printf
 2622      E7800000 
 2623              	.LVL272:
 575:C:/Users/stapi/OneDrive/Desktop/GD32VW553/V1_MQTT_OK/GD32VW55X_Wifi_BLE_SDK/GD32VW55x_RELEASE_V1.0.2/MSDK/cloud/alicloud/src/protocol/coap/local\CoAPMessage.c ****                       node->header.msgid, ctx->sendlist.count);
 2624              		.loc 1 575 13
 2625 0082 03460402 		lbu	a2,32(s0)
 2626 0086 83D52400 		lhu	a1,2(s1)
 2627 008a 13850A00 		addi	a0,s5,%lo(.LC20)
 2628 008e 97000000 		call	HAL_Printf
 2628      E7800000 
 2629              	.LVL273:
 575:C:/Users/stapi/OneDrive/Desktop/GD32VW553/V1_MQTT_OK/GD32VW55X_Wifi_BLE_SDK/GD32VW55x_RELEASE_V1.0.2/MSDK/cloud/alicloud/src/protocol/coap/local\CoAPMessage.c ****                       node->header.msgid, ctx->sendlist.count);
 2630              		.loc 1 575 13
 2631 0096 13050B00 		addi	a0,s6,%lo(.LC7)
 2632 009a 97000000 		call	HAL_Printf
 2632      E7800000 
 2633              	.LVL274:
 575:C:/Users/stapi/OneDrive/Desktop/GD32VW553/V1_MQTT_OK/GD32VW55X_Wifi_BLE_SDK/GD32VW55x_RELEASE_V1.0.2/MSDK/cloud/alicloud/src/protocol/coap/local\CoAPMessage.c ****                       node->header.msgid, ctx->sendlist.count);
 2634              		.loc 1 575 13
 577:C:/Users/stapi/OneDrive/Desktop/GD32VW553/V1_MQTT_OK/GD32VW55X_Wifi_BLE_SDK/GD32VW55x_RELEASE_V1.0.2/MSDK/cloud/alicloud/src/protocol/coap/local\CoAPMessage.c ****             coap_free(node);
 2635              		.loc 1 577 13
 2636 00a2 E840     		lw	a0,68(s1)
 2637 00a4 97000000 		call	LITE_free_internal
 2637      E7800000 
 2638              	.LVL275:
 578:C:/Users/stapi/OneDrive/Desktop/GD32VW553/V1_MQTT_OK/GD32VW55X_Wifi_BLE_SDK/GD32VW55x_RELEASE_V1.0.2/MSDK/cloud/alicloud/src/protocol/coap/local\CoAPMessage.c ****         }
 2639              		.loc 1 578 13
 2640 00ac 2685     		mv	a0,s1
 2641 00ae 97000000 		call	LITE_free_internal
 2641      E7800000 
 2642              	.LVL276:
 2643              	.L188:
 571:C:/Users/stapi/OneDrive/Desktop/GD32VW553/V1_MQTT_OK/GD32VW55X_Wifi_BLE_SDK/GD32VW55x_RELEASE_V1.0.2/MSDK/cloud/alicloud/src/protocol/coap/local\CoAPMessage.c ****         if (node->header.msgid == message->header.msgid) {
 2644              		.loc 1 571 5 discriminator 2
 2645 00b6 8327C903 		lw	a5,60(s2)
 2646              	.LVL277:
 2647 00ba CA84     		mv	s1,s2
 2648 00bc 138987FC 		addi	s2,a5,-56
 2649              	.LVL278:
 2650 00c0 B5BF     		j	.L187
 2651              	.LVL279:
 2652              	.L190:
 2653              		.cfi_def_cfa_offset 0
 2654              		.cfi_restore 1
 2655              		.cfi_restore 8
 2656              		.cfi_restore 9
 2657              		.cfi_restore 18
 2658              		.cfi_restore 19
 2659              		.cfi_restore 20
 2660              		.cfi_restore 21
 2661              		.cfi_restore 22
 2662              		.cfi_restore 23
 566:C:/Users/stapi/OneDrive/Desktop/GD32VW553/V1_MQTT_OK/GD32VW55X_Wifi_BLE_SDK/GD32VW55x_RELEASE_V1.0.2/MSDK/cloud/alicloud/src/protocol/coap/local\CoAPMessage.c ****     }
 2663              		.loc 1 566 16 is_stmt 0
 2664 00c2 13052010 		li	a0,258
 2665              	.LVL280:
 583:C:/Users/stapi/OneDrive/Desktop/GD32VW553/V1_MQTT_OK/GD32VW55X_Wifi_BLE_SDK/GD32VW55x_RELEASE_V1.0.2/MSDK/cloud/alicloud/src/protocol/coap/local\CoAPMessage.c **** 
 2666              		.loc 1 583 1
 2667 00c6 8280     		ret
 2668              		.cfi_endproc
 2669              	.LFE43:
 2671              		.section	.text.CoAPMessage_print_sendlist,"ax",@progbits
 2672              		.align	1
 2673              		.globl	CoAPMessage_print_sendlist
 2675              	CoAPMessage_print_sendlist:
 2676              	.LFB44:
 586:C:/Users/stapi/OneDrive/Desktop/GD32VW553/V1_MQTT_OK/GD32VW55X_Wifi_BLE_SDK/GD32VW55x_RELEASE_V1.0.2/MSDK/cloud/alicloud/src/protocol/coap/local\CoAPMessage.c **** #ifdef ALCS_COAP_SENDLIST_DEBUG
 2677              		.loc 1 586 1 is_stmt 1
 2678              		.cfi_startproc
 2679              	.LVL281:
 608:C:/Users/stapi/OneDrive/Desktop/GD32VW553/V1_MQTT_OK/GD32VW55X_Wifi_BLE_SDK/GD32VW55x_RELEASE_V1.0.2/MSDK/cloud/alicloud/src/protocol/coap/local\CoAPMessage.c **** }
 2680              		.loc 1 608 5
 609:C:/Users/stapi/OneDrive/Desktop/GD32VW553/V1_MQTT_OK/GD32VW55X_Wifi_BLE_SDK/GD32VW55x_RELEASE_V1.0.2/MSDK/cloud/alicloud/src/protocol/coap/local\CoAPMessage.c **** 
 2681              		.loc 1 609 1 is_stmt 0
 2682 0000 0145     		li	a0,0
 2683              	.LVL282:
 2684 0002 8280     		ret
 2685              		.cfi_endproc
 2686              	.LFE44:
 2688              		.section	.rodata.CoAPMessageId_cancel.str1.4,"aMS",@progbits,1
 2689              		.align	2
 2690              	.LC21:
 2691 0000 43616E63 		.string	"Cancel message id %d from list, cur count %d"
 2691      656C206D 
 2691      65737361 
 2691      67652069 
 2691      64202564 
 2692              		.section	.text.CoAPMessageId_cancel,"ax",@progbits
 2693              		.align	1
 2694              		.globl	CoAPMessageId_cancel
 2696              	CoAPMessageId_cancel:
 2697              	.LFB45:
 612:C:/Users/stapi/OneDrive/Desktop/GD32VW553/V1_MQTT_OK/GD32VW55X_Wifi_BLE_SDK/GD32VW55x_RELEASE_V1.0.2/MSDK/cloud/alicloud/src/protocol/coap/local\CoAPMessage.c ****     CoAPSendNode *node = NULL, *next = NULL;
 2698              		.loc 1 612 1 is_stmt 1
 2699              		.cfi_startproc
 2700              	.LVL283:
 613:C:/Users/stapi/OneDrive/Desktop/GD32VW553/V1_MQTT_OK/GD32VW55X_Wifi_BLE_SDK/GD32VW55x_RELEASE_V1.0.2/MSDK/cloud/alicloud/src/protocol/coap/local\CoAPMessage.c ****     CoAPIntContext *ctx = (CoAPIntContext *)context;
 2701              		.loc 1 613 5
 614:C:/Users/stapi/OneDrive/Desktop/GD32VW553/V1_MQTT_OK/GD32VW55X_Wifi_BLE_SDK/GD32VW55x_RELEASE_V1.0.2/MSDK/cloud/alicloud/src/protocol/coap/local\CoAPMessage.c **** 
 2702              		.loc 1 614 5
 616:C:/Users/stapi/OneDrive/Desktop/GD32VW553/V1_MQTT_OK/GD32VW55X_Wifi_BLE_SDK/GD32VW55x_RELEASE_V1.0.2/MSDK/cloud/alicloud/src/protocol/coap/local\CoAPMessage.c ****         return COAP_ERROR_NULL;
 2703              		.loc 1 616 5
 616:C:/Users/stapi/OneDrive/Desktop/GD32VW553/V1_MQTT_OK/GD32VW55X_Wifi_BLE_SDK/GD32VW55x_RELEASE_V1.0.2/MSDK/cloud/alicloud/src/protocol/coap/local\CoAPMessage.c ****         return COAP_ERROR_NULL;
 2704              		.loc 1 616 8 is_stmt 0
 2705 0000 55C9     		beq	a0,zero,.L202
 612:C:/Users/stapi/OneDrive/Desktop/GD32VW553/V1_MQTT_OK/GD32VW55X_Wifi_BLE_SDK/GD32VW55x_RELEASE_V1.0.2/MSDK/cloud/alicloud/src/protocol/coap/local\CoAPMessage.c ****     CoAPSendNode *node = NULL, *next = NULL;
 2706              		.loc 1 612 1 discriminator 1
 2707 0002 17030000 		call	t0,__riscv_save_8
 2707      E7020300 
 2708              		.cfi_offset 23, -36
 2709              		.cfi_offset 22, -32
 2710              		.cfi_offset 21, -28
 2711              		.cfi_offset 20, -24
 2712              		.cfi_offset 19, -20
 2713              		.cfi_offset 18, -16
 2714              		.cfi_offset 9, -12
 2715              		.cfi_offset 8, -8
 2716              		.cfi_offset 1, -4
 2717              		.cfi_def_cfa_offset 48
 2718 000a 2A84     		mv	s0,a0
 616:C:/Users/stapi/OneDrive/Desktop/GD32VW553/V1_MQTT_OK/GD32VW55X_Wifi_BLE_SDK/GD32VW55x_RELEASE_V1.0.2/MSDK/cloud/alicloud/src/protocol/coap/local\CoAPMessage.c ****         return COAP_ERROR_NULL;
 2719              		.loc 1 616 49 discriminator 1
 2720 000c 4849     		lw	a0,20(a0)
 2721              	.LVL284:
 617:C:/Users/stapi/OneDrive/Desktop/GD32VW553/V1_MQTT_OK/GD32VW55X_Wifi_BLE_SDK/GD32VW55x_RELEASE_V1.0.2/MSDK/cloud/alicloud/src/protocol/coap/local\CoAPMessage.c ****     }
 2722              		.loc 1 617 16 discriminator 1
 2723 000e 93072010 		li	a5,258
 616:C:/Users/stapi/OneDrive/Desktop/GD32VW553/V1_MQTT_OK/GD32VW55X_Wifi_BLE_SDK/GD32VW55x_RELEASE_V1.0.2/MSDK/cloud/alicloud/src/protocol/coap/local\CoAPMessage.c ****         return COAP_ERROR_NULL;
 2724              		.loc 1 616 25 discriminator 1
 2725 0012 1DCD     		beq	a0,zero,.L197
 2726 0014 AE89     		mv	s3,a1
 620:C:/Users/stapi/OneDrive/Desktop/GD32VW553/V1_MQTT_OK/GD32VW55X_Wifi_BLE_SDK/GD32VW55x_RELEASE_V1.0.2/MSDK/cloud/alicloud/src/protocol/coap/local\CoAPMessage.c ****     list_for_each_entry_safe(node, next, &ctx->sendlist.list, sendlist, CoAPSendNode) {
 2727              		.loc 1 620 5 is_stmt 1
 2728 0016 97000000 		call	HAL_MutexLock
 2728      E7800000 
 2729              	.LVL285:
 621:C:/Users/stapi/OneDrive/Desktop/GD32VW553/V1_MQTT_OK/GD32VW55X_Wifi_BLE_SDK/GD32VW55x_RELEASE_V1.0.2/MSDK/cloud/alicloud/src/protocol/coap/local\CoAPMessage.c ****         if (NULL != node) {
 2730              		.loc 1 621 5
 2731 001e 5C4C     		lw	a5,28(s0)
 2732 0020 130A8401 		addi	s4,s0,24
 626:C:/Users/stapi/OneDrive/Desktop/GD32VW553/V1_MQTT_OK/GD32VW55X_Wifi_BLE_SDK/GD32VW55x_RELEASE_V1.0.2/MSDK/cloud/alicloud/src/protocol/coap/local\CoAPMessage.c ****                           node->header.msgid, ctx->sendlist.count);
 2733              		.loc 1 626 17 is_stmt 0
 2734 0024 B70A0000 		lui	s5,%hi(.LANCHOR6)
 621:C:/Users/stapi/OneDrive/Desktop/GD32VW553/V1_MQTT_OK/GD32VW55X_Wifi_BLE_SDK/GD32VW55x_RELEASE_V1.0.2/MSDK/cloud/alicloud/src/protocol/coap/local\CoAPMessage.c ****         if (NULL != node) {
 2735              		.loc 1 621 5
 2736 0028 03A94700 		lw	s2,4(a5)
 2737 002c 938487FC 		addi	s1,a5,-56
 2738              	.LVL286:
 626:C:/Users/stapi/OneDrive/Desktop/GD32VW553/V1_MQTT_OK/GD32VW55X_Wifi_BLE_SDK/GD32VW55x_RELEASE_V1.0.2/MSDK/cloud/alicloud/src/protocol/coap/local\CoAPMessage.c ****                           node->header.msgid, ctx->sendlist.count);
 2739              		.loc 1 626 17
 2740 0030 370B0000 		lui	s6,%hi(.LC21)
 621:C:/Users/stapi/OneDrive/Desktop/GD32VW553/V1_MQTT_OK/GD32VW55X_Wifi_BLE_SDK/GD32VW55x_RELEASE_V1.0.2/MSDK/cloud/alicloud/src/protocol/coap/local\CoAPMessage.c ****         if (NULL != node) {
 2741              		.loc 1 621 5
 2742 0034 130989FC 		addi	s2,s2,-56
 2743              	.LVL287:
 626:C:/Users/stapi/OneDrive/Desktop/GD32VW553/V1_MQTT_OK/GD32VW55X_Wifi_BLE_SDK/GD32VW55x_RELEASE_V1.0.2/MSDK/cloud/alicloud/src/protocol/coap/local\CoAPMessage.c ****                           node->header.msgid, ctx->sendlist.count);
 2744              		.loc 1 626 17
 2745 0038 B70B0000 		lui	s7,%hi(.LC1)
 2746              	.L199:
 621:C:/Users/stapi/OneDrive/Desktop/GD32VW553/V1_MQTT_OK/GD32VW55X_Wifi_BLE_SDK/GD32VW55x_RELEASE_V1.0.2/MSDK/cloud/alicloud/src/protocol/coap/local\CoAPMessage.c ****         if (NULL != node) {
 2747              		.loc 1 621 5 is_stmt 1 discriminator 1
 2748 003c 93878403 		addi	a5,s1,56
 2749 0040 639D4701 		bne	a5,s4,.L201
 634:C:/Users/stapi/OneDrive/Desktop/GD32VW553/V1_MQTT_OK/GD32VW55X_Wifi_BLE_SDK/GD32VW55x_RELEASE_V1.0.2/MSDK/cloud/alicloud/src/protocol/coap/local\CoAPMessage.c **** 
 2750              		.loc 1 634 5
 2751 0044 4848     		lw	a0,20(s0)
 2752 0046 97000000 		call	HAL_MutexUnlock
 2752      E7800000 
 2753              	.LVL288:
 636:C:/Users/stapi/OneDrive/Desktop/GD32VW553/V1_MQTT_OK/GD32VW55X_Wifi_BLE_SDK/GD32VW55x_RELEASE_V1.0.2/MSDK/cloud/alicloud/src/protocol/coap/local\CoAPMessage.c **** }
 2754              		.loc 1 636 5
 636:C:/Users/stapi/OneDrive/Desktop/GD32VW553/V1_MQTT_OK/GD32VW55X_Wifi_BLE_SDK/GD32VW55x_RELEASE_V1.0.2/MSDK/cloud/alicloud/src/protocol/coap/local\CoAPMessage.c **** }
 2755              		.loc 1 636 12 is_stmt 0
 2756 004e 8147     		li	a5,0
 2757              	.LVL289:
 2758              	.L197:
 637:C:/Users/stapi/OneDrive/Desktop/GD32VW553/V1_MQTT_OK/GD32VW55X_Wifi_BLE_SDK/GD32VW55x_RELEASE_V1.0.2/MSDK/cloud/alicloud/src/protocol/coap/local\CoAPMessage.c **** 
 2759              		.loc 1 637 1
 2760 0050 3E85     		mv	a0,a5
 2761 0052 17030000 		tail	__riscv_restore_8
 2761      67000300 
 2762              		.cfi_remember_state
 2763              		.cfi_restore 23
 2764              		.cfi_restore 22
 2765              		.cfi_restore 21
 2766              		.cfi_restore 20
 2767              		.cfi_restore 19
 2768              		.cfi_restore 18
 2769              		.cfi_restore 9
 2770              		.cfi_restore 8
 2771              		.cfi_restore 1
 2772              		.cfi_def_cfa_offset 0
 2773              	.LVL290:
 2774              	.L201:
 2775              		.cfi_restore_state
 622:C:/Users/stapi/OneDrive/Desktop/GD32VW553/V1_MQTT_OK/GD32VW55X_Wifi_BLE_SDK/GD32VW55x_RELEASE_V1.0.2/MSDK/cloud/alicloud/src/protocol/coap/local\CoAPMessage.c ****             if (node->header.msgid == msgid) {
 2776              		.loc 1 622 9 is_stmt 1
 623:C:/Users/stapi/OneDrive/Desktop/GD32VW553/V1_MQTT_OK/GD32VW55X_Wifi_BLE_SDK/GD32VW55x_RELEASE_V1.0.2/MSDK/cloud/alicloud/src/protocol/coap/local\CoAPMessage.c ****                 list_del(&node->sendlist);
 2777              		.loc 1 623 13
 623:C:/Users/stapi/OneDrive/Desktop/GD32VW553/V1_MQTT_OK/GD32VW55X_Wifi_BLE_SDK/GD32VW55x_RELEASE_V1.0.2/MSDK/cloud/alicloud/src/protocol/coap/local\CoAPMessage.c ****                 list_del(&node->sendlist);
 2778              		.loc 1 623 29 is_stmt 0
 2779 005a 83D72400 		lhu	a5,2(s1)
 623:C:/Users/stapi/OneDrive/Desktop/GD32VW553/V1_MQTT_OK/GD32VW55X_Wifi_BLE_SDK/GD32VW55x_RELEASE_V1.0.2/MSDK/cloud/alicloud/src/protocol/coap/local\CoAPMessage.c ****                 list_del(&node->sendlist);
 2780              		.loc 1 623 16
 2781 005e 63953705 		bne	a5,s3,.L200
 624:C:/Users/stapi/OneDrive/Desktop/GD32VW553/V1_MQTT_OK/GD32VW55X_Wifi_BLE_SDK/GD32VW55x_RELEASE_V1.0.2/MSDK/cloud/alicloud/src/protocol/coap/local\CoAPMessage.c ****                 ctx->sendlist.count--;
 2782              		.loc 1 624 17 is_stmt 1
 2783              	.LVL291:
 2784              	.LBB117:
 2785              	.LBB118:
  68:..\..\..\..\cloud\alicloud\src\infra\utils\misc/lite-list.h ****     dlist_t *next = node->next;
 2786              		.loc 2 68 5
  68:..\..\..\..\cloud\alicloud\src\infra\utils\misc/lite-list.h ****     dlist_t *next = node->next;
 2787              		.loc 2 68 14 is_stmt 0
 2788 0062 985C     		lw	a4,56(s1)
 2789              	.LVL292:
  69:..\..\..\..\cloud\alicloud\src\infra\utils\misc/lite-list.h **** 
 2790              		.loc 2 69 5 is_stmt 1
  69:..\..\..\..\cloud\alicloud\src\infra\utils\misc/lite-list.h **** 
 2791              		.loc 2 69 14 is_stmt 0
 2792 0064 DC5C     		lw	a5,60(s1)
 2793              	.LVL293:
  71:..\..\..\..\cloud\alicloud\src\infra\utils\misc/lite-list.h ****     next->prev = prev;
 2794              		.loc 2 71 5 is_stmt 1
 2795              	.LBE118:
 2796              	.LBE117:
 626:C:/Users/stapi/OneDrive/Desktop/GD32VW553/V1_MQTT_OK/GD32VW55X_Wifi_BLE_SDK/GD32VW55x_RELEASE_V1.0.2/MSDK/cloud/alicloud/src/protocol/coap/local\CoAPMessage.c ****                           node->header.msgid, ctx->sendlist.count);
 2797              		.loc 1 626 17 is_stmt 0
 2798 0066 9546     		li	a3,5
 2799 0068 13062027 		li	a2,626
 2800              	.LBB120:
 2801              	.LBB119:
  71:..\..\..\..\cloud\alicloud\src\infra\utils\misc/lite-list.h ****     next->prev = prev;
 2802              		.loc 2 71 16
 2803 006c 5CC3     		sw	a5,4(a4)
 2804              		.loc 2 72 5 is_stmt 1
 2805              		.loc 2 72 16 is_stmt 0
 2806 006e 98C3     		sw	a4,0(a5)
 2807              	.LVL294:
 2808              	.LBE119:
 2809              	.LBE120:
 625:C:/Users/stapi/OneDrive/Desktop/GD32VW553/V1_MQTT_OK/GD32VW55X_Wifi_BLE_SDK/GD32VW55x_RELEASE_V1.0.2/MSDK/cloud/alicloud/src/protocol/coap/local\CoAPMessage.c ****                 COAP_FLOW("Cancel message id %d from list, cur count %d",
 2810              		.loc 1 625 17 is_stmt 1
 625:C:/Users/stapi/OneDrive/Desktop/GD32VW553/V1_MQTT_OK/GD32VW55X_Wifi_BLE_SDK/GD32VW55x_RELEASE_V1.0.2/MSDK/cloud/alicloud/src/protocol/coap/local\CoAPMessage.c ****                 COAP_FLOW("Cancel message id %d from list, cur count %d",
 2811              		.loc 1 625 36 is_stmt 0
 2812 0070 03480402 		lbu	a6,32(s0)
 626:C:/Users/stapi/OneDrive/Desktop/GD32VW553/V1_MQTT_OK/GD32VW55X_Wifi_BLE_SDK/GD32VW55x_RELEASE_V1.0.2/MSDK/cloud/alicloud/src/protocol/coap/local\CoAPMessage.c ****                           node->header.msgid, ctx->sendlist.count);
 2813              		.loc 1 626 17
 2814 0074 CE87     		mv	a5,s3
 2815 0076 13070B00 		addi	a4,s6,%lo(.LC21)
 625:C:/Users/stapi/OneDrive/Desktop/GD32VW553/V1_MQTT_OK/GD32VW55X_Wifi_BLE_SDK/GD32VW55x_RELEASE_V1.0.2/MSDK/cloud/alicloud/src/protocol/coap/local\CoAPMessage.c ****                 COAP_FLOW("Cancel message id %d from list, cur count %d",
 2816              		.loc 1 625 36
 2817 007a 7D18     		addi	a6,a6,-1
 2818 007c 1378F80F 		andi	a6,a6,0xff
 2819 0080 23000403 		sb	a6,32(s0)
 626:C:/Users/stapi/OneDrive/Desktop/GD32VW553/V1_MQTT_OK/GD32VW55X_Wifi_BLE_SDK/GD32VW55x_RELEASE_V1.0.2/MSDK/cloud/alicloud/src/protocol/coap/local\CoAPMessage.c ****                           node->header.msgid, ctx->sendlist.count);
 2820              		.loc 1 626 17 is_stmt 1
 2821 0084 93850A00 		addi	a1,s5,%lo(.LANCHOR6)
 2822 0088 13850B00 		addi	a0,s7,%lo(.LC1)
 2823 008c 97000000 		call	LITE_syslog
 2823      E7800000 
 2824              	.LVL295:
 628:C:/Users/stapi/OneDrive/Desktop/GD32VW553/V1_MQTT_OK/GD32VW55X_Wifi_BLE_SDK/GD32VW55x_RELEASE_V1.0.2/MSDK/cloud/alicloud/src/protocol/coap/local\CoAPMessage.c ****                 coap_free(node);
 2825              		.loc 1 628 17
 2826 0094 E840     		lw	a0,68(s1)
 2827 0096 97000000 		call	LITE_free_internal
 2827      E7800000 
 2828              	.LVL296:
 629:C:/Users/stapi/OneDrive/Desktop/GD32VW553/V1_MQTT_OK/GD32VW55X_Wifi_BLE_SDK/GD32VW55x_RELEASE_V1.0.2/MSDK/cloud/alicloud/src/protocol/coap/local\CoAPMessage.c ****                 CoAPMessage_print_sendlist(context);
 2829              		.loc 1 629 17
 2830 009e 2685     		mv	a0,s1
 2831 00a0 97000000 		call	LITE_free_internal
 2831      E7800000 
 2832              	.LVL297:
 630:C:/Users/stapi/OneDrive/Desktop/GD32VW553/V1_MQTT_OK/GD32VW55X_Wifi_BLE_SDK/GD32VW55x_RELEASE_V1.0.2/MSDK/cloud/alicloud/src/protocol/coap/local\CoAPMessage.c ****             }
 2833              		.loc 1 630 17
 2834              	.LBB121:
 2835              	.LBB122:
 608:C:/Users/stapi/OneDrive/Desktop/GD32VW553/V1_MQTT_OK/GD32VW55X_Wifi_BLE_SDK/GD32VW55x_RELEASE_V1.0.2/MSDK/cloud/alicloud/src/protocol/coap/local\CoAPMessage.c **** }
 2836              		.loc 1 608 5
 2837              	.L200:
 2838              	.LBE122:
 2839              	.LBE121:
 621:C:/Users/stapi/OneDrive/Desktop/GD32VW553/V1_MQTT_OK/GD32VW55X_Wifi_BLE_SDK/GD32VW55x_RELEASE_V1.0.2/MSDK/cloud/alicloud/src/protocol/coap/local\CoAPMessage.c ****         if (NULL != node) {
 2840              		.loc 1 621 5 discriminator 2
 2841 00a8 8327C903 		lw	a5,60(s2)
 2842              	.LVL298:
 2843 00ac CA84     		mv	s1,s2
 2844 00ae 138987FC 		addi	s2,a5,-56
 2845              	.LVL299:
 2846 00b2 69B7     		j	.L199
 2847              	.LVL300:
 2848              	.L202:
 2849              		.cfi_def_cfa_offset 0
 2850              		.cfi_restore 1
 2851              		.cfi_restore 8
 2852              		.cfi_restore 9
 2853              		.cfi_restore 18
 2854              		.cfi_restore 19
 2855              		.cfi_restore 20
 2856              		.cfi_restore 21
 2857              		.cfi_restore 22
 2858              		.cfi_restore 23
 617:C:/Users/stapi/OneDrive/Desktop/GD32VW553/V1_MQTT_OK/GD32VW55X_Wifi_BLE_SDK/GD32VW55x_RELEASE_V1.0.2/MSDK/cloud/alicloud/src/protocol/coap/local\CoAPMessage.c ****     }
 2859              		.loc 1 617 16 is_stmt 0
 2860 00b4 93072010 		li	a5,258
 637:C:/Users/stapi/OneDrive/Desktop/GD32VW553/V1_MQTT_OK/GD32VW55X_Wifi_BLE_SDK/GD32VW55x_RELEASE_V1.0.2/MSDK/cloud/alicloud/src/protocol/coap/local\CoAPMessage.c **** 
 2861              		.loc 1 637 1
 2862 00b8 3E85     		mv	a0,a5
 2863              	.LVL301:
 2864 00ba 8280     		ret
 2865              		.cfi_endproc
 2866              	.LFE45:
 2868              		.section	.rodata.CoAPMessage_process.str1.4,"aMS",@progbits,1
 2869              		.align	2
 2870              	.LC22:
 2871 0000 436F4150 		.string	"CoAPMessage_handle: %p"
 2871      4D657373 
 2871      6167655F 
 2871      68616E64 
 2871      6C653A20 
 2872 0017 00       		.align	2
 2873              	.LC23:
 2874 0018 54686520 		.string	"The CON response message %d receive ACK, remove it, cur:%d"
 2874      434F4E20 
 2874      72657370 
 2874      6F6E7365 
 2874      206D6573 
 2875 0053 00       		.align	2
 2876              	.LC24:
 2877 0054 43616C6C 		.string	"Call the response message callback"
 2877      20746865 
 2877      20726573 
 2877      706F6E73 
 2877      65206D65 
 2878 0077 00       		.align	2
 2879              	.LC25:
 2880 0078 52656D6F 		.string	"Remove the message id %d from list"
 2880      76652074 
 2880      6865206D 
 2880      65737361 
 2880      67652069 
 2881 009b 00       		.align	2
 2882              	.LC26:
 2883 009c 46696E64 		.string	"Find the message id %d, It need keep"
 2883      20746865 
 2883      206D6573 
 2883      73616765 
 2883      20696420 
 2884 00c1 000000   		.align	2
 2885              	.LC27:
 2886 00c4 53656E64 		.string	"Send Rest Pong Message"
 2886      20526573 
 2886      7420506F 
 2886      6E67204D 
 2886      65737361 
 2887 00db 00       		.align	2
 2888              	.LC28:
 2889 00dc 436F4150 		.string	"CoAPRequestMessage_handle: %p"
 2889      52657175 
 2889      6573744D 
 2889      65737361 
 2889      67655F68 
 2890 00fa 0000     		.align	2
 2891              	.LC29:
 2892 00fc 52657175 		.string	"Request path is %s"
 2892      65737420 
 2892      70617468 
 2892      20697320 
 2892      257300
 2893 010f 00       		.align	2
 2894              	.LC30:
 2895 0110 54686520 		.string	"The resource %s isn't allowed"
 2895      7265736F 
 2895      75726365 
 2895      20257320 
 2895      69736E27 
 2896 012e 0000     		.align	2
 2897              	.LC31:
 2898 0130 54686520 		.string	"The resource %s handler isn't exist"
 2898      7265736F 
 2898      75726365 
 2898      20257320 
 2898      68616E64 
 2899              		.align	2
 2900              	.LC32:
 2901 0154 54686520 		.string	"The resource %s isn't found"
 2901      7265736F 
 2901      75726365 
 2901      20257320 
 2901      69736E27 
 2902              		.align	2
 2903              	.LC33:
 2904 0170 57656972 		.string	"Weird packet,drop it"
 2904      64207061 
 2904      636B6574 
 2904      2C64726F 
 2904      70206974 
 2905              		.section	.text.CoAPMessage_process,"ax",@progbits
 2906              		.align	1
 2907              		.globl	CoAPMessage_process
 2909              	CoAPMessage_process:
 2910              	.LFB53:
 721:C:/Users/stapi/OneDrive/Desktop/GD32VW553/V1_MQTT_OK/GD32VW55X_Wifi_BLE_SDK/GD32VW55x_RELEASE_V1.0.2/MSDK/cloud/alicloud/src/protocol/coap/local\CoAPMessage.c **** 
 722:C:/Users/stapi/OneDrive/Desktop/GD32VW553/V1_MQTT_OK/GD32VW55X_Wifi_BLE_SDK/GD32VW55x_RELEASE_V1.0.2/MSDK/cloud/alicloud/src/protocol/coap/local\CoAPMessage.c **** static int CoAPRespMessage_handle(CoAPContext *context, NetworkAddr *remote, CoAPMessage *message)
 723:C:/Users/stapi/OneDrive/Desktop/GD32VW553/V1_MQTT_OK/GD32VW55X_Wifi_BLE_SDK/GD32VW55x_RELEASE_V1.0.2/MSDK/cloud/alicloud/src/protocol/coap/local\CoAPMessage.c **** {
 724:C:/Users/stapi/OneDrive/Desktop/GD32VW553/V1_MQTT_OK/GD32VW55X_Wifi_BLE_SDK/GD32VW55x_RELEASE_V1.0.2/MSDK/cloud/alicloud/src/protocol/coap/local\CoAPMessage.c ****     char                found = 0;
 725:C:/Users/stapi/OneDrive/Desktop/GD32VW553/V1_MQTT_OK/GD32VW55X_Wifi_BLE_SDK/GD32VW55x_RELEASE_V1.0.2/MSDK/cloud/alicloud/src/protocol/coap/local\CoAPMessage.c ****     CoAPSendNode       *node = NULL, *next = NULL;
 726:C:/Users/stapi/OneDrive/Desktop/GD32VW553/V1_MQTT_OK/GD32VW55X_Wifi_BLE_SDK/GD32VW55x_RELEASE_V1.0.2/MSDK/cloud/alicloud/src/protocol/coap/local\CoAPMessage.c ****     CoAPIntContext     *ctx = (CoAPIntContext *)context;
 727:C:/Users/stapi/OneDrive/Desktop/GD32VW553/V1_MQTT_OK/GD32VW55X_Wifi_BLE_SDK/GD32VW55x_RELEASE_V1.0.2/MSDK/cloud/alicloud/src/protocol/coap/local\CoAPMessage.c ****     CoAPSendNode       targetNode;
 728:C:/Users/stapi/OneDrive/Desktop/GD32VW553/V1_MQTT_OK/GD32VW55X_Wifi_BLE_SDK/GD32VW55x_RELEASE_V1.0.2/MSDK/cloud/alicloud/src/protocol/coap/local\CoAPMessage.c **** 
 729:C:/Users/stapi/OneDrive/Desktop/GD32VW553/V1_MQTT_OK/GD32VW55X_Wifi_BLE_SDK/GD32VW55x_RELEASE_V1.0.2/MSDK/cloud/alicloud/src/protocol/coap/local\CoAPMessage.c ****     if (COAP_MESSAGE_TYPE_CON == message->header.type) {
 730:C:/Users/stapi/OneDrive/Desktop/GD32VW553/V1_MQTT_OK/GD32VW55X_Wifi_BLE_SDK/GD32VW55x_RELEASE_V1.0.2/MSDK/cloud/alicloud/src/protocol/coap/local\CoAPMessage.c ****         CoAPAckMessage_send(ctx, remote, message->header.msgid);
 731:C:/Users/stapi/OneDrive/Desktop/GD32VW553/V1_MQTT_OK/GD32VW55X_Wifi_BLE_SDK/GD32VW55x_RELEASE_V1.0.2/MSDK/cloud/alicloud/src/protocol/coap/local\CoAPMessage.c ****     }
 732:C:/Users/stapi/OneDrive/Desktop/GD32VW553/V1_MQTT_OK/GD32VW55X_Wifi_BLE_SDK/GD32VW55x_RELEASE_V1.0.2/MSDK/cloud/alicloud/src/protocol/coap/local\CoAPMessage.c **** 
 733:C:/Users/stapi/OneDrive/Desktop/GD32VW553/V1_MQTT_OK/GD32VW55X_Wifi_BLE_SDK/GD32VW55x_RELEASE_V1.0.2/MSDK/cloud/alicloud/src/protocol/coap/local\CoAPMessage.c ****     HAL_MutexLock(ctx->sendlist.list_mutex);
 734:C:/Users/stapi/OneDrive/Desktop/GD32VW553/V1_MQTT_OK/GD32VW55X_Wifi_BLE_SDK/GD32VW55x_RELEASE_V1.0.2/MSDK/cloud/alicloud/src/protocol/coap/local\CoAPMessage.c ****     list_for_each_entry_safe(node, next, &ctx->sendlist.list, sendlist, CoAPSendNode) {
 735:C:/Users/stapi/OneDrive/Desktop/GD32VW553/V1_MQTT_OK/GD32VW55X_Wifi_BLE_SDK/GD32VW55x_RELEASE_V1.0.2/MSDK/cloud/alicloud/src/protocol/coap/local\CoAPMessage.c ****         if (0 != node->header.tokenlen && node->header.tokenlen == message->header.tokenlen
 736:C:/Users/stapi/OneDrive/Desktop/GD32VW553/V1_MQTT_OK/GD32VW55X_Wifi_BLE_SDK/GD32VW55x_RELEASE_V1.0.2/MSDK/cloud/alicloud/src/protocol/coap/local\CoAPMessage.c ****                 && 0 == memcmp(node->token, message->token, message->header.tokenlen)){
 737:C:/Users/stapi/OneDrive/Desktop/GD32VW553/V1_MQTT_OK/GD32VW55X_Wifi_BLE_SDK/GD32VW55x_RELEASE_V1.0.2/MSDK/cloud/alicloud/src/protocol/coap/local\CoAPMessage.c **** 
 738:C:/Users/stapi/OneDrive/Desktop/GD32VW553/V1_MQTT_OK/GD32VW55X_Wifi_BLE_SDK/GD32VW55x_RELEASE_V1.0.2/MSDK/cloud/alicloud/src/protocol/coap/local\CoAPMessage.c ****             found = 1;
 739:C:/Users/stapi/OneDrive/Desktop/GD32VW553/V1_MQTT_OK/GD32VW55X_Wifi_BLE_SDK/GD32VW55x_RELEASE_V1.0.2/MSDK/cloud/alicloud/src/protocol/coap/local\CoAPMessage.c ****             memcpy(&targetNode, node, sizeof(CoAPSendNode));
 740:C:/Users/stapi/OneDrive/Desktop/GD32VW553/V1_MQTT_OK/GD32VW55X_Wifi_BLE_SDK/GD32VW55x_RELEASE_V1.0.2/MSDK/cloud/alicloud/src/protocol/coap/local\CoAPMessage.c ****             CoAPMessage_print_sendlist(context);
 741:C:/Users/stapi/OneDrive/Desktop/GD32VW553/V1_MQTT_OK/GD32VW55X_Wifi_BLE_SDK/GD32VW55x_RELEASE_V1.0.2/MSDK/cloud/alicloud/src/protocol/coap/local\CoAPMessage.c ****             break;
 742:C:/Users/stapi/OneDrive/Desktop/GD32VW553/V1_MQTT_OK/GD32VW55X_Wifi_BLE_SDK/GD32VW55x_RELEASE_V1.0.2/MSDK/cloud/alicloud/src/protocol/coap/local\CoAPMessage.c ****         }
 743:C:/Users/stapi/OneDrive/Desktop/GD32VW553/V1_MQTT_OK/GD32VW55X_Wifi_BLE_SDK/GD32VW55x_RELEASE_V1.0.2/MSDK/cloud/alicloud/src/protocol/coap/local\CoAPMessage.c ****     }
 744:C:/Users/stapi/OneDrive/Desktop/GD32VW553/V1_MQTT_OK/GD32VW55X_Wifi_BLE_SDK/GD32VW55x_RELEASE_V1.0.2/MSDK/cloud/alicloud/src/protocol/coap/local\CoAPMessage.c ****     HAL_MutexUnlock(ctx->sendlist.list_mutex);
 745:C:/Users/stapi/OneDrive/Desktop/GD32VW553/V1_MQTT_OK/GD32VW55X_Wifi_BLE_SDK/GD32VW55x_RELEASE_V1.0.2/MSDK/cloud/alicloud/src/protocol/coap/local\CoAPMessage.c **** 
 746:C:/Users/stapi/OneDrive/Desktop/GD32VW553/V1_MQTT_OK/GD32VW55X_Wifi_BLE_SDK/GD32VW55x_RELEASE_V1.0.2/MSDK/cloud/alicloud/src/protocol/coap/local\CoAPMessage.c **** #ifndef COAP_OBSERVE_CLIENT_DISABLE
 747:C:/Users/stapi/OneDrive/Desktop/GD32VW553/V1_MQTT_OK/GD32VW55X_Wifi_BLE_SDK/GD32VW55x_RELEASE_V1.0.2/MSDK/cloud/alicloud/src/protocol/coap/local\CoAPMessage.c ****     CoAPObsClient_add(ctx, message, remote, found? &targetNode : NULL);
 748:C:/Users/stapi/OneDrive/Desktop/GD32VW553/V1_MQTT_OK/GD32VW55X_Wifi_BLE_SDK/GD32VW55x_RELEASE_V1.0.2/MSDK/cloud/alicloud/src/protocol/coap/local\CoAPMessage.c **** #endif
 749:C:/Users/stapi/OneDrive/Desktop/GD32VW553/V1_MQTT_OK/GD32VW55X_Wifi_BLE_SDK/GD32VW55x_RELEASE_V1.0.2/MSDK/cloud/alicloud/src/protocol/coap/local\CoAPMessage.c **** 
 750:C:/Users/stapi/OneDrive/Desktop/GD32VW553/V1_MQTT_OK/GD32VW55X_Wifi_BLE_SDK/GD32VW55x_RELEASE_V1.0.2/MSDK/cloud/alicloud/src/protocol/coap/local\CoAPMessage.c ****     if(found){
 751:C:/Users/stapi/OneDrive/Desktop/GD32VW553/V1_MQTT_OK/GD32VW55X_Wifi_BLE_SDK/GD32VW55x_RELEASE_V1.0.2/MSDK/cloud/alicloud/src/protocol/coap/local\CoAPMessage.c ****         message->user  = targetNode.user;
 752:C:/Users/stapi/OneDrive/Desktop/GD32VW553/V1_MQTT_OK/GD32VW55X_Wifi_BLE_SDK/GD32VW55x_RELEASE_V1.0.2/MSDK/cloud/alicloud/src/protocol/coap/local\CoAPMessage.c **** 
 753:C:/Users/stapi/OneDrive/Desktop/GD32VW553/V1_MQTT_OK/GD32VW55X_Wifi_BLE_SDK/GD32VW55x_RELEASE_V1.0.2/MSDK/cloud/alicloud/src/protocol/coap/local\CoAPMessage.c ****         if (COAP_MSG_CODE_400_BAD_REQUEST <= message->header.code) {
 754:C:/Users/stapi/OneDrive/Desktop/GD32VW553/V1_MQTT_OK/GD32VW55X_Wifi_BLE_SDK/GD32VW55x_RELEASE_V1.0.2/MSDK/cloud/alicloud/src/protocol/coap/local\CoAPMessage.c ****             if (NULL != ctx->notifier) {
 755:C:/Users/stapi/OneDrive/Desktop/GD32VW553/V1_MQTT_OK/GD32VW55X_Wifi_BLE_SDK/GD32VW55x_RELEASE_V1.0.2/MSDK/cloud/alicloud/src/protocol/coap/local\CoAPMessage.c ****                 ctx->notifier(message->header.code, remote, message);
 756:C:/Users/stapi/OneDrive/Desktop/GD32VW553/V1_MQTT_OK/GD32VW55X_Wifi_BLE_SDK/GD32VW55x_RELEASE_V1.0.2/MSDK/cloud/alicloud/src/protocol/coap/local\CoAPMessage.c ****             }
 757:C:/Users/stapi/OneDrive/Desktop/GD32VW553/V1_MQTT_OK/GD32VW55X_Wifi_BLE_SDK/GD32VW55x_RELEASE_V1.0.2/MSDK/cloud/alicloud/src/protocol/coap/local\CoAPMessage.c ****         }
 758:C:/Users/stapi/OneDrive/Desktop/GD32VW553/V1_MQTT_OK/GD32VW55X_Wifi_BLE_SDK/GD32VW55x_RELEASE_V1.0.2/MSDK/cloud/alicloud/src/protocol/coap/local\CoAPMessage.c **** 
 759:C:/Users/stapi/OneDrive/Desktop/GD32VW553/V1_MQTT_OK/GD32VW55X_Wifi_BLE_SDK/GD32VW55x_RELEASE_V1.0.2/MSDK/cloud/alicloud/src/protocol/coap/local\CoAPMessage.c ****         if (NULL != targetNode.handler) {
 760:C:/Users/stapi/OneDrive/Desktop/GD32VW553/V1_MQTT_OK/GD32VW55X_Wifi_BLE_SDK/GD32VW55x_RELEASE_V1.0.2/MSDK/cloud/alicloud/src/protocol/coap/local\CoAPMessage.c ****             targetNode.handler(ctx, COAP_REQUEST_SUCCESS, targetNode.user, remote, message);
 761:C:/Users/stapi/OneDrive/Desktop/GD32VW553/V1_MQTT_OK/GD32VW55X_Wifi_BLE_SDK/GD32VW55x_RELEASE_V1.0.2/MSDK/cloud/alicloud/src/protocol/coap/local\CoAPMessage.c ****             COAP_FLOW("Call the response message callback");
 762:C:/Users/stapi/OneDrive/Desktop/GD32VW553/V1_MQTT_OK/GD32VW55X_Wifi_BLE_SDK/GD32VW55x_RELEASE_V1.0.2/MSDK/cloud/alicloud/src/protocol/coap/local\CoAPMessage.c ****         }
 763:C:/Users/stapi/OneDrive/Desktop/GD32VW553/V1_MQTT_OK/GD32VW55X_Wifi_BLE_SDK/GD32VW55x_RELEASE_V1.0.2/MSDK/cloud/alicloud/src/protocol/coap/local\CoAPMessage.c ****     }
 764:C:/Users/stapi/OneDrive/Desktop/GD32VW553/V1_MQTT_OK/GD32VW55X_Wifi_BLE_SDK/GD32VW55x_RELEASE_V1.0.2/MSDK/cloud/alicloud/src/protocol/coap/local\CoAPMessage.c **** 
 765:C:/Users/stapi/OneDrive/Desktop/GD32VW553/V1_MQTT_OK/GD32VW55X_Wifi_BLE_SDK/GD32VW55x_RELEASE_V1.0.2/MSDK/cloud/alicloud/src/protocol/coap/local\CoAPMessage.c ****     HAL_MutexLock(ctx->sendlist.list_mutex);
 766:C:/Users/stapi/OneDrive/Desktop/GD32VW553/V1_MQTT_OK/GD32VW55X_Wifi_BLE_SDK/GD32VW55x_RELEASE_V1.0.2/MSDK/cloud/alicloud/src/protocol/coap/local\CoAPMessage.c ****     list_for_each_entry_safe(node, next, &ctx->sendlist.list, sendlist, CoAPSendNode) {
 767:C:/Users/stapi/OneDrive/Desktop/GD32VW553/V1_MQTT_OK/GD32VW55X_Wifi_BLE_SDK/GD32VW55x_RELEASE_V1.0.2/MSDK/cloud/alicloud/src/protocol/coap/local\CoAPMessage.c ****         if (0 != node->header.tokenlen && node->header.tokenlen == message->header.tokenlen
 768:C:/Users/stapi/OneDrive/Desktop/GD32VW553/V1_MQTT_OK/GD32VW55X_Wifi_BLE_SDK/GD32VW55x_RELEASE_V1.0.2/MSDK/cloud/alicloud/src/protocol/coap/local\CoAPMessage.c ****             && 0 == memcmp(node->token, message->token, message->header.tokenlen)){
 769:C:/Users/stapi/OneDrive/Desktop/GD32VW553/V1_MQTT_OK/GD32VW55X_Wifi_BLE_SDK/GD32VW55x_RELEASE_V1.0.2/MSDK/cloud/alicloud/src/protocol/coap/local\CoAPMessage.c ****             if(node->keep == NOKEEP){
 770:C:/Users/stapi/OneDrive/Desktop/GD32VW553/V1_MQTT_OK/GD32VW55X_Wifi_BLE_SDK/GD32VW55x_RELEASE_V1.0.2/MSDK/cloud/alicloud/src/protocol/coap/local\CoAPMessage.c ****                 list_del_init(&node->sendlist);
 771:C:/Users/stapi/OneDrive/Desktop/GD32VW553/V1_MQTT_OK/GD32VW55X_Wifi_BLE_SDK/GD32VW55x_RELEASE_V1.0.2/MSDK/cloud/alicloud/src/protocol/coap/local\CoAPMessage.c ****                 ctx->sendlist.count--;
 772:C:/Users/stapi/OneDrive/Desktop/GD32VW553/V1_MQTT_OK/GD32VW55X_Wifi_BLE_SDK/GD32VW55x_RELEASE_V1.0.2/MSDK/cloud/alicloud/src/protocol/coap/local\CoAPMessage.c ****                 if (NULL != node->message) {
 773:C:/Users/stapi/OneDrive/Desktop/GD32VW553/V1_MQTT_OK/GD32VW55X_Wifi_BLE_SDK/GD32VW55x_RELEASE_V1.0.2/MSDK/cloud/alicloud/src/protocol/coap/local\CoAPMessage.c ****                     coap_free(node->message);
 774:C:/Users/stapi/OneDrive/Desktop/GD32VW553/V1_MQTT_OK/GD32VW55X_Wifi_BLE_SDK/GD32VW55x_RELEASE_V1.0.2/MSDK/cloud/alicloud/src/protocol/coap/local\CoAPMessage.c ****                 }
 775:C:/Users/stapi/OneDrive/Desktop/GD32VW553/V1_MQTT_OK/GD32VW55X_Wifi_BLE_SDK/GD32VW55x_RELEASE_V1.0.2/MSDK/cloud/alicloud/src/protocol/coap/local\CoAPMessage.c ****                 coap_free(node);
 776:C:/Users/stapi/OneDrive/Desktop/GD32VW553/V1_MQTT_OK/GD32VW55X_Wifi_BLE_SDK/GD32VW55x_RELEASE_V1.0.2/MSDK/cloud/alicloud/src/protocol/coap/local\CoAPMessage.c ****                 COAP_FLOW("Remove the message id %d from list", node->header.msgid);
 777:C:/Users/stapi/OneDrive/Desktop/GD32VW553/V1_MQTT_OK/GD32VW55X_Wifi_BLE_SDK/GD32VW55x_RELEASE_V1.0.2/MSDK/cloud/alicloud/src/protocol/coap/local\CoAPMessage.c ****             }
 778:C:/Users/stapi/OneDrive/Desktop/GD32VW553/V1_MQTT_OK/GD32VW55X_Wifi_BLE_SDK/GD32VW55x_RELEASE_V1.0.2/MSDK/cloud/alicloud/src/protocol/coap/local\CoAPMessage.c ****             else{
 779:C:/Users/stapi/OneDrive/Desktop/GD32VW553/V1_MQTT_OK/GD32VW55X_Wifi_BLE_SDK/GD32VW55x_RELEASE_V1.0.2/MSDK/cloud/alicloud/src/protocol/coap/local\CoAPMessage.c ****                 COAP_FLOW("Find the message id %d, It need keep", node->header.msgid);
 780:C:/Users/stapi/OneDrive/Desktop/GD32VW553/V1_MQTT_OK/GD32VW55X_Wifi_BLE_SDK/GD32VW55x_RELEASE_V1.0.2/MSDK/cloud/alicloud/src/protocol/coap/local\CoAPMessage.c ****             }
 781:C:/Users/stapi/OneDrive/Desktop/GD32VW553/V1_MQTT_OK/GD32VW55X_Wifi_BLE_SDK/GD32VW55x_RELEASE_V1.0.2/MSDK/cloud/alicloud/src/protocol/coap/local\CoAPMessage.c ****             break;
 782:C:/Users/stapi/OneDrive/Desktop/GD32VW553/V1_MQTT_OK/GD32VW55X_Wifi_BLE_SDK/GD32VW55x_RELEASE_V1.0.2/MSDK/cloud/alicloud/src/protocol/coap/local\CoAPMessage.c ****         }
 783:C:/Users/stapi/OneDrive/Desktop/GD32VW553/V1_MQTT_OK/GD32VW55X_Wifi_BLE_SDK/GD32VW55x_RELEASE_V1.0.2/MSDK/cloud/alicloud/src/protocol/coap/local\CoAPMessage.c ****     }
 784:C:/Users/stapi/OneDrive/Desktop/GD32VW553/V1_MQTT_OK/GD32VW55X_Wifi_BLE_SDK/GD32VW55x_RELEASE_V1.0.2/MSDK/cloud/alicloud/src/protocol/coap/local\CoAPMessage.c ****     HAL_MutexUnlock(ctx->sendlist.list_mutex);
 785:C:/Users/stapi/OneDrive/Desktop/GD32VW553/V1_MQTT_OK/GD32VW55X_Wifi_BLE_SDK/GD32VW55x_RELEASE_V1.0.2/MSDK/cloud/alicloud/src/protocol/coap/local\CoAPMessage.c **** 
 786:C:/Users/stapi/OneDrive/Desktop/GD32VW553/V1_MQTT_OK/GD32VW55X_Wifi_BLE_SDK/GD32VW55x_RELEASE_V1.0.2/MSDK/cloud/alicloud/src/protocol/coap/local\CoAPMessage.c ****     return COAP_ERROR_NOT_FOUND;
 787:C:/Users/stapi/OneDrive/Desktop/GD32VW553/V1_MQTT_OK/GD32VW55X_Wifi_BLE_SDK/GD32VW55x_RELEASE_V1.0.2/MSDK/cloud/alicloud/src/protocol/coap/local\CoAPMessage.c **** }
 788:C:/Users/stapi/OneDrive/Desktop/GD32VW553/V1_MQTT_OK/GD32VW55X_Wifi_BLE_SDK/GD32VW55x_RELEASE_V1.0.2/MSDK/cloud/alicloud/src/protocol/coap/local\CoAPMessage.c **** 
 789:C:/Users/stapi/OneDrive/Desktop/GD32VW553/V1_MQTT_OK/GD32VW55X_Wifi_BLE_SDK/GD32VW55x_RELEASE_V1.0.2/MSDK/cloud/alicloud/src/protocol/coap/local\CoAPMessage.c **** #define PACKET_INTERVAL_THRE_MS     1
 790:C:/Users/stapi/OneDrive/Desktop/GD32VW553/V1_MQTT_OK/GD32VW55X_Wifi_BLE_SDK/GD32VW55x_RELEASE_V1.0.2/MSDK/cloud/alicloud/src/protocol/coap/local\CoAPMessage.c **** #define PACKET_TRIGGER_NUM          100
 791:C:/Users/stapi/OneDrive/Desktop/GD32VW553/V1_MQTT_OK/GD32VW55X_Wifi_BLE_SDK/GD32VW55x_RELEASE_V1.0.2/MSDK/cloud/alicloud/src/protocol/coap/local\CoAPMessage.c **** 
 792:C:/Users/stapi/OneDrive/Desktop/GD32VW553/V1_MQTT_OK/GD32VW55X_Wifi_BLE_SDK/GD32VW55x_RELEASE_V1.0.2/MSDK/cloud/alicloud/src/protocol/coap/local\CoAPMessage.c **** static int CoAPRequestMessage_handle(CoAPContext *context, NetworkAddr *remote, CoAPMessage *messag
 793:C:/Users/stapi/OneDrive/Desktop/GD32VW553/V1_MQTT_OK/GD32VW55X_Wifi_BLE_SDK/GD32VW55x_RELEASE_V1.0.2/MSDK/cloud/alicloud/src/protocol/coap/local\CoAPMessage.c **** {
 794:C:/Users/stapi/OneDrive/Desktop/GD32VW553/V1_MQTT_OK/GD32VW55X_Wifi_BLE_SDK/GD32VW55x_RELEASE_V1.0.2/MSDK/cloud/alicloud/src/protocol/coap/local\CoAPMessage.c ****     int             index = 0;
 795:C:/Users/stapi/OneDrive/Desktop/GD32VW553/V1_MQTT_OK/GD32VW55X_Wifi_BLE_SDK/GD32VW55x_RELEASE_V1.0.2/MSDK/cloud/alicloud/src/protocol/coap/local\CoAPMessage.c ****     int             ret   = COAP_SUCCESS;
 796:C:/Users/stapi/OneDrive/Desktop/GD32VW553/V1_MQTT_OK/GD32VW55X_Wifi_BLE_SDK/GD32VW55x_RELEASE_V1.0.2/MSDK/cloud/alicloud/src/protocol/coap/local\CoAPMessage.c ****     CoAPResource   *resource = NULL;
 797:C:/Users/stapi/OneDrive/Desktop/GD32VW553/V1_MQTT_OK/GD32VW55X_Wifi_BLE_SDK/GD32VW55x_RELEASE_V1.0.2/MSDK/cloud/alicloud/src/protocol/coap/local\CoAPMessage.c ****     unsigned char   path[COAP_MSG_MAX_PATH_LEN] = {0};
 798:C:/Users/stapi/OneDrive/Desktop/GD32VW553/V1_MQTT_OK/GD32VW55X_Wifi_BLE_SDK/GD32VW55x_RELEASE_V1.0.2/MSDK/cloud/alicloud/src/protocol/coap/local\CoAPMessage.c ****     unsigned char  *tmp = path;
 799:C:/Users/stapi/OneDrive/Desktop/GD32VW553/V1_MQTT_OK/GD32VW55X_Wifi_BLE_SDK/GD32VW55x_RELEASE_V1.0.2/MSDK/cloud/alicloud/src/protocol/coap/local\CoAPMessage.c ****     CoAPIntContext *ctx = (CoAPIntContext *)context;
 800:C:/Users/stapi/OneDrive/Desktop/GD32VW553/V1_MQTT_OK/GD32VW55X_Wifi_BLE_SDK/GD32VW55x_RELEASE_V1.0.2/MSDK/cloud/alicloud/src/protocol/coap/local\CoAPMessage.c ****     COAP_FLOW("CoAPRequestMessage_handle: %p", ctx);
 801:C:/Users/stapi/OneDrive/Desktop/GD32VW553/V1_MQTT_OK/GD32VW55X_Wifi_BLE_SDK/GD32VW55x_RELEASE_V1.0.2/MSDK/cloud/alicloud/src/protocol/coap/local\CoAPMessage.c **** 
 802:C:/Users/stapi/OneDrive/Desktop/GD32VW553/V1_MQTT_OK/GD32VW55X_Wifi_BLE_SDK/GD32VW55x_RELEASE_V1.0.2/MSDK/cloud/alicloud/src/protocol/coap/local\CoAPMessage.c ****     // TODO: if need only one callback
 803:C:/Users/stapi/OneDrive/Desktop/GD32VW553/V1_MQTT_OK/GD32VW55X_Wifi_BLE_SDK/GD32VW55x_RELEASE_V1.0.2/MSDK/cloud/alicloud/src/protocol/coap/local\CoAPMessage.c ****     for (index = 0; index < message->optcount; index++) {
 804:C:/Users/stapi/OneDrive/Desktop/GD32VW553/V1_MQTT_OK/GD32VW55X_Wifi_BLE_SDK/GD32VW55x_RELEASE_V1.0.2/MSDK/cloud/alicloud/src/protocol/coap/local\CoAPMessage.c ****         if (COAP_OPTION_URI_PATH == message->options[index].num) {
 805:C:/Users/stapi/OneDrive/Desktop/GD32VW553/V1_MQTT_OK/GD32VW55X_Wifi_BLE_SDK/GD32VW55x_RELEASE_V1.0.2/MSDK/cloud/alicloud/src/protocol/coap/local\CoAPMessage.c ****             if ((COAP_MSG_MAX_PATH_LEN - 1) >= (tmp - path + message->options[index].len)) {
 806:C:/Users/stapi/OneDrive/Desktop/GD32VW553/V1_MQTT_OK/GD32VW55X_Wifi_BLE_SDK/GD32VW55x_RELEASE_V1.0.2/MSDK/cloud/alicloud/src/protocol/coap/local\CoAPMessage.c ****                 *tmp = '/';
 807:C:/Users/stapi/OneDrive/Desktop/GD32VW553/V1_MQTT_OK/GD32VW55X_Wifi_BLE_SDK/GD32VW55x_RELEASE_V1.0.2/MSDK/cloud/alicloud/src/protocol/coap/local\CoAPMessage.c ****                 tmp += 1;
 808:C:/Users/stapi/OneDrive/Desktop/GD32VW553/V1_MQTT_OK/GD32VW55X_Wifi_BLE_SDK/GD32VW55x_RELEASE_V1.0.2/MSDK/cloud/alicloud/src/protocol/coap/local\CoAPMessage.c ****                 strncpy((char *)tmp, (const char *)message->options[index].val, message->options[in
 809:C:/Users/stapi/OneDrive/Desktop/GD32VW553/V1_MQTT_OK/GD32VW55X_Wifi_BLE_SDK/GD32VW55x_RELEASE_V1.0.2/MSDK/cloud/alicloud/src/protocol/coap/local\CoAPMessage.c ****                 tmp += message->options[index].len;
 810:C:/Users/stapi/OneDrive/Desktop/GD32VW553/V1_MQTT_OK/GD32VW55X_Wifi_BLE_SDK/GD32VW55x_RELEASE_V1.0.2/MSDK/cloud/alicloud/src/protocol/coap/local\CoAPMessage.c ****             }
 811:C:/Users/stapi/OneDrive/Desktop/GD32VW553/V1_MQTT_OK/GD32VW55X_Wifi_BLE_SDK/GD32VW55x_RELEASE_V1.0.2/MSDK/cloud/alicloud/src/protocol/coap/local\CoAPMessage.c ****         }
 812:C:/Users/stapi/OneDrive/Desktop/GD32VW553/V1_MQTT_OK/GD32VW55X_Wifi_BLE_SDK/GD32VW55x_RELEASE_V1.0.2/MSDK/cloud/alicloud/src/protocol/coap/local\CoAPMessage.c ****     }
 813:C:/Users/stapi/OneDrive/Desktop/GD32VW553/V1_MQTT_OK/GD32VW55X_Wifi_BLE_SDK/GD32VW55x_RELEASE_V1.0.2/MSDK/cloud/alicloud/src/protocol/coap/local\CoAPMessage.c **** 
 814:C:/Users/stapi/OneDrive/Desktop/GD32VW553/V1_MQTT_OK/GD32VW55X_Wifi_BLE_SDK/GD32VW55x_RELEASE_V1.0.2/MSDK/cloud/alicloud/src/protocol/coap/local\CoAPMessage.c ****     COAP_DEBUG("Request path is %s", path);
 815:C:/Users/stapi/OneDrive/Desktop/GD32VW553/V1_MQTT_OK/GD32VW55X_Wifi_BLE_SDK/GD32VW55x_RELEASE_V1.0.2/MSDK/cloud/alicloud/src/protocol/coap/local\CoAPMessage.c **** 
 816:C:/Users/stapi/OneDrive/Desktop/GD32VW553/V1_MQTT_OK/GD32VW55X_Wifi_BLE_SDK/GD32VW55x_RELEASE_V1.0.2/MSDK/cloud/alicloud/src/protocol/coap/local\CoAPMessage.c ****     resource = CoAPResourceByPath_get(ctx, (char *)path);
 817:C:/Users/stapi/OneDrive/Desktop/GD32VW553/V1_MQTT_OK/GD32VW55X_Wifi_BLE_SDK/GD32VW55x_RELEASE_V1.0.2/MSDK/cloud/alicloud/src/protocol/coap/local\CoAPMessage.c ****     if (NULL != resource) {
 818:C:/Users/stapi/OneDrive/Desktop/GD32VW553/V1_MQTT_OK/GD32VW55X_Wifi_BLE_SDK/GD32VW55x_RELEASE_V1.0.2/MSDK/cloud/alicloud/src/protocol/coap/local\CoAPMessage.c ****         if (NULL != resource->callback) {
 819:C:/Users/stapi/OneDrive/Desktop/GD32VW553/V1_MQTT_OK/GD32VW55X_Wifi_BLE_SDK/GD32VW55x_RELEASE_V1.0.2/MSDK/cloud/alicloud/src/protocol/coap/local\CoAPMessage.c ****             if (((resource->permission) & (1 << ((message->header.code) - 1))) > 0) {
 820:C:/Users/stapi/OneDrive/Desktop/GD32VW553/V1_MQTT_OK/GD32VW55X_Wifi_BLE_SDK/GD32VW55x_RELEASE_V1.0.2/MSDK/cloud/alicloud/src/protocol/coap/local\CoAPMessage.c ****                 /* Option for No Server Response, rfc7967*/
 821:C:/Users/stapi/OneDrive/Desktop/GD32VW553/V1_MQTT_OK/GD32VW55X_Wifi_BLE_SDK/GD32VW55x_RELEASE_V1.0.2/MSDK/cloud/alicloud/src/protocol/coap/local\CoAPMessage.c ****                 if (CoAPConMsg(message->header)){
 822:C:/Users/stapi/OneDrive/Desktop/GD32VW553/V1_MQTT_OK/GD32VW55X_Wifi_BLE_SDK/GD32VW55x_RELEASE_V1.0.2/MSDK/cloud/alicloud/src/protocol/coap/local\CoAPMessage.c ****                         /* Send the Ack message */
 823:C:/Users/stapi/OneDrive/Desktop/GD32VW553/V1_MQTT_OK/GD32VW55X_Wifi_BLE_SDK/GD32VW55x_RELEASE_V1.0.2/MSDK/cloud/alicloud/src/protocol/coap/local\CoAPMessage.c ****                     CoAPAckMessage_send(ctx, remote, message->header.msgid);
 824:C:/Users/stapi/OneDrive/Desktop/GD32VW553/V1_MQTT_OK/GD32VW55X_Wifi_BLE_SDK/GD32VW55x_RELEASE_V1.0.2/MSDK/cloud/alicloud/src/protocol/coap/local\CoAPMessage.c ****                 }
 825:C:/Users/stapi/OneDrive/Desktop/GD32VW553/V1_MQTT_OK/GD32VW55X_Wifi_BLE_SDK/GD32VW55x_RELEASE_V1.0.2/MSDK/cloud/alicloud/src/protocol/coap/local\CoAPMessage.c ****                 resource->callback(ctx, (char *)path, remote, message);
 826:C:/Users/stapi/OneDrive/Desktop/GD32VW553/V1_MQTT_OK/GD32VW55X_Wifi_BLE_SDK/GD32VW55x_RELEASE_V1.0.2/MSDK/cloud/alicloud/src/protocol/coap/local\CoAPMessage.c ****             } else {
 827:C:/Users/stapi/OneDrive/Desktop/GD32VW553/V1_MQTT_OK/GD32VW55X_Wifi_BLE_SDK/GD32VW55x_RELEASE_V1.0.2/MSDK/cloud/alicloud/src/protocol/coap/local\CoAPMessage.c ****                 COAP_FLOW("The resource %s isn't allowed", resource->path);
 828:C:/Users/stapi/OneDrive/Desktop/GD32VW553/V1_MQTT_OK/GD32VW55X_Wifi_BLE_SDK/GD32VW55x_RELEASE_V1.0.2/MSDK/cloud/alicloud/src/protocol/coap/local\CoAPMessage.c ****                 ret = CoAPErrRespMessage_send(ctx, remote, message, COAP_MSG_CODE_405_METHOD_NOT_AL
 829:C:/Users/stapi/OneDrive/Desktop/GD32VW553/V1_MQTT_OK/GD32VW55X_Wifi_BLE_SDK/GD32VW55x_RELEASE_V1.0.2/MSDK/cloud/alicloud/src/protocol/coap/local\CoAPMessage.c ****             }
 830:C:/Users/stapi/OneDrive/Desktop/GD32VW553/V1_MQTT_OK/GD32VW55X_Wifi_BLE_SDK/GD32VW55x_RELEASE_V1.0.2/MSDK/cloud/alicloud/src/protocol/coap/local\CoAPMessage.c ****         } else {
 831:C:/Users/stapi/OneDrive/Desktop/GD32VW553/V1_MQTT_OK/GD32VW55X_Wifi_BLE_SDK/GD32VW55x_RELEASE_V1.0.2/MSDK/cloud/alicloud/src/protocol/coap/local\CoAPMessage.c ****             COAP_FLOW("The resource %s handler isn't exist", resource->path);
 832:C:/Users/stapi/OneDrive/Desktop/GD32VW553/V1_MQTT_OK/GD32VW55X_Wifi_BLE_SDK/GD32VW55x_RELEASE_V1.0.2/MSDK/cloud/alicloud/src/protocol/coap/local\CoAPMessage.c ****             ret = CoAPErrRespMessage_send(ctx, remote, message, COAP_MSG_CODE_405_METHOD_NOT_ALLOWE
 833:C:/Users/stapi/OneDrive/Desktop/GD32VW553/V1_MQTT_OK/GD32VW55X_Wifi_BLE_SDK/GD32VW55x_RELEASE_V1.0.2/MSDK/cloud/alicloud/src/protocol/coap/local\CoAPMessage.c ****         }
 834:C:/Users/stapi/OneDrive/Desktop/GD32VW553/V1_MQTT_OK/GD32VW55X_Wifi_BLE_SDK/GD32VW55x_RELEASE_V1.0.2/MSDK/cloud/alicloud/src/protocol/coap/local\CoAPMessage.c ****     } else {
 835:C:/Users/stapi/OneDrive/Desktop/GD32VW553/V1_MQTT_OK/GD32VW55X_Wifi_BLE_SDK/GD32VW55x_RELEASE_V1.0.2/MSDK/cloud/alicloud/src/protocol/coap/local\CoAPMessage.c ****         COAP_FLOW("The resource %s isn't found", path);
 836:C:/Users/stapi/OneDrive/Desktop/GD32VW553/V1_MQTT_OK/GD32VW55X_Wifi_BLE_SDK/GD32VW55x_RELEASE_V1.0.2/MSDK/cloud/alicloud/src/protocol/coap/local\CoAPMessage.c ****         ret = CoAPErrRespMessage_send(ctx, remote, message, COAP_MSG_CODE_404_NOT_FOUND);
 837:C:/Users/stapi/OneDrive/Desktop/GD32VW553/V1_MQTT_OK/GD32VW55X_Wifi_BLE_SDK/GD32VW55x_RELEASE_V1.0.2/MSDK/cloud/alicloud/src/protocol/coap/local\CoAPMessage.c ****     }
 838:C:/Users/stapi/OneDrive/Desktop/GD32VW553/V1_MQTT_OK/GD32VW55X_Wifi_BLE_SDK/GD32VW55x_RELEASE_V1.0.2/MSDK/cloud/alicloud/src/protocol/coap/local\CoAPMessage.c **** 
 839:C:/Users/stapi/OneDrive/Desktop/GD32VW553/V1_MQTT_OK/GD32VW55X_Wifi_BLE_SDK/GD32VW55x_RELEASE_V1.0.2/MSDK/cloud/alicloud/src/protocol/coap/local\CoAPMessage.c ****     return ret;
 840:C:/Users/stapi/OneDrive/Desktop/GD32VW553/V1_MQTT_OK/GD32VW55X_Wifi_BLE_SDK/GD32VW55x_RELEASE_V1.0.2/MSDK/cloud/alicloud/src/protocol/coap/local\CoAPMessage.c **** }
 841:C:/Users/stapi/OneDrive/Desktop/GD32VW553/V1_MQTT_OK/GD32VW55X_Wifi_BLE_SDK/GD32VW55x_RELEASE_V1.0.2/MSDK/cloud/alicloud/src/protocol/coap/local\CoAPMessage.c **** 
 842:C:/Users/stapi/OneDrive/Desktop/GD32VW553/V1_MQTT_OK/GD32VW55X_Wifi_BLE_SDK/GD32VW55x_RELEASE_V1.0.2/MSDK/cloud/alicloud/src/protocol/coap/local\CoAPMessage.c **** 
 843:C:/Users/stapi/OneDrive/Desktop/GD32VW553/V1_MQTT_OK/GD32VW55X_Wifi_BLE_SDK/GD32VW55x_RELEASE_V1.0.2/MSDK/cloud/alicloud/src/protocol/coap/local\CoAPMessage.c **** static void CoAPMessage_handle(CoAPContext *context,
 844:C:/Users/stapi/OneDrive/Desktop/GD32VW553/V1_MQTT_OK/GD32VW55X_Wifi_BLE_SDK/GD32VW55x_RELEASE_V1.0.2/MSDK/cloud/alicloud/src/protocol/coap/local\CoAPMessage.c ****                                NetworkAddr       *remote,
 845:C:/Users/stapi/OneDrive/Desktop/GD32VW553/V1_MQTT_OK/GD32VW55X_Wifi_BLE_SDK/GD32VW55x_RELEASE_V1.0.2/MSDK/cloud/alicloud/src/protocol/coap/local\CoAPMessage.c ****                                unsigned char     *buf,
 846:C:/Users/stapi/OneDrive/Desktop/GD32VW553/V1_MQTT_OK/GD32VW55X_Wifi_BLE_SDK/GD32VW55x_RELEASE_V1.0.2/MSDK/cloud/alicloud/src/protocol/coap/local\CoAPMessage.c ****                                unsigned short     datalen)
 847:C:/Users/stapi/OneDrive/Desktop/GD32VW553/V1_MQTT_OK/GD32VW55X_Wifi_BLE_SDK/GD32VW55x_RELEASE_V1.0.2/MSDK/cloud/alicloud/src/protocol/coap/local\CoAPMessage.c **** {
 848:C:/Users/stapi/OneDrive/Desktop/GD32VW553/V1_MQTT_OK/GD32VW55X_Wifi_BLE_SDK/GD32VW55x_RELEASE_V1.0.2/MSDK/cloud/alicloud/src/protocol/coap/local\CoAPMessage.c ****     int                 ret  = COAP_SUCCESS;
 849:C:/Users/stapi/OneDrive/Desktop/GD32VW553/V1_MQTT_OK/GD32VW55X_Wifi_BLE_SDK/GD32VW55x_RELEASE_V1.0.2/MSDK/cloud/alicloud/src/protocol/coap/local\CoAPMessage.c ****     CoAPMessage         message;
 850:C:/Users/stapi/OneDrive/Desktop/GD32VW553/V1_MQTT_OK/GD32VW55X_Wifi_BLE_SDK/GD32VW55x_RELEASE_V1.0.2/MSDK/cloud/alicloud/src/protocol/coap/local\CoAPMessage.c ****     CoAPIntContext     *ctx = (CoAPIntContext *)context;
 851:C:/Users/stapi/OneDrive/Desktop/GD32VW553/V1_MQTT_OK/GD32VW55X_Wifi_BLE_SDK/GD32VW55x_RELEASE_V1.0.2/MSDK/cloud/alicloud/src/protocol/coap/local\CoAPMessage.c **** 
 852:C:/Users/stapi/OneDrive/Desktop/GD32VW553/V1_MQTT_OK/GD32VW55X_Wifi_BLE_SDK/GD32VW55x_RELEASE_V1.0.2/MSDK/cloud/alicloud/src/protocol/coap/local\CoAPMessage.c ****     COAP_FLOW("CoAPMessage_handle: %p", ctx);
 853:C:/Users/stapi/OneDrive/Desktop/GD32VW553/V1_MQTT_OK/GD32VW55X_Wifi_BLE_SDK/GD32VW55x_RELEASE_V1.0.2/MSDK/cloud/alicloud/src/protocol/coap/local\CoAPMessage.c ****     memset(&message, 0x00, sizeof(CoAPMessage));
 854:C:/Users/stapi/OneDrive/Desktop/GD32VW553/V1_MQTT_OK/GD32VW55X_Wifi_BLE_SDK/GD32VW55x_RELEASE_V1.0.2/MSDK/cloud/alicloud/src/protocol/coap/local\CoAPMessage.c **** 
 855:C:/Users/stapi/OneDrive/Desktop/GD32VW553/V1_MQTT_OK/GD32VW55X_Wifi_BLE_SDK/GD32VW55x_RELEASE_V1.0.2/MSDK/cloud/alicloud/src/protocol/coap/local\CoAPMessage.c ****     ret = CoAPDeserialize_Message(&message, buf, datalen);
 856:C:/Users/stapi/OneDrive/Desktop/GD32VW553/V1_MQTT_OK/GD32VW55X_Wifi_BLE_SDK/GD32VW55x_RELEASE_V1.0.2/MSDK/cloud/alicloud/src/protocol/coap/local\CoAPMessage.c ****     if (COAP_SUCCESS != ret) {
 857:C:/Users/stapi/OneDrive/Desktop/GD32VW553/V1_MQTT_OK/GD32VW55X_Wifi_BLE_SDK/GD32VW55x_RELEASE_V1.0.2/MSDK/cloud/alicloud/src/protocol/coap/local\CoAPMessage.c ****         if (NULL != ctx->notifier) {
 858:C:/Users/stapi/OneDrive/Desktop/GD32VW553/V1_MQTT_OK/GD32VW55X_Wifi_BLE_SDK/GD32VW55x_RELEASE_V1.0.2/MSDK/cloud/alicloud/src/protocol/coap/local\CoAPMessage.c ****             /* TODO: */
 859:C:/Users/stapi/OneDrive/Desktop/GD32VW553/V1_MQTT_OK/GD32VW55X_Wifi_BLE_SDK/GD32VW55x_RELEASE_V1.0.2/MSDK/cloud/alicloud/src/protocol/coap/local\CoAPMessage.c ****             /* context->notifier(context, event); */
 860:C:/Users/stapi/OneDrive/Desktop/GD32VW553/V1_MQTT_OK/GD32VW55X_Wifi_BLE_SDK/GD32VW55x_RELEASE_V1.0.2/MSDK/cloud/alicloud/src/protocol/coap/local\CoAPMessage.c ****         }
 861:C:/Users/stapi/OneDrive/Desktop/GD32VW553/V1_MQTT_OK/GD32VW55X_Wifi_BLE_SDK/GD32VW55x_RELEASE_V1.0.2/MSDK/cloud/alicloud/src/protocol/coap/local\CoAPMessage.c ****     }
 862:C:/Users/stapi/OneDrive/Desktop/GD32VW553/V1_MQTT_OK/GD32VW55X_Wifi_BLE_SDK/GD32VW55x_RELEASE_V1.0.2/MSDK/cloud/alicloud/src/protocol/coap/local\CoAPMessage.c **** 
 863:C:/Users/stapi/OneDrive/Desktop/GD32VW553/V1_MQTT_OK/GD32VW55X_Wifi_BLE_SDK/GD32VW55x_RELEASE_V1.0.2/MSDK/cloud/alicloud/src/protocol/coap/local\CoAPMessage.c ****     message.timestamp = HAL_UptimeMs();
 864:C:/Users/stapi/OneDrive/Desktop/GD32VW553/V1_MQTT_OK/GD32VW55X_Wifi_BLE_SDK/GD32VW55x_RELEASE_V1.0.2/MSDK/cloud/alicloud/src/protocol/coap/local\CoAPMessage.c **** #ifdef DEBUG_OPEN_COAP_MSG_LOG
 865:C:/Users/stapi/OneDrive/Desktop/GD32VW553/V1_MQTT_OK/GD32VW55X_Wifi_BLE_SDK/GD32VW55x_RELEASE_V1.0.2/MSDK/cloud/alicloud/src/protocol/coap/local\CoAPMessage.c ****     COAP_FLOW("--------Receive a Message------");
 866:C:/Users/stapi/OneDrive/Desktop/GD32VW553/V1_MQTT_OK/GD32VW55X_Wifi_BLE_SDK/GD32VW55x_RELEASE_V1.0.2/MSDK/cloud/alicloud/src/protocol/coap/local\CoAPMessage.c **** #endif
 867:C:/Users/stapi/OneDrive/Desktop/GD32VW553/V1_MQTT_OK/GD32VW55X_Wifi_BLE_SDK/GD32VW55x_RELEASE_V1.0.2/MSDK/cloud/alicloud/src/protocol/coap/local\CoAPMessage.c ****     CoAPMessage_dump(remote, &message);
 868:C:/Users/stapi/OneDrive/Desktop/GD32VW553/V1_MQTT_OK/GD32VW55X_Wifi_BLE_SDK/GD32VW55x_RELEASE_V1.0.2/MSDK/cloud/alicloud/src/protocol/coap/local\CoAPMessage.c **** 
 869:C:/Users/stapi/OneDrive/Desktop/GD32VW553/V1_MQTT_OK/GD32VW55X_Wifi_BLE_SDK/GD32VW55x_RELEASE_V1.0.2/MSDK/cloud/alicloud/src/protocol/coap/local\CoAPMessage.c ****     if (COAPAckMsg(message.header) || CoAPResetMsg(message.header)) {
 870:C:/Users/stapi/OneDrive/Desktop/GD32VW553/V1_MQTT_OK/GD32VW55X_Wifi_BLE_SDK/GD32VW55x_RELEASE_V1.0.2/MSDK/cloud/alicloud/src/protocol/coap/local\CoAPMessage.c ****         // TODO: implement handle client observe
 871:C:/Users/stapi/OneDrive/Desktop/GD32VW553/V1_MQTT_OK/GD32VW55X_Wifi_BLE_SDK/GD32VW55x_RELEASE_V1.0.2/MSDK/cloud/alicloud/src/protocol/coap/local\CoAPMessage.c **** 
 872:C:/Users/stapi/OneDrive/Desktop/GD32VW553/V1_MQTT_OK/GD32VW55X_Wifi_BLE_SDK/GD32VW55x_RELEASE_V1.0.2/MSDK/cloud/alicloud/src/protocol/coap/local\CoAPMessage.c ****         // TODO: if need call response callback
 873:C:/Users/stapi/OneDrive/Desktop/GD32VW553/V1_MQTT_OK/GD32VW55X_Wifi_BLE_SDK/GD32VW55x_RELEASE_V1.0.2/MSDK/cloud/alicloud/src/protocol/coap/local\CoAPMessage.c ****         CoAPAckMessage_handle(ctx, &message);
 874:C:/Users/stapi/OneDrive/Desktop/GD32VW553/V1_MQTT_OK/GD32VW55X_Wifi_BLE_SDK/GD32VW55x_RELEASE_V1.0.2/MSDK/cloud/alicloud/src/protocol/coap/local\CoAPMessage.c **** 
 875:C:/Users/stapi/OneDrive/Desktop/GD32VW553/V1_MQTT_OK/GD32VW55X_Wifi_BLE_SDK/GD32VW55x_RELEASE_V1.0.2/MSDK/cloud/alicloud/src/protocol/coap/local\CoAPMessage.c ****     } else if (CoAPRespMsg(message.header)) {
 876:C:/Users/stapi/OneDrive/Desktop/GD32VW553/V1_MQTT_OK/GD32VW55X_Wifi_BLE_SDK/GD32VW55x_RELEASE_V1.0.2/MSDK/cloud/alicloud/src/protocol/coap/local\CoAPMessage.c ****         CoAPRespMessage_handle(ctx, remote, &message);
 877:C:/Users/stapi/OneDrive/Desktop/GD32VW553/V1_MQTT_OK/GD32VW55X_Wifi_BLE_SDK/GD32VW55x_RELEASE_V1.0.2/MSDK/cloud/alicloud/src/protocol/coap/local\CoAPMessage.c ****     } else if (CoAPPingMsg(message.header)) {
 878:C:/Users/stapi/OneDrive/Desktop/GD32VW553/V1_MQTT_OK/GD32VW55X_Wifi_BLE_SDK/GD32VW55x_RELEASE_V1.0.2/MSDK/cloud/alicloud/src/protocol/coap/local\CoAPMessage.c ****         CoAPRestMessage_send(ctx, remote, message.header.msgid);
 879:C:/Users/stapi/OneDrive/Desktop/GD32VW553/V1_MQTT_OK/GD32VW55X_Wifi_BLE_SDK/GD32VW55x_RELEASE_V1.0.2/MSDK/cloud/alicloud/src/protocol/coap/local\CoAPMessage.c ****     } else if (CoAPReqMsg(message.header)) {
 880:C:/Users/stapi/OneDrive/Desktop/GD32VW553/V1_MQTT_OK/GD32VW55X_Wifi_BLE_SDK/GD32VW55x_RELEASE_V1.0.2/MSDK/cloud/alicloud/src/protocol/coap/local\CoAPMessage.c ****         CoAPRequestMessage_handle(ctx, remote, &message);
 881:C:/Users/stapi/OneDrive/Desktop/GD32VW553/V1_MQTT_OK/GD32VW55X_Wifi_BLE_SDK/GD32VW55x_RELEASE_V1.0.2/MSDK/cloud/alicloud/src/protocol/coap/local\CoAPMessage.c ****     } else {
 882:C:/Users/stapi/OneDrive/Desktop/GD32VW553/V1_MQTT_OK/GD32VW55X_Wifi_BLE_SDK/GD32VW55x_RELEASE_V1.0.2/MSDK/cloud/alicloud/src/protocol/coap/local\CoAPMessage.c ****         COAP_INFO("Weird packet,drop it");
 883:C:/Users/stapi/OneDrive/Desktop/GD32VW553/V1_MQTT_OK/GD32VW55X_Wifi_BLE_SDK/GD32VW55x_RELEASE_V1.0.2/MSDK/cloud/alicloud/src/protocol/coap/local\CoAPMessage.c ****     }
 884:C:/Users/stapi/OneDrive/Desktop/GD32VW553/V1_MQTT_OK/GD32VW55X_Wifi_BLE_SDK/GD32VW55x_RELEASE_V1.0.2/MSDK/cloud/alicloud/src/protocol/coap/local\CoAPMessage.c **** 
 885:C:/Users/stapi/OneDrive/Desktop/GD32VW553/V1_MQTT_OK/GD32VW55X_Wifi_BLE_SDK/GD32VW55x_RELEASE_V1.0.2/MSDK/cloud/alicloud/src/protocol/coap/local\CoAPMessage.c **** }
 886:C:/Users/stapi/OneDrive/Desktop/GD32VW553/V1_MQTT_OK/GD32VW55X_Wifi_BLE_SDK/GD32VW55x_RELEASE_V1.0.2/MSDK/cloud/alicloud/src/protocol/coap/local\CoAPMessage.c **** 
 887:C:/Users/stapi/OneDrive/Desktop/GD32VW553/V1_MQTT_OK/GD32VW55X_Wifi_BLE_SDK/GD32VW55x_RELEASE_V1.0.2/MSDK/cloud/alicloud/src/protocol/coap/local\CoAPMessage.c **** int CoAPMessage_process(CoAPContext *context, unsigned int timeout)
 888:C:/Users/stapi/OneDrive/Desktop/GD32VW553/V1_MQTT_OK/GD32VW55X_Wifi_BLE_SDK/GD32VW55x_RELEASE_V1.0.2/MSDK/cloud/alicloud/src/protocol/coap/local\CoAPMessage.c **** {
 2911              		.loc 1 888 1 is_stmt 1
 2912              		.cfi_startproc
 2913              	.LVL302:
 2914 0000 17030000 		call	t0,__riscv_save_10
 2914      E7020300 
 2915              		.cfi_offset 25, -44
 2916              		.cfi_offset 24, -40
 2917              		.cfi_offset 23, -36
 2918              		.cfi_offset 22, -32
 2919              		.cfi_offset 21, -28
 2920              		.cfi_offset 20, -24
 2921              		.cfi_offset 19, -20
 2922              		.cfi_offset 18, -16
 2923              		.cfi_offset 9, -12
 2924              		.cfi_offset 8, -8
 2925              		.cfi_offset 1, -4
 2926              		.cfi_def_cfa_offset 48
 889:C:/Users/stapi/OneDrive/Desktop/GD32VW553/V1_MQTT_OK/GD32VW55X_Wifi_BLE_SDK/GD32VW55x_RELEASE_V1.0.2/MSDK/cloud/alicloud/src/protocol/coap/local\CoAPMessage.c ****     int len = 0;
 2927              		.loc 1 889 5
 2928              	.LVL303:
 890:C:/Users/stapi/OneDrive/Desktop/GD32VW553/V1_MQTT_OK/GD32VW55X_Wifi_BLE_SDK/GD32VW55x_RELEASE_V1.0.2/MSDK/cloud/alicloud/src/protocol/coap/local\CoAPMessage.c ****     NetworkAddr remote;
 2929              		.loc 1 890 5
 891:C:/Users/stapi/OneDrive/Desktop/GD32VW553/V1_MQTT_OK/GD32VW55X_Wifi_BLE_SDK/GD32VW55x_RELEASE_V1.0.2/MSDK/cloud/alicloud/src/protocol/coap/local\CoAPMessage.c ****     char ip_addr[17] = {0};
 2930              		.loc 1 891 5
 888:C:/Users/stapi/OneDrive/Desktop/GD32VW553/V1_MQTT_OK/GD32VW55X_Wifi_BLE_SDK/GD32VW55x_RELEASE_V1.0.2/MSDK/cloud/alicloud/src/protocol/coap/local\CoAPMessage.c ****     int len = 0;
 2931              		.loc 1 888 1 is_stmt 0
 2932 0008 4D71     		addi	sp,sp,-336
 2933              		.cfi_def_cfa_offset 384
 888:C:/Users/stapi/OneDrive/Desktop/GD32VW553/V1_MQTT_OK/GD32VW55X_Wifi_BLE_SDK/GD32VW55x_RELEASE_V1.0.2/MSDK/cloud/alicloud/src/protocol/coap/local\CoAPMessage.c ****     int len = 0;
 2934              		.loc 1 888 1
 2935 000a 2EC6     		sw	a1,12(sp)
 2936              		.loc 1 891 10
 2937 000c 02CC     		sw	zero,24(sp)
 2938 000e 02CE     		sw	zero,28(sp)
 2939 0010 02D0     		sw	zero,32(sp)
 2940 0012 02D2     		sw	zero,36(sp)
 2941 0014 23040102 		sb	zero,40(sp)
 892:C:/Users/stapi/OneDrive/Desktop/GD32VW553/V1_MQTT_OK/GD32VW55X_Wifi_BLE_SDK/GD32VW55x_RELEASE_V1.0.2/MSDK/cloud/alicloud/src/protocol/coap/local\CoAPMessage.c ****     CoAPIntContext *ctx = (CoAPIntContext *)context;
 2942              		.loc 1 892 5 is_stmt 1
 2943              	.LVL304:
 893:C:/Users/stapi/OneDrive/Desktop/GD32VW553/V1_MQTT_OK/GD32VW55X_Wifi_BLE_SDK/GD32VW55x_RELEASE_V1.0.2/MSDK/cloud/alicloud/src/protocol/coap/local\CoAPMessage.c **** 
 894:C:/Users/stapi/OneDrive/Desktop/GD32VW553/V1_MQTT_OK/GD32VW55X_Wifi_BLE_SDK/GD32VW55x_RELEASE_V1.0.2/MSDK/cloud/alicloud/src/protocol/coap/local\CoAPMessage.c ****     if (NULL == context) {
 2944              		.loc 1 894 5
 895:C:/Users/stapi/OneDrive/Desktop/GD32VW553/V1_MQTT_OK/GD32VW55X_Wifi_BLE_SDK/GD32VW55x_RELEASE_V1.0.2/MSDK/cloud/alicloud/src/protocol/coap/local\CoAPMessage.c ****         return COAP_ERROR_NULL;
 2945              		.loc 1 895 16 is_stmt 0
 2946 0018 93042010 		li	s1,258
 894:C:/Users/stapi/OneDrive/Desktop/GD32VW553/V1_MQTT_OK/GD32VW55X_Wifi_BLE_SDK/GD32VW55x_RELEASE_V1.0.2/MSDK/cloud/alicloud/src/protocol/coap/local\CoAPMessage.c ****         return COAP_ERROR_NULL;
 2947              		.loc 1 894 8
 2948 001c 630A051A 		beq	a0,zero,.L208
 2949 0020 2A84     		mv	s0,a0
 896:C:/Users/stapi/OneDrive/Desktop/GD32VW553/V1_MQTT_OK/GD32VW55X_Wifi_BLE_SDK/GD32VW55x_RELEASE_V1.0.2/MSDK/cloud/alicloud/src/protocol/coap/local\CoAPMessage.c ****     }
 897:C:/Users/stapi/OneDrive/Desktop/GD32VW553/V1_MQTT_OK/GD32VW55X_Wifi_BLE_SDK/GD32VW55x_RELEASE_V1.0.2/MSDK/cloud/alicloud/src/protocol/coap/local\CoAPMessage.c **** 
 898:C:/Users/stapi/OneDrive/Desktop/GD32VW553/V1_MQTT_OK/GD32VW55X_Wifi_BLE_SDK/GD32VW55x_RELEASE_V1.0.2/MSDK/cloud/alicloud/src/protocol/coap/local\CoAPMessage.c **** 
 899:C:/Users/stapi/OneDrive/Desktop/GD32VW553/V1_MQTT_OK/GD32VW55X_Wifi_BLE_SDK/GD32VW55x_RELEASE_V1.0.2/MSDK/cloud/alicloud/src/protocol/coap/local\CoAPMessage.c ****     //while (1) {
 900:C:/Users/stapi/OneDrive/Desktop/GD32VW553/V1_MQTT_OK/GD32VW55X_Wifi_BLE_SDK/GD32VW55x_RELEASE_V1.0.2/MSDK/cloud/alicloud/src/protocol/coap/local\CoAPMessage.c ****         memset(&remote, 0x00, sizeof(NetworkAddr));
 2950              		.loc 1 900 9 is_stmt 1
 901:C:/Users/stapi/OneDrive/Desktop/GD32VW553/V1_MQTT_OK/GD32VW55X_Wifi_BLE_SDK/GD32VW55x_RELEASE_V1.0.2/MSDK/cloud/alicloud/src/protocol/coap/local\CoAPMessage.c ****         memset(ctx->recvbuf, 0x00, COAP_MSG_MAX_PDU_LEN);
 2951              		.loc 1 901 9 is_stmt 0
 2952 0022 0849     		lw	a0,16(a0)
 2953              	.LVL305:
 2954 0024 13060050 		li	a2,1280
 2955 0028 8145     		li	a1,0
 2956              	.LVL306:
 900:C:/Users/stapi/OneDrive/Desktop/GD32VW553/V1_MQTT_OK/GD32VW55X_Wifi_BLE_SDK/GD32VW55x_RELEASE_V1.0.2/MSDK/cloud/alicloud/src/protocol/coap/local\CoAPMessage.c ****         memset(ctx->recvbuf, 0x00, COAP_MSG_MAX_PDU_LEN);
 2957              		.loc 1 900 9
 2958 002a 02D6     		sw	zero,44(sp)
 2959 002c 02D8     		sw	zero,48(sp)
 2960 002e 02DA     		sw	zero,52(sp)
 2961 0030 02DC     		sw	zero,56(sp)
 2962 0032 231E0102 		sh	zero,60(sp)
 2963              		.loc 1 901 9 is_stmt 1
 2964 0036 97000000 		call	memset
 2964      E7800000 
 2965              	.LVL307:
 902:C:/Users/stapi/OneDrive/Desktop/GD32VW553/V1_MQTT_OK/GD32VW55X_Wifi_BLE_SDK/GD32VW55x_RELEASE_V1.0.2/MSDK/cloud/alicloud/src/protocol/coap/local\CoAPMessage.c ****         len = CoAPNetwork_read(ctx->p_network,
 2966              		.loc 1 902 9
 2967              		.loc 1 902 15 is_stmt 0
 2968 003e 3247     		lw	a4,12(sp)
 2969 0040 1048     		lw	a2,16(s0)
 2970 0042 4840     		lw	a0,4(s0)
 2971 0044 93060050 		li	a3,1280
 2972 0048 6C10     		addi	a1,sp,44
 2973 004a 97000000 		call	CoAPNetwork_read
 2973      E7800000 
 2974              	.LVL308:
 2975 0052 AA84     		mv	s1,a0
 2976              	.LVL309:
 903:C:/Users/stapi/OneDrive/Desktop/GD32VW553/V1_MQTT_OK/GD32VW55X_Wifi_BLE_SDK/GD32VW55x_RELEASE_V1.0.2/MSDK/cloud/alicloud/src/protocol/coap/local\CoAPMessage.c ****                                &remote,
 904:C:/Users/stapi/OneDrive/Desktop/GD32VW553/V1_MQTT_OK/GD32VW55X_Wifi_BLE_SDK/GD32VW55x_RELEASE_V1.0.2/MSDK/cloud/alicloud/src/protocol/coap/local\CoAPMessage.c ****                                ctx->recvbuf,
 905:C:/Users/stapi/OneDrive/Desktop/GD32VW553/V1_MQTT_OK/GD32VW55X_Wifi_BLE_SDK/GD32VW55x_RELEASE_V1.0.2/MSDK/cloud/alicloud/src/protocol/coap/local\CoAPMessage.c ****                                COAP_MSG_MAX_PDU_LEN, timeout);
 906:C:/Users/stapi/OneDrive/Desktop/GD32VW553/V1_MQTT_OK/GD32VW55X_Wifi_BLE_SDK/GD32VW55x_RELEASE_V1.0.2/MSDK/cloud/alicloud/src/protocol/coap/local\CoAPMessage.c ****         if (len > 0) {
 2977              		.loc 1 906 9 is_stmt 1
 2978              		.loc 1 906 12 is_stmt 0
 2979 0054 635EA016 		ble	a0,zero,.L208
 907:C:/Users/stapi/OneDrive/Desktop/GD32VW553/V1_MQTT_OK/GD32VW55X_Wifi_BLE_SDK/GD32VW55x_RELEASE_V1.0.2/MSDK/cloud/alicloud/src/protocol/coap/local\CoAPMessage.c ****             HAL_Wifi_Get_IP(ip_addr, NULL);
 2980              		.loc 1 907 13 is_stmt 1
 2981 0058 8145     		li	a1,0
 2982 005a 2808     		addi	a0,sp,24
 2983 005c 97000000 		call	HAL_Wifi_Get_IP
 2983      E7800000 
 2984              	.LVL310:
 908:C:/Users/stapi/OneDrive/Desktop/GD32VW553/V1_MQTT_OK/GD32VW55X_Wifi_BLE_SDK/GD32VW55x_RELEASE_V1.0.2/MSDK/cloud/alicloud/src/protocol/coap/local\CoAPMessage.c ****             if (strlen(ip_addr) > 0 && strncmp((const char *)ip_addr, (const char *)remote.addr, si
 2985              		.loc 1 908 13
 2986              		.loc 1 908 16 is_stmt 0
 2987 0064 83078101 		lb	a5,24(sp)
 2988 0068 91CB     		beq	a5,zero,.L210
 2989              		.loc 1 908 40 discriminator 1
 2990 006a 4546     		li	a2,17
 2991 006c 6C10     		addi	a1,sp,44
 2992 006e 2808     		addi	a0,sp,24
 2993 0070 97000000 		call	strncmp
 2993      E7800000 
 2994              	.LVL311:
 2995              		.loc 1 908 37 discriminator 1
 2996 0078 630B0514 		beq	a0,zero,.L246
 2997              	.L210:
 909:C:/Users/stapi/OneDrive/Desktop/GD32VW553/V1_MQTT_OK/GD32VW55X_Wifi_BLE_SDK/GD32VW55x_RELEASE_V1.0.2/MSDK/cloud/alicloud/src/protocol/coap/local\CoAPMessage.c ****                 return 0;
 910:C:/Users/stapi/OneDrive/Desktop/GD32VW553/V1_MQTT_OK/GD32VW55X_Wifi_BLE_SDK/GD32VW55x_RELEASE_V1.0.2/MSDK/cloud/alicloud/src/protocol/coap/local\CoAPMessage.c ****             CoAPMessage_handle(ctx, &remote, ctx->recvbuf, len);
 2998              		.loc 1 910 13 is_stmt 1
 2999              	.LBB148:
 3000              	.LBB149:
 852:C:/Users/stapi/OneDrive/Desktop/GD32VW553/V1_MQTT_OK/GD32VW55X_Wifi_BLE_SDK/GD32VW55x_RELEASE_V1.0.2/MSDK/cloud/alicloud/src/protocol/coap/local\CoAPMessage.c ****     memset(&message, 0x00, sizeof(CoAPMessage));
 3001              		.loc 1 852 5 is_stmt 0
 3002 007c B7090000 		lui	s3,%hi(.LC1)
 3003 0080 37070000 		lui	a4,%hi(.LC22)
 3004 0084 B7050000 		lui	a1,%hi(.LANCHOR7)
 3005 0088 A287     		mv	a5,s0
 3006 008a 13070700 		addi	a4,a4,%lo(.LC22)
 3007 008e 9546     		li	a3,5
 3008 0090 13064035 		li	a2,852
 3009 0094 93850500 		addi	a1,a1,%lo(.LANCHOR7)
 3010 0098 13850900 		addi	a0,s3,%lo(.LC1)
 3011              	.LBE149:
 3012              	.LBE148:
 3013              		.loc 1 910 13
 3014 009c 03290401 		lw	s2,16(s0)
 3015              	.LVL312:
 3016              	.LBB199:
 3017              	.LBB194:
 848:C:/Users/stapi/OneDrive/Desktop/GD32VW553/V1_MQTT_OK/GD32VW55X_Wifi_BLE_SDK/GD32VW55x_RELEASE_V1.0.2/MSDK/cloud/alicloud/src/protocol/coap/local\CoAPMessage.c ****     CoAPMessage         message;
 3018              		.loc 1 848 5 is_stmt 1
 849:C:/Users/stapi/OneDrive/Desktop/GD32VW553/V1_MQTT_OK/GD32VW55X_Wifi_BLE_SDK/GD32VW55x_RELEASE_V1.0.2/MSDK/cloud/alicloud/src/protocol/coap/local\CoAPMessage.c ****     CoAPIntContext     *ctx = (CoAPIntContext *)context;
 3019              		.loc 1 849 5
 850:C:/Users/stapi/OneDrive/Desktop/GD32VW553/V1_MQTT_OK/GD32VW55X_Wifi_BLE_SDK/GD32VW55x_RELEASE_V1.0.2/MSDK/cloud/alicloud/src/protocol/coap/local\CoAPMessage.c **** 
 3020              		.loc 1 850 5
 852:C:/Users/stapi/OneDrive/Desktop/GD32VW553/V1_MQTT_OK/GD32VW55X_Wifi_BLE_SDK/GD32VW55x_RELEASE_V1.0.2/MSDK/cloud/alicloud/src/protocol/coap/local\CoAPMessage.c ****     memset(&message, 0x00, sizeof(CoAPMessage));
 3021              		.loc 1 852 5
 3022 00a0 97000000 		call	LITE_syslog
 3022      E7800000 
 3023              	.LVL313:
 853:C:/Users/stapi/OneDrive/Desktop/GD32VW553/V1_MQTT_OK/GD32VW55X_Wifi_BLE_SDK/GD32VW55x_RELEASE_V1.0.2/MSDK/cloud/alicloud/src/protocol/coap/local\CoAPMessage.c **** 
 3024              		.loc 1 853 5
 3025 00a8 13068008 		li	a2,136
 3026 00ac 8145     		li	a1,0
 3027 00ae 8800     		addi	a0,sp,64
 3028 00b0 97000000 		call	memset
 3028      E7800000 
 3029              	.LVL314:
 855:C:/Users/stapi/OneDrive/Desktop/GD32VW553/V1_MQTT_OK/GD32VW55X_Wifi_BLE_SDK/GD32VW55x_RELEASE_V1.0.2/MSDK/cloud/alicloud/src/protocol/coap/local\CoAPMessage.c ****     if (COAP_SUCCESS != ret) {
 3030              		.loc 1 855 5
 855:C:/Users/stapi/OneDrive/Desktop/GD32VW553/V1_MQTT_OK/GD32VW55X_Wifi_BLE_SDK/GD32VW55x_RELEASE_V1.0.2/MSDK/cloud/alicloud/src/protocol/coap/local\CoAPMessage.c ****     if (COAP_SUCCESS != ret) {
 3031              		.loc 1 855 11 is_stmt 0
 3032 00b8 CA85     		mv	a1,s2
 3033 00ba 8800     		addi	a0,sp,64
 3034 00bc 33C60408 		zext.h	a2,s1
 3035 00c0 97000000 		call	CoAPDeserialize_Message
 3035      E7800000 
 3036              	.LVL315:
 856:C:/Users/stapi/OneDrive/Desktop/GD32VW553/V1_MQTT_OK/GD32VW55X_Wifi_BLE_SDK/GD32VW55x_RELEASE_V1.0.2/MSDK/cloud/alicloud/src/protocol/coap/local\CoAPMessage.c ****         if (NULL != ctx->notifier) {
 3037              		.loc 1 856 5 is_stmt 1
 860:C:/Users/stapi/OneDrive/Desktop/GD32VW553/V1_MQTT_OK/GD32VW55X_Wifi_BLE_SDK/GD32VW55x_RELEASE_V1.0.2/MSDK/cloud/alicloud/src/protocol/coap/local\CoAPMessage.c ****     }
 3038              		.loc 1 860 9
 863:C:/Users/stapi/OneDrive/Desktop/GD32VW553/V1_MQTT_OK/GD32VW55X_Wifi_BLE_SDK/GD32VW55x_RELEASE_V1.0.2/MSDK/cloud/alicloud/src/protocol/coap/local\CoAPMessage.c **** #ifdef DEBUG_OPEN_COAP_MSG_LOG
 3039              		.loc 1 863 5
 863:C:/Users/stapi/OneDrive/Desktop/GD32VW553/V1_MQTT_OK/GD32VW55X_Wifi_BLE_SDK/GD32VW55x_RELEASE_V1.0.2/MSDK/cloud/alicloud/src/protocol/coap/local\CoAPMessage.c **** #ifdef DEBUG_OPEN_COAP_MSG_LOG
 3040              		.loc 1 863 25 is_stmt 0
 3041 00c8 97000000 		call	HAL_UptimeMs
 3041      E7800000 
 3042              	.LVL316:
 863:C:/Users/stapi/OneDrive/Desktop/GD32VW553/V1_MQTT_OK/GD32VW55X_Wifi_BLE_SDK/GD32VW55x_RELEASE_V1.0.2/MSDK/cloud/alicloud/src/protocol/coap/local\CoAPMessage.c **** #ifdef DEBUG_OPEN_COAP_MSG_LOG
 3043              		.loc 1 863 23
 3044 00d0 AAC1     		sw	a0,192(sp)
 3045 00d2 AEC3     		sw	a1,196(sp)
 867:C:/Users/stapi/OneDrive/Desktop/GD32VW553/V1_MQTT_OK/GD32VW55X_Wifi_BLE_SDK/GD32VW55x_RELEASE_V1.0.2/MSDK/cloud/alicloud/src/protocol/coap/local\CoAPMessage.c **** 
 3046              		.loc 1 867 5 is_stmt 1
 3047 00d4 6810     		addi	a0,sp,44
 3048              	.LVL317:
 3049 00d6 8C00     		addi	a1,sp,64
 3050 00d8 97000000 		call	CoAPMessage_dump
 3050      E7800000 
 3051              	.LVL318:
 869:C:/Users/stapi/OneDrive/Desktop/GD32VW553/V1_MQTT_OK/GD32VW55X_Wifi_BLE_SDK/GD32VW55x_RELEASE_V1.0.2/MSDK/cloud/alicloud/src/protocol/coap/local\CoAPMessage.c ****         // TODO: implement handle client observe
 3052              		.loc 1 869 5
 869:C:/Users/stapi/OneDrive/Desktop/GD32VW553/V1_MQTT_OK/GD32VW55X_Wifi_BLE_SDK/GD32VW55x_RELEASE_V1.0.2/MSDK/cloud/alicloud/src/protocol/coap/local\CoAPMessage.c ****         // TODO: implement handle client observe
 3053              		.loc 1 869 9 is_stmt 0
 3054 00e0 0647     		lw	a4,64(sp)
 3055 00e2 C167     		li	a5,65536
 3056 00e4 9387C7F0 		addi	a5,a5,-244
 3057 00e8 7D8F     		and	a4,a4,a5
 869:C:/Users/stapi/OneDrive/Desktop/GD32VW553/V1_MQTT_OK/GD32VW55X_Wifi_BLE_SDK/GD32VW55x_RELEASE_V1.0.2/MSDK/cloud/alicloud/src/protocol/coap/local\CoAPMessage.c ****         // TODO: implement handle client observe
 3058              		.loc 1 869 8
 3059 00ea A147     		li	a5,8
 3060 00ec 4E89     		mv	s2,s3
 3061              	.LVL319:
 3062 00ee 6308F700 		beq	a4,a5,.L211
 869:C:/Users/stapi/OneDrive/Desktop/GD32VW553/V1_MQTT_OK/GD32VW55X_Wifi_BLE_SDK/GD32VW55x_RELEASE_V1.0.2/MSDK/cloud/alicloud/src/protocol/coap/local\CoAPMessage.c ****         // TODO: implement handle client observe
 3063              		.loc 1 869 39
 3064 00f2 83460104 		lbu	a3,64(sp)
 869:C:/Users/stapi/OneDrive/Desktop/GD32VW553/V1_MQTT_OK/GD32VW55X_Wifi_BLE_SDK/GD32VW55x_RELEASE_V1.0.2/MSDK/cloud/alicloud/src/protocol/coap/local\CoAPMessage.c ****         // TODO: implement handle client observe
 3065              		.loc 1 869 36
 3066 00f6 B147     		li	a5,12
 869:C:/Users/stapi/OneDrive/Desktop/GD32VW553/V1_MQTT_OK/GD32VW55X_Wifi_BLE_SDK/GD32VW55x_RELEASE_V1.0.2/MSDK/cloud/alicloud/src/protocol/coap/local\CoAPMessage.c ****         // TODO: implement handle client observe
 3067              		.loc 1 869 39
 3068 00f8 B18A     		andi	a3,a3,12
 869:C:/Users/stapi/OneDrive/Desktop/GD32VW553/V1_MQTT_OK/GD32VW55X_Wifi_BLE_SDK/GD32VW55x_RELEASE_V1.0.2/MSDK/cloud/alicloud/src/protocol/coap/local\CoAPMessage.c ****         // TODO: implement handle client observe
 3069              		.loc 1 869 36
 3070 00fa 6396F60E 		bne	a3,a5,.L212
 3071              	.L211:
 873:C:/Users/stapi/OneDrive/Desktop/GD32VW553/V1_MQTT_OK/GD32VW55X_Wifi_BLE_SDK/GD32VW55x_RELEASE_V1.0.2/MSDK/cloud/alicloud/src/protocol/coap/local\CoAPMessage.c **** 
 3072              		.loc 1 873 9 is_stmt 1
 3073              	.LVL320:
 3074              	.LBB150:
 3075              	.LBB151:
 641:C:/Users/stapi/OneDrive/Desktop/GD32VW553/V1_MQTT_OK/GD32VW55X_Wifi_BLE_SDK/GD32VW55x_RELEASE_V1.0.2/MSDK/cloud/alicloud/src/protocol/coap/local\CoAPMessage.c ****     CoAPIntContext *ctx = (CoAPIntContext *)context;
 3076              		.loc 1 641 5
 642:C:/Users/stapi/OneDrive/Desktop/GD32VW553/V1_MQTT_OK/GD32VW55X_Wifi_BLE_SDK/GD32VW55x_RELEASE_V1.0.2/MSDK/cloud/alicloud/src/protocol/coap/local\CoAPMessage.c **** 
 3077              		.loc 1 642 5
 644:C:/Users/stapi/OneDrive/Desktop/GD32VW553/V1_MQTT_OK/GD32VW55X_Wifi_BLE_SDK/GD32VW55x_RELEASE_V1.0.2/MSDK/cloud/alicloud/src/protocol/coap/local\CoAPMessage.c ****     list_for_each_entry_safe(node, next, &ctx->sendlist.list, sendlist, CoAPSendNode) {
 3078              		.loc 1 644 5
 3079 00fe 4848     		lw	a0,20(s0)
 3080 0100 97000000 		call	HAL_MutexLock
 3080      E7800000 
 3081              	.LVL321:
 645:C:/Users/stapi/OneDrive/Desktop/GD32VW553/V1_MQTT_OK/GD32VW55X_Wifi_BLE_SDK/GD32VW55x_RELEASE_V1.0.2/MSDK/cloud/alicloud/src/protocol/coap/local\CoAPMessage.c ****         if (node->header.msgid == message->header.msgid) {
 3082              		.loc 1 645 5
 3083 0108 5C4C     		lw	a5,28(s0)
 646:C:/Users/stapi/OneDrive/Desktop/GD32VW553/V1_MQTT_OK/GD32VW55X_Wifi_BLE_SDK/GD32VW55x_RELEASE_V1.0.2/MSDK/cloud/alicloud/src/protocol/coap/local\CoAPMessage.c ****             CoAPSendMsgHandler handler = node->handler;
 3084              		.loc 1 646 50 is_stmt 0
 3085 010a 03562104 		lhu	a2,66(sp)
 645:C:/Users/stapi/OneDrive/Desktop/GD32VW553/V1_MQTT_OK/GD32VW55X_Wifi_BLE_SDK/GD32VW55x_RELEASE_V1.0.2/MSDK/cloud/alicloud/src/protocol/coap/local\CoAPMessage.c ****         if (node->header.msgid == message->header.msgid) {
 3086              		.loc 1 645 5
 3087 010e 13078401 		addi	a4,s0,24
 3088 0112 938487FC 		addi	s1,a5,-56
 3089              	.LVL322:
 3090 0116 DC43     		lw	a5,4(a5)
 3091 0118 938787FC 		addi	a5,a5,-56
 3092              	.LVL323:
 3093              	.L213:
 645:C:/Users/stapi/OneDrive/Desktop/GD32VW553/V1_MQTT_OK/GD32VW55X_Wifi_BLE_SDK/GD32VW55x_RELEASE_V1.0.2/MSDK/cloud/alicloud/src/protocol/coap/local\CoAPMessage.c ****         if (node->header.msgid == message->header.msgid) {
 3094              		.loc 1 645 5 is_stmt 1
 3095 011c 93868403 		addi	a3,s1,56
 3096 0120 6398E600 		bne	a3,a4,.L218
 3097              	.LVL324:
 3098              	.L233:
 3099              	.LBE151:
 3100              	.LBE150:
 3101              	.LBB161:
 3102              	.LBB162:
 784:C:/Users/stapi/OneDrive/Desktop/GD32VW553/V1_MQTT_OK/GD32VW55X_Wifi_BLE_SDK/GD32VW55x_RELEASE_V1.0.2/MSDK/cloud/alicloud/src/protocol/coap/local\CoAPMessage.c **** 
 3103              		.loc 1 784 5
 3104 0124 4848     		lw	a0,20(s0)
 3105 0126 97000000 		call	HAL_MutexUnlock
 3105      E7800000 
 3106              	.LVL325:
 786:C:/Users/stapi/OneDrive/Desktop/GD32VW553/V1_MQTT_OK/GD32VW55X_Wifi_BLE_SDK/GD32VW55x_RELEASE_V1.0.2/MSDK/cloud/alicloud/src/protocol/coap/local\CoAPMessage.c **** }
 3107              		.loc 1 786 5
 786:C:/Users/stapi/OneDrive/Desktop/GD32VW553/V1_MQTT_OK/GD32VW55X_Wifi_BLE_SDK/GD32VW55x_RELEASE_V1.0.2/MSDK/cloud/alicloud/src/protocol/coap/local\CoAPMessage.c **** }
 3108              		.loc 1 786 12 is_stmt 0
 3109 012e 45A0     		j	.L246
 3110              	.LVL326:
 3111              	.L218:
 3112              	.LBE162:
 3113              	.LBE161:
 3114              	.LBB174:
 3115              	.LBB158:
 646:C:/Users/stapi/OneDrive/Desktop/GD32VW553/V1_MQTT_OK/GD32VW55X_Wifi_BLE_SDK/GD32VW55x_RELEASE_V1.0.2/MSDK/cloud/alicloud/src/protocol/coap/local\CoAPMessage.c ****             CoAPSendMsgHandler handler = node->handler;
 3116              		.loc 1 646 9 is_stmt 1
 646:C:/Users/stapi/OneDrive/Desktop/GD32VW553/V1_MQTT_OK/GD32VW55X_Wifi_BLE_SDK/GD32VW55x_RELEASE_V1.0.2/MSDK/cloud/alicloud/src/protocol/coap/local\CoAPMessage.c ****             CoAPSendMsgHandler handler = node->handler;
 3117              		.loc 1 646 12 is_stmt 0
 3118 0130 83D62400 		lhu	a3,2(s1)
 3119 0134 6394C60A 		bne	a3,a2,.L214
 3120              	.LBB152:
 647:C:/Users/stapi/OneDrive/Desktop/GD32VW553/V1_MQTT_OK/GD32VW55X_Wifi_BLE_SDK/GD32VW55x_RELEASE_V1.0.2/MSDK/cloud/alicloud/src/protocol/coap/local\CoAPMessage.c ****             void *user_data = node->user;
 3121              		.loc 1 647 13 is_stmt 1
 650:C:/Users/stapi/OneDrive/Desktop/GD32VW553/V1_MQTT_OK/GD32VW55X_Wifi_BLE_SDK/GD32VW55x_RELEASE_V1.0.2/MSDK/cloud/alicloud/src/protocol/coap/local\CoAPMessage.c ****             node->acked = 1;
 3122              		.loc 1 650 13 is_stmt 0
 3123 0138 4946     		li	a2,18
 3124 013a 93854402 		addi	a1,s1,36
 3125 013e A801     		addi	a0,sp,200
 647:C:/Users/stapi/OneDrive/Desktop/GD32VW553/V1_MQTT_OK/GD32VW55X_Wifi_BLE_SDK/GD32VW55x_RELEASE_V1.0.2/MSDK/cloud/alicloud/src/protocol/coap/local\CoAPMessage.c ****             void *user_data = node->user;
 3126              		.loc 1 647 32
 3127 0140 83A90402 		lw	s3,32(s1)
 3128              	.LVL327:
 648:C:/Users/stapi/OneDrive/Desktop/GD32VW553/V1_MQTT_OK/GD32VW55X_Wifi_BLE_SDK/GD32VW55x_RELEASE_V1.0.2/MSDK/cloud/alicloud/src/protocol/coap/local\CoAPMessage.c ****             NetworkAddr remote = {0};
 3129              		.loc 1 648 13 is_stmt 1
 648:C:/Users/stapi/OneDrive/Desktop/GD32VW553/V1_MQTT_OK/GD32VW55X_Wifi_BLE_SDK/GD32VW55x_RELEASE_V1.0.2/MSDK/cloud/alicloud/src/protocol/coap/local\CoAPMessage.c ****             NetworkAddr remote = {0};
 3130              		.loc 1 648 19 is_stmt 0
 3131 0144 03AA0404 		lw	s4,64(s1)
 3132              	.LVL328:
 649:C:/Users/stapi/OneDrive/Desktop/GD32VW553/V1_MQTT_OK/GD32VW55X_Wifi_BLE_SDK/GD32VW55x_RELEASE_V1.0.2/MSDK/cloud/alicloud/src/protocol/coap/local\CoAPMessage.c ****             memcpy(&remote, &node->remote, sizeof(remote));
 3133              		.loc 1 649 13 is_stmt 1
 650:C:/Users/stapi/OneDrive/Desktop/GD32VW553/V1_MQTT_OK/GD32VW55X_Wifi_BLE_SDK/GD32VW55x_RELEASE_V1.0.2/MSDK/cloud/alicloud/src/protocol/coap/local\CoAPMessage.c ****             node->acked = 1;
 3134              		.loc 1 650 13
 3135 0148 97000000 		call	memcpy
 3135      E7800000 
 3136              	.LVL329:
 651:C:/Users/stapi/OneDrive/Desktop/GD32VW553/V1_MQTT_OK/GD32VW55X_Wifi_BLE_SDK/GD32VW55x_RELEASE_V1.0.2/MSDK/cloud/alicloud/src/protocol/coap/local\CoAPMessage.c ****             if (CoAPRespMsg(node->header)) { //CON response message
 3137              		.loc 1 651 13
 651:C:/Users/stapi/OneDrive/Desktop/GD32VW553/V1_MQTT_OK/GD32VW55X_Wifi_BLE_SDK/GD32VW55x_RELEASE_V1.0.2/MSDK/cloud/alicloud/src/protocol/coap/local\CoAPMessage.c ****             if (CoAPRespMsg(node->header)) { //CON response message
 3138              		.loc 1 651 25 is_stmt 0
 3139 0150 8547     		li	a5,1
 3140 0152 BCC4     		sw	a5,72(s1)
 652:C:/Users/stapi/OneDrive/Desktop/GD32VW553/V1_MQTT_OK/GD32VW55X_Wifi_BLE_SDK/GD32VW55x_RELEASE_V1.0.2/MSDK/cloud/alicloud/src/protocol/coap/local\CoAPMessage.c ****                 list_del(&node->sendlist);
 3141              		.loc 1 652 13 is_stmt 1
 652:C:/Users/stapi/OneDrive/Desktop/GD32VW553/V1_MQTT_OK/GD32VW55X_Wifi_BLE_SDK/GD32VW55x_RELEASE_V1.0.2/MSDK/cloud/alicloud/src/protocol/coap/local\CoAPMessage.c ****                 list_del(&node->sendlist);
 3142              		.loc 1 652 17 is_stmt 0
 3143 0154 83C71400 		lbu	a5,1(s1)
 3144 0158 938707FC 		addi	a5,a5,-64
 652:C:/Users/stapi/OneDrive/Desktop/GD32VW553/V1_MQTT_OK/GD32VW55X_Wifi_BLE_SDK/GD32VW55x_RELEASE_V1.0.2/MSDK/cloud/alicloud/src/protocol/coap/local\CoAPMessage.c ****                 list_del(&node->sendlist);
 3145              		.loc 1 652 16
 3146 015c 93974760 		sext.b	a5,a5
 3147 0160 63CA0704 		blt	a5,zero,.L215
 653:C:/Users/stapi/OneDrive/Desktop/GD32VW553/V1_MQTT_OK/GD32VW55X_Wifi_BLE_SDK/GD32VW55x_RELEASE_V1.0.2/MSDK/cloud/alicloud/src/protocol/coap/local\CoAPMessage.c ****                 coap_free(node->message);
 3148              		.loc 1 653 17 is_stmt 1
 3149              	.LVL330:
 3150              	.LBB153:
 3151              	.LBB154:
  68:..\..\..\..\cloud\alicloud\src\infra\utils\misc/lite-list.h ****     dlist_t *next = node->next;
 3152              		.loc 2 68 5
  68:..\..\..\..\cloud\alicloud\src\infra\utils\misc/lite-list.h ****     dlist_t *next = node->next;
 3153              		.loc 2 68 14 is_stmt 0
 3154 0164 985C     		lw	a4,56(s1)
 3155              	.LVL331:
  69:..\..\..\..\cloud\alicloud\src\infra\utils\misc/lite-list.h **** 
 3156              		.loc 2 69 5 is_stmt 1
  69:..\..\..\..\cloud\alicloud\src\infra\utils\misc/lite-list.h **** 
 3157              		.loc 2 69 14 is_stmt 0
 3158 0166 DC5C     		lw	a5,60(s1)
 3159              	.LVL332:
  71:..\..\..\..\cloud\alicloud\src\infra\utils\misc/lite-list.h ****     next->prev = prev;
 3160              		.loc 2 71 5 is_stmt 1
 3161              	.LBE154:
 3162              	.LBE153:
 654:C:/Users/stapi/OneDrive/Desktop/GD32VW553/V1_MQTT_OK/GD32VW55X_Wifi_BLE_SDK/GD32VW55x_RELEASE_V1.0.2/MSDK/cloud/alicloud/src/protocol/coap/local\CoAPMessage.c ****                 coap_free(node);
 3163              		.loc 1 654 17 is_stmt 0
 3164 0168 E840     		lw	a0,68(s1)
 3165              	.LBB156:
 3166              	.LBB155:
  71:..\..\..\..\cloud\alicloud\src\infra\utils\misc/lite-list.h ****     next->prev = prev;
 3167              		.loc 2 71 16
 3168 016a 5CC3     		sw	a5,4(a4)
 3169              		.loc 2 72 5 is_stmt 1
 3170              		.loc 2 72 16 is_stmt 0
 3171 016c 98C3     		sw	a4,0(a5)
 3172              	.LVL333:
 3173              	.LBE155:
 3174              	.LBE156:
 654:C:/Users/stapi/OneDrive/Desktop/GD32VW553/V1_MQTT_OK/GD32VW55X_Wifi_BLE_SDK/GD32VW55x_RELEASE_V1.0.2/MSDK/cloud/alicloud/src/protocol/coap/local\CoAPMessage.c ****                 coap_free(node);
 3175              		.loc 1 654 17 is_stmt 1
 3176 016e 97000000 		call	LITE_free_internal
 3176      E7800000 
 3177              	.LVL334:
 655:C:/Users/stapi/OneDrive/Desktop/GD32VW553/V1_MQTT_OK/GD32VW55X_Wifi_BLE_SDK/GD32VW55x_RELEASE_V1.0.2/MSDK/cloud/alicloud/src/protocol/coap/local\CoAPMessage.c ****                 ctx->sendlist.count --;
 3178              		.loc 1 655 17
 3179 0176 2685     		mv	a0,s1
 3180 0178 97000000 		call	LITE_free_internal
 3180      E7800000 
 3181              	.LVL335:
 656:C:/Users/stapi/OneDrive/Desktop/GD32VW553/V1_MQTT_OK/GD32VW55X_Wifi_BLE_SDK/GD32VW55x_RELEASE_V1.0.2/MSDK/cloud/alicloud/src/protocol/coap/local\CoAPMessage.c ****                 COAP_DEBUG("The CON response message %d receive ACK, remove it, cur:%d",
 3182              		.loc 1 656 17
 656:C:/Users/stapi/OneDrive/Desktop/GD32VW553/V1_MQTT_OK/GD32VW55X_Wifi_BLE_SDK/GD32VW55x_RELEASE_V1.0.2/MSDK/cloud/alicloud/src/protocol/coap/local\CoAPMessage.c ****                 COAP_DEBUG("The CON response message %d receive ACK, remove it, cur:%d",
 3183              		.loc 1 656 37 is_stmt 0
 3184 0180 03480402 		lbu	a6,32(s0)
 657:C:/Users/stapi/OneDrive/Desktop/GD32VW553/V1_MQTT_OK/GD32VW55X_Wifi_BLE_SDK/GD32VW55x_RELEASE_V1.0.2/MSDK/cloud/alicloud/src/protocol/coap/local\CoAPMessage.c ****                         message->header.msgid, ctx->sendlist.count);
 3185              		.loc 1 657 17
 3186 0184 83572104 		lhu	a5,66(sp)
 3187 0188 37070000 		lui	a4,%hi(.LC23)
 656:C:/Users/stapi/OneDrive/Desktop/GD32VW553/V1_MQTT_OK/GD32VW55X_Wifi_BLE_SDK/GD32VW55x_RELEASE_V1.0.2/MSDK/cloud/alicloud/src/protocol/coap/local\CoAPMessage.c ****                 COAP_DEBUG("The CON response message %d receive ACK, remove it, cur:%d",
 3188              		.loc 1 656 37
 3189 018c 7D18     		addi	a6,a6,-1
 3190 018e 1378F80F 		andi	a6,a6,0xff
 657:C:/Users/stapi/OneDrive/Desktop/GD32VW553/V1_MQTT_OK/GD32VW55X_Wifi_BLE_SDK/GD32VW55x_RELEASE_V1.0.2/MSDK/cloud/alicloud/src/protocol/coap/local\CoAPMessage.c ****                         message->header.msgid, ctx->sendlist.count);
 3191              		.loc 1 657 17
 3192 0192 B7050000 		lui	a1,%hi(.LANCHOR8)
 656:C:/Users/stapi/OneDrive/Desktop/GD32VW553/V1_MQTT_OK/GD32VW55X_Wifi_BLE_SDK/GD32VW55x_RELEASE_V1.0.2/MSDK/cloud/alicloud/src/protocol/coap/local\CoAPMessage.c ****                 COAP_DEBUG("The CON response message %d receive ACK, remove it, cur:%d",
 3193              		.loc 1 656 37
 3194 0196 23000403 		sb	a6,32(s0)
 657:C:/Users/stapi/OneDrive/Desktop/GD32VW553/V1_MQTT_OK/GD32VW55X_Wifi_BLE_SDK/GD32VW55x_RELEASE_V1.0.2/MSDK/cloud/alicloud/src/protocol/coap/local\CoAPMessage.c ****                         message->header.msgid, ctx->sendlist.count);
 3195              		.loc 1 657 17 is_stmt 1
 3196 019a 13070700 		addi	a4,a4,%lo(.LC23)
 3197 019e 9546     		li	a3,5
 3198 01a0 13061029 		li	a2,657
 3199 01a4 93850500 		addi	a1,a1,%lo(.LANCHOR8)
 3200 01a8 13050900 		addi	a0,s2,%lo(.LC1)
 3201 01ac 97000000 		call	LITE_syslog
 3201      E7800000 
 3202              	.LVL336:
 3203              	.L215:
 660:C:/Users/stapi/OneDrive/Desktop/GD32VW553/V1_MQTT_OK/GD32VW55X_Wifi_BLE_SDK/GD32VW55x_RELEASE_V1.0.2/MSDK/cloud/alicloud/src/protocol/coap/local\CoAPMessage.c ****             HAL_MutexUnlock(ctx->sendlist.list_mutex);
 3204              		.loc 1 660 13
 3205              	.LBE152:
 3206              	.LBE158:
 3207              	.LBE174:
 3208              	.LBE194:
 3209              	.LBE199:
 608:C:/Users/stapi/OneDrive/Desktop/GD32VW553/V1_MQTT_OK/GD32VW55X_Wifi_BLE_SDK/GD32VW55x_RELEASE_V1.0.2/MSDK/cloud/alicloud/src/protocol/coap/local\CoAPMessage.c **** }
 3210              		.loc 1 608 5
 3211              	.LBB200:
 3212              	.LBB195:
 3213              	.LBB175:
 3214              	.LBB159:
 3215              	.LBB157:
 661:C:/Users/stapi/OneDrive/Desktop/GD32VW553/V1_MQTT_OK/GD32VW55X_Wifi_BLE_SDK/GD32VW55x_RELEASE_V1.0.2/MSDK/cloud/alicloud/src/protocol/coap/local\CoAPMessage.c ****             if (handler) handler(ctx, COAP_RECV_RESP_SUC, user_data, &remote, NULL);
 3216              		.loc 1 661 13
 3217 01b4 4848     		lw	a0,20(s0)
 3218 01b6 97000000 		call	HAL_MutexUnlock
 3218      E7800000 
 3219              	.LVL337:
 662:C:/Users/stapi/OneDrive/Desktop/GD32VW553/V1_MQTT_OK/GD32VW55X_Wifi_BLE_SDK/GD32VW55x_RELEASE_V1.0.2/MSDK/cloud/alicloud/src/protocol/coap/local\CoAPMessage.c ****             return COAP_SUCCESS;
 3220              		.loc 1 662 13
 662:C:/Users/stapi/OneDrive/Desktop/GD32VW553/V1_MQTT_OK/GD32VW55X_Wifi_BLE_SDK/GD32VW55x_RELEASE_V1.0.2/MSDK/cloud/alicloud/src/protocol/coap/local\CoAPMessage.c ****             return COAP_SUCCESS;
 3221              		.loc 1 662 16 is_stmt 0
 3222 01be 63880900 		beq	s3,zero,.L246
 662:C:/Users/stapi/OneDrive/Desktop/GD32VW553/V1_MQTT_OK/GD32VW55X_Wifi_BLE_SDK/GD32VW55x_RELEASE_V1.0.2/MSDK/cloud/alicloud/src/protocol/coap/local\CoAPMessage.c ****             return COAP_SUCCESS;
 3223              		.loc 1 662 26 is_stmt 1
 3224 01c2 0147     		li	a4,0
 3225 01c4 B401     		addi	a3,sp,200
 3226 01c6 5286     		mv	a2,s4
 3227 01c8 8945     		li	a1,2
 3228 01ca 2285     		mv	a0,s0
 3229 01cc 8299     		jalr	s3
 3230              	.LVL338:
 663:C:/Users/stapi/OneDrive/Desktop/GD32VW553/V1_MQTT_OK/GD32VW55X_Wifi_BLE_SDK/GD32VW55x_RELEASE_V1.0.2/MSDK/cloud/alicloud/src/protocol/coap/local\CoAPMessage.c ****         }
 3231              		.loc 1 663 13
 3232              	.L246:
 3233              	.LBE157:
 3234              	.LBE159:
 3235              	.LBE175:
 3236              	.LBE195:
 3237              	.LBE200:
 909:C:/Users/stapi/OneDrive/Desktop/GD32VW553/V1_MQTT_OK/GD32VW55X_Wifi_BLE_SDK/GD32VW55x_RELEASE_V1.0.2/MSDK/cloud/alicloud/src/protocol/coap/local\CoAPMessage.c ****             CoAPMessage_handle(ctx, &remote, ctx->recvbuf, len);
 3238              		.loc 1 909 24 is_stmt 0
 3239 01ce 8144     		li	s1,0
 3240              	.LVL339:
 3241              	.L208:
 911:C:/Users/stapi/OneDrive/Desktop/GD32VW553/V1_MQTT_OK/GD32VW55X_Wifi_BLE_SDK/GD32VW55x_RELEASE_V1.0.2/MSDK/cloud/alicloud/src/protocol/coap/local\CoAPMessage.c ****         } else {
 912:C:/Users/stapi/OneDrive/Desktop/GD32VW553/V1_MQTT_OK/GD32VW55X_Wifi_BLE_SDK/GD32VW55x_RELEASE_V1.0.2/MSDK/cloud/alicloud/src/protocol/coap/local\CoAPMessage.c ****             return len;
 913:C:/Users/stapi/OneDrive/Desktop/GD32VW553/V1_MQTT_OK/GD32VW55X_Wifi_BLE_SDK/GD32VW55x_RELEASE_V1.0.2/MSDK/cloud/alicloud/src/protocol/coap/local\CoAPMessage.c ****         }
 914:C:/Users/stapi/OneDrive/Desktop/GD32VW553/V1_MQTT_OK/GD32VW55X_Wifi_BLE_SDK/GD32VW55x_RELEASE_V1.0.2/MSDK/cloud/alicloud/src/protocol/coap/local\CoAPMessage.c ****     //}
 915:C:/Users/stapi/OneDrive/Desktop/GD32VW553/V1_MQTT_OK/GD32VW55X_Wifi_BLE_SDK/GD32VW55x_RELEASE_V1.0.2/MSDK/cloud/alicloud/src/protocol/coap/local\CoAPMessage.c ****     return 0;
 916:C:/Users/stapi/OneDrive/Desktop/GD32VW553/V1_MQTT_OK/GD32VW55X_Wifi_BLE_SDK/GD32VW55x_RELEASE_V1.0.2/MSDK/cloud/alicloud/src/protocol/coap/local\CoAPMessage.c **** }
 3242              		.loc 1 916 1
 3243 01d0 2685     		mv	a0,s1
 3244 01d2 7161     		addi	sp,sp,336
 3245              		.cfi_remember_state
 3246              		.cfi_def_cfa_offset 0
 3247              	.LVL340:
 3248 01d4 17030000 		tail	__riscv_restore_10
 3248      67000300 
 3249              		.cfi_restore 25
 3250              		.cfi_restore 24
 3251              		.cfi_restore 23
 3252              		.cfi_restore 22
 3253              		.cfi_restore 21
 3254              		.cfi_restore 20
 3255              		.cfi_restore 19
 3256              		.cfi_restore 18
 3257              		.cfi_restore 9
 3258              		.cfi_restore 8
 3259              		.cfi_restore 1
 3260              		.cfi_def_cfa_offset -48
 3261              	.LVL341:
 3262              	.L214:
 3263              		.cfi_restore_state
 3264              	.LBB201:
 3265              	.LBB196:
 3266              	.LBB176:
 3267              	.LBB160:
 645:C:/Users/stapi/OneDrive/Desktop/GD32VW553/V1_MQTT_OK/GD32VW55X_Wifi_BLE_SDK/GD32VW55x_RELEASE_V1.0.2/MSDK/cloud/alicloud/src/protocol/coap/local\CoAPMessage.c ****         if (node->header.msgid == message->header.msgid) {
 3268              		.loc 1 645 5 is_stmt 1
 3269 01dc D45F     		lw	a3,60(a5)
 3270              	.LVL342:
 3271 01de BE84     		mv	s1,a5
 3272 01e0 938786FC 		addi	a5,a3,-56
 3273              	.LVL343:
 3274 01e4 25BF     		j	.L213
 3275              	.LVL344:
 3276              	.L212:
 3277              	.LBE160:
 3278              	.LBE176:
 875:C:/Users/stapi/OneDrive/Desktop/GD32VW553/V1_MQTT_OK/GD32VW55X_Wifi_BLE_SDK/GD32VW55x_RELEASE_V1.0.2/MSDK/cloud/alicloud/src/protocol/coap/local\CoAPMessage.c ****         CoAPRespMessage_handle(ctx, remote, &message);
 3279              		.loc 1 875 12
 875:C:/Users/stapi/OneDrive/Desktop/GD32VW553/V1_MQTT_OK/GD32VW55X_Wifi_BLE_SDK/GD32VW55x_RELEASE_V1.0.2/MSDK/cloud/alicloud/src/protocol/coap/local\CoAPMessage.c ****         CoAPRespMessage_handle(ctx, remote, &message);
 3280              		.loc 1 875 16 is_stmt 0
 3281 01e6 83471104 		lbu	a5,65(sp)
 3282 01ea 138607FC 		addi	a2,a5,-64
 875:C:/Users/stapi/OneDrive/Desktop/GD32VW553/V1_MQTT_OK/GD32VW55X_Wifi_BLE_SDK/GD32VW55x_RELEASE_V1.0.2/MSDK/cloud/alicloud/src/protocol/coap/local\CoAPMessage.c ****         CoAPRespMessage_handle(ctx, remote, &message);
 3283              		.loc 1 875 15
 3284 01ee 13164660 		sext.b	a2,a2
 3285 01f2 6340061C 		blt	a2,zero,.L219
 876:C:/Users/stapi/OneDrive/Desktop/GD32VW553/V1_MQTT_OK/GD32VW55X_Wifi_BLE_SDK/GD32VW55x_RELEASE_V1.0.2/MSDK/cloud/alicloud/src/protocol/coap/local\CoAPMessage.c ****     } else if (CoAPPingMsg(message.header)) {
 3286              		.loc 1 876 9 is_stmt 1
 3287              	.LVL345:
 3288              	.LBB177:
 3289              	.LBB171:
 724:C:/Users/stapi/OneDrive/Desktop/GD32VW553/V1_MQTT_OK/GD32VW55X_Wifi_BLE_SDK/GD32VW55x_RELEASE_V1.0.2/MSDK/cloud/alicloud/src/protocol/coap/local\CoAPMessage.c ****     CoAPSendNode       *node = NULL, *next = NULL;
 3290              		.loc 1 724 5
 725:C:/Users/stapi/OneDrive/Desktop/GD32VW553/V1_MQTT_OK/GD32VW55X_Wifi_BLE_SDK/GD32VW55x_RELEASE_V1.0.2/MSDK/cloud/alicloud/src/protocol/coap/local\CoAPMessage.c ****     CoAPIntContext     *ctx = (CoAPIntContext *)context;
 3291              		.loc 1 725 5
 726:C:/Users/stapi/OneDrive/Desktop/GD32VW553/V1_MQTT_OK/GD32VW55X_Wifi_BLE_SDK/GD32VW55x_RELEASE_V1.0.2/MSDK/cloud/alicloud/src/protocol/coap/local\CoAPMessage.c ****     CoAPSendNode       targetNode;
 3292              		.loc 1 726 5
 727:C:/Users/stapi/OneDrive/Desktop/GD32VW553/V1_MQTT_OK/GD32VW55X_Wifi_BLE_SDK/GD32VW55x_RELEASE_V1.0.2/MSDK/cloud/alicloud/src/protocol/coap/local\CoAPMessage.c **** 
 3293              		.loc 1 727 5
 729:C:/Users/stapi/OneDrive/Desktop/GD32VW553/V1_MQTT_OK/GD32VW55X_Wifi_BLE_SDK/GD32VW55x_RELEASE_V1.0.2/MSDK/cloud/alicloud/src/protocol/coap/local\CoAPMessage.c ****         CoAPAckMessage_send(ctx, remote, message->header.msgid);
 3294              		.loc 1 729 5
 729:C:/Users/stapi/OneDrive/Desktop/GD32VW553/V1_MQTT_OK/GD32VW55X_Wifi_BLE_SDK/GD32VW55x_RELEASE_V1.0.2/MSDK/cloud/alicloud/src/protocol/coap/local\CoAPMessage.c ****         CoAPAckMessage_send(ctx, remote, message->header.msgid);
 3295              		.loc 1 729 8 is_stmt 0
 3296 01f6 89EA     		bne	a3,zero,.L220
 730:C:/Users/stapi/OneDrive/Desktop/GD32VW553/V1_MQTT_OK/GD32VW55X_Wifi_BLE_SDK/GD32VW55x_RELEASE_V1.0.2/MSDK/cloud/alicloud/src/protocol/coap/local\CoAPMessage.c ****     }
 3297              		.loc 1 730 9 is_stmt 1
 3298 01f8 03562104 		lhu	a2,66(sp)
 3299 01fc 6C10     		addi	a1,sp,44
 3300              	.LVL346:
 3301 01fe 2285     		mv	a0,s0
 3302 0200 97000000 		call	CoAPAckMessage_send.isra.0
 3302      E7800000 
 3303              	.LVL347:
 3304              	.L220:
 733:C:/Users/stapi/OneDrive/Desktop/GD32VW553/V1_MQTT_OK/GD32VW55X_Wifi_BLE_SDK/GD32VW55x_RELEASE_V1.0.2/MSDK/cloud/alicloud/src/protocol/coap/local\CoAPMessage.c ****     list_for_each_entry_safe(node, next, &ctx->sendlist.list, sendlist, CoAPSendNode) {
 3305              		.loc 1 733 5
 3306 0208 4848     		lw	a0,20(s0)
 734:C:/Users/stapi/OneDrive/Desktop/GD32VW553/V1_MQTT_OK/GD32VW55X_Wifi_BLE_SDK/GD32VW55x_RELEASE_V1.0.2/MSDK/cloud/alicloud/src/protocol/coap/local\CoAPMessage.c ****         if (0 != node->header.tokenlen && node->header.tokenlen == message->header.tokenlen
 3307              		.loc 1 734 5 is_stmt 0
 3308 020a 130A8401 		addi	s4,s0,24
 733:C:/Users/stapi/OneDrive/Desktop/GD32VW553/V1_MQTT_OK/GD32VW55X_Wifi_BLE_SDK/GD32VW55x_RELEASE_V1.0.2/MSDK/cloud/alicloud/src/protocol/coap/local\CoAPMessage.c ****     list_for_each_entry_safe(node, next, &ctx->sendlist.list, sendlist, CoAPSendNode) {
 3309              		.loc 1 733 5
 3310 020e 97000000 		call	HAL_MutexLock
 3310      E7800000 
 3311              	.LVL348:
 734:C:/Users/stapi/OneDrive/Desktop/GD32VW553/V1_MQTT_OK/GD32VW55X_Wifi_BLE_SDK/GD32VW55x_RELEASE_V1.0.2/MSDK/cloud/alicloud/src/protocol/coap/local\CoAPMessage.c ****         if (0 != node->header.tokenlen && node->header.tokenlen == message->header.tokenlen
 3312              		.loc 1 734 5 is_stmt 1
 3313 0216 5C4C     		lw	a5,28(s0)
 736:C:/Users/stapi/OneDrive/Desktop/GD32VW553/V1_MQTT_OK/GD32VW55X_Wifi_BLE_SDK/GD32VW55x_RELEASE_V1.0.2/MSDK/cloud/alicloud/src/protocol/coap/local\CoAPMessage.c **** 
 3314              		.loc 1 736 76 is_stmt 0
 3315 0218 8649     		lw	s3,64(sp)
 735:C:/Users/stapi/OneDrive/Desktop/GD32VW553/V1_MQTT_OK/GD32VW55X_Wifi_BLE_SDK/GD32VW55x_RELEASE_V1.0.2/MSDK/cloud/alicloud/src/protocol/coap/local\CoAPMessage.c ****                 && 0 == memcmp(node->token, message->token, message->header.tokenlen)){
 3316              		.loc 1 735 65
 3317 021a 034B0104 		lbu	s6,64(sp)
 734:C:/Users/stapi/OneDrive/Desktop/GD32VW553/V1_MQTT_OK/GD32VW55X_Wifi_BLE_SDK/GD32VW55x_RELEASE_V1.0.2/MSDK/cloud/alicloud/src/protocol/coap/local\CoAPMessage.c ****         if (0 != node->header.tokenlen && node->header.tokenlen == message->header.tokenlen
 3318              		.loc 1 734 5
 3319 021e 83AA4700 		lw	s5,4(a5)
 736:C:/Users/stapi/OneDrive/Desktop/GD32VW553/V1_MQTT_OK/GD32VW55X_Wifi_BLE_SDK/GD32VW55x_RELEASE_V1.0.2/MSDK/cloud/alicloud/src/protocol/coap/local\CoAPMessage.c **** 
 3320              		.loc 1 736 76
 3321 0222 93D94900 		srli	s3,s3,4
 734:C:/Users/stapi/OneDrive/Desktop/GD32VW553/V1_MQTT_OK/GD32VW55X_Wifi_BLE_SDK/GD32VW55x_RELEASE_V1.0.2/MSDK/cloud/alicloud/src/protocol/coap/local\CoAPMessage.c ****         if (0 != node->header.tokenlen && node->header.tokenlen == message->header.tokenlen
 3322              		.loc 1 734 5
 3323 0226 938487FC 		addi	s1,a5,-56
 3324              	.LVL349:
 3325 022a 938A8AFC 		addi	s5,s5,-56
 3326              	.LVL350:
 736:C:/Users/stapi/OneDrive/Desktop/GD32VW553/V1_MQTT_OK/GD32VW55X_Wifi_BLE_SDK/GD32VW55x_RELEASE_V1.0.2/MSDK/cloud/alicloud/src/protocol/coap/local\CoAPMessage.c **** 
 3327              		.loc 1 736 25
 3328 022e 93F9F900 		andi	s3,s3,15
 3329              	.L221:
 734:C:/Users/stapi/OneDrive/Desktop/GD32VW553/V1_MQTT_OK/GD32VW55X_Wifi_BLE_SDK/GD32VW55x_RELEASE_V1.0.2/MSDK/cloud/alicloud/src/protocol/coap/local\CoAPMessage.c ****         if (0 != node->header.tokenlen && node->header.tokenlen == message->header.tokenlen
 3330              		.loc 1 734 5 is_stmt 1
 3331 0232 93878403 		addi	a5,s1,56
 3332 0236 6314FA00 		bne	s4,a5,.L224
 724:C:/Users/stapi/OneDrive/Desktop/GD32VW553/V1_MQTT_OK/GD32VW55X_Wifi_BLE_SDK/GD32VW55x_RELEASE_V1.0.2/MSDK/cloud/alicloud/src/protocol/coap/local\CoAPMessage.c ****     CoAPSendNode       *node = NULL, *next = NULL;
 3333              		.loc 1 724 25 is_stmt 0
 3334 023a 8144     		li	s1,0
 3335              	.LVL351:
 3336 023c 81A0     		j	.L223
 3337              	.LVL352:
 3338              	.L224:
 735:C:/Users/stapi/OneDrive/Desktop/GD32VW553/V1_MQTT_OK/GD32VW55X_Wifi_BLE_SDK/GD32VW55x_RELEASE_V1.0.2/MSDK/cloud/alicloud/src/protocol/coap/local\CoAPMessage.c ****                 && 0 == memcmp(node->token, message->token, message->header.tokenlen)){
 3339              		.loc 1 735 9 is_stmt 1
 735:C:/Users/stapi/OneDrive/Desktop/GD32VW553/V1_MQTT_OK/GD32VW55X_Wifi_BLE_SDK/GD32VW55x_RELEASE_V1.0.2/MSDK/cloud/alicloud/src/protocol/coap/local\CoAPMessage.c ****                 && 0 == memcmp(node->token, message->token, message->header.tokenlen)){
 3340              		.loc 1 735 15 is_stmt 0
 3341 023e 83C70400 		lbu	a5,0(s1)
 735:C:/Users/stapi/OneDrive/Desktop/GD32VW553/V1_MQTT_OK/GD32VW55X_Wifi_BLE_SDK/GD32VW55x_RELEASE_V1.0.2/MSDK/cloud/alicloud/src/protocol/coap/local\CoAPMessage.c ****                 && 0 == memcmp(node->token, message->token, message->header.tokenlen)){
 3342              		.loc 1 735 12
 3343 0242 13F7070F 		andi	a4,a5,240
 3344 0246 63000714 		beq	a4,zero,.L222
 735:C:/Users/stapi/OneDrive/Desktop/GD32VW553/V1_MQTT_OK/GD32VW55X_Wifi_BLE_SDK/GD32VW55x_RELEASE_V1.0.2/MSDK/cloud/alicloud/src/protocol/coap/local\CoAPMessage.c ****                 && 0 == memcmp(node->token, message->token, message->header.tokenlen)){
 3345              		.loc 1 735 65
 3346 024a B3C76701 		xor	a5,a5,s6
 735:C:/Users/stapi/OneDrive/Desktop/GD32VW553/V1_MQTT_OK/GD32VW55X_Wifi_BLE_SDK/GD32VW55x_RELEASE_V1.0.2/MSDK/cloud/alicloud/src/protocol/coap/local\CoAPMessage.c ****                 && 0 == memcmp(node->token, message->token, message->header.tokenlen)){
 3347              		.loc 1 735 40
 3348 024e 93F7070F 		andi	a5,a5,240
 3349 0252 639A0712 		bne	a5,zero,.L222
 736:C:/Users/stapi/OneDrive/Desktop/GD32VW553/V1_MQTT_OK/GD32VW55X_Wifi_BLE_SDK/GD32VW55x_RELEASE_V1.0.2/MSDK/cloud/alicloud/src/protocol/coap/local\CoAPMessage.c **** 
 3350              		.loc 1 736 25
 3351 0256 4E86     		mv	a2,s3
 3352 0258 CC00     		addi	a1,sp,68
 3353 025a 13855400 		addi	a0,s1,5
 3354 025e 97000000 		call	memcmp
 3354      E7800000 
 3355              	.LVL353:
 736:C:/Users/stapi/OneDrive/Desktop/GD32VW553/V1_MQTT_OK/GD32VW55X_Wifi_BLE_SDK/GD32VW55x_RELEASE_V1.0.2/MSDK/cloud/alicloud/src/protocol/coap/local\CoAPMessage.c **** 
 3356              		.loc 1 736 17
 3357 0266 63100512 		bne	a0,zero,.L222
 738:C:/Users/stapi/OneDrive/Desktop/GD32VW553/V1_MQTT_OK/GD32VW55X_Wifi_BLE_SDK/GD32VW55x_RELEASE_V1.0.2/MSDK/cloud/alicloud/src/protocol/coap/local\CoAPMessage.c ****             memcpy(&targetNode, node, sizeof(CoAPSendNode));
 3358              		.loc 1 738 13 is_stmt 1
 3359              	.LVL354:
 739:C:/Users/stapi/OneDrive/Desktop/GD32VW553/V1_MQTT_OK/GD32VW55X_Wifi_BLE_SDK/GD32VW55x_RELEASE_V1.0.2/MSDK/cloud/alicloud/src/protocol/coap/local\CoAPMessage.c ****             CoAPMessage_print_sendlist(context);
 3360              		.loc 1 739 13
 3361 026a A685     		mv	a1,s1
 3362 026c 13068005 		li	a2,88
 3363 0270 A801     		addi	a0,sp,200
 3364 0272 97000000 		call	memcpy
 3364      E7800000 
 3365              	.LVL355:
 740:C:/Users/stapi/OneDrive/Desktop/GD32VW553/V1_MQTT_OK/GD32VW55X_Wifi_BLE_SDK/GD32VW55x_RELEASE_V1.0.2/MSDK/cloud/alicloud/src/protocol/coap/local\CoAPMessage.c ****             break;
 3366              		.loc 1 740 13
 3367              	.LBB163:
 3368              	.LBB164:
 608:C:/Users/stapi/OneDrive/Desktop/GD32VW553/V1_MQTT_OK/GD32VW55X_Wifi_BLE_SDK/GD32VW55x_RELEASE_V1.0.2/MSDK/cloud/alicloud/src/protocol/coap/local\CoAPMessage.c **** }
 3369              		.loc 1 608 5
 3370              	.LBE164:
 3371              	.LBE163:
 738:C:/Users/stapi/OneDrive/Desktop/GD32VW553/V1_MQTT_OK/GD32VW55X_Wifi_BLE_SDK/GD32VW55x_RELEASE_V1.0.2/MSDK/cloud/alicloud/src/protocol/coap/local\CoAPMessage.c ****             memcpy(&targetNode, node, sizeof(CoAPSendNode));
 3372              		.loc 1 738 19 is_stmt 0
 3373 027a 8544     		li	s1,1
 3374              	.LVL356:
 3375              	.L223:
 744:C:/Users/stapi/OneDrive/Desktop/GD32VW553/V1_MQTT_OK/GD32VW55X_Wifi_BLE_SDK/GD32VW55x_RELEASE_V1.0.2/MSDK/cloud/alicloud/src/protocol/coap/local\CoAPMessage.c **** 
 3376              		.loc 1 744 5 is_stmt 1
 3377 027c 4848     		lw	a0,20(s0)
 3378 027e 97000000 		call	HAL_MutexUnlock
 3378      E7800000 
 3379              	.LVL357:
 750:C:/Users/stapi/OneDrive/Desktop/GD32VW553/V1_MQTT_OK/GD32VW55X_Wifi_BLE_SDK/GD32VW55x_RELEASE_V1.0.2/MSDK/cloud/alicloud/src/protocol/coap/local\CoAPMessage.c ****         message->user  = targetNode.user;
 3380              		.loc 1 750 5
 750:C:/Users/stapi/OneDrive/Desktop/GD32VW553/V1_MQTT_OK/GD32VW55X_Wifi_BLE_SDK/GD32VW55x_RELEASE_V1.0.2/MSDK/cloud/alicloud/src/protocol/coap/local\CoAPMessage.c ****         message->user  = targetNode.user;
 3381              		.loc 1 750 7 is_stmt 0
 3382 0286 A1C8     		beq	s1,zero,.L226
 3383              	.LVL358:
 751:C:/Users/stapi/OneDrive/Desktop/GD32VW553/V1_MQTT_OK/GD32VW55X_Wifi_BLE_SDK/GD32VW55x_RELEASE_V1.0.2/MSDK/cloud/alicloud/src/protocol/coap/local\CoAPMessage.c **** 
 3384              		.loc 1 751 9 is_stmt 1
 751:C:/Users/stapi/OneDrive/Desktop/GD32VW553/V1_MQTT_OK/GD32VW55X_Wifi_BLE_SDK/GD32VW55x_RELEASE_V1.0.2/MSDK/cloud/alicloud/src/protocol/coap/local\CoAPMessage.c **** 
 3385              		.loc 1 751 36 is_stmt 0
 3386 0288 83248110 		lw	s1,264(sp)
 753:C:/Users/stapi/OneDrive/Desktop/GD32VW553/V1_MQTT_OK/GD32VW55X_Wifi_BLE_SDK/GD32VW55x_RELEASE_V1.0.2/MSDK/cloud/alicloud/src/protocol/coap/local\CoAPMessage.c ****             if (NULL != ctx->notifier) {
 3387              		.loc 1 753 61
 3388 028c 03451104 		lbu	a0,65(sp)
 751:C:/Users/stapi/OneDrive/Desktop/GD32VW553/V1_MQTT_OK/GD32VW55X_Wifi_BLE_SDK/GD32VW55x_RELEASE_V1.0.2/MSDK/cloud/alicloud/src/protocol/coap/local\CoAPMessage.c **** 
 3389              		.loc 1 751 24
 3390 0290 26DD     		sw	s1,184(sp)
 753:C:/Users/stapi/OneDrive/Desktop/GD32VW553/V1_MQTT_OK/GD32VW55X_Wifi_BLE_SDK/GD32VW55x_RELEASE_V1.0.2/MSDK/cloud/alicloud/src/protocol/coap/local\CoAPMessage.c ****             if (NULL != ctx->notifier) {
 3391              		.loc 1 753 9 is_stmt 1
 753:C:/Users/stapi/OneDrive/Desktop/GD32VW553/V1_MQTT_OK/GD32VW55X_Wifi_BLE_SDK/GD32VW55x_RELEASE_V1.0.2/MSDK/cloud/alicloud/src/protocol/coap/local\CoAPMessage.c ****             if (NULL != ctx->notifier) {
 3392              		.loc 1 753 12 is_stmt 0
 3393 0292 93174560 		sext.b	a5,a0
 3394 0296 63D70700 		bge	a5,zero,.L227
 754:C:/Users/stapi/OneDrive/Desktop/GD32VW553/V1_MQTT_OK/GD32VW55X_Wifi_BLE_SDK/GD32VW55x_RELEASE_V1.0.2/MSDK/cloud/alicloud/src/protocol/coap/local\CoAPMessage.c ****                 ctx->notifier(message->header.code, remote, message);
 3395              		.loc 1 754 13 is_stmt 1
 754:C:/Users/stapi/OneDrive/Desktop/GD32VW553/V1_MQTT_OK/GD32VW55X_Wifi_BLE_SDK/GD32VW55x_RELEASE_V1.0.2/MSDK/cloud/alicloud/src/protocol/coap/local\CoAPMessage.c ****                 ctx->notifier(message->header.code, remote, message);
 3396              		.loc 1 754 28 is_stmt 0
 3397 029a 1C44     		lw	a5,8(s0)
 754:C:/Users/stapi/OneDrive/Desktop/GD32VW553/V1_MQTT_OK/GD32VW55X_Wifi_BLE_SDK/GD32VW55x_RELEASE_V1.0.2/MSDK/cloud/alicloud/src/protocol/coap/local\CoAPMessage.c ****                 ctx->notifier(message->header.code, remote, message);
 3398              		.loc 1 754 16
 3399 029c 81C7     		beq	a5,zero,.L227
 755:C:/Users/stapi/OneDrive/Desktop/GD32VW553/V1_MQTT_OK/GD32VW55X_Wifi_BLE_SDK/GD32VW55x_RELEASE_V1.0.2/MSDK/cloud/alicloud/src/protocol/coap/local\CoAPMessage.c ****             }
 3400              		.loc 1 755 17 is_stmt 1
 3401 029e 9000     		addi	a2,sp,64
 3402              	.LVL359:
 3403 02a0 6C10     		addi	a1,sp,44
 3404              	.LVL360:
 3405 02a2 8297     		jalr	a5
 3406              	.LVL361:
 3407              	.L227:
 759:C:/Users/stapi/OneDrive/Desktop/GD32VW553/V1_MQTT_OK/GD32VW55X_Wifi_BLE_SDK/GD32VW55x_RELEASE_V1.0.2/MSDK/cloud/alicloud/src/protocol/coap/local\CoAPMessage.c ****             targetNode.handler(ctx, COAP_REQUEST_SUCCESS, targetNode.user, remote, message);
 3408              		.loc 1 759 9
 759:C:/Users/stapi/OneDrive/Desktop/GD32VW553/V1_MQTT_OK/GD32VW55X_Wifi_BLE_SDK/GD32VW55x_RELEASE_V1.0.2/MSDK/cloud/alicloud/src/protocol/coap/local\CoAPMessage.c ****             targetNode.handler(ctx, COAP_REQUEST_SUCCESS, targetNode.user, remote, message);
 3409              		.loc 1 759 31 is_stmt 0
 3410 02a4 AE57     		lw	a5,232(sp)
 759:C:/Users/stapi/OneDrive/Desktop/GD32VW553/V1_MQTT_OK/GD32VW55X_Wifi_BLE_SDK/GD32VW55x_RELEASE_V1.0.2/MSDK/cloud/alicloud/src/protocol/coap/local\CoAPMessage.c ****             targetNode.handler(ctx, COAP_REQUEST_SUCCESS, targetNode.user, remote, message);
 3411              		.loc 1 759 12
 3412 02a6 85CB     		beq	a5,zero,.L226
 760:C:/Users/stapi/OneDrive/Desktop/GD32VW553/V1_MQTT_OK/GD32VW55X_Wifi_BLE_SDK/GD32VW55x_RELEASE_V1.0.2/MSDK/cloud/alicloud/src/protocol/coap/local\CoAPMessage.c ****             COAP_FLOW("Call the response message callback");
 3413              		.loc 1 760 13 is_stmt 1
 3414 02a8 9800     		addi	a4,sp,64
 3415              	.LVL362:
 3416 02aa 7410     		addi	a3,sp,44
 3417              	.LVL363:
 3418 02ac 2686     		mv	a2,s1
 3419 02ae 8145     		li	a1,0
 3420 02b0 2285     		mv	a0,s0
 3421 02b2 8297     		jalr	a5
 3422              	.LVL364:
 761:C:/Users/stapi/OneDrive/Desktop/GD32VW553/V1_MQTT_OK/GD32VW55X_Wifi_BLE_SDK/GD32VW55x_RELEASE_V1.0.2/MSDK/cloud/alicloud/src/protocol/coap/local\CoAPMessage.c ****         }
 3423              		.loc 1 761 13
 3424 02b4 37070000 		lui	a4,%hi(.LC24)
 3425 02b8 B7050000 		lui	a1,%hi(.LANCHOR9)
 3426 02bc 13070700 		addi	a4,a4,%lo(.LC24)
 3427 02c0 9546     		li	a3,5
 3428 02c2 1306902F 		li	a2,761
 3429 02c6 93850500 		addi	a1,a1,%lo(.LANCHOR9)
 3430 02ca 13050900 		addi	a0,s2,%lo(.LC1)
 3431 02ce 97000000 		call	LITE_syslog
 3431      E7800000 
 3432              	.LVL365:
 3433              	.L226:
 765:C:/Users/stapi/OneDrive/Desktop/GD32VW553/V1_MQTT_OK/GD32VW55X_Wifi_BLE_SDK/GD32VW55x_RELEASE_V1.0.2/MSDK/cloud/alicloud/src/protocol/coap/local\CoAPMessage.c ****     list_for_each_entry_safe(node, next, &ctx->sendlist.list, sendlist, CoAPSendNode) {
 3434              		.loc 1 765 5
 3435 02d6 4848     		lw	a0,20(s0)
 3436 02d8 97000000 		call	HAL_MutexLock
 3436      E7800000 
 3437              	.LVL366:
 766:C:/Users/stapi/OneDrive/Desktop/GD32VW553/V1_MQTT_OK/GD32VW55X_Wifi_BLE_SDK/GD32VW55x_RELEASE_V1.0.2/MSDK/cloud/alicloud/src/protocol/coap/local\CoAPMessage.c ****         if (0 != node->header.tokenlen && node->header.tokenlen == message->header.tokenlen
 3438              		.loc 1 766 5
 3439 02e0 5C4C     		lw	a5,28(s0)
 768:C:/Users/stapi/OneDrive/Desktop/GD32VW553/V1_MQTT_OK/GD32VW55X_Wifi_BLE_SDK/GD32VW55x_RELEASE_V1.0.2/MSDK/cloud/alicloud/src/protocol/coap/local\CoAPMessage.c ****             if(node->keep == NOKEEP){
 3440              		.loc 1 768 72 is_stmt 0
 3441 02e2 8649     		lw	s3,64(sp)
 767:C:/Users/stapi/OneDrive/Desktop/GD32VW553/V1_MQTT_OK/GD32VW55X_Wifi_BLE_SDK/GD32VW55x_RELEASE_V1.0.2/MSDK/cloud/alicloud/src/protocol/coap/local\CoAPMessage.c ****             && 0 == memcmp(node->token, message->token, message->header.tokenlen)){
 3442              		.loc 1 767 65
 3443 02e4 834B0104 		lbu	s7,64(sp)
 766:C:/Users/stapi/OneDrive/Desktop/GD32VW553/V1_MQTT_OK/GD32VW55X_Wifi_BLE_SDK/GD32VW55x_RELEASE_V1.0.2/MSDK/cloud/alicloud/src/protocol/coap/local\CoAPMessage.c ****         if (0 != node->header.tokenlen && node->header.tokenlen == message->header.tokenlen
 3444              		.loc 1 766 5
 3445 02e8 83AA4700 		lw	s5,4(a5)
 3446              	.LVL367:
 768:C:/Users/stapi/OneDrive/Desktop/GD32VW553/V1_MQTT_OK/GD32VW55X_Wifi_BLE_SDK/GD32VW55x_RELEASE_V1.0.2/MSDK/cloud/alicloud/src/protocol/coap/local\CoAPMessage.c ****             if(node->keep == NOKEEP){
 3447              		.loc 1 768 72
 3448 02ec 93D94900 		srli	s3,s3,4
 766:C:/Users/stapi/OneDrive/Desktop/GD32VW553/V1_MQTT_OK/GD32VW55X_Wifi_BLE_SDK/GD32VW55x_RELEASE_V1.0.2/MSDK/cloud/alicloud/src/protocol/coap/local\CoAPMessage.c ****         if (0 != node->header.tokenlen && node->header.tokenlen == message->header.tokenlen
 3449              		.loc 1 766 5
 3450 02f0 938487FC 		addi	s1,a5,-56
 3451              	.LVL368:
 3452 02f4 938A8AFC 		addi	s5,s5,-56
 3453              	.LVL369:
 768:C:/Users/stapi/OneDrive/Desktop/GD32VW553/V1_MQTT_OK/GD32VW55X_Wifi_BLE_SDK/GD32VW55x_RELEASE_V1.0.2/MSDK/cloud/alicloud/src/protocol/coap/local\CoAPMessage.c ****             if(node->keep == NOKEEP){
 3454              		.loc 1 768 21
 3455 02f8 93F9F900 		andi	s3,s3,15
 3456              	.L229:
 766:C:/Users/stapi/OneDrive/Desktop/GD32VW553/V1_MQTT_OK/GD32VW55X_Wifi_BLE_SDK/GD32VW55x_RELEASE_V1.0.2/MSDK/cloud/alicloud/src/protocol/coap/local\CoAPMessage.c ****         if (0 != node->header.tokenlen && node->header.tokenlen == message->header.tokenlen
 3457              		.loc 1 766 5 is_stmt 1
 3458 02fc 138B8403 		addi	s6,s1,56
 3459 0300 E3026AE3 		beq	s4,s6,.L233
 767:C:/Users/stapi/OneDrive/Desktop/GD32VW553/V1_MQTT_OK/GD32VW55X_Wifi_BLE_SDK/GD32VW55x_RELEASE_V1.0.2/MSDK/cloud/alicloud/src/protocol/coap/local\CoAPMessage.c ****             && 0 == memcmp(node->token, message->token, message->header.tokenlen)){
 3460              		.loc 1 767 9
 767:C:/Users/stapi/OneDrive/Desktop/GD32VW553/V1_MQTT_OK/GD32VW55X_Wifi_BLE_SDK/GD32VW55x_RELEASE_V1.0.2/MSDK/cloud/alicloud/src/protocol/coap/local\CoAPMessage.c ****             && 0 == memcmp(node->token, message->token, message->header.tokenlen)){
 3461              		.loc 1 767 15 is_stmt 0
 3462 0304 83C70400 		lbu	a5,0(s1)
 767:C:/Users/stapi/OneDrive/Desktop/GD32VW553/V1_MQTT_OK/GD32VW55X_Wifi_BLE_SDK/GD32VW55x_RELEASE_V1.0.2/MSDK/cloud/alicloud/src/protocol/coap/local\CoAPMessage.c ****             && 0 == memcmp(node->token, message->token, message->header.tokenlen)){
 3463              		.loc 1 767 12
 3464 0308 13F7070F 		andi	a4,a5,240
 3465 030c 49CF     		beq	a4,zero,.L230
 767:C:/Users/stapi/OneDrive/Desktop/GD32VW553/V1_MQTT_OK/GD32VW55X_Wifi_BLE_SDK/GD32VW55x_RELEASE_V1.0.2/MSDK/cloud/alicloud/src/protocol/coap/local\CoAPMessage.c ****             && 0 == memcmp(node->token, message->token, message->header.tokenlen)){
 3466              		.loc 1 767 65
 3467 030e B3C77701 		xor	a5,a5,s7
 767:C:/Users/stapi/OneDrive/Desktop/GD32VW553/V1_MQTT_OK/GD32VW55X_Wifi_BLE_SDK/GD32VW55x_RELEASE_V1.0.2/MSDK/cloud/alicloud/src/protocol/coap/local\CoAPMessage.c ****             && 0 == memcmp(node->token, message->token, message->header.tokenlen)){
 3468              		.loc 1 767 40
 3469 0312 93F7070F 		andi	a5,a5,240
 3470 0316 C1EB     		bne	a5,zero,.L230
 768:C:/Users/stapi/OneDrive/Desktop/GD32VW553/V1_MQTT_OK/GD32VW55X_Wifi_BLE_SDK/GD32VW55x_RELEASE_V1.0.2/MSDK/cloud/alicloud/src/protocol/coap/local\CoAPMessage.c ****             if(node->keep == NOKEEP){
 3471              		.loc 1 768 21
 3472 0318 4E86     		mv	a2,s3
 3473 031a CC00     		addi	a1,sp,68
 3474 031c 13855400 		addi	a0,s1,5
 3475 0320 97000000 		call	memcmp
 3475      E7800000 
 3476              	.LVL370:
 768:C:/Users/stapi/OneDrive/Desktop/GD32VW553/V1_MQTT_OK/GD32VW55X_Wifi_BLE_SDK/GD32VW55x_RELEASE_V1.0.2/MSDK/cloud/alicloud/src/protocol/coap/local\CoAPMessage.c ****             if(node->keep == NOKEEP){
 3477              		.loc 1 768 13
 3478 0328 3DED     		bne	a0,zero,.L230
 769:C:/Users/stapi/OneDrive/Desktop/GD32VW553/V1_MQTT_OK/GD32VW55X_Wifi_BLE_SDK/GD32VW55x_RELEASE_V1.0.2/MSDK/cloud/alicloud/src/protocol/coap/local\CoAPMessage.c ****                 list_del_init(&node->sendlist);
 3479              		.loc 1 769 13 is_stmt 1
 769:C:/Users/stapi/OneDrive/Desktop/GD32VW553/V1_MQTT_OK/GD32VW55X_Wifi_BLE_SDK/GD32VW55x_RELEASE_V1.0.2/MSDK/cloud/alicloud/src/protocol/coap/local\CoAPMessage.c ****                 list_del_init(&node->sendlist);
 3480              		.loc 1 769 15 is_stmt 0
 3481 032a FC44     		lw	a5,76(s1)
 3482 032c B7090000 		lui	s3,%hi(.LANCHOR9)
 3483 0330 ADE3     		bne	a5,zero,.L231
 770:C:/Users/stapi/OneDrive/Desktop/GD32VW553/V1_MQTT_OK/GD32VW55X_Wifi_BLE_SDK/GD32VW55x_RELEASE_V1.0.2/MSDK/cloud/alicloud/src/protocol/coap/local\CoAPMessage.c ****                 ctx->sendlist.count--;
 3484              		.loc 1 770 17 is_stmt 1
 3485              	.LVL371:
 3486              	.LBE171:
 3487              	.LBE177:
 3488              	.LBE196:
 3489              	.LBE201:
 3490              		.file 3 "..\\..\\..\\..\\cloud\\alicloud\\src\\infra\\utils\\misc/compat_aos_list.h"
   1:..\..\..\..\cloud\alicloud\src\infra\utils\misc/compat_aos_list.h **** #ifndef __COMPAT_AOS_LIST_H__
   2:..\..\..\..\cloud\alicloud\src\infra\utils\misc/compat_aos_list.h **** #define __COMPAT_AOS_LIST_H__
   3:..\..\..\..\cloud\alicloud\src\infra\utils\misc/compat_aos_list.h **** 
   4:..\..\..\..\cloud\alicloud\src\infra\utils\misc/compat_aos_list.h **** #ifndef offset_of
   5:..\..\..\..\cloud\alicloud\src\infra\utils\misc/compat_aos_list.h ****     #define offset_of aos_offsetof
   6:..\..\..\..\cloud\alicloud\src\infra\utils\misc/compat_aos_list.h **** #endif
   7:..\..\..\..\cloud\alicloud\src\infra\utils\misc/compat_aos_list.h **** #ifndef container_of
   8:..\..\..\..\cloud\alicloud\src\infra\utils\misc/compat_aos_list.h ****     #define container_of aos_container_of
   9:..\..\..\..\cloud\alicloud\src\infra\utils\misc/compat_aos_list.h **** #endif
  10:..\..\..\..\cloud\alicloud\src\infra\utils\misc/compat_aos_list.h **** 
  11:..\..\..\..\cloud\alicloud\src\infra\utils\misc/compat_aos_list.h **** #define LIST_HEAD                       AOS_DLIST_HEAD
  12:..\..\..\..\cloud\alicloud\src\infra\utils\misc/compat_aos_list.h **** #define LIST_HEAD_INIT                  AOS_DLIST_INIT
  13:..\..\..\..\cloud\alicloud\src\infra\utils\misc/compat_aos_list.h **** #define INIT_LIST_HEAD                  INIT_AOS_DLIST_HEAD
  14:..\..\..\..\cloud\alicloud\src\infra\utils\misc/compat_aos_list.h **** #define LIST_INIT                       AOS_DLIST_INIT
  15:..\..\..\..\cloud\alicloud\src\infra\utils\misc/compat_aos_list.h **** 
  16:..\..\..\..\cloud\alicloud\src\infra\utils\misc/compat_aos_list.h **** #define list_head                       dlist_s
  17:..\..\..\..\cloud\alicloud\src\infra\utils\misc/compat_aos_list.h **** #define list_head_t                     dlist_t
  18:..\..\..\..\cloud\alicloud\src\infra\utils\misc/compat_aos_list.h **** 
  19:..\..\..\..\cloud\alicloud\src\infra\utils\misc/compat_aos_list.h **** #define list_add                        dlist_add
  20:..\..\..\..\cloud\alicloud\src\infra\utils\misc/compat_aos_list.h **** #define list_add_tail                   dlist_add_tail
  21:..\..\..\..\cloud\alicloud\src\infra\utils\misc/compat_aos_list.h **** #define list_del                        dlist_del
  22:..\..\..\..\cloud\alicloud\src\infra\utils\misc/compat_aos_list.h **** #define list_empty                      dlist_empty
  23:..\..\..\..\cloud\alicloud\src\infra\utils\misc/compat_aos_list.h **** #define list_entry_number               dlist_entry_number
  24:..\..\..\..\cloud\alicloud\src\infra\utils\misc/compat_aos_list.h **** #define list_first_entry                dlist_first_entry
  25:..\..\..\..\cloud\alicloud\src\infra\utils\misc/compat_aos_list.h **** #define list_for_each                   dlist_for_each
  26:..\..\..\..\cloud\alicloud\src\infra\utils\misc/compat_aos_list.h **** #define list_for_each_entry_reverse     dlist_for_each_entry_reverse
  27:..\..\..\..\cloud\alicloud\src\infra\utils\misc/compat_aos_list.h **** #define list_for_each_safe              dlist_for_each_safe
  28:..\..\..\..\cloud\alicloud\src\infra\utils\misc/compat_aos_list.h **** #define list_init                       dlist_init
  29:..\..\..\..\cloud\alicloud\src\infra\utils\misc/compat_aos_list.h **** 
  30:..\..\..\..\cloud\alicloud\src\infra\utils\misc/compat_aos_list.h **** #define list_for_each_entry(pos, head, member, type)             \
  31:..\..\..\..\cloud\alicloud\src\infra\utils\misc/compat_aos_list.h ****     dlist_for_each_entry(head, pos, type, member)
  32:..\..\..\..\cloud\alicloud\src\infra\utils\misc/compat_aos_list.h **** 
  33:..\..\..\..\cloud\alicloud\src\infra\utils\misc/compat_aos_list.h **** #define list_for_each_entry_safe(pos, n, head, member, type)         \
  34:..\..\..\..\cloud\alicloud\src\infra\utils\misc/compat_aos_list.h ****     for (pos = list_entry((head)->next, type, member), \
  35:..\..\..\..\cloud\alicloud\src\infra\utils\misc/compat_aos_list.h ****          n = list_entry(pos->member.next, type, member);    \
  36:..\..\..\..\cloud\alicloud\src\infra\utils\misc/compat_aos_list.h ****          &pos->member != (head);                    \
  37:..\..\..\..\cloud\alicloud\src\infra\utils\misc/compat_aos_list.h ****          pos = n, n = list_entry(n->member.next, type, member))
  38:..\..\..\..\cloud\alicloud\src\infra\utils\misc/compat_aos_list.h **** 
  39:..\..\..\..\cloud\alicloud\src\infra\utils\misc/compat_aos_list.h **** #define list_next_entry(pos, member, type) \
  40:..\..\..\..\cloud\alicloud\src\infra\utils\misc/compat_aos_list.h ****     list_entry((pos)->member.next, type, member)
  41:..\..\..\..\cloud\alicloud\src\infra\utils\misc/compat_aos_list.h **** 
  42:..\..\..\..\cloud\alicloud\src\infra\utils\misc/compat_aos_list.h **** static inline void list_del_init(struct list_head *entry)
  43:..\..\..\..\cloud\alicloud\src\infra\utils\misc/compat_aos_list.h **** {
  44:..\..\..\..\cloud\alicloud\src\infra\utils\misc/compat_aos_list.h ****     list_del(entry);
 3491              		.loc 3 44 5
 3492              	.LBB202:
 3493              	.LBB197:
 3494              	.LBB178:
 3495              	.LBB172:
 3496              	.LBB165:
 3497              	.LBB166:
 3498              	.LBB167:
  68:..\..\..\..\cloud\alicloud\src\infra\utils\misc/lite-list.h ****     dlist_t *next = node->next;
 3499              		.loc 2 68 5
  69:..\..\..\..\cloud\alicloud\src\infra\utils\misc/lite-list.h **** 
 3500              		.loc 2 69 14 is_stmt 0
 3501 0332 DC5C     		lw	a5,60(s1)
  68:..\..\..\..\cloud\alicloud\src\infra\utils\misc/lite-list.h ****     dlist_t *next = node->next;
 3502              		.loc 2 68 14
 3503 0334 985C     		lw	a4,56(s1)
 3504              	.LVL372:
  69:..\..\..\..\cloud\alicloud\src\infra\utils\misc/lite-list.h **** 
 3505              		.loc 2 69 5 is_stmt 1
  71:..\..\..\..\cloud\alicloud\src\infra\utils\misc/lite-list.h ****     next->prev = prev;
 3506              		.loc 2 71 5
  71:..\..\..\..\cloud\alicloud\src\infra\utils\misc/lite-list.h ****     next->prev = prev;
 3507              		.loc 2 71 16 is_stmt 0
 3508 0336 5CC3     		sw	a5,4(a4)
 3509              		.loc 2 72 5 is_stmt 1
 3510              		.loc 2 72 16 is_stmt 0
 3511 0338 98C3     		sw	a4,0(a5)
 3512              	.LVL373:
 3513              	.LBE167:
 3514              	.LBE166:
 3515              	.LBE165:
 3516              	.LBE172:
 3517              	.LBE178:
 3518              	.LBE197:
 3519              	.LBE202:
  45:..\..\..\..\cloud\alicloud\src\infra\utils\misc/compat_aos_list.h ****     INIT_LIST_HEAD(entry);
 3520              		.loc 3 45 5 is_stmt 1
 3521              	.LBB203:
 3522              	.LBB198:
 3523              	.LBB179:
 3524              	.LBB173:
 3525              	.LBB170:
 3526              	.LBB168:
 3527              	.LBB169:
  73:..\..\..\..\cloud\alicloud\src\infra\utils\misc/lite-list.h **** }
  74:..\..\..\..\cloud\alicloud\src\infra\utils\misc/lite-list.h **** 
  75:..\..\..\..\cloud\alicloud\src\infra\utils\misc/lite-list.h **** static inline void dlist_init(dlist_t *node)
  76:..\..\..\..\cloud\alicloud\src\infra\utils\misc/lite-list.h **** {
  77:..\..\..\..\cloud\alicloud\src\infra\utils\misc/lite-list.h ****     node->next = node->prev = node;
  78:..\..\..\..\cloud\alicloud\src\infra\utils\misc/lite-list.h **** }
  79:..\..\..\..\cloud\alicloud\src\infra\utils\misc/lite-list.h **** 
  80:..\..\..\..\cloud\alicloud\src\infra\utils\misc/lite-list.h **** static inline void INIT_AOS_DLIST_HEAD(dlist_t *list)
  81:..\..\..\..\cloud\alicloud\src\infra\utils\misc/lite-list.h **** {
  82:..\..\..\..\cloud\alicloud\src\infra\utils\misc/lite-list.h ****     list->next = list;
 3528              		.loc 2 82 5
 3529              		.loc 2 82 16 is_stmt 0
 3530 033a 23AE6403 		sw	s6,60(s1)
  83:..\..\..\..\cloud\alicloud\src\infra\utils\misc/lite-list.h ****     list->prev = list;
 3531              		.loc 2 83 5 is_stmt 1
 3532              		.loc 2 83 16 is_stmt 0
 3533 033e 23AC6403 		sw	s6,56(s1)
 3534              	.LVL374:
 3535              	.LBE169:
 3536              	.LBE168:
 3537              	.LBE170:
 771:C:/Users/stapi/OneDrive/Desktop/GD32VW553/V1_MQTT_OK/GD32VW55X_Wifi_BLE_SDK/GD32VW55x_RELEASE_V1.0.2/MSDK/cloud/alicloud/src/protocol/coap/local\CoAPMessage.c ****                 if (NULL != node->message) {
 3538              		.loc 1 771 17 is_stmt 1
 771:C:/Users/stapi/OneDrive/Desktop/GD32VW553/V1_MQTT_OK/GD32VW55X_Wifi_BLE_SDK/GD32VW55x_RELEASE_V1.0.2/MSDK/cloud/alicloud/src/protocol/coap/local\CoAPMessage.c ****                 if (NULL != node->message) {
 3539              		.loc 1 771 36 is_stmt 0
 3540 0342 83470402 		lbu	a5,32(s0)
 3541 0346 FD17     		addi	a5,a5,-1
 3542 0348 2300F402 		sb	a5,32(s0)
 772:C:/Users/stapi/OneDrive/Desktop/GD32VW553/V1_MQTT_OK/GD32VW55X_Wifi_BLE_SDK/GD32VW55x_RELEASE_V1.0.2/MSDK/cloud/alicloud/src/protocol/coap/local\CoAPMessage.c ****                     coap_free(node->message);
 3543              		.loc 1 772 17 is_stmt 1
 772:C:/Users/stapi/OneDrive/Desktop/GD32VW553/V1_MQTT_OK/GD32VW55X_Wifi_BLE_SDK/GD32VW55x_RELEASE_V1.0.2/MSDK/cloud/alicloud/src/protocol/coap/local\CoAPMessage.c ****                     coap_free(node->message);
 3544              		.loc 1 772 33 is_stmt 0
 3545 034c E840     		lw	a0,68(s1)
 772:C:/Users/stapi/OneDrive/Desktop/GD32VW553/V1_MQTT_OK/GD32VW55X_Wifi_BLE_SDK/GD32VW55x_RELEASE_V1.0.2/MSDK/cloud/alicloud/src/protocol/coap/local\CoAPMessage.c ****                     coap_free(node->message);
 3546              		.loc 1 772 20
 3547 034e 09C5     		beq	a0,zero,.L232
 773:C:/Users/stapi/OneDrive/Desktop/GD32VW553/V1_MQTT_OK/GD32VW55X_Wifi_BLE_SDK/GD32VW55x_RELEASE_V1.0.2/MSDK/cloud/alicloud/src/protocol/coap/local\CoAPMessage.c ****                 }
 3548              		.loc 1 773 21 is_stmt 1
 3549 0350 97000000 		call	LITE_free_internal
 3549      E7800000 
 3550              	.LVL375:
 3551              	.L232:
 775:C:/Users/stapi/OneDrive/Desktop/GD32VW553/V1_MQTT_OK/GD32VW55X_Wifi_BLE_SDK/GD32VW55x_RELEASE_V1.0.2/MSDK/cloud/alicloud/src/protocol/coap/local\CoAPMessage.c ****                 COAP_FLOW("Remove the message id %d from list", node->header.msgid);
 3552              		.loc 1 775 17
 3553 0358 2685     		mv	a0,s1
 3554 035a 97000000 		call	LITE_free_internal
 3554      E7800000 
 3555              	.LVL376:
 776:C:/Users/stapi/OneDrive/Desktop/GD32VW553/V1_MQTT_OK/GD32VW55X_Wifi_BLE_SDK/GD32VW55x_RELEASE_V1.0.2/MSDK/cloud/alicloud/src/protocol/coap/local\CoAPMessage.c ****             }
 3556              		.loc 1 776 17
 3557 0362 83D72400 		lhu	a5,2(s1)
 3558 0366 37070000 		lui	a4,%hi(.LC25)
 3559 036a 13070700 		addi	a4,a4,%lo(.LC25)
 3560 036e 9546     		li	a3,5
 3561 0370 13068030 		li	a2,776
 3562              	.L269:
 779:C:/Users/stapi/OneDrive/Desktop/GD32VW553/V1_MQTT_OK/GD32VW55X_Wifi_BLE_SDK/GD32VW55x_RELEASE_V1.0.2/MSDK/cloud/alicloud/src/protocol/coap/local\CoAPMessage.c ****             }
 3563              		.loc 1 779 17 is_stmt 0
 3564 0374 93850900 		addi	a1,s3,%lo(.LANCHOR9)
 3565 0378 13050900 		addi	a0,s2,%lo(.LC1)
 3566 037c 97000000 		call	LITE_syslog
 3566      E7800000 
 3567              	.LVL377:
 3568 0384 45B3     		j	.L233
 3569              	.LVL378:
 3570              	.L222:
 734:C:/Users/stapi/OneDrive/Desktop/GD32VW553/V1_MQTT_OK/GD32VW55X_Wifi_BLE_SDK/GD32VW55x_RELEASE_V1.0.2/MSDK/cloud/alicloud/src/protocol/coap/local\CoAPMessage.c ****         if (0 != node->header.tokenlen && node->header.tokenlen == message->header.tokenlen
 3571              		.loc 1 734 5 is_stmt 1
 3572 0386 83A7CA03 		lw	a5,60(s5)
 3573              	.LVL379:
 3574 038a D684     		mv	s1,s5
 3575 038c 938A87FC 		addi	s5,a5,-56
 3576              	.LVL380:
 3577 0390 4DB5     		j	.L221
 3578              	.LVL381:
 3579              	.L231:
 779:C:/Users/stapi/OneDrive/Desktop/GD32VW553/V1_MQTT_OK/GD32VW55X_Wifi_BLE_SDK/GD32VW55x_RELEASE_V1.0.2/MSDK/cloud/alicloud/src/protocol/coap/local\CoAPMessage.c ****             }
 3580              		.loc 1 779 17
 3581 0392 37070000 		lui	a4,%hi(.LC26)
 3582 0396 83D72400 		lhu	a5,2(s1)
 3583 039a 13070700 		addi	a4,a4,%lo(.LC26)
 3584 039e 9546     		li	a3,5
 3585 03a0 1306B030 		li	a2,779
 3586 03a4 C1BF     		j	.L269
 3587              	.L230:
 766:C:/Users/stapi/OneDrive/Desktop/GD32VW553/V1_MQTT_OK/GD32VW55X_Wifi_BLE_SDK/GD32VW55x_RELEASE_V1.0.2/MSDK/cloud/alicloud/src/protocol/coap/local\CoAPMessage.c ****         if (0 != node->header.tokenlen && node->header.tokenlen == message->header.tokenlen
 3588              		.loc 1 766 5
 3589              	.LVL382:
 3590 03a6 83A7CA03 		lw	a5,60(s5)
 3591              	.LVL383:
 3592 03aa D684     		mv	s1,s5
 3593 03ac 938A87FC 		addi	s5,a5,-56
 3594              	.LVL384:
 3595 03b0 B1B7     		j	.L229
 3596              	.LVL385:
 3597              	.L219:
 3598              	.LBE173:
 3599              	.LBE179:
 877:C:/Users/stapi/OneDrive/Desktop/GD32VW553/V1_MQTT_OK/GD32VW55X_Wifi_BLE_SDK/GD32VW55x_RELEASE_V1.0.2/MSDK/cloud/alicloud/src/protocol/coap/local\CoAPMessage.c ****         CoAPRestMessage_send(ctx, remote, message.header.msgid);
 3600              		.loc 1 877 12
 877:C:/Users/stapi/OneDrive/Desktop/GD32VW553/V1_MQTT_OK/GD32VW55X_Wifi_BLE_SDK/GD32VW55x_RELEASE_V1.0.2/MSDK/cloud/alicloud/src/protocol/coap/local\CoAPMessage.c ****         CoAPRestMessage_send(ctx, remote, message.header.msgid);
 3601              		.loc 1 877 15 is_stmt 0
 3602 03b2 31EF     		bne	a4,zero,.L235
 878:C:/Users/stapi/OneDrive/Desktop/GD32VW553/V1_MQTT_OK/GD32VW55X_Wifi_BLE_SDK/GD32VW55x_RELEASE_V1.0.2/MSDK/cloud/alicloud/src/protocol/coap/local\CoAPMessage.c ****     } else if (CoAPReqMsg(message.header)) {
 3603              		.loc 1 878 9 is_stmt 1
 3604              	.LBB180:
 3605              	.LBB181:
 691:C:/Users/stapi/OneDrive/Desktop/GD32VW553/V1_MQTT_OK/GD32VW55X_Wifi_BLE_SDK/GD32VW55x_RELEASE_V1.0.2/MSDK/cloud/alicloud/src/protocol/coap/local\CoAPMessage.c ****     CoAPMessageType_set(&message, COAP_MESSAGE_TYPE_RST);
 3606              		.loc 1 691 5 is_stmt 0
 3607 03b4 A801     		addi	a0,sp,200
 3608              	.LBE181:
 3609              	.LBE180:
 878:C:/Users/stapi/OneDrive/Desktop/GD32VW553/V1_MQTT_OK/GD32VW55X_Wifi_BLE_SDK/GD32VW55x_RELEASE_V1.0.2/MSDK/cloud/alicloud/src/protocol/coap/local\CoAPMessage.c ****     } else if (CoAPReqMsg(message.header)) {
 3610              		.loc 1 878 9
 3611 03b6 83542104 		lhu	s1,66(sp)
 3612              	.LVL386:
 3613              	.LBB191:
 3614              	.LBB190:
 687:C:/Users/stapi/OneDrive/Desktop/GD32VW553/V1_MQTT_OK/GD32VW55X_Wifi_BLE_SDK/GD32VW55x_RELEASE_V1.0.2/MSDK/cloud/alicloud/src/protocol/coap/local\CoAPMessage.c ****     CoAPMessage message;
 3615              		.loc 1 687 5 is_stmt 1
 688:C:/Users/stapi/OneDrive/Desktop/GD32VW553/V1_MQTT_OK/GD32VW55X_Wifi_BLE_SDK/GD32VW55x_RELEASE_V1.0.2/MSDK/cloud/alicloud/src/protocol/coap/local\CoAPMessage.c ****     CoAPIntContext *ctx = (CoAPIntContext *)context;
 3616              		.loc 1 688 5
 689:C:/Users/stapi/OneDrive/Desktop/GD32VW553/V1_MQTT_OK/GD32VW55X_Wifi_BLE_SDK/GD32VW55x_RELEASE_V1.0.2/MSDK/cloud/alicloud/src/protocol/coap/local\CoAPMessage.c **** 
 3617              		.loc 1 689 5
 691:C:/Users/stapi/OneDrive/Desktop/GD32VW553/V1_MQTT_OK/GD32VW55X_Wifi_BLE_SDK/GD32VW55x_RELEASE_V1.0.2/MSDK/cloud/alicloud/src/protocol/coap/local\CoAPMessage.c ****     CoAPMessageType_set(&message, COAP_MESSAGE_TYPE_RST);
 3618              		.loc 1 691 5
 3619 03ba 97000000 		call	CoAPMessage_init
 3619      E7800000 
 3620              	.LVL387:
 692:C:/Users/stapi/OneDrive/Desktop/GD32VW553/V1_MQTT_OK/GD32VW55X_Wifi_BLE_SDK/GD32VW55x_RELEASE_V1.0.2/MSDK/cloud/alicloud/src/protocol/coap/local\CoAPMessage.c ****     CoAPMessageId_set(&message, msgid);
 3621              		.loc 1 692 5
 3622              	.LBB182:
 3623              	.LBB183:
 225:C:/Users/stapi/OneDrive/Desktop/GD32VW553/V1_MQTT_OK/GD32VW55X_Wifi_BLE_SDK/GD32VW55x_RELEASE_V1.0.2/MSDK/cloud/alicloud/src/protocol/coap/local\CoAPMessage.c ****         return COAP_ERROR_NULL;
 3624              		.loc 1 225 5
 228:C:/Users/stapi/OneDrive/Desktop/GD32VW553/V1_MQTT_OK/GD32VW55X_Wifi_BLE_SDK/GD32VW55x_RELEASE_V1.0.2/MSDK/cloud/alicloud/src/protocol/coap/local\CoAPMessage.c ****         return COAP_ERROR_INVALID_PARAM;
 3625              		.loc 1 228 5
 232:C:/Users/stapi/OneDrive/Desktop/GD32VW553/V1_MQTT_OK/GD32VW55X_Wifi_BLE_SDK/GD32VW55x_RELEASE_V1.0.2/MSDK/cloud/alicloud/src/protocol/coap/local\CoAPMessage.c ****     return COAP_SUCCESS;
 3626              		.loc 1 232 5
 232:C:/Users/stapi/OneDrive/Desktop/GD32VW553/V1_MQTT_OK/GD32VW55X_Wifi_BLE_SDK/GD32VW55x_RELEASE_V1.0.2/MSDK/cloud/alicloud/src/protocol/coap/local\CoAPMessage.c ****     return COAP_SUCCESS;
 3627              		.loc 1 232 26 is_stmt 0
 3628 03c2 8347810C 		lbu	a5,200(sp)
 3629              	.LBE183:
 3630              	.LBE182:
 694:C:/Users/stapi/OneDrive/Desktop/GD32VW553/V1_MQTT_OK/GD32VW55X_Wifi_BLE_SDK/GD32VW55x_RELEASE_V1.0.2/MSDK/cloud/alicloud/src/protocol/coap/local\CoAPMessage.c ****     ret = CoAPMessage_send(ctx, remote, &message);
 3631              		.loc 1 694 5
 3632 03c6 37070000 		lui	a4,%hi(.LC27)
 3633 03ca B7050000 		lui	a1,%hi(.LANCHOR10)
 3634              	.LBB186:
 3635              	.LBB184:
 232:C:/Users/stapi/OneDrive/Desktop/GD32VW553/V1_MQTT_OK/GD32VW55X_Wifi_BLE_SDK/GD32VW55x_RELEASE_V1.0.2/MSDK/cloud/alicloud/src/protocol/coap/local\CoAPMessage.c ****     return COAP_SUCCESS;
 3636              		.loc 1 232 26
 3637 03ce 93E7C700 		ori	a5,a5,12
 3638              	.LBE184:
 3639              	.LBE186:
 694:C:/Users/stapi/OneDrive/Desktop/GD32VW553/V1_MQTT_OK/GD32VW55X_Wifi_BLE_SDK/GD32VW55x_RELEASE_V1.0.2/MSDK/cloud/alicloud/src/protocol/coap/local\CoAPMessage.c ****     ret = CoAPMessage_send(ctx, remote, &message);
 3640              		.loc 1 694 5
 3641 03d2 13070700 		addi	a4,a4,%lo(.LC27)
 3642 03d6 9546     		li	a3,5
 3643 03d8 13850900 		addi	a0,s3,%lo(.LC1)
 3644 03dc 1306602B 		li	a2,694
 3645 03e0 93850500 		addi	a1,a1,%lo(.LANCHOR10)
 3646              	.LBB187:
 3647              	.LBB185:
 232:C:/Users/stapi/OneDrive/Desktop/GD32VW553/V1_MQTT_OK/GD32VW55X_Wifi_BLE_SDK/GD32VW55x_RELEASE_V1.0.2/MSDK/cloud/alicloud/src/protocol/coap/local\CoAPMessage.c ****     return COAP_SUCCESS;
 3648              		.loc 1 232 26
 3649 03e4 2304F10C 		sb	a5,200(sp)
 233:C:/Users/stapi/OneDrive/Desktop/GD32VW553/V1_MQTT_OK/GD32VW55X_Wifi_BLE_SDK/GD32VW55x_RELEASE_V1.0.2/MSDK/cloud/alicloud/src/protocol/coap/local\CoAPMessage.c **** }
 3650              		.loc 1 233 5 is_stmt 1
 3651              	.LVL388:
 3652              	.LBE185:
 3653              	.LBE187:
 693:C:/Users/stapi/OneDrive/Desktop/GD32VW553/V1_MQTT_OK/GD32VW55X_Wifi_BLE_SDK/GD32VW55x_RELEASE_V1.0.2/MSDK/cloud/alicloud/src/protocol/coap/local\CoAPMessage.c ****     COAP_DEBUG("Send Rest Pong Message");
 3654              		.loc 1 693 5
 3655              	.LBB188:
 3656              	.LBB189:
 216:C:/Users/stapi/OneDrive/Desktop/GD32VW553/V1_MQTT_OK/GD32VW55X_Wifi_BLE_SDK/GD32VW55x_RELEASE_V1.0.2/MSDK/cloud/alicloud/src/protocol/coap/local\CoAPMessage.c ****         return COAP_ERROR_NULL;
 3657              		.loc 1 216 5
 219:C:/Users/stapi/OneDrive/Desktop/GD32VW553/V1_MQTT_OK/GD32VW55X_Wifi_BLE_SDK/GD32VW55x_RELEASE_V1.0.2/MSDK/cloud/alicloud/src/protocol/coap/local\CoAPMessage.c ****     return COAP_SUCCESS;
 3658              		.loc 1 219 5
 219:C:/Users/stapi/OneDrive/Desktop/GD32VW553/V1_MQTT_OK/GD32VW55X_Wifi_BLE_SDK/GD32VW55x_RELEASE_V1.0.2/MSDK/cloud/alicloud/src/protocol/coap/local\CoAPMessage.c ****     return COAP_SUCCESS;
 3659              		.loc 1 219 27 is_stmt 0
 3660 03e8 2315910C 		sh	s1,202(sp)
 220:C:/Users/stapi/OneDrive/Desktop/GD32VW553/V1_MQTT_OK/GD32VW55X_Wifi_BLE_SDK/GD32VW55x_RELEASE_V1.0.2/MSDK/cloud/alicloud/src/protocol/coap/local\CoAPMessage.c **** }
 3661              		.loc 1 220 5 is_stmt 1
 3662              	.LVL389:
 3663              	.LBE189:
 3664              	.LBE188:
 694:C:/Users/stapi/OneDrive/Desktop/GD32VW553/V1_MQTT_OK/GD32VW55X_Wifi_BLE_SDK/GD32VW55x_RELEASE_V1.0.2/MSDK/cloud/alicloud/src/protocol/coap/local\CoAPMessage.c ****     ret = CoAPMessage_send(ctx, remote, &message);
 3665              		.loc 1 694 5
 3666 03ec 97000000 		call	LITE_syslog
 3666      E7800000 
 3667              	.LVL390:
 695:C:/Users/stapi/OneDrive/Desktop/GD32VW553/V1_MQTT_OK/GD32VW55X_Wifi_BLE_SDK/GD32VW55x_RELEASE_V1.0.2/MSDK/cloud/alicloud/src/protocol/coap/local\CoAPMessage.c ****     CoAPMessage_destory(&message);
 3668              		.loc 1 695 5
 695:C:/Users/stapi/OneDrive/Desktop/GD32VW553/V1_MQTT_OK/GD32VW55X_Wifi_BLE_SDK/GD32VW55x_RELEASE_V1.0.2/MSDK/cloud/alicloud/src/protocol/coap/local\CoAPMessage.c ****     CoAPMessage_destory(&message);
 3669              		.loc 1 695 11 is_stmt 0
 3670 03f4 B001     		addi	a2,sp,200
 3671 03f6 6C10     		addi	a1,sp,44
 3672              	.LVL391:
 3673 03f8 2285     		mv	a0,s0
 3674 03fa 97000000 		call	CoAPMessage_send
 3674      E7800000 
 3675              	.LVL392:
 696:C:/Users/stapi/OneDrive/Desktop/GD32VW553/V1_MQTT_OK/GD32VW55X_Wifi_BLE_SDK/GD32VW55x_RELEASE_V1.0.2/MSDK/cloud/alicloud/src/protocol/coap/local\CoAPMessage.c ****     return ret;
 3676              		.loc 1 696 5 is_stmt 1
 3677 0402 A801     		addi	a0,sp,200
 3678 0404 97000000 		call	CoAPMessage_destory
 3678      E7800000 
 3679              	.LVL393:
 697:C:/Users/stapi/OneDrive/Desktop/GD32VW553/V1_MQTT_OK/GD32VW55X_Wifi_BLE_SDK/GD32VW55x_RELEASE_V1.0.2/MSDK/cloud/alicloud/src/protocol/coap/local\CoAPMessage.c **** }
 3680              		.loc 1 697 5
 697:C:/Users/stapi/OneDrive/Desktop/GD32VW553/V1_MQTT_OK/GD32VW55X_Wifi_BLE_SDK/GD32VW55x_RELEASE_V1.0.2/MSDK/cloud/alicloud/src/protocol/coap/local\CoAPMessage.c **** }
 3681              		.loc 1 697 12 is_stmt 0
 3682 040c C9B3     		j	.L246
 3683              	.LVL394:
 3684              	.L235:
 3685              	.LBE190:
 3686              	.LBE191:
 879:C:/Users/stapi/OneDrive/Desktop/GD32VW553/V1_MQTT_OK/GD32VW55X_Wifi_BLE_SDK/GD32VW55x_RELEASE_V1.0.2/MSDK/cloud/alicloud/src/protocol/coap/local\CoAPMessage.c ****         CoAPRequestMessage_handle(ctx, remote, &message);
 3687              		.loc 1 879 12 is_stmt 1
 879:C:/Users/stapi/OneDrive/Desktop/GD32VW553/V1_MQTT_OK/GD32VW55X_Wifi_BLE_SDK/GD32VW55x_RELEASE_V1.0.2/MSDK/cloud/alicloud/src/protocol/coap/local\CoAPMessage.c ****         CoAPRequestMessage_handle(ctx, remote, &message);
 3688              		.loc 1 879 16 is_stmt 0
 3689 040e FD17     		addi	a5,a5,-1
 879:C:/Users/stapi/OneDrive/Desktop/GD32VW553/V1_MQTT_OK/GD32VW55X_Wifi_BLE_SDK/GD32VW55x_RELEASE_V1.0.2/MSDK/cloud/alicloud/src/protocol/coap/local\CoAPMessage.c ****         CoAPRequestMessage_handle(ctx, remote, &message);
 3690              		.loc 1 879 15
 3691 0410 93F7F70F 		andi	a5,a5,0xff
 3692 0414 7947     		li	a4,30
 3693 0416 6362F716 		bgtu	a5,a4,.L236
 880:C:/Users/stapi/OneDrive/Desktop/GD32VW553/V1_MQTT_OK/GD32VW55X_Wifi_BLE_SDK/GD32VW55x_RELEASE_V1.0.2/MSDK/cloud/alicloud/src/protocol/coap/local\CoAPMessage.c ****     } else {
 3694              		.loc 1 880 9 is_stmt 1
 3695              	.LVL395:
 3696              	.LBB192:
 3697              	.LBB193:
 794:C:/Users/stapi/OneDrive/Desktop/GD32VW553/V1_MQTT_OK/GD32VW55X_Wifi_BLE_SDK/GD32VW55x_RELEASE_V1.0.2/MSDK/cloud/alicloud/src/protocol/coap/local\CoAPMessage.c ****     int             ret   = COAP_SUCCESS;
 3698              		.loc 1 794 5
 795:C:/Users/stapi/OneDrive/Desktop/GD32VW553/V1_MQTT_OK/GD32VW55X_Wifi_BLE_SDK/GD32VW55x_RELEASE_V1.0.2/MSDK/cloud/alicloud/src/protocol/coap/local\CoAPMessage.c ****     CoAPResource   *resource = NULL;
 3699              		.loc 1 795 5
 796:C:/Users/stapi/OneDrive/Desktop/GD32VW553/V1_MQTT_OK/GD32VW55X_Wifi_BLE_SDK/GD32VW55x_RELEASE_V1.0.2/MSDK/cloud/alicloud/src/protocol/coap/local\CoAPMessage.c ****     unsigned char   path[COAP_MSG_MAX_PATH_LEN] = {0};
 3700              		.loc 1 796 5
 797:C:/Users/stapi/OneDrive/Desktop/GD32VW553/V1_MQTT_OK/GD32VW55X_Wifi_BLE_SDK/GD32VW55x_RELEASE_V1.0.2/MSDK/cloud/alicloud/src/protocol/coap/local\CoAPMessage.c ****     unsigned char  *tmp = path;
 3701              		.loc 1 797 5
 797:C:/Users/stapi/OneDrive/Desktop/GD32VW553/V1_MQTT_OK/GD32VW55X_Wifi_BLE_SDK/GD32VW55x_RELEASE_V1.0.2/MSDK/cloud/alicloud/src/protocol/coap/local\CoAPMessage.c ****     unsigned char  *tmp = path;
 3702              		.loc 1 797 21 is_stmt 0
 3703 041a 1306C007 		li	a2,124
 3704 041e 8145     		li	a1,0
 3705 0420 E801     		addi	a0,sp,204
 3706 0422 82C5     		sw	zero,200(sp)
 3707 0424 97000000 		call	memset
 3707      E7800000 
 3708              	.LVL396:
 798:C:/Users/stapi/OneDrive/Desktop/GD32VW553/V1_MQTT_OK/GD32VW55X_Wifi_BLE_SDK/GD32VW55x_RELEASE_V1.0.2/MSDK/cloud/alicloud/src/protocol/coap/local\CoAPMessage.c ****     CoAPIntContext *ctx = (CoAPIntContext *)context;
 3709              		.loc 1 798 5 is_stmt 1
 799:C:/Users/stapi/OneDrive/Desktop/GD32VW553/V1_MQTT_OK/GD32VW55X_Wifi_BLE_SDK/GD32VW55x_RELEASE_V1.0.2/MSDK/cloud/alicloud/src/protocol/coap/local\CoAPMessage.c ****     COAP_FLOW("CoAPRequestMessage_handle: %p", ctx);
 3710              		.loc 1 799 5
 800:C:/Users/stapi/OneDrive/Desktop/GD32VW553/V1_MQTT_OK/GD32VW55X_Wifi_BLE_SDK/GD32VW55x_RELEASE_V1.0.2/MSDK/cloud/alicloud/src/protocol/coap/local\CoAPMessage.c **** 
 3711              		.loc 1 800 5
 3712 042c B7090000 		lui	s3,%hi(.LANCHOR11)
 3713 0430 37070000 		lui	a4,%hi(.LC28)
 3714 0434 13050900 		addi	a0,s2,%lo(.LC1)
 3715 0438 A287     		mv	a5,s0
 3716 043a 13070700 		addi	a4,a4,%lo(.LC28)
 3717 043e 9546     		li	a3,5
 3718 0440 13060032 		li	a2,800
 3719 0444 93850900 		addi	a1,s3,%lo(.LANCHOR11)
 3720 0448 97000000 		call	LITE_syslog
 3720      E7800000 
 3721              	.LVL397:
 803:C:/Users/stapi/OneDrive/Desktop/GD32VW553/V1_MQTT_OK/GD32VW55X_Wifi_BLE_SDK/GD32VW55x_RELEASE_V1.0.2/MSDK/cloud/alicloud/src/protocol/coap/local\CoAPMessage.c ****         if (COAP_OPTION_URI_PATH == message->options[index].num) {
 3722              		.loc 1 803 5
 798:C:/Users/stapi/OneDrive/Desktop/GD32VW553/V1_MQTT_OK/GD32VW55X_Wifi_BLE_SDK/GD32VW55x_RELEASE_V1.0.2/MSDK/cloud/alicloud/src/protocol/coap/local\CoAPMessage.c ****     CoAPIntContext *ctx = (CoAPIntContext *)context;
 3723              		.loc 1 798 21 is_stmt 0
 3724 0450 A801     		addi	a0,sp,200
 3725              	.LVL398:
 3726 0452 8400     		addi	s1,sp,64
 3727              	.LVL399:
 803:C:/Users/stapi/OneDrive/Desktop/GD32VW553/V1_MQTT_OK/GD32VW55X_Wifi_BLE_SDK/GD32VW55x_RELEASE_V1.0.2/MSDK/cloud/alicloud/src/protocol/coap/local\CoAPMessage.c ****         if (COAP_OPTION_URI_PATH == message->options[index].num) {
 3728              		.loc 1 803 16
 3729 0454 814A     		li	s5,0
 3730 0456 2A8A     		mv	s4,a0
 804:C:/Users/stapi/OneDrive/Desktop/GD32VW553/V1_MQTT_OK/GD32VW55X_Wifi_BLE_SDK/GD32VW55x_RELEASE_V1.0.2/MSDK/cloud/alicloud/src/protocol/coap/local\CoAPMessage.c ****             if ((COAP_MSG_MAX_PATH_LEN - 1) >= (tmp - path + message->options[index].len)) {
 3731              		.loc 1 804 12
 3732 0458 AD4B     		li	s7,11
 805:C:/Users/stapi/OneDrive/Desktop/GD32VW553/V1_MQTT_OK/GD32VW55X_Wifi_BLE_SDK/GD32VW55x_RELEASE_V1.0.2/MSDK/cloud/alicloud/src/protocol/coap/local\CoAPMessage.c ****                 *tmp = '/';
 3733              		.loc 1 805 16
 3734 045a 130CF007 		li	s8,127
 806:C:/Users/stapi/OneDrive/Desktop/GD32VW553/V1_MQTT_OK/GD32VW55X_Wifi_BLE_SDK/GD32VW55x_RELEASE_V1.0.2/MSDK/cloud/alicloud/src/protocol/coap/local\CoAPMessage.c ****                 tmp += 1;
 3735              		.loc 1 806 22
 3736 045e 930CF002 		li	s9,47
 3737              	.LVL400:
 3738              	.L237:
 803:C:/Users/stapi/OneDrive/Desktop/GD32VW553/V1_MQTT_OK/GD32VW55X_Wifi_BLE_SDK/GD32VW55x_RELEASE_V1.0.2/MSDK/cloud/alicloud/src/protocol/coap/local\CoAPMessage.c ****         if (COAP_OPTION_URI_PATH == message->options[index].num) {
 3739              		.loc 1 803 21 is_stmt 1
 803:C:/Users/stapi/OneDrive/Desktop/GD32VW553/V1_MQTT_OK/GD32VW55X_Wifi_BLE_SDK/GD32VW55x_RELEASE_V1.0.2/MSDK/cloud/alicloud/src/protocol/coap/local\CoAPMessage.c ****         if (COAP_OPTION_URI_PATH == message->options[index].num) {
 3740              		.loc 1 803 36 is_stmt 0
 3741 0462 8347C10A 		lbu	a5,172(sp)
 803:C:/Users/stapi/OneDrive/Desktop/GD32VW553/V1_MQTT_OK/GD32VW55X_Wifi_BLE_SDK/GD32VW55x_RELEASE_V1.0.2/MSDK/cloud/alicloud/src/protocol/coap/local\CoAPMessage.c ****         if (COAP_OPTION_URI_PATH == message->options[index].num) {
 3742              		.loc 1 803 5
 3743 0466 63C8FA06 		blt	s5,a5,.L239
 814:C:/Users/stapi/OneDrive/Desktop/GD32VW553/V1_MQTT_OK/GD32VW55X_Wifi_BLE_SDK/GD32VW55x_RELEASE_V1.0.2/MSDK/cloud/alicloud/src/protocol/coap/local\CoAPMessage.c **** 
 3744              		.loc 1 814 5 is_stmt 1
 3745 046a 37070000 		lui	a4,%hi(.LC29)
 3746 046e D287     		mv	a5,s4
 3747 0470 13070700 		addi	a4,a4,%lo(.LC29)
 3748 0474 9546     		li	a3,5
 3749 0476 1306E032 		li	a2,814
 3750 047a 93850900 		addi	a1,s3,%lo(.LANCHOR11)
 3751 047e 13050900 		addi	a0,s2,%lo(.LC1)
 3752              	.LVL401:
 3753 0482 97000000 		call	LITE_syslog
 3753      E7800000 
 3754              	.LVL402:
 816:C:/Users/stapi/OneDrive/Desktop/GD32VW553/V1_MQTT_OK/GD32VW55X_Wifi_BLE_SDK/GD32VW55x_RELEASE_V1.0.2/MSDK/cloud/alicloud/src/protocol/coap/local\CoAPMessage.c ****     if (NULL != resource) {
 3755              		.loc 1 816 5
 816:C:/Users/stapi/OneDrive/Desktop/GD32VW553/V1_MQTT_OK/GD32VW55X_Wifi_BLE_SDK/GD32VW55x_RELEASE_V1.0.2/MSDK/cloud/alicloud/src/protocol/coap/local\CoAPMessage.c ****     if (NULL != resource) {
 3756              		.loc 1 816 16 is_stmt 0
 3757 048a D285     		mv	a1,s4
 3758 048c 2285     		mv	a0,s0
 3759 048e 97000000 		call	CoAPResourceByPath_get
 3759      E7800000 
 3760              	.LVL403:
 3761 0496 AA84     		mv	s1,a0
 3762              	.LVL404:
 817:C:/Users/stapi/OneDrive/Desktop/GD32VW553/V1_MQTT_OK/GD32VW55X_Wifi_BLE_SDK/GD32VW55x_RELEASE_V1.0.2/MSDK/cloud/alicloud/src/protocol/coap/local\CoAPMessage.c ****         if (NULL != resource->callback) {
 3763              		.loc 1 817 5 is_stmt 1
 817:C:/Users/stapi/OneDrive/Desktop/GD32VW553/V1_MQTT_OK/GD32VW55X_Wifi_BLE_SDK/GD32VW55x_RELEASE_V1.0.2/MSDK/cloud/alicloud/src/protocol/coap/local\CoAPMessage.c ****         if (NULL != resource->callback) {
 3764              		.loc 1 817 8 is_stmt 0
 3765 0498 55CD     		beq	a0,zero,.L240
 818:C:/Users/stapi/OneDrive/Desktop/GD32VW553/V1_MQTT_OK/GD32VW55X_Wifi_BLE_SDK/GD32VW55x_RELEASE_V1.0.2/MSDK/cloud/alicloud/src/protocol/coap/local\CoAPMessage.c ****             if (((resource->permission) & (1 << ((message->header.code) - 1))) > 0) {
 3766              		.loc 1 818 9 is_stmt 1
 818:C:/Users/stapi/OneDrive/Desktop/GD32VW553/V1_MQTT_OK/GD32VW55X_Wifi_BLE_SDK/GD32VW55x_RELEASE_V1.0.2/MSDK/cloud/alicloud/src/protocol/coap/local\CoAPMessage.c ****             if (((resource->permission) & (1 << ((message->header.code) - 1))) > 0) {
 3767              		.loc 1 818 12 is_stmt 0
 3768 049a 5C41     		lw	a5,4(a0)
 3769 049c D5C3     		beq	a5,zero,.L241
 819:C:/Users/stapi/OneDrive/Desktop/GD32VW553/V1_MQTT_OK/GD32VW55X_Wifi_BLE_SDK/GD32VW55x_RELEASE_V1.0.2/MSDK/cloud/alicloud/src/protocol/coap/local\CoAPMessage.c ****                 /* Option for No Server Response, rfc7967*/
 3770              		.loc 1 819 13 is_stmt 1
 819:C:/Users/stapi/OneDrive/Desktop/GD32VW553/V1_MQTT_OK/GD32VW55X_Wifi_BLE_SDK/GD32VW55x_RELEASE_V1.0.2/MSDK/cloud/alicloud/src/protocol/coap/local\CoAPMessage.c ****                 /* Option for No Server Response, rfc7967*/
 3771              		.loc 1 819 66 is_stmt 0
 3772 049e 03471104 		lbu	a4,65(sp)
 819:C:/Users/stapi/OneDrive/Desktop/GD32VW553/V1_MQTT_OK/GD32VW55X_Wifi_BLE_SDK/GD32VW55x_RELEASE_V1.0.2/MSDK/cloud/alicloud/src/protocol/coap/local\CoAPMessage.c ****                 /* Option for No Server Response, rfc7967*/
 3773              		.loc 1 819 27
 3774 04a2 83570500 		lhu	a5,0(a0)
 819:C:/Users/stapi/OneDrive/Desktop/GD32VW553/V1_MQTT_OK/GD32VW55X_Wifi_BLE_SDK/GD32VW55x_RELEASE_V1.0.2/MSDK/cloud/alicloud/src/protocol/coap/local\CoAPMessage.c ****                 /* Option for No Server Response, rfc7967*/
 3775              		.loc 1 819 73
 3776 04a6 7D17     		addi	a4,a4,-1
 819:C:/Users/stapi/OneDrive/Desktop/GD32VW553/V1_MQTT_OK/GD32VW55X_Wifi_BLE_SDK/GD32VW55x_RELEASE_V1.0.2/MSDK/cloud/alicloud/src/protocol/coap/local\CoAPMessage.c ****                 /* Option for No Server Response, rfc7967*/
 3777              		.loc 1 819 46
 3778 04a8 3317E028 		bset	a4,x0,a4
 819:C:/Users/stapi/OneDrive/Desktop/GD32VW553/V1_MQTT_OK/GD32VW55X_Wifi_BLE_SDK/GD32VW55x_RELEASE_V1.0.2/MSDK/cloud/alicloud/src/protocol/coap/local\CoAPMessage.c ****                 /* Option for No Server Response, rfc7967*/
 3779              		.loc 1 819 41
 3780 04ac 7D8F     		and	a4,a4,a5
 819:C:/Users/stapi/OneDrive/Desktop/GD32VW553/V1_MQTT_OK/GD32VW55X_Wifi_BLE_SDK/GD32VW55x_RELEASE_V1.0.2/MSDK/cloud/alicloud/src/protocol/coap/local\CoAPMessage.c ****                 /* Option for No Server Response, rfc7967*/
 3781              		.loc 1 819 16
 3782 04ae 31CF     		beq	a4,zero,.L242
 821:C:/Users/stapi/OneDrive/Desktop/GD32VW553/V1_MQTT_OK/GD32VW55X_Wifi_BLE_SDK/GD32VW55x_RELEASE_V1.0.2/MSDK/cloud/alicloud/src/protocol/coap/local\CoAPMessage.c ****                         /* Send the Ack message */
 3783              		.loc 1 821 17 is_stmt 1
 821:C:/Users/stapi/OneDrive/Desktop/GD32VW553/V1_MQTT_OK/GD32VW55X_Wifi_BLE_SDK/GD32VW55x_RELEASE_V1.0.2/MSDK/cloud/alicloud/src/protocol/coap/local\CoAPMessage.c ****                         /* Send the Ack message */
 3784              		.loc 1 821 21 is_stmt 0
 3785 04b0 83470104 		lbu	a5,64(sp)
 821:C:/Users/stapi/OneDrive/Desktop/GD32VW553/V1_MQTT_OK/GD32VW55X_Wifi_BLE_SDK/GD32VW55x_RELEASE_V1.0.2/MSDK/cloud/alicloud/src/protocol/coap/local\CoAPMessage.c ****                         /* Send the Ack message */
 3786              		.loc 1 821 20
 3787 04b4 B18B     		andi	a5,a5,12
 3788 04b6 89EB     		bne	a5,zero,.L243
 823:C:/Users/stapi/OneDrive/Desktop/GD32VW553/V1_MQTT_OK/GD32VW55X_Wifi_BLE_SDK/GD32VW55x_RELEASE_V1.0.2/MSDK/cloud/alicloud/src/protocol/coap/local\CoAPMessage.c ****                 }
 3789              		.loc 1 823 21 is_stmt 1
 3790 04b8 03562104 		lhu	a2,66(sp)
 3791 04bc 6C10     		addi	a1,sp,44
 3792              	.LVL405:
 3793 04be 2285     		mv	a0,s0
 3794 04c0 97000000 		call	CoAPAckMessage_send.isra.0
 3794      E7800000 
 3795              	.LVL406:
 3796              	.L243:
 825:C:/Users/stapi/OneDrive/Desktop/GD32VW553/V1_MQTT_OK/GD32VW55X_Wifi_BLE_SDK/GD32VW55x_RELEASE_V1.0.2/MSDK/cloud/alicloud/src/protocol/coap/local\CoAPMessage.c ****             } else {
 3797              		.loc 1 825 17
 3798 04c8 DC40     		lw	a5,4(s1)
 3799 04ca 9400     		addi	a3,sp,64
 3800              	.LVL407:
 3801 04cc 7010     		addi	a2,sp,44
 3802              	.LVL408:
 3803 04ce D285     		mv	a1,s4
 3804 04d0 2285     		mv	a0,s0
 3805 04d2 8297     		jalr	a5
 3806              	.LVL409:
 3807 04d4 EDB9     		j	.L246
 3808              	.LVL410:
 3809              	.L239:
 804:C:/Users/stapi/OneDrive/Desktop/GD32VW553/V1_MQTT_OK/GD32VW55X_Wifi_BLE_SDK/GD32VW55x_RELEASE_V1.0.2/MSDK/cloud/alicloud/src/protocol/coap/local\CoAPMessage.c ****             if ((COAP_MSG_MAX_PATH_LEN - 1) >= (tmp - path + message->options[index].len)) {
 3810              		.loc 1 804 9
 804:C:/Users/stapi/OneDrive/Desktop/GD32VW553/V1_MQTT_OK/GD32VW55X_Wifi_BLE_SDK/GD32VW55x_RELEASE_V1.0.2/MSDK/cloud/alicloud/src/protocol/coap/local\CoAPMessage.c ****             if ((COAP_MSG_MAX_PATH_LEN - 1) >= (tmp - path + message->options[index].len)) {
 3811              		.loc 1 804 12 is_stmt 0
 3812 04d6 83D7C400 		lhu	a5,12(s1)
 3813 04da 63957703 		bne	a5,s7,.L238
 805:C:/Users/stapi/OneDrive/Desktop/GD32VW553/V1_MQTT_OK/GD32VW55X_Wifi_BLE_SDK/GD32VW55x_RELEASE_V1.0.2/MSDK/cloud/alicloud/src/protocol/coap/local\CoAPMessage.c ****                 *tmp = '/';
 3814              		.loc 1 805 13 is_stmt 1
 805:C:/Users/stapi/OneDrive/Desktop/GD32VW553/V1_MQTT_OK/GD32VW55X_Wifi_BLE_SDK/GD32VW55x_RELEASE_V1.0.2/MSDK/cloud/alicloud/src/protocol/coap/local\CoAPMessage.c ****                 *tmp = '/';
 3815              		.loc 1 805 85 is_stmt 0
 3816 04de 03DBE400 		lhu	s6,14(s1)
 805:C:/Users/stapi/OneDrive/Desktop/GD32VW553/V1_MQTT_OK/GD32VW55X_Wifi_BLE_SDK/GD32VW55x_RELEASE_V1.0.2/MSDK/cloud/alicloud/src/protocol/coap/local\CoAPMessage.c ****                 *tmp = '/';
 3817              		.loc 1 805 53
 3818 04e2 B3074541 		sub	a5,a0,s4
 805:C:/Users/stapi/OneDrive/Desktop/GD32VW553/V1_MQTT_OK/GD32VW55X_Wifi_BLE_SDK/GD32VW55x_RELEASE_V1.0.2/MSDK/cloud/alicloud/src/protocol/coap/local\CoAPMessage.c ****                 *tmp = '/';
 3819              		.loc 1 805 60
 3820 04e6 DA97     		add	a5,a5,s6
 805:C:/Users/stapi/OneDrive/Desktop/GD32VW553/V1_MQTT_OK/GD32VW55X_Wifi_BLE_SDK/GD32VW55x_RELEASE_V1.0.2/MSDK/cloud/alicloud/src/protocol/coap/local\CoAPMessage.c ****                 *tmp = '/';
 3821              		.loc 1 805 16
 3822 04e8 634EFC00 		bgt	a5,s8,.L238
 806:C:/Users/stapi/OneDrive/Desktop/GD32VW553/V1_MQTT_OK/GD32VW55X_Wifi_BLE_SDK/GD32VW55x_RELEASE_V1.0.2/MSDK/cloud/alicloud/src/protocol/coap/local\CoAPMessage.c ****                 tmp += 1;
 3823              		.loc 1 806 17 is_stmt 1
 808:C:/Users/stapi/OneDrive/Desktop/GD32VW553/V1_MQTT_OK/GD32VW55X_Wifi_BLE_SDK/GD32VW55x_RELEASE_V1.0.2/MSDK/cloud/alicloud/src/protocol/coap/local\CoAPMessage.c ****                 tmp += message->options[index].len;
 3824              		.loc 1 808 17 is_stmt 0
 3825 04ec 8C48     		lw	a1,16(s1)
 807:C:/Users/stapi/OneDrive/Desktop/GD32VW553/V1_MQTT_OK/GD32VW55X_Wifi_BLE_SDK/GD32VW55x_RELEASE_V1.0.2/MSDK/cloud/alicloud/src/protocol/coap/local\CoAPMessage.c ****                 strncpy((char *)tmp, (const char *)message->options[index].val, message->options[in
 3826              		.loc 1 807 21
 3827 04ee 13071500 		addi	a4,a0,1
 806:C:/Users/stapi/OneDrive/Desktop/GD32VW553/V1_MQTT_OK/GD32VW55X_Wifi_BLE_SDK/GD32VW55x_RELEASE_V1.0.2/MSDK/cloud/alicloud/src/protocol/coap/local\CoAPMessage.c ****                 tmp += 1;
 3828              		.loc 1 806 22
 3829 04f2 23009501 		sb	s9,0(a0)
 807:C:/Users/stapi/OneDrive/Desktop/GD32VW553/V1_MQTT_OK/GD32VW55X_Wifi_BLE_SDK/GD32VW55x_RELEASE_V1.0.2/MSDK/cloud/alicloud/src/protocol/coap/local\CoAPMessage.c ****                 strncpy((char *)tmp, (const char *)message->options[index].val, message->options[in
 3830              		.loc 1 807 17 is_stmt 1
 3831              	.LVL411:
 808:C:/Users/stapi/OneDrive/Desktop/GD32VW553/V1_MQTT_OK/GD32VW55X_Wifi_BLE_SDK/GD32VW55x_RELEASE_V1.0.2/MSDK/cloud/alicloud/src/protocol/coap/local\CoAPMessage.c ****                 tmp += message->options[index].len;
 3832              		.loc 1 808 17
 3833 04f6 5A86     		mv	a2,s6
 3834 04f8 3A85     		mv	a0,a4
 3835 04fa 97000000 		call	strncpy
 3835      E7800000 
 3836              	.LVL412:
 809:C:/Users/stapi/OneDrive/Desktop/GD32VW553/V1_MQTT_OK/GD32VW55X_Wifi_BLE_SDK/GD32VW55x_RELEASE_V1.0.2/MSDK/cloud/alicloud/src/protocol/coap/local\CoAPMessage.c ****             }
 3837              		.loc 1 809 17
 809:C:/Users/stapi/OneDrive/Desktop/GD32VW553/V1_MQTT_OK/GD32VW55X_Wifi_BLE_SDK/GD32VW55x_RELEASE_V1.0.2/MSDK/cloud/alicloud/src/protocol/coap/local\CoAPMessage.c ****             }
 3838              		.loc 1 809 21 is_stmt 0
 3839 0502 5A95     		add	a0,a0,s6
 3840              	.LVL413:
 3841              	.L238:
 803:C:/Users/stapi/OneDrive/Desktop/GD32VW553/V1_MQTT_OK/GD32VW55X_Wifi_BLE_SDK/GD32VW55x_RELEASE_V1.0.2/MSDK/cloud/alicloud/src/protocol/coap/local\CoAPMessage.c ****         if (COAP_OPTION_URI_PATH == message->options[index].num) {
 3842              		.loc 1 803 48 is_stmt 1
 803:C:/Users/stapi/OneDrive/Desktop/GD32VW553/V1_MQTT_OK/GD32VW55X_Wifi_BLE_SDK/GD32VW55x_RELEASE_V1.0.2/MSDK/cloud/alicloud/src/protocol/coap/local\CoAPMessage.c ****         if (COAP_OPTION_URI_PATH == message->options[index].num) {
 3843              		.loc 1 803 53 is_stmt 0
 3844 0504 850A     		addi	s5,s5,1
 3845              	.LVL414:
 3846 0506 A104     		addi	s1,s1,8
 3847 0508 A9BF     		j	.L237
 3848              	.LVL415:
 3849              	.L242:
 827:C:/Users/stapi/OneDrive/Desktop/GD32VW553/V1_MQTT_OK/GD32VW55X_Wifi_BLE_SDK/GD32VW55x_RELEASE_V1.0.2/MSDK/cloud/alicloud/src/protocol/coap/local\CoAPMessage.c ****                 ret = CoAPErrRespMessage_send(ctx, remote, message, COAP_MSG_CODE_405_METHOD_NOT_AL
 3850              		.loc 1 827 17 is_stmt 1
 3851 050a 37070000 		lui	a4,%hi(.LC30)
 3852 050e 93078501 		addi	a5,a0,24
 3853 0512 13070700 		addi	a4,a4,%lo(.LC30)
 3854 0516 9546     		li	a3,5
 3855 0518 1306B033 		li	a2,827
 3856              	.L271:
 831:C:/Users/stapi/OneDrive/Desktop/GD32VW553/V1_MQTT_OK/GD32VW55X_Wifi_BLE_SDK/GD32VW55x_RELEASE_V1.0.2/MSDK/cloud/alicloud/src/protocol/coap/local\CoAPMessage.c ****             ret = CoAPErrRespMessage_send(ctx, remote, message, COAP_MSG_CODE_405_METHOD_NOT_ALLOWE
 3857              		.loc 1 831 13 is_stmt 0
 3858 051c 93850900 		addi	a1,s3,%lo(.LANCHOR11)
 3859 0520 13050900 		addi	a0,s2,%lo(.LC1)
 3860 0524 97000000 		call	LITE_syslog
 3860      E7800000 
 3861              	.LVL416:
 832:C:/Users/stapi/OneDrive/Desktop/GD32VW553/V1_MQTT_OK/GD32VW55X_Wifi_BLE_SDK/GD32VW55x_RELEASE_V1.0.2/MSDK/cloud/alicloud/src/protocol/coap/local\CoAPMessage.c ****         }
 3862              		.loc 1 832 13 is_stmt 1
 832:C:/Users/stapi/OneDrive/Desktop/GD32VW553/V1_MQTT_OK/GD32VW55X_Wifi_BLE_SDK/GD32VW55x_RELEASE_V1.0.2/MSDK/cloud/alicloud/src/protocol/coap/local\CoAPMessage.c ****         }
 3863              		.loc 1 832 19 is_stmt 0
 3864 052c 93065008 		li	a3,133
 3865              	.L270:
 836:C:/Users/stapi/OneDrive/Desktop/GD32VW553/V1_MQTT_OK/GD32VW55X_Wifi_BLE_SDK/GD32VW55x_RELEASE_V1.0.2/MSDK/cloud/alicloud/src/protocol/coap/local\CoAPMessage.c ****     }
 3866              		.loc 1 836 15
 3867 0530 9000     		addi	a2,sp,64
 3868              	.LVL417:
 3869 0532 6C10     		addi	a1,sp,44
 3870              	.LVL418:
 3871 0534 2285     		mv	a0,s0
 3872 0536 97000000 		call	CoAPErrRespMessage_send.isra.0
 3872      E7800000 
 3873              	.LVL419:
 839:C:/Users/stapi/OneDrive/Desktop/GD32VW553/V1_MQTT_OK/GD32VW55X_Wifi_BLE_SDK/GD32VW55x_RELEASE_V1.0.2/MSDK/cloud/alicloud/src/protocol/coap/local\CoAPMessage.c **** }
 3874              		.loc 1 839 5 is_stmt 1
 839:C:/Users/stapi/OneDrive/Desktop/GD32VW553/V1_MQTT_OK/GD32VW55X_Wifi_BLE_SDK/GD32VW55x_RELEASE_V1.0.2/MSDK/cloud/alicloud/src/protocol/coap/local\CoAPMessage.c **** }
 3875              		.loc 1 839 12 is_stmt 0
 3876 053e 41B9     		j	.L246
 3877              	.L241:
 831:C:/Users/stapi/OneDrive/Desktop/GD32VW553/V1_MQTT_OK/GD32VW55X_Wifi_BLE_SDK/GD32VW55x_RELEASE_V1.0.2/MSDK/cloud/alicloud/src/protocol/coap/local\CoAPMessage.c ****             ret = CoAPErrRespMessage_send(ctx, remote, message, COAP_MSG_CODE_405_METHOD_NOT_ALLOWE
 3878              		.loc 1 831 13 is_stmt 1
 3879 0540 37070000 		lui	a4,%hi(.LC31)
 3880 0544 93078501 		addi	a5,a0,24
 3881 0548 13070700 		addi	a4,a4,%lo(.LC31)
 3882 054c 9546     		li	a3,5
 3883 054e 1306F033 		li	a2,831
 3884 0552 E9B7     		j	.L271
 3885              	.L240:
 835:C:/Users/stapi/OneDrive/Desktop/GD32VW553/V1_MQTT_OK/GD32VW55X_Wifi_BLE_SDK/GD32VW55x_RELEASE_V1.0.2/MSDK/cloud/alicloud/src/protocol/coap/local\CoAPMessage.c ****         ret = CoAPErrRespMessage_send(ctx, remote, message, COAP_MSG_CODE_404_NOT_FOUND);
 3886              		.loc 1 835 9
 3887 0554 37070000 		lui	a4,%hi(.LC32)
 3888 0558 9546     		li	a3,5
 3889 055a D287     		mv	a5,s4
 3890 055c 13070700 		addi	a4,a4,%lo(.LC32)
 3891 0560 13063034 		li	a2,835
 3892 0564 93850900 		addi	a1,s3,%lo(.LANCHOR11)
 3893 0568 13050900 		addi	a0,s2,%lo(.LC1)
 3894 056c 97000000 		call	LITE_syslog
 3894      E7800000 
 3895              	.LVL420:
 836:C:/Users/stapi/OneDrive/Desktop/GD32VW553/V1_MQTT_OK/GD32VW55X_Wifi_BLE_SDK/GD32VW55x_RELEASE_V1.0.2/MSDK/cloud/alicloud/src/protocol/coap/local\CoAPMessage.c ****     }
 3896              		.loc 1 836 9
 836:C:/Users/stapi/OneDrive/Desktop/GD32VW553/V1_MQTT_OK/GD32VW55X_Wifi_BLE_SDK/GD32VW55x_RELEASE_V1.0.2/MSDK/cloud/alicloud/src/protocol/coap/local\CoAPMessage.c ****     }
 3897              		.loc 1 836 15 is_stmt 0
 3898 0574 93064008 		li	a3,132
 3899 0578 65BF     		j	.L270
 3900              	.LVL421:
 3901              	.L236:
 3902              	.LBE193:
 3903              	.LBE192:
 882:C:/Users/stapi/OneDrive/Desktop/GD32VW553/V1_MQTT_OK/GD32VW55X_Wifi_BLE_SDK/GD32VW55x_RELEASE_V1.0.2/MSDK/cloud/alicloud/src/protocol/coap/local\CoAPMessage.c ****     }
 3904              		.loc 1 882 9 is_stmt 1
 882:C:/Users/stapi/OneDrive/Desktop/GD32VW553/V1_MQTT_OK/GD32VW55X_Wifi_BLE_SDK/GD32VW55x_RELEASE_V1.0.2/MSDK/cloud/alicloud/src/protocol/coap/local\CoAPMessage.c ****     }
 3905              		.loc 1 882 9
 3906 057a 37050000 		lui	a0,%hi(.LC5)
 3907 057e 13050500 		addi	a0,a0,%lo(.LC5)
 3908 0582 97000000 		call	HAL_Printf
 3908      E7800000 
 3909              	.LVL422:
 882:C:/Users/stapi/OneDrive/Desktop/GD32VW553/V1_MQTT_OK/GD32VW55X_Wifi_BLE_SDK/GD32VW55x_RELEASE_V1.0.2/MSDK/cloud/alicloud/src/protocol/coap/local\CoAPMessage.c ****     }
 3910              		.loc 1 882 9
 3911 058a 37050000 		lui	a0,%hi(.LC33)
 3912 058e 13050500 		addi	a0,a0,%lo(.LC33)
 3913 0592 97000000 		call	HAL_Printf
 3913      E7800000 
 3914              	.LVL423:
 882:C:/Users/stapi/OneDrive/Desktop/GD32VW553/V1_MQTT_OK/GD32VW55X_Wifi_BLE_SDK/GD32VW55x_RELEASE_V1.0.2/MSDK/cloud/alicloud/src/protocol/coap/local\CoAPMessage.c ****     }
 3915              		.loc 1 882 9
 3916 059a 37050000 		lui	a0,%hi(.LC7)
 3917 059e 13050500 		addi	a0,a0,%lo(.LC7)
 3918 05a2 97000000 		call	HAL_Printf
 3918      E7800000 
 3919              	.LVL424:
 882:C:/Users/stapi/OneDrive/Desktop/GD32VW553/V1_MQTT_OK/GD32VW55X_Wifi_BLE_SDK/GD32VW55x_RELEASE_V1.0.2/MSDK/cloud/alicloud/src/protocol/coap/local\CoAPMessage.c ****     }
 3920              		.loc 1 882 9
 3921 05aa 15B1     		j	.L246
 3922              	.LBE198:
 3923              	.LBE203:
 3924              		.cfi_endproc
 3925              	.LFE53:
 3927              		.section	.rodata.CoAPMessage_cycle.str1.4,"aMS",@progbits,1
 3928              		.align	2
 3929              	.LC34:
 3930 0000 52657461 		.string	"Retansmit the message id %d len %d"
 3930      6E736D69 
 3930      74207468 
 3930      65206D65 
 3930      73736167 
 3931 0023 00       		.align	2
 3932              	.LC35:
 3933 0024 6E6F6465 		.string	"node->timeout_val = %d , node->timeout=%d ,tick=%d"
 3933      2D3E7469 
 3933      6D656F75 
 3933      745F7661 
 3933      6C203D20 
 3934 0057 00       		.align	2
 3935              	.LC36:
 3936 0058 52657472 		.string	"Retransmit timeout,remove the message id %d count %d"
 3936      616E736D 
 3936      69742074 
 3936      696D656F 
 3936      75742C72 
 3937              		.section	.text.CoAPMessage_cycle,"ax",@progbits
 3938              		.align	1
 3939              		.globl	CoAPMessage_cycle
 3941              	CoAPMessage_cycle:
 3942              	.LFB56:
 917:C:/Users/stapi/OneDrive/Desktop/GD32VW553/V1_MQTT_OK/GD32VW55X_Wifi_BLE_SDK/GD32VW55x_RELEASE_V1.0.2/MSDK/cloud/alicloud/src/protocol/coap/local\CoAPMessage.c **** 
 918:C:/Users/stapi/OneDrive/Desktop/GD32VW553/V1_MQTT_OK/GD32VW55X_Wifi_BLE_SDK/GD32VW55x_RELEASE_V1.0.2/MSDK/cloud/alicloud/src/protocol/coap/local\CoAPMessage.c **** 
 919:C:/Users/stapi/OneDrive/Desktop/GD32VW553/V1_MQTT_OK/GD32VW55X_Wifi_BLE_SDK/GD32VW55x_RELEASE_V1.0.2/MSDK/cloud/alicloud/src/protocol/coap/local\CoAPMessage.c **** 
 920:C:/Users/stapi/OneDrive/Desktop/GD32VW553/V1_MQTT_OK/GD32VW55X_Wifi_BLE_SDK/GD32VW55x_RELEASE_V1.0.2/MSDK/cloud/alicloud/src/protocol/coap/local\CoAPMessage.c **** static void Check_timeout (void *context)
 921:C:/Users/stapi/OneDrive/Desktop/GD32VW553/V1_MQTT_OK/GD32VW55X_Wifi_BLE_SDK/GD32VW55x_RELEASE_V1.0.2/MSDK/cloud/alicloud/src/protocol/coap/local\CoAPMessage.c **** {
 922:C:/Users/stapi/OneDrive/Desktop/GD32VW553/V1_MQTT_OK/GD32VW55X_Wifi_BLE_SDK/GD32VW55x_RELEASE_V1.0.2/MSDK/cloud/alicloud/src/protocol/coap/local\CoAPMessage.c ****     //COAP_DEBUG("enter Check_timeout");
 923:C:/Users/stapi/OneDrive/Desktop/GD32VW553/V1_MQTT_OK/GD32VW55X_Wifi_BLE_SDK/GD32VW55x_RELEASE_V1.0.2/MSDK/cloud/alicloud/src/protocol/coap/local\CoAPMessage.c ****     CoAPIntContext *ctx = (CoAPIntContext *)context;
 924:C:/Users/stapi/OneDrive/Desktop/GD32VW553/V1_MQTT_OK/GD32VW55X_Wifi_BLE_SDK/GD32VW55x_RELEASE_V1.0.2/MSDK/cloud/alicloud/src/protocol/coap/local\CoAPMessage.c ****     CoAPSendNode *node = NULL, *next = NULL, *timeout_node = NULL;
 925:C:/Users/stapi/OneDrive/Desktop/GD32VW553/V1_MQTT_OK/GD32VW55X_Wifi_BLE_SDK/GD32VW55x_RELEASE_V1.0.2/MSDK/cloud/alicloud/src/protocol/coap/local\CoAPMessage.c ****     uint64_t tick = HAL_UptimeMs ();
 926:C:/Users/stapi/OneDrive/Desktop/GD32VW553/V1_MQTT_OK/GD32VW55X_Wifi_BLE_SDK/GD32VW55x_RELEASE_V1.0.2/MSDK/cloud/alicloud/src/protocol/coap/local\CoAPMessage.c ****     do {
 927:C:/Users/stapi/OneDrive/Desktop/GD32VW553/V1_MQTT_OK/GD32VW55X_Wifi_BLE_SDK/GD32VW55x_RELEASE_V1.0.2/MSDK/cloud/alicloud/src/protocol/coap/local\CoAPMessage.c ****         timeout_node = NULL;
 928:C:/Users/stapi/OneDrive/Desktop/GD32VW553/V1_MQTT_OK/GD32VW55X_Wifi_BLE_SDK/GD32VW55x_RELEASE_V1.0.2/MSDK/cloud/alicloud/src/protocol/coap/local\CoAPMessage.c ****         HAL_MutexLock(ctx->sendlist.list_mutex);
 929:C:/Users/stapi/OneDrive/Desktop/GD32VW553/V1_MQTT_OK/GD32VW55X_Wifi_BLE_SDK/GD32VW55x_RELEASE_V1.0.2/MSDK/cloud/alicloud/src/protocol/coap/local\CoAPMessage.c ****         list_for_each_entry_safe(node, next, &ctx->sendlist.list, sendlist, CoAPSendNode) {
 930:C:/Users/stapi/OneDrive/Desktop/GD32VW553/V1_MQTT_OK/GD32VW55X_Wifi_BLE_SDK/GD32VW55x_RELEASE_V1.0.2/MSDK/cloud/alicloud/src/protocol/coap/local\CoAPMessage.c **** 
 931:C:/Users/stapi/OneDrive/Desktop/GD32VW553/V1_MQTT_OK/GD32VW55X_Wifi_BLE_SDK/GD32VW55x_RELEASE_V1.0.2/MSDK/cloud/alicloud/src/protocol/coap/local\CoAPMessage.c ****             if (node->keep != NOKEEP) {
 932:C:/Users/stapi/OneDrive/Desktop/GD32VW553/V1_MQTT_OK/GD32VW55X_Wifi_BLE_SDK/GD32VW55x_RELEASE_V1.0.2/MSDK/cloud/alicloud/src/protocol/coap/local\CoAPMessage.c ****                 continue;
 933:C:/Users/stapi/OneDrive/Desktop/GD32VW553/V1_MQTT_OK/GD32VW55X_Wifi_BLE_SDK/GD32VW55x_RELEASE_V1.0.2/MSDK/cloud/alicloud/src/protocol/coap/local\CoAPMessage.c ****             }
 934:C:/Users/stapi/OneDrive/Desktop/GD32VW553/V1_MQTT_OK/GD32VW55X_Wifi_BLE_SDK/GD32VW55x_RELEASE_V1.0.2/MSDK/cloud/alicloud/src/protocol/coap/local\CoAPMessage.c ****             if ((node->retrans_count > 0) || (node->timeout >= tick)) {
 935:C:/Users/stapi/OneDrive/Desktop/GD32VW553/V1_MQTT_OK/GD32VW55X_Wifi_BLE_SDK/GD32VW55x_RELEASE_V1.0.2/MSDK/cloud/alicloud/src/protocol/coap/local\CoAPMessage.c ****                 continue;
 936:C:/Users/stapi/OneDrive/Desktop/GD32VW553/V1_MQTT_OK/GD32VW55X_Wifi_BLE_SDK/GD32VW55x_RELEASE_V1.0.2/MSDK/cloud/alicloud/src/protocol/coap/local\CoAPMessage.c ****             }
 937:C:/Users/stapi/OneDrive/Desktop/GD32VW553/V1_MQTT_OK/GD32VW55X_Wifi_BLE_SDK/GD32VW55x_RELEASE_V1.0.2/MSDK/cloud/alicloud/src/protocol/coap/local\CoAPMessage.c **** 
 938:C:/Users/stapi/OneDrive/Desktop/GD32VW553/V1_MQTT_OK/GD32VW55X_Wifi_BLE_SDK/GD32VW55x_RELEASE_V1.0.2/MSDK/cloud/alicloud/src/protocol/coap/local\CoAPMessage.c ****             /*Remove the node from the list*/
 939:C:/Users/stapi/OneDrive/Desktop/GD32VW553/V1_MQTT_OK/GD32VW55X_Wifi_BLE_SDK/GD32VW55x_RELEASE_V1.0.2/MSDK/cloud/alicloud/src/protocol/coap/local\CoAPMessage.c ****             list_del_init(&node->sendlist);
 940:C:/Users/stapi/OneDrive/Desktop/GD32VW553/V1_MQTT_OK/GD32VW55X_Wifi_BLE_SDK/GD32VW55x_RELEASE_V1.0.2/MSDK/cloud/alicloud/src/protocol/coap/local\CoAPMessage.c ****             ctx->sendlist.count--;
 941:C:/Users/stapi/OneDrive/Desktop/GD32VW553/V1_MQTT_OK/GD32VW55X_Wifi_BLE_SDK/GD32VW55x_RELEASE_V1.0.2/MSDK/cloud/alicloud/src/protocol/coap/local\CoAPMessage.c ****             COAP_INFO("Retransmit timeout,remove the message id %d count %d",
 942:C:/Users/stapi/OneDrive/Desktop/GD32VW553/V1_MQTT_OK/GD32VW55X_Wifi_BLE_SDK/GD32VW55x_RELEASE_V1.0.2/MSDK/cloud/alicloud/src/protocol/coap/local\CoAPMessage.c ****                               node->header.msgid, ctx->sendlist.count);
 943:C:/Users/stapi/OneDrive/Desktop/GD32VW553/V1_MQTT_OK/GD32VW55X_Wifi_BLE_SDK/GD32VW55x_RELEASE_V1.0.2/MSDK/cloud/alicloud/src/protocol/coap/local\CoAPMessage.c ****             CoAPMessage_print_sendlist(context);
 944:C:/Users/stapi/OneDrive/Desktop/GD32VW553/V1_MQTT_OK/GD32VW55X_Wifi_BLE_SDK/GD32VW55x_RELEASE_V1.0.2/MSDK/cloud/alicloud/src/protocol/coap/local\CoAPMessage.c ****             #ifndef COAP_OBSERVE_SERVER_DISABLE
 945:C:/Users/stapi/OneDrive/Desktop/GD32VW553/V1_MQTT_OK/GD32VW55X_Wifi_BLE_SDK/GD32VW55x_RELEASE_V1.0.2/MSDK/cloud/alicloud/src/protocol/coap/local\CoAPMessage.c ****                 CoapObsServerAll_delete(ctx, &node->remote);
 946:C:/Users/stapi/OneDrive/Desktop/GD32VW553/V1_MQTT_OK/GD32VW55X_Wifi_BLE_SDK/GD32VW55x_RELEASE_V1.0.2/MSDK/cloud/alicloud/src/protocol/coap/local\CoAPMessage.c ****             #endif
 947:C:/Users/stapi/OneDrive/Desktop/GD32VW553/V1_MQTT_OK/GD32VW55X_Wifi_BLE_SDK/GD32VW55x_RELEASE_V1.0.2/MSDK/cloud/alicloud/src/protocol/coap/local\CoAPMessage.c ****             timeout_node = node;
 948:C:/Users/stapi/OneDrive/Desktop/GD32VW553/V1_MQTT_OK/GD32VW55X_Wifi_BLE_SDK/GD32VW55x_RELEASE_V1.0.2/MSDK/cloud/alicloud/src/protocol/coap/local\CoAPMessage.c ****             break;
 949:C:/Users/stapi/OneDrive/Desktop/GD32VW553/V1_MQTT_OK/GD32VW55X_Wifi_BLE_SDK/GD32VW55x_RELEASE_V1.0.2/MSDK/cloud/alicloud/src/protocol/coap/local\CoAPMessage.c ****         }
 950:C:/Users/stapi/OneDrive/Desktop/GD32VW553/V1_MQTT_OK/GD32VW55X_Wifi_BLE_SDK/GD32VW55x_RELEASE_V1.0.2/MSDK/cloud/alicloud/src/protocol/coap/local\CoAPMessage.c ****         HAL_MutexUnlock(ctx->sendlist.list_mutex);
 951:C:/Users/stapi/OneDrive/Desktop/GD32VW553/V1_MQTT_OK/GD32VW55X_Wifi_BLE_SDK/GD32VW55x_RELEASE_V1.0.2/MSDK/cloud/alicloud/src/protocol/coap/local\CoAPMessage.c **** 
 952:C:/Users/stapi/OneDrive/Desktop/GD32VW553/V1_MQTT_OK/GD32VW55X_Wifi_BLE_SDK/GD32VW55x_RELEASE_V1.0.2/MSDK/cloud/alicloud/src/protocol/coap/local\CoAPMessage.c ****         if (timeout_node) {
 953:C:/Users/stapi/OneDrive/Desktop/GD32VW553/V1_MQTT_OK/GD32VW55X_Wifi_BLE_SDK/GD32VW55x_RELEASE_V1.0.2/MSDK/cloud/alicloud/src/protocol/coap/local\CoAPMessage.c ****             if(NULL != timeout_node->handler){
 954:C:/Users/stapi/OneDrive/Desktop/GD32VW553/V1_MQTT_OK/GD32VW55X_Wifi_BLE_SDK/GD32VW55x_RELEASE_V1.0.2/MSDK/cloud/alicloud/src/protocol/coap/local\CoAPMessage.c ****                 timeout_node->handler(ctx, COAP_RECV_RESP_TIMEOUT, timeout_node->user, &timeout_nod
 955:C:/Users/stapi/OneDrive/Desktop/GD32VW553/V1_MQTT_OK/GD32VW55X_Wifi_BLE_SDK/GD32VW55x_RELEASE_V1.0.2/MSDK/cloud/alicloud/src/protocol/coap/local\CoAPMessage.c ****             }
 956:C:/Users/stapi/OneDrive/Desktop/GD32VW553/V1_MQTT_OK/GD32VW55X_Wifi_BLE_SDK/GD32VW55x_RELEASE_V1.0.2/MSDK/cloud/alicloud/src/protocol/coap/local\CoAPMessage.c ****             coap_free(timeout_node->message);
 957:C:/Users/stapi/OneDrive/Desktop/GD32VW553/V1_MQTT_OK/GD32VW55X_Wifi_BLE_SDK/GD32VW55x_RELEASE_V1.0.2/MSDK/cloud/alicloud/src/protocol/coap/local\CoAPMessage.c ****             coap_free(timeout_node);
 958:C:/Users/stapi/OneDrive/Desktop/GD32VW553/V1_MQTT_OK/GD32VW55X_Wifi_BLE_SDK/GD32VW55x_RELEASE_V1.0.2/MSDK/cloud/alicloud/src/protocol/coap/local\CoAPMessage.c ****         }
 959:C:/Users/stapi/OneDrive/Desktop/GD32VW553/V1_MQTT_OK/GD32VW55X_Wifi_BLE_SDK/GD32VW55x_RELEASE_V1.0.2/MSDK/cloud/alicloud/src/protocol/coap/local\CoAPMessage.c ****     } while (timeout_node);
 960:C:/Users/stapi/OneDrive/Desktop/GD32VW553/V1_MQTT_OK/GD32VW55X_Wifi_BLE_SDK/GD32VW55x_RELEASE_V1.0.2/MSDK/cloud/alicloud/src/protocol/coap/local\CoAPMessage.c **** }
 961:C:/Users/stapi/OneDrive/Desktop/GD32VW553/V1_MQTT_OK/GD32VW55X_Wifi_BLE_SDK/GD32VW55x_RELEASE_V1.0.2/MSDK/cloud/alicloud/src/protocol/coap/local\CoAPMessage.c **** 
 962:C:/Users/stapi/OneDrive/Desktop/GD32VW553/V1_MQTT_OK/GD32VW55X_Wifi_BLE_SDK/GD32VW55x_RELEASE_V1.0.2/MSDK/cloud/alicloud/src/protocol/coap/local\CoAPMessage.c **** static void Retansmit (void *context)
 963:C:/Users/stapi/OneDrive/Desktop/GD32VW553/V1_MQTT_OK/GD32VW55X_Wifi_BLE_SDK/GD32VW55x_RELEASE_V1.0.2/MSDK/cloud/alicloud/src/protocol/coap/local\CoAPMessage.c **** {
 964:C:/Users/stapi/OneDrive/Desktop/GD32VW553/V1_MQTT_OK/GD32VW55X_Wifi_BLE_SDK/GD32VW55x_RELEASE_V1.0.2/MSDK/cloud/alicloud/src/protocol/coap/local\CoAPMessage.c ****     //COAP_DEBUG("enter Retansmit");
 965:C:/Users/stapi/OneDrive/Desktop/GD32VW553/V1_MQTT_OK/GD32VW55X_Wifi_BLE_SDK/GD32VW55x_RELEASE_V1.0.2/MSDK/cloud/alicloud/src/protocol/coap/local\CoAPMessage.c ****     CoAPIntContext *ctx = (CoAPIntContext *)context;
 966:C:/Users/stapi/OneDrive/Desktop/GD32VW553/V1_MQTT_OK/GD32VW55X_Wifi_BLE_SDK/GD32VW55x_RELEASE_V1.0.2/MSDK/cloud/alicloud/src/protocol/coap/local\CoAPMessage.c ****     CoAPSendNode *node = NULL, *next = NULL;
 967:C:/Users/stapi/OneDrive/Desktop/GD32VW553/V1_MQTT_OK/GD32VW55X_Wifi_BLE_SDK/GD32VW55x_RELEASE_V1.0.2/MSDK/cloud/alicloud/src/protocol/coap/local\CoAPMessage.c ****     unsigned int ret = 0;
 968:C:/Users/stapi/OneDrive/Desktop/GD32VW553/V1_MQTT_OK/GD32VW55X_Wifi_BLE_SDK/GD32VW55x_RELEASE_V1.0.2/MSDK/cloud/alicloud/src/protocol/coap/local\CoAPMessage.c **** 
 969:C:/Users/stapi/OneDrive/Desktop/GD32VW553/V1_MQTT_OK/GD32VW55X_Wifi_BLE_SDK/GD32VW55x_RELEASE_V1.0.2/MSDK/cloud/alicloud/src/protocol/coap/local\CoAPMessage.c ****     uint64_t tick = HAL_UptimeMs ();
 970:C:/Users/stapi/OneDrive/Desktop/GD32VW553/V1_MQTT_OK/GD32VW55X_Wifi_BLE_SDK/GD32VW55x_RELEASE_V1.0.2/MSDK/cloud/alicloud/src/protocol/coap/local\CoAPMessage.c ****     HAL_MutexLock(ctx->sendlist.list_mutex);
 971:C:/Users/stapi/OneDrive/Desktop/GD32VW553/V1_MQTT_OK/GD32VW55X_Wifi_BLE_SDK/GD32VW55x_RELEASE_V1.0.2/MSDK/cloud/alicloud/src/protocol/coap/local\CoAPMessage.c ****     list_for_each_entry_safe(node, next, &ctx->sendlist.list, sendlist, CoAPSendNode) {
 972:C:/Users/stapi/OneDrive/Desktop/GD32VW553/V1_MQTT_OK/GD32VW55X_Wifi_BLE_SDK/GD32VW55x_RELEASE_V1.0.2/MSDK/cloud/alicloud/src/protocol/coap/local\CoAPMessage.c ****         if (NULL == node || node->timeout > tick ) {
 973:C:/Users/stapi/OneDrive/Desktop/GD32VW553/V1_MQTT_OK/GD32VW55X_Wifi_BLE_SDK/GD32VW55x_RELEASE_V1.0.2/MSDK/cloud/alicloud/src/protocol/coap/local\CoAPMessage.c ****             continue;
 974:C:/Users/stapi/OneDrive/Desktop/GD32VW553/V1_MQTT_OK/GD32VW55X_Wifi_BLE_SDK/GD32VW55x_RELEASE_V1.0.2/MSDK/cloud/alicloud/src/protocol/coap/local\CoAPMessage.c ****         }
 975:C:/Users/stapi/OneDrive/Desktop/GD32VW553/V1_MQTT_OK/GD32VW55X_Wifi_BLE_SDK/GD32VW55x_RELEASE_V1.0.2/MSDK/cloud/alicloud/src/protocol/coap/local\CoAPMessage.c **** 
 976:C:/Users/stapi/OneDrive/Desktop/GD32VW553/V1_MQTT_OK/GD32VW55X_Wifi_BLE_SDK/GD32VW55x_RELEASE_V1.0.2/MSDK/cloud/alicloud/src/protocol/coap/local\CoAPMessage.c ****         if (node->retrans_count > 0) {
 977:C:/Users/stapi/OneDrive/Desktop/GD32VW553/V1_MQTT_OK/GD32VW55X_Wifi_BLE_SDK/GD32VW55x_RELEASE_V1.0.2/MSDK/cloud/alicloud/src/protocol/coap/local\CoAPMessage.c ****             /*If has received ack message, don't resend the message*/
 978:C:/Users/stapi/OneDrive/Desktop/GD32VW553/V1_MQTT_OK/GD32VW55X_Wifi_BLE_SDK/GD32VW55x_RELEASE_V1.0.2/MSDK/cloud/alicloud/src/protocol/coap/local\CoAPMessage.c ****             if(0 == node->acked){
 979:C:/Users/stapi/OneDrive/Desktop/GD32VW553/V1_MQTT_OK/GD32VW55X_Wifi_BLE_SDK/GD32VW55x_RELEASE_V1.0.2/MSDK/cloud/alicloud/src/protocol/coap/local\CoAPMessage.c ****                 COAP_DEBUG("Retansmit the message id %d len %d", node->header.msgid, node->msglen);
 980:C:/Users/stapi/OneDrive/Desktop/GD32VW553/V1_MQTT_OK/GD32VW55X_Wifi_BLE_SDK/GD32VW55x_RELEASE_V1.0.2/MSDK/cloud/alicloud/src/protocol/coap/local\CoAPMessage.c ****                 ret = CoAPNetwork_write(ctx->p_network, &node->remote, node->message, node->msglen,
 981:C:/Users/stapi/OneDrive/Desktop/GD32VW553/V1_MQTT_OK/GD32VW55X_Wifi_BLE_SDK/GD32VW55x_RELEASE_V1.0.2/MSDK/cloud/alicloud/src/protocol/coap/local\CoAPMessage.c ****                 if (ret != COAP_SUCCESS) {
 982:C:/Users/stapi/OneDrive/Desktop/GD32VW553/V1_MQTT_OK/GD32VW55X_Wifi_BLE_SDK/GD32VW55x_RELEASE_V1.0.2/MSDK/cloud/alicloud/src/protocol/coap/local\CoAPMessage.c ****                 }
 983:C:/Users/stapi/OneDrive/Desktop/GD32VW553/V1_MQTT_OK/GD32VW55X_Wifi_BLE_SDK/GD32VW55x_RELEASE_V1.0.2/MSDK/cloud/alicloud/src/protocol/coap/local\CoAPMessage.c ****             }
 984:C:/Users/stapi/OneDrive/Desktop/GD32VW553/V1_MQTT_OK/GD32VW55X_Wifi_BLE_SDK/GD32VW55x_RELEASE_V1.0.2/MSDK/cloud/alicloud/src/protocol/coap/local\CoAPMessage.c ****             node->timeout_val = node->timeout_val * 3 / 2;
 985:C:/Users/stapi/OneDrive/Desktop/GD32VW553/V1_MQTT_OK/GD32VW55X_Wifi_BLE_SDK/GD32VW55x_RELEASE_V1.0.2/MSDK/cloud/alicloud/src/protocol/coap/local\CoAPMessage.c ****             -- node->retrans_count;
 986:C:/Users/stapi/OneDrive/Desktop/GD32VW553/V1_MQTT_OK/GD32VW55X_Wifi_BLE_SDK/GD32VW55x_RELEASE_V1.0.2/MSDK/cloud/alicloud/src/protocol/coap/local\CoAPMessage.c ****             if (node->retrans_count == 0) {
 987:C:/Users/stapi/OneDrive/Desktop/GD32VW553/V1_MQTT_OK/GD32VW55X_Wifi_BLE_SDK/GD32VW55x_RELEASE_V1.0.2/MSDK/cloud/alicloud/src/protocol/coap/local\CoAPMessage.c ****                 node->timeout = tick + COAP_ACK_TIMEOUT;
 988:C:/Users/stapi/OneDrive/Desktop/GD32VW553/V1_MQTT_OK/GD32VW55X_Wifi_BLE_SDK/GD32VW55x_RELEASE_V1.0.2/MSDK/cloud/alicloud/src/protocol/coap/local\CoAPMessage.c ****             } else {
 989:C:/Users/stapi/OneDrive/Desktop/GD32VW553/V1_MQTT_OK/GD32VW55X_Wifi_BLE_SDK/GD32VW55x_RELEASE_V1.0.2/MSDK/cloud/alicloud/src/protocol/coap/local\CoAPMessage.c ****                 node->timeout = tick + node->timeout_val;
 990:C:/Users/stapi/OneDrive/Desktop/GD32VW553/V1_MQTT_OK/GD32VW55X_Wifi_BLE_SDK/GD32VW55x_RELEASE_V1.0.2/MSDK/cloud/alicloud/src/protocol/coap/local\CoAPMessage.c ****             }
 991:C:/Users/stapi/OneDrive/Desktop/GD32VW553/V1_MQTT_OK/GD32VW55X_Wifi_BLE_SDK/GD32VW55x_RELEASE_V1.0.2/MSDK/cloud/alicloud/src/protocol/coap/local\CoAPMessage.c **** 
 992:C:/Users/stapi/OneDrive/Desktop/GD32VW553/V1_MQTT_OK/GD32VW55X_Wifi_BLE_SDK/GD32VW55x_RELEASE_V1.0.2/MSDK/cloud/alicloud/src/protocol/coap/local\CoAPMessage.c ****             COAP_FLOW("node->timeout_val = %d , node->timeout=%d ,tick=%d", node->timeout_val,node-
 993:C:/Users/stapi/OneDrive/Desktop/GD32VW553/V1_MQTT_OK/GD32VW55X_Wifi_BLE_SDK/GD32VW55x_RELEASE_V1.0.2/MSDK/cloud/alicloud/src/protocol/coap/local\CoAPMessage.c ****             CoAPMessage_print_sendlist(context);
 994:C:/Users/stapi/OneDrive/Desktop/GD32VW553/V1_MQTT_OK/GD32VW55X_Wifi_BLE_SDK/GD32VW55x_RELEASE_V1.0.2/MSDK/cloud/alicloud/src/protocol/coap/local\CoAPMessage.c ****         }
 995:C:/Users/stapi/OneDrive/Desktop/GD32VW553/V1_MQTT_OK/GD32VW55X_Wifi_BLE_SDK/GD32VW55x_RELEASE_V1.0.2/MSDK/cloud/alicloud/src/protocol/coap/local\CoAPMessage.c ****     }
 996:C:/Users/stapi/OneDrive/Desktop/GD32VW553/V1_MQTT_OK/GD32VW55X_Wifi_BLE_SDK/GD32VW55x_RELEASE_V1.0.2/MSDK/cloud/alicloud/src/protocol/coap/local\CoAPMessage.c ****     HAL_MutexUnlock(ctx->sendlist.list_mutex);
 997:C:/Users/stapi/OneDrive/Desktop/GD32VW553/V1_MQTT_OK/GD32VW55X_Wifi_BLE_SDK/GD32VW55x_RELEASE_V1.0.2/MSDK/cloud/alicloud/src/protocol/coap/local\CoAPMessage.c **** }
 998:C:/Users/stapi/OneDrive/Desktop/GD32VW553/V1_MQTT_OK/GD32VW55X_Wifi_BLE_SDK/GD32VW55x_RELEASE_V1.0.2/MSDK/cloud/alicloud/src/protocol/coap/local\CoAPMessage.c **** 
 999:C:/Users/stapi/OneDrive/Desktop/GD32VW553/V1_MQTT_OK/GD32VW55X_Wifi_BLE_SDK/GD32VW55x_RELEASE_V1.0.2/MSDK/cloud/alicloud/src/protocol/coap/local\CoAPMessage.c **** extern void *coap_yield_mutex;
1000:C:/Users/stapi/OneDrive/Desktop/GD32VW553/V1_MQTT_OK/GD32VW55X_Wifi_BLE_SDK/GD32VW55x_RELEASE_V1.0.2/MSDK/cloud/alicloud/src/protocol/coap/local\CoAPMessage.c **** 
1001:C:/Users/stapi/OneDrive/Desktop/GD32VW553/V1_MQTT_OK/GD32VW55X_Wifi_BLE_SDK/GD32VW55x_RELEASE_V1.0.2/MSDK/cloud/alicloud/src/protocol/coap/local\CoAPMessage.c **** int CoAPMessage_cycle(CoAPContext *context)
1002:C:/Users/stapi/OneDrive/Desktop/GD32VW553/V1_MQTT_OK/GD32VW55X_Wifi_BLE_SDK/GD32VW55x_RELEASE_V1.0.2/MSDK/cloud/alicloud/src/protocol/coap/local\CoAPMessage.c **** {
 3943              		.loc 1 1002 1
 3944              		.cfi_startproc
 3945              	.LVL425:
 3946 0000 17030000 		call	t0,__riscv_save_12
 3946      E7020300 
 3947              		.cfi_offset 27, -52
 3948              		.cfi_offset 26, -48
 3949              		.cfi_offset 25, -44
 3950              		.cfi_offset 24, -40
 3951              		.cfi_offset 23, -36
 3952              		.cfi_offset 22, -32
 3953              		.cfi_offset 21, -28
 3954              		.cfi_offset 20, -24
 3955              		.cfi_offset 19, -20
 3956              		.cfi_offset 18, -16
 3957              		.cfi_offset 9, -12
 3958              		.cfi_offset 8, -8
 3959              		.cfi_offset 1, -4
 3960              		.cfi_def_cfa_offset 64
1003:C:/Users/stapi/OneDrive/Desktop/GD32VW553/V1_MQTT_OK/GD32VW55X_Wifi_BLE_SDK/GD32VW55x_RELEASE_V1.0.2/MSDK/cloud/alicloud/src/protocol/coap/local\CoAPMessage.c ****    // unsigned int ret = 0;
1004:C:/Users/stapi/OneDrive/Desktop/GD32VW553/V1_MQTT_OK/GD32VW55X_Wifi_BLE_SDK/GD32VW55x_RELEASE_V1.0.2/MSDK/cloud/alicloud/src/protocol/coap/local\CoAPMessage.c ****     int res = 0;
 3961              		.loc 1 1004 5
 3962              	.LVL426:
1005:C:/Users/stapi/OneDrive/Desktop/GD32VW553/V1_MQTT_OK/GD32VW55X_Wifi_BLE_SDK/GD32VW55x_RELEASE_V1.0.2/MSDK/cloud/alicloud/src/protocol/coap/local\CoAPMessage.c **** 
1006:C:/Users/stapi/OneDrive/Desktop/GD32VW553/V1_MQTT_OK/GD32VW55X_Wifi_BLE_SDK/GD32VW55x_RELEASE_V1.0.2/MSDK/cloud/alicloud/src/protocol/coap/local\CoAPMessage.c ****     CoAPIntContext *ctx = (CoAPIntContext *)context;
 3963              		.loc 1 1006 5
1007:C:/Users/stapi/OneDrive/Desktop/GD32VW553/V1_MQTT_OK/GD32VW55X_Wifi_BLE_SDK/GD32VW55x_RELEASE_V1.0.2/MSDK/cloud/alicloud/src/protocol/coap/local\CoAPMessage.c **** 
1008:C:/Users/stapi/OneDrive/Desktop/GD32VW553/V1_MQTT_OK/GD32VW55X_Wifi_BLE_SDK/GD32VW55x_RELEASE_V1.0.2/MSDK/cloud/alicloud/src/protocol/coap/local\CoAPMessage.c ****     if (NULL == context) {
 3964              		.loc 1 1008 5
1002:C:/Users/stapi/OneDrive/Desktop/GD32VW553/V1_MQTT_OK/GD32VW55X_Wifi_BLE_SDK/GD32VW55x_RELEASE_V1.0.2/MSDK/cloud/alicloud/src/protocol/coap/local\CoAPMessage.c ****    // unsigned int ret = 0;
 3965              		.loc 1 1002 1 is_stmt 0
 3966 0008 0111     		addi	sp,sp,-32
 3967              		.cfi_def_cfa_offset 96
1009:C:/Users/stapi/OneDrive/Desktop/GD32VW553/V1_MQTT_OK/GD32VW55X_Wifi_BLE_SDK/GD32VW55x_RELEASE_V1.0.2/MSDK/cloud/alicloud/src/protocol/coap/local\CoAPMessage.c ****         return COAP_ERROR_NULL;
 3968              		.loc 1 1009 16
 3969 000a 13092010 		li	s2,258
1008:C:/Users/stapi/OneDrive/Desktop/GD32VW553/V1_MQTT_OK/GD32VW55X_Wifi_BLE_SDK/GD32VW55x_RELEASE_V1.0.2/MSDK/cloud/alicloud/src/protocol/coap/local\CoAPMessage.c ****         return COAP_ERROR_NULL;
 3970              		.loc 1 1008 8
 3971 000e 630D0522 		beq	a0,zero,.L272
1010:C:/Users/stapi/OneDrive/Desktop/GD32VW553/V1_MQTT_OK/GD32VW55X_Wifi_BLE_SDK/GD32VW55x_RELEASE_V1.0.2/MSDK/cloud/alicloud/src/protocol/coap/local\CoAPMessage.c ****     }
1011:C:/Users/stapi/OneDrive/Desktop/GD32VW553/V1_MQTT_OK/GD32VW55X_Wifi_BLE_SDK/GD32VW55x_RELEASE_V1.0.2/MSDK/cloud/alicloud/src/protocol/coap/local\CoAPMessage.c **** 
1012:C:/Users/stapi/OneDrive/Desktop/GD32VW553/V1_MQTT_OK/GD32VW55X_Wifi_BLE_SDK/GD32VW55x_RELEASE_V1.0.2/MSDK/cloud/alicloud/src/protocol/coap/local\CoAPMessage.c ****     if (coap_yield_mutex != NULL) {
 3972              		.loc 1 1012 26
 3973 0012 B7090000 		lui	s3,%hi(coap_yield_mutex)
 3974 0016 AA84     		mv	s1,a0
 3975              		.loc 1 1012 5 is_stmt 1
 3976              		.loc 1 1012 26 is_stmt 0
 3977 0018 03A50900 		lw	a0,%lo(coap_yield_mutex)(s3)
 3978              	.LVL427:
 3979 001c 4ECE     		sw	s3,28(sp)
 3980              		.loc 1 1012 8
 3981 001e 09C5     		beq	a0,zero,.L274
1013:C:/Users/stapi/OneDrive/Desktop/GD32VW553/V1_MQTT_OK/GD32VW55X_Wifi_BLE_SDK/GD32VW55x_RELEASE_V1.0.2/MSDK/cloud/alicloud/src/protocol/coap/local\CoAPMessage.c ****         HAL_MutexLock(coap_yield_mutex);
 3982              		.loc 1 1013 9 is_stmt 1
 3983 0020 97000000 		call	HAL_MutexLock
 3983      E7800000 
 3984              	.LVL428:
 3985              	.L274:
1014:C:/Users/stapi/OneDrive/Desktop/GD32VW553/V1_MQTT_OK/GD32VW55X_Wifi_BLE_SDK/GD32VW55x_RELEASE_V1.0.2/MSDK/cloud/alicloud/src/protocol/coap/local\CoAPMessage.c ****     }
1015:C:/Users/stapi/OneDrive/Desktop/GD32VW553/V1_MQTT_OK/GD32VW55X_Wifi_BLE_SDK/GD32VW55x_RELEASE_V1.0.2/MSDK/cloud/alicloud/src/protocol/coap/local\CoAPMessage.c **** 
1016:C:/Users/stapi/OneDrive/Desktop/GD32VW553/V1_MQTT_OK/GD32VW55X_Wifi_BLE_SDK/GD32VW55x_RELEASE_V1.0.2/MSDK/cloud/alicloud/src/protocol/coap/local\CoAPMessage.c **** 
1017:C:/Users/stapi/OneDrive/Desktop/GD32VW553/V1_MQTT_OK/GD32VW55X_Wifi_BLE_SDK/GD32VW55x_RELEASE_V1.0.2/MSDK/cloud/alicloud/src/protocol/coap/local\CoAPMessage.c ****     res = CoAPMessage_process(ctx, ctx->waittime);
 3986              		.loc 1 1017 5
 3987              		.loc 1 1017 11 is_stmt 0
 3988 0028 EC48     		lw	a1,84(s1)
 3989 002a 2685     		mv	a0,s1
 3990              	.LBB216:
 3991              	.LBB217:
 992:C:/Users/stapi/OneDrive/Desktop/GD32VW553/V1_MQTT_OK/GD32VW55X_Wifi_BLE_SDK/GD32VW55x_RELEASE_V1.0.2/MSDK/cloud/alicloud/src/protocol/coap/local\CoAPMessage.c ****             CoAPMessage_print_sendlist(context);
 3992              		.loc 1 992 13
 3993 002c 416A     		li	s4,65536
 3994              	.LBE217:
 3995              	.LBE216:
 3996              		.loc 1 1017 11
 3997 002e 97000000 		call	CoAPMessage_process
 3997      E7800000 
 3998              	.LVL429:
 3999 0036 2A89     		mv	s2,a0
 4000              	.LVL430:
1018:C:/Users/stapi/OneDrive/Desktop/GD32VW553/V1_MQTT_OK/GD32VW55X_Wifi_BLE_SDK/GD32VW55x_RELEASE_V1.0.2/MSDK/cloud/alicloud/src/protocol/coap/local\CoAPMessage.c ****     Retansmit (ctx);
 4001              		.loc 1 1018 5 is_stmt 1
 4002              	.LBB223:
 4003              	.LBB220:
 965:C:/Users/stapi/OneDrive/Desktop/GD32VW553/V1_MQTT_OK/GD32VW55X_Wifi_BLE_SDK/GD32VW55x_RELEASE_V1.0.2/MSDK/cloud/alicloud/src/protocol/coap/local\CoAPMessage.c ****     CoAPSendNode *node = NULL, *next = NULL;
 4004              		.loc 1 965 5
 966:C:/Users/stapi/OneDrive/Desktop/GD32VW553/V1_MQTT_OK/GD32VW55X_Wifi_BLE_SDK/GD32VW55x_RELEASE_V1.0.2/MSDK/cloud/alicloud/src/protocol/coap/local\CoAPMessage.c ****     unsigned int ret = 0;
 4005              		.loc 1 966 5
 967:C:/Users/stapi/OneDrive/Desktop/GD32VW553/V1_MQTT_OK/GD32VW55X_Wifi_BLE_SDK/GD32VW55x_RELEASE_V1.0.2/MSDK/cloud/alicloud/src/protocol/coap/local\CoAPMessage.c **** 
 4006              		.loc 1 967 5
 969:C:/Users/stapi/OneDrive/Desktop/GD32VW553/V1_MQTT_OK/GD32VW55X_Wifi_BLE_SDK/GD32VW55x_RELEASE_V1.0.2/MSDK/cloud/alicloud/src/protocol/coap/local\CoAPMessage.c ****     HAL_MutexLock(ctx->sendlist.list_mutex);
 4007              		.loc 1 969 5
 969:C:/Users/stapi/OneDrive/Desktop/GD32VW553/V1_MQTT_OK/GD32VW55X_Wifi_BLE_SDK/GD32VW55x_RELEASE_V1.0.2/MSDK/cloud/alicloud/src/protocol/coap/local\CoAPMessage.c ****     HAL_MutexLock(ctx->sendlist.list_mutex);
 4008              		.loc 1 969 21 is_stmt 0
 4009 0038 97000000 		call	HAL_UptimeMs
 4009      E7800000 
 4010              	.LVL431:
 4011 0040 AA8C     		mv	s9,a0
 970:C:/Users/stapi/OneDrive/Desktop/GD32VW553/V1_MQTT_OK/GD32VW55X_Wifi_BLE_SDK/GD32VW55x_RELEASE_V1.0.2/MSDK/cloud/alicloud/src/protocol/coap/local\CoAPMessage.c ****     list_for_each_entry_safe(node, next, &ctx->sendlist.list, sendlist, CoAPSendNode) {
 4012              		.loc 1 970 5
 4013 0042 C848     		lw	a0,20(s1)
 969:C:/Users/stapi/OneDrive/Desktop/GD32VW553/V1_MQTT_OK/GD32VW55X_Wifi_BLE_SDK/GD32VW55x_RELEASE_V1.0.2/MSDK/cloud/alicloud/src/protocol/coap/local\CoAPMessage.c ****     HAL_MutexLock(ctx->sendlist.list_mutex);
 4014              		.loc 1 969 21
 4015 0044 AE8D     		mv	s11,a1
 4016              	.LVL432:
 970:C:/Users/stapi/OneDrive/Desktop/GD32VW553/V1_MQTT_OK/GD32VW55X_Wifi_BLE_SDK/GD32VW55x_RELEASE_V1.0.2/MSDK/cloud/alicloud/src/protocol/coap/local\CoAPMessage.c ****     list_for_each_entry_safe(node, next, &ctx->sendlist.list, sendlist, CoAPSendNode) {
 4017              		.loc 1 970 5 is_stmt 1
 987:C:/Users/stapi/OneDrive/Desktop/GD32VW553/V1_MQTT_OK/GD32VW55X_Wifi_BLE_SDK/GD32VW55x_RELEASE_V1.0.2/MSDK/cloud/alicloud/src/protocol/coap/local\CoAPMessage.c ****             } else {
 4018              		.loc 1 987 38 is_stmt 0
 4019 0046 138C8C25 		addi	s8,s9,600
 970:C:/Users/stapi/OneDrive/Desktop/GD32VW553/V1_MQTT_OK/GD32VW55X_Wifi_BLE_SDK/GD32VW55x_RELEASE_V1.0.2/MSDK/cloud/alicloud/src/protocol/coap/local\CoAPMessage.c ****     list_for_each_entry_safe(node, next, &ctx->sendlist.list, sendlist, CoAPSendNode) {
 4020              		.loc 1 970 5
 4021 004a 97000000 		call	HAL_MutexLock
 4021      E7800000 
 4022              	.LVL433:
 971:C:/Users/stapi/OneDrive/Desktop/GD32VW553/V1_MQTT_OK/GD32VW55X_Wifi_BLE_SDK/GD32VW55x_RELEASE_V1.0.2/MSDK/cloud/alicloud/src/protocol/coap/local\CoAPMessage.c ****         if (NULL == node || node->timeout > tick ) {
 4023              		.loc 1 971 5 is_stmt 1
 4024 0052 DC4C     		lw	a5,28(s1)
 987:C:/Users/stapi/OneDrive/Desktop/GD32VW553/V1_MQTT_OK/GD32VW55X_Wifi_BLE_SDK/GD32VW55x_RELEASE_V1.0.2/MSDK/cloud/alicloud/src/protocol/coap/local\CoAPMessage.c ****             } else {
 4025              		.loc 1 987 38 is_stmt 0
 4026 0054 B33A9C01 		sltu	s5,s8,s9
 4027 0058 370B0000 		lui	s6,%hi(.LANCHOR12)
 971:C:/Users/stapi/OneDrive/Desktop/GD32VW553/V1_MQTT_OK/GD32VW55X_Wifi_BLE_SDK/GD32VW55x_RELEASE_V1.0.2/MSDK/cloud/alicloud/src/protocol/coap/local\CoAPMessage.c ****         if (NULL == node || node->timeout > tick ) {
 4028              		.loc 1 971 5
 4029 005c 03A34700 		lw	t1,4(a5)
 4030 0060 138487FC 		addi	s0,a5,-56
 4031              	.LVL434:
 4032 0064 B70B0000 		lui	s7,%hi(.LC1)
 4033 0068 930983FC 		addi	s3,t1,-56
 4034              	.LVL435:
 992:C:/Users/stapi/OneDrive/Desktop/GD32VW553/V1_MQTT_OK/GD32VW55X_Wifi_BLE_SDK/GD32VW55x_RELEASE_V1.0.2/MSDK/cloud/alicloud/src/protocol/coap/local\CoAPMessage.c ****             CoAPMessage_print_sendlist(context);
 4035              		.loc 1 992 13
 4036 006c 7D1A     		addi	s4,s4,-1
 987:C:/Users/stapi/OneDrive/Desktop/GD32VW553/V1_MQTT_OK/GD32VW55X_Wifi_BLE_SDK/GD32VW55x_RELEASE_V1.0.2/MSDK/cloud/alicloud/src/protocol/coap/local\CoAPMessage.c ****             } else {
 4037              		.loc 1 987 38
 4038 006e EE9A     		add	s5,s5,s11
 4039              	.LVL436:
 4040              	.L275:
 971:C:/Users/stapi/OneDrive/Desktop/GD32VW553/V1_MQTT_OK/GD32VW55X_Wifi_BLE_SDK/GD32VW55x_RELEASE_V1.0.2/MSDK/cloud/alicloud/src/protocol/coap/local\CoAPMessage.c ****         if (NULL == node || node->timeout > tick ) {
 4041              		.loc 1 971 5 is_stmt 1
 4042 0070 138D8401 		addi	s10,s1,24
 4043 0074 93078403 		addi	a5,s0,56
 4044 0078 6314FD04 		bne	s10,a5,.L281
 996:C:/Users/stapi/OneDrive/Desktop/GD32VW553/V1_MQTT_OK/GD32VW55X_Wifi_BLE_SDK/GD32VW55x_RELEASE_V1.0.2/MSDK/cloud/alicloud/src/protocol/coap/local\CoAPMessage.c **** }
 4045              		.loc 1 996 5
 4046 007c C848     		lw	a0,20(s1)
 4047              	.LBE220:
 4048              	.LBE223:
 4049              	.LBB224:
 4050              	.LBB225:
 941:C:/Users/stapi/OneDrive/Desktop/GD32VW553/V1_MQTT_OK/GD32VW55X_Wifi_BLE_SDK/GD32VW55x_RELEASE_V1.0.2/MSDK/cloud/alicloud/src/protocol/coap/local\CoAPMessage.c ****                               node->header.msgid, ctx->sendlist.count);
 4051              		.loc 1 941 13 is_stmt 0
 4052 007e 370B0000 		lui	s6,%hi(.LC5)
 4053 0082 B70B0000 		lui	s7,%hi(.LC36)
 4054              	.LBE225:
 4055              	.LBE224:
 4056              	.LBB240:
 4057              	.LBB221:
 996:C:/Users/stapi/OneDrive/Desktop/GD32VW553/V1_MQTT_OK/GD32VW55X_Wifi_BLE_SDK/GD32VW55x_RELEASE_V1.0.2/MSDK/cloud/alicloud/src/protocol/coap/local\CoAPMessage.c **** }
 4058              		.loc 1 996 5
 4059 0086 97000000 		call	HAL_MutexUnlock
 4059      E7800000 
 4060              	.LVL437:
 4061              	.LBE221:
 4062              	.LBE240:
1019:C:/Users/stapi/OneDrive/Desktop/GD32VW553/V1_MQTT_OK/GD32VW55X_Wifi_BLE_SDK/GD32VW55x_RELEASE_V1.0.2/MSDK/cloud/alicloud/src/protocol/coap/local\CoAPMessage.c ****     Check_timeout (ctx);
 4063              		.loc 1 1019 5 is_stmt 1
 4064              	.LBB241:
 4065              	.LBB235:
 923:C:/Users/stapi/OneDrive/Desktop/GD32VW553/V1_MQTT_OK/GD32VW55X_Wifi_BLE_SDK/GD32VW55x_RELEASE_V1.0.2/MSDK/cloud/alicloud/src/protocol/coap/local\CoAPMessage.c ****     CoAPSendNode *node = NULL, *next = NULL, *timeout_node = NULL;
 4066              		.loc 1 923 5
 924:C:/Users/stapi/OneDrive/Desktop/GD32VW553/V1_MQTT_OK/GD32VW55X_Wifi_BLE_SDK/GD32VW55x_RELEASE_V1.0.2/MSDK/cloud/alicloud/src/protocol/coap/local\CoAPMessage.c ****     uint64_t tick = HAL_UptimeMs ();
 4067              		.loc 1 924 5
 925:C:/Users/stapi/OneDrive/Desktop/GD32VW553/V1_MQTT_OK/GD32VW55X_Wifi_BLE_SDK/GD32VW55x_RELEASE_V1.0.2/MSDK/cloud/alicloud/src/protocol/coap/local\CoAPMessage.c ****     do {
 4068              		.loc 1 925 5
 925:C:/Users/stapi/OneDrive/Desktop/GD32VW553/V1_MQTT_OK/GD32VW55X_Wifi_BLE_SDK/GD32VW55x_RELEASE_V1.0.2/MSDK/cloud/alicloud/src/protocol/coap/local\CoAPMessage.c ****     do {
 4069              		.loc 1 925 21 is_stmt 0
 4070 008e 97000000 		call	HAL_UptimeMs
 4070      E7800000 
 4071              	.LVL438:
 4072 0096 AA8A     		mv	s5,a0
 4073 0098 2E8A     		mv	s4,a1
 4074              	.LVL439:
 941:C:/Users/stapi/OneDrive/Desktop/GD32VW553/V1_MQTT_OK/GD32VW55X_Wifi_BLE_SDK/GD32VW55x_RELEASE_V1.0.2/MSDK/cloud/alicloud/src/protocol/coap/local\CoAPMessage.c ****                               node->header.msgid, ctx->sendlist.count);
 4075              		.loc 1 941 13
 4076 009a 370C0000 		lui	s8,%hi(.LC7)
 4077              	.LVL440:
 4078              	.L289:
 926:C:/Users/stapi/OneDrive/Desktop/GD32VW553/V1_MQTT_OK/GD32VW55X_Wifi_BLE_SDK/GD32VW55x_RELEASE_V1.0.2/MSDK/cloud/alicloud/src/protocol/coap/local\CoAPMessage.c ****         timeout_node = NULL;
 4079              		.loc 1 926 5 is_stmt 1
 927:C:/Users/stapi/OneDrive/Desktop/GD32VW553/V1_MQTT_OK/GD32VW55X_Wifi_BLE_SDK/GD32VW55x_RELEASE_V1.0.2/MSDK/cloud/alicloud/src/protocol/coap/local\CoAPMessage.c ****         HAL_MutexLock(ctx->sendlist.list_mutex);
 4080              		.loc 1 927 9
 928:C:/Users/stapi/OneDrive/Desktop/GD32VW553/V1_MQTT_OK/GD32VW55X_Wifi_BLE_SDK/GD32VW55x_RELEASE_V1.0.2/MSDK/cloud/alicloud/src/protocol/coap/local\CoAPMessage.c ****         list_for_each_entry_safe(node, next, &ctx->sendlist.list, sendlist, CoAPSendNode) {
 4081              		.loc 1 928 9
 4082 009e C848     		lw	a0,20(s1)
 4083 00a0 97000000 		call	HAL_MutexLock
 4083      E7800000 
 4084              	.LVL441:
 929:C:/Users/stapi/OneDrive/Desktop/GD32VW553/V1_MQTT_OK/GD32VW55X_Wifi_BLE_SDK/GD32VW55x_RELEASE_V1.0.2/MSDK/cloud/alicloud/src/protocol/coap/local\CoAPMessage.c **** 
 4085              		.loc 1 929 9
 4086 00a8 DC4C     		lw	a5,28(s1)
 4087 00aa 138487FC 		addi	s0,a5,-56
 4088              	.LVL442:
 4089 00ae DC43     		lw	a5,4(a5)
 4090 00b0 938787FC 		addi	a5,a5,-56
 4091              	.LVL443:
 4092              	.L282:
 929:C:/Users/stapi/OneDrive/Desktop/GD32VW553/V1_MQTT_OK/GD32VW55X_Wifi_BLE_SDK/GD32VW55x_RELEASE_V1.0.2/MSDK/cloud/alicloud/src/protocol/coap/local\CoAPMessage.c **** 
 4093              		.loc 1 929 9
 4094 00b4 13078403 		addi	a4,s0,56
 4095 00b8 6315A70D 		bne	a4,s10,.L286
 927:C:/Users/stapi/OneDrive/Desktop/GD32VW553/V1_MQTT_OK/GD32VW55X_Wifi_BLE_SDK/GD32VW55x_RELEASE_V1.0.2/MSDK/cloud/alicloud/src/protocol/coap/local\CoAPMessage.c ****         HAL_MutexLock(ctx->sendlist.list_mutex);
 4096              		.loc 1 927 22 is_stmt 0
 4097 00bc 0144     		li	s0,0
 4098              	.LVL444:
 4099 00be 3DA2     		j	.L285
 4100              	.LVL445:
 4101              	.L281:
 4102              	.LBE235:
 4103              	.LBE241:
 4104              	.LBB242:
 4105              	.LBB222:
 972:C:/Users/stapi/OneDrive/Desktop/GD32VW553/V1_MQTT_OK/GD32VW55X_Wifi_BLE_SDK/GD32VW55x_RELEASE_V1.0.2/MSDK/cloud/alicloud/src/protocol/coap/local\CoAPMessage.c ****             continue;
 4106              		.loc 1 972 9 is_stmt 1
 972:C:/Users/stapi/OneDrive/Desktop/GD32VW553/V1_MQTT_OK/GD32VW55X_Wifi_BLE_SDK/GD32VW55x_RELEASE_V1.0.2/MSDK/cloud/alicloud/src/protocol/coap/local\CoAPMessage.c ****             continue;
 4107              		.loc 1 972 26 is_stmt 0
 4108 00c0 5C48     		lw	a5,20(s0)
 4109 00c2 63E4FD0A 		bgtu	a5,s11,.L276
 4110 00c6 6395B701 		bne	a5,s11,.L293
 4111 00ca 1C48     		lw	a5,16(s0)
 4112 00cc 63EFFC08 		bgtu	a5,s9,.L276
 4113              	.L293:
 976:C:/Users/stapi/OneDrive/Desktop/GD32VW553/V1_MQTT_OK/GD32VW55X_Wifi_BLE_SDK/GD32VW55x_RELEASE_V1.0.2/MSDK/cloud/alicloud/src/protocol/coap/local\CoAPMessage.c ****             /*If has received ack message, don't resend the message*/
 4114              		.loc 1 976 9 is_stmt 1
 976:C:/Users/stapi/OneDrive/Desktop/GD32VW553/V1_MQTT_OK/GD32VW55X_Wifi_BLE_SDK/GD32VW55x_RELEASE_V1.0.2/MSDK/cloud/alicloud/src/protocol/coap/local\CoAPMessage.c ****             /*If has received ack message, don't resend the message*/
 4115              		.loc 1 976 12 is_stmt 0
 4116 00d0 83474400 		lbu	a5,4(s0)
 4117 00d4 D9CB     		beq	a5,zero,.L276
 978:C:/Users/stapi/OneDrive/Desktop/GD32VW553/V1_MQTT_OK/GD32VW55X_Wifi_BLE_SDK/GD32VW55x_RELEASE_V1.0.2/MSDK/cloud/alicloud/src/protocol/coap/local\CoAPMessage.c ****                 COAP_DEBUG("Retansmit the message id %d len %d", node->header.msgid, node->msglen);
 4118              		.loc 1 978 13 is_stmt 1
 978:C:/Users/stapi/OneDrive/Desktop/GD32VW553/V1_MQTT_OK/GD32VW55X_Wifi_BLE_SDK/GD32VW55x_RELEASE_V1.0.2/MSDK/cloud/alicloud/src/protocol/coap/local\CoAPMessage.c ****                 COAP_DEBUG("Retansmit the message id %d len %d", node->header.msgid, node->msglen);
 4119              		.loc 1 978 15 is_stmt 0
 4120 00d6 3C44     		lw	a5,72(s0)
 4121 00d8 95EF     		bne	a5,zero,.L278
 979:C:/Users/stapi/OneDrive/Desktop/GD32VW553/V1_MQTT_OK/GD32VW55X_Wifi_BLE_SDK/GD32VW55x_RELEASE_V1.0.2/MSDK/cloud/alicloud/src/protocol/coap/local\CoAPMessage.c ****                 ret = CoAPNetwork_write(ctx->p_network, &node->remote, node->message, node->msglen,
 4122              		.loc 1 979 17 is_stmt 1
 4123 00da 0328C401 		lw	a6,28(s0)
 4124 00de 83572400 		lhu	a5,2(s0)
 4125 00e2 37070000 		lui	a4,%hi(.LC34)
 4126 00e6 13070700 		addi	a4,a4,%lo(.LC34)
 4127 00ea 9546     		li	a3,5
 4128 00ec 1306303D 		li	a2,979
 4129 00f0 93050B00 		addi	a1,s6,%lo(.LANCHOR12)
 4130 00f4 13850B00 		addi	a0,s7,%lo(.LC1)
 4131 00f8 97000000 		call	LITE_syslog
 4131      E7800000 
 4132              	.LVL446:
 980:C:/Users/stapi/OneDrive/Desktop/GD32VW553/V1_MQTT_OK/GD32VW55X_Wifi_BLE_SDK/GD32VW55x_RELEASE_V1.0.2/MSDK/cloud/alicloud/src/protocol/coap/local\CoAPMessage.c ****                 if (ret != COAP_SUCCESS) {
 4133              		.loc 1 980 17
 980:C:/Users/stapi/OneDrive/Desktop/GD32VW553/V1_MQTT_OK/GD32VW55X_Wifi_BLE_SDK/GD32VW55x_RELEASE_V1.0.2/MSDK/cloud/alicloud/src/protocol/coap/local\CoAPMessage.c ****                 if (ret != COAP_SUCCESS) {
 4134              		.loc 1 980 23 is_stmt 0
 4135 0100 F848     		lw	a4,84(s1)
 4136 0102 544C     		lw	a3,28(s0)
 4137 0104 7040     		lw	a2,68(s0)
 4138 0106 C840     		lw	a0,4(s1)
 4139 0108 93054402 		addi	a1,s0,36
 4140 010c 97000000 		call	CoAPNetwork_write
 4140      E7800000 
 4141              	.LVL447:
 981:C:/Users/stapi/OneDrive/Desktop/GD32VW553/V1_MQTT_OK/GD32VW55X_Wifi_BLE_SDK/GD32VW55x_RELEASE_V1.0.2/MSDK/cloud/alicloud/src/protocol/coap/local\CoAPMessage.c ****                 }
 4142              		.loc 1 981 17 is_stmt 1
 4143              	.L278:
 982:C:/Users/stapi/OneDrive/Desktop/GD32VW553/V1_MQTT_OK/GD32VW55X_Wifi_BLE_SDK/GD32VW55x_RELEASE_V1.0.2/MSDK/cloud/alicloud/src/protocol/coap/local\CoAPMessage.c ****             }
 4144              		.loc 1 982 17
 984:C:/Users/stapi/OneDrive/Desktop/GD32VW553/V1_MQTT_OK/GD32VW55X_Wifi_BLE_SDK/GD32VW55x_RELEASE_V1.0.2/MSDK/cloud/alicloud/src/protocol/coap/local\CoAPMessage.c ****             -- node->retrans_count;
 4145              		.loc 1 984 13
 984:C:/Users/stapi/OneDrive/Desktop/GD32VW553/V1_MQTT_OK/GD32VW55X_Wifi_BLE_SDK/GD32VW55x_RELEASE_V1.0.2/MSDK/cloud/alicloud/src/protocol/coap/local\CoAPMessage.c ****             -- node->retrans_count;
 4146              		.loc 1 984 37 is_stmt 0
 4147 0114 83578401 		lhu	a5,24(s0)
 984:C:/Users/stapi/OneDrive/Desktop/GD32VW553/V1_MQTT_OK/GD32VW55X_Wifi_BLE_SDK/GD32VW55x_RELEASE_V1.0.2/MSDK/cloud/alicloud/src/protocol/coap/local\CoAPMessage.c ****             -- node->retrans_count;
 4148              		.loc 1 984 51
 4149 0118 0D47     		li	a4,3
 4150 011a B387E702 		mul	a5,a5,a4
 985:C:/Users/stapi/OneDrive/Desktop/GD32VW553/V1_MQTT_OK/GD32VW55X_Wifi_BLE_SDK/GD32VW55x_RELEASE_V1.0.2/MSDK/cloud/alicloud/src/protocol/coap/local\CoAPMessage.c ****             if (node->retrans_count == 0) {
 4151              		.loc 1 985 13
 4152 011e 03474400 		lbu	a4,4(s0)
 4153 0122 7D17     		addi	a4,a4,-1
 4154 0124 1377F70F 		andi	a4,a4,0xff
 4155 0128 2302E400 		sb	a4,4(s0)
 984:C:/Users/stapi/OneDrive/Desktop/GD32VW553/V1_MQTT_OK/GD32VW55X_Wifi_BLE_SDK/GD32VW55x_RELEASE_V1.0.2/MSDK/cloud/alicloud/src/protocol/coap/local\CoAPMessage.c ****             -- node->retrans_count;
 4156              		.loc 1 984 55
 4157 012c 8587     		srai	a5,a5,1
 984:C:/Users/stapi/OneDrive/Desktop/GD32VW553/V1_MQTT_OK/GD32VW55X_Wifi_BLE_SDK/GD32VW55x_RELEASE_V1.0.2/MSDK/cloud/alicloud/src/protocol/coap/local\CoAPMessage.c ****             -- node->retrans_count;
 4158              		.loc 1 984 31
 4159 012e B3C80708 		zext.h	a7,a5
 4160 0132 231C1401 		sh	a7,24(s0)
 985:C:/Users/stapi/OneDrive/Desktop/GD32VW553/V1_MQTT_OK/GD32VW55X_Wifi_BLE_SDK/GD32VW55x_RELEASE_V1.0.2/MSDK/cloud/alicloud/src/protocol/coap/local\CoAPMessage.c ****             if (node->retrans_count == 0) {
 4161              		.loc 1 985 13 is_stmt 1
 986:C:/Users/stapi/OneDrive/Desktop/GD32VW553/V1_MQTT_OK/GD32VW55X_Wifi_BLE_SDK/GD32VW55x_RELEASE_V1.0.2/MSDK/cloud/alicloud/src/protocol/coap/local\CoAPMessage.c ****                 node->timeout = tick + COAP_ACK_TIMEOUT;
 4162              		.loc 1 986 13
 986:C:/Users/stapi/OneDrive/Desktop/GD32VW553/V1_MQTT_OK/GD32VW55X_Wifi_BLE_SDK/GD32VW55x_RELEASE_V1.0.2/MSDK/cloud/alicloud/src/protocol/coap/local\CoAPMessage.c ****                 node->timeout = tick + COAP_ACK_TIMEOUT;
 4163              		.loc 1 986 16 is_stmt 0
 4164 0136 21E3     		bne	a4,zero,.L279
 987:C:/Users/stapi/OneDrive/Desktop/GD32VW553/V1_MQTT_OK/GD32VW55X_Wifi_BLE_SDK/GD32VW55x_RELEASE_V1.0.2/MSDK/cloud/alicloud/src/protocol/coap/local\CoAPMessage.c ****             } else {
 4165              		.loc 1 987 17 is_stmt 1
 987:C:/Users/stapi/OneDrive/Desktop/GD32VW553/V1_MQTT_OK/GD32VW55X_Wifi_BLE_SDK/GD32VW55x_RELEASE_V1.0.2/MSDK/cloud/alicloud/src/protocol/coap/local\CoAPMessage.c ****             } else {
 4166              		.loc 1 987 38 is_stmt 0
 4167 0138 6288     		mv	a6,s8
 4168 013a D688     		mv	a7,s5
 4169              	.L280:
 4170 013c 23280401 		sw	a6,16(s0)
 4171 0140 232A1401 		sw	a7,20(s0)
 992:C:/Users/stapi/OneDrive/Desktop/GD32VW553/V1_MQTT_OK/GD32VW55X_Wifi_BLE_SDK/GD32VW55x_RELEASE_V1.0.2/MSDK/cloud/alicloud/src/protocol/coap/local\CoAPMessage.c ****             CoAPMessage_print_sendlist(context);
 4172              		.loc 1 992 13 is_stmt 1
 4173 0144 37070000 		lui	a4,%hi(.LC35)
 4174 0148 66C0     		sw	s9,0(sp)
 4175 014a 6EC2     		sw	s11,4(sp)
 4176 014c B3F74701 		and	a5,a5,s4
 4177 0150 13070700 		addi	a4,a4,%lo(.LC35)
 4178 0154 9546     		li	a3,5
 4179 0156 1306003E 		li	a2,992
 4180 015a 93050B00 		addi	a1,s6,%lo(.LANCHOR12)
 4181 015e 13850B00 		addi	a0,s7,%lo(.LC1)
 4182 0162 97000000 		call	LITE_syslog
 4182      E7800000 
 4183              	.LVL448:
 993:C:/Users/stapi/OneDrive/Desktop/GD32VW553/V1_MQTT_OK/GD32VW55X_Wifi_BLE_SDK/GD32VW55x_RELEASE_V1.0.2/MSDK/cloud/alicloud/src/protocol/coap/local\CoAPMessage.c ****         }
 4184              		.loc 1 993 13
 4185              	.LBB218:
 4186              	.LBB219:
 608:C:/Users/stapi/OneDrive/Desktop/GD32VW553/V1_MQTT_OK/GD32VW55X_Wifi_BLE_SDK/GD32VW55x_RELEASE_V1.0.2/MSDK/cloud/alicloud/src/protocol/coap/local\CoAPMessage.c **** }
 4187              		.loc 1 608 5
 4188              	.L276:
 4189              	.LBE219:
 4190              	.LBE218:
 971:C:/Users/stapi/OneDrive/Desktop/GD32VW553/V1_MQTT_OK/GD32VW55X_Wifi_BLE_SDK/GD32VW55x_RELEASE_V1.0.2/MSDK/cloud/alicloud/src/protocol/coap/local\CoAPMessage.c ****         if (NULL == node || node->timeout > tick ) {
 4191              		.loc 1 971 5
 4192 016a 83A7C903 		lw	a5,60(s3)
 4193              	.LVL449:
 4194 016e 4E84     		mv	s0,s3
 4195 0170 938987FC 		addi	s3,a5,-56
 4196              	.LVL450:
 4197 0174 F5BD     		j	.L275
 4198              	.L279:
 989:C:/Users/stapi/OneDrive/Desktop/GD32VW553/V1_MQTT_OK/GD32VW55X_Wifi_BLE_SDK/GD32VW55x_RELEASE_V1.0.2/MSDK/cloud/alicloud/src/protocol/coap/local\CoAPMessage.c ****             }
 4199              		.loc 1 989 17
 989:C:/Users/stapi/OneDrive/Desktop/GD32VW553/V1_MQTT_OK/GD32VW55X_Wifi_BLE_SDK/GD32VW55x_RELEASE_V1.0.2/MSDK/cloud/alicloud/src/protocol/coap/local\CoAPMessage.c ****             }
 4200              		.loc 1 989 38 is_stmt 0
 4201 0176 33889801 		add	a6,a7,s9
 4202 017a B3381801 		sltu	a7,a6,a7
 4203 017e EE98     		add	a7,a7,s11
 4204 0180 75BF     		j	.L280
 4205              	.LVL451:
 4206              	.L286:
 4207              	.LBE222:
 4208              	.LBE242:
 4209              	.LBB243:
 4210              	.LBB236:
 931:C:/Users/stapi/OneDrive/Desktop/GD32VW553/V1_MQTT_OK/GD32VW55X_Wifi_BLE_SDK/GD32VW55x_RELEASE_V1.0.2/MSDK/cloud/alicloud/src/protocol/coap/local\CoAPMessage.c ****                 continue;
 4211              		.loc 1 931 13 is_stmt 1
 931:C:/Users/stapi/OneDrive/Desktop/GD32VW553/V1_MQTT_OK/GD32VW55X_Wifi_BLE_SDK/GD32VW55x_RELEASE_V1.0.2/MSDK/cloud/alicloud/src/protocol/coap/local\CoAPMessage.c ****                 continue;
 4212              		.loc 1 931 16 is_stmt 0
 4213 0182 7444     		lw	a3,76(s0)
 4214 0184 D1EE     		bne	a3,zero,.L283
 934:C:/Users/stapi/OneDrive/Desktop/GD32VW553/V1_MQTT_OK/GD32VW55X_Wifi_BLE_SDK/GD32VW55x_RELEASE_V1.0.2/MSDK/cloud/alicloud/src/protocol/coap/local\CoAPMessage.c ****                 continue;
 4215              		.loc 1 934 13 is_stmt 1
 934:C:/Users/stapi/OneDrive/Desktop/GD32VW553/V1_MQTT_OK/GD32VW55X_Wifi_BLE_SDK/GD32VW55x_RELEASE_V1.0.2/MSDK/cloud/alicloud/src/protocol/coap/local\CoAPMessage.c ****                 continue;
 4216              		.loc 1 934 16 is_stmt 0
 4217 0186 83464400 		lbu	a3,4(s0)
 4218 018a D9EA     		bne	a3,zero,.L283
 934:C:/Users/stapi/OneDrive/Desktop/GD32VW553/V1_MQTT_OK/GD32VW55X_Wifi_BLE_SDK/GD32VW55x_RELEASE_V1.0.2/MSDK/cloud/alicloud/src/protocol/coap/local\CoAPMessage.c ****                 continue;
 4219              		.loc 1 934 43
 4220 018c 5448     		lw	a3,20(s0)
 4221 018e 63E74601 		bltu	a3,s4,.L294
 4222 0192 63974609 		bne	a3,s4,.L283
 4223 0196 1448     		lw	a3,16(s0)
 4224 0198 63F45609 		bgeu	a3,s5,.L283
 4225              	.L294:
 939:C:/Users/stapi/OneDrive/Desktop/GD32VW553/V1_MQTT_OK/GD32VW55X_Wifi_BLE_SDK/GD32VW55x_RELEASE_V1.0.2/MSDK/cloud/alicloud/src/protocol/coap/local\CoAPMessage.c ****             ctx->sendlist.count--;
 4226              		.loc 1 939 13 is_stmt 1
 4227              	.LVL452:
 4228              	.LBE236:
 4229              	.LBE243:
  44:..\..\..\..\cloud\alicloud\src\infra\utils\misc/compat_aos_list.h ****     INIT_LIST_HEAD(entry);
 4230              		.loc 3 44 5
 4231              	.LBB244:
 4232              	.LBB237:
 4233              	.LBB226:
 4234              	.LBB227:
 4235              	.LBB228:
  68:..\..\..\..\cloud\alicloud\src\infra\utils\misc/lite-list.h ****     dlist_t *next = node->next;
 4236              		.loc 2 68 5
  68:..\..\..\..\cloud\alicloud\src\infra\utils\misc/lite-list.h ****     dlist_t *next = node->next;
 4237              		.loc 2 68 14 is_stmt 0
 4238 019c 145C     		lw	a3,56(s0)
 4239              	.LVL453:
  69:..\..\..\..\cloud\alicloud\src\infra\utils\misc/lite-list.h **** 
 4240              		.loc 2 69 5 is_stmt 1
  69:..\..\..\..\cloud\alicloud\src\infra\utils\misc/lite-list.h **** 
 4241              		.loc 2 69 14 is_stmt 0
 4242 019e 5C5C     		lw	a5,60(s0)
 4243              	.LVL454:
  71:..\..\..\..\cloud\alicloud\src\infra\utils\misc/lite-list.h ****     next->prev = prev;
 4244              		.loc 2 71 5 is_stmt 1
 4245              	.LBE228:
 4246              	.LBE227:
 4247              	.LBE226:
 941:C:/Users/stapi/OneDrive/Desktop/GD32VW553/V1_MQTT_OK/GD32VW55X_Wifi_BLE_SDK/GD32VW55x_RELEASE_V1.0.2/MSDK/cloud/alicloud/src/protocol/coap/local\CoAPMessage.c ****                               node->header.msgid, ctx->sendlist.count);
 4248              		.loc 1 941 13 is_stmt 0
 4249 01a0 13050B00 		addi	a0,s6,%lo(.LC5)
 4250              	.LBB233:
 4251              	.LBB230:
 4252              	.LBB229:
  71:..\..\..\..\cloud\alicloud\src\infra\utils\misc/lite-list.h ****     next->prev = prev;
 4253              		.loc 2 71 16
 4254 01a4 DCC2     		sw	a5,4(a3)
  72:..\..\..\..\cloud\alicloud\src\infra\utils\misc/lite-list.h **** }
 4255              		.loc 2 72 5 is_stmt 1
  72:..\..\..\..\cloud\alicloud\src\infra\utils\misc/lite-list.h **** }
 4256              		.loc 2 72 16 is_stmt 0
 4257 01a6 94C3     		sw	a3,0(a5)
 4258              	.LVL455:
 4259              	.LBE229:
 4260              	.LBE230:
 4261              	.LBE233:
 4262              	.LBE237:
 4263              	.LBE244:
 4264              		.loc 3 45 5 is_stmt 1
 4265              	.LBB245:
 4266              	.LBB238:
 4267              	.LBB234:
 4268              	.LBB231:
 4269              	.LBB232:
  82:..\..\..\..\cloud\alicloud\src\infra\utils\misc/lite-list.h ****     list->prev = list;
 4270              		.loc 2 82 5
  82:..\..\..\..\cloud\alicloud\src\infra\utils\misc/lite-list.h ****     list->prev = list;
 4271              		.loc 2 82 16 is_stmt 0
 4272 01a8 58DC     		sw	a4,60(s0)
 4273              		.loc 2 83 5 is_stmt 1
 4274              		.loc 2 83 16 is_stmt 0
 4275 01aa 18DC     		sw	a4,56(s0)
 4276              	.LVL456:
 4277              	.LBE232:
 4278              	.LBE231:
 4279              	.LBE234:
 940:C:/Users/stapi/OneDrive/Desktop/GD32VW553/V1_MQTT_OK/GD32VW55X_Wifi_BLE_SDK/GD32VW55x_RELEASE_V1.0.2/MSDK/cloud/alicloud/src/protocol/coap/local\CoAPMessage.c ****             COAP_INFO("Retransmit timeout,remove the message id %d count %d",
 4280              		.loc 1 940 13 is_stmt 1
 940:C:/Users/stapi/OneDrive/Desktop/GD32VW553/V1_MQTT_OK/GD32VW55X_Wifi_BLE_SDK/GD32VW55x_RELEASE_V1.0.2/MSDK/cloud/alicloud/src/protocol/coap/local\CoAPMessage.c ****             COAP_INFO("Retransmit timeout,remove the message id %d count %d",
 4281              		.loc 1 940 32 is_stmt 0
 4282 01ac 83C70402 		lbu	a5,32(s1)
 4283 01b0 FD17     		addi	a5,a5,-1
 4284 01b2 2380F402 		sb	a5,32(s1)
 941:C:/Users/stapi/OneDrive/Desktop/GD32VW553/V1_MQTT_OK/GD32VW55X_Wifi_BLE_SDK/GD32VW55x_RELEASE_V1.0.2/MSDK/cloud/alicloud/src/protocol/coap/local\CoAPMessage.c ****                               node->header.msgid, ctx->sendlist.count);
 4285              		.loc 1 941 13 is_stmt 1
 941:C:/Users/stapi/OneDrive/Desktop/GD32VW553/V1_MQTT_OK/GD32VW55X_Wifi_BLE_SDK/GD32VW55x_RELEASE_V1.0.2/MSDK/cloud/alicloud/src/protocol/coap/local\CoAPMessage.c ****                               node->header.msgid, ctx->sendlist.count);
 4286              		.loc 1 941 13
 4287 01b6 97000000 		call	HAL_Printf
 4287      E7800000 
 4288              	.LVL457:
 941:C:/Users/stapi/OneDrive/Desktop/GD32VW553/V1_MQTT_OK/GD32VW55X_Wifi_BLE_SDK/GD32VW55x_RELEASE_V1.0.2/MSDK/cloud/alicloud/src/protocol/coap/local\CoAPMessage.c ****                               node->header.msgid, ctx->sendlist.count);
 4289              		.loc 1 941 13
 4290 01be 83552400 		lhu	a1,2(s0)
 4291 01c2 03C60402 		lbu	a2,32(s1)
 4292 01c6 13850B00 		addi	a0,s7,%lo(.LC36)
 4293 01ca 97000000 		call	HAL_Printf
 4293      E7800000 
 4294              	.LVL458:
 941:C:/Users/stapi/OneDrive/Desktop/GD32VW553/V1_MQTT_OK/GD32VW55X_Wifi_BLE_SDK/GD32VW55x_RELEASE_V1.0.2/MSDK/cloud/alicloud/src/protocol/coap/local\CoAPMessage.c ****                               node->header.msgid, ctx->sendlist.count);
 4295              		.loc 1 941 13
 4296 01d2 13050C00 		addi	a0,s8,%lo(.LC7)
 4297 01d6 97000000 		call	HAL_Printf
 4297      E7800000 
 4298              	.LVL459:
 941:C:/Users/stapi/OneDrive/Desktop/GD32VW553/V1_MQTT_OK/GD32VW55X_Wifi_BLE_SDK/GD32VW55x_RELEASE_V1.0.2/MSDK/cloud/alicloud/src/protocol/coap/local\CoAPMessage.c ****                               node->header.msgid, ctx->sendlist.count);
 4299              		.loc 1 941 13
 943:C:/Users/stapi/OneDrive/Desktop/GD32VW553/V1_MQTT_OK/GD32VW55X_Wifi_BLE_SDK/GD32VW55x_RELEASE_V1.0.2/MSDK/cloud/alicloud/src/protocol/coap/local\CoAPMessage.c ****             #ifndef COAP_OBSERVE_SERVER_DISABLE
 4300              		.loc 1 943 13
 4301              	.LBE238:
 4302              	.LBE245:
 608:C:/Users/stapi/OneDrive/Desktop/GD32VW553/V1_MQTT_OK/GD32VW55X_Wifi_BLE_SDK/GD32VW55x_RELEASE_V1.0.2/MSDK/cloud/alicloud/src/protocol/coap/local\CoAPMessage.c **** }
 4303              		.loc 1 608 5
 4304              	.LBB246:
 4305              	.LBB239:
 945:C:/Users/stapi/OneDrive/Desktop/GD32VW553/V1_MQTT_OK/GD32VW55X_Wifi_BLE_SDK/GD32VW55x_RELEASE_V1.0.2/MSDK/cloud/alicloud/src/protocol/coap/local\CoAPMessage.c ****             #endif
 4306              		.loc 1 945 17
 4307 01de 93054402 		addi	a1,s0,36
 4308 01e2 2685     		mv	a0,s1
 4309 01e4 97000000 		call	CoapObsServerAll_delete
 4309      E7800000 
 4310              	.LVL460:
 947:C:/Users/stapi/OneDrive/Desktop/GD32VW553/V1_MQTT_OK/GD32VW55X_Wifi_BLE_SDK/GD32VW55x_RELEASE_V1.0.2/MSDK/cloud/alicloud/src/protocol/coap/local\CoAPMessage.c ****             break;
 4311              		.loc 1 947 13
 948:C:/Users/stapi/OneDrive/Desktop/GD32VW553/V1_MQTT_OK/GD32VW55X_Wifi_BLE_SDK/GD32VW55x_RELEASE_V1.0.2/MSDK/cloud/alicloud/src/protocol/coap/local\CoAPMessage.c ****         }
 4312              		.loc 1 948 13
 4313              	.L285:
 950:C:/Users/stapi/OneDrive/Desktop/GD32VW553/V1_MQTT_OK/GD32VW55X_Wifi_BLE_SDK/GD32VW55x_RELEASE_V1.0.2/MSDK/cloud/alicloud/src/protocol/coap/local\CoAPMessage.c **** 
 4314              		.loc 1 950 9
 4315 01ec C848     		lw	a0,20(s1)
 4316 01ee 97000000 		call	HAL_MutexUnlock
 4316      E7800000 
 4317              	.LVL461:
 952:C:/Users/stapi/OneDrive/Desktop/GD32VW553/V1_MQTT_OK/GD32VW55X_Wifi_BLE_SDK/GD32VW55x_RELEASE_V1.0.2/MSDK/cloud/alicloud/src/protocol/coap/local\CoAPMessage.c ****             if(NULL != timeout_node->handler){
 4318              		.loc 1 952 9
 952:C:/Users/stapi/OneDrive/Desktop/GD32VW553/V1_MQTT_OK/GD32VW55X_Wifi_BLE_SDK/GD32VW55x_RELEASE_V1.0.2/MSDK/cloud/alicloud/src/protocol/coap/local\CoAPMessage.c ****             if(NULL != timeout_node->handler){
 4319              		.loc 1 952 12 is_stmt 0
 4320 01f6 15C8     		beq	s0,zero,.L287
 953:C:/Users/stapi/OneDrive/Desktop/GD32VW553/V1_MQTT_OK/GD32VW55X_Wifi_BLE_SDK/GD32VW55x_RELEASE_V1.0.2/MSDK/cloud/alicloud/src/protocol/coap/local\CoAPMessage.c ****                 timeout_node->handler(ctx, COAP_RECV_RESP_TIMEOUT, timeout_node->user, &timeout_nod
 4321              		.loc 1 953 13 is_stmt 1
 953:C:/Users/stapi/OneDrive/Desktop/GD32VW553/V1_MQTT_OK/GD32VW55X_Wifi_BLE_SDK/GD32VW55x_RELEASE_V1.0.2/MSDK/cloud/alicloud/src/protocol/coap/local\CoAPMessage.c ****                 timeout_node->handler(ctx, COAP_RECV_RESP_TIMEOUT, timeout_node->user, &timeout_nod
 4322              		.loc 1 953 36 is_stmt 0
 4323 01f8 1C50     		lw	a5,32(s0)
 953:C:/Users/stapi/OneDrive/Desktop/GD32VW553/V1_MQTT_OK/GD32VW55X_Wifi_BLE_SDK/GD32VW55x_RELEASE_V1.0.2/MSDK/cloud/alicloud/src/protocol/coap/local\CoAPMessage.c ****                 timeout_node->handler(ctx, COAP_RECV_RESP_TIMEOUT, timeout_node->user, &timeout_nod
 4324              		.loc 1 953 15
 4325 01fa 81CB     		beq	a5,zero,.L288
 954:C:/Users/stapi/OneDrive/Desktop/GD32VW553/V1_MQTT_OK/GD32VW55X_Wifi_BLE_SDK/GD32VW55x_RELEASE_V1.0.2/MSDK/cloud/alicloud/src/protocol/coap/local\CoAPMessage.c ****             }
 4326              		.loc 1 954 17 is_stmt 1
 4327 01fc 3040     		lw	a2,64(s0)
 4328 01fe 0147     		li	a4,0
 4329 0200 93064402 		addi	a3,s0,36
 4330 0204 8545     		li	a1,1
 4331 0206 2685     		mv	a0,s1
 4332 0208 8297     		jalr	a5
 4333              	.LVL462:
 4334              	.L288:
 956:C:/Users/stapi/OneDrive/Desktop/GD32VW553/V1_MQTT_OK/GD32VW55X_Wifi_BLE_SDK/GD32VW55x_RELEASE_V1.0.2/MSDK/cloud/alicloud/src/protocol/coap/local\CoAPMessage.c ****             coap_free(timeout_node);
 4335              		.loc 1 956 13
 4336 020a 6840     		lw	a0,68(s0)
 4337 020c 97000000 		call	LITE_free_internal
 4337      E7800000 
 4338              	.LVL463:
 957:C:/Users/stapi/OneDrive/Desktop/GD32VW553/V1_MQTT_OK/GD32VW55X_Wifi_BLE_SDK/GD32VW55x_RELEASE_V1.0.2/MSDK/cloud/alicloud/src/protocol/coap/local\CoAPMessage.c ****         }
 4339              		.loc 1 957 13
 4340 0214 2285     		mv	a0,s0
 4341 0216 97000000 		call	LITE_free_internal
 4341      E7800000 
 4342              	.LVL464:
 959:C:/Users/stapi/OneDrive/Desktop/GD32VW553/V1_MQTT_OK/GD32VW55X_Wifi_BLE_SDK/GD32VW55x_RELEASE_V1.0.2/MSDK/cloud/alicloud/src/protocol/coap/local\CoAPMessage.c **** }
 4343              		.loc 1 959 13
 4344 021e 41B5     		j	.L289
 4345              	.LVL465:
 4346              	.L283:
 929:C:/Users/stapi/OneDrive/Desktop/GD32VW553/V1_MQTT_OK/GD32VW55X_Wifi_BLE_SDK/GD32VW55x_RELEASE_V1.0.2/MSDK/cloud/alicloud/src/protocol/coap/local\CoAPMessage.c **** 
 4347              		.loc 1 929 9
 4348 0220 D85F     		lw	a4,60(a5)
 4349              	.LVL466:
 4350 0222 3E84     		mv	s0,a5
 4351 0224 930787FC 		addi	a5,a4,-56
 4352              	.LVL467:
 4353 0228 71B5     		j	.L282
 4354              	.LVL468:
 4355              	.L287:
 959:C:/Users/stapi/OneDrive/Desktop/GD32VW553/V1_MQTT_OK/GD32VW55X_Wifi_BLE_SDK/GD32VW55x_RELEASE_V1.0.2/MSDK/cloud/alicloud/src/protocol/coap/local\CoAPMessage.c **** }
 4356              		.loc 1 959 13
 4357              	.LBE239:
 4358              	.LBE246:
1020:C:/Users/stapi/OneDrive/Desktop/GD32VW553/V1_MQTT_OK/GD32VW55X_Wifi_BLE_SDK/GD32VW55x_RELEASE_V1.0.2/MSDK/cloud/alicloud/src/protocol/coap/local\CoAPMessage.c ****     // ret = CoAPMessage_retransmit(ctx);
1021:C:/Users/stapi/OneDrive/Desktop/GD32VW553/V1_MQTT_OK/GD32VW55X_Wifi_BLE_SDK/GD32VW55x_RELEASE_V1.0.2/MSDK/cloud/alicloud/src/protocol/coap/local\CoAPMessage.c **** 
1022:C:/Users/stapi/OneDrive/Desktop/GD32VW553/V1_MQTT_OK/GD32VW55X_Wifi_BLE_SDK/GD32VW55x_RELEASE_V1.0.2/MSDK/cloud/alicloud/src/protocol/coap/local\CoAPMessage.c ****     if (coap_yield_mutex != NULL) {
 4359              		.loc 1 1022 5
 4360              		.loc 1 1022 26 is_stmt 0
 4361 022a F247     		lw	a5,28(sp)
 4362 022c 03A50700 		lw	a0,%lo(coap_yield_mutex)(a5)
 4363              		.loc 1 1022 8
 4364 0230 09C5     		beq	a0,zero,.L291
1023:C:/Users/stapi/OneDrive/Desktop/GD32VW553/V1_MQTT_OK/GD32VW55X_Wifi_BLE_SDK/GD32VW55x_RELEASE_V1.0.2/MSDK/cloud/alicloud/src/protocol/coap/local\CoAPMessage.c ****         HAL_MutexUnlock(coap_yield_mutex);
 4365              		.loc 1 1023 9 is_stmt 1
 4366 0232 97000000 		call	HAL_MutexUnlock
 4366      E7800000 
 4367              	.LVL469:
 4368              	.L291:
1024:C:/Users/stapi/OneDrive/Desktop/GD32VW553/V1_MQTT_OK/GD32VW55X_Wifi_BLE_SDK/GD32VW55x_RELEASE_V1.0.2/MSDK/cloud/alicloud/src/protocol/coap/local\CoAPMessage.c ****     }
1025:C:/Users/stapi/OneDrive/Desktop/GD32VW553/V1_MQTT_OK/GD32VW55X_Wifi_BLE_SDK/GD32VW55x_RELEASE_V1.0.2/MSDK/cloud/alicloud/src/protocol/coap/local\CoAPMessage.c **** 
1026:C:/Users/stapi/OneDrive/Desktop/GD32VW553/V1_MQTT_OK/GD32VW55X_Wifi_BLE_SDK/GD32VW55x_RELEASE_V1.0.2/MSDK/cloud/alicloud/src/protocol/coap/local\CoAPMessage.c ****     if (res < 0) {
 4369              		.loc 1 1026 5
 4370              		.loc 1 1026 8 is_stmt 0
 4371 023a 63570900 		bge	s2,zero,.L272
1027:C:/Users/stapi/OneDrive/Desktop/GD32VW553/V1_MQTT_OK/GD32VW55X_Wifi_BLE_SDK/GD32VW55x_RELEASE_V1.0.2/MSDK/cloud/alicloud/src/protocol/coap/local\CoAPMessage.c ****         HAL_SleepMs(20);
 4372              		.loc 1 1027 9 is_stmt 1
 4373 023e 5145     		li	a0,20
 4374 0240 97000000 		call	HAL_SleepMs
 4374      E7800000 
 4375              	.LVL470:
 4376              	.L272:
1028:C:/Users/stapi/OneDrive/Desktop/GD32VW553/V1_MQTT_OK/GD32VW55X_Wifi_BLE_SDK/GD32VW55x_RELEASE_V1.0.2/MSDK/cloud/alicloud/src/protocol/coap/local\CoAPMessage.c ****     }
1029:C:/Users/stapi/OneDrive/Desktop/GD32VW553/V1_MQTT_OK/GD32VW55X_Wifi_BLE_SDK/GD32VW55x_RELEASE_V1.0.2/MSDK/cloud/alicloud/src/protocol/coap/local\CoAPMessage.c **** 
1030:C:/Users/stapi/OneDrive/Desktop/GD32VW553/V1_MQTT_OK/GD32VW55X_Wifi_BLE_SDK/GD32VW55x_RELEASE_V1.0.2/MSDK/cloud/alicloud/src/protocol/coap/local\CoAPMessage.c ****     return res;
1031:C:/Users/stapi/OneDrive/Desktop/GD32VW553/V1_MQTT_OK/GD32VW55X_Wifi_BLE_SDK/GD32VW55x_RELEASE_V1.0.2/MSDK/cloud/alicloud/src/protocol/coap/local\CoAPMessage.c **** }
 4377              		.loc 1 1031 1 is_stmt 0
 4378 0248 4A85     		mv	a0,s2
 4379 024a 0561     		addi	sp,sp,32
 4380              		.cfi_def_cfa_offset 0
 4381 024c 17030000 		tail	__riscv_restore_12
 4381      67000300 
 4382              		.cfi_restore 27
 4383              		.cfi_restore 26
 4384              		.cfi_restore 25
 4385              		.cfi_restore 24
 4386              		.cfi_restore 23
 4387              		.cfi_restore 22
 4388              		.cfi_restore 21
 4389              		.cfi_restore 20
 4390              		.cfi_restore 19
 4391              		.cfi_restore 18
 4392              		.cfi_restore 9
 4393              		.cfi_restore 8
 4394              		.cfi_restore 1
 4395              		.cfi_def_cfa_offset -64
 4396              		.cfi_endproc
 4397              	.LFE56:
 4399              		.section	.rodata.__FUNCTION__.0,"a"
 4400              		.align	2
 4401              		.set	.LANCHOR12,. + 0
 4404              	__FUNCTION__.0:
 4405 0000 52657461 		.string	"Retansmit"
 4405      6E736D69 
 4405      7400
 4406              		.section	.rodata.__FUNCTION__.1,"a"
 4407              		.align	2
 4408              		.set	.LANCHOR4,. + 0
 4411              	__FUNCTION__.1:
 4412 0000 436F4150 		.string	"CoAPErrRespMessage_send"
 4412      45727252 
 4412      6573704D 
 4412      65737361 
 4412      67655F73 
 4413              		.section	.rodata.__FUNCTION__.10,"a"
 4414              		.align	2
 4415              		.set	.LANCHOR2,. + 0
 4418              	__FUNCTION__.10:
 4419 0000 436F4150 		.string	"CoAPMessage_send"
 4419      4D657373 
 4419      6167655F 
 4419      73656E64 
 4419      00
 4420              		.section	.rodata.__FUNCTION__.11,"a"
 4421              		.align	2
 4422              		.set	.LANCHOR1,. + 0
 4425              	__FUNCTION__.11:
 4426 0000 436F4150 		.string	"CoAPMessageToken_dump"
 4426      4D657373 
 4426      61676554 
 4426      6F6B656E 
 4426      5F64756D 
 4427              		.section	.rodata.__FUNCTION__.12,"a"
 4428              		.align	2
 4429              		.set	.LANCHOR0,. + 0
 4432              	__FUNCTION__.12:
 4433 0000 436F4150 		.string	"CoAPMessageCheckDup"
 4433      4D657373 
 4433      61676543 
 4433      6865636B 
 4433      44757000 
 4434              		.section	.rodata.__FUNCTION__.2,"a"
 4435              		.align	2
 4436              		.set	.LANCHOR11,. + 0
 4439              	__FUNCTION__.2:
 4440 0000 436F4150 		.string	"CoAPRequestMessage_handle"
 4440      52657175 
 4440      6573744D 
 4440      65737361 
 4440      67655F68 
 4441              		.section	.rodata.__FUNCTION__.3,"a"
 4442              		.align	2
 4443              		.set	.LANCHOR10,. + 0
 4446              	__FUNCTION__.3:
 4447 0000 436F4150 		.string	"CoAPRestMessage_send"
 4447      52657374 
 4447      4D657373 
 4447      6167655F 
 4447      73656E64 
 4448              		.section	.rodata.__FUNCTION__.4,"a"
 4449              		.align	2
 4450              		.set	.LANCHOR5,. + 0
 4453              	__FUNCTION__.4:
 4454 0000 436F4150 		.string	"CoAPAckMessage_send"
 4454      41636B4D 
 4454      65737361 
 4454      67655F73 
 4454      656E6400 
 4455              		.section	.rodata.__FUNCTION__.5,"a"
 4456              		.align	2
 4457              		.set	.LANCHOR9,. + 0
 4460              	__FUNCTION__.5:
 4461 0000 436F4150 		.string	"CoAPRespMessage_handle"
 4461      52657370 
 4461      4D657373 
 4461      6167655F 
 4461      68616E64 
 4462              		.section	.rodata.__FUNCTION__.6,"a"
 4463              		.align	2
 4464              		.set	.LANCHOR8,. + 0
 4467              	__FUNCTION__.6:
 4468 0000 436F4150 		.string	"CoAPAckMessage_handle"
 4468      41636B4D 
 4468      65737361 
 4468      67655F68 
 4468      616E646C 
 4469              		.section	.rodata.__FUNCTION__.7,"a"
 4470              		.align	2
 4471              		.set	.LANCHOR7,. + 0
 4474              	__FUNCTION__.7:
 4475 0000 436F4150 		.string	"CoAPMessage_handle"
 4475      4D657373 
 4475      6167655F 
 4475      68616E64 
 4475      6C6500
 4476              		.section	.rodata.__FUNCTION__.8,"a"
 4477              		.align	2
 4478              		.set	.LANCHOR6,. + 0
 4481              	__FUNCTION__.8:
 4482 0000 436F4150 		.string	"CoAPMessageId_cancel"
 4482      4D657373 
 4482      61676549 
 4482      645F6361 
 4482      6E63656C 
 4483              		.section	.rodata.__FUNCTION__.9,"a"
 4484              		.align	2
 4485              		.set	.LANCHOR3,. + 0
 4488              	__FUNCTION__.9:
 4489 0000 436F4150 		.string	"CoAPMessageList_add"
 4489      4D657373 
 4489      6167654C 
 4489      6973745F 
 4489      61646400 
 4490              		.text
 4491              	.Letext0:
 4492              		.file 4 "c:\\users\\stapi\\onedrive\\desktop\\gd32vw553\\embeddedbuilder_v1.4.7.26843\\tools\\nucl
 4493              		.file 5 "c:\\users\\stapi\\onedrive\\desktop\\gd32vw553\\embeddedbuilder_v1.4.7.26843\\tools\\nucl
 4494              		.file 6 "c:\\users\\stapi\\onedrive\\desktop\\gd32vw553\\embeddedbuilder_v1.4.7.26843\\tools\\nucl
 4495              		.file 7 "..\\..\\..\\..\\cloud\\alicloud\\include/iot_import.h"
 4496              		.file 8 "C:/Users/stapi/OneDrive/Desktop/GD32VW553/V1_MQTT_OK/GD32VW55X_Wifi_BLE_SDK/GD32VW55x_REL
 4497              		.file 9 "C:/Users/stapi/OneDrive/Desktop/GD32VW553/V1_MQTT_OK/GD32VW55X_Wifi_BLE_SDK/GD32VW55x_REL
 4498              		.file 10 "C:/Users/stapi/OneDrive/Desktop/GD32VW553/V1_MQTT_OK/GD32VW55X_Wifi_BLE_SDK/GD32VW55x_RE
 4499              		.file 11 "C:/Users/stapi/OneDrive/Desktop/GD32VW553/V1_MQTT_OK/GD32VW55X_Wifi_BLE_SDK/GD32VW55x_RE
 4500              		.file 12 "C:/Users/stapi/OneDrive/Desktop/GD32VW553/V1_MQTT_OK/GD32VW55X_Wifi_BLE_SDK/GD32VW55x_RE
 4501              		.file 13 "..\\..\\..\\..\\cloud\\alicloud\\src\\infra\\log/iotx_log.h"
 4502              		.file 14 "C:/Users/stapi/OneDrive/Desktop/GD32VW553/V1_MQTT_OK/GD32VW55X_Wifi_BLE_SDK/GD32VW55x_RE
 4503              		.file 15 "..\\..\\..\\..\\cloud\\alicloud\\src\\infra\\utils/iotx_utils.h"
 4504              		.file 16 "c:\\users\\stapi\\onedrive\\desktop\\gd32vw553\\embeddedbuilder_v1.4.7.26843\\tools\\nuc
 4505              		.file 17 "<built-in>"
 4506              		.file 18 "C:/Users/stapi/OneDrive/Desktop/GD32VW553/V1_MQTT_OK/GD32VW55X_Wifi_BLE_SDK/GD32VW55x_RE
 4507              		.file 19 "C:/Users/stapi/OneDrive/Desktop/GD32VW553/V1_MQTT_OK/GD32VW55X_Wifi_BLE_SDK/GD32VW55x_RE
 4508              		.file 20 "C:/Users/stapi/OneDrive/Desktop/GD32VW553/V1_MQTT_OK/GD32VW55X_Wifi_BLE_SDK/GD32VW55x_RE
 4509              		.file 21 "..\\..\\..\\..\\cloud\\alicloud\\src\\infra\\utils\\digest/utils_md5.h"
DEFINED SYMBOLS
                            *ABS*:0000000000000000 CoAPMessage.c
C:\Users\stapi\AppData\Local\Temp\ccjQ9O0I.s:13     .text.CoAPOption_sort:0000000000000000 CoAPOption_sort
C:\Users\stapi\AppData\Local\Temp\ccjQ9O0I.s:17     .text.CoAPOption_sort:0000000000000000 .L0 
C:\Users\stapi\AppData\Local\Temp\ccjQ9O0I.s:19     .text.CoAPOption_sort:0000000000000000 .L0 
C:\Users\stapi\AppData\Local\Temp\ccjQ9O0I.s:20     .text.CoAPOption_sort:0000000000000008 .L0 
C:\Users\stapi\AppData\Local\Temp\ccjQ9O0I.s:21     .text.CoAPOption_sort:0000000000000008 .L0 
C:\Users\stapi\AppData\Local\Temp\ccjQ9O0I.s:22     .text.CoAPOption_sort:0000000000000008 .L0 
C:\Users\stapi\AppData\Local\Temp\ccjQ9O0I.s:23     .text.CoAPOption_sort:0000000000000008 .L0 
C:\Users\stapi\AppData\Local\Temp\ccjQ9O0I.s:24     .text.CoAPOption_sort:0000000000000008 .L0 
C:\Users\stapi\AppData\Local\Temp\ccjQ9O0I.s:25     .text.CoAPOption_sort:0000000000000008 .L0 
C:\Users\stapi\AppData\Local\Temp\ccjQ9O0I.s:26     .text.CoAPOption_sort:0000000000000008 .L0 
C:\Users\stapi\AppData\Local\Temp\ccjQ9O0I.s:27     .text.CoAPOption_sort:0000000000000008 .L0 
C:\Users\stapi\AppData\Local\Temp\ccjQ9O0I.s:28     .text.CoAPOption_sort:0000000000000008 .L0 
C:\Users\stapi\AppData\Local\Temp\ccjQ9O0I.s:29     .text.CoAPOption_sort:0000000000000008 .L0 
C:\Users\stapi\AppData\Local\Temp\ccjQ9O0I.s:31     .text.CoAPOption_sort:0000000000000008 .L0 
C:\Users\stapi\AppData\Local\Temp\ccjQ9O0I.s:32     .text.CoAPOption_sort:0000000000000008 .L0 
C:\Users\stapi\AppData\Local\Temp\ccjQ9O0I.s:35     .text.CoAPOption_sort:000000000000000c .L0 
C:\Users\stapi\AppData\Local\Temp\ccjQ9O0I.s:36     .text.CoAPOption_sort:000000000000000c .L0 
C:\Users\stapi\AppData\Local\Temp\ccjQ9O0I.s:37     .text.CoAPOption_sort:000000000000000c .L0 
C:\Users\stapi\AppData\Local\Temp\ccjQ9O0I.s:38     .text.CoAPOption_sort:000000000000000c .L0 
C:\Users\stapi\AppData\Local\Temp\ccjQ9O0I.s:39     .text.CoAPOption_sort:000000000000000c .L0 
C:\Users\stapi\AppData\Local\Temp\ccjQ9O0I.s:41     .text.CoAPOption_sort:000000000000000e .L0 
C:\Users\stapi\AppData\Local\Temp\ccjQ9O0I.s:42     .text.CoAPOption_sort:0000000000000010 .L0 
C:\Users\stapi\AppData\Local\Temp\ccjQ9O0I.s:44     .text.CoAPOption_sort:0000000000000010 .L0 
C:\Users\stapi\AppData\Local\Temp\ccjQ9O0I.s:46     .text.CoAPOption_sort:0000000000000014 .L0 
C:\Users\stapi\AppData\Local\Temp\ccjQ9O0I.s:50     .text.CoAPOption_sort:000000000000001a .L0 
C:\Users\stapi\AppData\Local\Temp\ccjQ9O0I.s:52     .text.CoAPOption_sort:000000000000001c .L0 
C:\Users\stapi\AppData\Local\Temp\ccjQ9O0I.s:56     .text.CoAPOption_sort:000000000000001e .L0 
C:\Users\stapi\AppData\Local\Temp\ccjQ9O0I.s:58     .text.CoAPOption_sort:0000000000000020 .L0 
C:\Users\stapi\AppData\Local\Temp\ccjQ9O0I.s:60     .text.CoAPOption_sort:0000000000000024 .L0 
C:\Users\stapi\AppData\Local\Temp\ccjQ9O0I.s:64     .text.CoAPOption_sort:000000000000002e .L0 
C:\Users\stapi\AppData\Local\Temp\ccjQ9O0I.s:70     .text.CoAPOption_sort:000000000000003c .L0 
C:\Users\stapi\AppData\Local\Temp\ccjQ9O0I.s:74     .text.CoAPOption_sort:0000000000000040 .L0 
C:\Users\stapi\AppData\Local\Temp\ccjQ9O0I.s:75     .text.CoAPOption_sort:0000000000000040 .L0 
C:\Users\stapi\AppData\Local\Temp\ccjQ9O0I.s:79     .text.CoAPOption_sort:000000000000004c .L0 
C:\Users\stapi\AppData\Local\Temp\ccjQ9O0I.s:82     .text.CoAPOption_sort:0000000000000050 .L0 
C:\Users\stapi\AppData\Local\Temp\ccjQ9O0I.s:85     .text.CoAPOption_sort:0000000000000052 .L0 
C:\Users\stapi\AppData\Local\Temp\ccjQ9O0I.s:88     .text.CoAPOption_sort:000000000000005a .L0 
C:\Users\stapi\AppData\Local\Temp\ccjQ9O0I.s:89     .text.CoAPOption_sort:000000000000005a .L0 
C:\Users\stapi\AppData\Local\Temp\ccjQ9O0I.s:90     .text.CoAPOption_sort:000000000000005a .L0 
C:\Users\stapi\AppData\Local\Temp\ccjQ9O0I.s:94     .text.CoAPOption_sort:0000000000000060 .L0 
C:\Users\stapi\AppData\Local\Temp\ccjQ9O0I.s:95     .text.CoAPOption_sort:0000000000000060 .L0 
C:\Users\stapi\AppData\Local\Temp\ccjQ9O0I.s:97     .text.CoAPOption_sort:0000000000000064 .L0 
C:\Users\stapi\AppData\Local\Temp\ccjQ9O0I.s:104    .text.CoAPOption_sort:0000000000000074 .L0 
C:\Users\stapi\AppData\Local\Temp\ccjQ9O0I.s:105    .text.CoAPOption_sort:0000000000000074 .L0 
C:\Users\stapi\AppData\Local\Temp\ccjQ9O0I.s:108    .text.CoAPOption_sort:0000000000000076 .L0 
C:\Users\stapi\AppData\Local\Temp\ccjQ9O0I.s:109    .text.CoAPOption_sort:0000000000000076 .L0 
C:\Users\stapi\AppData\Local\Temp\ccjQ9O0I.s:113    .text.CoAPOption_sort:000000000000007a .L0 
C:\Users\stapi\AppData\Local\Temp\ccjQ9O0I.s:115    .text.CoAPOption_sort:000000000000007e .L0 
C:\Users\stapi\AppData\Local\Temp\ccjQ9O0I.s:117    .text.CoAPOption_sort:0000000000000086 .L0 
C:\Users\stapi\AppData\Local\Temp\ccjQ9O0I.s:118    .text.CoAPOption_sort:0000000000000086 .L0 
C:\Users\stapi\AppData\Local\Temp\ccjQ9O0I.s:119    .text.CoAPOption_sort:0000000000000086 .L0 
C:\Users\stapi\AppData\Local\Temp\ccjQ9O0I.s:120    .text.CoAPOption_sort:0000000000000086 .L0 
C:\Users\stapi\AppData\Local\Temp\ccjQ9O0I.s:121    .text.CoAPOption_sort:0000000000000086 .L0 
C:\Users\stapi\AppData\Local\Temp\ccjQ9O0I.s:122    .text.CoAPOption_sort:0000000000000086 .L0 
C:\Users\stapi\AppData\Local\Temp\ccjQ9O0I.s:123    .text.CoAPOption_sort:0000000000000086 .L0 
C:\Users\stapi\AppData\Local\Temp\ccjQ9O0I.s:124    .text.CoAPOption_sort:0000000000000086 .L0 
C:\Users\stapi\AppData\Local\Temp\ccjQ9O0I.s:125    .text.CoAPOption_sort:0000000000000086 .L0 
C:\Users\stapi\AppData\Local\Temp\ccjQ9O0I.s:126    .text.CoAPOption_sort:0000000000000086 .L0 
C:\Users\stapi\AppData\Local\Temp\ccjQ9O0I.s:127    .text.CoAPOption_sort:0000000000000086 .L0 
C:\Users\stapi\AppData\Local\Temp\ccjQ9O0I.s:134    .text.CoAPStrOption_add:0000000000000000 CoAPStrOption_add
C:\Users\stapi\AppData\Local\Temp\ccjQ9O0I.s:137    .text.CoAPStrOption_add:0000000000000000 .L0 
C:\Users\stapi\AppData\Local\Temp\ccjQ9O0I.s:139    .text.CoAPStrOption_add:0000000000000000 .L0 
C:\Users\stapi\AppData\Local\Temp\ccjQ9O0I.s:140    .text.CoAPStrOption_add:0000000000000000 .L0 
C:\Users\stapi\AppData\Local\Temp\ccjQ9O0I.s:141    .text.CoAPStrOption_add:0000000000000000 .L0 
C:\Users\stapi\AppData\Local\Temp\ccjQ9O0I.s:142    .text.CoAPStrOption_add:0000000000000000 .L0 
C:\Users\stapi\AppData\Local\Temp\ccjQ9O0I.s:144    .text.CoAPStrOption_add:0000000000000004 .L0 
C:\Users\stapi\AppData\Local\Temp\ccjQ9O0I.s:147    .text.CoAPStrOption_add:000000000000000a .L0 
C:\Users\stapi\AppData\Local\Temp\ccjQ9O0I.s:148    .text.CoAPStrOption_add:0000000000000012 .L0 
C:\Users\stapi\AppData\Local\Temp\ccjQ9O0I.s:149    .text.CoAPStrOption_add:0000000000000012 .L0 
C:\Users\stapi\AppData\Local\Temp\ccjQ9O0I.s:150    .text.CoAPStrOption_add:0000000000000012 .L0 
C:\Users\stapi\AppData\Local\Temp\ccjQ9O0I.s:151    .text.CoAPStrOption_add:0000000000000012 .L0 
C:\Users\stapi\AppData\Local\Temp\ccjQ9O0I.s:152    .text.CoAPStrOption_add:0000000000000012 .L0 
C:\Users\stapi\AppData\Local\Temp\ccjQ9O0I.s:155    .text.CoAPStrOption_add:0000000000000016 .L0 
C:\Users\stapi\AppData\Local\Temp\ccjQ9O0I.s:157    .text.CoAPStrOption_add:000000000000001a .L0 
C:\Users\stapi\AppData\Local\Temp\ccjQ9O0I.s:160    .text.CoAPStrOption_add:0000000000000020 .L0 
C:\Users\stapi\AppData\Local\Temp\ccjQ9O0I.s:161    .text.CoAPStrOption_add:0000000000000022 .L0 
C:\Users\stapi\AppData\Local\Temp\ccjQ9O0I.s:166    .text.CoAPStrOption_add:0000000000000026 .L0 
C:\Users\stapi\AppData\Local\Temp\ccjQ9O0I.s:167    .text.CoAPStrOption_add:0000000000000026 .L0 
C:\Users\stapi\AppData\Local\Temp\ccjQ9O0I.s:168    .text.CoAPStrOption_add:0000000000000026 .L0 
C:\Users\stapi\AppData\Local\Temp\ccjQ9O0I.s:169    .text.CoAPStrOption_add:0000000000000026 .L0 
C:\Users\stapi\AppData\Local\Temp\ccjQ9O0I.s:171    .text.CoAPStrOption_add:0000000000000028 .L0 
C:\Users\stapi\AppData\Local\Temp\ccjQ9O0I.s:173    .text.CoAPStrOption_add:000000000000002a .L0 
C:\Users\stapi\AppData\Local\Temp\ccjQ9O0I.s:174    .text.CoAPStrOption_add:000000000000002a .L0 
C:\Users\stapi\AppData\Local\Temp\ccjQ9O0I.s:184    .text.CoAPStrOption_add:000000000000003a .L0 
C:\Users\stapi\AppData\Local\Temp\ccjQ9O0I.s:185    .text.CoAPStrOption_add:000000000000003a .L0 
C:\Users\stapi\AppData\Local\Temp\ccjQ9O0I.s:187    .text.CoAPStrOption_add:000000000000003e .L0 
C:\Users\stapi\AppData\Local\Temp\ccjQ9O0I.s:189    .text.CoAPStrOption_add:0000000000000040 .L0 
C:\Users\stapi\AppData\Local\Temp\ccjQ9O0I.s:195    .text.CoAPStrOption_add:000000000000004c .L0 
C:\Users\stapi\AppData\Local\Temp\ccjQ9O0I.s:196    .text.CoAPStrOption_add:000000000000004c .L0 
C:\Users\stapi\AppData\Local\Temp\ccjQ9O0I.s:198    .text.CoAPStrOption_add:0000000000000050 .L0 
C:\Users\stapi\AppData\Local\Temp\ccjQ9O0I.s:200    .text.CoAPStrOption_add:0000000000000054 .L0 
C:\Users\stapi\AppData\Local\Temp\ccjQ9O0I.s:202    .text.CoAPStrOption_add:0000000000000056 .L0 
C:\Users\stapi\AppData\Local\Temp\ccjQ9O0I.s:204    .text.CoAPStrOption_add:0000000000000058 .L0 
C:\Users\stapi\AppData\Local\Temp\ccjQ9O0I.s:205    .text.CoAPStrOption_add:0000000000000058 .L0 
C:\Users\stapi\AppData\Local\Temp\ccjQ9O0I.s:207    .text.CoAPStrOption_add:000000000000005c .L0 
C:\Users\stapi\AppData\Local\Temp\ccjQ9O0I.s:208    .text.CoAPStrOption_add:000000000000005c .L0 
C:\Users\stapi\AppData\Local\Temp\ccjQ9O0I.s:211    .text.CoAPStrOption_add:000000000000005e .L0 
C:\Users\stapi\AppData\Local\Temp\ccjQ9O0I.s:213    .text.CoAPStrOption_add:0000000000000062 .L0 
C:\Users\stapi\AppData\Local\Temp\ccjQ9O0I.s:215    .text.CoAPStrOption_add:000000000000006a .L0 
C:\Users\stapi\AppData\Local\Temp\ccjQ9O0I.s:216    .text.CoAPStrOption_add:000000000000006a .L0 
C:\Users\stapi\AppData\Local\Temp\ccjQ9O0I.s:217    .text.CoAPStrOption_add:000000000000006a .L0 
C:\Users\stapi\AppData\Local\Temp\ccjQ9O0I.s:218    .text.CoAPStrOption_add:000000000000006a .L0 
C:\Users\stapi\AppData\Local\Temp\ccjQ9O0I.s:219    .text.CoAPStrOption_add:000000000000006a .L0 
C:\Users\stapi\AppData\Local\Temp\ccjQ9O0I.s:222    .text.CoAPStrOption_add:000000000000006a .L0 
C:\Users\stapi\AppData\Local\Temp\ccjQ9O0I.s:224    .text.CoAPStrOption_add:000000000000006a .L0 
C:\Users\stapi\AppData\Local\Temp\ccjQ9O0I.s:226    .text.CoAPStrOption_add:000000000000006e .L0 
C:\Users\stapi\AppData\Local\Temp\ccjQ9O0I.s:229    .text.CoAPStrOption_add:0000000000000072 .L0 
C:\Users\stapi\AppData\Local\Temp\ccjQ9O0I.s:236    .text.CoAPStrOption_get:0000000000000000 CoAPStrOption_get
C:\Users\stapi\AppData\Local\Temp\ccjQ9O0I.s:239    .text.CoAPStrOption_get:0000000000000000 .L0 
C:\Users\stapi\AppData\Local\Temp\ccjQ9O0I.s:241    .text.CoAPStrOption_get:0000000000000000 .L0 
C:\Users\stapi\AppData\Local\Temp\ccjQ9O0I.s:242    .text.CoAPStrOption_get:0000000000000008 .L0 
C:\Users\stapi\AppData\Local\Temp\ccjQ9O0I.s:243    .text.CoAPStrOption_get:0000000000000008 .L0 
C:\Users\stapi\AppData\Local\Temp\ccjQ9O0I.s:244    .text.CoAPStrOption_get:0000000000000008 .L0 
C:\Users\stapi\AppData\Local\Temp\ccjQ9O0I.s:245    .text.CoAPStrOption_get:0000000000000008 .L0 
C:\Users\stapi\AppData\Local\Temp\ccjQ9O0I.s:248    .text.CoAPStrOption_get:0000000000000008 .L0 
C:\Users\stapi\AppData\Local\Temp\ccjQ9O0I.s:249    .text.CoAPStrOption_get:0000000000000008 .L0 
C:\Users\stapi\AppData\Local\Temp\ccjQ9O0I.s:250    .text.CoAPStrOption_get:0000000000000008 .L0 
C:\Users\stapi\AppData\Local\Temp\ccjQ9O0I.s:254    .text.CoAPStrOption_get:000000000000000c .L0 
C:\Users\stapi\AppData\Local\Temp\ccjQ9O0I.s:257    .text.CoAPStrOption_get:0000000000000010 .L0 
C:\Users\stapi\AppData\Local\Temp\ccjQ9O0I.s:260    .text.CoAPStrOption_get:0000000000000016 .L0 
C:\Users\stapi\AppData\Local\Temp\ccjQ9O0I.s:264    .text.CoAPStrOption_get:0000000000000018 .L0 
C:\Users\stapi\AppData\Local\Temp\ccjQ9O0I.s:265    .text.CoAPStrOption_get:0000000000000018 .L0 
C:\Users\stapi\AppData\Local\Temp\ccjQ9O0I.s:268    .text.CoAPStrOption_get:0000000000000020 .L0 
C:\Users\stapi\AppData\Local\Temp\ccjQ9O0I.s:274    .text.CoAPStrOption_get:0000000000000026 .L0 
C:\Users\stapi\AppData\Local\Temp\ccjQ9O0I.s:275    .text.CoAPStrOption_get:0000000000000026 .L0 
C:\Users\stapi\AppData\Local\Temp\ccjQ9O0I.s:277    .text.CoAPStrOption_get:000000000000002a .L0 
C:\Users\stapi\AppData\Local\Temp\ccjQ9O0I.s:281    .text.CoAPStrOption_get:0000000000000034 .L0 
C:\Users\stapi\AppData\Local\Temp\ccjQ9O0I.s:284    .text.CoAPStrOption_get:0000000000000038 .L0 
C:\Users\stapi\AppData\Local\Temp\ccjQ9O0I.s:286    .text.CoAPStrOption_get:000000000000003c .L0 
C:\Users\stapi\AppData\Local\Temp\ccjQ9O0I.s:288    .text.CoAPStrOption_get:0000000000000040 .L0 
C:\Users\stapi\AppData\Local\Temp\ccjQ9O0I.s:291    .text.CoAPStrOption_get:0000000000000044 .L0 
C:\Users\stapi\AppData\Local\Temp\ccjQ9O0I.s:293    .text.CoAPStrOption_get:0000000000000048 .L0 
C:\Users\stapi\AppData\Local\Temp\ccjQ9O0I.s:298    .text.CoAPStrOption_get:0000000000000052 .L0 
C:\Users\stapi\AppData\Local\Temp\ccjQ9O0I.s:299    .text.CoAPStrOption_get:0000000000000052 .L0 
C:\Users\stapi\AppData\Local\Temp\ccjQ9O0I.s:301    .text.CoAPStrOption_get:0000000000000056 .L0 
C:\Users\stapi\AppData\Local\Temp\ccjQ9O0I.s:303    .text.CoAPStrOption_get:000000000000005a .L0 
C:\Users\stapi\AppData\Local\Temp\ccjQ9O0I.s:304    .text.CoAPStrOption_get:000000000000005a .L0 
C:\Users\stapi\AppData\Local\Temp\ccjQ9O0I.s:307    .text.CoAPStrOption_get:000000000000005c .L0 
C:\Users\stapi\AppData\Local\Temp\ccjQ9O0I.s:309    .text.CoAPStrOption_get:0000000000000066 .L0 
C:\Users\stapi\AppData\Local\Temp\ccjQ9O0I.s:310    .text.CoAPStrOption_get:0000000000000066 .L0 
C:\Users\stapi\AppData\Local\Temp\ccjQ9O0I.s:311    .text.CoAPStrOption_get:0000000000000066 .L0 
C:\Users\stapi\AppData\Local\Temp\ccjQ9O0I.s:312    .text.CoAPStrOption_get:0000000000000066 .L0 
C:\Users\stapi\AppData\Local\Temp\ccjQ9O0I.s:313    .text.CoAPStrOption_get:0000000000000066 .L0 
C:\Users\stapi\AppData\Local\Temp\ccjQ9O0I.s:316    .text.CoAPStrOption_get:0000000000000066 .L0 
C:\Users\stapi\AppData\Local\Temp\ccjQ9O0I.s:320    .text.CoAPStrOption_get:000000000000006a .L0 
C:\Users\stapi\AppData\Local\Temp\ccjQ9O0I.s:327    .text.CoAPUintOption_add:0000000000000000 CoAPUintOption_add
C:\Users\stapi\AppData\Local\Temp\ccjQ9O0I.s:330    .text.CoAPUintOption_add:0000000000000000 .L0 
C:\Users\stapi\AppData\Local\Temp\ccjQ9O0I.s:332    .text.CoAPUintOption_add:0000000000000000 .L0 
C:\Users\stapi\AppData\Local\Temp\ccjQ9O0I.s:333    .text.CoAPUintOption_add:0000000000000008 .L0 
C:\Users\stapi\AppData\Local\Temp\ccjQ9O0I.s:334    .text.CoAPUintOption_add:0000000000000008 .L0 
C:\Users\stapi\AppData\Local\Temp\ccjQ9O0I.s:336    .text.CoAPUintOption_add:0000000000000008 .L0 
C:\Users\stapi\AppData\Local\Temp\ccjQ9O0I.s:338    .text.CoAPUintOption_add:0000000000000008 .L0 
C:\Users\stapi\AppData\Local\Temp\ccjQ9O0I.s:339    .text.CoAPUintOption_add:0000000000000008 .L0 
C:\Users\stapi\AppData\Local\Temp\ccjQ9O0I.s:340    .text.CoAPUintOption_add:0000000000000008 .L0 
C:\Users\stapi\AppData\Local\Temp\ccjQ9O0I.s:343    .text.CoAPUintOption_add:000000000000000c .L0 
C:\Users\stapi\AppData\Local\Temp\ccjQ9O0I.s:344    .text.CoAPUintOption_add:000000000000000e .L0 
C:\Users\stapi\AppData\Local\Temp\ccjQ9O0I.s:346    .text.CoAPUintOption_add:000000000000000e .L0 
C:\Users\stapi\AppData\Local\Temp\ccjQ9O0I.s:349    .text.CoAPUintOption_add:0000000000000010 .L0 
C:\Users\stapi\AppData\Local\Temp\ccjQ9O0I.s:350    .text.CoAPUintOption_add:0000000000000010 .L0 
C:\Users\stapi\AppData\Local\Temp\ccjQ9O0I.s:351    .text.CoAPUintOption_add:0000000000000010 .L0 
C:\Users\stapi\AppData\Local\Temp\ccjQ9O0I.s:352    .text.CoAPUintOption_add:0000000000000010 .L0 
C:\Users\stapi\AppData\Local\Temp\ccjQ9O0I.s:353    .text.CoAPUintOption_add:0000000000000010 .L0 
C:\Users\stapi\AppData\Local\Temp\ccjQ9O0I.s:356    .text.CoAPUintOption_add:0000000000000014 .L0 
C:\Users\stapi\AppData\Local\Temp\ccjQ9O0I.s:358    .text.CoAPUintOption_add:0000000000000016 .L0 
C:\Users\stapi\AppData\Local\Temp\ccjQ9O0I.s:362    .text.CoAPUintOption_add:0000000000000018 .L0 
C:\Users\stapi\AppData\Local\Temp\ccjQ9O0I.s:363    .text.CoAPUintOption_add:0000000000000018 .L0 
C:\Users\stapi\AppData\Local\Temp\ccjQ9O0I.s:367    .text.CoAPUintOption_add:0000000000000022 .L0 
C:\Users\stapi\AppData\Local\Temp\ccjQ9O0I.s:368    .text.CoAPUintOption_add:0000000000000024 .L0 
C:\Users\stapi\AppData\Local\Temp\ccjQ9O0I.s:369    .text.CoAPUintOption_add:0000000000000024 .L0 
C:\Users\stapi\AppData\Local\Temp\ccjQ9O0I.s:371    .text.CoAPUintOption_add:000000000000002c .L0 
C:\Users\stapi\AppData\Local\Temp\ccjQ9O0I.s:372    .text.CoAPUintOption_add:000000000000002c .L0 
C:\Users\stapi\AppData\Local\Temp\ccjQ9O0I.s:375    .text.CoAPUintOption_add:000000000000002c .L0 
C:\Users\stapi\AppData\Local\Temp\ccjQ9O0I.s:377    .text.CoAPUintOption_add:000000000000002c .L0 
C:\Users\stapi\AppData\Local\Temp\ccjQ9O0I.s:378    .text.CoAPUintOption_add:000000000000002c .L0 
C:\Users\stapi\AppData\Local\Temp\ccjQ9O0I.s:382    .text.CoAPUintOption_add:0000000000000034 .L0 
C:\Users\stapi\AppData\Local\Temp\ccjQ9O0I.s:385    .text.CoAPUintOption_add:0000000000000036 .L0 
C:\Users\stapi\AppData\Local\Temp\ccjQ9O0I.s:386    .text.CoAPUintOption_add:0000000000000036 .L0 
C:\Users\stapi\AppData\Local\Temp\ccjQ9O0I.s:387    .text.CoAPUintOption_add:0000000000000036 .L0 
C:\Users\stapi\AppData\Local\Temp\ccjQ9O0I.s:388    .text.CoAPUintOption_add:0000000000000036 .L0 
C:\Users\stapi\AppData\Local\Temp\ccjQ9O0I.s:395    .text.CoAPUintOption_add:0000000000000046 .L0 
C:\Users\stapi\AppData\Local\Temp\ccjQ9O0I.s:400    .text.CoAPUintOption_add:000000000000004a .L0 
C:\Users\stapi\AppData\Local\Temp\ccjQ9O0I.s:401    .text.CoAPUintOption_add:000000000000004a .L0 
C:\Users\stapi\AppData\Local\Temp\ccjQ9O0I.s:403    .text.CoAPUintOption_add:000000000000004c .L0 
C:\Users\stapi\AppData\Local\Temp\ccjQ9O0I.s:406    .text.CoAPUintOption_add:000000000000004e .L0 
C:\Users\stapi\AppData\Local\Temp\ccjQ9O0I.s:407    .text.CoAPUintOption_add:000000000000004e .L0 
C:\Users\stapi\AppData\Local\Temp\ccjQ9O0I.s:408    .text.CoAPUintOption_add:000000000000004e .L0 
C:\Users\stapi\AppData\Local\Temp\ccjQ9O0I.s:411    .text.CoAPUintOption_add:0000000000000056 .L0 
C:\Users\stapi\AppData\Local\Temp\ccjQ9O0I.s:418    .text.CoAPUintOption_get:0000000000000000 CoAPUintOption_get
C:\Users\stapi\AppData\Local\Temp\ccjQ9O0I.s:421    .text.CoAPUintOption_get:0000000000000000 .L0 
C:\Users\stapi\AppData\Local\Temp\ccjQ9O0I.s:423    .text.CoAPUintOption_get:0000000000000000 .L0 
C:\Users\stapi\AppData\Local\Temp\ccjQ9O0I.s:424    .text.CoAPUintOption_get:0000000000000000 .L0 
C:\Users\stapi\AppData\Local\Temp\ccjQ9O0I.s:425    .text.CoAPUintOption_get:0000000000000000 .L0 
C:\Users\stapi\AppData\Local\Temp\ccjQ9O0I.s:426    .text.CoAPUintOption_get:0000000000000000 .L0 
C:\Users\stapi\AppData\Local\Temp\ccjQ9O0I.s:429    .text.CoAPUintOption_get:0000000000000008 .L0 
C:\Users\stapi\AppData\Local\Temp\ccjQ9O0I.s:433    .text.CoAPUintOption_get:000000000000000a .L0 
C:\Users\stapi\AppData\Local\Temp\ccjQ9O0I.s:434    .text.CoAPUintOption_get:000000000000000a .L0 
C:\Users\stapi\AppData\Local\Temp\ccjQ9O0I.s:437    .text.CoAPUintOption_get:0000000000000012 .L0 
C:\Users\stapi\AppData\Local\Temp\ccjQ9O0I.s:440    .text.CoAPUintOption_get:0000000000000016 .L0 
C:\Users\stapi\AppData\Local\Temp\ccjQ9O0I.s:444    .text.CoAPUintOption_get:0000000000000018 .L0 
C:\Users\stapi\AppData\Local\Temp\ccjQ9O0I.s:445    .text.CoAPUintOption_get:0000000000000018 .L0 
C:\Users\stapi\AppData\Local\Temp\ccjQ9O0I.s:447    .text.CoAPUintOption_get:000000000000001c .L0 
C:\Users\stapi\AppData\Local\Temp\ccjQ9O0I.s:453    .text.CoAPUintOption_get:0000000000000026 .L0 
C:\Users\stapi\AppData\Local\Temp\ccjQ9O0I.s:454    .text.CoAPUintOption_get:0000000000000026 .L0 
C:\Users\stapi\AppData\Local\Temp\ccjQ9O0I.s:457    .text.CoAPUintOption_get:000000000000002a .L0 
C:\Users\stapi\AppData\Local\Temp\ccjQ9O0I.s:460    .text.CoAPUintOption_get:000000000000002e .L0 
C:\Users\stapi\AppData\Local\Temp\ccjQ9O0I.s:469    .text.CoAPUintOption_get:0000000000000044 .L0 
C:\Users\stapi\AppData\Local\Temp\ccjQ9O0I.s:470    .text.CoAPUintOption_get:0000000000000044 .L0 
C:\Users\stapi\AppData\Local\Temp\ccjQ9O0I.s:472    .text.CoAPUintOption_get:0000000000000048 .L0 
C:\Users\stapi\AppData\Local\Temp\ccjQ9O0I.s:475    .text.CoAPUintOption_get:000000000000004a .L0 
C:\Users\stapi\AppData\Local\Temp\ccjQ9O0I.s:478    .text.CoAPUintOption_get:0000000000000050 .L0 
C:\Users\stapi\AppData\Local\Temp\ccjQ9O0I.s:479    .text.CoAPUintOption_get:0000000000000050 .L0 
C:\Users\stapi\AppData\Local\Temp\ccjQ9O0I.s:482    .text.CoAPUintOption_get:0000000000000052 .L0 
C:\Users\stapi\AppData\Local\Temp\ccjQ9O0I.s:484    .text.CoAPUintOption_get:0000000000000054 .L0 
C:\Users\stapi\AppData\Local\Temp\ccjQ9O0I.s:486    .text.CoAPUintOption_get:0000000000000058 .L0 
C:\Users\stapi\AppData\Local\Temp\ccjQ9O0I.s:488    .text.CoAPUintOption_get:000000000000005a .L0 
C:\Users\stapi\AppData\Local\Temp\ccjQ9O0I.s:492    .text.CoAPUintOption_get:000000000000005e .L0 
C:\Users\stapi\AppData\Local\Temp\ccjQ9O0I.s:493    .text.CoAPUintOption_get:000000000000005e .L0 
C:\Users\stapi\AppData\Local\Temp\ccjQ9O0I.s:495    .text.CoAPUintOption_get:0000000000000062 .L0 
C:\Users\stapi\AppData\Local\Temp\ccjQ9O0I.s:497    .text.CoAPUintOption_get:0000000000000064 .L0 
C:\Users\stapi\AppData\Local\Temp\ccjQ9O0I.s:501    .text.CoAPUintOption_get:0000000000000068 .L0 
C:\Users\stapi\AppData\Local\Temp\ccjQ9O0I.s:502    .text.CoAPUintOption_get:0000000000000068 .L0 
C:\Users\stapi\AppData\Local\Temp\ccjQ9O0I.s:504    .text.CoAPUintOption_get:000000000000006c .L0 
C:\Users\stapi\AppData\Local\Temp\ccjQ9O0I.s:506    .text.CoAPUintOption_get:000000000000006e .L0 
C:\Users\stapi\AppData\Local\Temp\ccjQ9O0I.s:510    .text.CoAPUintOption_get:0000000000000072 .L0 
C:\Users\stapi\AppData\Local\Temp\ccjQ9O0I.s:511    .text.CoAPUintOption_get:0000000000000072 .L0 
C:\Users\stapi\AppData\Local\Temp\ccjQ9O0I.s:516    .text.CoAPUintOption_get:0000000000000078 .L0 
C:\Users\stapi\AppData\Local\Temp\ccjQ9O0I.s:517    .text.CoAPUintOption_get:0000000000000078 .L0 
C:\Users\stapi\AppData\Local\Temp\ccjQ9O0I.s:520    .text.CoAPUintOption_get:000000000000007e .L0 
C:\Users\stapi\AppData\Local\Temp\ccjQ9O0I.s:524    .text.CoAPUintOption_get:0000000000000080 .L0 
C:\Users\stapi\AppData\Local\Temp\ccjQ9O0I.s:528    .text.CoAPUintOption_get:0000000000000084 .L0 
C:\Users\stapi\AppData\Local\Temp\ccjQ9O0I.s:529    .text.CoAPUintOption_get:0000000000000084 .L0 
C:\Users\stapi\AppData\Local\Temp\ccjQ9O0I.s:531    .text.CoAPUintOption_get:0000000000000086 .L0 
C:\Users\stapi\AppData\Local\Temp\ccjQ9O0I.s:535    .text.CoAPUintOption_get:0000000000000088 .L0 
C:\Users\stapi\AppData\Local\Temp\ccjQ9O0I.s:536    .text.CoAPUintOption_get:0000000000000088 .L0 
C:\Users\stapi\AppData\Local\Temp\ccjQ9O0I.s:539    .text.CoAPUintOption_get:000000000000008a .L0 
C:\Users\stapi\AppData\Local\Temp\ccjQ9O0I.s:541    .text.CoAPUintOption_get:000000000000008c .L0 
C:\Users\stapi\AppData\Local\Temp\ccjQ9O0I.s:543    .text.CoAPUintOption_get:0000000000000090 .L0 
C:\Users\stapi\AppData\Local\Temp\ccjQ9O0I.s:545    .text.CoAPUintOption_get:0000000000000092 .L0 
C:\Users\stapi\AppData\Local\Temp\ccjQ9O0I.s:549    .text.CoAPUintOption_get:0000000000000096 .L0 
C:\Users\stapi\AppData\Local\Temp\ccjQ9O0I.s:550    .text.CoAPUintOption_get:0000000000000096 .L0 
C:\Users\stapi\AppData\Local\Temp\ccjQ9O0I.s:555    .text.CoAPUintOption_get:000000000000009c .L0 
C:\Users\stapi\AppData\Local\Temp\ccjQ9O0I.s:556    .text.CoAPUintOption_get:000000000000009c .L0 
C:\Users\stapi\AppData\Local\Temp\ccjQ9O0I.s:559    .text.CoAPUintOption_get:000000000000009e .L0 
C:\Users\stapi\AppData\Local\Temp\ccjQ9O0I.s:561    .text.CoAPUintOption_get:00000000000000a0 .L0 
C:\Users\stapi\AppData\Local\Temp\ccjQ9O0I.s:563    .text.CoAPUintOption_get:00000000000000a4 .L0 
C:\Users\stapi\AppData\Local\Temp\ccjQ9O0I.s:565    .text.CoAPUintOption_get:00000000000000a6 .L0 
C:\Users\stapi\AppData\Local\Temp\ccjQ9O0I.s:569    .text.CoAPUintOption_get:00000000000000aa .L0 
C:\Users\stapi\AppData\Local\Temp\ccjQ9O0I.s:570    .text.CoAPUintOption_get:00000000000000aa .L0 
C:\Users\stapi\AppData\Local\Temp\ccjQ9O0I.s:572    .text.CoAPUintOption_get:00000000000000ae .L0 
C:\Users\stapi\AppData\Local\Temp\ccjQ9O0I.s:574    .text.CoAPUintOption_get:00000000000000b0 .L0 
C:\Users\stapi\AppData\Local\Temp\ccjQ9O0I.s:578    .text.CoAPUintOption_get:00000000000000b4 .L0 
C:\Users\stapi\AppData\Local\Temp\ccjQ9O0I.s:579    .text.CoAPUintOption_get:00000000000000b4 .L0 
C:\Users\stapi\AppData\Local\Temp\ccjQ9O0I.s:587    .text.CoAPUintOption_get:00000000000000be .L0 
C:\Users\stapi\AppData\Local\Temp\ccjQ9O0I.s:594    .text.CoAPOption_present:0000000000000000 CoAPOption_present
C:\Users\stapi\AppData\Local\Temp\ccjQ9O0I.s:597    .text.CoAPOption_present:0000000000000000 .L0 
C:\Users\stapi\AppData\Local\Temp\ccjQ9O0I.s:599    .text.CoAPOption_present:0000000000000000 .L0 
C:\Users\stapi\AppData\Local\Temp\ccjQ9O0I.s:600    .text.CoAPOption_present:0000000000000000 .L0 
C:\Users\stapi\AppData\Local\Temp\ccjQ9O0I.s:601    .text.CoAPOption_present:0000000000000000 .L0 
C:\Users\stapi\AppData\Local\Temp\ccjQ9O0I.s:602    .text.CoAPOption_present:0000000000000000 .L0 
C:\Users\stapi\AppData\Local\Temp\ccjQ9O0I.s:604    .text.CoAPOption_present:0000000000000004 .L0 
C:\Users\stapi\AppData\Local\Temp\ccjQ9O0I.s:609    .text.CoAPOption_present:0000000000000008 .L0 
C:\Users\stapi\AppData\Local\Temp\ccjQ9O0I.s:610    .text.CoAPOption_present:0000000000000008 .L0 
C:\Users\stapi\AppData\Local\Temp\ccjQ9O0I.s:612    .text.CoAPOption_present:000000000000000c .L0 
C:\Users\stapi\AppData\Local\Temp\ccjQ9O0I.s:616    .text.CoAPOption_present:0000000000000012 .L0 
C:\Users\stapi\AppData\Local\Temp\ccjQ9O0I.s:617    .text.CoAPOption_present:0000000000000012 .L0 
C:\Users\stapi\AppData\Local\Temp\ccjQ9O0I.s:621    .text.CoAPOption_present:000000000000001c .L0 
C:\Users\stapi\AppData\Local\Temp\ccjQ9O0I.s:622    .text.CoAPOption_present:000000000000001c .L0 
C:\Users\stapi\AppData\Local\Temp\ccjQ9O0I.s:629    .text.CoAPOption_present:0000000000000024 .L0 
C:\Users\stapi\AppData\Local\Temp\ccjQ9O0I.s:631    .text.CoAPOption_present:0000000000000026 .L0 
C:\Users\stapi\AppData\Local\Temp\ccjQ9O0I.s:632    .text.CoAPOption_present:0000000000000028 .L0 
C:\Users\stapi\AppData\Local\Temp\ccjQ9O0I.s:639    .text.CoAPMessageId_gen:0000000000000000 CoAPMessageId_gen
C:\Users\stapi\AppData\Local\Temp\ccjQ9O0I.s:642    .text.CoAPMessageId_gen:0000000000000000 .L0 
C:\Users\stapi\AppData\Local\Temp\ccjQ9O0I.s:644    .text.CoAPMessageId_gen:0000000000000000 .L0 
C:\Users\stapi\AppData\Local\Temp\ccjQ9O0I.s:645    .text.CoAPMessageId_gen:0000000000000008 .L0 
C:\Users\stapi\AppData\Local\Temp\ccjQ9O0I.s:646    .text.CoAPMessageId_gen:0000000000000008 .L0 
C:\Users\stapi\AppData\Local\Temp\ccjQ9O0I.s:647    .text.CoAPMessageId_gen:0000000000000008 .L0 
C:\Users\stapi\AppData\Local\Temp\ccjQ9O0I.s:648    .text.CoAPMessageId_gen:0000000000000008 .L0 
C:\Users\stapi\AppData\Local\Temp\ccjQ9O0I.s:651    .text.CoAPMessageId_gen:0000000000000008 .L0 
C:\Users\stapi\AppData\Local\Temp\ccjQ9O0I.s:652    .text.CoAPMessageId_gen:0000000000000008 .L0 
C:\Users\stapi\AppData\Local\Temp\ccjQ9O0I.s:653    .text.CoAPMessageId_gen:0000000000000008 .L0 
C:\Users\stapi\AppData\Local\Temp\ccjQ9O0I.s:655    .text.CoAPMessageId_gen:000000000000000a .L0 
C:\Users\stapi\AppData\Local\Temp\ccjQ9O0I.s:659    .text.CoAPMessageId_gen:000000000000000e .L0 
C:\Users\stapi\AppData\Local\Temp\ccjQ9O0I.s:660    .text.CoAPMessageId_gen:000000000000000e .L0 
C:\Users\stapi\AppData\Local\Temp\ccjQ9O0I.s:665    .text.CoAPMessageId_gen:0000000000000018 .L0 
C:\Users\stapi\AppData\Local\Temp\ccjQ9O0I.s:666    .text.CoAPMessageId_gen:0000000000000018 .L0 
C:\Users\stapi\AppData\Local\Temp\ccjQ9O0I.s:668    .text.CoAPMessageId_gen:000000000000001c .L0 
C:\Users\stapi\AppData\Local\Temp\ccjQ9O0I.s:672    .text.CoAPMessageId_gen:0000000000000024 .L0 
C:\Users\stapi\AppData\Local\Temp\ccjQ9O0I.s:676    .text.CoAPMessageId_gen:000000000000002c .L0 
C:\Users\stapi\AppData\Local\Temp\ccjQ9O0I.s:680    .text.CoAPMessageId_gen:0000000000000032 .L0 
C:\Users\stapi\AppData\Local\Temp\ccjQ9O0I.s:684    .text.CoAPMessageId_gen:000000000000003a .L0 
C:\Users\stapi\AppData\Local\Temp\ccjQ9O0I.s:685    .text.CoAPMessageId_gen:000000000000003a .L0 
C:\Users\stapi\AppData\Local\Temp\ccjQ9O0I.s:687    .text.CoAPMessageId_gen:0000000000000044 .L0 
C:\Users\stapi\AppData\Local\Temp\ccjQ9O0I.s:688    .text.CoAPMessageId_gen:0000000000000044 .L0 
C:\Users\stapi\AppData\Local\Temp\ccjQ9O0I.s:689    .text.CoAPMessageId_gen:0000000000000044 .L0 
C:\Users\stapi\AppData\Local\Temp\ccjQ9O0I.s:690    .text.CoAPMessageId_gen:0000000000000044 .L0 
C:\Users\stapi\AppData\Local\Temp\ccjQ9O0I.s:691    .text.CoAPMessageId_gen:0000000000000044 .L0 
C:\Users\stapi\AppData\Local\Temp\ccjQ9O0I.s:694    .text.CoAPMessageId_gen:0000000000000044 .L0 
C:\Users\stapi\AppData\Local\Temp\ccjQ9O0I.s:696    .text.CoAPMessageId_gen:0000000000000044 .L0 
C:\Users\stapi\AppData\Local\Temp\ccjQ9O0I.s:698    .text.CoAPMessageId_gen:0000000000000046 .L0 
C:\Users\stapi\AppData\Local\Temp\ccjQ9O0I.s:700    .text.CoAPMessageId_gen:000000000000004a .L0 
C:\Users\stapi\AppData\Local\Temp\ccjQ9O0I.s:707    .text.CoAPMessageId_set:0000000000000000 CoAPMessageId_set
C:\Users\stapi\AppData\Local\Temp\ccjQ9O0I.s:710    .text.CoAPMessageId_set:0000000000000000 .L0 
C:\Users\stapi\AppData\Local\Temp\ccjQ9O0I.s:712    .text.CoAPMessageId_set:0000000000000000 .L0 
C:\Users\stapi\AppData\Local\Temp\ccjQ9O0I.s:713    .text.CoAPMessageId_set:0000000000000000 .L0 
C:\Users\stapi\AppData\Local\Temp\ccjQ9O0I.s:714    .text.CoAPMessageId_set:0000000000000000 .L0 
C:\Users\stapi\AppData\Local\Temp\ccjQ9O0I.s:716    .text.CoAPMessageId_set:0000000000000002 .L0 
C:\Users\stapi\AppData\Local\Temp\ccjQ9O0I.s:717    .text.CoAPMessageId_set:0000000000000002 .L0 
C:\Users\stapi\AppData\Local\Temp\ccjQ9O0I.s:719    .text.CoAPMessageId_set:0000000000000006 .L0 
C:\Users\stapi\AppData\Local\Temp\ccjQ9O0I.s:720    .text.CoAPMessageId_set:0000000000000006 .L0 
C:\Users\stapi\AppData\Local\Temp\ccjQ9O0I.s:726    .text.CoAPMessageId_set:000000000000000a .L0 
C:\Users\stapi\AppData\Local\Temp\ccjQ9O0I.s:729    .text.CoAPMessageId_set:000000000000000e .L0 
C:\Users\stapi\AppData\Local\Temp\ccjQ9O0I.s:730    .text.CoAPMessageId_set:0000000000000010 .L0 
C:\Users\stapi\AppData\Local\Temp\ccjQ9O0I.s:737    .text.CoAPMessageType_set:0000000000000000 CoAPMessageType_set
C:\Users\stapi\AppData\Local\Temp\ccjQ9O0I.s:740    .text.CoAPMessageType_set:0000000000000000 .L0 
C:\Users\stapi\AppData\Local\Temp\ccjQ9O0I.s:742    .text.CoAPMessageType_set:0000000000000000 .L0 
C:\Users\stapi\AppData\Local\Temp\ccjQ9O0I.s:743    .text.CoAPMessageType_set:0000000000000000 .L0 
C:\Users\stapi\AppData\Local\Temp\ccjQ9O0I.s:744    .text.CoAPMessageType_set:0000000000000000 .L0 
C:\Users\stapi\AppData\Local\Temp\ccjQ9O0I.s:746    .text.CoAPMessageType_set:0000000000000002 .L0 
C:\Users\stapi\AppData\Local\Temp\ccjQ9O0I.s:748    .text.CoAPMessageType_set:0000000000000004 .L0 
C:\Users\stapi\AppData\Local\Temp\ccjQ9O0I.s:749    .text.CoAPMessageType_set:0000000000000004 .L0 
C:\Users\stapi\AppData\Local\Temp\ccjQ9O0I.s:751    .text.CoAPMessageType_set:0000000000000008 .L0 
C:\Users\stapi\AppData\Local\Temp\ccjQ9O0I.s:754    .text.CoAPMessageType_set:000000000000000e .L0 
C:\Users\stapi\AppData\Local\Temp\ccjQ9O0I.s:757    .text.CoAPMessageType_set:0000000000000012 .L0 
C:\Users\stapi\AppData\Local\Temp\ccjQ9O0I.s:759    .text.CoAPMessageType_set:0000000000000016 .L0 
C:\Users\stapi\AppData\Local\Temp\ccjQ9O0I.s:760    .text.CoAPMessageType_set:0000000000000016 .L0 
C:\Users\stapi\AppData\Local\Temp\ccjQ9O0I.s:768    .text.CoAPMessageType_set:0000000000000026 .L0 
C:\Users\stapi\AppData\Local\Temp\ccjQ9O0I.s:769    .text.CoAPMessageType_set:0000000000000026 .L0 
C:\Users\stapi\AppData\Local\Temp\ccjQ9O0I.s:774    .text.CoAPMessageType_set:000000000000002a .L0 
C:\Users\stapi\AppData\Local\Temp\ccjQ9O0I.s:778    .text.CoAPMessageType_set:000000000000002e .L0 
C:\Users\stapi\AppData\Local\Temp\ccjQ9O0I.s:779    .text.CoAPMessageType_set:0000000000000030 .L0 
C:\Users\stapi\AppData\Local\Temp\ccjQ9O0I.s:786    .text.CoAPMessageCode_set:0000000000000000 CoAPMessageCode_set
C:\Users\stapi\AppData\Local\Temp\ccjQ9O0I.s:789    .text.CoAPMessageCode_set:0000000000000000 .L0 
C:\Users\stapi\AppData\Local\Temp\ccjQ9O0I.s:791    .text.CoAPMessageCode_set:0000000000000000 .L0 
C:\Users\stapi\AppData\Local\Temp\ccjQ9O0I.s:792    .text.CoAPMessageCode_set:0000000000000000 .L0 
C:\Users\stapi\AppData\Local\Temp\ccjQ9O0I.s:793    .text.CoAPMessageCode_set:0000000000000000 .L0 
C:\Users\stapi\AppData\Local\Temp\ccjQ9O0I.s:795    .text.CoAPMessageCode_set:0000000000000002 .L0 
C:\Users\stapi\AppData\Local\Temp\ccjQ9O0I.s:796    .text.CoAPMessageCode_set:0000000000000002 .L0 
C:\Users\stapi\AppData\Local\Temp\ccjQ9O0I.s:798    .text.CoAPMessageCode_set:0000000000000006 .L0 
C:\Users\stapi\AppData\Local\Temp\ccjQ9O0I.s:799    .text.CoAPMessageCode_set:0000000000000006 .L0 
C:\Users\stapi\AppData\Local\Temp\ccjQ9O0I.s:805    .text.CoAPMessageCode_set:000000000000000a .L0 
C:\Users\stapi\AppData\Local\Temp\ccjQ9O0I.s:808    .text.CoAPMessageCode_set:000000000000000e .L0 
C:\Users\stapi\AppData\Local\Temp\ccjQ9O0I.s:809    .text.CoAPMessageCode_set:0000000000000010 .L0 
C:\Users\stapi\AppData\Local\Temp\ccjQ9O0I.s:816    .text.CoAPMessageCode_get:0000000000000000 CoAPMessageCode_get
C:\Users\stapi\AppData\Local\Temp\ccjQ9O0I.s:819    .text.CoAPMessageCode_get:0000000000000000 .L0 
C:\Users\stapi\AppData\Local\Temp\ccjQ9O0I.s:821    .text.CoAPMessageCode_get:0000000000000000 .L0 
C:\Users\stapi\AppData\Local\Temp\ccjQ9O0I.s:822    .text.CoAPMessageCode_get:0000000000000000 .L0 
C:\Users\stapi\AppData\Local\Temp\ccjQ9O0I.s:823    .text.CoAPMessageCode_get:0000000000000000 .L0 
C:\Users\stapi\AppData\Local\Temp\ccjQ9O0I.s:825    .text.CoAPMessageCode_get:0000000000000002 .L0 
C:\Users\stapi\AppData\Local\Temp\ccjQ9O0I.s:828    .text.CoAPMessageCode_get:0000000000000006 .L0 
C:\Users\stapi\AppData\Local\Temp\ccjQ9O0I.s:830    .text.CoAPMessageCode_get:0000000000000008 .L0 
C:\Users\stapi\AppData\Local\Temp\ccjQ9O0I.s:832    .text.CoAPMessageCode_get:000000000000000a .L0 
C:\Users\stapi\AppData\Local\Temp\ccjQ9O0I.s:833    .text.CoAPMessageCode_get:000000000000000a .L0 
C:\Users\stapi\AppData\Local\Temp\ccjQ9O0I.s:836    .text.CoAPMessageCode_get:000000000000000e .L0 
C:\Users\stapi\AppData\Local\Temp\ccjQ9O0I.s:838    .text.CoAPMessageCode_get:0000000000000010 .L0 
C:\Users\stapi\AppData\Local\Temp\ccjQ9O0I.s:840    .text.CoAPMessageCode_get:0000000000000012 .L0 
C:\Users\stapi\AppData\Local\Temp\ccjQ9O0I.s:841    .text.CoAPMessageCode_get:0000000000000012 .L0 
C:\Users\stapi\AppData\Local\Temp\ccjQ9O0I.s:845    .text.CoAPMessageCode_get:0000000000000014 .L0 
C:\Users\stapi\AppData\Local\Temp\ccjQ9O0I.s:846    .text.CoAPMessageCode_get:0000000000000016 .L0 
C:\Users\stapi\AppData\Local\Temp\ccjQ9O0I.s:853    .text.CoAPMessageToken_set:0000000000000000 CoAPMessageToken_set
C:\Users\stapi\AppData\Local\Temp\ccjQ9O0I.s:856    .text.CoAPMessageToken_set:0000000000000000 .L0 
C:\Users\stapi\AppData\Local\Temp\ccjQ9O0I.s:858    .text.CoAPMessageToken_set:0000000000000000 .L0 
C:\Users\stapi\AppData\Local\Temp\ccjQ9O0I.s:859    .text.CoAPMessageToken_set:0000000000000000 .L0 
C:\Users\stapi\AppData\Local\Temp\ccjQ9O0I.s:860    .text.CoAPMessageToken_set:0000000000000000 .L0 
C:\Users\stapi\AppData\Local\Temp\ccjQ9O0I.s:862    .text.CoAPMessageToken_set:0000000000000002 .L0 
C:\Users\stapi\AppData\Local\Temp\ccjQ9O0I.s:863    .text.CoAPMessageToken_set:000000000000000a .L0 
C:\Users\stapi\AppData\Local\Temp\ccjQ9O0I.s:864    .text.CoAPMessageToken_set:000000000000000a .L0 
C:\Users\stapi\AppData\Local\Temp\ccjQ9O0I.s:865    .text.CoAPMessageToken_set:000000000000000a .L0 
C:\Users\stapi\AppData\Local\Temp\ccjQ9O0I.s:866    .text.CoAPMessageToken_set:000000000000000a .L0 
C:\Users\stapi\AppData\Local\Temp\ccjQ9O0I.s:869    .text.CoAPMessageToken_set:000000000000000c .L0 
C:\Users\stapi\AppData\Local\Temp\ccjQ9O0I.s:872    .text.CoAPMessageToken_set:0000000000000010 .L0 
C:\Users\stapi\AppData\Local\Temp\ccjQ9O0I.s:874    .text.CoAPMessageToken_set:0000000000000012 .L0 
C:\Users\stapi\AppData\Local\Temp\ccjQ9O0I.s:877    .text.CoAPMessageToken_set:0000000000000016 .L0 
C:\Users\stapi\AppData\Local\Temp\ccjQ9O0I.s:878    .text.CoAPMessageToken_set:0000000000000016 .L0 
C:\Users\stapi\AppData\Local\Temp\ccjQ9O0I.s:880    .text.CoAPMessageToken_set:000000000000001a .L0 
C:\Users\stapi\AppData\Local\Temp\ccjQ9O0I.s:882    .text.CoAPMessageToken_set:000000000000001e .L0 
C:\Users\stapi\AppData\Local\Temp\ccjQ9O0I.s:886    .text.CoAPMessageToken_set:000000000000002a .L0 
C:\Users\stapi\AppData\Local\Temp\ccjQ9O0I.s:887    .text.CoAPMessageToken_set:000000000000002a .L0 
C:\Users\stapi\AppData\Local\Temp\ccjQ9O0I.s:890    .text.CoAPMessageToken_set:0000000000000030 .L0 
C:\Users\stapi\AppData\Local\Temp\ccjQ9O0I.s:892    .text.CoAPMessageToken_set:0000000000000032 .L0 
C:\Users\stapi\AppData\Local\Temp\ccjQ9O0I.s:897    .text.CoAPMessageToken_set:000000000000003a .L0 
C:\Users\stapi\AppData\Local\Temp\ccjQ9O0I.s:898    .text.CoAPMessageToken_set:000000000000003a .L0 
C:\Users\stapi\AppData\Local\Temp\ccjQ9O0I.s:899    .text.CoAPMessageToken_set:0000000000000042 .L0 
C:\Users\stapi\AppData\Local\Temp\ccjQ9O0I.s:900    .text.CoAPMessageToken_set:0000000000000042 .L0 
C:\Users\stapi\AppData\Local\Temp\ccjQ9O0I.s:901    .text.CoAPMessageToken_set:0000000000000042 .L0 
C:\Users\stapi\AppData\Local\Temp\ccjQ9O0I.s:902    .text.CoAPMessageToken_set:0000000000000042 .L0 
C:\Users\stapi\AppData\Local\Temp\ccjQ9O0I.s:906    .text.CoAPMessageToken_set:0000000000000042 .L0 
C:\Users\stapi\AppData\Local\Temp\ccjQ9O0I.s:909    .text.CoAPMessageToken_set:0000000000000046 .L0 
C:\Users\stapi\AppData\Local\Temp\ccjQ9O0I.s:910    .text.CoAPMessageToken_set:0000000000000048 .L0 
C:\Users\stapi\AppData\Local\Temp\ccjQ9O0I.s:917    .text.CoAPMessageUserData_set:0000000000000000 CoAPMessageUserData_set
C:\Users\stapi\AppData\Local\Temp\ccjQ9O0I.s:920    .text.CoAPMessageUserData_set:0000000000000000 .L0 
C:\Users\stapi\AppData\Local\Temp\ccjQ9O0I.s:922    .text.CoAPMessageUserData_set:0000000000000000 .L0 
C:\Users\stapi\AppData\Local\Temp\ccjQ9O0I.s:923    .text.CoAPMessageUserData_set:0000000000000000 .L0 
C:\Users\stapi\AppData\Local\Temp\ccjQ9O0I.s:924    .text.CoAPMessageUserData_set:0000000000000000 .L0 
C:\Users\stapi\AppData\Local\Temp\ccjQ9O0I.s:926    .text.CoAPMessageUserData_set:0000000000000002 .L0 
C:\Users\stapi\AppData\Local\Temp\ccjQ9O0I.s:929    .text.CoAPMessageUserData_set:0000000000000006 .L0 
C:\Users\stapi\AppData\Local\Temp\ccjQ9O0I.s:931    .text.CoAPMessageUserData_set:0000000000000008 .L0 
C:\Users\stapi\AppData\Local\Temp\ccjQ9O0I.s:933    .text.CoAPMessageUserData_set:000000000000000a .L0 
C:\Users\stapi\AppData\Local\Temp\ccjQ9O0I.s:934    .text.CoAPMessageUserData_set:000000000000000a .L0 
C:\Users\stapi\AppData\Local\Temp\ccjQ9O0I.s:936    .text.CoAPMessageUserData_set:000000000000000c .L0 
C:\Users\stapi\AppData\Local\Temp\ccjQ9O0I.s:937    .text.CoAPMessageUserData_set:000000000000000c .L0 
C:\Users\stapi\AppData\Local\Temp\ccjQ9O0I.s:941    .text.CoAPMessageUserData_set:0000000000000010 .L0 
C:\Users\stapi\AppData\Local\Temp\ccjQ9O0I.s:942    .text.CoAPMessageUserData_set:0000000000000012 .L0 
C:\Users\stapi\AppData\Local\Temp\ccjQ9O0I.s:949    .text.CoAPMessageKeep_Set:0000000000000000 CoAPMessageKeep_Set
C:\Users\stapi\AppData\Local\Temp\ccjQ9O0I.s:952    .text.CoAPMessageKeep_Set:0000000000000000 .L0 
C:\Users\stapi\AppData\Local\Temp\ccjQ9O0I.s:954    .text.CoAPMessageKeep_Set:0000000000000000 .L0 
C:\Users\stapi\AppData\Local\Temp\ccjQ9O0I.s:955    .text.CoAPMessageKeep_Set:0000000000000000 .L0 
C:\Users\stapi\AppData\Local\Temp\ccjQ9O0I.s:956    .text.CoAPMessageKeep_Set:0000000000000000 .L0 
C:\Users\stapi\AppData\Local\Temp\ccjQ9O0I.s:958    .text.CoAPMessageKeep_Set:0000000000000002 .L0 
C:\Users\stapi\AppData\Local\Temp\ccjQ9O0I.s:961    .text.CoAPMessageKeep_Set:0000000000000006 .L0 
C:\Users\stapi\AppData\Local\Temp\ccjQ9O0I.s:963    .text.CoAPMessageKeep_Set:0000000000000008 .L0 
C:\Users\stapi\AppData\Local\Temp\ccjQ9O0I.s:965    .text.CoAPMessageKeep_Set:000000000000000c .L0 
C:\Users\stapi\AppData\Local\Temp\ccjQ9O0I.s:966    .text.CoAPMessageKeep_Set:000000000000000c .L0 
C:\Users\stapi\AppData\Local\Temp\ccjQ9O0I.s:968    .text.CoAPMessageKeep_Set:000000000000000e .L0 
C:\Users\stapi\AppData\Local\Temp\ccjQ9O0I.s:969    .text.CoAPMessageKeep_Set:000000000000000e .L0 
C:\Users\stapi\AppData\Local\Temp\ccjQ9O0I.s:973    .text.CoAPMessageKeep_Set:0000000000000012 .L0 
C:\Users\stapi\AppData\Local\Temp\ccjQ9O0I.s:974    .text.CoAPMessageKeep_Set:0000000000000014 .L0 
C:\Users\stapi\AppData\Local\Temp\ccjQ9O0I.s:981    .text.CoAPMessagePayload_set:0000000000000000 CoAPMessagePayload_set
C:\Users\stapi\AppData\Local\Temp\ccjQ9O0I.s:984    .text.CoAPMessagePayload_set:0000000000000000 .L0 
C:\Users\stapi\AppData\Local\Temp\ccjQ9O0I.s:986    .text.CoAPMessagePayload_set:0000000000000000 .L0 
C:\Users\stapi\AppData\Local\Temp\ccjQ9O0I.s:987    .text.CoAPMessagePayload_set:0000000000000000 .L0 
C:\Users\stapi\AppData\Local\Temp\ccjQ9O0I.s:988    .text.CoAPMessagePayload_set:0000000000000000 .L0 
C:\Users\stapi\AppData\Local\Temp\ccjQ9O0I.s:990    .text.CoAPMessagePayload_set:0000000000000002 .L0 
C:\Users\stapi\AppData\Local\Temp\ccjQ9O0I.s:992    .text.CoAPMessagePayload_set:0000000000000004 .L0 
C:\Users\stapi\AppData\Local\Temp\ccjQ9O0I.s:994    .text.CoAPMessagePayload_set:0000000000000006 .L0 
C:\Users\stapi\AppData\Local\Temp\ccjQ9O0I.s:997    .text.CoAPMessagePayload_set:000000000000000a .L0 
C:\Users\stapi\AppData\Local\Temp\ccjQ9O0I.s:1000   .text.CoAPMessagePayload_set:000000000000000c .L0 
C:\Users\stapi\AppData\Local\Temp\ccjQ9O0I.s:1001   .text.CoAPMessagePayload_set:000000000000000c .L0 
C:\Users\stapi\AppData\Local\Temp\ccjQ9O0I.s:1003   .text.CoAPMessagePayload_set:000000000000000e .L0 
C:\Users\stapi\AppData\Local\Temp\ccjQ9O0I.s:1004   .text.CoAPMessagePayload_set:000000000000000e .L0 
C:\Users\stapi\AppData\Local\Temp\ccjQ9O0I.s:1006   .text.CoAPMessagePayload_set:0000000000000012 .L0 
C:\Users\stapi\AppData\Local\Temp\ccjQ9O0I.s:1007   .text.CoAPMessagePayload_set:0000000000000012 .L0 
C:\Users\stapi\AppData\Local\Temp\ccjQ9O0I.s:1012   .text.CoAPMessagePayload_set:0000000000000016 .L0 
C:\Users\stapi\AppData\Local\Temp\ccjQ9O0I.s:1016   .text.CoAPMessagePayload_set:000000000000001a .L0 
C:\Users\stapi\AppData\Local\Temp\ccjQ9O0I.s:1017   .text.CoAPMessagePayload_set:000000000000001c .L0 
C:\Users\stapi\AppData\Local\Temp\ccjQ9O0I.s:1024   .text.CoAPMessageHandler_set:0000000000000000 CoAPMessageHandler_set
C:\Users\stapi\AppData\Local\Temp\ccjQ9O0I.s:1027   .text.CoAPMessageHandler_set:0000000000000000 .L0 
C:\Users\stapi\AppData\Local\Temp\ccjQ9O0I.s:1029   .text.CoAPMessageHandler_set:0000000000000000 .L0 
C:\Users\stapi\AppData\Local\Temp\ccjQ9O0I.s:1030   .text.CoAPMessageHandler_set:0000000000000000 .L0 
C:\Users\stapi\AppData\Local\Temp\ccjQ9O0I.s:1031   .text.CoAPMessageHandler_set:0000000000000000 .L0 
C:\Users\stapi\AppData\Local\Temp\ccjQ9O0I.s:1033   .text.CoAPMessageHandler_set:0000000000000002 .L0 
C:\Users\stapi\AppData\Local\Temp\ccjQ9O0I.s:1034   .text.CoAPMessageHandler_set:0000000000000002 .L0 
C:\Users\stapi\AppData\Local\Temp\ccjQ9O0I.s:1036   .text.CoAPMessageHandler_set:0000000000000004 .L0 
C:\Users\stapi\AppData\Local\Temp\ccjQ9O0I.s:1037   .text.CoAPMessageHandler_set:0000000000000004 .L0 
C:\Users\stapi\AppData\Local\Temp\ccjQ9O0I.s:1043   .text.CoAPMessageHandler_set:0000000000000008 .L0 
C:\Users\stapi\AppData\Local\Temp\ccjQ9O0I.s:1046   .text.CoAPMessageHandler_set:000000000000000c .L0 
C:\Users\stapi\AppData\Local\Temp\ccjQ9O0I.s:1047   .text.CoAPMessageHandler_set:000000000000000e .L0 
C:\Users\stapi\AppData\Local\Temp\ccjQ9O0I.s:1054   .text.CoAPMessage_init:0000000000000000 CoAPMessage_init
C:\Users\stapi\AppData\Local\Temp\ccjQ9O0I.s:1057   .text.CoAPMessage_init:0000000000000000 .L0 
C:\Users\stapi\AppData\Local\Temp\ccjQ9O0I.s:1059   .text.CoAPMessage_init:0000000000000000 .L0 
C:\Users\stapi\AppData\Local\Temp\ccjQ9O0I.s:1060   .text.CoAPMessage_init:0000000000000000 .L0 
C:\Users\stapi\AppData\Local\Temp\ccjQ9O0I.s:1061   .text.CoAPMessage_init:0000000000000000 .L0 
C:\Users\stapi\AppData\Local\Temp\ccjQ9O0I.s:1062   .text.CoAPMessage_init:0000000000000000 .L0 
C:\Users\stapi\AppData\Local\Temp\ccjQ9O0I.s:1064   .text.CoAPMessage_init:0000000000000002 .L0 
C:\Users\stapi\AppData\Local\Temp\ccjQ9O0I.s:1065   .text.CoAPMessage_init:000000000000000a .L0 
C:\Users\stapi\AppData\Local\Temp\ccjQ9O0I.s:1066   .text.CoAPMessage_init:000000000000000a .L0 
C:\Users\stapi\AppData\Local\Temp\ccjQ9O0I.s:1067   .text.CoAPMessage_init:000000000000000a .L0 
C:\Users\stapi\AppData\Local\Temp\ccjQ9O0I.s:1069   .text.CoAPMessage_init:000000000000000a .L0 
C:\Users\stapi\AppData\Local\Temp\ccjQ9O0I.s:1073   .text.CoAPMessage_init:0000000000000012 .L0 
C:\Users\stapi\AppData\Local\Temp\ccjQ9O0I.s:1076   .text.CoAPMessage_init:000000000000001a .L0 
C:\Users\stapi\AppData\Local\Temp\ccjQ9O0I.s:1077   .text.CoAPMessage_init:000000000000001a .L0 
C:\Users\stapi\AppData\Local\Temp\ccjQ9O0I.s:1078   .text.CoAPMessage_init:000000000000001a .L0 
C:\Users\stapi\AppData\Local\Temp\ccjQ9O0I.s:1080   .text.CoAPMessage_init:000000000000001e .L0 
C:\Users\stapi\AppData\Local\Temp\ccjQ9O0I.s:1082   .text.CoAPMessage_init:0000000000000020 .L0 
C:\Users\stapi\AppData\Local\Temp\ccjQ9O0I.s:1086   .text.CoAPMessage_init:000000000000002a .L0 
C:\Users\stapi\AppData\Local\Temp\ccjQ9O0I.s:1087   .text.CoAPMessage_init:000000000000002a .L0 
C:\Users\stapi\AppData\Local\Temp\ccjQ9O0I.s:1088   .text.CoAPMessage_init:000000000000002a .L0 
C:\Users\stapi\AppData\Local\Temp\ccjQ9O0I.s:1089   .text.CoAPMessage_init:000000000000002a .L0 
C:\Users\stapi\AppData\Local\Temp\ccjQ9O0I.s:1090   .text.CoAPMessage_init:0000000000000032 .L0 
C:\Users\stapi\AppData\Local\Temp\ccjQ9O0I.s:1091   .text.CoAPMessage_init:0000000000000032 .L0 
C:\Users\stapi\AppData\Local\Temp\ccjQ9O0I.s:1092   .text.CoAPMessage_init:0000000000000032 .L0 
C:\Users\stapi\AppData\Local\Temp\ccjQ9O0I.s:1096   .text.CoAPMessage_init:0000000000000032 .L0 
C:\Users\stapi\AppData\Local\Temp\ccjQ9O0I.s:1099   .text.CoAPMessage_init:0000000000000036 .L0 
C:\Users\stapi\AppData\Local\Temp\ccjQ9O0I.s:1100   .text.CoAPMessage_init:0000000000000038 .L0 
C:\Users\stapi\AppData\Local\Temp\ccjQ9O0I.s:1107   .text.CoAPMessage_destory:0000000000000000 CoAPMessage_destory
C:\Users\stapi\AppData\Local\Temp\ccjQ9O0I.s:1110   .text.CoAPMessage_destory:0000000000000000 .L0 
C:\Users\stapi\AppData\Local\Temp\ccjQ9O0I.s:1112   .text.CoAPMessage_destory:0000000000000000 .L0 
C:\Users\stapi\AppData\Local\Temp\ccjQ9O0I.s:1113   .text.CoAPMessage_destory:0000000000000000 .L0 
C:\Users\stapi\AppData\Local\Temp\ccjQ9O0I.s:1114   .text.CoAPMessage_destory:0000000000000000 .L0 
C:\Users\stapi\AppData\Local\Temp\ccjQ9O0I.s:1115   .text.CoAPMessage_destory:0000000000000000 .L0 
C:\Users\stapi\AppData\Local\Temp\ccjQ9O0I.s:1117   .text.CoAPMessage_destory:0000000000000002 .L0 
C:\Users\stapi\AppData\Local\Temp\ccjQ9O0I.s:1118   .text.CoAPMessage_destory:000000000000000a .L0 
C:\Users\stapi\AppData\Local\Temp\ccjQ9O0I.s:1119   .text.CoAPMessage_destory:000000000000000a .L0 
C:\Users\stapi\AppData\Local\Temp\ccjQ9O0I.s:1120   .text.CoAPMessage_destory:000000000000000a .L0 
C:\Users\stapi\AppData\Local\Temp\ccjQ9O0I.s:1121   .text.CoAPMessage_destory:000000000000000a .L0 
C:\Users\stapi\AppData\Local\Temp\ccjQ9O0I.s:1129   .text.CoAPMessage_destory:0000000000000012 .L0 
C:\Users\stapi\AppData\Local\Temp\ccjQ9O0I.s:1130   .text.CoAPMessage_destory:0000000000000012 .L0 
C:\Users\stapi\AppData\Local\Temp\ccjQ9O0I.s:1132   .text.CoAPMessage_destory:0000000000000014 .L0 
C:\Users\stapi\AppData\Local\Temp\ccjQ9O0I.s:1134   .text.CoAPMessage_destory:0000000000000016 .L0 
C:\Users\stapi\AppData\Local\Temp\ccjQ9O0I.s:1137   .text.CoAPMessage_destory:000000000000001e .L0 
C:\Users\stapi\AppData\Local\Temp\ccjQ9O0I.s:1138   .text.CoAPMessage_destory:000000000000001e .L0 
C:\Users\stapi\AppData\Local\Temp\ccjQ9O0I.s:1141   .text.CoAPMessage_destory:0000000000000022 .L0 
C:\Users\stapi\AppData\Local\Temp\ccjQ9O0I.s:1142   .text.CoAPMessage_destory:0000000000000022 .L0 
C:\Users\stapi\AppData\Local\Temp\ccjQ9O0I.s:1143   .text.CoAPMessage_destory:0000000000000022 .L0 
C:\Users\stapi\AppData\Local\Temp\ccjQ9O0I.s:1149   .text.CoAPMessage_destory:000000000000002a .L0 
C:\Users\stapi\AppData\Local\Temp\ccjQ9O0I.s:1150   .text.CoAPMessage_destory:0000000000000032 .L0 
C:\Users\stapi\AppData\Local\Temp\ccjQ9O0I.s:1151   .text.CoAPMessage_destory:0000000000000032 .L0 
C:\Users\stapi\AppData\Local\Temp\ccjQ9O0I.s:1152   .text.CoAPMessage_destory:0000000000000032 .L0 
C:\Users\stapi\AppData\Local\Temp\ccjQ9O0I.s:1153   .text.CoAPMessage_destory:0000000000000032 .L0 
C:\Users\stapi\AppData\Local\Temp\ccjQ9O0I.s:1157   .text.CoAPMessage_destory:0000000000000032 .L0 
C:\Users\stapi\AppData\Local\Temp\ccjQ9O0I.s:1160   .text.CoAPMessage_destory:0000000000000036 .L0 
C:\Users\stapi\AppData\Local\Temp\ccjQ9O0I.s:1161   .text.CoAPMessage_destory:0000000000000038 .L0 
C:\Users\stapi\AppData\Local\Temp\ccjQ9O0I.s:1175   .text.CoAPMessageCheckDup:0000000000000000 CoAPMessageCheckDup
C:\Users\stapi\AppData\Local\Temp\ccjQ9O0I.s:1178   .text.CoAPMessageCheckDup:0000000000000000 .L0 
C:\Users\stapi\AppData\Local\Temp\ccjQ9O0I.s:1180   .text.CoAPMessageCheckDup:0000000000000000 .L0 
C:\Users\stapi\AppData\Local\Temp\ccjQ9O0I.s:1181   .text.CoAPMessageCheckDup:0000000000000000 .L0 
C:\Users\stapi\AppData\Local\Temp\ccjQ9O0I.s:1182   .text.CoAPMessageCheckDup:0000000000000000 .L0 
C:\Users\stapi\AppData\Local\Temp\ccjQ9O0I.s:1183   .text.CoAPMessageCheckDup:0000000000000000 .L0 
C:\Users\stapi\AppData\Local\Temp\ccjQ9O0I.s:1184   .text.CoAPMessageCheckDup:0000000000000000 .L0 
C:\Users\stapi\AppData\Local\Temp\ccjQ9O0I.s:1186   .text.CoAPMessageCheckDup:0000000000000002 .L0 
C:\Users\stapi\AppData\Local\Temp\ccjQ9O0I.s:1187   .text.CoAPMessageCheckDup:000000000000000a .L0 
C:\Users\stapi\AppData\Local\Temp\ccjQ9O0I.s:1188   .text.CoAPMessageCheckDup:000000000000000a .L0 
C:\Users\stapi\AppData\Local\Temp\ccjQ9O0I.s:1189   .text.CoAPMessageCheckDup:000000000000000a .L0 
C:\Users\stapi\AppData\Local\Temp\ccjQ9O0I.s:1190   .text.CoAPMessageCheckDup:000000000000000a .L0 
C:\Users\stapi\AppData\Local\Temp\ccjQ9O0I.s:1191   .text.CoAPMessageCheckDup:000000000000000a .L0 
C:\Users\stapi\AppData\Local\Temp\ccjQ9O0I.s:1192   .text.CoAPMessageCheckDup:000000000000000a .L0 
C:\Users\stapi\AppData\Local\Temp\ccjQ9O0I.s:1195   .text.CoAPMessageCheckDup:000000000000000e .L0 
C:\Users\stapi\AppData\Local\Temp\ccjQ9O0I.s:1198   .text.CoAPMessageCheckDup:0000000000000010 .L0 
C:\Users\stapi\AppData\Local\Temp\ccjQ9O0I.s:1201   .text.CoAPMessageCheckDup:0000000000000012 .L0 
C:\Users\stapi\AppData\Local\Temp\ccjQ9O0I.s:1203   .text.CoAPMessageCheckDup:0000000000000014 .L0 
C:\Users\stapi\AppData\Local\Temp\ccjQ9O0I.s:1204   .text.CoAPMessageCheckDup:0000000000000014 .L0 
C:\Users\stapi\AppData\Local\Temp\ccjQ9O0I.s:1207   .text.CoAPMessageCheckDup:000000000000001c .L0 
C:\Users\stapi\AppData\Local\Temp\ccjQ9O0I.s:1215   .text.CoAPMessageCheckDup:000000000000002e .L0 
C:\Users\stapi\AppData\Local\Temp\ccjQ9O0I.s:1219   .text.CoAPMessageCheckDup:0000000000000032 .L0 
C:\Users\stapi\AppData\Local\Temp\ccjQ9O0I.s:1220   .text.CoAPMessageCheckDup:0000000000000032 .L0 
C:\Users\stapi\AppData\Local\Temp\ccjQ9O0I.s:1225   .text.CoAPMessageCheckDup:000000000000003e .L0 
C:\Users\stapi\AppData\Local\Temp\ccjQ9O0I.s:1232   .text.CoAPMessageCheckDup:000000000000004e .L0 
C:\Users\stapi\AppData\Local\Temp\ccjQ9O0I.s:1233   .text.CoAPMessageCheckDup:000000000000004e .L0 
C:\Users\stapi\AppData\Local\Temp\ccjQ9O0I.s:1237   .text.CoAPMessageCheckDup:0000000000000054 .L0 
C:\Users\stapi\AppData\Local\Temp\ccjQ9O0I.s:1245   .text.CoAPMessageCheckDup:0000000000000066 .L0 
C:\Users\stapi\AppData\Local\Temp\ccjQ9O0I.s:1246   .text.CoAPMessageCheckDup:0000000000000066 .L0 
C:\Users\stapi\AppData\Local\Temp\ccjQ9O0I.s:1251   .text.CoAPMessageCheckDup:000000000000006c .L0 
C:\Users\stapi\AppData\Local\Temp\ccjQ9O0I.s:1252   .text.CoAPMessageCheckDup:000000000000006c .L0 
C:\Users\stapi\AppData\Local\Temp\ccjQ9O0I.s:1258   .text.CoAPMessageCheckDup:000000000000007a .L0 
C:\Users\stapi\AppData\Local\Temp\ccjQ9O0I.s:1260   .text.CoAPMessageCheckDup:000000000000007c .L0 
C:\Users\stapi\AppData\Local\Temp\ccjQ9O0I.s:1271   .text.CoAPMessageCheckDup:00000000000000a2 .L0 
C:\Users\stapi\AppData\Local\Temp\ccjQ9O0I.s:1272   .text.CoAPMessageCheckDup:00000000000000a2 .L0 
C:\Users\stapi\AppData\Local\Temp\ccjQ9O0I.s:1275   .text.CoAPMessageCheckDup:00000000000000a4 .L0 
C:\Users\stapi\AppData\Local\Temp\ccjQ9O0I.s:1276   .text.CoAPMessageCheckDup:00000000000000a6 .L0 
C:\Users\stapi\AppData\Local\Temp\ccjQ9O0I.s:1277   .text.CoAPMessageCheckDup:00000000000000a6 .L0 
C:\Users\stapi\AppData\Local\Temp\ccjQ9O0I.s:1279   .text.CoAPMessageCheckDup:00000000000000ae .L0 
C:\Users\stapi\AppData\Local\Temp\ccjQ9O0I.s:1280   .text.CoAPMessageCheckDup:00000000000000ae .L0 
C:\Users\stapi\AppData\Local\Temp\ccjQ9O0I.s:1281   .text.CoAPMessageCheckDup:00000000000000ae .L0 
C:\Users\stapi\AppData\Local\Temp\ccjQ9O0I.s:1282   .text.CoAPMessageCheckDup:00000000000000ae .L0 
C:\Users\stapi\AppData\Local\Temp\ccjQ9O0I.s:1283   .text.CoAPMessageCheckDup:00000000000000ae .L0 
C:\Users\stapi\AppData\Local\Temp\ccjQ9O0I.s:1284   .text.CoAPMessageCheckDup:00000000000000ae .L0 
C:\Users\stapi\AppData\Local\Temp\ccjQ9O0I.s:1286   .text.CoAPMessageCheckDup:00000000000000ae .L0 
C:\Users\stapi\AppData\Local\Temp\ccjQ9O0I.s:1288   .text.CoAPMessageCheckDup:00000000000000ae .L0 
C:\Users\stapi\AppData\Local\Temp\ccjQ9O0I.s:1289   .text.CoAPMessageCheckDup:00000000000000ae .L0 
C:\Users\stapi\AppData\Local\Temp\ccjQ9O0I.s:1290   .text.CoAPMessageCheckDup:00000000000000ae .L0 
C:\Users\stapi\AppData\Local\Temp\ccjQ9O0I.s:1293   .text.CoAPMessageCheckDup:00000000000000b4 .L0 
C:\Users\stapi\AppData\Local\Temp\ccjQ9O0I.s:1294   .text.CoAPMessageCheckDup:00000000000000b4 .L0 
C:\Users\stapi\AppData\Local\Temp\ccjQ9O0I.s:1296   .text.CoAPMessageCheckDup:00000000000000b6 .L0 
C:\Users\stapi\AppData\Local\Temp\ccjQ9O0I.s:1302   .text.CoAPMessageCheckDup:00000000000000c6 .L0 
C:\Users\stapi\AppData\Local\Temp\ccjQ9O0I.s:1303   .text.CoAPMessageCheckDup:00000000000000c6 .L0 
C:\Users\stapi\AppData\Local\Temp\ccjQ9O0I.s:1305   .text.CoAPMessageCheckDup:00000000000000c8 .L0 
C:\Users\stapi\AppData\Local\Temp\ccjQ9O0I.s:1307   .text.CoAPMessageCheckDup:00000000000000ca .L0 
C:\Users\stapi\AppData\Local\Temp\ccjQ9O0I.s:1309   .text.CoAPMessageCheckDup:00000000000000cc .L0 
C:\Users\stapi\AppData\Local\Temp\ccjQ9O0I.s:1311   .text.CoAPMessageCheckDup:00000000000000ce .L0 
C:\Users\stapi\AppData\Local\Temp\ccjQ9O0I.s:1313   .text.CoAPMessageCheckDup:00000000000000d2 .L0 
C:\Users\stapi\AppData\Local\Temp\ccjQ9O0I.s:1315   .text.CoAPMessageCheckDup:00000000000000d4 .L0 
C:\Users\stapi\AppData\Local\Temp\ccjQ9O0I.s:1316   .text.CoAPMessageCheckDup:00000000000000d4 .L0 
C:\Users\stapi\AppData\Local\Temp\ccjQ9O0I.s:1319   .text.CoAPMessageCheckDup:00000000000000d6 .L0 
C:\Users\stapi\AppData\Local\Temp\ccjQ9O0I.s:1320   .text.CoAPMessageCheckDup:00000000000000d6 .L0 
C:\Users\stapi\AppData\Local\Temp\ccjQ9O0I.s:1321   .text.CoAPMessageCheckDup:00000000000000d6 .L0 
C:\Users\stapi\AppData\Local\Temp\ccjQ9O0I.s:1322   .text.CoAPMessageCheckDup:00000000000000d6 .L0 
C:\Users\stapi\AppData\Local\Temp\ccjQ9O0I.s:1323   .text.CoAPMessageCheckDup:00000000000000d6 .L0 
C:\Users\stapi\AppData\Local\Temp\ccjQ9O0I.s:1324   .text.CoAPMessageCheckDup:00000000000000d6 .L0 
C:\Users\stapi\AppData\Local\Temp\ccjQ9O0I.s:1326   .text.CoAPMessageCheckDup:00000000000000d6 .L0 
C:\Users\stapi\AppData\Local\Temp\ccjQ9O0I.s:1329   .text.CoAPMessageCheckDup:00000000000000d8 .L0 
C:\Users\stapi\AppData\Local\Temp\ccjQ9O0I.s:1330   .text.CoAPMessageCheckDup:00000000000000da .L0 
C:\Users\stapi\AppData\Local\Temp\ccjQ9O0I.s:1347   .text.CoAPMessageToken_dump:0000000000000000 CoAPMessageToken_dump
C:\Users\stapi\AppData\Local\Temp\ccjQ9O0I.s:1350   .text.CoAPMessageToken_dump:0000000000000000 .L0 
C:\Users\stapi\AppData\Local\Temp\ccjQ9O0I.s:1352   .text.CoAPMessageToken_dump:0000000000000000 .L0 
C:\Users\stapi\AppData\Local\Temp\ccjQ9O0I.s:1353   .text.CoAPMessageToken_dump:0000000000000008 .L0 
C:\Users\stapi\AppData\Local\Temp\ccjQ9O0I.s:1354   .text.CoAPMessageToken_dump:0000000000000008 .L0 
C:\Users\stapi\AppData\Local\Temp\ccjQ9O0I.s:1355   .text.CoAPMessageToken_dump:0000000000000008 .L0 
C:\Users\stapi\AppData\Local\Temp\ccjQ9O0I.s:1356   .text.CoAPMessageToken_dump:0000000000000008 .L0 
C:\Users\stapi\AppData\Local\Temp\ccjQ9O0I.s:1357   .text.CoAPMessageToken_dump:0000000000000008 .L0 
C:\Users\stapi\AppData\Local\Temp\ccjQ9O0I.s:1358   .text.CoAPMessageToken_dump:0000000000000008 .L0 
C:\Users\stapi\AppData\Local\Temp\ccjQ9O0I.s:1359   .text.CoAPMessageToken_dump:0000000000000008 .L0 
C:\Users\stapi\AppData\Local\Temp\ccjQ9O0I.s:1360   .text.CoAPMessageToken_dump:0000000000000008 .L0 
C:\Users\stapi\AppData\Local\Temp\ccjQ9O0I.s:1363   .text.CoAPMessageToken_dump:0000000000000008 .L0 
C:\Users\stapi\AppData\Local\Temp\ccjQ9O0I.s:1364   .text.CoAPMessageToken_dump:0000000000000008 .L0 
C:\Users\stapi\AppData\Local\Temp\ccjQ9O0I.s:1365   .text.CoAPMessageToken_dump:0000000000000008 .L0 
C:\Users\stapi\AppData\Local\Temp\ccjQ9O0I.s:1366   .text.CoAPMessageToken_dump:0000000000000008 .L0 
C:\Users\stapi\AppData\Local\Temp\ccjQ9O0I.s:1367   .text.CoAPMessageToken_dump:000000000000000a .L0 
C:\Users\stapi\AppData\Local\Temp\ccjQ9O0I.s:1369   .text.CoAPMessageToken_dump:000000000000000a .L0 
C:\Users\stapi\AppData\Local\Temp\ccjQ9O0I.s:1371   .text.CoAPMessageToken_dump:000000000000000c .L0 
C:\Users\stapi\AppData\Local\Temp\ccjQ9O0I.s:1374   .text.CoAPMessageToken_dump:0000000000000010 .L0 
C:\Users\stapi\AppData\Local\Temp\ccjQ9O0I.s:1381   .text.CoAPMessageToken_dump:000000000000001c .L0 
C:\Users\stapi\AppData\Local\Temp\ccjQ9O0I.s:1382   .text.CoAPMessageToken_dump:000000000000001c .L0 
C:\Users\stapi\AppData\Local\Temp\ccjQ9O0I.s:1383   .text.CoAPMessageToken_dump:000000000000001c .L0 
C:\Users\stapi\AppData\Local\Temp\ccjQ9O0I.s:1385   .text.CoAPMessageToken_dump:000000000000001e .L0 
C:\Users\stapi\AppData\Local\Temp\ccjQ9O0I.s:1388   .text.CoAPMessageToken_dump:0000000000000022 .L0 
C:\Users\stapi\AppData\Local\Temp\ccjQ9O0I.s:1392   .text.CoAPMessageToken_dump:0000000000000026 .L0 
C:\Users\stapi\AppData\Local\Temp\ccjQ9O0I.s:1393   .text.CoAPMessageToken_dump:0000000000000026 .L0 
C:\Users\stapi\AppData\Local\Temp\ccjQ9O0I.s:1395   .text.CoAPMessageToken_dump:000000000000002a .L0 
C:\Users\stapi\AppData\Local\Temp\ccjQ9O0I.s:1408   .text.CoAPMessageToken_dump:0000000000000050 .L0 
C:\Users\stapi\AppData\Local\Temp\ccjQ9O0I.s:1418   .text.CoAPMessageToken_dump:0000000000000070 .L0 
C:\Users\stapi\AppData\Local\Temp\ccjQ9O0I.s:1419   .text.CoAPMessageToken_dump:0000000000000072 .L0 
C:\Users\stapi\AppData\Local\Temp\ccjQ9O0I.s:1420   .text.CoAPMessageToken_dump:0000000000000072 .L0 
C:\Users\stapi\AppData\Local\Temp\ccjQ9O0I.s:1422   .text.CoAPMessageToken_dump:000000000000007a .L0 
C:\Users\stapi\AppData\Local\Temp\ccjQ9O0I.s:1423   .text.CoAPMessageToken_dump:000000000000007a .L0 
C:\Users\stapi\AppData\Local\Temp\ccjQ9O0I.s:1424   .text.CoAPMessageToken_dump:000000000000007a .L0 
C:\Users\stapi\AppData\Local\Temp\ccjQ9O0I.s:1425   .text.CoAPMessageToken_dump:000000000000007a .L0 
C:\Users\stapi\AppData\Local\Temp\ccjQ9O0I.s:1426   .text.CoAPMessageToken_dump:000000000000007a .L0 
C:\Users\stapi\AppData\Local\Temp\ccjQ9O0I.s:1427   .text.CoAPMessageToken_dump:000000000000007a .L0 
C:\Users\stapi\AppData\Local\Temp\ccjQ9O0I.s:1428   .text.CoAPMessageToken_dump:000000000000007a .L0 
C:\Users\stapi\AppData\Local\Temp\ccjQ9O0I.s:1429   .text.CoAPMessageToken_dump:000000000000007a .L0 
C:\Users\stapi\AppData\Local\Temp\ccjQ9O0I.s:1432   .text.CoAPMessageToken_dump:000000000000007a .L0 
C:\Users\stapi\AppData\Local\Temp\ccjQ9O0I.s:1434   .text.CoAPMessageToken_dump:000000000000007a .L0 
C:\Users\stapi\AppData\Local\Temp\ccjQ9O0I.s:1436   .text.CoAPMessageToken_dump:000000000000007e .L0 
C:\Users\stapi\AppData\Local\Temp\ccjQ9O0I.s:1442   .text.CoAPMessageToken_dump:000000000000008c .L0 
C:\Users\stapi\AppData\Local\Temp\ccjQ9O0I.s:1443   .text.CoAPMessageToken_dump:000000000000008c .L0 
C:\Users\stapi\AppData\Local\Temp\ccjQ9O0I.s:1446   .text.CoAPMessageToken_dump:0000000000000094 .L0 
C:\Users\stapi\AppData\Local\Temp\ccjQ9O0I.s:1447   .text.CoAPMessageToken_dump:0000000000000094 .L0 
C:\Users\stapi\AppData\Local\Temp\ccjQ9O0I.s:1449   .text.CoAPMessageToken_dump:0000000000000096 .L0 
C:\Users\stapi\AppData\Local\Temp\ccjQ9O0I.s:1452   .text.CoAPMessageToken_dump:0000000000000098 .L0 
C:\Users\stapi\AppData\Local\Temp\ccjQ9O0I.s:1453   .text.CoAPMessageToken_dump:0000000000000098 .L0 
C:\Users\stapi\AppData\Local\Temp\ccjQ9O0I.s:1456   .text.CoAPMessageToken_dump:000000000000009c .L0 
C:\Users\stapi\AppData\Local\Temp\ccjQ9O0I.s:1457   .text.CoAPMessageToken_dump:000000000000009c .L0 
C:\Users\stapi\AppData\Local\Temp\ccjQ9O0I.s:1460   .text.CoAPMessageToken_dump:00000000000000a0 .L0 
C:\Users\stapi\AppData\Local\Temp\ccjQ9O0I.s:1467   .text.CoAPMessage_dump:0000000000000000 CoAPMessage_dump
C:\Users\stapi\AppData\Local\Temp\ccjQ9O0I.s:1470   .text.CoAPMessage_dump:0000000000000000 .L0 
C:\Users\stapi\AppData\Local\Temp\ccjQ9O0I.s:1472   .text.CoAPMessage_dump:0000000000000000 .L0 
C:\Users\stapi\AppData\Local\Temp\ccjQ9O0I.s:1473   .text.CoAPMessage_dump:0000000000000000 .L0 
C:\Users\stapi\AppData\Local\Temp\ccjQ9O0I.s:1474   .text.CoAPMessage_dump:0000000000000000 .L0 
C:\Users\stapi\AppData\Local\Temp\ccjQ9O0I.s:1475   .text.CoAPMessage_dump:0000000000000000 .L0 
C:\Users\stapi\AppData\Local\Temp\ccjQ9O0I.s:1476   .text.CoAPMessage_dump:0000000000000000 .L0 
C:\Users\stapi\AppData\Local\Temp\ccjQ9O0I.s:1477   .text.CoAPMessage_dump:0000000000000000 .L0 
C:\Users\stapi\AppData\Local\Temp\ccjQ9O0I.s:1481   .text.CoAPMessage_dump:0000000000000004 .L0 
C:\Users\stapi\AppData\Local\Temp\ccjQ9O0I.s:1483   .text.CoAPMessage_dump:0000000000000006 .L0 
C:\Users\stapi\AppData\Local\Temp\ccjQ9O0I.s:1484   .text.CoAPMessage_dump:000000000000000e .L0 
C:\Users\stapi\AppData\Local\Temp\ccjQ9O0I.s:1485   .text.CoAPMessage_dump:000000000000000e .L0 
C:\Users\stapi\AppData\Local\Temp\ccjQ9O0I.s:1490   .text.CoAPMessage_dump:000000000000000e .L0 
C:\Users\stapi\AppData\Local\Temp\ccjQ9O0I.s:1491   .text.CoAPMessage_dump:000000000000000e .L0 
C:\Users\stapi\AppData\Local\Temp\ccjQ9O0I.s:1492   .text.CoAPMessage_dump:000000000000000e .L0 
C:\Users\stapi\AppData\Local\Temp\ccjQ9O0I.s:1493   .text.CoAPMessage_dump:000000000000000e .L0 
C:\Users\stapi\AppData\Local\Temp\ccjQ9O0I.s:1494   .text.CoAPMessage_dump:000000000000000e .L0 
C:\Users\stapi\AppData\Local\Temp\ccjQ9O0I.s:1497   .text.CoAPMessage_dump:000000000000000e .L0 
C:\Users\stapi\AppData\Local\Temp\ccjQ9O0I.s:1498   .text.CoAPMessage_dump:000000000000000e .L0 
C:\Users\stapi\AppData\Local\Temp\ccjQ9O0I.s:1499   .text.CoAPMessage_dump:0000000000000010 .L0 
C:\Users\stapi\AppData\Local\Temp\ccjQ9O0I.s:1503   .text.CoAPMessage_dump:0000000000000010 .L0 
C:\Users\stapi\AppData\Local\Temp\ccjQ9O0I.s:1509   .text.CoAPMessage_dump:000000000000001c .L0 
C:\Users\stapi\AppData\Local\Temp\ccjQ9O0I.s:1512   .text.CoAPMessage_dump:000000000000001c .L0 
C:\Users\stapi\AppData\Local\Temp\ccjQ9O0I.s:1513   .text.CoAPMessage_dump:000000000000001c .L0 
C:\Users\stapi\AppData\Local\Temp\ccjQ9O0I.s:1514   .text.CoAPMessage_dump:000000000000001e .L0 
C:\Users\stapi\AppData\Local\Temp\ccjQ9O0I.s:1516   .text.CoAPMessage_dump:0000000000000026 .L0 
C:\Users\stapi\AppData\Local\Temp\ccjQ9O0I.s:1517   .text.CoAPMessage_dump:0000000000000026 .L0 
C:\Users\stapi\AppData\Local\Temp\ccjQ9O0I.s:1520   .text.CoAPMessage_dump:0000000000000026 .L0 
C:\Users\stapi\AppData\Local\Temp\ccjQ9O0I.s:1522   .text.CoAPMessage_dump:0000000000000028 .L0 
C:\Users\stapi\AppData\Local\Temp\ccjQ9O0I.s:1569   .text.CoAPMessage_send:0000000000000000 CoAPMessage_send
C:\Users\stapi\AppData\Local\Temp\ccjQ9O0I.s:1572   .text.CoAPMessage_send:0000000000000000 .L0 
C:\Users\stapi\AppData\Local\Temp\ccjQ9O0I.s:1574   .text.CoAPMessage_send:0000000000000000 .L0 
C:\Users\stapi\AppData\Local\Temp\ccjQ9O0I.s:1575   .text.CoAPMessage_send:0000000000000008 .L0 
C:\Users\stapi\AppData\Local\Temp\ccjQ9O0I.s:1576   .text.CoAPMessage_send:0000000000000008 .L0 
C:\Users\stapi\AppData\Local\Temp\ccjQ9O0I.s:1577   .text.CoAPMessage_send:0000000000000008 .L0 
C:\Users\stapi\AppData\Local\Temp\ccjQ9O0I.s:1578   .text.CoAPMessage_send:0000000000000008 .L0 
C:\Users\stapi\AppData\Local\Temp\ccjQ9O0I.s:1579   .text.CoAPMessage_send:0000000000000008 .L0 
C:\Users\stapi\AppData\Local\Temp\ccjQ9O0I.s:1580   .text.CoAPMessage_send:0000000000000008 .L0 
C:\Users\stapi\AppData\Local\Temp\ccjQ9O0I.s:1581   .text.CoAPMessage_send:0000000000000008 .L0 
C:\Users\stapi\AppData\Local\Temp\ccjQ9O0I.s:1582   .text.CoAPMessage_send:0000000000000008 .L0 
C:\Users\stapi\AppData\Local\Temp\ccjQ9O0I.s:1583   .text.CoAPMessage_send:0000000000000008 .L0 
C:\Users\stapi\AppData\Local\Temp\ccjQ9O0I.s:1584   .text.CoAPMessage_send:0000000000000008 .L0 
C:\Users\stapi\AppData\Local\Temp\ccjQ9O0I.s:1585   .text.CoAPMessage_send:0000000000000008 .L0 
C:\Users\stapi\AppData\Local\Temp\ccjQ9O0I.s:1586   .text.CoAPMessage_send:0000000000000008 .L0 
C:\Users\stapi\AppData\Local\Temp\ccjQ9O0I.s:1589   .text.CoAPMessage_send:0000000000000008 .L0 
C:\Users\stapi\AppData\Local\Temp\ccjQ9O0I.s:1590   .text.CoAPMessage_send:0000000000000008 .L0 
C:\Users\stapi\AppData\Local\Temp\ccjQ9O0I.s:1591   .text.CoAPMessage_send:0000000000000008 .L0 
C:\Users\stapi\AppData\Local\Temp\ccjQ9O0I.s:1592   .text.CoAPMessage_send:0000000000000008 .L0 
C:\Users\stapi\AppData\Local\Temp\ccjQ9O0I.s:1593   .text.CoAPMessage_send:0000000000000008 .L0 
C:\Users\stapi\AppData\Local\Temp\ccjQ9O0I.s:1594   .text.CoAPMessage_send:0000000000000008 .L0 
C:\Users\stapi\AppData\Local\Temp\ccjQ9O0I.s:1595   .text.CoAPMessage_send:0000000000000008 .L0 
C:\Users\stapi\AppData\Local\Temp\ccjQ9O0I.s:1596   .text.CoAPMessage_send:000000000000000a .L0 
C:\Users\stapi\AppData\Local\Temp\ccjQ9O0I.s:1598   .text.CoAPMessage_send:000000000000000a .L0 
C:\Users\stapi\AppData\Local\Temp\ccjQ9O0I.s:1600   .text.CoAPMessage_send:000000000000000e .L0 
C:\Users\stapi\AppData\Local\Temp\ccjQ9O0I.s:1603   .text.CoAPMessage_send:0000000000000012 .L0 
C:\Users\stapi\AppData\Local\Temp\ccjQ9O0I.s:1605   .text.CoAPMessage_send:0000000000000016 .L0 
C:\Users\stapi\AppData\Local\Temp\ccjQ9O0I.s:1607   .text.CoAPMessage_send:0000000000000018 .L0 
C:\Users\stapi\AppData\Local\Temp\ccjQ9O0I.s:1612   .text.CoAPMessage_send:000000000000001c .L0 
C:\Users\stapi\AppData\Local\Temp\ccjQ9O0I.s:1613   .text.CoAPMessage_send:000000000000001c .L0 
C:\Users\stapi\AppData\Local\Temp\ccjQ9O0I.s:1617   .text.CoAPMessage_send:0000000000000026 .L0 
C:\Users\stapi\AppData\Local\Temp\ccjQ9O0I.s:1618   .text.CoAPMessage_send:0000000000000026 .L0 
C:\Users\stapi\AppData\Local\Temp\ccjQ9O0I.s:1622   .text.CoAPMessage_send:0000000000000030 .L0 
C:\Users\stapi\AppData\Local\Temp\ccjQ9O0I.s:1624   .text.CoAPMessage_send:0000000000000034 .L0 
C:\Users\stapi\AppData\Local\Temp\ccjQ9O0I.s:1627   .text.CoAPMessage_send:0000000000000036 .L0 
C:\Users\stapi\AppData\Local\Temp\ccjQ9O0I.s:1628   .text.CoAPMessage_send:0000000000000036 .L0 
C:\Users\stapi\AppData\Local\Temp\ccjQ9O0I.s:1630   .text.CoAPMessage_send:000000000000003a .L0 
C:\Users\stapi\AppData\Local\Temp\ccjQ9O0I.s:1631   .text.CoAPMessage_send:000000000000003a .L0 
C:\Users\stapi\AppData\Local\Temp\ccjQ9O0I.s:1637   .text.CoAPMessage_send:000000000000004a .L0 
C:\Users\stapi\AppData\Local\Temp\ccjQ9O0I.s:1643   .text.CoAPMessage_send:000000000000005c .L0 
C:\Users\stapi\AppData\Local\Temp\ccjQ9O0I.s:1648   .text.CoAPMessage_send:000000000000006c .L0 
C:\Users\stapi\AppData\Local\Temp\ccjQ9O0I.s:1649   .text.CoAPMessage_send:000000000000006c .L0 
C:\Users\stapi\AppData\Local\Temp\ccjQ9O0I.s:1650   .text.CoAPMessage_send:000000000000006c .L0 
C:\Users\stapi\AppData\Local\Temp\ccjQ9O0I.s:1654   .text.CoAPMessage_send:0000000000000070 .L0 
C:\Users\stapi\AppData\Local\Temp\ccjQ9O0I.s:1656   .text.CoAPMessage_send:0000000000000074 .L0 
C:\Users\stapi\AppData\Local\Temp\ccjQ9O0I.s:1657   .text.CoAPMessage_send:0000000000000074 .L0 
C:\Users\stapi\AppData\Local\Temp\ccjQ9O0I.s:1659   .text.CoAPMessage_send:000000000000007c .L0 
C:\Users\stapi\AppData\Local\Temp\ccjQ9O0I.s:1660   .text.CoAPMessage_send:000000000000007c .L0 
C:\Users\stapi\AppData\Local\Temp\ccjQ9O0I.s:1661   .text.CoAPMessage_send:000000000000007c .L0 
C:\Users\stapi\AppData\Local\Temp\ccjQ9O0I.s:1662   .text.CoAPMessage_send:000000000000007c .L0 
C:\Users\stapi\AppData\Local\Temp\ccjQ9O0I.s:1663   .text.CoAPMessage_send:000000000000007c .L0 
C:\Users\stapi\AppData\Local\Temp\ccjQ9O0I.s:1664   .text.CoAPMessage_send:000000000000007c .L0 
C:\Users\stapi\AppData\Local\Temp\ccjQ9O0I.s:1665   .text.CoAPMessage_send:000000000000007c .L0 
C:\Users\stapi\AppData\Local\Temp\ccjQ9O0I.s:1666   .text.CoAPMessage_send:000000000000007c .L0 
C:\Users\stapi\AppData\Local\Temp\ccjQ9O0I.s:1667   .text.CoAPMessage_send:000000000000007c .L0 
C:\Users\stapi\AppData\Local\Temp\ccjQ9O0I.s:1668   .text.CoAPMessage_send:000000000000007c .L0 
C:\Users\stapi\AppData\Local\Temp\ccjQ9O0I.s:1669   .text.CoAPMessage_send:000000000000007c .L0 
C:\Users\stapi\AppData\Local\Temp\ccjQ9O0I.s:1670   .text.CoAPMessage_send:000000000000007c .L0 
C:\Users\stapi\AppData\Local\Temp\ccjQ9O0I.s:1673   .text.CoAPMessage_send:000000000000007c .L0 
C:\Users\stapi\AppData\Local\Temp\ccjQ9O0I.s:1675   .text.CoAPMessage_send:000000000000007c .L0 
C:\Users\stapi\AppData\Local\Temp\ccjQ9O0I.s:1676   .text.CoAPMessage_send:000000000000007c .L0 
C:\Users\stapi\AppData\Local\Temp\ccjQ9O0I.s:1685   .text.CoAPMessage_send:000000000000008c .L0 
C:\Users\stapi\AppData\Local\Temp\ccjQ9O0I.s:1686   .text.CoAPMessage_send:000000000000008c .L0 
C:\Users\stapi\AppData\Local\Temp\ccjQ9O0I.s:1688   .text.CoAPMessage_send:000000000000008e .L0 
C:\Users\stapi\AppData\Local\Temp\ccjQ9O0I.s:1689   .text.CoAPMessage_send:000000000000008e .L0 
C:\Users\stapi\AppData\Local\Temp\ccjQ9O0I.s:1695   .text.CoAPMessage_send:000000000000009e .L0 
C:\Users\stapi\AppData\Local\Temp\ccjQ9O0I.s:1700   .text.CoAPMessage_send:00000000000000ae .L0 
C:\Users\stapi\AppData\Local\Temp\ccjQ9O0I.s:1705   .text.CoAPMessage_send:00000000000000be .L0 
C:\Users\stapi\AppData\Local\Temp\ccjQ9O0I.s:1706   .text.CoAPMessage_send:00000000000000be .L0 
C:\Users\stapi\AppData\Local\Temp\ccjQ9O0I.s:1707   .text.CoAPMessage_send:00000000000000be .L0 
C:\Users\stapi\AppData\Local\Temp\ccjQ9O0I.s:1712   .text.CoAPMessage_send:00000000000000c4 .L0 
C:\Users\stapi\AppData\Local\Temp\ccjQ9O0I.s:1717   .text.CoAPMessage_send:00000000000000d0 .L0 
C:\Users\stapi\AppData\Local\Temp\ccjQ9O0I.s:1718   .text.CoAPMessage_send:00000000000000d0 .L0 
C:\Users\stapi\AppData\Local\Temp\ccjQ9O0I.s:1724   .text.CoAPMessage_send:00000000000000de .L0 
C:\Users\stapi\AppData\Local\Temp\ccjQ9O0I.s:1726   .text.CoAPMessage_send:00000000000000e2 .L0 
C:\Users\stapi\AppData\Local\Temp\ccjQ9O0I.s:1735   .text.CoAPMessage_send:00000000000000f8 .L0 
C:\Users\stapi\AppData\Local\Temp\ccjQ9O0I.s:1736   .text.CoAPMessage_send:00000000000000f8 .L0 
C:\Users\stapi\AppData\Local\Temp\ccjQ9O0I.s:1739   .text.CoAPMessage_send:0000000000000100 .L0 
C:\Users\stapi\AppData\Local\Temp\ccjQ9O0I.s:1740   .text.CoAPMessage_send:0000000000000100 .L0 
C:\Users\stapi\AppData\Local\Temp\ccjQ9O0I.s:1742   .text.CoAPMessage_send:0000000000000104 .L0 
C:\Users\stapi\AppData\Local\Temp\ccjQ9O0I.s:1745   .text.CoAPMessage_send:000000000000010a .L0 
C:\Users\stapi\AppData\Local\Temp\ccjQ9O0I.s:1747   .text.CoAPMessage_send:000000000000010c .L0 
C:\Users\stapi\AppData\Local\Temp\ccjQ9O0I.s:1751   .text.CoAPMessage_send:0000000000000118 .L0 
C:\Users\stapi\AppData\Local\Temp\ccjQ9O0I.s:1760   .text.CoAPMessage_send:0000000000000132 .L0 
C:\Users\stapi\AppData\Local\Temp\ccjQ9O0I.s:1765   .text.CoAPMessage_send:000000000000013c .L0 
C:\Users\stapi\AppData\Local\Temp\ccjQ9O0I.s:1779   .text.CoAPMessage_send:0000000000000160 .L0 
C:\Users\stapi\AppData\Local\Temp\ccjQ9O0I.s:1780   .text.CoAPMessage_send:0000000000000160 .L0 
C:\Users\stapi\AppData\Local\Temp\ccjQ9O0I.s:1781   .text.CoAPMessage_send:0000000000000160 .L0 
C:\Users\stapi\AppData\Local\Temp\ccjQ9O0I.s:1782   .text.CoAPMessage_send:0000000000000160 .L0 
C:\Users\stapi\AppData\Local\Temp\ccjQ9O0I.s:1783   .text.CoAPMessage_send:0000000000000160 .L0 
C:\Users\stapi\AppData\Local\Temp\ccjQ9O0I.s:1784   .text.CoAPMessage_send:0000000000000160 .L0 
C:\Users\stapi\AppData\Local\Temp\ccjQ9O0I.s:1785   .text.CoAPMessage_send:0000000000000160 .L0 
C:\Users\stapi\AppData\Local\Temp\ccjQ9O0I.s:1786   .text.CoAPMessage_send:0000000000000160 .L0 
C:\Users\stapi\AppData\Local\Temp\ccjQ9O0I.s:1791   .text.CoAPMessage_send:000000000000016e .L0 
C:\Users\stapi\AppData\Local\Temp\ccjQ9O0I.s:1794   .text.CoAPMessage_send:0000000000000170 .L0 
C:\Users\stapi\AppData\Local\Temp\ccjQ9O0I.s:1795   .text.CoAPMessage_send:0000000000000170 .L0 
C:\Users\stapi\AppData\Local\Temp\ccjQ9O0I.s:1796   .text.CoAPMessage_send:0000000000000170 .L0 
C:\Users\stapi\AppData\Local\Temp\ccjQ9O0I.s:1798   .text.CoAPMessage_send:0000000000000174 .L0 
C:\Users\stapi\AppData\Local\Temp\ccjQ9O0I.s:1800   .text.CoAPMessage_send:0000000000000176 .L0 
C:\Users\stapi\AppData\Local\Temp\ccjQ9O0I.s:1802   .text.CoAPMessage_send:0000000000000178 .L0 
C:\Users\stapi\AppData\Local\Temp\ccjQ9O0I.s:1805   .text.CoAPMessage_send:000000000000017e .L0 
C:\Users\stapi\AppData\Local\Temp\ccjQ9O0I.s:1818   .text.CoAPMessage_send:00000000000001a4 .L0 
C:\Users\stapi\AppData\Local\Temp\ccjQ9O0I.s:1822   .text.CoAPMessage_send:00000000000001a4 .L0 
C:\Users\stapi\AppData\Local\Temp\ccjQ9O0I.s:1823   .text.CoAPMessage_send:00000000000001a4 .L0 
C:\Users\stapi\AppData\Local\Temp\ccjQ9O0I.s:1828   .text.CoAPMessage_send:00000000000001aa .L0 
C:\Users\stapi\AppData\Local\Temp\ccjQ9O0I.s:1832   .text.CoAPMessage_send:00000000000001ac .L0 
C:\Users\stapi\AppData\Local\Temp\ccjQ9O0I.s:1834   .text.CoAPMessage_send:00000000000001b0 .L0 
C:\Users\stapi\AppData\Local\Temp\ccjQ9O0I.s:1836   .text.CoAPMessage_send:00000000000001b4 .L0 
C:\Users\stapi\AppData\Local\Temp\ccjQ9O0I.s:1839   .text.CoAPMessage_send:00000000000001bc .L0 
C:\Users\stapi\AppData\Local\Temp\ccjQ9O0I.s:1841   .text.CoAPMessage_send:00000000000001c0 .L0 
C:\Users\stapi\AppData\Local\Temp\ccjQ9O0I.s:1843   .text.CoAPMessage_send:00000000000001c2 .L0 
C:\Users\stapi\AppData\Local\Temp\ccjQ9O0I.s:1850   .text.CoAPMessage_send:00000000000001cc .L0 
C:\Users\stapi\AppData\Local\Temp\ccjQ9O0I.s:1853   .text.CoAPMessage_send:00000000000001d4 .L0 
C:\Users\stapi\AppData\Local\Temp\ccjQ9O0I.s:1855   .text.CoAPMessage_send:00000000000001d8 .L0 
C:\Users\stapi\AppData\Local\Temp\ccjQ9O0I.s:1857   .text.CoAPMessage_send:00000000000001da .L0 
C:\Users\stapi\AppData\Local\Temp\ccjQ9O0I.s:1860   .text.CoAPMessage_send:00000000000001e2 .L0 
C:\Users\stapi\AppData\Local\Temp\ccjQ9O0I.s:1861   .text.CoAPMessage_send:00000000000001e2 .L0 
C:\Users\stapi\AppData\Local\Temp\ccjQ9O0I.s:1865   .text.CoAPMessage_send:00000000000001ec .L0 
C:\Users\stapi\AppData\Local\Temp\ccjQ9O0I.s:1867   .text.CoAPMessage_send:00000000000001ee .L0 
C:\Users\stapi\AppData\Local\Temp\ccjQ9O0I.s:1873   .text.CoAPMessage_send:00000000000001f8 .L0 
C:\Users\stapi\AppData\Local\Temp\ccjQ9O0I.s:1874   .text.CoAPMessage_send:00000000000001f8 .L0 
C:\Users\stapi\AppData\Local\Temp\ccjQ9O0I.s:1882   .text.CoAPMessage_send:000000000000020a .L0 
C:\Users\stapi\AppData\Local\Temp\ccjQ9O0I.s:1883   .text.CoAPMessage_send:000000000000020a .L0 
C:\Users\stapi\AppData\Local\Temp\ccjQ9O0I.s:1886   .text.CoAPMessage_send:000000000000020c .L0 
C:\Users\stapi\AppData\Local\Temp\ccjQ9O0I.s:1891   .text.CoAPMessage_send:000000000000021a .L0 
C:\Users\stapi\AppData\Local\Temp\ccjQ9O0I.s:1892   .text.CoAPMessage_send:000000000000021a .L0 
C:\Users\stapi\AppData\Local\Temp\ccjQ9O0I.s:1893   .text.CoAPMessage_send:000000000000021a .L0 
C:\Users\stapi\AppData\Local\Temp\ccjQ9O0I.s:1895   .text.CoAPMessage_send:000000000000021c .L0 
C:\Users\stapi\AppData\Local\Temp\ccjQ9O0I.s:1898   .text.CoAPMessage_send:0000000000000220 .L0 
C:\Users\stapi\AppData\Local\Temp\ccjQ9O0I.s:1900   .text.CoAPMessage_send:0000000000000222 .L0 
C:\Users\stapi\AppData\Local\Temp\ccjQ9O0I.s:1901   .text.CoAPMessage_send:0000000000000222 .L0 
C:\Users\stapi\AppData\Local\Temp\ccjQ9O0I.s:1903   .text.CoAPMessage_send:0000000000000224 .L0 
C:\Users\stapi\AppData\Local\Temp\ccjQ9O0I.s:1905   .text.CoAPMessage_send:0000000000000228 .L0 
C:\Users\stapi\AppData\Local\Temp\ccjQ9O0I.s:1907   .text.CoAPMessage_send:000000000000022a .L0 
C:\Users\stapi\AppData\Local\Temp\ccjQ9O0I.s:1908   .text.CoAPMessage_send:000000000000022a .L0 
C:\Users\stapi\AppData\Local\Temp\ccjQ9O0I.s:1910   .text.CoAPMessage_send:000000000000022c .L0 
C:\Users\stapi\AppData\Local\Temp\ccjQ9O0I.s:1912   .text.CoAPMessage_send:0000000000000230 .L0 
C:\Users\stapi\AppData\Local\Temp\ccjQ9O0I.s:1914   .text.CoAPMessage_send:0000000000000234 .L0 
C:\Users\stapi\AppData\Local\Temp\ccjQ9O0I.s:1916   .text.CoAPMessage_send:0000000000000236 .L0 
C:\Users\stapi\AppData\Local\Temp\ccjQ9O0I.s:1917   .text.CoAPMessage_send:0000000000000236 .L0 
C:\Users\stapi\AppData\Local\Temp\ccjQ9O0I.s:1918   .text.CoAPMessage_send:0000000000000236 .L0 
C:\Users\stapi\AppData\Local\Temp\ccjQ9O0I.s:1919   .text.CoAPMessage_send:0000000000000236 .L0 
C:\Users\stapi\AppData\Local\Temp\ccjQ9O0I.s:1922   .text.CoAPMessage_send:000000000000023e .L0 
C:\Users\stapi\AppData\Local\Temp\ccjQ9O0I.s:1923   .text.CoAPMessage_send:000000000000023e .L0 
C:\Users\stapi\AppData\Local\Temp\ccjQ9O0I.s:1925   .text.CoAPMessage_send:0000000000000242 .L0 
C:\Users\stapi\AppData\Local\Temp\ccjQ9O0I.s:1926   .text.CoAPMessage_send:0000000000000242 .L0 
C:\Users\stapi\AppData\Local\Temp\ccjQ9O0I.s:1928   .text.CoAPMessage_send:0000000000000246 .L0 
C:\Users\stapi\AppData\Local\Temp\ccjQ9O0I.s:1931   .text.CoAPMessage_send:000000000000024e .L0 
C:\Users\stapi\AppData\Local\Temp\ccjQ9O0I.s:1932   .text.CoAPMessage_send:000000000000024e .L0 
C:\Users\stapi\AppData\Local\Temp\ccjQ9O0I.s:1934   .text.CoAPMessage_send:0000000000000250 .L0 
C:\Users\stapi\AppData\Local\Temp\ccjQ9O0I.s:1937   .text.CoAPMessage_send:0000000000000258 .L0 
C:\Users\stapi\AppData\Local\Temp\ccjQ9O0I.s:1939   .text.CoAPMessage_send:000000000000025a .L0 
C:\Users\stapi\AppData\Local\Temp\ccjQ9O0I.s:1943   .text.CoAPMessage_send:0000000000000264 .L0 
C:\Users\stapi\AppData\Local\Temp\ccjQ9O0I.s:1944   .text.CoAPMessage_send:0000000000000264 .L0 
C:\Users\stapi\AppData\Local\Temp\ccjQ9O0I.s:1947   .text.CoAPMessage_send:000000000000026c .L0 
C:\Users\stapi\AppData\Local\Temp\ccjQ9O0I.s:1948   .text.CoAPMessage_send:000000000000026c .L0 
C:\Users\stapi\AppData\Local\Temp\ccjQ9O0I.s:1950   .text.CoAPMessage_send:0000000000000270 .L0 
C:\Users\stapi\AppData\Local\Temp\ccjQ9O0I.s:1953   .text.CoAPMessage_send:0000000000000276 .L0 
C:\Users\stapi\AppData\Local\Temp\ccjQ9O0I.s:1954   .text.CoAPMessage_send:0000000000000276 .L0 
C:\Users\stapi\AppData\Local\Temp\ccjQ9O0I.s:1956   .text.CoAPMessage_send:000000000000027a .L0 
C:\Users\stapi\AppData\Local\Temp\ccjQ9O0I.s:1960   .text.CoAPMessage_send:0000000000000286 .L0 
C:\Users\stapi\AppData\Local\Temp\ccjQ9O0I.s:1962   .text.CoAPMessage_send:0000000000000288 .L0 
C:\Users\stapi\AppData\Local\Temp\ccjQ9O0I.s:1964   .text.CoAPMessage_send:000000000000028a .L0 
C:\Users\stapi\AppData\Local\Temp\ccjQ9O0I.s:1966   .text.CoAPMessage_send:000000000000028c .L0 
C:\Users\stapi\AppData\Local\Temp\ccjQ9O0I.s:1967   .text.CoAPMessage_send:000000000000028c .L0 
C:\Users\stapi\AppData\Local\Temp\ccjQ9O0I.s:1970   .text.CoAPMessage_send:0000000000000290 .L0 
C:\Users\stapi\AppData\Local\Temp\ccjQ9O0I.s:1971   .text.CoAPMessage_send:0000000000000290 .L0 
C:\Users\stapi\AppData\Local\Temp\ccjQ9O0I.s:1973   .text.CoAPMessage_send:0000000000000294 .L0 
C:\Users\stapi\AppData\Local\Temp\ccjQ9O0I.s:1986   .text.CoAPMessage_send:00000000000002ba .L0 
C:\Users\stapi\AppData\Local\Temp\ccjQ9O0I.s:1990   .text.CoAPMessage_send:00000000000002c6 .L0 
C:\Users\stapi\AppData\Local\Temp\ccjQ9O0I.s:1991   .text.CoAPMessage_send:00000000000002c6 .L0 
C:\Users\stapi\AppData\Local\Temp\ccjQ9O0I.s:1993   .text.CoAPMessage_send:00000000000002ca .L0 
C:\Users\stapi\AppData\Local\Temp\ccjQ9O0I.s:1997   .text.CoAPMessage_send:00000000000002d6 .L0 
C:\Users\stapi\AppData\Local\Temp\ccjQ9O0I.s:2000   .text.CoAPMessage_send:00000000000002de .L0 
C:\Users\stapi\AppData\Local\Temp\ccjQ9O0I.s:2004   .text.CoAPMessage_send:00000000000002e8 .L0 
C:\Users\stapi\AppData\Local\Temp\ccjQ9O0I.s:2005   .text.CoAPMessage_send:00000000000002e8 .L0 
C:\Users\stapi\AppData\Local\Temp\ccjQ9O0I.s:2010   .text.CoAPMessage_send:00000000000002f8 .L0 
C:\Users\stapi\AppData\Local\Temp\ccjQ9O0I.s:2015   .text.CoAPMessage_send:0000000000000308 .L0 
C:\Users\stapi\AppData\Local\Temp\ccjQ9O0I.s:2020   .text.CoAPMessage_send:0000000000000318 .L0 
C:\Users\stapi\AppData\Local\Temp\ccjQ9O0I.s:2024   .text.CoAPMessage_send:0000000000000318 .L0 
C:\Users\stapi\AppData\Local\Temp\ccjQ9O0I.s:2028   .text.CoAPMessage_send:0000000000000318 .L0 
C:\Users\stapi\AppData\Local\Temp\ccjQ9O0I.s:2029   .text.CoAPMessage_send:0000000000000318 .L0 
C:\Users\stapi\AppData\Local\Temp\ccjQ9O0I.s:2036   .text.CoAPMessage_send:000000000000031c .L0 
C:\Users\stapi\AppData\Local\Temp\ccjQ9O0I.s:2040   .text.CoAPMessage_send:0000000000000326 .L0 
C:\Users\stapi\AppData\Local\Temp\ccjQ9O0I.s:2041   .text.CoAPMessage_send:0000000000000326 .L0 
C:\Users\stapi\AppData\Local\Temp\ccjQ9O0I.s:2046   .text.CoAPMessage_send:0000000000000336 .L0 
C:\Users\stapi\AppData\Local\Temp\ccjQ9O0I.s:2052   .text.CoAPMessage_send:000000000000034a .L0 
C:\Users\stapi\AppData\Local\Temp\ccjQ9O0I.s:2057   .text.CoAPMessage_send:000000000000035a .L0 
C:\Users\stapi\AppData\Local\Temp\ccjQ9O0I.s:2058   .text.CoAPMessage_send:000000000000035a .L0 
C:\Users\stapi\AppData\Local\Temp\ccjQ9O0I.s:2059   .text.CoAPMessage_send:000000000000035a .L0 
C:\Users\stapi\AppData\Local\Temp\ccjQ9O0I.s:2065   .text.CoAPMessage_send:000000000000035c .L0 
C:\Users\stapi\AppData\Local\Temp\ccjQ9O0I.s:2066   .text.CoAPMessage_send:000000000000035c .L0 
C:\Users\stapi\AppData\Local\Temp\ccjQ9O0I.s:2069   .text.CoAPMessage_send:0000000000000362 .L0 
C:\Users\stapi\AppData\Local\Temp\ccjQ9O0I.s:2070   .text.CoAPMessage_send:0000000000000362 .L0 
C:\Users\stapi\AppData\Local\Temp\ccjQ9O0I.s:2075   .text.CoAPMessage_send:000000000000036e .L0 
C:\Users\stapi\AppData\Local\Temp\ccjQ9O0I.s:2076   .text.CoAPMessage_send:000000000000036e .L0 
C:\Users\stapi\AppData\Local\Temp\ccjQ9O0I.s:2081   .text.CoAPMessage_send:000000000000037e .L0 
C:\Users\stapi\AppData\Local\Temp\ccjQ9O0I.s:2086   .text.CoAPMessage_send:000000000000038e .L0 
C:\Users\stapi\AppData\Local\Temp\ccjQ9O0I.s:2091   .text.CoAPMessage_send:000000000000039e .L0 
C:\Users\stapi\AppData\Local\Temp\ccjQ9O0I.s:2092   .text.CoAPMessage_send:000000000000039e .L0 
C:\Users\stapi\AppData\Local\Temp\ccjQ9O0I.s:2097   .text.CoAPMessage_send:00000000000003a2 .L0 
C:\Users\stapi\AppData\Local\Temp\ccjQ9O0I.s:2103   .text.CoAPMessage_send:00000000000003aa .L0 
C:\Users\stapi\AppData\Local\Temp\ccjQ9O0I.s:2105   .text.CoAPMessage_send:00000000000003aa .L0 
C:\Users\stapi\AppData\Local\Temp\ccjQ9O0I.s:2106   .text.CoAPMessage_send:00000000000003aa .L0 
C:\Users\stapi\AppData\Local\Temp\ccjQ9O0I.s:2111   .text.CoAPMessage_send:00000000000003b6 .L0 
C:\Users\stapi\AppData\Local\Temp\ccjQ9O0I.s:2112   .text.CoAPMessage_send:00000000000003b6 .L0 
C:\Users\stapi\AppData\Local\Temp\ccjQ9O0I.s:2119   .text.CoAPMessage_send:00000000000003ba .L0 
C:\Users\stapi\AppData\Local\Temp\ccjQ9O0I.s:2129   .text.CoAPMessage_send:00000000000003c4 .L0 
C:\Users\stapi\AppData\Local\Temp\ccjQ9O0I.s:2130   .text.CoAPMessage_send:00000000000003c4 .L0 
C:\Users\stapi\AppData\Local\Temp\ccjQ9O0I.s:2132   .text.CoAPMessage_send:00000000000003c8 .L0 
C:\Users\stapi\AppData\Local\Temp\ccjQ9O0I.s:2134   .text.CoAPMessage_send:00000000000003cc .L0 
C:\Users\stapi\AppData\Local\Temp\ccjQ9O0I.s:2136   .text.CoAPMessage_send:00000000000003ce .L0 
C:\Users\stapi\AppData\Local\Temp\ccjQ9O0I.s:2140   .text.CoAPMessage_send:00000000000003d8 .L0 
C:\Users\stapi\AppData\Local\Temp\ccjQ9O0I.s:2143   .text.CoAPMessage_send:00000000000003dc .L0 
C:\Users\stapi\AppData\Local\Temp\ccjQ9O0I.s:2150   .text.CoAPMessage_send:00000000000003de .L0 
C:\Users\stapi\AppData\Local\Temp\ccjQ9O0I.s:2151   .text.CoAPMessage_send:00000000000003de .L0 
C:\Users\stapi\AppData\Local\Temp\ccjQ9O0I.s:2155   .text.CoAPMessage_send:00000000000003e2 .L0 
C:\Users\stapi\AppData\Local\Temp\ccjQ9O0I.s:2162   .text.CoAPMessage_send:00000000000003e6 .L0 
C:\Users\stapi\AppData\Local\Temp\ccjQ9O0I.s:2163   .text.CoAPMessage_send:00000000000003e6 .L0 
C:\Users\stapi\AppData\Local\Temp\ccjQ9O0I.s:2164   .text.CoAPMessage_send:00000000000003e6 .L0 
C:\Users\stapi\AppData\Local\Temp\ccjQ9O0I.s:2166   .text.CoAPMessage_send:00000000000003ea .L0 
C:\Users\stapi\AppData\Local\Temp\ccjQ9O0I.s:2167   .text.CoAPMessage_send:00000000000003ea .L0 
C:\Users\stapi\AppData\Local\Temp\ccjQ9O0I.s:2169   .text.CoAPMessage_send:00000000000003ec .L0 
C:\Users\stapi\AppData\Local\Temp\ccjQ9O0I.s:2170   .text.CoAPMessage_send:00000000000003ec .L0 
C:\Users\stapi\AppData\Local\Temp\ccjQ9O0I.s:2176   .text.CoAPMessage_send:00000000000003ee .L0 
C:\Users\stapi\AppData\Local\Temp\ccjQ9O0I.s:2177   .text.CoAPMessage_send:00000000000003ee .L0 
C:\Users\stapi\AppData\Local\Temp\ccjQ9O0I.s:2183   .text.CoAPMessage_send:00000000000003f0 .L0 
C:\Users\stapi\AppData\Local\Temp\ccjQ9O0I.s:2190   .text.CoAPMessage_send:00000000000003f4 .L0 
C:\Users\stapi\AppData\Local\Temp\ccjQ9O0I.s:2191   .text.CoAPMessage_send:00000000000003f4 .L0 
C:\Users\stapi\AppData\Local\Temp\ccjQ9O0I.s:2199   .text.CoAPMessage_send:00000000000003fa .L0 
C:\Users\stapi\AppData\Local\Temp\ccjQ9O0I.s:2204   .text.CoAPMessage_send:0000000000000404 .L0 
C:\Users\stapi\AppData\Local\Temp\ccjQ9O0I.s:2217   .text.CoAPMessage_send:0000000000000428 .L0 
C:\Users\stapi\AppData\Local\Temp\ccjQ9O0I.s:2222   .text.CoAPMessage_send:0000000000000432 .L0 
C:\Users\stapi\AppData\Local\Temp\ccjQ9O0I.s:2223   .text.CoAPMessage_send:0000000000000432 .L0 
C:\Users\stapi\AppData\Local\Temp\ccjQ9O0I.s:2228   .text.CoAPMessage_send:0000000000000442 .L0 
C:\Users\stapi\AppData\Local\Temp\ccjQ9O0I.s:2235   .text.CoAPMessage_send:0000000000000458 .L0 
C:\Users\stapi\AppData\Local\Temp\ccjQ9O0I.s:2240   .text.CoAPMessage_send:0000000000000468 .L0 
C:\Users\stapi\AppData\Local\Temp\ccjQ9O0I.s:2241   .text.CoAPMessage_send:0000000000000468 .L0 
C:\Users\stapi\AppData\Local\Temp\ccjQ9O0I.s:2242   .text.CoAPMessage_send:0000000000000468 .L0 
C:\Users\stapi\AppData\Local\Temp\ccjQ9O0I.s:2244   .text.CoAPMessage_send:000000000000046e .L0 
C:\Users\stapi\AppData\Local\Temp\ccjQ9O0I.s:2254   .text.CoAPErrRespMessage_send.isra.0:0000000000000000 CoAPErrRespMessage_send.isra.0
C:\Users\stapi\AppData\Local\Temp\ccjQ9O0I.s:2257   .text.CoAPErrRespMessage_send.isra.0:0000000000000000 .L0 
C:\Users\stapi\AppData\Local\Temp\ccjQ9O0I.s:2259   .text.CoAPErrRespMessage_send.isra.0:0000000000000000 .L0 
C:\Users\stapi\AppData\Local\Temp\ccjQ9O0I.s:2260   .text.CoAPErrRespMessage_send.isra.0:0000000000000008 .L0 
C:\Users\stapi\AppData\Local\Temp\ccjQ9O0I.s:2261   .text.CoAPErrRespMessage_send.isra.0:0000000000000008 .L0 
C:\Users\stapi\AppData\Local\Temp\ccjQ9O0I.s:2262   .text.CoAPErrRespMessage_send.isra.0:0000000000000008 .L0 
C:\Users\stapi\AppData\Local\Temp\ccjQ9O0I.s:2263   .text.CoAPErrRespMessage_send.isra.0:0000000000000008 .L0 
C:\Users\stapi\AppData\Local\Temp\ccjQ9O0I.s:2264   .text.CoAPErrRespMessage_send.isra.0:0000000000000008 .L0 
C:\Users\stapi\AppData\Local\Temp\ccjQ9O0I.s:2265   .text.CoAPErrRespMessage_send.isra.0:0000000000000008 .L0 
C:\Users\stapi\AppData\Local\Temp\ccjQ9O0I.s:2267   .text.CoAPErrRespMessage_send.isra.0:0000000000000008 .L0 
C:\Users\stapi\AppData\Local\Temp\ccjQ9O0I.s:2269   .text.CoAPErrRespMessage_send.isra.0:0000000000000008 .L0 
C:\Users\stapi\AppData\Local\Temp\ccjQ9O0I.s:2270   .text.CoAPErrRespMessage_send.isra.0:0000000000000008 .L0 
C:\Users\stapi\AppData\Local\Temp\ccjQ9O0I.s:2271   .text.CoAPErrRespMessage_send.isra.0:0000000000000008 .L0 
C:\Users\stapi\AppData\Local\Temp\ccjQ9O0I.s:2272   .text.CoAPErrRespMessage_send.isra.0:000000000000000a .L0 
C:\Users\stapi\AppData\Local\Temp\ccjQ9O0I.s:2274   .text.CoAPErrRespMessage_send.isra.0:000000000000000a .L0 
C:\Users\stapi\AppData\Local\Temp\ccjQ9O0I.s:2277   .text.CoAPErrRespMessage_send.isra.0:000000000000000c .L0 
C:\Users\stapi\AppData\Local\Temp\ccjQ9O0I.s:2280   .text.CoAPErrRespMessage_send.isra.0:000000000000000e .L0 
C:\Users\stapi\AppData\Local\Temp\ccjQ9O0I.s:2284   .text.CoAPErrRespMessage_send.isra.0:0000000000000014 .L0 
C:\Users\stapi\AppData\Local\Temp\ccjQ9O0I.s:2289   .text.CoAPErrRespMessage_send.isra.0:000000000000001c .L0 
C:\Users\stapi\AppData\Local\Temp\ccjQ9O0I.s:2290   .text.CoAPErrRespMessage_send.isra.0:000000000000001c .L0 
C:\Users\stapi\AppData\Local\Temp\ccjQ9O0I.s:2293   .text.CoAPErrRespMessage_send.isra.0:000000000000001c .L0 
C:\Users\stapi\AppData\Local\Temp\ccjQ9O0I.s:2294   .text.CoAPErrRespMessage_send.isra.0:000000000000001c .L0 
C:\Users\stapi\AppData\Local\Temp\ccjQ9O0I.s:2298   .text.CoAPErrRespMessage_send.isra.0:000000000000001e .L0 
C:\Users\stapi\AppData\Local\Temp\ccjQ9O0I.s:2302   .text.CoAPErrRespMessage_send.isra.0:0000000000000022 .L0 
C:\Users\stapi\AppData\Local\Temp\ccjQ9O0I.s:2304   .text.CoAPErrRespMessage_send.isra.0:0000000000000026 .L0 
C:\Users\stapi\AppData\Local\Temp\ccjQ9O0I.s:2306   .text.CoAPErrRespMessage_send.isra.0:0000000000000028 .L0 
C:\Users\stapi\AppData\Local\Temp\ccjQ9O0I.s:2312   .text.CoAPErrRespMessage_send.isra.0:000000000000002c .L0 
C:\Users\stapi\AppData\Local\Temp\ccjQ9O0I.s:2318   .text.CoAPErrRespMessage_send.isra.0:0000000000000030 .L0 
C:\Users\stapi\AppData\Local\Temp\ccjQ9O0I.s:2323   .text.CoAPErrRespMessage_send.isra.0:0000000000000034 .L0 
C:\Users\stapi\AppData\Local\Temp\ccjQ9O0I.s:2326   .text.CoAPErrRespMessage_send.isra.0:0000000000000034 .L0 
C:\Users\stapi\AppData\Local\Temp\ccjQ9O0I.s:2327   .text.CoAPErrRespMessage_send.isra.0:0000000000000034 .L0 
C:\Users\stapi\AppData\Local\Temp\ccjQ9O0I.s:2328   .text.CoAPErrRespMessage_send.isra.0:0000000000000034 .L0 
C:\Users\stapi\AppData\Local\Temp\ccjQ9O0I.s:2331   .text.CoAPErrRespMessage_send.isra.0:0000000000000034 .L0 
C:\Users\stapi\AppData\Local\Temp\ccjQ9O0I.s:2332   .text.CoAPErrRespMessage_send.isra.0:0000000000000034 .L0 
C:\Users\stapi\AppData\Local\Temp\ccjQ9O0I.s:2335   .text.CoAPErrRespMessage_send.isra.0:000000000000003c .L0 
C:\Users\stapi\AppData\Local\Temp\ccjQ9O0I.s:2336   .text.CoAPErrRespMessage_send.isra.0:000000000000003c .L0 
C:\Users\stapi\AppData\Local\Temp\ccjQ9O0I.s:2338   .text.CoAPErrRespMessage_send.isra.0:0000000000000040 .L0 
C:\Users\stapi\AppData\Local\Temp\ccjQ9O0I.s:2344   .text.CoAPErrRespMessage_send.isra.0:0000000000000044 .L0 
C:\Users\stapi\AppData\Local\Temp\ccjQ9O0I.s:2345   .text.CoAPErrRespMessage_send.isra.0:0000000000000044 .L0 
C:\Users\stapi\AppData\Local\Temp\ccjQ9O0I.s:2346   .text.CoAPErrRespMessage_send.isra.0:0000000000000044 .L0 
C:\Users\stapi\AppData\Local\Temp\ccjQ9O0I.s:2347   .text.CoAPErrRespMessage_send.isra.0:0000000000000044 .L0 
C:\Users\stapi\AppData\Local\Temp\ccjQ9O0I.s:2348   .text.CoAPErrRespMessage_send.isra.0:0000000000000044 .L0 
C:\Users\stapi\AppData\Local\Temp\ccjQ9O0I.s:2357   .text.CoAPErrRespMessage_send.isra.0:0000000000000052 .L0 
C:\Users\stapi\AppData\Local\Temp\ccjQ9O0I.s:2358   .text.CoAPErrRespMessage_send.isra.0:0000000000000052 .L0 
C:\Users\stapi\AppData\Local\Temp\ccjQ9O0I.s:2369   .text.CoAPErrRespMessage_send.isra.0:0000000000000078 .L0 
C:\Users\stapi\AppData\Local\Temp\ccjQ9O0I.s:2370   .text.CoAPErrRespMessage_send.isra.0:0000000000000078 .L0 
C:\Users\stapi\AppData\Local\Temp\ccjQ9O0I.s:2376   .text.CoAPErrRespMessage_send.isra.0:0000000000000086 .L0 
C:\Users\stapi\AppData\Local\Temp\ccjQ9O0I.s:2380   .text.CoAPErrRespMessage_send.isra.0:0000000000000090 .L0 
C:\Users\stapi\AppData\Local\Temp\ccjQ9O0I.s:2381   .text.CoAPErrRespMessage_send.isra.0:0000000000000090 .L0 
C:\Users\stapi\AppData\Local\Temp\ccjQ9O0I.s:2382   .text.CoAPErrRespMessage_send.isra.0:0000000000000092 .L0 
C:\Users\stapi\AppData\Local\Temp\ccjQ9O0I.s:2383   .text.CoAPErrRespMessage_send.isra.0:0000000000000092 .L0 
C:\Users\stapi\AppData\Local\Temp\ccjQ9O0I.s:2385   .text.CoAPErrRespMessage_send.isra.0:000000000000009a .L0 
C:\Users\stapi\AppData\Local\Temp\ccjQ9O0I.s:2386   .text.CoAPErrRespMessage_send.isra.0:000000000000009a .L0 
C:\Users\stapi\AppData\Local\Temp\ccjQ9O0I.s:2387   .text.CoAPErrRespMessage_send.isra.0:000000000000009a .L0 
C:\Users\stapi\AppData\Local\Temp\ccjQ9O0I.s:2388   .text.CoAPErrRespMessage_send.isra.0:000000000000009a .L0 
C:\Users\stapi\AppData\Local\Temp\ccjQ9O0I.s:2389   .text.CoAPErrRespMessage_send.isra.0:000000000000009a .L0 
C:\Users\stapi\AppData\Local\Temp\ccjQ9O0I.s:2390   .text.CoAPErrRespMessage_send.isra.0:000000000000009a .L0 
C:\Users\stapi\AppData\Local\Temp\ccjQ9O0I.s:2393   .text.CoAPErrRespMessage_send.isra.0:000000000000009a .L0 
C:\Users\stapi\AppData\Local\Temp\ccjQ9O0I.s:2395   .text.CoAPErrRespMessage_send.isra.0:000000000000009a .L0 
C:\Users\stapi\AppData\Local\Temp\ccjQ9O0I.s:2396   .text.CoAPErrRespMessage_send.isra.0:000000000000009a .L0 
C:\Users\stapi\AppData\Local\Temp\ccjQ9O0I.s:2398   .text.CoAPErrRespMessage_send.isra.0:000000000000009c .L0 
C:\Users\stapi\AppData\Local\Temp\ccjQ9O0I.s:2400   .text.CoAPErrRespMessage_send.isra.0:000000000000009e .L0 
C:\Users\stapi\AppData\Local\Temp\ccjQ9O0I.s:2402   .text.CoAPErrRespMessage_send.isra.0:00000000000000a0 .L0 
C:\Users\stapi\AppData\Local\Temp\ccjQ9O0I.s:2406   .text.CoAPErrRespMessage_send.isra.0:00000000000000ac .L0 
C:\Users\stapi\AppData\Local\Temp\ccjQ9O0I.s:2416   .text.CoAPAckMessage_send.isra.0:0000000000000000 CoAPAckMessage_send.isra.0
C:\Users\stapi\AppData\Local\Temp\ccjQ9O0I.s:2419   .text.CoAPAckMessage_send.isra.0:0000000000000000 .L0 
C:\Users\stapi\AppData\Local\Temp\ccjQ9O0I.s:2421   .text.CoAPAckMessage_send.isra.0:0000000000000000 .L0 
C:\Users\stapi\AppData\Local\Temp\ccjQ9O0I.s:2422   .text.CoAPAckMessage_send.isra.0:0000000000000008 .L0 
C:\Users\stapi\AppData\Local\Temp\ccjQ9O0I.s:2423   .text.CoAPAckMessage_send.isra.0:0000000000000008 .L0 
C:\Users\stapi\AppData\Local\Temp\ccjQ9O0I.s:2424   .text.CoAPAckMessage_send.isra.0:0000000000000008 .L0 
C:\Users\stapi\AppData\Local\Temp\ccjQ9O0I.s:2425   .text.CoAPAckMessage_send.isra.0:0000000000000008 .L0 
C:\Users\stapi\AppData\Local\Temp\ccjQ9O0I.s:2426   .text.CoAPAckMessage_send.isra.0:0000000000000008 .L0 
C:\Users\stapi\AppData\Local\Temp\ccjQ9O0I.s:2429   .text.CoAPAckMessage_send.isra.0:0000000000000008 .L0 
C:\Users\stapi\AppData\Local\Temp\ccjQ9O0I.s:2430   .text.CoAPAckMessage_send.isra.0:0000000000000008 .L0 
C:\Users\stapi\AppData\Local\Temp\ccjQ9O0I.s:2431   .text.CoAPAckMessage_send.isra.0:0000000000000008 .L0 
C:\Users\stapi\AppData\Local\Temp\ccjQ9O0I.s:2432   .text.CoAPAckMessage_send.isra.0:0000000000000008 .L0 
C:\Users\stapi\AppData\Local\Temp\ccjQ9O0I.s:2433   .text.CoAPAckMessage_send.isra.0:000000000000000a .L0 
C:\Users\stapi\AppData\Local\Temp\ccjQ9O0I.s:2435   .text.CoAPAckMessage_send.isra.0:000000000000000a .L0 
C:\Users\stapi\AppData\Local\Temp\ccjQ9O0I.s:2438   .text.CoAPAckMessage_send.isra.0:000000000000000c .L0 
C:\Users\stapi\AppData\Local\Temp\ccjQ9O0I.s:2441   .text.CoAPAckMessage_send.isra.0:000000000000000e .L0 
C:\Users\stapi\AppData\Local\Temp\ccjQ9O0I.s:2444   .text.CoAPAckMessage_send.isra.0:0000000000000012 .L0 
C:\Users\stapi\AppData\Local\Temp\ccjQ9O0I.s:2449   .text.CoAPAckMessage_send.isra.0:000000000000001a .L0 
C:\Users\stapi\AppData\Local\Temp\ccjQ9O0I.s:2450   .text.CoAPAckMessage_send.isra.0:000000000000001a .L0 
C:\Users\stapi\AppData\Local\Temp\ccjQ9O0I.s:2453   .text.CoAPAckMessage_send.isra.0:000000000000001a .L0 
C:\Users\stapi\AppData\Local\Temp\ccjQ9O0I.s:2454   .text.CoAPAckMessage_send.isra.0:000000000000001a .L0 
C:\Users\stapi\AppData\Local\Temp\ccjQ9O0I.s:2465   .text.CoAPAckMessage_send.isra.0:0000000000000038 .L0 
C:\Users\stapi\AppData\Local\Temp\ccjQ9O0I.s:2470   .text.CoAPAckMessage_send.isra.0:000000000000003c .L0 
C:\Users\stapi\AppData\Local\Temp\ccjQ9O0I.s:2471   .text.CoAPAckMessage_send.isra.0:000000000000003c .L0 
C:\Users\stapi\AppData\Local\Temp\ccjQ9O0I.s:2474   .text.CoAPAckMessage_send.isra.0:0000000000000044 .L0 
C:\Users\stapi\AppData\Local\Temp\ccjQ9O0I.s:2475   .text.CoAPAckMessage_send.isra.0:0000000000000044 .L0 
C:\Users\stapi\AppData\Local\Temp\ccjQ9O0I.s:2481   .text.CoAPAckMessage_send.isra.0:0000000000000052 .L0 
C:\Users\stapi\AppData\Local\Temp\ccjQ9O0I.s:2485   .text.CoAPAckMessage_send.isra.0:000000000000005c .L0 
C:\Users\stapi\AppData\Local\Temp\ccjQ9O0I.s:2486   .text.CoAPAckMessage_send.isra.0:000000000000005c .L0 
C:\Users\stapi\AppData\Local\Temp\ccjQ9O0I.s:2487   .text.CoAPAckMessage_send.isra.0:000000000000005e .L0 
C:\Users\stapi\AppData\Local\Temp\ccjQ9O0I.s:2489   .text.CoAPAckMessage_send.isra.0:0000000000000066 .L0 
C:\Users\stapi\AppData\Local\Temp\ccjQ9O0I.s:2490   .text.CoAPAckMessage_send.isra.0:0000000000000066 .L0 
C:\Users\stapi\AppData\Local\Temp\ccjQ9O0I.s:2491   .text.CoAPAckMessage_send.isra.0:0000000000000066 .L0 
C:\Users\stapi\AppData\Local\Temp\ccjQ9O0I.s:2492   .text.CoAPAckMessage_send.isra.0:0000000000000066 .L0 
C:\Users\stapi\AppData\Local\Temp\ccjQ9O0I.s:2493   .text.CoAPAckMessage_send.isra.0:0000000000000066 .L0 
C:\Users\stapi\AppData\Local\Temp\ccjQ9O0I.s:2494   .text.CoAPAckMessage_send.isra.0:0000000000000066 .L0 
C:\Users\stapi\AppData\Local\Temp\ccjQ9O0I.s:2505   .text.CoAPMessage_cancel:0000000000000000 CoAPMessage_cancel
C:\Users\stapi\AppData\Local\Temp\ccjQ9O0I.s:2508   .text.CoAPMessage_cancel:0000000000000000 .L0 
C:\Users\stapi\AppData\Local\Temp\ccjQ9O0I.s:2510   .text.CoAPMessage_cancel:0000000000000000 .L0 
C:\Users\stapi\AppData\Local\Temp\ccjQ9O0I.s:2511   .text.CoAPMessage_cancel:0000000000000000 .L0 
C:\Users\stapi\AppData\Local\Temp\ccjQ9O0I.s:2512   .text.CoAPMessage_cancel:0000000000000000 .L0 
C:\Users\stapi\AppData\Local\Temp\ccjQ9O0I.s:2513   .text.CoAPMessage_cancel:0000000000000000 .L0 
C:\Users\stapi\AppData\Local\Temp\ccjQ9O0I.s:2514   .text.CoAPMessage_cancel:0000000000000000 .L0 
C:\Users\stapi\AppData\Local\Temp\ccjQ9O0I.s:2516   .text.CoAPMessage_cancel:0000000000000002 .L0 
C:\Users\stapi\AppData\Local\Temp\ccjQ9O0I.s:2517   .text.CoAPMessage_cancel:000000000000000a .L0 
C:\Users\stapi\AppData\Local\Temp\ccjQ9O0I.s:2518   .text.CoAPMessage_cancel:000000000000000a .L0 
C:\Users\stapi\AppData\Local\Temp\ccjQ9O0I.s:2519   .text.CoAPMessage_cancel:000000000000000a .L0 
C:\Users\stapi\AppData\Local\Temp\ccjQ9O0I.s:2520   .text.CoAPMessage_cancel:000000000000000a .L0 
C:\Users\stapi\AppData\Local\Temp\ccjQ9O0I.s:2521   .text.CoAPMessage_cancel:000000000000000a .L0 
C:\Users\stapi\AppData\Local\Temp\ccjQ9O0I.s:2522   .text.CoAPMessage_cancel:000000000000000a .L0 
C:\Users\stapi\AppData\Local\Temp\ccjQ9O0I.s:2523   .text.CoAPMessage_cancel:000000000000000a .L0 
C:\Users\stapi\AppData\Local\Temp\ccjQ9O0I.s:2524   .text.CoAPMessage_cancel:000000000000000a .L0 
C:\Users\stapi\AppData\Local\Temp\ccjQ9O0I.s:2525   .text.CoAPMessage_cancel:000000000000000a .L0 
C:\Users\stapi\AppData\Local\Temp\ccjQ9O0I.s:2526   .text.CoAPMessage_cancel:000000000000000a .L0 
C:\Users\stapi\AppData\Local\Temp\ccjQ9O0I.s:2530   .text.CoAPMessage_cancel:000000000000000e .L0 
C:\Users\stapi\AppData\Local\Temp\ccjQ9O0I.s:2533   .text.CoAPMessage_cancel:0000000000000012 .L0 
C:\Users\stapi\AppData\Local\Temp\ccjQ9O0I.s:2535   .text.CoAPMessage_cancel:0000000000000014 .L0 
C:\Users\stapi\AppData\Local\Temp\ccjQ9O0I.s:2537   .text.CoAPMessage_cancel:0000000000000016 .L0 
C:\Users\stapi\AppData\Local\Temp\ccjQ9O0I.s:2539   .text.CoAPMessage_cancel:000000000000001a .L0 
C:\Users\stapi\AppData\Local\Temp\ccjQ9O0I.s:2541   .text.CoAPMessage_cancel:000000000000001e .L0 
C:\Users\stapi\AppData\Local\Temp\ccjQ9O0I.s:2544   .text.CoAPMessage_cancel:0000000000000026 .L0 
C:\Users\stapi\AppData\Local\Temp\ccjQ9O0I.s:2546   .text.CoAPMessage_cancel:0000000000000028 .L0 
C:\Users\stapi\AppData\Local\Temp\ccjQ9O0I.s:2549   .text.CoAPMessage_cancel:0000000000000030 .L0 
C:\Users\stapi\AppData\Local\Temp\ccjQ9O0I.s:2556   .text.CoAPMessage_cancel:000000000000003c .L0 
C:\Users\stapi\AppData\Local\Temp\ccjQ9O0I.s:2559   .text.CoAPMessage_cancel:0000000000000044 .L0 
C:\Users\stapi\AppData\Local\Temp\ccjQ9O0I.s:2563   .text.CoAPMessage_cancel:000000000000004e .L0 
C:\Users\stapi\AppData\Local\Temp\ccjQ9O0I.s:2564   .text.CoAPMessage_cancel:000000000000004e .L0 
C:\Users\stapi\AppData\Local\Temp\ccjQ9O0I.s:2568   .text.CoAPMessage_cancel:0000000000000050 .L0 
C:\Users\stapi\AppData\Local\Temp\ccjQ9O0I.s:2569   .text.CoAPMessage_cancel:0000000000000058 .L0 
C:\Users\stapi\AppData\Local\Temp\ccjQ9O0I.s:2570   .text.CoAPMessage_cancel:0000000000000058 .L0 
C:\Users\stapi\AppData\Local\Temp\ccjQ9O0I.s:2571   .text.CoAPMessage_cancel:0000000000000058 .L0 
C:\Users\stapi\AppData\Local\Temp\ccjQ9O0I.s:2572   .text.CoAPMessage_cancel:0000000000000058 .L0 
C:\Users\stapi\AppData\Local\Temp\ccjQ9O0I.s:2573   .text.CoAPMessage_cancel:0000000000000058 .L0 
C:\Users\stapi\AppData\Local\Temp\ccjQ9O0I.s:2574   .text.CoAPMessage_cancel:0000000000000058 .L0 
C:\Users\stapi\AppData\Local\Temp\ccjQ9O0I.s:2575   .text.CoAPMessage_cancel:0000000000000058 .L0 
C:\Users\stapi\AppData\Local\Temp\ccjQ9O0I.s:2576   .text.CoAPMessage_cancel:0000000000000058 .L0 
C:\Users\stapi\AppData\Local\Temp\ccjQ9O0I.s:2577   .text.CoAPMessage_cancel:0000000000000058 .L0 
C:\Users\stapi\AppData\Local\Temp\ccjQ9O0I.s:2578   .text.CoAPMessage_cancel:0000000000000058 .L0 
C:\Users\stapi\AppData\Local\Temp\ccjQ9O0I.s:2579   .text.CoAPMessage_cancel:0000000000000058 .L0 
C:\Users\stapi\AppData\Local\Temp\ccjQ9O0I.s:2582   .text.CoAPMessage_cancel:0000000000000058 .L0 
C:\Users\stapi\AppData\Local\Temp\ccjQ9O0I.s:2584   .text.CoAPMessage_cancel:0000000000000058 .L0 
C:\Users\stapi\AppData\Local\Temp\ccjQ9O0I.s:2585   .text.CoAPMessage_cancel:0000000000000058 .L0 
C:\Users\stapi\AppData\Local\Temp\ccjQ9O0I.s:2592   .text.CoAPMessage_cancel:0000000000000064 .L0 
C:\Users\stapi\AppData\Local\Temp\ccjQ9O0I.s:2593   .text.CoAPMessage_cancel:0000000000000064 .L0 
C:\Users\stapi\AppData\Local\Temp\ccjQ9O0I.s:2594   .text.CoAPMessage_cancel:0000000000000064 .L0 
C:\Users\stapi\AppData\Local\Temp\ccjQ9O0I.s:2597   .text.CoAPMessage_cancel:0000000000000066 .L0 
C:\Users\stapi\AppData\Local\Temp\ccjQ9O0I.s:2598   .text.CoAPMessage_cancel:0000000000000066 .L0 
C:\Users\stapi\AppData\Local\Temp\ccjQ9O0I.s:2603   .text.CoAPMessage_cancel:0000000000000068 .L0 
C:\Users\stapi\AppData\Local\Temp\ccjQ9O0I.s:2604   .text.CoAPMessage_cancel:0000000000000068 .L0 
C:\Users\stapi\AppData\Local\Temp\ccjQ9O0I.s:2608   .text.CoAPMessage_cancel:000000000000006c .L0 
C:\Users\stapi\AppData\Local\Temp\ccjQ9O0I.s:2610   .text.CoAPMessage_cancel:000000000000006e .L0 
C:\Users\stapi\AppData\Local\Temp\ccjQ9O0I.s:2611   .text.CoAPMessage_cancel:000000000000006e .L0 
C:\Users\stapi\AppData\Local\Temp\ccjQ9O0I.s:2616   .text.CoAPMessage_cancel:0000000000000070 .L0 
C:\Users\stapi\AppData\Local\Temp\ccjQ9O0I.s:2617   .text.CoAPMessage_cancel:0000000000000070 .L0 
C:\Users\stapi\AppData\Local\Temp\ccjQ9O0I.s:2621   .text.CoAPMessage_cancel:000000000000007a .L0 
C:\Users\stapi\AppData\Local\Temp\ccjQ9O0I.s:2622   .text.CoAPMessage_cancel:000000000000007a .L0 
C:\Users\stapi\AppData\Local\Temp\ccjQ9O0I.s:2625   .text.CoAPMessage_cancel:0000000000000082 .L0 
C:\Users\stapi\AppData\Local\Temp\ccjQ9O0I.s:2631   .text.CoAPMessage_cancel:0000000000000096 .L0 
C:\Users\stapi\AppData\Local\Temp\ccjQ9O0I.s:2635   .text.CoAPMessage_cancel:00000000000000a2 .L0 
C:\Users\stapi\AppData\Local\Temp\ccjQ9O0I.s:2636   .text.CoAPMessage_cancel:00000000000000a2 .L0 
C:\Users\stapi\AppData\Local\Temp\ccjQ9O0I.s:2640   .text.CoAPMessage_cancel:00000000000000ac .L0 
C:\Users\stapi\AppData\Local\Temp\ccjQ9O0I.s:2645   .text.CoAPMessage_cancel:00000000000000b6 .L0 
C:\Users\stapi\AppData\Local\Temp\ccjQ9O0I.s:2653   .text.CoAPMessage_cancel:00000000000000c2 .L0 
C:\Users\stapi\AppData\Local\Temp\ccjQ9O0I.s:2654   .text.CoAPMessage_cancel:00000000000000c2 .L0 
C:\Users\stapi\AppData\Local\Temp\ccjQ9O0I.s:2655   .text.CoAPMessage_cancel:00000000000000c2 .L0 
C:\Users\stapi\AppData\Local\Temp\ccjQ9O0I.s:2656   .text.CoAPMessage_cancel:00000000000000c2 .L0 
C:\Users\stapi\AppData\Local\Temp\ccjQ9O0I.s:2657   .text.CoAPMessage_cancel:00000000000000c2 .L0 
C:\Users\stapi\AppData\Local\Temp\ccjQ9O0I.s:2658   .text.CoAPMessage_cancel:00000000000000c2 .L0 
C:\Users\stapi\AppData\Local\Temp\ccjQ9O0I.s:2659   .text.CoAPMessage_cancel:00000000000000c2 .L0 
C:\Users\stapi\AppData\Local\Temp\ccjQ9O0I.s:2660   .text.CoAPMessage_cancel:00000000000000c2 .L0 
C:\Users\stapi\AppData\Local\Temp\ccjQ9O0I.s:2661   .text.CoAPMessage_cancel:00000000000000c2 .L0 
C:\Users\stapi\AppData\Local\Temp\ccjQ9O0I.s:2662   .text.CoAPMessage_cancel:00000000000000c2 .L0 
C:\Users\stapi\AppData\Local\Temp\ccjQ9O0I.s:2664   .text.CoAPMessage_cancel:00000000000000c2 .L0 
C:\Users\stapi\AppData\Local\Temp\ccjQ9O0I.s:2667   .text.CoAPMessage_cancel:00000000000000c6 .L0 
C:\Users\stapi\AppData\Local\Temp\ccjQ9O0I.s:2668   .text.CoAPMessage_cancel:00000000000000c8 .L0 
C:\Users\stapi\AppData\Local\Temp\ccjQ9O0I.s:2675   .text.CoAPMessage_print_sendlist:0000000000000000 CoAPMessage_print_sendlist
C:\Users\stapi\AppData\Local\Temp\ccjQ9O0I.s:2678   .text.CoAPMessage_print_sendlist:0000000000000000 .L0 
C:\Users\stapi\AppData\Local\Temp\ccjQ9O0I.s:2680   .text.CoAPMessage_print_sendlist:0000000000000000 .L0 
C:\Users\stapi\AppData\Local\Temp\ccjQ9O0I.s:2681   .text.CoAPMessage_print_sendlist:0000000000000000 .L0 
C:\Users\stapi\AppData\Local\Temp\ccjQ9O0I.s:2682   .text.CoAPMessage_print_sendlist:0000000000000000 .L0 
C:\Users\stapi\AppData\Local\Temp\ccjQ9O0I.s:2685   .text.CoAPMessage_print_sendlist:0000000000000004 .L0 
C:\Users\stapi\AppData\Local\Temp\ccjQ9O0I.s:2696   .text.CoAPMessageId_cancel:0000000000000000 CoAPMessageId_cancel
C:\Users\stapi\AppData\Local\Temp\ccjQ9O0I.s:2699   .text.CoAPMessageId_cancel:0000000000000000 .L0 
C:\Users\stapi\AppData\Local\Temp\ccjQ9O0I.s:2701   .text.CoAPMessageId_cancel:0000000000000000 .L0 
C:\Users\stapi\AppData\Local\Temp\ccjQ9O0I.s:2702   .text.CoAPMessageId_cancel:0000000000000000 .L0 
C:\Users\stapi\AppData\Local\Temp\ccjQ9O0I.s:2703   .text.CoAPMessageId_cancel:0000000000000000 .L0 
C:\Users\stapi\AppData\Local\Temp\ccjQ9O0I.s:2704   .text.CoAPMessageId_cancel:0000000000000000 .L0 
C:\Users\stapi\AppData\Local\Temp\ccjQ9O0I.s:2705   .text.CoAPMessageId_cancel:0000000000000000 .L0 
C:\Users\stapi\AppData\Local\Temp\ccjQ9O0I.s:2707   .text.CoAPMessageId_cancel:0000000000000002 .L0 
C:\Users\stapi\AppData\Local\Temp\ccjQ9O0I.s:2708   .text.CoAPMessageId_cancel:000000000000000a .L0 
C:\Users\stapi\AppData\Local\Temp\ccjQ9O0I.s:2709   .text.CoAPMessageId_cancel:000000000000000a .L0 
C:\Users\stapi\AppData\Local\Temp\ccjQ9O0I.s:2710   .text.CoAPMessageId_cancel:000000000000000a .L0 
C:\Users\stapi\AppData\Local\Temp\ccjQ9O0I.s:2711   .text.CoAPMessageId_cancel:000000000000000a .L0 
C:\Users\stapi\AppData\Local\Temp\ccjQ9O0I.s:2712   .text.CoAPMessageId_cancel:000000000000000a .L0 
C:\Users\stapi\AppData\Local\Temp\ccjQ9O0I.s:2713   .text.CoAPMessageId_cancel:000000000000000a .L0 
C:\Users\stapi\AppData\Local\Temp\ccjQ9O0I.s:2714   .text.CoAPMessageId_cancel:000000000000000a .L0 
C:\Users\stapi\AppData\Local\Temp\ccjQ9O0I.s:2715   .text.CoAPMessageId_cancel:000000000000000a .L0 
C:\Users\stapi\AppData\Local\Temp\ccjQ9O0I.s:2716   .text.CoAPMessageId_cancel:000000000000000a .L0 
C:\Users\stapi\AppData\Local\Temp\ccjQ9O0I.s:2717   .text.CoAPMessageId_cancel:000000000000000a .L0 
C:\Users\stapi\AppData\Local\Temp\ccjQ9O0I.s:2720   .text.CoAPMessageId_cancel:000000000000000c .L0 
C:\Users\stapi\AppData\Local\Temp\ccjQ9O0I.s:2723   .text.CoAPMessageId_cancel:000000000000000e .L0 
C:\Users\stapi\AppData\Local\Temp\ccjQ9O0I.s:2725   .text.CoAPMessageId_cancel:0000000000000012 .L0 
C:\Users\stapi\AppData\Local\Temp\ccjQ9O0I.s:2728   .text.CoAPMessageId_cancel:0000000000000016 .L0 
C:\Users\stapi\AppData\Local\Temp\ccjQ9O0I.s:2731   .text.CoAPMessageId_cancel:000000000000001e .L0 
C:\Users\stapi\AppData\Local\Temp\ccjQ9O0I.s:2734   .text.CoAPMessageId_cancel:0000000000000024 .L0 
C:\Users\stapi\AppData\Local\Temp\ccjQ9O0I.s:2736   .text.CoAPMessageId_cancel:0000000000000028 .L0 
C:\Users\stapi\AppData\Local\Temp\ccjQ9O0I.s:2740   .text.CoAPMessageId_cancel:0000000000000030 .L0 
C:\Users\stapi\AppData\Local\Temp\ccjQ9O0I.s:2742   .text.CoAPMessageId_cancel:0000000000000034 .L0 
C:\Users\stapi\AppData\Local\Temp\ccjQ9O0I.s:2745   .text.CoAPMessageId_cancel:0000000000000038 .L0 
C:\Users\stapi\AppData\Local\Temp\ccjQ9O0I.s:2748   .text.CoAPMessageId_cancel:000000000000003c .L0 
C:\Users\stapi\AppData\Local\Temp\ccjQ9O0I.s:2751   .text.CoAPMessageId_cancel:0000000000000044 .L0 
C:\Users\stapi\AppData\Local\Temp\ccjQ9O0I.s:2755   .text.CoAPMessageId_cancel:000000000000004e .L0 
C:\Users\stapi\AppData\Local\Temp\ccjQ9O0I.s:2756   .text.CoAPMessageId_cancel:000000000000004e .L0 
C:\Users\stapi\AppData\Local\Temp\ccjQ9O0I.s:2760   .text.CoAPMessageId_cancel:0000000000000050 .L0 
C:\Users\stapi\AppData\Local\Temp\ccjQ9O0I.s:2762   .text.CoAPMessageId_cancel:000000000000005a .L0 
C:\Users\stapi\AppData\Local\Temp\ccjQ9O0I.s:2763   .text.CoAPMessageId_cancel:000000000000005a .L0 
C:\Users\stapi\AppData\Local\Temp\ccjQ9O0I.s:2764   .text.CoAPMessageId_cancel:000000000000005a .L0 
C:\Users\stapi\AppData\Local\Temp\ccjQ9O0I.s:2765   .text.CoAPMessageId_cancel:000000000000005a .L0 
C:\Users\stapi\AppData\Local\Temp\ccjQ9O0I.s:2766   .text.CoAPMessageId_cancel:000000000000005a .L0 
C:\Users\stapi\AppData\Local\Temp\ccjQ9O0I.s:2767   .text.CoAPMessageId_cancel:000000000000005a .L0 
C:\Users\stapi\AppData\Local\Temp\ccjQ9O0I.s:2768   .text.CoAPMessageId_cancel:000000000000005a .L0 
C:\Users\stapi\AppData\Local\Temp\ccjQ9O0I.s:2769   .text.CoAPMessageId_cancel:000000000000005a .L0 
C:\Users\stapi\AppData\Local\Temp\ccjQ9O0I.s:2770   .text.CoAPMessageId_cancel:000000000000005a .L0 
C:\Users\stapi\AppData\Local\Temp\ccjQ9O0I.s:2771   .text.CoAPMessageId_cancel:000000000000005a .L0 
C:\Users\stapi\AppData\Local\Temp\ccjQ9O0I.s:2772   .text.CoAPMessageId_cancel:000000000000005a .L0 
C:\Users\stapi\AppData\Local\Temp\ccjQ9O0I.s:2775   .text.CoAPMessageId_cancel:000000000000005a .L0 
C:\Users\stapi\AppData\Local\Temp\ccjQ9O0I.s:2777   .text.CoAPMessageId_cancel:000000000000005a .L0 
C:\Users\stapi\AppData\Local\Temp\ccjQ9O0I.s:2778   .text.CoAPMessageId_cancel:000000000000005a .L0 
C:\Users\stapi\AppData\Local\Temp\ccjQ9O0I.s:2779   .text.CoAPMessageId_cancel:000000000000005a .L0 
C:\Users\stapi\AppData\Local\Temp\ccjQ9O0I.s:2781   .text.CoAPMessageId_cancel:000000000000005e .L0 
C:\Users\stapi\AppData\Local\Temp\ccjQ9O0I.s:2786   .text.CoAPMessageId_cancel:0000000000000062 .L0 
C:\Users\stapi\AppData\Local\Temp\ccjQ9O0I.s:2787   .text.CoAPMessageId_cancel:0000000000000062 .L0 
C:\Users\stapi\AppData\Local\Temp\ccjQ9O0I.s:2788   .text.CoAPMessageId_cancel:0000000000000062 .L0 
C:\Users\stapi\AppData\Local\Temp\ccjQ9O0I.s:2791   .text.CoAPMessageId_cancel:0000000000000064 .L0 
C:\Users\stapi\AppData\Local\Temp\ccjQ9O0I.s:2792   .text.CoAPMessageId_cancel:0000000000000064 .L0 
C:\Users\stapi\AppData\Local\Temp\ccjQ9O0I.s:2797   .text.CoAPMessageId_cancel:0000000000000066 .L0 
C:\Users\stapi\AppData\Local\Temp\ccjQ9O0I.s:2798   .text.CoAPMessageId_cancel:0000000000000066 .L0 
C:\Users\stapi\AppData\Local\Temp\ccjQ9O0I.s:2803   .text.CoAPMessageId_cancel:000000000000006c .L0 
C:\Users\stapi\AppData\Local\Temp\ccjQ9O0I.s:2805   .text.CoAPMessageId_cancel:000000000000006e .L0 
C:\Users\stapi\AppData\Local\Temp\ccjQ9O0I.s:2806   .text.CoAPMessageId_cancel:000000000000006e .L0 
C:\Users\stapi\AppData\Local\Temp\ccjQ9O0I.s:2811   .text.CoAPMessageId_cancel:0000000000000070 .L0 
C:\Users\stapi\AppData\Local\Temp\ccjQ9O0I.s:2812   .text.CoAPMessageId_cancel:0000000000000070 .L0 
C:\Users\stapi\AppData\Local\Temp\ccjQ9O0I.s:2814   .text.CoAPMessageId_cancel:0000000000000074 .L0 
C:\Users\stapi\AppData\Local\Temp\ccjQ9O0I.s:2817   .text.CoAPMessageId_cancel:000000000000007a .L0 
C:\Users\stapi\AppData\Local\Temp\ccjQ9O0I.s:2821   .text.CoAPMessageId_cancel:0000000000000084 .L0 
C:\Users\stapi\AppData\Local\Temp\ccjQ9O0I.s:2826   .text.CoAPMessageId_cancel:0000000000000094 .L0 
C:\Users\stapi\AppData\Local\Temp\ccjQ9O0I.s:2830   .text.CoAPMessageId_cancel:000000000000009e .L0 
C:\Users\stapi\AppData\Local\Temp\ccjQ9O0I.s:2836   .text.CoAPMessageId_cancel:00000000000000a8 .L0 
C:\Users\stapi\AppData\Local\Temp\ccjQ9O0I.s:2840   .text.CoAPMessageId_cancel:00000000000000a8 .L0 
C:\Users\stapi\AppData\Local\Temp\ccjQ9O0I.s:2841   .text.CoAPMessageId_cancel:00000000000000a8 .L0 
C:\Users\stapi\AppData\Local\Temp\ccjQ9O0I.s:2849   .text.CoAPMessageId_cancel:00000000000000b4 .L0 
C:\Users\stapi\AppData\Local\Temp\ccjQ9O0I.s:2850   .text.CoAPMessageId_cancel:00000000000000b4 .L0 
C:\Users\stapi\AppData\Local\Temp\ccjQ9O0I.s:2851   .text.CoAPMessageId_cancel:00000000000000b4 .L0 
C:\Users\stapi\AppData\Local\Temp\ccjQ9O0I.s:2852   .text.CoAPMessageId_cancel:00000000000000b4 .L0 
C:\Users\stapi\AppData\Local\Temp\ccjQ9O0I.s:2853   .text.CoAPMessageId_cancel:00000000000000b4 .L0 
C:\Users\stapi\AppData\Local\Temp\ccjQ9O0I.s:2854   .text.CoAPMessageId_cancel:00000000000000b4 .L0 
C:\Users\stapi\AppData\Local\Temp\ccjQ9O0I.s:2855   .text.CoAPMessageId_cancel:00000000000000b4 .L0 
C:\Users\stapi\AppData\Local\Temp\ccjQ9O0I.s:2856   .text.CoAPMessageId_cancel:00000000000000b4 .L0 
C:\Users\stapi\AppData\Local\Temp\ccjQ9O0I.s:2857   .text.CoAPMessageId_cancel:00000000000000b4 .L0 
C:\Users\stapi\AppData\Local\Temp\ccjQ9O0I.s:2858   .text.CoAPMessageId_cancel:00000000000000b4 .L0 
C:\Users\stapi\AppData\Local\Temp\ccjQ9O0I.s:2860   .text.CoAPMessageId_cancel:00000000000000b4 .L0 
C:\Users\stapi\AppData\Local\Temp\ccjQ9O0I.s:2862   .text.CoAPMessageId_cancel:00000000000000b8 .L0 
C:\Users\stapi\AppData\Local\Temp\ccjQ9O0I.s:2865   .text.CoAPMessageId_cancel:00000000000000bc .L0 
C:\Users\stapi\AppData\Local\Temp\ccjQ9O0I.s:2909   .text.CoAPMessage_process:0000000000000000 CoAPMessage_process
C:\Users\stapi\AppData\Local\Temp\ccjQ9O0I.s:2912   .text.CoAPMessage_process:0000000000000000 .L0 
C:\Users\stapi\AppData\Local\Temp\ccjQ9O0I.s:2914   .text.CoAPMessage_process:0000000000000000 .L0 
C:\Users\stapi\AppData\Local\Temp\ccjQ9O0I.s:2915   .text.CoAPMessage_process:0000000000000008 .L0 
C:\Users\stapi\AppData\Local\Temp\ccjQ9O0I.s:2916   .text.CoAPMessage_process:0000000000000008 .L0 
C:\Users\stapi\AppData\Local\Temp\ccjQ9O0I.s:2917   .text.CoAPMessage_process:0000000000000008 .L0 
C:\Users\stapi\AppData\Local\Temp\ccjQ9O0I.s:2918   .text.CoAPMessage_process:0000000000000008 .L0 
C:\Users\stapi\AppData\Local\Temp\ccjQ9O0I.s:2919   .text.CoAPMessage_process:0000000000000008 .L0 
C:\Users\stapi\AppData\Local\Temp\ccjQ9O0I.s:2920   .text.CoAPMessage_process:0000000000000008 .L0 
C:\Users\stapi\AppData\Local\Temp\ccjQ9O0I.s:2921   .text.CoAPMessage_process:0000000000000008 .L0 
C:\Users\stapi\AppData\Local\Temp\ccjQ9O0I.s:2922   .text.CoAPMessage_process:0000000000000008 .L0 
C:\Users\stapi\AppData\Local\Temp\ccjQ9O0I.s:2923   .text.CoAPMessage_process:0000000000000008 .L0 
C:\Users\stapi\AppData\Local\Temp\ccjQ9O0I.s:2924   .text.CoAPMessage_process:0000000000000008 .L0 
C:\Users\stapi\AppData\Local\Temp\ccjQ9O0I.s:2925   .text.CoAPMessage_process:0000000000000008 .L0 
C:\Users\stapi\AppData\Local\Temp\ccjQ9O0I.s:2926   .text.CoAPMessage_process:0000000000000008 .L0 
C:\Users\stapi\AppData\Local\Temp\ccjQ9O0I.s:2929   .text.CoAPMessage_process:0000000000000008 .L0 
C:\Users\stapi\AppData\Local\Temp\ccjQ9O0I.s:2930   .text.CoAPMessage_process:0000000000000008 .L0 
C:\Users\stapi\AppData\Local\Temp\ccjQ9O0I.s:2931   .text.CoAPMessage_process:0000000000000008 .L0 
C:\Users\stapi\AppData\Local\Temp\ccjQ9O0I.s:2932   .text.CoAPMessage_process:0000000000000008 .L0 
C:\Users\stapi\AppData\Local\Temp\ccjQ9O0I.s:2933   .text.CoAPMessage_process:000000000000000a .L0 
C:\Users\stapi\AppData\Local\Temp\ccjQ9O0I.s:2935   .text.CoAPMessage_process:000000000000000a .L0 
C:\Users\stapi\AppData\Local\Temp\ccjQ9O0I.s:2937   .text.CoAPMessage_process:000000000000000c .L0 
C:\Users\stapi\AppData\Local\Temp\ccjQ9O0I.s:2944   .text.CoAPMessage_process:0000000000000018 .L0 
C:\Users\stapi\AppData\Local\Temp\ccjQ9O0I.s:2945   .text.CoAPMessage_process:0000000000000018 .L0 
C:\Users\stapi\AppData\Local\Temp\ccjQ9O0I.s:2946   .text.CoAPMessage_process:0000000000000018 .L0 
C:\Users\stapi\AppData\Local\Temp\ccjQ9O0I.s:2948   .text.CoAPMessage_process:000000000000001c .L0 
C:\Users\stapi\AppData\Local\Temp\ccjQ9O0I.s:2951   .text.CoAPMessage_process:0000000000000022 .L0 
C:\Users\stapi\AppData\Local\Temp\ccjQ9O0I.s:2952   .text.CoAPMessage_process:0000000000000022 .L0 
C:\Users\stapi\AppData\Local\Temp\ccjQ9O0I.s:2958   .text.CoAPMessage_process:000000000000002a .L0 
C:\Users\stapi\AppData\Local\Temp\ccjQ9O0I.s:2964   .text.CoAPMessage_process:0000000000000036 .L0 
C:\Users\stapi\AppData\Local\Temp\ccjQ9O0I.s:2967   .text.CoAPMessage_process:000000000000003e .L0 
C:\Users\stapi\AppData\Local\Temp\ccjQ9O0I.s:2968   .text.CoAPMessage_process:000000000000003e .L0 
C:\Users\stapi\AppData\Local\Temp\ccjQ9O0I.s:2978   .text.CoAPMessage_process:0000000000000054 .L0 
C:\Users\stapi\AppData\Local\Temp\ccjQ9O0I.s:2979   .text.CoAPMessage_process:0000000000000054 .L0 
C:\Users\stapi\AppData\Local\Temp\ccjQ9O0I.s:2981   .text.CoAPMessage_process:0000000000000058 .L0 
C:\Users\stapi\AppData\Local\Temp\ccjQ9O0I.s:2986   .text.CoAPMessage_process:0000000000000064 .L0 
C:\Users\stapi\AppData\Local\Temp\ccjQ9O0I.s:2987   .text.CoAPMessage_process:0000000000000064 .L0 
C:\Users\stapi\AppData\Local\Temp\ccjQ9O0I.s:2990   .text.CoAPMessage_process:000000000000006a .L0 
C:\Users\stapi\AppData\Local\Temp\ccjQ9O0I.s:2996   .text.CoAPMessage_process:0000000000000078 .L0 
C:\Users\stapi\AppData\Local\Temp\ccjQ9O0I.s:3001   .text.CoAPMessage_process:000000000000007c .L0 
C:\Users\stapi\AppData\Local\Temp\ccjQ9O0I.s:3002   .text.CoAPMessage_process:000000000000007c .L0 
C:\Users\stapi\AppData\Local\Temp\ccjQ9O0I.s:3014   .text.CoAPMessage_process:000000000000009c .L0 
C:\Users\stapi\AppData\Local\Temp\ccjQ9O0I.s:3019   .text.CoAPMessage_process:00000000000000a0 .L0 
C:\Users\stapi\AppData\Local\Temp\ccjQ9O0I.s:3020   .text.CoAPMessage_process:00000000000000a0 .L0 
C:\Users\stapi\AppData\Local\Temp\ccjQ9O0I.s:3021   .text.CoAPMessage_process:00000000000000a0 .L0 
C:\Users\stapi\AppData\Local\Temp\ccjQ9O0I.s:3022   .text.CoAPMessage_process:00000000000000a0 .L0 
C:\Users\stapi\AppData\Local\Temp\ccjQ9O0I.s:3025   .text.CoAPMessage_process:00000000000000a8 .L0 
C:\Users\stapi\AppData\Local\Temp\ccjQ9O0I.s:3031   .text.CoAPMessage_process:00000000000000b8 .L0 
C:\Users\stapi\AppData\Local\Temp\ccjQ9O0I.s:3032   .text.CoAPMessage_process:00000000000000b8 .L0 
C:\Users\stapi\AppData\Local\Temp\ccjQ9O0I.s:3038   .text.CoAPMessage_process:00000000000000c8 .L0 
C:\Users\stapi\AppData\Local\Temp\ccjQ9O0I.s:3039   .text.CoAPMessage_process:00000000000000c8 .L0 
C:\Users\stapi\AppData\Local\Temp\ccjQ9O0I.s:3040   .text.CoAPMessage_process:00000000000000c8 .L0 
C:\Users\stapi\AppData\Local\Temp\ccjQ9O0I.s:3041   .text.CoAPMessage_process:00000000000000c8 .L0 
C:\Users\stapi\AppData\Local\Temp\ccjQ9O0I.s:3044   .text.CoAPMessage_process:00000000000000d0 .L0 
C:\Users\stapi\AppData\Local\Temp\ccjQ9O0I.s:3047   .text.CoAPMessage_process:00000000000000d4 .L0 
C:\Users\stapi\AppData\Local\Temp\ccjQ9O0I.s:3053   .text.CoAPMessage_process:00000000000000e0 .L0 
C:\Users\stapi\AppData\Local\Temp\ccjQ9O0I.s:3054   .text.CoAPMessage_process:00000000000000e0 .L0 
C:\Users\stapi\AppData\Local\Temp\ccjQ9O0I.s:3059   .text.CoAPMessage_process:00000000000000ea .L0 
C:\Users\stapi\AppData\Local\Temp\ccjQ9O0I.s:3064   .text.CoAPMessage_process:00000000000000f2 .L0 
C:\Users\stapi\AppData\Local\Temp\ccjQ9O0I.s:3066   .text.CoAPMessage_process:00000000000000f6 .L0 
C:\Users\stapi\AppData\Local\Temp\ccjQ9O0I.s:3068   .text.CoAPMessage_process:00000000000000f8 .L0 
C:\Users\stapi\AppData\Local\Temp\ccjQ9O0I.s:3070   .text.CoAPMessage_process:00000000000000fa .L0 
C:\Users\stapi\AppData\Local\Temp\ccjQ9O0I.s:3076   .text.CoAPMessage_process:00000000000000fe .L0 
C:\Users\stapi\AppData\Local\Temp\ccjQ9O0I.s:3077   .text.CoAPMessage_process:00000000000000fe .L0 
C:\Users\stapi\AppData\Local\Temp\ccjQ9O0I.s:3078   .text.CoAPMessage_process:00000000000000fe .L0 
C:\Users\stapi\AppData\Local\Temp\ccjQ9O0I.s:3079   .text.CoAPMessage_process:00000000000000fe .L0 
C:\Users\stapi\AppData\Local\Temp\ccjQ9O0I.s:3083   .text.CoAPMessage_process:0000000000000108 .L0 
C:\Users\stapi\AppData\Local\Temp\ccjQ9O0I.s:3085   .text.CoAPMessage_process:000000000000010a .L0 
C:\Users\stapi\AppData\Local\Temp\ccjQ9O0I.s:3087   .text.CoAPMessage_process:000000000000010e .L0 
C:\Users\stapi\AppData\Local\Temp\ccjQ9O0I.s:3095   .text.CoAPMessage_process:000000000000011c .L0 
C:\Users\stapi\AppData\Local\Temp\ccjQ9O0I.s:3104   .text.CoAPMessage_process:0000000000000124 .L0 
C:\Users\stapi\AppData\Local\Temp\ccjQ9O0I.s:3108   .text.CoAPMessage_process:000000000000012e .L0 
C:\Users\stapi\AppData\Local\Temp\ccjQ9O0I.s:3109   .text.CoAPMessage_process:000000000000012e .L0 
C:\Users\stapi\AppData\Local\Temp\ccjQ9O0I.s:3117   .text.CoAPMessage_process:0000000000000130 .L0 
C:\Users\stapi\AppData\Local\Temp\ccjQ9O0I.s:3118   .text.CoAPMessage_process:0000000000000130 .L0 
C:\Users\stapi\AppData\Local\Temp\ccjQ9O0I.s:3122   .text.CoAPMessage_process:0000000000000138 .L0 
C:\Users\stapi\AppData\Local\Temp\ccjQ9O0I.s:3123   .text.CoAPMessage_process:0000000000000138 .L0 
C:\Users\stapi\AppData\Local\Temp\ccjQ9O0I.s:3127   .text.CoAPMessage_process:0000000000000140 .L0 
C:\Users\stapi\AppData\Local\Temp\ccjQ9O0I.s:3130   .text.CoAPMessage_process:0000000000000144 .L0 
C:\Users\stapi\AppData\Local\Temp\ccjQ9O0I.s:3131   .text.CoAPMessage_process:0000000000000144 .L0 
C:\Users\stapi\AppData\Local\Temp\ccjQ9O0I.s:3134   .text.CoAPMessage_process:0000000000000148 .L0 
C:\Users\stapi\AppData\Local\Temp\ccjQ9O0I.s:3135   .text.CoAPMessage_process:0000000000000148 .L0 
C:\Users\stapi\AppData\Local\Temp\ccjQ9O0I.s:3138   .text.CoAPMessage_process:0000000000000150 .L0 
C:\Users\stapi\AppData\Local\Temp\ccjQ9O0I.s:3139   .text.CoAPMessage_process:0000000000000150 .L0 
C:\Users\stapi\AppData\Local\Temp\ccjQ9O0I.s:3142   .text.CoAPMessage_process:0000000000000154 .L0 
C:\Users\stapi\AppData\Local\Temp\ccjQ9O0I.s:3143   .text.CoAPMessage_process:0000000000000154 .L0 
C:\Users\stapi\AppData\Local\Temp\ccjQ9O0I.s:3146   .text.CoAPMessage_process:000000000000015c .L0 
C:\Users\stapi\AppData\Local\Temp\ccjQ9O0I.s:3152   .text.CoAPMessage_process:0000000000000164 .L0 
C:\Users\stapi\AppData\Local\Temp\ccjQ9O0I.s:3153   .text.CoAPMessage_process:0000000000000164 .L0 
C:\Users\stapi\AppData\Local\Temp\ccjQ9O0I.s:3154   .text.CoAPMessage_process:0000000000000164 .L0 
C:\Users\stapi\AppData\Local\Temp\ccjQ9O0I.s:3157   .text.CoAPMessage_process:0000000000000166 .L0 
C:\Users\stapi\AppData\Local\Temp\ccjQ9O0I.s:3158   .text.CoAPMessage_process:0000000000000166 .L0 
C:\Users\stapi\AppData\Local\Temp\ccjQ9O0I.s:3163   .text.CoAPMessage_process:0000000000000168 .L0 
C:\Users\stapi\AppData\Local\Temp\ccjQ9O0I.s:3164   .text.CoAPMessage_process:0000000000000168 .L0 
C:\Users\stapi\AppData\Local\Temp\ccjQ9O0I.s:3168   .text.CoAPMessage_process:000000000000016a .L0 
C:\Users\stapi\AppData\Local\Temp\ccjQ9O0I.s:3170   .text.CoAPMessage_process:000000000000016c .L0 
C:\Users\stapi\AppData\Local\Temp\ccjQ9O0I.s:3171   .text.CoAPMessage_process:000000000000016c .L0 
C:\Users\stapi\AppData\Local\Temp\ccjQ9O0I.s:3176   .text.CoAPMessage_process:000000000000016e .L0 
C:\Users\stapi\AppData\Local\Temp\ccjQ9O0I.s:3179   .text.CoAPMessage_process:0000000000000176 .L0 
C:\Users\stapi\AppData\Local\Temp\ccjQ9O0I.s:3183   .text.CoAPMessage_process:0000000000000180 .L0 
C:\Users\stapi\AppData\Local\Temp\ccjQ9O0I.s:3184   .text.CoAPMessage_process:0000000000000180 .L0 
C:\Users\stapi\AppData\Local\Temp\ccjQ9O0I.s:3186   .text.CoAPMessage_process:0000000000000184 .L0 
C:\Users\stapi\AppData\Local\Temp\ccjQ9O0I.s:3189   .text.CoAPMessage_process:000000000000018c .L0 
C:\Users\stapi\AppData\Local\Temp\ccjQ9O0I.s:3192   .text.CoAPMessage_process:0000000000000192 .L0 
C:\Users\stapi\AppData\Local\Temp\ccjQ9O0I.s:3194   .text.CoAPMessage_process:0000000000000196 .L0 
C:\Users\stapi\AppData\Local\Temp\ccjQ9O0I.s:3196   .text.CoAPMessage_process:000000000000019a .L0 
C:\Users\stapi\AppData\Local\Temp\ccjQ9O0I.s:3210   .text.CoAPMessage_process:00000000000001b4 .L0 
C:\Users\stapi\AppData\Local\Temp\ccjQ9O0I.s:3216   .text.CoAPMessage_process:00000000000001b4 .L0 
C:\Users\stapi\AppData\Local\Temp\ccjQ9O0I.s:3217   .text.CoAPMessage_process:00000000000001b4 .L0 
C:\Users\stapi\AppData\Local\Temp\ccjQ9O0I.s:3221   .text.CoAPMessage_process:00000000000001be .L0 
C:\Users\stapi\AppData\Local\Temp\ccjQ9O0I.s:3222   .text.CoAPMessage_process:00000000000001be .L0 
C:\Users\stapi\AppData\Local\Temp\ccjQ9O0I.s:3224   .text.CoAPMessage_process:00000000000001c2 .L0 
C:\Users\stapi\AppData\Local\Temp\ccjQ9O0I.s:3238   .text.CoAPMessage_process:00000000000001ce .L0 
C:\Users\stapi\AppData\Local\Temp\ccjQ9O0I.s:3239   .text.CoAPMessage_process:00000000000001ce .L0 
C:\Users\stapi\AppData\Local\Temp\ccjQ9O0I.s:3243   .text.CoAPMessage_process:00000000000001d0 .L0 
C:\Users\stapi\AppData\Local\Temp\ccjQ9O0I.s:3245   .text.CoAPMessage_process:00000000000001d4 .L0 
C:\Users\stapi\AppData\Local\Temp\ccjQ9O0I.s:3246   .text.CoAPMessage_process:00000000000001d4 .L0 
C:\Users\stapi\AppData\Local\Temp\ccjQ9O0I.s:3249   .text.CoAPMessage_process:00000000000001dc .L0 
C:\Users\stapi\AppData\Local\Temp\ccjQ9O0I.s:3250   .text.CoAPMessage_process:00000000000001dc .L0 
C:\Users\stapi\AppData\Local\Temp\ccjQ9O0I.s:3251   .text.CoAPMessage_process:00000000000001dc .L0 
C:\Users\stapi\AppData\Local\Temp\ccjQ9O0I.s:3252   .text.CoAPMessage_process:00000000000001dc .L0 
C:\Users\stapi\AppData\Local\Temp\ccjQ9O0I.s:3253   .text.CoAPMessage_process:00000000000001dc .L0 
C:\Users\stapi\AppData\Local\Temp\ccjQ9O0I.s:3254   .text.CoAPMessage_process:00000000000001dc .L0 
C:\Users\stapi\AppData\Local\Temp\ccjQ9O0I.s:3255   .text.CoAPMessage_process:00000000000001dc .L0 
C:\Users\stapi\AppData\Local\Temp\ccjQ9O0I.s:3256   .text.CoAPMessage_process:00000000000001dc .L0 
C:\Users\stapi\AppData\Local\Temp\ccjQ9O0I.s:3257   .text.CoAPMessage_process:00000000000001dc .L0 
C:\Users\stapi\AppData\Local\Temp\ccjQ9O0I.s:3258   .text.CoAPMessage_process:00000000000001dc .L0 
C:\Users\stapi\AppData\Local\Temp\ccjQ9O0I.s:3259   .text.CoAPMessage_process:00000000000001dc .L0 
C:\Users\stapi\AppData\Local\Temp\ccjQ9O0I.s:3260   .text.CoAPMessage_process:00000000000001dc .L0 
C:\Users\stapi\AppData\Local\Temp\ccjQ9O0I.s:3263   .text.CoAPMessage_process:00000000000001dc .L0 
C:\Users\stapi\AppData\Local\Temp\ccjQ9O0I.s:3269   .text.CoAPMessage_process:00000000000001dc .L0 
C:\Users\stapi\AppData\Local\Temp\ccjQ9O0I.s:3280   .text.CoAPMessage_process:00000000000001e6 .L0 
C:\Users\stapi\AppData\Local\Temp\ccjQ9O0I.s:3281   .text.CoAPMessage_process:00000000000001e6 .L0 
C:\Users\stapi\AppData\Local\Temp\ccjQ9O0I.s:3284   .text.CoAPMessage_process:00000000000001ee .L0 
C:\Users\stapi\AppData\Local\Temp\ccjQ9O0I.s:3290   .text.CoAPMessage_process:00000000000001f6 .L0 
C:\Users\stapi\AppData\Local\Temp\ccjQ9O0I.s:3291   .text.CoAPMessage_process:00000000000001f6 .L0 
C:\Users\stapi\AppData\Local\Temp\ccjQ9O0I.s:3292   .text.CoAPMessage_process:00000000000001f6 .L0 
C:\Users\stapi\AppData\Local\Temp\ccjQ9O0I.s:3293   .text.CoAPMessage_process:00000000000001f6 .L0 
C:\Users\stapi\AppData\Local\Temp\ccjQ9O0I.s:3294   .text.CoAPMessage_process:00000000000001f6 .L0 
C:\Users\stapi\AppData\Local\Temp\ccjQ9O0I.s:3295   .text.CoAPMessage_process:00000000000001f6 .L0 
C:\Users\stapi\AppData\Local\Temp\ccjQ9O0I.s:3296   .text.CoAPMessage_process:00000000000001f6 .L0 
C:\Users\stapi\AppData\Local\Temp\ccjQ9O0I.s:3298   .text.CoAPMessage_process:00000000000001f8 .L0 
C:\Users\stapi\AppData\Local\Temp\ccjQ9O0I.s:3306   .text.CoAPMessage_process:0000000000000208 .L0 
C:\Users\stapi\AppData\Local\Temp\ccjQ9O0I.s:3308   .text.CoAPMessage_process:000000000000020a .L0 
C:\Users\stapi\AppData\Local\Temp\ccjQ9O0I.s:3310   .text.CoAPMessage_process:000000000000020e .L0 
C:\Users\stapi\AppData\Local\Temp\ccjQ9O0I.s:3313   .text.CoAPMessage_process:0000000000000216 .L0 
C:\Users\stapi\AppData\Local\Temp\ccjQ9O0I.s:3315   .text.CoAPMessage_process:0000000000000218 .L0 
C:\Users\stapi\AppData\Local\Temp\ccjQ9O0I.s:3317   .text.CoAPMessage_process:000000000000021a .L0 
C:\Users\stapi\AppData\Local\Temp\ccjQ9O0I.s:3319   .text.CoAPMessage_process:000000000000021e .L0 
C:\Users\stapi\AppData\Local\Temp\ccjQ9O0I.s:3321   .text.CoAPMessage_process:0000000000000222 .L0 
C:\Users\stapi\AppData\Local\Temp\ccjQ9O0I.s:3323   .text.CoAPMessage_process:0000000000000226 .L0 
C:\Users\stapi\AppData\Local\Temp\ccjQ9O0I.s:3328   .text.CoAPMessage_process:000000000000022e .L0 
C:\Users\stapi\AppData\Local\Temp\ccjQ9O0I.s:3331   .text.CoAPMessage_process:0000000000000232 .L0 
C:\Users\stapi\AppData\Local\Temp\ccjQ9O0I.s:3334   .text.CoAPMessage_process:000000000000023a .L0 
C:\Users\stapi\AppData\Local\Temp\ccjQ9O0I.s:3340   .text.CoAPMessage_process:000000000000023e .L0 
C:\Users\stapi\AppData\Local\Temp\ccjQ9O0I.s:3341   .text.CoAPMessage_process:000000000000023e .L0 
C:\Users\stapi\AppData\Local\Temp\ccjQ9O0I.s:3343   .text.CoAPMessage_process:0000000000000242 .L0 
C:\Users\stapi\AppData\Local\Temp\ccjQ9O0I.s:3346   .text.CoAPMessage_process:000000000000024a .L0 
C:\Users\stapi\AppData\Local\Temp\ccjQ9O0I.s:3348   .text.CoAPMessage_process:000000000000024e .L0 
C:\Users\stapi\AppData\Local\Temp\ccjQ9O0I.s:3351   .text.CoAPMessage_process:0000000000000256 .L0 
C:\Users\stapi\AppData\Local\Temp\ccjQ9O0I.s:3357   .text.CoAPMessage_process:0000000000000266 .L0 
C:\Users\stapi\AppData\Local\Temp\ccjQ9O0I.s:3360   .text.CoAPMessage_process:000000000000026a .L0 
C:\Users\stapi\AppData\Local\Temp\ccjQ9O0I.s:3361   .text.CoAPMessage_process:000000000000026a .L0 
C:\Users\stapi\AppData\Local\Temp\ccjQ9O0I.s:3369   .text.CoAPMessage_process:000000000000027a .L0 
C:\Users\stapi\AppData\Local\Temp\ccjQ9O0I.s:3372   .text.CoAPMessage_process:000000000000027a .L0 
C:\Users\stapi\AppData\Local\Temp\ccjQ9O0I.s:3373   .text.CoAPMessage_process:000000000000027a .L0 
C:\Users\stapi\AppData\Local\Temp\ccjQ9O0I.s:3377   .text.CoAPMessage_process:000000000000027c .L0 
C:\Users\stapi\AppData\Local\Temp\ccjQ9O0I.s:3381   .text.CoAPMessage_process:0000000000000286 .L0 
C:\Users\stapi\AppData\Local\Temp\ccjQ9O0I.s:3382   .text.CoAPMessage_process:0000000000000286 .L0 
C:\Users\stapi\AppData\Local\Temp\ccjQ9O0I.s:3385   .text.CoAPMessage_process:0000000000000288 .L0 
C:\Users\stapi\AppData\Local\Temp\ccjQ9O0I.s:3386   .text.CoAPMessage_process:0000000000000288 .L0 
C:\Users\stapi\AppData\Local\Temp\ccjQ9O0I.s:3388   .text.CoAPMessage_process:000000000000028c .L0 
C:\Users\stapi\AppData\Local\Temp\ccjQ9O0I.s:3390   .text.CoAPMessage_process:0000000000000290 .L0 
C:\Users\stapi\AppData\Local\Temp\ccjQ9O0I.s:3392   .text.CoAPMessage_process:0000000000000292 .L0 
C:\Users\stapi\AppData\Local\Temp\ccjQ9O0I.s:3393   .text.CoAPMessage_process:0000000000000292 .L0 
C:\Users\stapi\AppData\Local\Temp\ccjQ9O0I.s:3396   .text.CoAPMessage_process:000000000000029a .L0 
C:\Users\stapi\AppData\Local\Temp\ccjQ9O0I.s:3397   .text.CoAPMessage_process:000000000000029a .L0 
C:\Users\stapi\AppData\Local\Temp\ccjQ9O0I.s:3399   .text.CoAPMessage_process:000000000000029c .L0 
C:\Users\stapi\AppData\Local\Temp\ccjQ9O0I.s:3401   .text.CoAPMessage_process:000000000000029e .L0 
C:\Users\stapi\AppData\Local\Temp\ccjQ9O0I.s:3409   .text.CoAPMessage_process:00000000000002a4 .L0 
C:\Users\stapi\AppData\Local\Temp\ccjQ9O0I.s:3410   .text.CoAPMessage_process:00000000000002a4 .L0 
C:\Users\stapi\AppData\Local\Temp\ccjQ9O0I.s:3412   .text.CoAPMessage_process:00000000000002a6 .L0 
C:\Users\stapi\AppData\Local\Temp\ccjQ9O0I.s:3414   .text.CoAPMessage_process:00000000000002a8 .L0 
C:\Users\stapi\AppData\Local\Temp\ccjQ9O0I.s:3424   .text.CoAPMessage_process:00000000000002b4 .L0 
C:\Users\stapi\AppData\Local\Temp\ccjQ9O0I.s:3435   .text.CoAPMessage_process:00000000000002d6 .L0 
C:\Users\stapi\AppData\Local\Temp\ccjQ9O0I.s:3439   .text.CoAPMessage_process:00000000000002e0 .L0 
C:\Users\stapi\AppData\Local\Temp\ccjQ9O0I.s:3441   .text.CoAPMessage_process:00000000000002e2 .L0 
C:\Users\stapi\AppData\Local\Temp\ccjQ9O0I.s:3443   .text.CoAPMessage_process:00000000000002e4 .L0 
C:\Users\stapi\AppData\Local\Temp\ccjQ9O0I.s:3445   .text.CoAPMessage_process:00000000000002e8 .L0 
C:\Users\stapi\AppData\Local\Temp\ccjQ9O0I.s:3448   .text.CoAPMessage_process:00000000000002ec .L0 
C:\Users\stapi\AppData\Local\Temp\ccjQ9O0I.s:3450   .text.CoAPMessage_process:00000000000002f0 .L0 
C:\Users\stapi\AppData\Local\Temp\ccjQ9O0I.s:3455   .text.CoAPMessage_process:00000000000002f8 .L0 
C:\Users\stapi\AppData\Local\Temp\ccjQ9O0I.s:3458   .text.CoAPMessage_process:00000000000002fc .L0 
C:\Users\stapi\AppData\Local\Temp\ccjQ9O0I.s:3461   .text.CoAPMessage_process:0000000000000304 .L0 
C:\Users\stapi\AppData\Local\Temp\ccjQ9O0I.s:3462   .text.CoAPMessage_process:0000000000000304 .L0 
C:\Users\stapi\AppData\Local\Temp\ccjQ9O0I.s:3464   .text.CoAPMessage_process:0000000000000308 .L0 
C:\Users\stapi\AppData\Local\Temp\ccjQ9O0I.s:3467   .text.CoAPMessage_process:000000000000030e .L0 
C:\Users\stapi\AppData\Local\Temp\ccjQ9O0I.s:3469   .text.CoAPMessage_process:0000000000000312 .L0 
C:\Users\stapi\AppData\Local\Temp\ccjQ9O0I.s:3472   .text.CoAPMessage_process:0000000000000318 .L0 
C:\Users\stapi\AppData\Local\Temp\ccjQ9O0I.s:3478   .text.CoAPMessage_process:0000000000000328 .L0 
C:\Users\stapi\AppData\Local\Temp\ccjQ9O0I.s:3480   .text.CoAPMessage_process:000000000000032a .L0 
C:\Users\stapi\AppData\Local\Temp\ccjQ9O0I.s:3481   .text.CoAPMessage_process:000000000000032a .L0 
C:\Users\stapi\AppData\Local\Temp\ccjQ9O0I.s:3491   .text.CoAPMessage_process:0000000000000332 .L0 
C:\Users\stapi\AppData\Local\Temp\ccjQ9O0I.s:3499   .text.CoAPMessage_process:0000000000000332 .L0 
C:\Users\stapi\AppData\Local\Temp\ccjQ9O0I.s:3500   .text.CoAPMessage_process:0000000000000332 .L0 
C:\Users\stapi\AppData\Local\Temp\ccjQ9O0I.s:3501   .text.CoAPMessage_process:0000000000000332 .L0 
C:\Users\stapi\AppData\Local\Temp\ccjQ9O0I.s:3503   .text.CoAPMessage_process:0000000000000334 .L0 
C:\Users\stapi\AppData\Local\Temp\ccjQ9O0I.s:3506   .text.CoAPMessage_process:0000000000000336 .L0 
C:\Users\stapi\AppData\Local\Temp\ccjQ9O0I.s:3507   .text.CoAPMessage_process:0000000000000336 .L0 
C:\Users\stapi\AppData\Local\Temp\ccjQ9O0I.s:3508   .text.CoAPMessage_process:0000000000000336 .L0 
C:\Users\stapi\AppData\Local\Temp\ccjQ9O0I.s:3510   .text.CoAPMessage_process:0000000000000338 .L0 
C:\Users\stapi\AppData\Local\Temp\ccjQ9O0I.s:3511   .text.CoAPMessage_process:0000000000000338 .L0 
C:\Users\stapi\AppData\Local\Temp\ccjQ9O0I.s:3528   .text.CoAPMessage_process:000000000000033a .L0 
C:\Users\stapi\AppData\Local\Temp\ccjQ9O0I.s:3529   .text.CoAPMessage_process:000000000000033a .L0 
C:\Users\stapi\AppData\Local\Temp\ccjQ9O0I.s:3530   .text.CoAPMessage_process:000000000000033a .L0 
C:\Users\stapi\AppData\Local\Temp\ccjQ9O0I.s:3532   .text.CoAPMessage_process:000000000000033e .L0 
C:\Users\stapi\AppData\Local\Temp\ccjQ9O0I.s:3533   .text.CoAPMessage_process:000000000000033e .L0 
C:\Users\stapi\AppData\Local\Temp\ccjQ9O0I.s:3539   .text.CoAPMessage_process:0000000000000342 .L0 
C:\Users\stapi\AppData\Local\Temp\ccjQ9O0I.s:3540   .text.CoAPMessage_process:0000000000000342 .L0 
C:\Users\stapi\AppData\Local\Temp\ccjQ9O0I.s:3544   .text.CoAPMessage_process:000000000000034c .L0 
C:\Users\stapi\AppData\Local\Temp\ccjQ9O0I.s:3545   .text.CoAPMessage_process:000000000000034c .L0 
C:\Users\stapi\AppData\Local\Temp\ccjQ9O0I.s:3547   .text.CoAPMessage_process:000000000000034e .L0 
C:\Users\stapi\AppData\Local\Temp\ccjQ9O0I.s:3549   .text.CoAPMessage_process:0000000000000350 .L0 
C:\Users\stapi\AppData\Local\Temp\ccjQ9O0I.s:3553   .text.CoAPMessage_process:0000000000000358 .L0 
C:\Users\stapi\AppData\Local\Temp\ccjQ9O0I.s:3557   .text.CoAPMessage_process:0000000000000362 .L0 
C:\Users\stapi\AppData\Local\Temp\ccjQ9O0I.s:3564   .text.CoAPMessage_process:0000000000000374 .L0 
C:\Users\stapi\AppData\Local\Temp\ccjQ9O0I.s:3572   .text.CoAPMessage_process:0000000000000386 .L0 
C:\Users\stapi\AppData\Local\Temp\ccjQ9O0I.s:3581   .text.CoAPMessage_process:0000000000000392 .L0 
C:\Users\stapi\AppData\Local\Temp\ccjQ9O0I.s:3590   .text.CoAPMessage_process:00000000000003a6 .L0 
C:\Users\stapi\AppData\Local\Temp\ccjQ9O0I.s:3601   .text.CoAPMessage_process:00000000000003b2 .L0 
C:\Users\stapi\AppData\Local\Temp\ccjQ9O0I.s:3602   .text.CoAPMessage_process:00000000000003b2 .L0 
C:\Users\stapi\AppData\Local\Temp\ccjQ9O0I.s:3606   .text.CoAPMessage_process:00000000000003b4 .L0 
C:\Users\stapi\AppData\Local\Temp\ccjQ9O0I.s:3607   .text.CoAPMessage_process:00000000000003b4 .L0 
C:\Users\stapi\AppData\Local\Temp\ccjQ9O0I.s:3611   .text.CoAPMessage_process:00000000000003b6 .L0 
C:\Users\stapi\AppData\Local\Temp\ccjQ9O0I.s:3616   .text.CoAPMessage_process:00000000000003ba .L0 
C:\Users\stapi\AppData\Local\Temp\ccjQ9O0I.s:3617   .text.CoAPMessage_process:00000000000003ba .L0 
C:\Users\stapi\AppData\Local\Temp\ccjQ9O0I.s:3618   .text.CoAPMessage_process:00000000000003ba .L0 
C:\Users\stapi\AppData\Local\Temp\ccjQ9O0I.s:3619   .text.CoAPMessage_process:00000000000003ba .L0 
C:\Users\stapi\AppData\Local\Temp\ccjQ9O0I.s:3624   .text.CoAPMessage_process:00000000000003c2 .L0 
C:\Users\stapi\AppData\Local\Temp\ccjQ9O0I.s:3625   .text.CoAPMessage_process:00000000000003c2 .L0 
C:\Users\stapi\AppData\Local\Temp\ccjQ9O0I.s:3626   .text.CoAPMessage_process:00000000000003c2 .L0 
C:\Users\stapi\AppData\Local\Temp\ccjQ9O0I.s:3627   .text.CoAPMessage_process:00000000000003c2 .L0 
C:\Users\stapi\AppData\Local\Temp\ccjQ9O0I.s:3628   .text.CoAPMessage_process:00000000000003c2 .L0 
C:\Users\stapi\AppData\Local\Temp\ccjQ9O0I.s:3632   .text.CoAPMessage_process:00000000000003c6 .L0 
C:\Users\stapi\AppData\Local\Temp\ccjQ9O0I.s:3637   .text.CoAPMessage_process:00000000000003ce .L0 
C:\Users\stapi\AppData\Local\Temp\ccjQ9O0I.s:3641   .text.CoAPMessage_process:00000000000003d2 .L0 
C:\Users\stapi\AppData\Local\Temp\ccjQ9O0I.s:3649   .text.CoAPMessage_process:00000000000003e4 .L0 
C:\Users\stapi\AppData\Local\Temp\ccjQ9O0I.s:3654   .text.CoAPMessage_process:00000000000003e8 .L0 
C:\Users\stapi\AppData\Local\Temp\ccjQ9O0I.s:3657   .text.CoAPMessage_process:00000000000003e8 .L0 
C:\Users\stapi\AppData\Local\Temp\ccjQ9O0I.s:3658   .text.CoAPMessage_process:00000000000003e8 .L0 
C:\Users\stapi\AppData\Local\Temp\ccjQ9O0I.s:3659   .text.CoAPMessage_process:00000000000003e8 .L0 
C:\Users\stapi\AppData\Local\Temp\ccjQ9O0I.s:3660   .text.CoAPMessage_process:00000000000003e8 .L0 
C:\Users\stapi\AppData\Local\Temp\ccjQ9O0I.s:3665   .text.CoAPMessage_process:00000000000003ec .L0 
C:\Users\stapi\AppData\Local\Temp\ccjQ9O0I.s:3666   .text.CoAPMessage_process:00000000000003ec .L0 
C:\Users\stapi\AppData\Local\Temp\ccjQ9O0I.s:3669   .text.CoAPMessage_process:00000000000003f4 .L0 
C:\Users\stapi\AppData\Local\Temp\ccjQ9O0I.s:3670   .text.CoAPMessage_process:00000000000003f4 .L0 
C:\Users\stapi\AppData\Local\Temp\ccjQ9O0I.s:3677   .text.CoAPMessage_process:0000000000000402 .L0 
C:\Users\stapi\AppData\Local\Temp\ccjQ9O0I.s:3681   .text.CoAPMessage_process:000000000000040c .L0 
C:\Users\stapi\AppData\Local\Temp\ccjQ9O0I.s:3682   .text.CoAPMessage_process:000000000000040c .L0 
C:\Users\stapi\AppData\Local\Temp\ccjQ9O0I.s:3688   .text.CoAPMessage_process:000000000000040e .L0 
C:\Users\stapi\AppData\Local\Temp\ccjQ9O0I.s:3689   .text.CoAPMessage_process:000000000000040e .L0 
C:\Users\stapi\AppData\Local\Temp\ccjQ9O0I.s:3691   .text.CoAPMessage_process:0000000000000410 .L0 
C:\Users\stapi\AppData\Local\Temp\ccjQ9O0I.s:3698   .text.CoAPMessage_process:000000000000041a .L0 
C:\Users\stapi\AppData\Local\Temp\ccjQ9O0I.s:3699   .text.CoAPMessage_process:000000000000041a .L0 
C:\Users\stapi\AppData\Local\Temp\ccjQ9O0I.s:3700   .text.CoAPMessage_process:000000000000041a .L0 
C:\Users\stapi\AppData\Local\Temp\ccjQ9O0I.s:3701   .text.CoAPMessage_process:000000000000041a .L0 
C:\Users\stapi\AppData\Local\Temp\ccjQ9O0I.s:3702   .text.CoAPMessage_process:000000000000041a .L0 
C:\Users\stapi\AppData\Local\Temp\ccjQ9O0I.s:3703   .text.CoAPMessage_process:000000000000041a .L0 
C:\Users\stapi\AppData\Local\Temp\ccjQ9O0I.s:3710   .text.CoAPMessage_process:000000000000042c .L0 
C:\Users\stapi\AppData\Local\Temp\ccjQ9O0I.s:3711   .text.CoAPMessage_process:000000000000042c .L0 
C:\Users\stapi\AppData\Local\Temp\ccjQ9O0I.s:3712   .text.CoAPMessage_process:000000000000042c .L0 
C:\Users\stapi\AppData\Local\Temp\ccjQ9O0I.s:3723   .text.CoAPMessage_process:0000000000000450 .L0 
C:\Users\stapi\AppData\Local\Temp\ccjQ9O0I.s:3724   .text.CoAPMessage_process:0000000000000450 .L0 
C:\Users\stapi\AppData\Local\Temp\ccjQ9O0I.s:3729   .text.CoAPMessage_process:0000000000000454 .L0 
C:\Users\stapi\AppData\Local\Temp\ccjQ9O0I.s:3732   .text.CoAPMessage_process:0000000000000458 .L0 
C:\Users\stapi\AppData\Local\Temp\ccjQ9O0I.s:3734   .text.CoAPMessage_process:000000000000045a .L0 
C:\Users\stapi\AppData\Local\Temp\ccjQ9O0I.s:3736   .text.CoAPMessage_process:000000000000045e .L0 
C:\Users\stapi\AppData\Local\Temp\ccjQ9O0I.s:3740   .text.CoAPMessage_process:0000000000000462 .L0 
C:\Users\stapi\AppData\Local\Temp\ccjQ9O0I.s:3741   .text.CoAPMessage_process:0000000000000462 .L0 
C:\Users\stapi\AppData\Local\Temp\ccjQ9O0I.s:3743   .text.CoAPMessage_process:0000000000000466 .L0 
C:\Users\stapi\AppData\Local\Temp\ccjQ9O0I.s:3745   .text.CoAPMessage_process:000000000000046a .L0 
C:\Users\stapi\AppData\Local\Temp\ccjQ9O0I.s:3756   .text.CoAPMessage_process:000000000000048a .L0 
C:\Users\stapi\AppData\Local\Temp\ccjQ9O0I.s:3757   .text.CoAPMessage_process:000000000000048a .L0 
C:\Users\stapi\AppData\Local\Temp\ccjQ9O0I.s:3764   .text.CoAPMessage_process:0000000000000498 .L0 
C:\Users\stapi\AppData\Local\Temp\ccjQ9O0I.s:3765   .text.CoAPMessage_process:0000000000000498 .L0 
C:\Users\stapi\AppData\Local\Temp\ccjQ9O0I.s:3767   .text.CoAPMessage_process:000000000000049a .L0 
C:\Users\stapi\AppData\Local\Temp\ccjQ9O0I.s:3768   .text.CoAPMessage_process:000000000000049a .L0 
C:\Users\stapi\AppData\Local\Temp\ccjQ9O0I.s:3771   .text.CoAPMessage_process:000000000000049e .L0 
C:\Users\stapi\AppData\Local\Temp\ccjQ9O0I.s:3772   .text.CoAPMessage_process:000000000000049e .L0 
C:\Users\stapi\AppData\Local\Temp\ccjQ9O0I.s:3774   .text.CoAPMessage_process:00000000000004a2 .L0 
C:\Users\stapi\AppData\Local\Temp\ccjQ9O0I.s:3776   .text.CoAPMessage_process:00000000000004a6 .L0 
C:\Users\stapi\AppData\Local\Temp\ccjQ9O0I.s:3778   .text.CoAPMessage_process:00000000000004a8 .L0 
C:\Users\stapi\AppData\Local\Temp\ccjQ9O0I.s:3780   .text.CoAPMessage_process:00000000000004ac .L0 
C:\Users\stapi\AppData\Local\Temp\ccjQ9O0I.s:3782   .text.CoAPMessage_process:00000000000004ae .L0 
C:\Users\stapi\AppData\Local\Temp\ccjQ9O0I.s:3784   .text.CoAPMessage_process:00000000000004b0 .L0 
C:\Users\stapi\AppData\Local\Temp\ccjQ9O0I.s:3785   .text.CoAPMessage_process:00000000000004b0 .L0 
C:\Users\stapi\AppData\Local\Temp\ccjQ9O0I.s:3787   .text.CoAPMessage_process:00000000000004b4 .L0 
C:\Users\stapi\AppData\Local\Temp\ccjQ9O0I.s:3790   .text.CoAPMessage_process:00000000000004b8 .L0 
C:\Users\stapi\AppData\Local\Temp\ccjQ9O0I.s:3798   .text.CoAPMessage_process:00000000000004c8 .L0 
C:\Users\stapi\AppData\Local\Temp\ccjQ9O0I.s:3811   .text.CoAPMessage_process:00000000000004d6 .L0 
C:\Users\stapi\AppData\Local\Temp\ccjQ9O0I.s:3812   .text.CoAPMessage_process:00000000000004d6 .L0 
C:\Users\stapi\AppData\Local\Temp\ccjQ9O0I.s:3815   .text.CoAPMessage_process:00000000000004de .L0 
C:\Users\stapi\AppData\Local\Temp\ccjQ9O0I.s:3816   .text.CoAPMessage_process:00000000000004de .L0 
C:\Users\stapi\AppData\Local\Temp\ccjQ9O0I.s:3818   .text.CoAPMessage_process:00000000000004e2 .L0 
C:\Users\stapi\AppData\Local\Temp\ccjQ9O0I.s:3820   .text.CoAPMessage_process:00000000000004e6 .L0 
C:\Users\stapi\AppData\Local\Temp\ccjQ9O0I.s:3822   .text.CoAPMessage_process:00000000000004e8 .L0 
C:\Users\stapi\AppData\Local\Temp\ccjQ9O0I.s:3824   .text.CoAPMessage_process:00000000000004ec .L0 
C:\Users\stapi\AppData\Local\Temp\ccjQ9O0I.s:3825   .text.CoAPMessage_process:00000000000004ec .L0 
C:\Users\stapi\AppData\Local\Temp\ccjQ9O0I.s:3827   .text.CoAPMessage_process:00000000000004ee .L0 
C:\Users\stapi\AppData\Local\Temp\ccjQ9O0I.s:3829   .text.CoAPMessage_process:00000000000004f2 .L0 
C:\Users\stapi\AppData\Local\Temp\ccjQ9O0I.s:3832   .text.CoAPMessage_process:00000000000004f6 .L0 
C:\Users\stapi\AppData\Local\Temp\ccjQ9O0I.s:3833   .text.CoAPMessage_process:00000000000004f6 .L0 
C:\Users\stapi\AppData\Local\Temp\ccjQ9O0I.s:3838   .text.CoAPMessage_process:0000000000000502 .L0 
C:\Users\stapi\AppData\Local\Temp\ccjQ9O0I.s:3839   .text.CoAPMessage_process:0000000000000502 .L0 
C:\Users\stapi\AppData\Local\Temp\ccjQ9O0I.s:3843   .text.CoAPMessage_process:0000000000000504 .L0 
C:\Users\stapi\AppData\Local\Temp\ccjQ9O0I.s:3844   .text.CoAPMessage_process:0000000000000504 .L0 
C:\Users\stapi\AppData\Local\Temp\ccjQ9O0I.s:3851   .text.CoAPMessage_process:000000000000050a .L0 
C:\Users\stapi\AppData\Local\Temp\ccjQ9O0I.s:3858   .text.CoAPMessage_process:000000000000051c .L0 
C:\Users\stapi\AppData\Local\Temp\ccjQ9O0I.s:3863   .text.CoAPMessage_process:000000000000052c .L0 
C:\Users\stapi\AppData\Local\Temp\ccjQ9O0I.s:3864   .text.CoAPMessage_process:000000000000052c .L0 
C:\Users\stapi\AppData\Local\Temp\ccjQ9O0I.s:3867   .text.CoAPMessage_process:0000000000000530 .L0 
C:\Users\stapi\AppData\Local\Temp\ccjQ9O0I.s:3875   .text.CoAPMessage_process:000000000000053e .L0 
C:\Users\stapi\AppData\Local\Temp\ccjQ9O0I.s:3876   .text.CoAPMessage_process:000000000000053e .L0 
C:\Users\stapi\AppData\Local\Temp\ccjQ9O0I.s:3879   .text.CoAPMessage_process:0000000000000540 .L0 
C:\Users\stapi\AppData\Local\Temp\ccjQ9O0I.s:3887   .text.CoAPMessage_process:0000000000000554 .L0 
C:\Users\stapi\AppData\Local\Temp\ccjQ9O0I.s:3897   .text.CoAPMessage_process:0000000000000574 .L0 
C:\Users\stapi\AppData\Local\Temp\ccjQ9O0I.s:3898   .text.CoAPMessage_process:0000000000000574 .L0 
C:\Users\stapi\AppData\Local\Temp\ccjQ9O0I.s:3905   .text.CoAPMessage_process:000000000000057a .L0 
C:\Users\stapi\AppData\Local\Temp\ccjQ9O0I.s:3906   .text.CoAPMessage_process:000000000000057a .L0 
C:\Users\stapi\AppData\Local\Temp\ccjQ9O0I.s:3911   .text.CoAPMessage_process:000000000000058a .L0 
C:\Users\stapi\AppData\Local\Temp\ccjQ9O0I.s:3916   .text.CoAPMessage_process:000000000000059a .L0 
C:\Users\stapi\AppData\Local\Temp\ccjQ9O0I.s:3921   .text.CoAPMessage_process:00000000000005aa .L0 
C:\Users\stapi\AppData\Local\Temp\ccjQ9O0I.s:3924   .text.CoAPMessage_process:00000000000005ac .L0 
C:\Users\stapi\AppData\Local\Temp\ccjQ9O0I.s:3941   .text.CoAPMessage_cycle:0000000000000000 CoAPMessage_cycle
C:\Users\stapi\AppData\Local\Temp\ccjQ9O0I.s:3944   .text.CoAPMessage_cycle:0000000000000000 .L0 
C:\Users\stapi\AppData\Local\Temp\ccjQ9O0I.s:3946   .text.CoAPMessage_cycle:0000000000000000 .L0 
C:\Users\stapi\AppData\Local\Temp\ccjQ9O0I.s:3947   .text.CoAPMessage_cycle:0000000000000008 .L0 
C:\Users\stapi\AppData\Local\Temp\ccjQ9O0I.s:3948   .text.CoAPMessage_cycle:0000000000000008 .L0 
C:\Users\stapi\AppData\Local\Temp\ccjQ9O0I.s:3949   .text.CoAPMessage_cycle:0000000000000008 .L0 
C:\Users\stapi\AppData\Local\Temp\ccjQ9O0I.s:3950   .text.CoAPMessage_cycle:0000000000000008 .L0 
C:\Users\stapi\AppData\Local\Temp\ccjQ9O0I.s:3951   .text.CoAPMessage_cycle:0000000000000008 .L0 
C:\Users\stapi\AppData\Local\Temp\ccjQ9O0I.s:3952   .text.CoAPMessage_cycle:0000000000000008 .L0 
C:\Users\stapi\AppData\Local\Temp\ccjQ9O0I.s:3953   .text.CoAPMessage_cycle:0000000000000008 .L0 
C:\Users\stapi\AppData\Local\Temp\ccjQ9O0I.s:3954   .text.CoAPMessage_cycle:0000000000000008 .L0 
C:\Users\stapi\AppData\Local\Temp\ccjQ9O0I.s:3955   .text.CoAPMessage_cycle:0000000000000008 .L0 
C:\Users\stapi\AppData\Local\Temp\ccjQ9O0I.s:3956   .text.CoAPMessage_cycle:0000000000000008 .L0 
C:\Users\stapi\AppData\Local\Temp\ccjQ9O0I.s:3957   .text.CoAPMessage_cycle:0000000000000008 .L0 
C:\Users\stapi\AppData\Local\Temp\ccjQ9O0I.s:3958   .text.CoAPMessage_cycle:0000000000000008 .L0 
C:\Users\stapi\AppData\Local\Temp\ccjQ9O0I.s:3959   .text.CoAPMessage_cycle:0000000000000008 .L0 
C:\Users\stapi\AppData\Local\Temp\ccjQ9O0I.s:3960   .text.CoAPMessage_cycle:0000000000000008 .L0 
C:\Users\stapi\AppData\Local\Temp\ccjQ9O0I.s:3963   .text.CoAPMessage_cycle:0000000000000008 .L0 
C:\Users\stapi\AppData\Local\Temp\ccjQ9O0I.s:3964   .text.CoAPMessage_cycle:0000000000000008 .L0 
C:\Users\stapi\AppData\Local\Temp\ccjQ9O0I.s:3965   .text.CoAPMessage_cycle:0000000000000008 .L0 
C:\Users\stapi\AppData\Local\Temp\ccjQ9O0I.s:3966   .text.CoAPMessage_cycle:0000000000000008 .L0 
C:\Users\stapi\AppData\Local\Temp\ccjQ9O0I.s:3967   .text.CoAPMessage_cycle:000000000000000a .L0 
C:\Users\stapi\AppData\Local\Temp\ccjQ9O0I.s:3969   .text.CoAPMessage_cycle:000000000000000a .L0 
C:\Users\stapi\AppData\Local\Temp\ccjQ9O0I.s:3971   .text.CoAPMessage_cycle:000000000000000e .L0 
C:\Users\stapi\AppData\Local\Temp\ccjQ9O0I.s:3973   .text.CoAPMessage_cycle:0000000000000012 .L0 
C:\Users\stapi\AppData\Local\Temp\ccjQ9O0I.s:3976   .text.CoAPMessage_cycle:0000000000000018 .L0 
C:\Users\stapi\AppData\Local\Temp\ccjQ9O0I.s:3977   .text.CoAPMessage_cycle:0000000000000018 .L0 
C:\Users\stapi\AppData\Local\Temp\ccjQ9O0I.s:3981   .text.CoAPMessage_cycle:000000000000001e .L0 
C:\Users\stapi\AppData\Local\Temp\ccjQ9O0I.s:3983   .text.CoAPMessage_cycle:0000000000000020 .L0 
C:\Users\stapi\AppData\Local\Temp\ccjQ9O0I.s:3987   .text.CoAPMessage_cycle:0000000000000028 .L0 
C:\Users\stapi\AppData\Local\Temp\ccjQ9O0I.s:3988   .text.CoAPMessage_cycle:0000000000000028 .L0 
C:\Users\stapi\AppData\Local\Temp\ccjQ9O0I.s:3993   .text.CoAPMessage_cycle:000000000000002c .L0 
C:\Users\stapi\AppData\Local\Temp\ccjQ9O0I.s:3997   .text.CoAPMessage_cycle:000000000000002e .L0 
C:\Users\stapi\AppData\Local\Temp\ccjQ9O0I.s:4004   .text.CoAPMessage_cycle:0000000000000038 .L0 
C:\Users\stapi\AppData\Local\Temp\ccjQ9O0I.s:4005   .text.CoAPMessage_cycle:0000000000000038 .L0 
C:\Users\stapi\AppData\Local\Temp\ccjQ9O0I.s:4006   .text.CoAPMessage_cycle:0000000000000038 .L0 
C:\Users\stapi\AppData\Local\Temp\ccjQ9O0I.s:4007   .text.CoAPMessage_cycle:0000000000000038 .L0 
C:\Users\stapi\AppData\Local\Temp\ccjQ9O0I.s:4008   .text.CoAPMessage_cycle:0000000000000038 .L0 
C:\Users\stapi\AppData\Local\Temp\ccjQ9O0I.s:4009   .text.CoAPMessage_cycle:0000000000000038 .L0 
C:\Users\stapi\AppData\Local\Temp\ccjQ9O0I.s:4013   .text.CoAPMessage_cycle:0000000000000042 .L0 
C:\Users\stapi\AppData\Local\Temp\ccjQ9O0I.s:4015   .text.CoAPMessage_cycle:0000000000000044 .L0 
C:\Users\stapi\AppData\Local\Temp\ccjQ9O0I.s:4018   .text.CoAPMessage_cycle:0000000000000046 .L0 
C:\Users\stapi\AppData\Local\Temp\ccjQ9O0I.s:4019   .text.CoAPMessage_cycle:0000000000000046 .L0 
C:\Users\stapi\AppData\Local\Temp\ccjQ9O0I.s:4021   .text.CoAPMessage_cycle:000000000000004a .L0 
C:\Users\stapi\AppData\Local\Temp\ccjQ9O0I.s:4024   .text.CoAPMessage_cycle:0000000000000052 .L0 
C:\Users\stapi\AppData\Local\Temp\ccjQ9O0I.s:4026   .text.CoAPMessage_cycle:0000000000000054 .L0 
C:\Users\stapi\AppData\Local\Temp\ccjQ9O0I.s:4029   .text.CoAPMessage_cycle:000000000000005c .L0 
C:\Users\stapi\AppData\Local\Temp\ccjQ9O0I.s:4036   .text.CoAPMessage_cycle:000000000000006c .L0 
C:\Users\stapi\AppData\Local\Temp\ccjQ9O0I.s:4038   .text.CoAPMessage_cycle:000000000000006e .L0 
C:\Users\stapi\AppData\Local\Temp\ccjQ9O0I.s:4042   .text.CoAPMessage_cycle:0000000000000070 .L0 
C:\Users\stapi\AppData\Local\Temp\ccjQ9O0I.s:4046   .text.CoAPMessage_cycle:000000000000007c .L0 
C:\Users\stapi\AppData\Local\Temp\ccjQ9O0I.s:4052   .text.CoAPMessage_cycle:000000000000007e .L0 
C:\Users\stapi\AppData\Local\Temp\ccjQ9O0I.s:4059   .text.CoAPMessage_cycle:0000000000000086 .L0 
C:\Users\stapi\AppData\Local\Temp\ccjQ9O0I.s:4066   .text.CoAPMessage_cycle:000000000000008e .L0 
C:\Users\stapi\AppData\Local\Temp\ccjQ9O0I.s:4067   .text.CoAPMessage_cycle:000000000000008e .L0 
C:\Users\stapi\AppData\Local\Temp\ccjQ9O0I.s:4068   .text.CoAPMessage_cycle:000000000000008e .L0 
C:\Users\stapi\AppData\Local\Temp\ccjQ9O0I.s:4069   .text.CoAPMessage_cycle:000000000000008e .L0 
C:\Users\stapi\AppData\Local\Temp\ccjQ9O0I.s:4070   .text.CoAPMessage_cycle:000000000000008e .L0 
C:\Users\stapi\AppData\Local\Temp\ccjQ9O0I.s:4076   .text.CoAPMessage_cycle:000000000000009a .L0 
C:\Users\stapi\AppData\Local\Temp\ccjQ9O0I.s:4080   .text.CoAPMessage_cycle:000000000000009e .L0 
C:\Users\stapi\AppData\Local\Temp\ccjQ9O0I.s:4081   .text.CoAPMessage_cycle:000000000000009e .L0 
C:\Users\stapi\AppData\Local\Temp\ccjQ9O0I.s:4082   .text.CoAPMessage_cycle:000000000000009e .L0 
C:\Users\stapi\AppData\Local\Temp\ccjQ9O0I.s:4086   .text.CoAPMessage_cycle:00000000000000a8 .L0 
C:\Users\stapi\AppData\Local\Temp\ccjQ9O0I.s:4094   .text.CoAPMessage_cycle:00000000000000b4 .L0 
C:\Users\stapi\AppData\Local\Temp\ccjQ9O0I.s:4097   .text.CoAPMessage_cycle:00000000000000bc .L0 
C:\Users\stapi\AppData\Local\Temp\ccjQ9O0I.s:4107   .text.CoAPMessage_cycle:00000000000000c0 .L0 
C:\Users\stapi\AppData\Local\Temp\ccjQ9O0I.s:4108   .text.CoAPMessage_cycle:00000000000000c0 .L0 
C:\Users\stapi\AppData\Local\Temp\ccjQ9O0I.s:4115   .text.CoAPMessage_cycle:00000000000000d0 .L0 
C:\Users\stapi\AppData\Local\Temp\ccjQ9O0I.s:4116   .text.CoAPMessage_cycle:00000000000000d0 .L0 
C:\Users\stapi\AppData\Local\Temp\ccjQ9O0I.s:4119   .text.CoAPMessage_cycle:00000000000000d6 .L0 
C:\Users\stapi\AppData\Local\Temp\ccjQ9O0I.s:4120   .text.CoAPMessage_cycle:00000000000000d6 .L0 
C:\Users\stapi\AppData\Local\Temp\ccjQ9O0I.s:4123   .text.CoAPMessage_cycle:00000000000000da .L0 
C:\Users\stapi\AppData\Local\Temp\ccjQ9O0I.s:4134   .text.CoAPMessage_cycle:0000000000000100 .L0 
C:\Users\stapi\AppData\Local\Temp\ccjQ9O0I.s:4135   .text.CoAPMessage_cycle:0000000000000100 .L0 
C:\Users\stapi\AppData\Local\Temp\ccjQ9O0I.s:4144   .text.CoAPMessage_cycle:0000000000000114 .L0 
C:\Users\stapi\AppData\Local\Temp\ccjQ9O0I.s:4145   .text.CoAPMessage_cycle:0000000000000114 .L0 
C:\Users\stapi\AppData\Local\Temp\ccjQ9O0I.s:4146   .text.CoAPMessage_cycle:0000000000000114 .L0 
C:\Users\stapi\AppData\Local\Temp\ccjQ9O0I.s:4147   .text.CoAPMessage_cycle:0000000000000114 .L0 
C:\Users\stapi\AppData\Local\Temp\ccjQ9O0I.s:4149   .text.CoAPMessage_cycle:0000000000000118 .L0 
C:\Users\stapi\AppData\Local\Temp\ccjQ9O0I.s:4152   .text.CoAPMessage_cycle:000000000000011e .L0 
C:\Users\stapi\AppData\Local\Temp\ccjQ9O0I.s:4157   .text.CoAPMessage_cycle:000000000000012c .L0 
C:\Users\stapi\AppData\Local\Temp\ccjQ9O0I.s:4159   .text.CoAPMessage_cycle:000000000000012e .L0 
C:\Users\stapi\AppData\Local\Temp\ccjQ9O0I.s:4162   .text.CoAPMessage_cycle:0000000000000136 .L0 
C:\Users\stapi\AppData\Local\Temp\ccjQ9O0I.s:4163   .text.CoAPMessage_cycle:0000000000000136 .L0 
C:\Users\stapi\AppData\Local\Temp\ccjQ9O0I.s:4164   .text.CoAPMessage_cycle:0000000000000136 .L0 
C:\Users\stapi\AppData\Local\Temp\ccjQ9O0I.s:4166   .text.CoAPMessage_cycle:0000000000000138 .L0 
C:\Users\stapi\AppData\Local\Temp\ccjQ9O0I.s:4167   .text.CoAPMessage_cycle:0000000000000138 .L0 
C:\Users\stapi\AppData\Local\Temp\ccjQ9O0I.s:4173   .text.CoAPMessage_cycle:0000000000000144 .L0 
C:\Users\stapi\AppData\Local\Temp\ccjQ9O0I.s:4187   .text.CoAPMessage_cycle:000000000000016a .L0 
C:\Users\stapi\AppData\Local\Temp\ccjQ9O0I.s:4191   .text.CoAPMessage_cycle:000000000000016a .L0 
C:\Users\stapi\AppData\Local\Temp\ccjQ9O0I.s:4192   .text.CoAPMessage_cycle:000000000000016a .L0 
C:\Users\stapi\AppData\Local\Temp\ccjQ9O0I.s:4200   .text.CoAPMessage_cycle:0000000000000176 .L0 
C:\Users\stapi\AppData\Local\Temp\ccjQ9O0I.s:4201   .text.CoAPMessage_cycle:0000000000000176 .L0 
C:\Users\stapi\AppData\Local\Temp\ccjQ9O0I.s:4212   .text.CoAPMessage_cycle:0000000000000182 .L0 
C:\Users\stapi\AppData\Local\Temp\ccjQ9O0I.s:4213   .text.CoAPMessage_cycle:0000000000000182 .L0 
C:\Users\stapi\AppData\Local\Temp\ccjQ9O0I.s:4216   .text.CoAPMessage_cycle:0000000000000186 .L0 
C:\Users\stapi\AppData\Local\Temp\ccjQ9O0I.s:4217   .text.CoAPMessage_cycle:0000000000000186 .L0 
C:\Users\stapi\AppData\Local\Temp\ccjQ9O0I.s:4220   .text.CoAPMessage_cycle:000000000000018c .L0 
C:\Users\stapi\AppData\Local\Temp\ccjQ9O0I.s:4230   .text.CoAPMessage_cycle:000000000000019c .L0 
C:\Users\stapi\AppData\Local\Temp\ccjQ9O0I.s:4236   .text.CoAPMessage_cycle:000000000000019c .L0 
C:\Users\stapi\AppData\Local\Temp\ccjQ9O0I.s:4237   .text.CoAPMessage_cycle:000000000000019c .L0 
C:\Users\stapi\AppData\Local\Temp\ccjQ9O0I.s:4238   .text.CoAPMessage_cycle:000000000000019c .L0 
C:\Users\stapi\AppData\Local\Temp\ccjQ9O0I.s:4241   .text.CoAPMessage_cycle:000000000000019e .L0 
C:\Users\stapi\AppData\Local\Temp\ccjQ9O0I.s:4242   .text.CoAPMessage_cycle:000000000000019e .L0 
C:\Users\stapi\AppData\Local\Temp\ccjQ9O0I.s:4248   .text.CoAPMessage_cycle:00000000000001a0 .L0 
C:\Users\stapi\AppData\Local\Temp\ccjQ9O0I.s:4249   .text.CoAPMessage_cycle:00000000000001a0 .L0 
C:\Users\stapi\AppData\Local\Temp\ccjQ9O0I.s:4254   .text.CoAPMessage_cycle:00000000000001a4 .L0 
C:\Users\stapi\AppData\Local\Temp\ccjQ9O0I.s:4256   .text.CoAPMessage_cycle:00000000000001a6 .L0 
C:\Users\stapi\AppData\Local\Temp\ccjQ9O0I.s:4257   .text.CoAPMessage_cycle:00000000000001a6 .L0 
C:\Users\stapi\AppData\Local\Temp\ccjQ9O0I.s:4270   .text.CoAPMessage_cycle:00000000000001a8 .L0 
C:\Users\stapi\AppData\Local\Temp\ccjQ9O0I.s:4271   .text.CoAPMessage_cycle:00000000000001a8 .L0 
C:\Users\stapi\AppData\Local\Temp\ccjQ9O0I.s:4272   .text.CoAPMessage_cycle:00000000000001a8 .L0 
C:\Users\stapi\AppData\Local\Temp\ccjQ9O0I.s:4274   .text.CoAPMessage_cycle:00000000000001aa .L0 
C:\Users\stapi\AppData\Local\Temp\ccjQ9O0I.s:4275   .text.CoAPMessage_cycle:00000000000001aa .L0 
C:\Users\stapi\AppData\Local\Temp\ccjQ9O0I.s:4281   .text.CoAPMessage_cycle:00000000000001ac .L0 
C:\Users\stapi\AppData\Local\Temp\ccjQ9O0I.s:4282   .text.CoAPMessage_cycle:00000000000001ac .L0 
C:\Users\stapi\AppData\Local\Temp\ccjQ9O0I.s:4286   .text.CoAPMessage_cycle:00000000000001b6 .L0 
C:\Users\stapi\AppData\Local\Temp\ccjQ9O0I.s:4287   .text.CoAPMessage_cycle:00000000000001b6 .L0 
C:\Users\stapi\AppData\Local\Temp\ccjQ9O0I.s:4290   .text.CoAPMessage_cycle:00000000000001be .L0 
C:\Users\stapi\AppData\Local\Temp\ccjQ9O0I.s:4296   .text.CoAPMessage_cycle:00000000000001d2 .L0 
C:\Users\stapi\AppData\Local\Temp\ccjQ9O0I.s:4300   .text.CoAPMessage_cycle:00000000000001de .L0 
C:\Users\stapi\AppData\Local\Temp\ccjQ9O0I.s:4303   .text.CoAPMessage_cycle:00000000000001de .L0 
C:\Users\stapi\AppData\Local\Temp\ccjQ9O0I.s:4306   .text.CoAPMessage_cycle:00000000000001de .L0 
C:\Users\stapi\AppData\Local\Temp\ccjQ9O0I.s:4307   .text.CoAPMessage_cycle:00000000000001de .L0 
C:\Users\stapi\AppData\Local\Temp\ccjQ9O0I.s:4312   .text.CoAPMessage_cycle:00000000000001ec .L0 
C:\Users\stapi\AppData\Local\Temp\ccjQ9O0I.s:4314   .text.CoAPMessage_cycle:00000000000001ec .L0 
C:\Users\stapi\AppData\Local\Temp\ccjQ9O0I.s:4315   .text.CoAPMessage_cycle:00000000000001ec .L0 
C:\Users\stapi\AppData\Local\Temp\ccjQ9O0I.s:4319   .text.CoAPMessage_cycle:00000000000001f6 .L0 
C:\Users\stapi\AppData\Local\Temp\ccjQ9O0I.s:4320   .text.CoAPMessage_cycle:00000000000001f6 .L0 
C:\Users\stapi\AppData\Local\Temp\ccjQ9O0I.s:4322   .text.CoAPMessage_cycle:00000000000001f8 .L0 
C:\Users\stapi\AppData\Local\Temp\ccjQ9O0I.s:4323   .text.CoAPMessage_cycle:00000000000001f8 .L0 
C:\Users\stapi\AppData\Local\Temp\ccjQ9O0I.s:4325   .text.CoAPMessage_cycle:00000000000001fa .L0 
C:\Users\stapi\AppData\Local\Temp\ccjQ9O0I.s:4327   .text.CoAPMessage_cycle:00000000000001fc .L0 
C:\Users\stapi\AppData\Local\Temp\ccjQ9O0I.s:4336   .text.CoAPMessage_cycle:000000000000020a .L0 
C:\Users\stapi\AppData\Local\Temp\ccjQ9O0I.s:4340   .text.CoAPMessage_cycle:0000000000000214 .L0 
C:\Users\stapi\AppData\Local\Temp\ccjQ9O0I.s:4344   .text.CoAPMessage_cycle:000000000000021e .L0 
C:\Users\stapi\AppData\Local\Temp\ccjQ9O0I.s:4348   .text.CoAPMessage_cycle:0000000000000220 .L0 
C:\Users\stapi\AppData\Local\Temp\ccjQ9O0I.s:4359   .text.CoAPMessage_cycle:000000000000022a .L0 
C:\Users\stapi\AppData\Local\Temp\ccjQ9O0I.s:4360   .text.CoAPMessage_cycle:000000000000022a .L0 
C:\Users\stapi\AppData\Local\Temp\ccjQ9O0I.s:4361   .text.CoAPMessage_cycle:000000000000022a .L0 
C:\Users\stapi\AppData\Local\Temp\ccjQ9O0I.s:4364   .text.CoAPMessage_cycle:0000000000000230 .L0 
C:\Users\stapi\AppData\Local\Temp\ccjQ9O0I.s:4366   .text.CoAPMessage_cycle:0000000000000232 .L0 
C:\Users\stapi\AppData\Local\Temp\ccjQ9O0I.s:4370   .text.CoAPMessage_cycle:000000000000023a .L0 
C:\Users\stapi\AppData\Local\Temp\ccjQ9O0I.s:4371   .text.CoAPMessage_cycle:000000000000023a .L0 
C:\Users\stapi\AppData\Local\Temp\ccjQ9O0I.s:4373   .text.CoAPMessage_cycle:000000000000023e .L0 
C:\Users\stapi\AppData\Local\Temp\ccjQ9O0I.s:4378   .text.CoAPMessage_cycle:0000000000000248 .L0 
C:\Users\stapi\AppData\Local\Temp\ccjQ9O0I.s:4380   .text.CoAPMessage_cycle:000000000000024c .L0 
C:\Users\stapi\AppData\Local\Temp\ccjQ9O0I.s:4382   .text.CoAPMessage_cycle:0000000000000254 .L0 
C:\Users\stapi\AppData\Local\Temp\ccjQ9O0I.s:4383   .text.CoAPMessage_cycle:0000000000000254 .L0 
C:\Users\stapi\AppData\Local\Temp\ccjQ9O0I.s:4384   .text.CoAPMessage_cycle:0000000000000254 .L0 
C:\Users\stapi\AppData\Local\Temp\ccjQ9O0I.s:4385   .text.CoAPMessage_cycle:0000000000000254 .L0 
C:\Users\stapi\AppData\Local\Temp\ccjQ9O0I.s:4386   .text.CoAPMessage_cycle:0000000000000254 .L0 
C:\Users\stapi\AppData\Local\Temp\ccjQ9O0I.s:4387   .text.CoAPMessage_cycle:0000000000000254 .L0 
C:\Users\stapi\AppData\Local\Temp\ccjQ9O0I.s:4388   .text.CoAPMessage_cycle:0000000000000254 .L0 
C:\Users\stapi\AppData\Local\Temp\ccjQ9O0I.s:4389   .text.CoAPMessage_cycle:0000000000000254 .L0 
C:\Users\stapi\AppData\Local\Temp\ccjQ9O0I.s:4390   .text.CoAPMessage_cycle:0000000000000254 .L0 
C:\Users\stapi\AppData\Local\Temp\ccjQ9O0I.s:4391   .text.CoAPMessage_cycle:0000000000000254 .L0 
C:\Users\stapi\AppData\Local\Temp\ccjQ9O0I.s:4392   .text.CoAPMessage_cycle:0000000000000254 .L0 
C:\Users\stapi\AppData\Local\Temp\ccjQ9O0I.s:4393   .text.CoAPMessage_cycle:0000000000000254 .L0 
C:\Users\stapi\AppData\Local\Temp\ccjQ9O0I.s:4394   .text.CoAPMessage_cycle:0000000000000254 .L0 
C:\Users\stapi\AppData\Local\Temp\ccjQ9O0I.s:4395   .text.CoAPMessage_cycle:0000000000000254 .L0 
C:\Users\stapi\AppData\Local\Temp\ccjQ9O0I.s:4396   .text.CoAPMessage_cycle:0000000000000254 .L0 
C:\Users\stapi\AppData\Local\Temp\ccjQ9O0I.s:4401   .rodata.__FUNCTION__.0:0000000000000000 .LANCHOR12
C:\Users\stapi\AppData\Local\Temp\ccjQ9O0I.s:4404   .rodata.__FUNCTION__.0:0000000000000000 __FUNCTION__.0
C:\Users\stapi\AppData\Local\Temp\ccjQ9O0I.s:4408   .rodata.__FUNCTION__.1:0000000000000000 .LANCHOR4
C:\Users\stapi\AppData\Local\Temp\ccjQ9O0I.s:4411   .rodata.__FUNCTION__.1:0000000000000000 __FUNCTION__.1
C:\Users\stapi\AppData\Local\Temp\ccjQ9O0I.s:4415   .rodata.__FUNCTION__.10:0000000000000000 .LANCHOR2
C:\Users\stapi\AppData\Local\Temp\ccjQ9O0I.s:4418   .rodata.__FUNCTION__.10:0000000000000000 __FUNCTION__.10
C:\Users\stapi\AppData\Local\Temp\ccjQ9O0I.s:4422   .rodata.__FUNCTION__.11:0000000000000000 .LANCHOR1
C:\Users\stapi\AppData\Local\Temp\ccjQ9O0I.s:4425   .rodata.__FUNCTION__.11:0000000000000000 __FUNCTION__.11
C:\Users\stapi\AppData\Local\Temp\ccjQ9O0I.s:4429   .rodata.__FUNCTION__.12:0000000000000000 .LANCHOR0
C:\Users\stapi\AppData\Local\Temp\ccjQ9O0I.s:4432   .rodata.__FUNCTION__.12:0000000000000000 __FUNCTION__.12
C:\Users\stapi\AppData\Local\Temp\ccjQ9O0I.s:4436   .rodata.__FUNCTION__.2:0000000000000000 .LANCHOR11
C:\Users\stapi\AppData\Local\Temp\ccjQ9O0I.s:4439   .rodata.__FUNCTION__.2:0000000000000000 __FUNCTION__.2
C:\Users\stapi\AppData\Local\Temp\ccjQ9O0I.s:4443   .rodata.__FUNCTION__.3:0000000000000000 .LANCHOR10
C:\Users\stapi\AppData\Local\Temp\ccjQ9O0I.s:4446   .rodata.__FUNCTION__.3:0000000000000000 __FUNCTION__.3
C:\Users\stapi\AppData\Local\Temp\ccjQ9O0I.s:4450   .rodata.__FUNCTION__.4:0000000000000000 .LANCHOR5
C:\Users\stapi\AppData\Local\Temp\ccjQ9O0I.s:4453   .rodata.__FUNCTION__.4:0000000000000000 __FUNCTION__.4
C:\Users\stapi\AppData\Local\Temp\ccjQ9O0I.s:4457   .rodata.__FUNCTION__.5:0000000000000000 .LANCHOR9
C:\Users\stapi\AppData\Local\Temp\ccjQ9O0I.s:4460   .rodata.__FUNCTION__.5:0000000000000000 __FUNCTION__.5
C:\Users\stapi\AppData\Local\Temp\ccjQ9O0I.s:4464   .rodata.__FUNCTION__.6:0000000000000000 .LANCHOR8
C:\Users\stapi\AppData\Local\Temp\ccjQ9O0I.s:4467   .rodata.__FUNCTION__.6:0000000000000000 __FUNCTION__.6
C:\Users\stapi\AppData\Local\Temp\ccjQ9O0I.s:4471   .rodata.__FUNCTION__.7:0000000000000000 .LANCHOR7
C:\Users\stapi\AppData\Local\Temp\ccjQ9O0I.s:4474   .rodata.__FUNCTION__.7:0000000000000000 __FUNCTION__.7
C:\Users\stapi\AppData\Local\Temp\ccjQ9O0I.s:4478   .rodata.__FUNCTION__.8:0000000000000000 .LANCHOR6
C:\Users\stapi\AppData\Local\Temp\ccjQ9O0I.s:4481   .rodata.__FUNCTION__.8:0000000000000000 __FUNCTION__.8
C:\Users\stapi\AppData\Local\Temp\ccjQ9O0I.s:4485   .rodata.__FUNCTION__.9:0000000000000000 .LANCHOR3
C:\Users\stapi\AppData\Local\Temp\ccjQ9O0I.s:4488   .rodata.__FUNCTION__.9:0000000000000000 __FUNCTION__.9
C:\Users\stapi\AppData\Local\Temp\ccjQ9O0I.s:130    .text.CoAPOption_sort:0000000000000086 .L0 
C:\Users\stapi\AppData\Local\Temp\ccjQ9O0I.s:232    .text.CoAPStrOption_add:0000000000000072 .L0 
C:\Users\stapi\AppData\Local\Temp\ccjQ9O0I.s:323    .text.CoAPStrOption_get:000000000000006a .L0 
C:\Users\stapi\AppData\Local\Temp\ccjQ9O0I.s:414    .text.CoAPUintOption_add:0000000000000056 .L0 
C:\Users\stapi\AppData\Local\Temp\ccjQ9O0I.s:590    .text.CoAPUintOption_get:00000000000000be .L0 
C:\Users\stapi\AppData\Local\Temp\ccjQ9O0I.s:635    .text.CoAPOption_present:0000000000000028 .L0 
C:\Users\stapi\AppData\Local\Temp\ccjQ9O0I.s:703    .text.CoAPMessageId_gen:000000000000004a .L0 
C:\Users\stapi\AppData\Local\Temp\ccjQ9O0I.s:733    .text.CoAPMessageId_set:0000000000000010 .L0 
C:\Users\stapi\AppData\Local\Temp\ccjQ9O0I.s:782    .text.CoAPMessageType_set:0000000000000030 .L0 
C:\Users\stapi\AppData\Local\Temp\ccjQ9O0I.s:812    .text.CoAPMessageCode_set:0000000000000010 .L0 
C:\Users\stapi\AppData\Local\Temp\ccjQ9O0I.s:849    .text.CoAPMessageCode_get:0000000000000016 .L0 
C:\Users\stapi\AppData\Local\Temp\ccjQ9O0I.s:913    .text.CoAPMessageToken_set:0000000000000048 .L0 
C:\Users\stapi\AppData\Local\Temp\ccjQ9O0I.s:945    .text.CoAPMessageUserData_set:0000000000000012 .L0 
C:\Users\stapi\AppData\Local\Temp\ccjQ9O0I.s:977    .text.CoAPMessageKeep_Set:0000000000000014 .L0 
C:\Users\stapi\AppData\Local\Temp\ccjQ9O0I.s:1020   .text.CoAPMessagePayload_set:000000000000001c .L0 
C:\Users\stapi\AppData\Local\Temp\ccjQ9O0I.s:1050   .text.CoAPMessageHandler_set:000000000000000e .L0 
C:\Users\stapi\AppData\Local\Temp\ccjQ9O0I.s:1103   .text.CoAPMessage_init:0000000000000038 .L0 
C:\Users\stapi\AppData\Local\Temp\ccjQ9O0I.s:1164   .text.CoAPMessage_destory:0000000000000038 .L0 
C:\Users\stapi\AppData\Local\Temp\ccjQ9O0I.s:1333   .text.CoAPMessageCheckDup:00000000000000da .L0 
C:\Users\stapi\AppData\Local\Temp\ccjQ9O0I.s:1463   .text.CoAPMessageToken_dump:00000000000000a0 .L0 
C:\Users\stapi\AppData\Local\Temp\ccjQ9O0I.s:1525   .text.CoAPMessage_dump:0000000000000028 .L0 
C:\Users\stapi\AppData\Local\Temp\ccjQ9O0I.s:2247   .text.CoAPMessage_send:000000000000046e .L0 
C:\Users\stapi\AppData\Local\Temp\ccjQ9O0I.s:2409   .text.CoAPErrRespMessage_send.isra.0:00000000000000ac .L0 
C:\Users\stapi\AppData\Local\Temp\ccjQ9O0I.s:2497   .text.CoAPAckMessage_send.isra.0:0000000000000066 .L0 
C:\Users\stapi\AppData\Local\Temp\ccjQ9O0I.s:2671   .text.CoAPMessage_cancel:00000000000000c8 .L0 
C:\Users\stapi\AppData\Local\Temp\ccjQ9O0I.s:2688   .text.CoAPMessage_print_sendlist:0000000000000004 .L0 
C:\Users\stapi\AppData\Local\Temp\ccjQ9O0I.s:2868   .text.CoAPMessageId_cancel:00000000000000bc .L0 
C:\Users\stapi\AppData\Local\Temp\ccjQ9O0I.s:3927   .text.CoAPMessage_process:00000000000005ac .L0 
C:\Users\stapi\AppData\Local\Temp\ccjQ9O0I.s:4399   .text.CoAPMessage_cycle:0000000000000254 .L0 
                     .debug_frame:0000000000000000 .L0 
C:\Users\stapi\AppData\Local\Temp\ccjQ9O0I.s:111    .text.CoAPOption_sort:000000000000007a .L10
C:\Users\stapi\AppData\Local\Temp\ccjQ9O0I.s:102    .text.CoAPOption_sort:0000000000000074 .L3
C:\Users\stapi\AppData\Local\Temp\ccjQ9O0I.s:92     .text.CoAPOption_sort:0000000000000060 .L5
C:\Users\stapi\AppData\Local\Temp\ccjQ9O0I.s:73     .text.CoAPOption_sort:0000000000000040 .L4
C:\Users\stapi\AppData\Local\Temp\ccjQ9O0I.s:54     .text.CoAPOption_sort:000000000000001e .L7
C:\Users\stapi\AppData\Local\Temp\ccjQ9O0I.s:221    .text.CoAPStrOption_add:000000000000006a .L15
C:\Users\stapi\AppData\Local\Temp\ccjQ9O0I.s:193    .text.CoAPStrOption_add:000000000000004c .L14
C:\Users\stapi\AppData\Local\Temp\ccjQ9O0I.s:209    .text.CoAPStrOption_add:000000000000005e .L12
C:\Users\stapi\AppData\Local\Temp\ccjQ9O0I.s:272    .text.CoAPStrOption_get:0000000000000026 .L26
C:\Users\stapi\AppData\Local\Temp\ccjQ9O0I.s:305    .text.CoAPStrOption_get:000000000000005c .L23
C:\Users\stapi\AppData\Local\Temp\ccjQ9O0I.s:315    .text.CoAPStrOption_get:0000000000000066 .L27
C:\Users\stapi\AppData\Local\Temp\ccjQ9O0I.s:262    .text.CoAPStrOption_get:0000000000000018 .L24
C:\Users\stapi\AppData\Local\Temp\ccjQ9O0I.s:374    .text.CoAPUintOption_add:000000000000002c .L31
C:\Users\stapi\AppData\Local\Temp\ccjQ9O0I.s:398    .text.CoAPUintOption_add:000000000000004a .L33
C:\Users\stapi\AppData\Local\Temp\ccjQ9O0I.s:360    .text.CoAPUintOption_add:0000000000000018 .L32
C:\Users\stapi\AppData\Local\Temp\ccjQ9O0I.s:442    .text.CoAPUintOption_get:0000000000000018 .L46
C:\Users\stapi\AppData\Local\Temp\ccjQ9O0I.s:582    .text.CoAPUintOption_get:00000000000000ba .L47
C:\Users\stapi\AppData\Local\Temp\ccjQ9O0I.s:553    .text.CoAPUintOption_get:000000000000009c .L39
C:\Users\stapi\AppData\Local\Temp\ccjQ9O0I.s:473    .text.CoAPUintOption_get:000000000000004a .L40
C:\Users\stapi\AppData\Local\Temp\ccjQ9O0I.s:514    .text.CoAPUintOption_get:0000000000000078 .L41
C:\Users\stapi\AppData\Local\Temp\ccjQ9O0I.s:533    .text.CoAPUintOption_get:0000000000000088 .L42
C:\Users\stapi\AppData\Local\Temp\ccjQ9O0I.s:526    .text.CoAPUintOption_get:0000000000000084 .L49
C:\Users\stapi\AppData\Local\Temp\ccjQ9O0I.s:467    .text.CoAPUintOption_get:0000000000000044 .L43
C:\Users\stapi\AppData\Local\Temp\ccjQ9O0I.s:522    .text.CoAPUintOption_get:0000000000000080 .L48
C:\Users\stapi\AppData\Local\Temp\ccjQ9O0I.s:431    .text.CoAPUintOption_get:000000000000000a .L38
C:\Users\stapi\AppData\Local\Temp\ccjQ9O0I.s:614    .text.CoAPOption_present:0000000000000012 .L53
C:\Users\stapi\AppData\Local\Temp\ccjQ9O0I.s:627    .text.CoAPOption_present:0000000000000024 .L54
C:\Users\stapi\AppData\Local\Temp\ccjQ9O0I.s:607    .text.CoAPOption_present:0000000000000008 .L51
C:\Users\stapi\AppData\Local\Temp\ccjQ9O0I.s:683    .text.CoAPMessageId_gen:000000000000003a .L56
C:\Users\stapi\AppData\Local\Temp\ccjQ9O0I.s:693    .text.CoAPMessageId_gen:0000000000000044 .L59
C:\Users\stapi\AppData\Local\Temp\ccjQ9O0I.s:674    .text.CoAPMessageId_gen:000000000000002c .L57
C:\Users\stapi\AppData\Local\Temp\ccjQ9O0I.s:724    .text.CoAPMessageId_set:000000000000000a .L63
C:\Users\stapi\AppData\Local\Temp\ccjQ9O0I.s:772    .text.CoAPMessageType_set:000000000000002a .L66
C:\Users\stapi\AppData\Local\Temp\ccjQ9O0I.s:776    .text.CoAPMessageType_set:000000000000002e .L64
C:\Users\stapi\AppData\Local\Temp\ccjQ9O0I.s:803    .text.CoAPMessageCode_set:000000000000000a .L70
C:\Users\stapi\AppData\Local\Temp\ccjQ9O0I.s:843    .text.CoAPMessageCode_get:0000000000000014 .L71
C:\Users\stapi\AppData\Local\Temp\ccjQ9O0I.s:904    .text.CoAPMessageToken_set:0000000000000042 .L77
C:\Users\stapi\AppData\Local\Temp\ccjQ9O0I.s:896    .text.CoAPMessageToken_set:000000000000003a .L75
C:\Users\stapi\AppData\Local\Temp\ccjQ9O0I.s:939    .text.CoAPMessageUserData_set:0000000000000010 .L84
C:\Users\stapi\AppData\Local\Temp\ccjQ9O0I.s:971    .text.CoAPMessageKeep_Set:0000000000000012 .L88
C:\Users\stapi\AppData\Local\Temp\ccjQ9O0I.s:1010   .text.CoAPMessagePayload_set:0000000000000016 .L95
C:\Users\stapi\AppData\Local\Temp\ccjQ9O0I.s:998    .text.CoAPMessagePayload_set:000000000000000c .L94
C:\Users\stapi\AppData\Local\Temp\ccjQ9O0I.s:1014   .text.CoAPMessagePayload_set:000000000000001a .L92
C:\Users\stapi\AppData\Local\Temp\ccjQ9O0I.s:1041   .text.CoAPMessageHandler_set:0000000000000008 .L102
C:\Users\stapi\AppData\Local\Temp\ccjQ9O0I.s:1094   .text.CoAPMessage_init:0000000000000032 .L105
C:\Users\stapi\AppData\Local\Temp\ccjQ9O0I.s:1155   .text.CoAPMessage_destory:0000000000000032 .L114
C:\Users\stapi\AppData\Local\Temp\ccjQ9O0I.s:1139   .text.CoAPMessage_destory:0000000000000022 .L112
C:\Users\stapi\AppData\Local\Temp\ccjQ9O0I.s:1125   .text.CoAPMessage_destory:0000000000000012 .L113
C:\Users\stapi\AppData\Local\Temp\ccjQ9O0I.s:1166   .rodata.CoAPMessageCheckDup.str1.4:0000000000000000 .LC0
C:\Users\stapi\AppData\Local\Temp\ccjQ9O0I.s:1169   .rodata.CoAPMessageCheckDup.str1.4:0000000000000014 .LC1
C:\Users\stapi\AppData\Local\Temp\ccjQ9O0I.s:1318   .text.CoAPMessageCheckDup:00000000000000d6 .L129
C:\Users\stapi\AppData\Local\Temp\ccjQ9O0I.s:1273   .text.CoAPMessageCheckDup:00000000000000a4 .L123
C:\Users\stapi\AppData\Local\Temp\ccjQ9O0I.s:1223   .text.CoAPMessageCheckDup:000000000000003e .L131
C:\Users\stapi\AppData\Local\Temp\ccjQ9O0I.s:1235   .text.CoAPMessageCheckDup:0000000000000054 .L125
C:\Users\stapi\AppData\Local\Temp\ccjQ9O0I.s:1285   .text.CoAPMessageCheckDup:00000000000000ae .L127
C:\Users\stapi\AppData\Local\Temp\ccjQ9O0I.s:1249   .text.CoAPMessageCheckDup:000000000000006c .L128
C:\Users\stapi\AppData\Local\Temp\ccjQ9O0I.s:1335   .rodata.CoAPMessageToken_dump.str1.4:0000000000000000 .LC2
C:\Users\stapi\AppData\Local\Temp\ccjQ9O0I.s:1338   .rodata.CoAPMessageToken_dump.str1.4:0000000000000008 .LC3
C:\Users\stapi\AppData\Local\Temp\ccjQ9O0I.s:1341   .rodata.CoAPMessageToken_dump.str1.4:000000000000001c .LC4
C:\Users\stapi\AppData\Local\Temp\ccjQ9O0I.s:1431   .text.CoAPMessageToken_dump:000000000000007a .L139
C:\Users\stapi\AppData\Local\Temp\ccjQ9O0I.s:1390   .text.CoAPMessageToken_dump:0000000000000026 .L138
C:\Users\stapi\AppData\Local\Temp\ccjQ9O0I.s:1519   .text.CoAPMessage_dump:0000000000000026 .L150
C:\Users\stapi\AppData\Local\Temp\ccjQ9O0I.s:1527   .rodata.CoAPMessage_send.str1.4:0000000000000000 .LC5
C:\Users\stapi\AppData\Local\Temp\ccjQ9O0I.s:1530   .rodata.CoAPMessage_send.str1.4:0000000000000008 .LC6
C:\Users\stapi\AppData\Local\Temp\ccjQ9O0I.s:1533   .rodata.CoAPMessage_send.str1.4:000000000000002c .LC7
C:\Users\stapi\AppData\Local\Temp\ccjQ9O0I.s:1536   .rodata.CoAPMessage_send.str1.4:0000000000000030 .LC8
C:\Users\stapi\AppData\Local\Temp\ccjQ9O0I.s:1539   .rodata.CoAPMessage_send.str1.4:0000000000000048 .LC9
C:\Users\stapi\AppData\Local\Temp\ccjQ9O0I.s:1542   .rodata.CoAPMessage_send.str1.4:0000000000000080 .LC10
C:\Users\stapi\AppData\Local\Temp\ccjQ9O0I.s:1548   .rodata.CoAPMessage_send.str1.4:00000000000000c0 .LC12
C:\Users\stapi\AppData\Local\Temp\ccjQ9O0I.s:1551   .rodata.CoAPMessage_send.str1.4:00000000000000dc .LC13
C:\Users\stapi\AppData\Local\Temp\ccjQ9O0I.s:1554   .rodata.CoAPMessage_send.str1.4:00000000000000f4 .LC14
C:\Users\stapi\AppData\Local\Temp\ccjQ9O0I.s:1557   .rodata.CoAPMessage_send.str1.4:00000000000000fc .LC15
C:\Users\stapi\AppData\Local\Temp\ccjQ9O0I.s:1545   .rodata.CoAPMessage_send.str1.4:00000000000000a4 .LC11
C:\Users\stapi\AppData\Local\Temp\ccjQ9O0I.s:1560   .rodata.CoAPMessage_send.str1.4:0000000000000120 .LC16
C:\Users\stapi\AppData\Local\Temp\ccjQ9O0I.s:1563   .rodata.CoAPMessage_send.str1.4:000000000000015c .LC17
C:\Users\stapi\AppData\Local\Temp\ccjQ9O0I.s:1652   .text.CoAPMessage_send:0000000000000070 .L153
C:\Users\stapi\AppData\Local\Temp\ccjQ9O0I.s:1672   .text.CoAPMessage_send:000000000000007c .L155
C:\Users\stapi\AppData\Local\Temp\ccjQ9O0I.s:1710   .text.CoAPMessage_send:00000000000000c4 .L156
C:\Users\stapi\AppData\Local\Temp\ccjQ9O0I.s:2215   .text.CoAPMessage_send:0000000000000428 .L157
C:\Users\stapi\AppData\Local\Temp\ccjQ9O0I.s:1763   .text.CoAPMessage_send:000000000000013c .L158
C:\Users\stapi\AppData\Local\Temp\ccjQ9O0I.s:2194   .text.CoAPMessage_send:00000000000003fa .L159
C:\Users\stapi\AppData\Local\Temp\ccjQ9O0I.s:1826   .text.CoAPMessage_send:00000000000001aa .L173
C:\Users\stapi\AppData\Local\Temp\ccjQ9O0I.s:1830   .text.CoAPMessage_send:00000000000001ac .L160
C:\Users\stapi\AppData\Local\Temp\ccjQ9O0I.s:2031   .text.CoAPMessage_send:000000000000031c .L161
C:\Users\stapi\AppData\Local\Temp\ccjQ9O0I.s:2061   .text.CoAPMessage_send:000000000000035c .L165
C:\Users\stapi\AppData\Local\Temp\ccjQ9O0I.s:1870   .text.CoAPMessage_send:00000000000001f8 .L166
C:\Users\stapi\AppData\Local\Temp\ccjQ9O0I.s:1819   .text.CoAPMessage_send:00000000000001a4 .L176
C:\Users\stapi\AppData\Local\Temp\ccjQ9O0I.s:2126   .text.CoAPMessage_send:00000000000003c4 .L167
C:\Users\stapi\AppData\Local\Temp\ccjQ9O0I.s:1984   .text.CoAPMessage_send:00000000000002ba .L169
C:\Users\stapi\AppData\Local\Temp\ccjQ9O0I.s:2145   .text.CoAPMessage_send:00000000000003de .L170
C:\Users\stapi\AppData\Local\Temp\ccjQ9O0I.s:2115   .text.CoAPMessage_send:00000000000003ba .L163
C:\Users\stapi\AppData\Local\Temp\ccjQ9O0I.s:1848   .text.CoAPMessage_send:00000000000001cc .L162
C:\Users\stapi\AppData\Local\Temp\ccjQ9O0I.s:1968   .text.CoAPMessage_send:0000000000000290 .L168
C:\Users\stapi\AppData\Local\Temp\ccjQ9O0I.s:2094   .text.CoAPMessage_send:00000000000003a2 .L178
C:\Users\stapi\AppData\Local\Temp\ccjQ9O0I.s:2104   .text.CoAPMessage_send:00000000000003aa .L164
C:\Users\stapi\AppData\Local\Temp\ccjQ9O0I.s:2249   .rodata.CoAPErrRespMessage_send.isra.0.str1.4:0000000000000000 .LC18
C:\Users\stapi\AppData\Local\Temp\ccjQ9O0I.s:2392   .text.CoAPErrRespMessage_send.isra.0:000000000000009a .L180
C:\Users\stapi\AppData\Local\Temp\ccjQ9O0I.s:2354   .text.CoAPErrRespMessage_send.isra.0:0000000000000052 .L181
C:\Users\stapi\AppData\Local\Temp\ccjQ9O0I.s:2411   .rodata.CoAPAckMessage_send.isra.0.str1.4:0000000000000000 .LC19
C:\Users\stapi\AppData\Local\Temp\ccjQ9O0I.s:2499   .rodata.CoAPMessage_cancel.str1.4:0000000000000000 .LC20
C:\Users\stapi\AppData\Local\Temp\ccjQ9O0I.s:2652   .text.CoAPMessage_cancel:00000000000000c2 .L190
C:\Users\stapi\AppData\Local\Temp\ccjQ9O0I.s:2566   .text.CoAPMessage_cancel:0000000000000050 .L185
C:\Users\stapi\AppData\Local\Temp\ccjQ9O0I.s:2581   .text.CoAPMessage_cancel:0000000000000058 .L189
C:\Users\stapi\AppData\Local\Temp\ccjQ9O0I.s:2643   .text.CoAPMessage_cancel:00000000000000b6 .L188
C:\Users\stapi\AppData\Local\Temp\ccjQ9O0I.s:2554   .text.CoAPMessage_cancel:000000000000003c .L187
C:\Users\stapi\AppData\Local\Temp\ccjQ9O0I.s:2690   .rodata.CoAPMessageId_cancel.str1.4:0000000000000000 .LC21
C:\Users\stapi\AppData\Local\Temp\ccjQ9O0I.s:2848   .text.CoAPMessageId_cancel:00000000000000b4 .L202
C:\Users\stapi\AppData\Local\Temp\ccjQ9O0I.s:2758   .text.CoAPMessageId_cancel:0000000000000050 .L197
C:\Users\stapi\AppData\Local\Temp\ccjQ9O0I.s:2774   .text.CoAPMessageId_cancel:000000000000005a .L201
C:\Users\stapi\AppData\Local\Temp\ccjQ9O0I.s:2837   .text.CoAPMessageId_cancel:00000000000000a8 .L200
C:\Users\stapi\AppData\Local\Temp\ccjQ9O0I.s:2746   .text.CoAPMessageId_cancel:000000000000003c .L199
C:\Users\stapi\AppData\Local\Temp\ccjQ9O0I.s:2870   .rodata.CoAPMessage_process.str1.4:0000000000000000 .LC22
C:\Users\stapi\AppData\Local\Temp\ccjQ9O0I.s:2873   .rodata.CoAPMessage_process.str1.4:0000000000000018 .LC23
C:\Users\stapi\AppData\Local\Temp\ccjQ9O0I.s:2876   .rodata.CoAPMessage_process.str1.4:0000000000000054 .LC24
C:\Users\stapi\AppData\Local\Temp\ccjQ9O0I.s:2879   .rodata.CoAPMessage_process.str1.4:0000000000000078 .LC25
C:\Users\stapi\AppData\Local\Temp\ccjQ9O0I.s:2882   .rodata.CoAPMessage_process.str1.4:000000000000009c .LC26
C:\Users\stapi\AppData\Local\Temp\ccjQ9O0I.s:2885   .rodata.CoAPMessage_process.str1.4:00000000000000c4 .LC27
C:\Users\stapi\AppData\Local\Temp\ccjQ9O0I.s:2888   .rodata.CoAPMessage_process.str1.4:00000000000000dc .LC28
C:\Users\stapi\AppData\Local\Temp\ccjQ9O0I.s:2891   .rodata.CoAPMessage_process.str1.4:00000000000000fc .LC29
C:\Users\stapi\AppData\Local\Temp\ccjQ9O0I.s:2894   .rodata.CoAPMessage_process.str1.4:0000000000000110 .LC30
C:\Users\stapi\AppData\Local\Temp\ccjQ9O0I.s:2897   .rodata.CoAPMessage_process.str1.4:0000000000000130 .LC31
C:\Users\stapi\AppData\Local\Temp\ccjQ9O0I.s:2900   .rodata.CoAPMessage_process.str1.4:0000000000000154 .LC32
C:\Users\stapi\AppData\Local\Temp\ccjQ9O0I.s:2903   .rodata.CoAPMessage_process.str1.4:0000000000000170 .LC33
C:\Users\stapi\AppData\Local\Temp\ccjQ9O0I.s:3241   .text.CoAPMessage_process:00000000000001d0 .L208
C:\Users\stapi\AppData\Local\Temp\ccjQ9O0I.s:2997   .text.CoAPMessage_process:000000000000007c .L210
C:\Users\stapi\AppData\Local\Temp\ccjQ9O0I.s:3232   .text.CoAPMessage_process:00000000000001ce .L246
C:\Users\stapi\AppData\Local\Temp\ccjQ9O0I.s:3071   .text.CoAPMessage_process:00000000000000fe .L211
C:\Users\stapi\AppData\Local\Temp\ccjQ9O0I.s:3276   .text.CoAPMessage_process:00000000000001e6 .L212
C:\Users\stapi\AppData\Local\Temp\ccjQ9O0I.s:3111   .text.CoAPMessage_process:0000000000000130 .L218
C:\Users\stapi\AppData\Local\Temp\ccjQ9O0I.s:3262   .text.CoAPMessage_process:00000000000001dc .L214
C:\Users\stapi\AppData\Local\Temp\ccjQ9O0I.s:3203   .text.CoAPMessage_process:00000000000001b4 .L215
C:\Users\stapi\AppData\Local\Temp\ccjQ9O0I.s:3093   .text.CoAPMessage_process:000000000000011c .L213
C:\Users\stapi\AppData\Local\Temp\ccjQ9O0I.s:3597   .text.CoAPMessage_process:00000000000003b2 .L219
C:\Users\stapi\AppData\Local\Temp\ccjQ9O0I.s:3304   .text.CoAPMessage_process:0000000000000208 .L220
C:\Users\stapi\AppData\Local\Temp\ccjQ9O0I.s:3338   .text.CoAPMessage_process:000000000000023e .L224
C:\Users\stapi\AppData\Local\Temp\ccjQ9O0I.s:3375   .text.CoAPMessage_process:000000000000027c .L223
C:\Users\stapi\AppData\Local\Temp\ccjQ9O0I.s:3570   .text.CoAPMessage_process:0000000000000386 .L222
C:\Users\stapi\AppData\Local\Temp\ccjQ9O0I.s:3433   .text.CoAPMessage_process:00000000000002d6 .L226
C:\Users\stapi\AppData\Local\Temp\ccjQ9O0I.s:3407   .text.CoAPMessage_process:00000000000002a4 .L227
C:\Users\stapi\AppData\Local\Temp\ccjQ9O0I.s:3098   .text.CoAPMessage_process:0000000000000124 .L233
C:\Users\stapi\AppData\Local\Temp\ccjQ9O0I.s:3587   .text.CoAPMessage_process:00000000000003a6 .L230
C:\Users\stapi\AppData\Local\Temp\ccjQ9O0I.s:3579   .text.CoAPMessage_process:0000000000000392 .L231
C:\Users\stapi\AppData\Local\Temp\ccjQ9O0I.s:3551   .text.CoAPMessage_process:0000000000000358 .L232
C:\Users\stapi\AppData\Local\Temp\ccjQ9O0I.s:3329   .text.CoAPMessage_process:0000000000000232 .L221
C:\Users\stapi\AppData\Local\Temp\ccjQ9O0I.s:3562   .text.CoAPMessage_process:0000000000000374 .L269
C:\Users\stapi\AppData\Local\Temp\ccjQ9O0I.s:3456   .text.CoAPMessage_process:00000000000002fc .L229
C:\Users\stapi\AppData\Local\Temp\ccjQ9O0I.s:3684   .text.CoAPMessage_process:000000000000040e .L235
C:\Users\stapi\AppData\Local\Temp\ccjQ9O0I.s:3901   .text.CoAPMessage_process:000000000000057a .L236
C:\Users\stapi\AppData\Local\Temp\ccjQ9O0I.s:3809   .text.CoAPMessage_process:00000000000004d6 .L239
C:\Users\stapi\AppData\Local\Temp\ccjQ9O0I.s:3885   .text.CoAPMessage_process:0000000000000554 .L240
C:\Users\stapi\AppData\Local\Temp\ccjQ9O0I.s:3877   .text.CoAPMessage_process:0000000000000540 .L241
C:\Users\stapi\AppData\Local\Temp\ccjQ9O0I.s:3849   .text.CoAPMessage_process:000000000000050a .L242
C:\Users\stapi\AppData\Local\Temp\ccjQ9O0I.s:3796   .text.CoAPMessage_process:00000000000004c8 .L243
C:\Users\stapi\AppData\Local\Temp\ccjQ9O0I.s:3841   .text.CoAPMessage_process:0000000000000504 .L238
C:\Users\stapi\AppData\Local\Temp\ccjQ9O0I.s:3738   .text.CoAPMessage_process:0000000000000462 .L237
C:\Users\stapi\AppData\Local\Temp\ccjQ9O0I.s:3856   .text.CoAPMessage_process:000000000000051c .L271
C:\Users\stapi\AppData\Local\Temp\ccjQ9O0I.s:3865   .text.CoAPMessage_process:0000000000000530 .L270
C:\Users\stapi\AppData\Local\Temp\ccjQ9O0I.s:3935   .rodata.CoAPMessage_cycle.str1.4:0000000000000058 .LC36
C:\Users\stapi\AppData\Local\Temp\ccjQ9O0I.s:3929   .rodata.CoAPMessage_cycle.str1.4:0000000000000000 .LC34
C:\Users\stapi\AppData\Local\Temp\ccjQ9O0I.s:3932   .rodata.CoAPMessage_cycle.str1.4:0000000000000024 .LC35
C:\Users\stapi\AppData\Local\Temp\ccjQ9O0I.s:4376   .text.CoAPMessage_cycle:0000000000000248 .L272
C:\Users\stapi\AppData\Local\Temp\ccjQ9O0I.s:3985   .text.CoAPMessage_cycle:0000000000000028 .L274
C:\Users\stapi\AppData\Local\Temp\ccjQ9O0I.s:4101   .text.CoAPMessage_cycle:00000000000000c0 .L281
C:\Users\stapi\AppData\Local\Temp\ccjQ9O0I.s:4206   .text.CoAPMessage_cycle:0000000000000182 .L286
C:\Users\stapi\AppData\Local\Temp\ccjQ9O0I.s:4313   .text.CoAPMessage_cycle:00000000000001ec .L285
C:\Users\stapi\AppData\Local\Temp\ccjQ9O0I.s:4188   .text.CoAPMessage_cycle:000000000000016a .L276
C:\Users\stapi\AppData\Local\Temp\ccjQ9O0I.s:4113   .text.CoAPMessage_cycle:00000000000000d0 .L293
C:\Users\stapi\AppData\Local\Temp\ccjQ9O0I.s:4143   .text.CoAPMessage_cycle:0000000000000114 .L278
C:\Users\stapi\AppData\Local\Temp\ccjQ9O0I.s:4198   .text.CoAPMessage_cycle:0000000000000176 .L279
C:\Users\stapi\AppData\Local\Temp\ccjQ9O0I.s:4040   .text.CoAPMessage_cycle:0000000000000070 .L275
C:\Users\stapi\AppData\Local\Temp\ccjQ9O0I.s:4169   .text.CoAPMessage_cycle:000000000000013c .L280
C:\Users\stapi\AppData\Local\Temp\ccjQ9O0I.s:4346   .text.CoAPMessage_cycle:0000000000000220 .L283
C:\Users\stapi\AppData\Local\Temp\ccjQ9O0I.s:4225   .text.CoAPMessage_cycle:000000000000019c .L294
C:\Users\stapi\AppData\Local\Temp\ccjQ9O0I.s:4355   .text.CoAPMessage_cycle:000000000000022a .L287
C:\Users\stapi\AppData\Local\Temp\ccjQ9O0I.s:4334   .text.CoAPMessage_cycle:000000000000020a .L288
C:\Users\stapi\AppData\Local\Temp\ccjQ9O0I.s:4078   .text.CoAPMessage_cycle:000000000000009e .L289
C:\Users\stapi\AppData\Local\Temp\ccjQ9O0I.s:4092   .text.CoAPMessage_cycle:00000000000000b4 .L282
C:\Users\stapi\AppData\Local\Temp\ccjQ9O0I.s:4368   .text.CoAPMessage_cycle:000000000000023a .L291
C:\Users\stapi\AppData\Local\Temp\ccjQ9O0I.s:10714  .debug_abbrev:0000000000000000 .Ldebug_abbrev0
C:\Users\stapi\AppData\Local\Temp\ccjQ9O0I.s:15812  .debug_str:0000000000000d2c .LASF219
C:\Users\stapi\AppData\Local\Temp\ccjQ9O0I.s:15682  .debug_str:00000000000008a3 .LASF220
C:\Users\stapi\AppData\Local\Temp\ccjQ9O0I.s:15584  .debug_str:0000000000000524 .LASF221
C:\Users\stapi\AppData\Local\Temp\ccjQ9O0I.s:15154  .debug_ranges:0000000000000000 .Ldebug_ranges0
C:\Users\stapi\AppData\Local\Temp\ccjQ9O0I.s:15394  .debug_line:0000000000000000 .Ldebug_line0
C:\Users\stapi\AppData\Local\Temp\ccjQ9O0I.s:15484  .debug_str:000000000000023e .LASF0
C:\Users\stapi\AppData\Local\Temp\ccjQ9O0I.s:15706  .debug_str:00000000000009c6 .LASF1
C:\Users\stapi\AppData\Local\Temp\ccjQ9O0I.s:15608  .debug_str:0000000000000660 .LASF2
C:\Users\stapi\AppData\Local\Temp\ccjQ9O0I.s:15576  .debug_str:00000000000004ef .LASF3
C:\Users\stapi\AppData\Local\Temp\ccjQ9O0I.s:15500  .debug_str:00000000000002a4 .LASF4
C:\Users\stapi\AppData\Local\Temp\ccjQ9O0I.s:15558  .debug_str:0000000000000439 .LASF5
C:\Users\stapi\AppData\Local\Temp\ccjQ9O0I.s:15482  .debug_str:0000000000000230 .LASF6
C:\Users\stapi\AppData\Local\Temp\ccjQ9O0I.s:15680  .debug_str:0000000000000898 .LASF9
C:\Users\stapi\AppData\Local\Temp\ccjQ9O0I.s:15452  .debug_str:0000000000000153 .LASF7
C:\Users\stapi\AppData\Local\Temp\ccjQ9O0I.s:15550  .debug_str:00000000000003f4 .LASF8
C:\Users\stapi\AppData\Local\Temp\ccjQ9O0I.s:15410  .debug_str:0000000000000050 .LASF10
C:\Users\stapi\AppData\Local\Temp\ccjQ9O0I.s:15750  .debug_str:0000000000000b47 .LASF11
C:\Users\stapi\AppData\Local\Temp\ccjQ9O0I.s:15418  .debug_str:0000000000000072 .LASF12
C:\Users\stapi\AppData\Local\Temp\ccjQ9O0I.s:15704  .debug_str:00000000000009b6 .LASF57
C:\Users\stapi\AppData\Local\Temp\ccjQ9O0I.s:15492  .debug_str:000000000000027b .LASF13
C:\Users\stapi\AppData\Local\Temp\ccjQ9O0I.s:15542  .debug_str:00000000000003c6 .LASF14
C:\Users\stapi\AppData\Local\Temp\ccjQ9O0I.s:15596  .debug_str:00000000000005fe .LASF15
C:\Users\stapi\AppData\Local\Temp\ccjQ9O0I.s:15662  .debug_str:0000000000000800 .LASF16
C:\Users\stapi\AppData\Local\Temp\ccjQ9O0I.s:15546  .debug_str:00000000000003d0 .LASF17
C:\Users\stapi\AppData\Local\Temp\ccjQ9O0I.s:15798  .debug_str:0000000000000c90 .LASF18
C:\Users\stapi\AppData\Local\Temp\ccjQ9O0I.s:15686  .debug_str:0000000000000956 .LASF19
C:\Users\stapi\AppData\Local\Temp\ccjQ9O0I.s:15424  .debug_str:0000000000000091 .LASF20
C:\Users\stapi\AppData\Local\Temp\ccjQ9O0I.s:15556  .debug_str:000000000000041f .LASF21
C:\Users\stapi\AppData\Local\Temp\ccjQ9O0I.s:15434  .debug_str:00000000000000de .LASF22
C:\Users\stapi\AppData\Local\Temp\ccjQ9O0I.s:15514  .debug_str:00000000000002fb .LASF23
C:\Users\stapi\AppData\Local\Temp\ccjQ9O0I.s:15832  .debug_str:0000000000000e93 .LASF24
C:\Users\stapi\AppData\Local\Temp\ccjQ9O0I.s:15758  .debug_str:0000000000000b7e .LASF25
C:\Users\stapi\AppData\Local\Temp\ccjQ9O0I.s:15818  .debug_str:0000000000000e2c .LASF26
C:\Users\stapi\AppData\Local\Temp\ccjQ9O0I.s:15730  .debug_str:0000000000000a9a .LASF27
C:\Users\stapi\AppData\Local\Temp\ccjQ9O0I.s:15560  .debug_str:000000000000044b .LASF28
C:\Users\stapi\AppData\Local\Temp\ccjQ9O0I.s:15674  .debug_str:000000000000086a .LASF29
C:\Users\stapi\AppData\Local\Temp\ccjQ9O0I.s:15462  .debug_str:0000000000000193 .LASF30
C:\Users\stapi\AppData\Local\Temp\ccjQ9O0I.s:15796  .debug_str:0000000000000c74 .LASF31
C:\Users\stapi\AppData\Local\Temp\ccjQ9O0I.s:15624  .debug_str:00000000000006e1 .LASF32
C:\Users\stapi\AppData\Local\Temp\ccjQ9O0I.s:15756  .debug_str:0000000000000b5d .LASF33
C:\Users\stapi\AppData\Local\Temp\ccjQ9O0I.s:15638  .debug_str:000000000000074b .LASF34
C:\Users\stapi\AppData\Local\Temp\ccjQ9O0I.s:15808  .debug_str:0000000000000cf3 .LASF35
C:\Users\stapi\AppData\Local\Temp\ccjQ9O0I.s:15744  .debug_str:0000000000000b00 .LASF36
C:\Users\stapi\AppData\Local\Temp\ccjQ9O0I.s:15466  .debug_str:00000000000001b7 .LASF37
C:\Users\stapi\AppData\Local\Temp\ccjQ9O0I.s:15612  .debug_str:0000000000000670 .LASF38
C:\Users\stapi\AppData\Local\Temp\ccjQ9O0I.s:15538  .debug_str:0000000000000393 .LASF39
C:\Users\stapi\AppData\Local\Temp\ccjQ9O0I.s:15840  .debug_str:0000000000000edc .LASF40
C:\Users\stapi\AppData\Local\Temp\ccjQ9O0I.s:15720  .debug_str:0000000000000a3e .LASF41
C:\Users\stapi\AppData\Local\Temp\ccjQ9O0I.s:15574  .debug_str:00000000000004cd .LASF42
C:\Users\stapi\AppData\Local\Temp\ccjQ9O0I.s:15572  .debug_str:00000000000004a4 .LASF43
C:\Users\stapi\AppData\Local\Temp\ccjQ9O0I.s:15728  .debug_str:0000000000000a8a .LASF44
C:\Users\stapi\AppData\Local\Temp\ccjQ9O0I.s:15506  .debug_str:00000000000002cb .LASF45
C:\Users\stapi\AppData\Local\Temp\ccjQ9O0I.s:15446  .debug_str:0000000000000125 .LASF46
C:\Users\stapi\AppData\Local\Temp\ccjQ9O0I.s:15468  .debug_str:00000000000001e4 .LASF47
C:\Users\stapi\AppData\Local\Temp\ccjQ9O0I.s:15402  .debug_str:0000000000000029 .LASF48
C:\Users\stapi\AppData\Local\Temp\ccjQ9O0I.s:15782  .debug_str:0000000000000c1d .LASF49
C:\Users\stapi\AppData\Local\Temp\ccjQ9O0I.s:15436  .debug_str:00000000000000f8 .LASF50
C:\Users\stapi\AppData\Local\Temp\ccjQ9O0I.s:15426  .debug_str:00000000000000a6 .LASF51
C:\Users\stapi\AppData\Local\Temp\ccjQ9O0I.s:15792  .debug_str:0000000000000c68 .LASF52
C:\Users\stapi\AppData\Local\Temp\ccjQ9O0I.s:15724  .debug_str:0000000000000a76 .LASF53
C:\Users\stapi\AppData\Local\Temp\ccjQ9O0I.s:15586  .debug_str:00000000000005b5 .LASF54
C:\Users\stapi\AppData\Local\Temp\ccjQ9O0I.s:15508  .debug_str:00000000000002e0 .LASF55
C:\Users\stapi\AppData\Local\Temp\ccjQ9O0I.s:15640  .debug_str:0000000000000777 .LASF103
C:\Users\stapi\AppData\Local\Temp\ccjQ9O0I.s:15660  .debug_str:00000000000007f4 .LASF56
C:\Users\stapi\AppData\Local\Temp\ccjQ9O0I.s:15836  .debug_str:0000000000000ec1 .LASF58
C:\Users\stapi\AppData\Local\Temp\ccjQ9O0I.s:15690  .debug_str:0000000000000975 .LASF59
C:\Users\stapi\AppData\Local\Temp\ccjQ9O0I.s:15530  .debug_str:0000000000000357 .LASF60
C:\Users\stapi\AppData\Local\Temp\ccjQ9O0I.s:15752  .debug_str:0000000000000b4c .LASF61
C:\Users\stapi\AppData\Local\Temp\ccjQ9O0I.s:15740  .debug_str:0000000000000aee .LASF62
C:\Users\stapi\AppData\Local\Temp\ccjQ9O0I.s:15628  .debug_str:0000000000000718 .LASF63
C:\Users\stapi\AppData\Local\Temp\ccjQ9O0I.s:15776  .debug_str:0000000000000c02 .LASF64
C:\Users\stapi\AppData\Local\Temp\ccjQ9O0I.s:15622  .debug_str:00000000000006d9 .LASF65
C:\Users\stapi\AppData\Local\Temp\ccjQ9O0I.s:15694  .debug_str:000000000000098d .LASF66
C:\Users\stapi\AppData\Local\Temp\ccjQ9O0I.s:15578  .debug_str:0000000000000502 .LASF67
C:\Users\stapi\AppData\Local\Temp\ccjQ9O0I.s:15470  .debug_str:00000000000001f7 .LASF68
C:\Users\stapi\AppData\Local\Temp\ccjQ9O0I.s:15606  .debug_str:000000000000064d .LASF69
C:\Users\stapi\AppData\Local\Temp\ccjQ9O0I.s:15656  .debug_str:00000000000007da .LASF70
C:\Users\stapi\AppData\Local\Temp\ccjQ9O0I.s:15432  .debug_str:00000000000000cb .LASF71
C:\Users\stapi\AppData\Local\Temp\ccjQ9O0I.s:15618  .debug_str:00000000000006b7 .LASF72
C:\Users\stapi\AppData\Local\Temp\ccjQ9O0I.s:15420  .debug_str:000000000000007b .LASF73
C:\Users\stapi\AppData\Local\Temp\ccjQ9O0I.s:15582  .debug_str:0000000000000518 .LASF74
C:\Users\stapi\AppData\Local\Temp\ccjQ9O0I.s:15824  .debug_str:0000000000000e5e .LASF75
C:\Users\stapi\AppData\Local\Temp\ccjQ9O0I.s:15816  .debug_str:0000000000000e27 .LASF76
C:\Users\stapi\AppData\Local\Temp\ccjQ9O0I.s:15412  .debug_str:0000000000000057 .LASF77
C:\Users\stapi\AppData\Local\Temp\ccjQ9O0I.s:15702  .debug_str:00000000000009ae .LASF78
C:\Users\stapi\AppData\Local\Temp\ccjQ9O0I.s:15494  .debug_str:0000000000000280 .LASF79
C:\Users\stapi\AppData\Local\Temp\ccjQ9O0I.s:15592  .debug_str:00000000000005e9 .LASF80
C:\Users\stapi\AppData\Local\Temp\ccjQ9O0I.s:15408  .debug_str:000000000000004a .LASF81
C:\Users\stapi\AppData\Local\Temp\ccjQ9O0I.s:15698  .debug_str:00000000000009a1 .LASF82
C:\Users\stapi\AppData\Local\Temp\ccjQ9O0I.s:15772  .debug_str:0000000000000be4 .LASF83
C:\Users\stapi\AppData\Local\Temp\ccjQ9O0I.s:15444  .debug_str:0000000000000120 .LASF84
C:\Users\stapi\AppData\Local\Temp\ccjQ9O0I.s:15632  .debug_str:000000000000072d .LASF85
C:\Users\stapi\AppData\Local\Temp\ccjQ9O0I.s:15630  .debug_str:0000000000000723 .LASF86
C:\Users\stapi\AppData\Local\Temp\ccjQ9O0I.s:15688  .debug_str:0000000000000968 .LASF87
C:\Users\stapi\AppData\Local\Temp\ccjQ9O0I.s:15828  .debug_str:0000000000000e70 .LASF88
C:\Users\stapi\AppData\Local\Temp\ccjQ9O0I.s:15564  .debug_str:0000000000000471 .LASF89
C:\Users\stapi\AppData\Local\Temp\ccjQ9O0I.s:15820  .debug_str:0000000000000e47 .LASF90
C:\Users\stapi\AppData\Local\Temp\ccjQ9O0I.s:15678  .debug_str:0000000000000891 .LASF91
C:\Users\stapi\AppData\Local\Temp\ccjQ9O0I.s:15748  .debug_str:0000000000000b40 .LASF92
C:\Users\stapi\AppData\Local\Temp\ccjQ9O0I.s:15554  .debug_str:0000000000000416 .LASF93
C:\Users\stapi\AppData\Local\Temp\ccjQ9O0I.s:15754  .debug_str:0000000000000b55 .LASF94
C:\Users\stapi\AppData\Local\Temp\ccjQ9O0I.s:15710  .debug_str:00000000000009d9 .LASF95
C:\Users\stapi\AppData\Local\Temp\ccjQ9O0I.s:15768  .debug_str:0000000000000bc1 .LASF96
C:\Users\stapi\AppData\Local\Temp\ccjQ9O0I.s:15504  .debug_str:00000000000002be .LASF97
C:\Users\stapi\AppData\Local\Temp\ccjQ9O0I.s:15766  .debug_str:0000000000000bb5 .LASF98
C:\Users\stapi\AppData\Local\Temp\ccjQ9O0I.s:15472  .debug_str:0000000000000201 .LASF99
C:\Users\stapi\AppData\Local\Temp\ccjQ9O0I.s:15736  .debug_str:0000000000000ad7 .LASF100
C:\Users\stapi\AppData\Local\Temp\ccjQ9O0I.s:15716  .debug_str:0000000000000a11 .LASF101
C:\Users\stapi\AppData\Local\Temp\ccjQ9O0I.s:15516  .debug_str:0000000000000313 .LASF102
C:\Users\stapi\AppData\Local\Temp\ccjQ9O0I.s:15454  .debug_str:000000000000016a .LASF104
C:\Users\stapi\AppData\Local\Temp\ccjQ9O0I.s:15822  .debug_str:0000000000000e53 .LASF105
C:\Users\stapi\AppData\Local\Temp\ccjQ9O0I.s:15498  .debug_str:000000000000029f .LASF106
C:\Users\stapi\AppData\Local\Temp\ccjQ9O0I.s:15526  .debug_str:000000000000034c .LASF107
C:\Users\stapi\AppData\Local\Temp\ccjQ9O0I.s:15474  .debug_str:000000000000020b .LASF108
C:\Users\stapi\AppData\Local\Temp\ccjQ9O0I.s:15742  .debug_str:0000000000000af7 .LASF109
C:\Users\stapi\AppData\Local\Temp\ccjQ9O0I.s:15566  .debug_str:0000000000000479 .LASF110
C:\Users\stapi\AppData\Local\Temp\ccjQ9O0I.s:15676  .debug_str:0000000000000887 .LASF111
C:\Users\stapi\AppData\Local\Temp\ccjQ9O0I.s:15534  .debug_str:000000000000036e .LASF112
C:\Users\stapi\AppData\Local\Temp\ccjQ9O0I.s:15464  .debug_str:00000000000001af .LASF113
C:\Users\stapi\AppData\Local\Temp\ccjQ9O0I.s:15732  .debug_str:0000000000000ab8 .LASF114
C:\Users\stapi\AppData\Local\Temp\ccjQ9O0I.s:15762  .debug_str:0000000000000ba5 .LASF115
C:\Users\stapi\AppData\Local\Temp\ccjQ9O0I.s:15826  .debug_str:0000000000000e66 .LASF116
C:\Users\stapi\AppData\Local\Temp\ccjQ9O0I.s:15404  .debug_str:0000000000000037 .LASF117
C:\Users\stapi\AppData\Local\Temp\ccjQ9O0I.s:15648  .debug_str:00000000000007ab .LASF118
C:\Users\stapi\AppData\Local\Temp\ccjQ9O0I.s:15456  .debug_str:0000000000000179 .LASF119
C:\Users\stapi\AppData\Local\Temp\ccjQ9O0I.s:15700  .debug_str:00000000000009a8 .LASF120
C:\Users\stapi\AppData\Local\Temp\ccjQ9O0I.s:15696  .debug_str:0000000000000992 .LASF121
C:\Users\stapi\AppData\Local\Temp\ccjQ9O0I.s:15786  .debug_str:0000000000000c3d .LASF222
C:\Users\stapi\AppData\Local\Temp\ccjQ9O0I.s:15588  .debug_str:00000000000005c3 .LASF128
C:\Users\stapi\AppData\Local\Temp\ccjQ9O0I.s:3942   .text.CoAPMessage_cycle:0000000000000000 .LFB56
C:\Users\stapi\AppData\Local\Temp\ccjQ9O0I.s:4397   .text.CoAPMessage_cycle:0000000000000254 .LFE56
C:\Users\stapi\AppData\Local\Temp\ccjQ9O0I.s:15780  .debug_str:0000000000000c15 .LASF126
C:\Users\stapi\AppData\Local\Temp\ccjQ9O0I.s:11908  .debug_loc:0000000000000000 .LLST164
C:\Users\stapi\AppData\Local\Temp\ccjQ9O0I.s:11926  .debug_loc:000000000000002c .LLST165
C:\Users\stapi\AppData\Local\Temp\ccjQ9O0I.s:11942  .debug_loc:0000000000000056 .LLST166
C:\Users\stapi\AppData\Local\Temp\ccjQ9O0I.s:3990   .text.CoAPMessage_cycle:000000000000002c .LBB216
C:\Users\stapi\AppData\Local\Temp\ccjQ9O0I.s:11960  .debug_loc:0000000000000082 .LLST167
C:\Users\stapi\AppData\Local\Temp\ccjQ9O0I.s:11971  .debug_loc:00000000000000a0 .LLST168
C:\Users\stapi\AppData\Local\Temp\ccjQ9O0I.s:11978  .debug_loc:00000000000000b3 .LLST169
C:\Users\stapi\AppData\Local\Temp\ccjQ9O0I.s:12002  .debug_loc:00000000000000f3 .LLST170
C:\Users\stapi\AppData\Local\Temp\ccjQ9O0I.s:12028  .debug_loc:0000000000000135 .LLST171
C:\Users\stapi\AppData\Local\Temp\ccjQ9O0I.s:12036  .debug_loc:0000000000000149 .LLST172
C:\Users\stapi\AppData\Local\Temp\ccjQ9O0I.s:4185   .text.CoAPMessage_cycle:000000000000016a .LBB218
C:\Users\stapi\AppData\Local\Temp\ccjQ9O0I.s:4190   .text.CoAPMessage_cycle:000000000000016a .LBE218
C:\Users\stapi\AppData\Local\Temp\ccjQ9O0I.s:4010   .text.CoAPMessage_cycle:0000000000000040 .LVL431
C:\Users\stapi\AppData\Local\Temp\ccjQ9O0I.s:4022   .text.CoAPMessage_cycle:0000000000000052 .LVL433
C:\Users\stapi\AppData\Local\Temp\ccjQ9O0I.s:4060   .text.CoAPMessage_cycle:000000000000008e .LVL437
C:\Users\stapi\AppData\Local\Temp\ccjQ9O0I.s:4132   .text.CoAPMessage_cycle:0000000000000100 .LVL446
C:\Users\stapi\AppData\Local\Temp\ccjQ9O0I.s:4141   .text.CoAPMessage_cycle:0000000000000114 .LVL447
C:\Users\stapi\AppData\Local\Temp\ccjQ9O0I.s:4183   .text.CoAPMessage_cycle:000000000000016a .LVL448
C:\Users\stapi\AppData\Local\Temp\ccjQ9O0I.s:4049   .text.CoAPMessage_cycle:000000000000007e .LBB224
C:\Users\stapi\AppData\Local\Temp\ccjQ9O0I.s:12066  .debug_loc:0000000000000181 .LLST173
C:\Users\stapi\AppData\Local\Temp\ccjQ9O0I.s:12077  .debug_loc:000000000000019f .LLST174
C:\Users\stapi\AppData\Local\Temp\ccjQ9O0I.s:12088  .debug_loc:00000000000001bd .LLST175
C:\Users\stapi\AppData\Local\Temp\ccjQ9O0I.s:12118  .debug_loc:000000000000020a .LLST176
C:\Users\stapi\AppData\Local\Temp\ccjQ9O0I.s:12148  .debug_loc:0000000000000257 .LLST177
C:\Users\stapi\AppData\Local\Temp\ccjQ9O0I.s:12170  .debug_loc:000000000000028e .LLST178
C:\Users\stapi\AppData\Local\Temp\ccjQ9O0I.s:4233   .text.CoAPMessage_cycle:000000000000019c .LBB226
C:\Users\stapi\AppData\Local\Temp\ccjQ9O0I.s:12200  .debug_loc:00000000000002c6 .LLST179
C:\Users\stapi\AppData\Local\Temp\ccjQ9O0I.s:4234   .text.CoAPMessage_cycle:000000000000019c .LBB227
C:\Users\stapi\AppData\Local\Temp\ccjQ9O0I.s:12207  .debug_loc:00000000000002d9 .LLST180
C:\Users\stapi\AppData\Local\Temp\ccjQ9O0I.s:12214  .debug_loc:00000000000002ec .LLST181
C:\Users\stapi\AppData\Local\Temp\ccjQ9O0I.s:12221  .debug_loc:00000000000002ff .LLST182
C:\Users\stapi\AppData\Local\Temp\ccjQ9O0I.s:4268   .text.CoAPMessage_cycle:00000000000001a8 .LBB231
C:\Users\stapi\AppData\Local\Temp\ccjQ9O0I.s:4278   .text.CoAPMessage_cycle:00000000000001ac .LBE231
C:\Users\stapi\AppData\Local\Temp\ccjQ9O0I.s:12228  .debug_loc:0000000000000312 .LLST183
C:\Users\stapi\AppData\Local\Temp\ccjQ9O0I.s:4071   .text.CoAPMessage_cycle:0000000000000096 .LVL438
C:\Users\stapi\AppData\Local\Temp\ccjQ9O0I.s:4084   .text.CoAPMessage_cycle:00000000000000a8 .LVL441
C:\Users\stapi\AppData\Local\Temp\ccjQ9O0I.s:4288   .text.CoAPMessage_cycle:00000000000001be .LVL457
C:\Users\stapi\AppData\Local\Temp\ccjQ9O0I.s:4294   .text.CoAPMessage_cycle:00000000000001d2 .LVL458
C:\Users\stapi\AppData\Local\Temp\ccjQ9O0I.s:4298   .text.CoAPMessage_cycle:00000000000001de .LVL459
C:\Users\stapi\AppData\Local\Temp\ccjQ9O0I.s:4310   .text.CoAPMessage_cycle:00000000000001ec .LVL460
C:\Users\stapi\AppData\Local\Temp\ccjQ9O0I.s:4317   .text.CoAPMessage_cycle:00000000000001f6 .LVL461
C:\Users\stapi\AppData\Local\Temp\ccjQ9O0I.s:4333   .text.CoAPMessage_cycle:000000000000020a .LVL462
C:\Users\stapi\AppData\Local\Temp\ccjQ9O0I.s:4338   .text.CoAPMessage_cycle:0000000000000214 .LVL463
C:\Users\stapi\AppData\Local\Temp\ccjQ9O0I.s:4342   .text.CoAPMessage_cycle:000000000000021e .LVL464
C:\Users\stapi\AppData\Local\Temp\ccjQ9O0I.s:3984   .text.CoAPMessage_cycle:0000000000000028 .LVL428
C:\Users\stapi\AppData\Local\Temp\ccjQ9O0I.s:3998   .text.CoAPMessage_cycle:0000000000000036 .LVL429
C:\Users\stapi\AppData\Local\Temp\ccjQ9O0I.s:4367   .text.CoAPMessage_cycle:000000000000023a .LVL469
C:\Users\stapi\AppData\Local\Temp\ccjQ9O0I.s:4375   .text.CoAPMessage_cycle:0000000000000248 .LVL470
C:\Users\stapi\AppData\Local\Temp\ccjQ9O0I.s:15422  .debug_str:0000000000000087 .LASF124
C:\Users\stapi\AppData\Local\Temp\ccjQ9O0I.s:15708  .debug_str:00000000000009d4 .LASF122
C:\Users\stapi\AppData\Local\Temp\ccjQ9O0I.s:15524  .debug_str:0000000000000347 .LASF123
C:\Users\stapi\AppData\Local\Temp\ccjQ9O0I.s:15568  .debug_str:0000000000000484 .LASF133
C:\Users\stapi\AppData\Local\Temp\ccjQ9O0I.s:15430  .debug_str:00000000000000bd .LASF125
C:\Users\stapi\AppData\Local\Temp\ccjQ9O0I.s:15760  .debug_str:0000000000000b98 .LASF127
C:\Users\stapi\AppData\Local\Temp\ccjQ9O0I.s:15834  .debug_str:0000000000000ead .LASF129
C:\Users\stapi\AppData\Local\Temp\ccjQ9O0I.s:2910   .text.CoAPMessage_process:0000000000000000 .LFB53
C:\Users\stapi\AppData\Local\Temp\ccjQ9O0I.s:3925   .text.CoAPMessage_process:00000000000005ac .LFE53
C:\Users\stapi\AppData\Local\Temp\ccjQ9O0I.s:12235  .debug_loc:0000000000000325 .LLST114
C:\Users\stapi\AppData\Local\Temp\ccjQ9O0I.s:12257  .debug_loc:000000000000035c .LLST115
C:\Users\stapi\AppData\Local\Temp\ccjQ9O0I.s:12279  .debug_loc:0000000000000396 .LLST116
C:\Users\stapi\AppData\Local\Temp\ccjQ9O0I.s:15650  .debug_str:00000000000007b4 .LASF130
C:\Users\stapi\AppData\Local\Temp\ccjQ9O0I.s:12307  .debug_loc:00000000000003e1 .LLST117
C:\Users\stapi\AppData\Local\Temp\ccjQ9O0I.s:2999   .text.CoAPMessage_process:000000000000007c .LBB148
C:\Users\stapi\AppData\Local\Temp\ccjQ9O0I.s:12329  .debug_loc:0000000000000418 .LLST118
C:\Users\stapi\AppData\Local\Temp\ccjQ9O0I.s:12352  .debug_loc:0000000000000457 .LLST119
C:\Users\stapi\AppData\Local\Temp\ccjQ9O0I.s:12359  .debug_loc:000000000000046a .LLST120
C:\Users\stapi\AppData\Local\Temp\ccjQ9O0I.s:12454  .debug_loc:0000000000000556 .LLST121
C:\Users\stapi\AppData\Local\Temp\ccjQ9O0I.s:12469  .debug_loc:000000000000057f .LLST122
C:\Users\stapi\AppData\Local\Temp\ccjQ9O0I.s:3074   .text.CoAPMessage_process:00000000000000fe .LBB150
C:\Users\stapi\AppData\Local\Temp\ccjQ9O0I.s:12477  .debug_loc:0000000000000593 .LLST124
C:\Users\stapi\AppData\Local\Temp\ccjQ9O0I.s:12498  .debug_loc:00000000000005c5 .LLST125
C:\Users\stapi\AppData\Local\Temp\ccjQ9O0I.s:12513  .debug_loc:00000000000005ee .LLST126
C:\Users\stapi\AppData\Local\Temp\ccjQ9O0I.s:12537  .debug_loc:000000000000062e .LLST127
C:\Users\stapi\AppData\Local\Temp\ccjQ9O0I.s:12562  .debug_loc:000000000000066f .LLST129
C:\Users\stapi\AppData\Local\Temp\ccjQ9O0I.s:12569  .debug_loc:0000000000000682 .LLST130
C:\Users\stapi\AppData\Local\Temp\ccjQ9O0I.s:3150   .text.CoAPMessage_process:0000000000000164 .LBB153
C:\Users\stapi\AppData\Local\Temp\ccjQ9O0I.s:12576  .debug_loc:0000000000000695 .LLST131
C:\Users\stapi\AppData\Local\Temp\ccjQ9O0I.s:12585  .debug_loc:00000000000006aa .LLST132
C:\Users\stapi\AppData\Local\Temp\ccjQ9O0I.s:12592  .debug_loc:00000000000006bd .LLST133
C:\Users\stapi\AppData\Local\Temp\ccjQ9O0I.s:3136   .text.CoAPMessage_process:0000000000000150 .LVL329
C:\Users\stapi\AppData\Local\Temp\ccjQ9O0I.s:3177   .text.CoAPMessage_process:0000000000000176 .LVL334
C:\Users\stapi\AppData\Local\Temp\ccjQ9O0I.s:3181   .text.CoAPMessage_process:0000000000000180 .LVL335
C:\Users\stapi\AppData\Local\Temp\ccjQ9O0I.s:3202   .text.CoAPMessage_process:00000000000001b4 .LVL336
C:\Users\stapi\AppData\Local\Temp\ccjQ9O0I.s:3219   .text.CoAPMessage_process:00000000000001be .LVL337
C:\Users\stapi\AppData\Local\Temp\ccjQ9O0I.s:3230   .text.CoAPMessage_process:00000000000001ce .LVL338
C:\Users\stapi\AppData\Local\Temp\ccjQ9O0I.s:3081   .text.CoAPMessage_process:0000000000000108 .LVL321
C:\Users\stapi\AppData\Local\Temp\ccjQ9O0I.s:3101   .text.CoAPMessage_process:0000000000000124 .LBB161
C:\Users\stapi\AppData\Local\Temp\ccjQ9O0I.s:12599  .debug_loc:00000000000006d0 .LLST134
C:\Users\stapi\AppData\Local\Temp\ccjQ9O0I.s:12628  .debug_loc:0000000000000718 .LLST135
C:\Users\stapi\AppData\Local\Temp\ccjQ9O0I.s:12667  .debug_loc:0000000000000779 .LLST136
C:\Users\stapi\AppData\Local\Temp\ccjQ9O0I.s:12674  .debug_loc:000000000000078c .LLST137
C:\Users\stapi\AppData\Local\Temp\ccjQ9O0I.s:12701  .debug_loc:00000000000007cf .LLST138
C:\Users\stapi\AppData\Local\Temp\ccjQ9O0I.s:12743  .debug_loc:000000000000083d .LLST139
C:\Users\stapi\AppData\Local\Temp\ccjQ9O0I.s:3367   .text.CoAPMessage_process:000000000000027a .LBB163
C:\Users\stapi\AppData\Local\Temp\ccjQ9O0I.s:3371   .text.CoAPMessage_process:000000000000027a .LBE163
C:\Users\stapi\AppData\Local\Temp\ccjQ9O0I.s:12779  .debug_loc:0000000000000897 .LLST141
C:\Users\stapi\AppData\Local\Temp\ccjQ9O0I.s:3496   .text.CoAPMessage_process:0000000000000332 .LBB165
C:\Users\stapi\AppData\Local\Temp\ccjQ9O0I.s:12786  .debug_loc:00000000000008aa .LLST142
C:\Users\stapi\AppData\Local\Temp\ccjQ9O0I.s:3497   .text.CoAPMessage_process:0000000000000332 .LBB166
C:\Users\stapi\AppData\Local\Temp\ccjQ9O0I.s:3514   .text.CoAPMessage_process:000000000000033a .LBE166
C:\Users\stapi\AppData\Local\Temp\ccjQ9O0I.s:12793  .debug_loc:00000000000008bd .LLST143
C:\Users\stapi\AppData\Local\Temp\ccjQ9O0I.s:12800  .debug_loc:00000000000008d0 .LLST144
C:\Users\stapi\AppData\Local\Temp\ccjQ9O0I.s:12807  .debug_loc:00000000000008e3 .LLST145
C:\Users\stapi\AppData\Local\Temp\ccjQ9O0I.s:3526   .text.CoAPMessage_process:000000000000033a .LBB168
C:\Users\stapi\AppData\Local\Temp\ccjQ9O0I.s:3536   .text.CoAPMessage_process:0000000000000342 .LBE168
C:\Users\stapi\AppData\Local\Temp\ccjQ9O0I.s:12814  .debug_loc:00000000000008f6 .LLST146
C:\Users\stapi\AppData\Local\Temp\ccjQ9O0I.s:3106   .text.CoAPMessage_process:000000000000012e .LVL325
C:\Users\stapi\AppData\Local\Temp\ccjQ9O0I.s:3303   .text.CoAPMessage_process:0000000000000208 .LVL347
C:\Users\stapi\AppData\Local\Temp\ccjQ9O0I.s:3311   .text.CoAPMessage_process:0000000000000216 .LVL348
C:\Users\stapi\AppData\Local\Temp\ccjQ9O0I.s:3355   .text.CoAPMessage_process:0000000000000266 .LVL353
C:\Users\stapi\AppData\Local\Temp\ccjQ9O0I.s:3365   .text.CoAPMessage_process:000000000000027a .LVL355
C:\Users\stapi\AppData\Local\Temp\ccjQ9O0I.s:3379   .text.CoAPMessage_process:0000000000000286 .LVL357
C:\Users\stapi\AppData\Local\Temp\ccjQ9O0I.s:3406   .text.CoAPMessage_process:00000000000002a4 .LVL361
C:\Users\stapi\AppData\Local\Temp\ccjQ9O0I.s:3422   .text.CoAPMessage_process:00000000000002b4 .LVL364
C:\Users\stapi\AppData\Local\Temp\ccjQ9O0I.s:3432   .text.CoAPMessage_process:00000000000002d6 .LVL365
C:\Users\stapi\AppData\Local\Temp\ccjQ9O0I.s:3437   .text.CoAPMessage_process:00000000000002e0 .LVL366
C:\Users\stapi\AppData\Local\Temp\ccjQ9O0I.s:3476   .text.CoAPMessage_process:0000000000000328 .LVL370
C:\Users\stapi\AppData\Local\Temp\ccjQ9O0I.s:3550   .text.CoAPMessage_process:0000000000000358 .LVL375
C:\Users\stapi\AppData\Local\Temp\ccjQ9O0I.s:3555   .text.CoAPMessage_process:0000000000000362 .LVL376
C:\Users\stapi\AppData\Local\Temp\ccjQ9O0I.s:3567   .text.CoAPMessage_process:0000000000000384 .LVL377
C:\Users\stapi\AppData\Local\Temp\ccjQ9O0I.s:3604   .text.CoAPMessage_process:00000000000003b4 .LBB180
C:\Users\stapi\AppData\Local\Temp\ccjQ9O0I.s:12821  .debug_loc:0000000000000909 .LLST147
C:\Users\stapi\AppData\Local\Temp\ccjQ9O0I.s:12828  .debug_loc:000000000000091c .LLST148
C:\Users\stapi\AppData\Local\Temp\ccjQ9O0I.s:12847  .debug_loc:000000000000094b .LLST149
C:\Users\stapi\AppData\Local\Temp\ccjQ9O0I.s:12854  .debug_loc:000000000000095e .LLST150
C:\Users\stapi\AppData\Local\Temp\ccjQ9O0I.s:3622   .text.CoAPMessage_process:00000000000003c2 .LBB182
C:\Users\stapi\AppData\Local\Temp\ccjQ9O0I.s:12862  .debug_loc:0000000000000972 .LLST152
C:\Users\stapi\AppData\Local\Temp\ccjQ9O0I.s:12870  .debug_loc:0000000000000986 .LLST153
C:\Users\stapi\AppData\Local\Temp\ccjQ9O0I.s:3655   .text.CoAPMessage_process:00000000000003e8 .LBB188
C:\Users\stapi\AppData\Local\Temp\ccjQ9O0I.s:3664   .text.CoAPMessage_process:00000000000003ec .LBE188
C:\Users\stapi\AppData\Local\Temp\ccjQ9O0I.s:12879  .debug_loc:000000000000099c .LLST154
C:\Users\stapi\AppData\Local\Temp\ccjQ9O0I.s:12886  .debug_loc:00000000000009af .LLST155
C:\Users\stapi\AppData\Local\Temp\ccjQ9O0I.s:3620   .text.CoAPMessage_process:00000000000003c2 .LVL387
C:\Users\stapi\AppData\Local\Temp\ccjQ9O0I.s:3667   .text.CoAPMessage_process:00000000000003f4 .LVL390
C:\Users\stapi\AppData\Local\Temp\ccjQ9O0I.s:3675   .text.CoAPMessage_process:0000000000000402 .LVL392
C:\Users\stapi\AppData\Local\Temp\ccjQ9O0I.s:3679   .text.CoAPMessage_process:000000000000040c .LVL393
C:\Users\stapi\AppData\Local\Temp\ccjQ9O0I.s:3696   .text.CoAPMessage_process:000000000000041a .LBB192
C:\Users\stapi\AppData\Local\Temp\ccjQ9O0I.s:3903   .text.CoAPMessage_process:000000000000057a .LBE192
C:\Users\stapi\AppData\Local\Temp\ccjQ9O0I.s:12895  .debug_loc:00000000000009c5 .LLST156
C:\Users\stapi\AppData\Local\Temp\ccjQ9O0I.s:12934  .debug_loc:0000000000000a26 .LLST157
C:\Users\stapi\AppData\Local\Temp\ccjQ9O0I.s:12973  .debug_loc:0000000000000a87 .LLST158
C:\Users\stapi\AppData\Local\Temp\ccjQ9O0I.s:12980  .debug_loc:0000000000000a9a .LLST159
C:\Users\stapi\AppData\Local\Temp\ccjQ9O0I.s:12992  .debug_loc:0000000000000ab9 .LLST160
C:\Users\stapi\AppData\Local\Temp\ccjQ9O0I.s:13000  .debug_loc:0000000000000acd .LLST161
C:\Users\stapi\AppData\Local\Temp\ccjQ9O0I.s:13021  .debug_loc:0000000000000b03 .LLST162
C:\Users\stapi\AppData\Local\Temp\ccjQ9O0I.s:13046  .debug_loc:0000000000000b45 .LLST163
C:\Users\stapi\AppData\Local\Temp\ccjQ9O0I.s:3708   .text.CoAPMessage_process:000000000000042c .LVL396
C:\Users\stapi\AppData\Local\Temp\ccjQ9O0I.s:3721   .text.CoAPMessage_process:0000000000000450 .LVL397
C:\Users\stapi\AppData\Local\Temp\ccjQ9O0I.s:3754   .text.CoAPMessage_process:000000000000048a .LVL402
C:\Users\stapi\AppData\Local\Temp\ccjQ9O0I.s:3760   .text.CoAPMessage_process:0000000000000496 .LVL403
C:\Users\stapi\AppData\Local\Temp\ccjQ9O0I.s:3795   .text.CoAPMessage_process:00000000000004c8 .LVL406
C:\Users\stapi\AppData\Local\Temp\ccjQ9O0I.s:3806   .text.CoAPMessage_process:00000000000004d4 .LVL409
C:\Users\stapi\AppData\Local\Temp\ccjQ9O0I.s:3836   .text.CoAPMessage_process:0000000000000502 .LVL412
C:\Users\stapi\AppData\Local\Temp\ccjQ9O0I.s:3861   .text.CoAPMessage_process:000000000000052c .LVL416
C:\Users\stapi\AppData\Local\Temp\ccjQ9O0I.s:3873   .text.CoAPMessage_process:000000000000053e .LVL419
C:\Users\stapi\AppData\Local\Temp\ccjQ9O0I.s:3895   .text.CoAPMessage_process:0000000000000574 .LVL420
C:\Users\stapi\AppData\Local\Temp\ccjQ9O0I.s:3023   .text.CoAPMessage_process:00000000000000a8 .LVL313
C:\Users\stapi\AppData\Local\Temp\ccjQ9O0I.s:3029   .text.CoAPMessage_process:00000000000000b8 .LVL314
C:\Users\stapi\AppData\Local\Temp\ccjQ9O0I.s:3036   .text.CoAPMessage_process:00000000000000c8 .LVL315
C:\Users\stapi\AppData\Local\Temp\ccjQ9O0I.s:3042   .text.CoAPMessage_process:00000000000000d0 .LVL316
C:\Users\stapi\AppData\Local\Temp\ccjQ9O0I.s:3051   .text.CoAPMessage_process:00000000000000e0 .LVL318
C:\Users\stapi\AppData\Local\Temp\ccjQ9O0I.s:3909   .text.CoAPMessage_process:000000000000058a .LVL422
C:\Users\stapi\AppData\Local\Temp\ccjQ9O0I.s:3914   .text.CoAPMessage_process:000000000000059a .LVL423
C:\Users\stapi\AppData\Local\Temp\ccjQ9O0I.s:3919   .text.CoAPMessage_process:00000000000005aa .LVL424
C:\Users\stapi\AppData\Local\Temp\ccjQ9O0I.s:2965   .text.CoAPMessage_process:000000000000003e .LVL307
C:\Users\stapi\AppData\Local\Temp\ccjQ9O0I.s:2974   .text.CoAPMessage_process:0000000000000052 .LVL308
C:\Users\stapi\AppData\Local\Temp\ccjQ9O0I.s:2984   .text.CoAPMessage_process:0000000000000064 .LVL310
C:\Users\stapi\AppData\Local\Temp\ccjQ9O0I.s:2994   .text.CoAPMessage_process:0000000000000078 .LVL311
C:\Users\stapi\AppData\Local\Temp\ccjQ9O0I.s:15570  .debug_str:0000000000000491 .LASF131
C:\Users\stapi\AppData\Local\Temp\ccjQ9O0I.s:15642  .debug_str:0000000000000783 .LASF132
C:\Users\stapi\AppData\Local\Temp\ccjQ9O0I.s:15800  .debug_str:0000000000000ca3 .LASF135
C:\Users\stapi\AppData\Local\Temp\ccjQ9O0I.s:15764  .debug_str:0000000000000baf .LASF134
C:\Users\stapi\AppData\Local\Temp\ccjQ9O0I.s:15646  .debug_str:0000000000000794 .LASF136
C:\Users\stapi\AppData\Local\Temp\ccjQ9O0I.s:15790  .debug_str:0000000000000c62 .LASF137
C:\Users\stapi\AppData\Local\Temp\ccjQ9O0I.s:15672  .debug_str:000000000000085f .LASF138
C:\Users\stapi\AppData\Local\Temp\ccjQ9O0I.s:15784  .debug_str:0000000000000c25 .LASF139
C:\Users\stapi\AppData\Local\Temp\ccjQ9O0I.s:15644  .debug_str:000000000000078b .LASF140
C:\Users\stapi\AppData\Local\Temp\ccjQ9O0I.s:15478  .debug_str:0000000000000220 .LASF141
C:\Users\stapi\AppData\Local\Temp\ccjQ9O0I.s:15670  .debug_str:000000000000084a .LASF142
C:\Users\stapi\AppData\Local\Temp\ccjQ9O0I.s:15788  .debug_str:0000000000000c4e .LASF143
C:\Users\stapi\AppData\Local\Temp\ccjQ9O0I.s:15774  .debug_str:0000000000000bec .LASF144
C:\Users\stapi\AppData\Local\Temp\ccjQ9O0I.s:15400  .debug_str:000000000000001f .LASF145
C:\Users\stapi\AppData\Local\Temp\ccjQ9O0I.s:15746  .debug_str:0000000000000b2b .LASF146
C:\Users\stapi\AppData\Local\Temp\ccjQ9O0I.s:2697   .text.CoAPMessageId_cancel:0000000000000000 .LFB45
C:\Users\stapi\AppData\Local\Temp\ccjQ9O0I.s:2866   .text.CoAPMessageId_cancel:00000000000000bc .LFE45
C:\Users\stapi\AppData\Local\Temp\ccjQ9O0I.s:13053  .debug_loc:0000000000000b58 .LLST106
C:\Users\stapi\AppData\Local\Temp\ccjQ9O0I.s:13075  .debug_loc:0000000000000b8f .LLST107
C:\Users\stapi\AppData\Local\Temp\ccjQ9O0I.s:13093  .debug_loc:0000000000000bbb .LLST108
C:\Users\stapi\AppData\Local\Temp\ccjQ9O0I.s:13122  .debug_loc:0000000000000c07 .LLST109
C:\Users\stapi\AppData\Local\Temp\ccjQ9O0I.s:13153  .debug_loc:0000000000000c55 .LLST110
C:\Users\stapi\AppData\Local\Temp\ccjQ9O0I.s:2784   .text.CoAPMessageId_cancel:0000000000000062 .LBB117
C:\Users\stapi\AppData\Local\Temp\ccjQ9O0I.s:13175  .debug_loc:0000000000000c8c .LLST111
C:\Users\stapi\AppData\Local\Temp\ccjQ9O0I.s:13184  .debug_loc:0000000000000ca1 .LLST112
C:\Users\stapi\AppData\Local\Temp\ccjQ9O0I.s:13191  .debug_loc:0000000000000cb4 .LLST113
C:\Users\stapi\AppData\Local\Temp\ccjQ9O0I.s:2834   .text.CoAPMessageId_cancel:00000000000000a8 .LBB121
C:\Users\stapi\AppData\Local\Temp\ccjQ9O0I.s:2839   .text.CoAPMessageId_cancel:00000000000000a8 .LBE121
C:\Users\stapi\AppData\Local\Temp\ccjQ9O0I.s:2729   .text.CoAPMessageId_cancel:000000000000001e .LVL285
C:\Users\stapi\AppData\Local\Temp\ccjQ9O0I.s:2753   .text.CoAPMessageId_cancel:000000000000004e .LVL288
C:\Users\stapi\AppData\Local\Temp\ccjQ9O0I.s:2824   .text.CoAPMessageId_cancel:0000000000000094 .LVL295
C:\Users\stapi\AppData\Local\Temp\ccjQ9O0I.s:2828   .text.CoAPMessageId_cancel:000000000000009e .LVL296
C:\Users\stapi\AppData\Local\Temp\ccjQ9O0I.s:2832   .text.CoAPMessageId_cancel:00000000000000a8 .LVL297
C:\Users\stapi\AppData\Local\Temp\ccjQ9O0I.s:15712  .debug_str:00000000000009df .LASF159
C:\Users\stapi\AppData\Local\Temp\ccjQ9O0I.s:15600  .debug_str:0000000000000622 .LASF147
C:\Users\stapi\AppData\Local\Temp\ccjQ9O0I.s:2506   .text.CoAPMessage_cancel:0000000000000000 .LFB43
C:\Users\stapi\AppData\Local\Temp\ccjQ9O0I.s:2669   .text.CoAPMessage_cancel:00000000000000c8 .LFE43
C:\Users\stapi\AppData\Local\Temp\ccjQ9O0I.s:13198  .debug_loc:0000000000000cc7 .LLST97
C:\Users\stapi\AppData\Local\Temp\ccjQ9O0I.s:13220  .debug_loc:0000000000000cfe .LLST98
C:\Users\stapi\AppData\Local\Temp\ccjQ9O0I.s:13235  .debug_loc:0000000000000d27 .LLST99
C:\Users\stapi\AppData\Local\Temp\ccjQ9O0I.s:13264  .debug_loc:0000000000000d73 .LLST100
C:\Users\stapi\AppData\Local\Temp\ccjQ9O0I.s:13295  .debug_loc:0000000000000dc1 .LLST101
C:\Users\stapi\AppData\Local\Temp\ccjQ9O0I.s:2590   .text.CoAPMessage_cancel:0000000000000064 .LBB109
C:\Users\stapi\AppData\Local\Temp\ccjQ9O0I.s:13317  .debug_loc:0000000000000df8 .LLST102
C:\Users\stapi\AppData\Local\Temp\ccjQ9O0I.s:13326  .debug_loc:0000000000000e0d .LLST103
C:\Users\stapi\AppData\Local\Temp\ccjQ9O0I.s:13333  .debug_loc:0000000000000e20 .LLST104
C:\Users\stapi\AppData\Local\Temp\ccjQ9O0I.s:2542   .text.CoAPMessage_cancel:0000000000000026 .LVL262
C:\Users\stapi\AppData\Local\Temp\ccjQ9O0I.s:2561   .text.CoAPMessage_cancel:000000000000004e .LVL265
C:\Users\stapi\AppData\Local\Temp\ccjQ9O0I.s:2623   .text.CoAPMessage_cancel:0000000000000082 .LVL272
C:\Users\stapi\AppData\Local\Temp\ccjQ9O0I.s:2629   .text.CoAPMessage_cancel:0000000000000096 .LVL273
C:\Users\stapi\AppData\Local\Temp\ccjQ9O0I.s:2633   .text.CoAPMessage_cancel:00000000000000a2 .LVL274
C:\Users\stapi\AppData\Local\Temp\ccjQ9O0I.s:2638   .text.CoAPMessage_cancel:00000000000000ac .LVL275
C:\Users\stapi\AppData\Local\Temp\ccjQ9O0I.s:2642   .text.CoAPMessage_cancel:00000000000000b6 .LVL276
C:\Users\stapi\AppData\Local\Temp\ccjQ9O0I.s:15666  .debug_str:0000000000000832 .LASF148
C:\Users\stapi\AppData\Local\Temp\ccjQ9O0I.s:1570   .text.CoAPMessage_send:0000000000000000 .LFB42
C:\Users\stapi\AppData\Local\Temp\ccjQ9O0I.s:2245   .text.CoAPMessage_send:000000000000046e .LFE42
C:\Users\stapi\AppData\Local\Temp\ccjQ9O0I.s:13340  .debug_loc:0000000000000e33 .LLST57
C:\Users\stapi\AppData\Local\Temp\ccjQ9O0I.s:13362  .debug_loc:0000000000000e6a .LLST58
C:\Users\stapi\AppData\Local\Temp\ccjQ9O0I.s:13384  .debug_loc:0000000000000ea1 .LLST59
C:\Users\stapi\AppData\Local\Temp\ccjQ9O0I.s:13406  .debug_loc:0000000000000ed8 .LLST60
C:\Users\stapi\AppData\Local\Temp\ccjQ9O0I.s:13435  .debug_loc:0000000000000f1e .LLST61
C:\Users\stapi\AppData\Local\Temp\ccjQ9O0I.s:15488  .debug_str:000000000000025e .LASF149
C:\Users\stapi\AppData\Local\Temp\ccjQ9O0I.s:13459  .debug_loc:0000000000000f5e .LLST62
C:\Users\stapi\AppData\Local\Temp\ccjQ9O0I.s:15658  .debug_str:00000000000007ec .LASF150
C:\Users\stapi\AppData\Local\Temp\ccjQ9O0I.s:13488  .debug_loc:0000000000000faa .LLST63
C:\Users\stapi\AppData\Local\Temp\ccjQ9O0I.s:13513  .debug_loc:0000000000000feb .LLST64
C:\Users\stapi\AppData\Local\Temp\ccjQ9O0I.s:1777   .text.CoAPMessage_send:0000000000000160 .LBB67
C:\Users\stapi\AppData\Local\Temp\ccjQ9O0I.s:13529  .debug_loc:0000000000001015 .LLST65
C:\Users\stapi\AppData\Local\Temp\ccjQ9O0I.s:13548  .debug_loc:0000000000001049 .LLST66
C:\Users\stapi\AppData\Local\Temp\ccjQ9O0I.s:13567  .debug_loc:000000000000107d .LLST67
C:\Users\stapi\AppData\Local\Temp\ccjQ9O0I.s:13586  .debug_loc:00000000000010b1 .LLST68
C:\Users\stapi\AppData\Local\Temp\ccjQ9O0I.s:13605  .debug_loc:00000000000010e5 .LLST69
C:\Users\stapi\AppData\Local\Temp\ccjQ9O0I.s:13616  .debug_loc:0000000000001103 .LLST70
C:\Users\stapi\AppData\Local\Temp\ccjQ9O0I.s:13653  .debug_loc:0000000000001165 .LLST71
C:\Users\stapi\AppData\Local\Temp\ccjQ9O0I.s:13688  .debug_loc:00000000000011be .LLST72
C:\Users\stapi\AppData\Local\Temp\ccjQ9O0I.s:13706  .debug_loc:00000000000011ea .LLST73
C:\Users\stapi\AppData\Local\Temp\ccjQ9O0I.s:13737  .debug_loc:0000000000001238 .LLST74
C:\Users\stapi\AppData\Local\Temp\ccjQ9O0I.s:2147   .text.CoAPMessage_send:00000000000003de .LBB70
C:\Users\stapi\AppData\Local\Temp\ccjQ9O0I.s:13758  .debug_loc:0000000000001260 .LLST75
C:\Users\stapi\AppData\Local\Temp\ccjQ9O0I.s:13765  .debug_loc:0000000000001273 .LLST76
C:\Users\stapi\AppData\Local\Temp\ccjQ9O0I.s:2160   .text.CoAPMessage_send:00000000000003e6 .LBB72
C:\Users\stapi\AppData\Local\Temp\ccjQ9O0I.s:13772  .debug_loc:0000000000001286 .LLST78
C:\Users\stapi\AppData\Local\Temp\ccjQ9O0I.s:1889   .text.CoAPMessage_send:000000000000021a .LVL194
C:\Users\stapi\AppData\Local\Temp\ccjQ9O0I.s:1929   .text.CoAPMessage_send:000000000000024e .LVL195
C:\Users\stapi\AppData\Local\Temp\ccjQ9O0I.s:1941   .text.CoAPMessage_send:0000000000000264 .LVL196
C:\Users\stapi\AppData\Local\Temp\ccjQ9O0I.s:1945   .text.CoAPMessage_send:000000000000026c .LVL197
C:\Users\stapi\AppData\Local\Temp\ccjQ9O0I.s:1983   .text.CoAPMessage_send:00000000000002ba .LVL199
C:\Users\stapi\AppData\Local\Temp\ccjQ9O0I.s:1988   .text.CoAPMessage_send:00000000000002c6 .LVL200
C:\Users\stapi\AppData\Local\Temp\ccjQ9O0I.s:1998   .text.CoAPMessage_send:00000000000002de .LVL201
C:\Users\stapi\AppData\Local\Temp\ccjQ9O0I.s:2002   .text.CoAPMessage_send:00000000000002e8 .LVL202
C:\Users\stapi\AppData\Local\Temp\ccjQ9O0I.s:2008   .text.CoAPMessage_send:00000000000002f8 .LVL203
C:\Users\stapi\AppData\Local\Temp\ccjQ9O0I.s:2013   .text.CoAPMessage_send:0000000000000308 .LVL204
C:\Users\stapi\AppData\Local\Temp\ccjQ9O0I.s:2018   .text.CoAPMessage_send:0000000000000318 .LVL205
C:\Users\stapi\AppData\Local\Temp\ccjQ9O0I.s:2098   .text.CoAPMessage_send:00000000000003aa .LVL217
C:\Users\stapi\AppData\Local\Temp\ccjQ9O0I.s:1789   .text.CoAPMessage_send:000000000000016e .LVL181
C:\Users\stapi\AppData\Local\Temp\ccjQ9O0I.s:1814   .text.CoAPMessage_send:00000000000001a4 .LVL183
C:\Users\stapi\AppData\Local\Temp\ccjQ9O0I.s:1837   .text.CoAPMessage_send:00000000000001bc .LVL186
C:\Users\stapi\AppData\Local\Temp\ccjQ9O0I.s:1858   .text.CoAPMessage_send:00000000000001e2 .LVL189
C:\Users\stapi\AppData\Local\Temp\ccjQ9O0I.s:1863   .text.CoAPMessage_send:00000000000001ec .LVL190
C:\Users\stapi\AppData\Local\Temp\ccjQ9O0I.s:1878   .text.CoAPMessage_send:0000000000000208 .LVL192
C:\Users\stapi\AppData\Local\Temp\ccjQ9O0I.s:2079   .text.CoAPMessage_send:000000000000037e .LVL213
C:\Users\stapi\AppData\Local\Temp\ccjQ9O0I.s:2084   .text.CoAPMessage_send:000000000000038e .LVL214
C:\Users\stapi\AppData\Local\Temp\ccjQ9O0I.s:2089   .text.CoAPMessage_send:000000000000039e .LVL215
C:\Users\stapi\AppData\Local\Temp\ccjQ9O0I.s:1615   .text.CoAPMessage_send:0000000000000026 .LVL158
C:\Users\stapi\AppData\Local\Temp\ccjQ9O0I.s:1620   .text.CoAPMessage_send:0000000000000030 .LVL159
C:\Users\stapi\AppData\Local\Temp\ccjQ9O0I.s:1635   .text.CoAPMessage_send:000000000000004a .LVL162
C:\Users\stapi\AppData\Local\Temp\ccjQ9O0I.s:1641   .text.CoAPMessage_send:000000000000005c .LVL163
C:\Users\stapi\AppData\Local\Temp\ccjQ9O0I.s:1646   .text.CoAPMessage_send:000000000000006c .LVL164
C:\Users\stapi\AppData\Local\Temp\ccjQ9O0I.s:1681   .text.CoAPMessage_send:000000000000008a .LVL168
C:\Users\stapi\AppData\Local\Temp\ccjQ9O0I.s:1693   .text.CoAPMessage_send:000000000000009e .LVL171
C:\Users\stapi\AppData\Local\Temp\ccjQ9O0I.s:1698   .text.CoAPMessage_send:00000000000000ae .LVL172
C:\Users\stapi\AppData\Local\Temp\ccjQ9O0I.s:1703   .text.CoAPMessage_send:00000000000000be .LVL173
C:\Users\stapi\AppData\Local\Temp\ccjQ9O0I.s:1715   .text.CoAPMessage_send:00000000000000d0 .LVL175
C:\Users\stapi\AppData\Local\Temp\ccjQ9O0I.s:1722   .text.CoAPMessage_send:00000000000000de .LVL176
C:\Users\stapi\AppData\Local\Temp\ccjQ9O0I.s:1733   .text.CoAPMessage_send:00000000000000f8 .LVL178
C:\Users\stapi\AppData\Local\Temp\ccjQ9O0I.s:1775   .text.CoAPMessage_send:0000000000000160 .LVL180
C:\Users\stapi\AppData\Local\Temp\ccjQ9O0I.s:2038   .text.CoAPMessage_send:0000000000000326 .LVL207
C:\Users\stapi\AppData\Local\Temp\ccjQ9O0I.s:2044   .text.CoAPMessage_send:0000000000000336 .LVL208
C:\Users\stapi\AppData\Local\Temp\ccjQ9O0I.s:2050   .text.CoAPMessage_send:000000000000034a .LVL209
C:\Users\stapi\AppData\Local\Temp\ccjQ9O0I.s:2055   .text.CoAPMessage_send:000000000000035a .LVL210
C:\Users\stapi\AppData\Local\Temp\ccjQ9O0I.s:2109   .text.CoAPMessage_send:00000000000003b6 .LVL218
C:\Users\stapi\AppData\Local\Temp\ccjQ9O0I.s:2202   .text.CoAPMessage_send:0000000000000404 .LVL228
C:\Users\stapi\AppData\Local\Temp\ccjQ9O0I.s:2212   .text.CoAPMessage_send:0000000000000426 .LVL229
C:\Users\stapi\AppData\Local\Temp\ccjQ9O0I.s:2220   .text.CoAPMessage_send:0000000000000432 .LVL232
C:\Users\stapi\AppData\Local\Temp\ccjQ9O0I.s:2226   .text.CoAPMessage_send:0000000000000442 .LVL233
C:\Users\stapi\AppData\Local\Temp\ccjQ9O0I.s:2233   .text.CoAPMessage_send:0000000000000458 .LVL234
C:\Users\stapi\AppData\Local\Temp\ccjQ9O0I.s:2238   .text.CoAPMessage_send:0000000000000468 .LVL235
C:\Users\stapi\AppData\Local\Temp\ccjQ9O0I.s:15502  .debug_str:00000000000002ad .LASF223
C:\Users\stapi\AppData\Local\Temp\ccjQ9O0I.s:15738  .debug_str:0000000000000ae5 .LASF151
C:\Users\stapi\AppData\Local\Temp\ccjQ9O0I.s:15480  .debug_str:0000000000000229 .LASF152
C:\Users\stapi\AppData\Local\Temp\ccjQ9O0I.s:15664  .debug_str:000000000000081c .LASF224
C:\Users\stapi\AppData\Local\Temp\ccjQ9O0I.s:1348   .text.CoAPMessageToken_dump:0000000000000000 .LFB40
C:\Users\stapi\AppData\Local\Temp\ccjQ9O0I.s:1461   .text.CoAPMessageToken_dump:00000000000000a0 .LFE40
C:\Users\stapi\AppData\Local\Temp\ccjQ9O0I.s:13779  .debug_loc:0000000000001299 .LLST44
C:\Users\stapi\AppData\Local\Temp\ccjQ9O0I.s:13790  .debug_loc:00000000000012b7 .LLST45
C:\Users\stapi\AppData\Local\Temp\ccjQ9O0I.s:13804  .debug_loc:00000000000012d8 .LLST46
C:\Users\stapi\AppData\Local\Temp\ccjQ9O0I.s:13820  .debug_loc:0000000000001302 .LLST47
C:\Users\stapi\AppData\Local\Temp\ccjQ9O0I.s:15610  .debug_str:000000000000066a .LASF153
C:\Users\stapi\AppData\Local\Temp\ccjQ9O0I.s:13832  .debug_loc:0000000000001321 .LLST48
C:\Users\stapi\AppData\Local\Temp\ccjQ9O0I.s:13844  .debug_loc:0000000000001340 .LLST49
C:\Users\stapi\AppData\Local\Temp\ccjQ9O0I.s:1406   .text.CoAPMessageToken_dump:0000000000000050 .LVL141
C:\Users\stapi\AppData\Local\Temp\ccjQ9O0I.s:1416   .text.CoAPMessageToken_dump:0000000000000070 .LVL142
C:\Users\stapi\AppData\Local\Temp\ccjQ9O0I.s:1444   .text.CoAPMessageToken_dump:0000000000000094 .LVL144
C:\Users\stapi\AppData\Local\Temp\ccjQ9O0I.s:15814  .debug_str:0000000000000e13 .LASF154
C:\Users\stapi\AppData\Local\Temp\ccjQ9O0I.s:15520  .debug_str:000000000000032d .LASF155
C:\Users\stapi\AppData\Local\Temp\ccjQ9O0I.s:15802  .debug_str:0000000000000cbd .LASF156
C:\Users\stapi\AppData\Local\Temp\ccjQ9O0I.s:1176   .text.CoAPMessageCheckDup:0000000000000000 .LFB38
C:\Users\stapi\AppData\Local\Temp\ccjQ9O0I.s:1331   .text.CoAPMessageCheckDup:00000000000000da .LFE38
C:\Users\stapi\AppData\Local\Temp\ccjQ9O0I.s:13855  .debug_loc:000000000000135e .LLST40
C:\Users\stapi\AppData\Local\Temp\ccjQ9O0I.s:15778  .debug_str:0000000000000c0a .LASF157
C:\Users\stapi\AppData\Local\Temp\ccjQ9O0I.s:13884  .debug_loc:00000000000013a3 .LLST41
C:\Users\stapi\AppData\Local\Temp\ccjQ9O0I.s:15416  .debug_str:0000000000000069 .LASF158
C:\Users\stapi\AppData\Local\Temp\ccjQ9O0I.s:13899  .debug_loc:00000000000013cc .LLST42
C:\Users\stapi\AppData\Local\Temp\ccjQ9O0I.s:13907  .debug_loc:00000000000013e0 .LLST43
C:\Users\stapi\AppData\Local\Temp\ccjQ9O0I.s:1205   .text.CoAPMessageCheckDup:000000000000001c .LVL123
C:\Users\stapi\AppData\Local\Temp\ccjQ9O0I.s:1230   .text.CoAPMessageCheckDup:000000000000004e .LVL126
C:\Users\stapi\AppData\Local\Temp\ccjQ9O0I.s:1243   .text.CoAPMessageCheckDup:0000000000000066 .LVL128
C:\Users\stapi\AppData\Local\Temp\ccjQ9O0I.s:1256   .text.CoAPMessageCheckDup:000000000000007a .LVL130
C:\Users\stapi\AppData\Local\Temp\ccjQ9O0I.s:1269   .text.CoAPMessageCheckDup:00000000000000a2 .LVL131
C:\Users\stapi\AppData\Local\Temp\ccjQ9O0I.s:1300   .text.CoAPMessageCheckDup:00000000000000c6 .LVL132
C:\Users\stapi\AppData\Local\Temp\ccjQ9O0I.s:15838  .debug_str:0000000000000ec8 .LASF160
C:\Users\stapi\AppData\Local\Temp\ccjQ9O0I.s:15580  .debug_str:0000000000000507 .LASF161
C:\Users\stapi\AppData\Local\Temp\ccjQ9O0I.s:1055   .text.CoAPMessage_init:0000000000000000 .LFB36
C:\Users\stapi\AppData\Local\Temp\ccjQ9O0I.s:1101   .text.CoAPMessage_init:0000000000000038 .LFE36
C:\Users\stapi\AppData\Local\Temp\ccjQ9O0I.s:13928  .debug_loc:0000000000001408 .LLST38
C:\Users\stapi\AppData\Local\Temp\ccjQ9O0I.s:1074   .text.CoAPMessage_init:000000000000001a .LVL113
C:\Users\stapi\AppData\Local\Temp\ccjQ9O0I.s:15714  .debug_str:00000000000009fa .LASF162
C:\Users\stapi\AppData\Local\Temp\ccjQ9O0I.s:1025   .text.CoAPMessageHandler_set:0000000000000000 .LFB35
C:\Users\stapi\AppData\Local\Temp\ccjQ9O0I.s:1048   .text.CoAPMessageHandler_set:000000000000000e .LFE35
C:\Users\stapi\AppData\Local\Temp\ccjQ9O0I.s:13950  .debug_loc:000000000000143f .LLST37
C:\Users\stapi\AppData\Local\Temp\ccjQ9O0I.s:15770  .debug_str:0000000000000bcd .LASF163
C:\Users\stapi\AppData\Local\Temp\ccjQ9O0I.s:982    .text.CoAPMessagePayload_set:0000000000000000 .LFB34
C:\Users\stapi\AppData\Local\Temp\ccjQ9O0I.s:1018   .text.CoAPMessagePayload_set:000000000000001c .LFE34
C:\Users\stapi\AppData\Local\Temp\ccjQ9O0I.s:13975  .debug_loc:0000000000001479 .LLST36
C:\Users\stapi\AppData\Local\Temp\ccjQ9O0I.s:15486  .debug_str:000000000000024a .LASF164
C:\Users\stapi\AppData\Local\Temp\ccjQ9O0I.s:950    .text.CoAPMessageKeep_Set:0000000000000000 .LFB33
C:\Users\stapi\AppData\Local\Temp\ccjQ9O0I.s:975    .text.CoAPMessageKeep_Set:0000000000000014 .LFE33
C:\Users\stapi\AppData\Local\Temp\ccjQ9O0I.s:13994  .debug_loc:00000000000014ad .LLST35
C:\Users\stapi\AppData\Local\Temp\ccjQ9O0I.s:15598  .debug_str:000000000000060a .LASF165
C:\Users\stapi\AppData\Local\Temp\ccjQ9O0I.s:918    .text.CoAPMessageUserData_set:0000000000000000 .LFB32
C:\Users\stapi\AppData\Local\Temp\ccjQ9O0I.s:943    .text.CoAPMessageUserData_set:0000000000000012 .LFE32
C:\Users\stapi\AppData\Local\Temp\ccjQ9O0I.s:14005  .debug_loc:00000000000014cb .LLST34
C:\Users\stapi\AppData\Local\Temp\ccjQ9O0I.s:15614  .debug_str:0000000000000698 .LASF166
C:\Users\stapi\AppData\Local\Temp\ccjQ9O0I.s:15552  .debug_str:0000000000000401 .LASF167
C:\Users\stapi\AppData\Local\Temp\ccjQ9O0I.s:854    .text.CoAPMessageToken_set:0000000000000000 .LFB31
C:\Users\stapi\AppData\Local\Temp\ccjQ9O0I.s:911    .text.CoAPMessageToken_set:0000000000000048 .LFE31
C:\Users\stapi\AppData\Local\Temp\ccjQ9O0I.s:14016  .debug_loc:00000000000014e9 .LLST31
C:\Users\stapi\AppData\Local\Temp\ccjQ9O0I.s:14038  .debug_loc:0000000000001520 .LLST32
C:\Users\stapi\AppData\Local\Temp\ccjQ9O0I.s:14056  .debug_loc:000000000000154c .LLST33
C:\Users\stapi\AppData\Local\Temp\ccjQ9O0I.s:884    .text.CoAPMessageToken_set:000000000000002a .LVL97
C:\Users\stapi\AppData\Local\Temp\ccjQ9O0I.s:15652  .debug_str:00000000000007bc .LASF168
C:\Users\stapi\AppData\Local\Temp\ccjQ9O0I.s:817    .text.CoAPMessageCode_get:0000000000000000 .LFB30
C:\Users\stapi\AppData\Local\Temp\ccjQ9O0I.s:847    .text.CoAPMessageCode_get:0000000000000016 .LFE30
C:\Users\stapi\AppData\Local\Temp\ccjQ9O0I.s:14074  .debug_loc:0000000000001578 .LLST30
C:\Users\stapi\AppData\Local\Temp\ccjQ9O0I.s:15684  .debug_str:0000000000000942 .LASF169
C:\Users\stapi\AppData\Local\Temp\ccjQ9O0I.s:15496  .debug_str:000000000000028b .LASF170
C:\Users\stapi\AppData\Local\Temp\ccjQ9O0I.s:15548  .debug_str:00000000000003e2 .LASF171
C:\Users\stapi\AppData\Local\Temp\ccjQ9O0I.s:15626  .debug_str:0000000000000706 .LASF172
C:\Users\stapi\AppData\Local\Temp\ccjQ9O0I.s:640    .text.CoAPMessageId_gen:0000000000000000 .LFB26
C:\Users\stapi\AppData\Local\Temp\ccjQ9O0I.s:701    .text.CoAPMessageId_gen:000000000000004a .LFE26
C:\Users\stapi\AppData\Local\Temp\ccjQ9O0I.s:14096  .debug_loc:00000000000015af .LLST23
C:\Users\stapi\AppData\Local\Temp\ccjQ9O0I.s:15604  .debug_str:0000000000000646 .LASF173
C:\Users\stapi\AppData\Local\Temp\ccjQ9O0I.s:14118  .debug_loc:00000000000015e6 .LLST24
C:\Users\stapi\AppData\Local\Temp\ccjQ9O0I.s:14135  .debug_loc:0000000000001611 .LLST25
C:\Users\stapi\AppData\Local\Temp\ccjQ9O0I.s:663    .text.CoAPMessageId_gen:0000000000000018 .LVL74
C:\Users\stapi\AppData\Local\Temp\ccjQ9O0I.s:681    .text.CoAPMessageId_gen:000000000000003a .LVL76
C:\Users\stapi\AppData\Local\Temp\ccjQ9O0I.s:15518  .debug_str:000000000000031a .LASF174
C:\Users\stapi\AppData\Local\Temp\ccjQ9O0I.s:595    .text.CoAPOption_present:0000000000000000 .LFB25
C:\Users\stapi\AppData\Local\Temp\ccjQ9O0I.s:633    .text.CoAPOption_present:0000000000000028 .LFE25
C:\Users\stapi\AppData\Local\Temp\ccjQ9O0I.s:14150  .debug_loc:000000000000163a .LLST21
C:\Users\stapi\AppData\Local\Temp\ccjQ9O0I.s:15562  .debug_str:000000000000046a .LASF175
C:\Users\stapi\AppData\Local\Temp\ccjQ9O0I.s:14164  .debug_loc:000000000000165b .LLST22
C:\Users\stapi\AppData\Local\Temp\ccjQ9O0I.s:15398  .debug_str:000000000000000c .LASF176
C:\Users\stapi\AppData\Local\Temp\ccjQ9O0I.s:419    .text.CoAPUintOption_get:0000000000000000 .LFB24
C:\Users\stapi\AppData\Local\Temp\ccjQ9O0I.s:588    .text.CoAPUintOption_get:00000000000000be .LFE24
C:\Users\stapi\AppData\Local\Temp\ccjQ9O0I.s:14180  .debug_loc:0000000000001685 .LLST18
C:\Users\stapi\AppData\Local\Temp\ccjQ9O0I.s:15668  .debug_str:0000000000000843 .LASF177
C:\Users\stapi\AppData\Local\Temp\ccjQ9O0I.s:15460  .debug_str:000000000000018e .LASF178
C:\Users\stapi\AppData\Local\Temp\ccjQ9O0I.s:14209  .debug_loc:00000000000016ca .LLST19
C:\Users\stapi\AppData\Local\Temp\ccjQ9O0I.s:450    .text.CoAPUintOption_get:0000000000000026 .LBB49
C:\Users\stapi\AppData\Local\Temp\ccjQ9O0I.s:583    .text.CoAPUintOption_get:00000000000000ba .LBE49
C:\Users\stapi\AppData\Local\Temp\ccjQ9O0I.s:15528  .debug_str:0000000000000352 .LASF179
C:\Users\stapi\AppData\Local\Temp\ccjQ9O0I.s:14225  .debug_loc:00000000000016f4 .LLST20
C:\Users\stapi\AppData\Local\Temp\ccjQ9O0I.s:15810  .debug_str:0000000000000d19 .LASF180
C:\Users\stapi\AppData\Local\Temp\ccjQ9O0I.s:328    .text.CoAPUintOption_add:0000000000000000 .LFB23
C:\Users\stapi\AppData\Local\Temp\ccjQ9O0I.s:412    .text.CoAPUintOption_add:0000000000000056 .LFE23
C:\Users\stapi\AppData\Local\Temp\ccjQ9O0I.s:14293  .debug_loc:0000000000001798 .LLST14
C:\Users\stapi\AppData\Local\Temp\ccjQ9O0I.s:14311  .debug_loc:00000000000017c4 .LLST15
C:\Users\stapi\AppData\Local\Temp\ccjQ9O0I.s:14329  .debug_loc:00000000000017f0 .LLST16
C:\Users\stapi\AppData\Local\Temp\ccjQ9O0I.s:14363  .debug_loc:0000000000001841 .LLST17
C:\Users\stapi\AppData\Local\Temp\ccjQ9O0I.s:365    .text.CoAPUintOption_add:0000000000000022 .LVL38
C:\Users\stapi\AppData\Local\Temp\ccjQ9O0I.s:15722  .debug_str:0000000000000a64 .LASF181
C:\Users\stapi\AppData\Local\Temp\ccjQ9O0I.s:237    .text.CoAPStrOption_get:0000000000000000 .LFB22
C:\Users\stapi\AppData\Local\Temp\ccjQ9O0I.s:321    .text.CoAPStrOption_get:000000000000006a .LFE22
C:\Users\stapi\AppData\Local\Temp\ccjQ9O0I.s:14395  .debug_loc:0000000000001890 .LLST9
C:\Users\stapi\AppData\Local\Temp\ccjQ9O0I.s:14417  .debug_loc:00000000000018c7 .LLST10
C:\Users\stapi\AppData\Local\Temp\ccjQ9O0I.s:14435  .debug_loc:00000000000018f3 .LLST11
C:\Users\stapi\AppData\Local\Temp\ccjQ9O0I.s:14457  .debug_loc:000000000000192a .LLST12
C:\Users\stapi\AppData\Local\Temp\ccjQ9O0I.s:14468  .debug_loc:0000000000001948 .LLST13
C:\Users\stapi\AppData\Local\Temp\ccjQ9O0I.s:296    .text.CoAPStrOption_get:0000000000000052 .LVL30
C:\Users\stapi\AppData\Local\Temp\ccjQ9O0I.s:15692  .debug_str:000000000000097b .LASF182
C:\Users\stapi\AppData\Local\Temp\ccjQ9O0I.s:135    .text.CoAPStrOption_add:0000000000000000 .LFB21
C:\Users\stapi\AppData\Local\Temp\ccjQ9O0I.s:230    .text.CoAPStrOption_add:0000000000000072 .LFE21
C:\Users\stapi\AppData\Local\Temp\ccjQ9O0I.s:14492  .debug_loc:0000000000001988 .LLST4
C:\Users\stapi\AppData\Local\Temp\ccjQ9O0I.s:14514  .debug_loc:00000000000019bf .LLST5
C:\Users\stapi\AppData\Local\Temp\ccjQ9O0I.s:14537  .debug_loc:00000000000019f7 .LLST6
C:\Users\stapi\AppData\Local\Temp\ccjQ9O0I.s:14552  .debug_loc:0000000000001a20 .LLST7
C:\Users\stapi\AppData\Local\Temp\ccjQ9O0I.s:14570  .debug_loc:0000000000001a4c .LLST8
C:\Users\stapi\AppData\Local\Temp\ccjQ9O0I.s:180    .text.CoAPStrOption_add:0000000000000038 .LVL15
C:\Users\stapi\AppData\Local\Temp\ccjQ9O0I.s:192    .text.CoAPStrOption_add:000000000000004c .LVL17
C:\Users\stapi\AppData\Local\Temp\ccjQ9O0I.s:15844  .debug_str:0000000000000f01 .LASF183
C:\Users\stapi\AppData\Local\Temp\ccjQ9O0I.s:14     .text.CoAPOption_sort:0000000000000000 .LFB20
C:\Users\stapi\AppData\Local\Temp\ccjQ9O0I.s:128    .text.CoAPOption_sort:0000000000000086 .LFE20
C:\Users\stapi\AppData\Local\Temp\ccjQ9O0I.s:14587  .debug_loc:0000000000001a77 .LLST0
C:\Users\stapi\AppData\Local\Temp\ccjQ9O0I.s:15654  .debug_str:00000000000007d0 .LASF184
C:\Users\stapi\AppData\Local\Temp\ccjQ9O0I.s:14607  .debug_loc:0000000000001aa5 .LLST1
C:\Users\stapi\AppData\Local\Temp\ccjQ9O0I.s:15544  .debug_str:00000000000003cb .LASF185
C:\Users\stapi\AppData\Local\Temp\ccjQ9O0I.s:14629  .debug_loc:0000000000001ad5 .LLST2
C:\Users\stapi\AppData\Local\Temp\ccjQ9O0I.s:14636  .debug_loc:0000000000001ae8 .LLST3
C:\Users\stapi\AppData\Local\Temp\ccjQ9O0I.s:68     .text.CoAPOption_sort:000000000000003c .LVL4
C:\Users\stapi\AppData\Local\Temp\ccjQ9O0I.s:86     .text.CoAPOption_sort:000000000000005a .LVL7
C:\Users\stapi\AppData\Local\Temp\ccjQ9O0I.s:101    .text.CoAPOption_sort:0000000000000074 .LVL8
C:\Users\stapi\AppData\Local\Temp\ccjQ9O0I.s:15428  .debug_str:00000000000000af .LASF186
C:\Users\stapi\AppData\Local\Temp\ccjQ9O0I.s:15450  .debug_str:000000000000014d .LASF187
C:\Users\stapi\AppData\Local\Temp\ccjQ9O0I.s:15590  .debug_str:00000000000005d5 .LASF188
C:\Users\stapi\AppData\Local\Temp\ccjQ9O0I.s:15406  .debug_str:0000000000000040 .LASF189
C:\Users\stapi\AppData\Local\Temp\ccjQ9O0I.s:15532  .debug_str:000000000000035f .LASF190
C:\Users\stapi\AppData\Local\Temp\ccjQ9O0I.s:15512  .debug_str:00000000000002f5 .LASF191
C:\Users\stapi\AppData\Local\Temp\ccjQ9O0I.s:15476  .debug_str:0000000000000214 .LASF192
C:\Users\stapi\AppData\Local\Temp\ccjQ9O0I.s:708    .text.CoAPMessageId_set:0000000000000000 .LFB27
C:\Users\stapi\AppData\Local\Temp\ccjQ9O0I.s:731    .text.CoAPMessageId_set:0000000000000010 .LFE27
C:\Users\stapi\AppData\Local\Temp\ccjQ9O0I.s:14653  .debug_loc:0000000000001b13 .LLST26
C:\Users\stapi\AppData\Local\Temp\ccjQ9O0I.s:738    .text.CoAPMessageType_set:0000000000000000 .LFB28
C:\Users\stapi\AppData\Local\Temp\ccjQ9O0I.s:780    .text.CoAPMessageType_set:0000000000000030 .LFE28
C:\Users\stapi\AppData\Local\Temp\ccjQ9O0I.s:14678  .debug_loc:0000000000001b4d .LLST27
C:\Users\stapi\AppData\Local\Temp\ccjQ9O0I.s:14697  .debug_loc:0000000000001b81 .LLST28
C:\Users\stapi\AppData\Local\Temp\ccjQ9O0I.s:787    .text.CoAPMessageCode_set:0000000000000000 .LFB29
C:\Users\stapi\AppData\Local\Temp\ccjQ9O0I.s:810    .text.CoAPMessageCode_set:0000000000000010 .LFE29
C:\Users\stapi\AppData\Local\Temp\ccjQ9O0I.s:14715  .debug_loc:0000000000001bad .LLST29
C:\Users\stapi\AppData\Local\Temp\ccjQ9O0I.s:1108   .text.CoAPMessage_destory:0000000000000000 .LFB37
C:\Users\stapi\AppData\Local\Temp\ccjQ9O0I.s:1162   .text.CoAPMessage_destory:0000000000000038 .LFE37
C:\Users\stapi\AppData\Local\Temp\ccjQ9O0I.s:14740  .debug_loc:0000000000001be7 .LLST39
C:\Users\stapi\AppData\Local\Temp\ccjQ9O0I.s:1126   .text.CoAPMessage_destory:0000000000000012 .LBB52
C:\Users\stapi\AppData\Local\Temp\ccjQ9O0I.s:1147   .text.CoAPMessage_destory:000000000000002a .LBE52
C:\Users\stapi\AppData\Local\Temp\ccjQ9O0I.s:1135   .text.CoAPMessage_destory:000000000000001e .LVL118
C:\Users\stapi\AppData\Local\Temp\ccjQ9O0I.s:1468   .text.CoAPMessage_dump:0000000000000000 .LFB41
C:\Users\stapi\AppData\Local\Temp\ccjQ9O0I.s:1523   .text.CoAPMessage_dump:0000000000000028 .LFE41
C:\Users\stapi\AppData\Local\Temp\ccjQ9O0I.s:14764  .debug_loc:0000000000001c21 .LLST50
C:\Users\stapi\AppData\Local\Temp\ccjQ9O0I.s:14778  .debug_loc:0000000000001c42 .LLST51
C:\Users\stapi\AppData\Local\Temp\ccjQ9O0I.s:1487   .text.CoAPMessage_dump:000000000000000e .LBB56
C:\Users\stapi\AppData\Local\Temp\ccjQ9O0I.s:14800  .debug_loc:0000000000001c79 .LLST52
C:\Users\stapi\AppData\Local\Temp\ccjQ9O0I.s:14810  .debug_loc:0000000000001c8f .LLST53
C:\Users\stapi\AppData\Local\Temp\ccjQ9O0I.s:14828  .debug_loc:0000000000001cbb .LLST54
C:\Users\stapi\AppData\Local\Temp\ccjQ9O0I.s:14841  .debug_loc:0000000000001cdb .LLST55
C:\Users\stapi\AppData\Local\Temp\ccjQ9O0I.s:14864  .debug_loc:0000000000001d05 .LLST56
C:\Users\stapi\AppData\Local\Temp\ccjQ9O0I.s:1507   .text.CoAPMessage_dump:000000000000001c .LVL152
C:\Users\stapi\AppData\Local\Temp\ccjQ9O0I.s:2255   .text.CoAPErrRespMessage_send.isra.0:0000000000000000 .LFB62
C:\Users\stapi\AppData\Local\Temp\ccjQ9O0I.s:2407   .text.CoAPErrRespMessage_send.isra.0:00000000000000ac .LFE62
C:\Users\stapi\AppData\Local\Temp\ccjQ9O0I.s:14887  .debug_loc:0000000000001d2f .LLST80
C:\Users\stapi\AppData\Local\Temp\ccjQ9O0I.s:14898  .debug_loc:0000000000001d4d .LLST81
C:\Users\stapi\AppData\Local\Temp\ccjQ9O0I.s:14909  .debug_loc:0000000000001d6b .LLST82
C:\Users\stapi\AppData\Local\Temp\ccjQ9O0I.s:14920  .debug_loc:0000000000001d89 .LLST83
C:\Users\stapi\AppData\Local\Temp\ccjQ9O0I.s:14934  .debug_loc:0000000000001daa .LLST84
C:\Users\stapi\AppData\Local\Temp\ccjQ9O0I.s:14947  .debug_loc:0000000000001dca .LLST85
C:\Users\stapi\AppData\Local\Temp\ccjQ9O0I.s:2287   .text.CoAPErrRespMessage_send.isra.0:000000000000001c .LBB91
C:\Users\stapi\AppData\Local\Temp\ccjQ9O0I.s:14958  .debug_loc:0000000000001de8 .LLST86
C:\Users\stapi\AppData\Local\Temp\ccjQ9O0I.s:14970  .debug_loc:0000000000001e00 .LLST87
C:\Users\stapi\AppData\Local\Temp\ccjQ9O0I.s:2295   .text.CoAPErrRespMessage_send.isra.0:000000000000001e .LBB94
C:\Users\stapi\AppData\Local\Temp\ccjQ9O0I.s:2342   .text.CoAPErrRespMessage_send.isra.0:0000000000000044 .LBB101
C:\Users\stapi\AppData\Local\Temp\ccjQ9O0I.s:2356   .text.CoAPErrRespMessage_send.isra.0:0000000000000052 .LBE101
C:\Users\stapi\AppData\Local\Temp\ccjQ9O0I.s:14983  .debug_loc:0000000000001e21 .LLST88
C:\Users\stapi\AppData\Local\Temp\ccjQ9O0I.s:14991  .debug_loc:0000000000001e35 .LLST89
C:\Users\stapi\AppData\Local\Temp\ccjQ9O0I.s:2285   .text.CoAPErrRespMessage_send.isra.0:000000000000001c .LVL240
C:\Users\stapi\AppData\Local\Temp\ccjQ9O0I.s:2333   .text.CoAPErrRespMessage_send.isra.0:000000000000003c .LVL243
C:\Users\stapi\AppData\Local\Temp\ccjQ9O0I.s:2367   .text.CoAPErrRespMessage_send.isra.0:0000000000000078 .LVL246
C:\Users\stapi\AppData\Local\Temp\ccjQ9O0I.s:2374   .text.CoAPErrRespMessage_send.isra.0:0000000000000086 .LVL247
C:\Users\stapi\AppData\Local\Temp\ccjQ9O0I.s:2378   .text.CoAPErrRespMessage_send.isra.0:0000000000000090 .LVL248
C:\Users\stapi\AppData\Local\Temp\ccjQ9O0I.s:2404   .text.CoAPErrRespMessage_send.isra.0:00000000000000aa .LVL250
C:\Users\stapi\AppData\Local\Temp\ccjQ9O0I.s:2417   .text.CoAPAckMessage_send.isra.0:0000000000000000 .LFB60
C:\Users\stapi\AppData\Local\Temp\ccjQ9O0I.s:2495   .text.CoAPAckMessage_send.isra.0:0000000000000066 .LFE60
C:\Users\stapi\AppData\Local\Temp\ccjQ9O0I.s:15000  .debug_loc:0000000000001e4b .LLST90
C:\Users\stapi\AppData\Local\Temp\ccjQ9O0I.s:15011  .debug_loc:0000000000001e69 .LLST91
C:\Users\stapi\AppData\Local\Temp\ccjQ9O0I.s:15022  .debug_loc:0000000000001e87 .LLST92
C:\Users\stapi\AppData\Local\Temp\ccjQ9O0I.s:15036  .debug_loc:0000000000001ea8 .LLST93
C:\Users\stapi\AppData\Local\Temp\ccjQ9O0I.s:15044  .debug_loc:0000000000001ebc .LLST94
C:\Users\stapi\AppData\Local\Temp\ccjQ9O0I.s:2447   .text.CoAPAckMessage_send.isra.0:000000000000001a .LBB103
C:\Users\stapi\AppData\Local\Temp\ccjQ9O0I.s:15055  .debug_loc:0000000000001eda .LLST95
C:\Users\stapi\AppData\Local\Temp\ccjQ9O0I.s:15062  .debug_loc:0000000000001eed .LLST96
C:\Users\stapi\AppData\Local\Temp\ccjQ9O0I.s:2445   .text.CoAPAckMessage_send.isra.0:000000000000001a .LVL255
C:\Users\stapi\AppData\Local\Temp\ccjQ9O0I.s:2472   .text.CoAPAckMessage_send.isra.0:0000000000000044 .LVL257
C:\Users\stapi\AppData\Local\Temp\ccjQ9O0I.s:2479   .text.CoAPAckMessage_send.isra.0:0000000000000052 .LVL258
C:\Users\stapi\AppData\Local\Temp\ccjQ9O0I.s:2483   .text.CoAPAckMessage_send.isra.0:000000000000005c .LVL259
C:\Users\stapi\AppData\Local\Temp\ccjQ9O0I.s:2676   .text.CoAPMessage_print_sendlist:0000000000000000 .LFB44
C:\Users\stapi\AppData\Local\Temp\ccjQ9O0I.s:2686   .text.CoAPMessage_print_sendlist:0000000000000004 .LFE44
C:\Users\stapi\AppData\Local\Temp\ccjQ9O0I.s:15071  .debug_loc:0000000000001f03 .LLST105
C:\Users\stapi\AppData\Local\Temp\ccjQ9O0I.s:15414  .debug_str:000000000000005c .LASF193
C:\Users\stapi\AppData\Local\Temp\ccjQ9O0I.s:15726  .debug_str:0000000000000a7c .LASF194
C:\Users\stapi\AppData\Local\Temp\ccjQ9O0I.s:15442  .debug_str:0000000000000110 .LASF195
C:\Users\stapi\AppData\Local\Temp\ccjQ9O0I.s:15594  .debug_str:00000000000005f2 .LASF196
C:\Users\stapi\AppData\Local\Temp\ccjQ9O0I.s:15804  .debug_str:0000000000000cd1 .LASF197
C:\Users\stapi\AppData\Local\Temp\ccjQ9O0I.s:15440  .debug_str:0000000000000105 .LASF198
C:\Users\stapi\AppData\Local\Temp\ccjQ9O0I.s:15718  .debug_str:0000000000000a26 .LASF199
C:\Users\stapi\AppData\Local\Temp\ccjQ9O0I.s:15522  .debug_str:0000000000000334 .LASF200
C:\Users\stapi\AppData\Local\Temp\ccjQ9O0I.s:15396  .debug_str:0000000000000000 .LASF201
C:\Users\stapi\AppData\Local\Temp\ccjQ9O0I.s:15510  .debug_str:00000000000002ee .LASF203
C:\Users\stapi\AppData\Local\Temp\ccjQ9O0I.s:15602  .debug_str:0000000000000635 .LASF205
C:\Users\stapi\AppData\Local\Temp\ccjQ9O0I.s:15842  .debug_str:0000000000000efa .LASF202
C:\Users\stapi\AppData\Local\Temp\ccjQ9O0I.s:15794  .debug_str:0000000000000c6d .LASF204
C:\Users\stapi\AppData\Local\Temp\ccjQ9O0I.s:15448  .debug_str:000000000000013c .LASF206
C:\Users\stapi\AppData\Local\Temp\ccjQ9O0I.s:15734  .debug_str:0000000000000ac0 .LASF207
C:\Users\stapi\AppData\Local\Temp\ccjQ9O0I.s:15438  .debug_str:00000000000000fd .LASF208
C:\Users\stapi\AppData\Local\Temp\ccjQ9O0I.s:15490  .debug_str:0000000000000263 .LASF209
C:\Users\stapi\AppData\Local\Temp\ccjQ9O0I.s:15540  .debug_str:00000000000003b5 .LASF210
C:\Users\stapi\AppData\Local\Temp\ccjQ9O0I.s:15806  .debug_str:0000000000000ce3 .LASF211
C:\Users\stapi\AppData\Local\Temp\ccjQ9O0I.s:15636  .debug_str:0000000000000743 .LASF212
C:\Users\stapi\AppData\Local\Temp\ccjQ9O0I.s:15616  .debug_str:00000000000006a1 .LASF213
C:\Users\stapi\AppData\Local\Temp\ccjQ9O0I.s:15830  .debug_str:0000000000000e7e .LASF214
C:\Users\stapi\AppData\Local\Temp\ccjQ9O0I.s:15536  .debug_str:0000000000000377 .LASF215
C:\Users\stapi\AppData\Local\Temp\ccjQ9O0I.s:15620  .debug_str:00000000000006c3 .LASF216
C:\Users\stapi\AppData\Local\Temp\ccjQ9O0I.s:15458  .debug_str:0000000000000181 .LASF217
C:\Users\stapi\AppData\Local\Temp\ccjQ9O0I.s:15634  .debug_str:0000000000000739 .LASF218
C:\Users\stapi\AppData\Local\Temp\ccjQ9O0I.s:3945   .text.CoAPMessage_cycle:0000000000000000 .LVL425
C:\Users\stapi\AppData\Local\Temp\ccjQ9O0I.s:3978   .text.CoAPMessage_cycle:000000000000001c .LVL427
C:\Users\stapi\AppData\Local\Temp\ccjQ9O0I.s:3962   .text.CoAPMessage_cycle:0000000000000008 .LVL426
C:\Users\stapi\AppData\Local\Temp\ccjQ9O0I.s:4000   .text.CoAPMessage_cycle:0000000000000038 .LVL430
C:\Users\stapi\AppData\Local\Temp\ccjQ9O0I.s:4100   .text.CoAPMessage_cycle:00000000000000c0 .LVL445
C:\Users\stapi\AppData\Local\Temp\ccjQ9O0I.s:4205   .text.CoAPMessage_cycle:0000000000000182 .LVL451
C:\Users\stapi\AppData\Local\Temp\ccjQ9O0I.s:4031   .text.CoAPMessage_cycle:0000000000000064 .LVL434
C:\Users\stapi\AppData\Local\Temp\ccjQ9O0I.s:4196   .text.CoAPMessage_cycle:0000000000000174 .LVL450
C:\Users\stapi\AppData\Local\Temp\ccjQ9O0I.s:4034   .text.CoAPMessage_cycle:000000000000006c .LVL435
C:\Users\stapi\AppData\Local\Temp\ccjQ9O0I.s:4193   .text.CoAPMessage_cycle:000000000000016e .LVL449
C:\Users\stapi\AppData\Local\Temp\ccjQ9O0I.s:4039   .text.CoAPMessage_cycle:0000000000000070 .LVL436
C:\Users\stapi\AppData\Local\Temp\ccjQ9O0I.s:4016   .text.CoAPMessage_cycle:0000000000000046 .LVL432
C:\Users\stapi\AppData\Local\Temp\ccjQ9O0I.s:4354   .text.CoAPMessage_cycle:000000000000022a .LVL468
C:\Users\stapi\AppData\Local\Temp\ccjQ9O0I.s:4077   .text.CoAPMessage_cycle:000000000000009e .LVL440
C:\Users\stapi\AppData\Local\Temp\ccjQ9O0I.s:4088   .text.CoAPMessage_cycle:00000000000000ae .LVL442
C:\Users\stapi\AppData\Local\Temp\ccjQ9O0I.s:4098   .text.CoAPMessage_cycle:00000000000000be .LVL444
C:\Users\stapi\AppData\Local\Temp\ccjQ9O0I.s:4345   .text.CoAPMessage_cycle:0000000000000220 .LVL465
C:\Users\stapi\AppData\Local\Temp\ccjQ9O0I.s:4352   .text.CoAPMessage_cycle:0000000000000228 .LVL467
C:\Users\stapi\AppData\Local\Temp\ccjQ9O0I.s:4091   .text.CoAPMessage_cycle:00000000000000b4 .LVL443
C:\Users\stapi\AppData\Local\Temp\ccjQ9O0I.s:4243   .text.CoAPMessage_cycle:00000000000001a0 .LVL454
C:\Users\stapi\AppData\Local\Temp\ccjQ9O0I.s:4349   .text.CoAPMessage_cycle:0000000000000222 .LVL466
C:\Users\stapi\AppData\Local\Temp\ccjQ9O0I.s:4074   .text.CoAPMessage_cycle:000000000000009a .LVL439
C:\Users\stapi\AppData\Local\Temp\ccjQ9O0I.s:4227   .text.CoAPMessage_cycle:000000000000019c .LVL452
C:\Users\stapi\AppData\Local\Temp\ccjQ9O0I.s:4276   .text.CoAPMessage_cycle:00000000000001ac .LVL456
C:\Users\stapi\AppData\Local\Temp\ccjQ9O0I.s:4258   .text.CoAPMessage_cycle:00000000000001a8 .LVL455
C:\Users\stapi\AppData\Local\Temp\ccjQ9O0I.s:4239   .text.CoAPMessage_cycle:000000000000019e .LVL453
C:\Users\stapi\AppData\Local\Temp\ccjQ9O0I.s:2913   .text.CoAPMessage_process:0000000000000000 .LVL302
C:\Users\stapi\AppData\Local\Temp\ccjQ9O0I.s:2953   .text.CoAPMessage_process:0000000000000024 .LVL305
C:\Users\stapi\AppData\Local\Temp\ccjQ9O0I.s:3240   .text.CoAPMessage_process:00000000000001d0 .LVL339
C:\Users\stapi\AppData\Local\Temp\ccjQ9O0I.s:3261   .text.CoAPMessage_process:00000000000001dc .LVL341
C:\Users\stapi\AppData\Local\Temp\ccjQ9O0I.s:2956   .text.CoAPMessage_process:000000000000002a .LVL306
C:\Users\stapi\AppData\Local\Temp\ccjQ9O0I.s:3247   .text.CoAPMessage_process:00000000000001d4 .LVL340
C:\Users\stapi\AppData\Local\Temp\ccjQ9O0I.s:2928   .text.CoAPMessage_process:0000000000000008 .LVL303
C:\Users\stapi\AppData\Local\Temp\ccjQ9O0I.s:2976   .text.CoAPMessage_process:0000000000000054 .LVL309
C:\Users\stapi\AppData\Local\Temp\ccjQ9O0I.s:3089   .text.CoAPMessage_process:0000000000000116 .LVL322
C:\Users\stapi\AppData\Local\Temp\ccjQ9O0I.s:3275   .text.CoAPMessage_process:00000000000001e6 .LVL344
C:\Users\stapi\AppData\Local\Temp\ccjQ9O0I.s:3324   .text.CoAPMessage_process:000000000000022a .LVL349
C:\Users\stapi\AppData\Local\Temp\ccjQ9O0I.s:3596   .text.CoAPMessage_process:00000000000003b2 .LVL385
C:\Users\stapi\AppData\Local\Temp\ccjQ9O0I.s:3612   .text.CoAPMessage_process:00000000000003ba .LVL386
C:\Users\stapi\AppData\Local\Temp\ccjQ9O0I.s:3683   .text.CoAPMessage_process:000000000000040e .LVL394
C:\Users\stapi\AppData\Local\Temp\ccjQ9O0I.s:3727   .text.CoAPMessage_process:0000000000000454 .LVL399
C:\Users\stapi\AppData\Local\Temp\ccjQ9O0I.s:3900   .text.CoAPMessage_process:000000000000057a .LVL421
C:\Users\stapi\AppData\Local\Temp\ccjQ9O0I.s:2943   .text.CoAPMessage_process:0000000000000018 .LVL304
C:\Users\stapi\AppData\Local\Temp\ccjQ9O0I.s:3015   .text.CoAPMessage_process:00000000000000a0 .LVL312
C:\Users\stapi\AppData\Local\Temp\ccjQ9O0I.s:3061   .text.CoAPMessage_process:00000000000000ee .LVL319
C:\Users\stapi\AppData\Local\Temp\ccjQ9O0I.s:3048   .text.CoAPMessage_process:00000000000000d6 .LVL317
C:\Users\stapi\AppData\Local\Temp\ccjQ9O0I.s:3300   .text.CoAPMessage_process:00000000000001fe .LVL346
C:\Users\stapi\AppData\Local\Temp\ccjQ9O0I.s:3404   .text.CoAPMessage_process:00000000000002a2 .LVL360
C:\Users\stapi\AppData\Local\Temp\ccjQ9O0I.s:3417   .text.CoAPMessage_process:00000000000002ac .LVL363
C:\Users\stapi\AppData\Local\Temp\ccjQ9O0I.s:3672   .text.CoAPMessage_process:00000000000003f8 .LVL391
C:\Users\stapi\AppData\Local\Temp\ccjQ9O0I.s:3792   .text.CoAPMessage_process:00000000000004be .LVL405
C:\Users\stapi\AppData\Local\Temp\ccjQ9O0I.s:3802   .text.CoAPMessage_process:00000000000004ce .LVL408
C:\Users\stapi\AppData\Local\Temp\ccjQ9O0I.s:3870   .text.CoAPMessage_process:0000000000000534 .LVL418
C:\Users\stapi\AppData\Local\Temp\ccjQ9O0I.s:3073   .text.CoAPMessage_process:00000000000000fe .LVL320
C:\Users\stapi\AppData\Local\Temp\ccjQ9O0I.s:3097   .text.CoAPMessage_process:0000000000000124 .LVL324
C:\Users\stapi\AppData\Local\Temp\ccjQ9O0I.s:3110   .text.CoAPMessage_process:0000000000000130 .LVL326
C:\Users\stapi\AppData\Local\Temp\ccjQ9O0I.s:3273   .text.CoAPMessage_process:00000000000001e4 .LVL343
C:\Users\stapi\AppData\Local\Temp\ccjQ9O0I.s:3092   .text.CoAPMessage_process:000000000000011c .LVL323
C:\Users\stapi\AppData\Local\Temp\ccjQ9O0I.s:3270   .text.CoAPMessage_process:00000000000001de .LVL342
C:\Users\stapi\AppData\Local\Temp\ccjQ9O0I.s:3128   .text.CoAPMessage_process:0000000000000144 .LVL327
C:\Users\stapi\AppData\Local\Temp\ccjQ9O0I.s:3132   .text.CoAPMessage_process:0000000000000148 .LVL328
C:\Users\stapi\AppData\Local\Temp\ccjQ9O0I.s:3149   .text.CoAPMessage_process:0000000000000164 .LVL330
C:\Users\stapi\AppData\Local\Temp\ccjQ9O0I.s:3172   .text.CoAPMessage_process:000000000000016e .LVL333
C:\Users\stapi\AppData\Local\Temp\ccjQ9O0I.s:3155   .text.CoAPMessage_process:0000000000000166 .LVL331
C:\Users\stapi\AppData\Local\Temp\ccjQ9O0I.s:3159   .text.CoAPMessage_process:0000000000000168 .LVL332
C:\Users\stapi\AppData\Local\Temp\ccjQ9O0I.s:3287   .text.CoAPMessage_process:00000000000001f6 .LVL345
C:\Users\stapi\AppData\Local\Temp\ccjQ9O0I.s:3402   .text.CoAPMessage_process:00000000000002a0 .LVL359
C:\Users\stapi\AppData\Local\Temp\ccjQ9O0I.s:3415   .text.CoAPMessage_process:00000000000002aa .LVL362
C:\Users\stapi\AppData\Local\Temp\ccjQ9O0I.s:3359   .text.CoAPMessage_process:000000000000026a .LVL354
C:\Users\stapi\AppData\Local\Temp\ccjQ9O0I.s:3374   .text.CoAPMessage_process:000000000000027c .LVL356
C:\Users\stapi\AppData\Local\Temp\ccjQ9O0I.s:3383   .text.CoAPMessage_process:0000000000000288 .LVL358
C:\Users\stapi\AppData\Local\Temp\ccjQ9O0I.s:3569   .text.CoAPMessage_process:0000000000000386 .LVL378
C:\Users\stapi\AppData\Local\Temp\ccjQ9O0I.s:3578   .text.CoAPMessage_process:0000000000000392 .LVL381
C:\Users\stapi\AppData\Local\Temp\ccjQ9O0I.s:3335   .text.CoAPMessage_process:000000000000023c .LVL351
C:\Users\stapi\AppData\Local\Temp\ccjQ9O0I.s:3337   .text.CoAPMessage_process:000000000000023e .LVL352
C:\Users\stapi\AppData\Local\Temp\ccjQ9O0I.s:3451   .text.CoAPMessage_process:00000000000002f4 .LVL368
C:\Users\stapi\AppData\Local\Temp\ccjQ9O0I.s:3576   .text.CoAPMessage_process:0000000000000390 .LVL380
C:\Users\stapi\AppData\Local\Temp\ccjQ9O0I.s:3589   .text.CoAPMessage_process:00000000000003a6 .LVL382
C:\Users\stapi\AppData\Local\Temp\ccjQ9O0I.s:3594   .text.CoAPMessage_process:00000000000003b0 .LVL384
C:\Users\stapi\AppData\Local\Temp\ccjQ9O0I.s:3326   .text.CoAPMessage_process:000000000000022e .LVL350
C:\Users\stapi\AppData\Local\Temp\ccjQ9O0I.s:3446   .text.CoAPMessage_process:00000000000002ec .LVL367
C:\Users\stapi\AppData\Local\Temp\ccjQ9O0I.s:3453   .text.CoAPMessage_process:00000000000002f8 .LVL369
C:\Users\stapi\AppData\Local\Temp\ccjQ9O0I.s:3573   .text.CoAPMessage_process:000000000000038a .LVL379
C:\Users\stapi\AppData\Local\Temp\ccjQ9O0I.s:3591   .text.CoAPMessage_process:00000000000003aa .LVL383
C:\Users\stapi\AppData\Local\Temp\ccjQ9O0I.s:3485   .text.CoAPMessage_process:0000000000000332 .LVL371
C:\Users\stapi\AppData\Local\Temp\ccjQ9O0I.s:3534   .text.CoAPMessage_process:0000000000000342 .LVL374
C:\Users\stapi\AppData\Local\Temp\ccjQ9O0I.s:3512   .text.CoAPMessage_process:000000000000033a .LVL373
C:\Users\stapi\AppData\Local\Temp\ccjQ9O0I.s:3504   .text.CoAPMessage_process:0000000000000336 .LVL372
C:\Users\stapi\AppData\Local\Temp\ccjQ9O0I.s:3651   .text.CoAPMessage_process:00000000000003e8 .LVL388
C:\Users\stapi\AppData\Local\Temp\ccjQ9O0I.s:3662   .text.CoAPMessage_process:00000000000003ec .LVL389
C:\Users\stapi\AppData\Local\Temp\ccjQ9O0I.s:3695   .text.CoAPMessage_process:000000000000041a .LVL395
C:\Users\stapi\AppData\Local\Temp\ccjQ9O0I.s:3737   .text.CoAPMessage_process:0000000000000462 .LVL400
C:\Users\stapi\AppData\Local\Temp\ccjQ9O0I.s:3800   .text.CoAPMessage_process:00000000000004cc .LVL407
C:\Users\stapi\AppData\Local\Temp\ccjQ9O0I.s:3868   .text.CoAPMessage_process:0000000000000532 .LVL417
C:\Users\stapi\AppData\Local\Temp\ccjQ9O0I.s:3762   .text.CoAPMessage_process:0000000000000498 .LVL404
C:\Users\stapi\AppData\Local\Temp\ccjQ9O0I.s:3808   .text.CoAPMessage_process:00000000000004d6 .LVL410
C:\Users\stapi\AppData\Local\Temp\ccjQ9O0I.s:3848   .text.CoAPMessage_process:000000000000050a .LVL415
C:\Users\stapi\AppData\Local\Temp\ccjQ9O0I.s:3725   .text.CoAPMessage_process:0000000000000452 .LVL398
C:\Users\stapi\AppData\Local\Temp\ccjQ9O0I.s:3752   .text.CoAPMessage_process:0000000000000482 .LVL401
C:\Users\stapi\AppData\Local\Temp\ccjQ9O0I.s:3831   .text.CoAPMessage_process:00000000000004f6 .LVL411
C:\Users\stapi\AppData\Local\Temp\ccjQ9O0I.s:3840   .text.CoAPMessage_process:0000000000000504 .LVL413
C:\Users\stapi\AppData\Local\Temp\ccjQ9O0I.s:2700   .text.CoAPMessageId_cancel:0000000000000000 .LVL283
C:\Users\stapi\AppData\Local\Temp\ccjQ9O0I.s:2721   .text.CoAPMessageId_cancel:000000000000000e .LVL284
C:\Users\stapi\AppData\Local\Temp\ccjQ9O0I.s:2847   .text.CoAPMessageId_cancel:00000000000000b4 .LVL300
C:\Users\stapi\AppData\Local\Temp\ccjQ9O0I.s:2863   .text.CoAPMessageId_cancel:00000000000000ba .LVL301
C:\Users\stapi\AppData\Local\Temp\ccjQ9O0I.s:2738   .text.CoAPMessageId_cancel:0000000000000030 .LVL286
C:\Users\stapi\AppData\Local\Temp\ccjQ9O0I.s:2757   .text.CoAPMessageId_cancel:0000000000000050 .LVL289
C:\Users\stapi\AppData\Local\Temp\ccjQ9O0I.s:2773   .text.CoAPMessageId_cancel:000000000000005a .LVL290
C:\Users\stapi\AppData\Local\Temp\ccjQ9O0I.s:2845   .text.CoAPMessageId_cancel:00000000000000b2 .LVL299
C:\Users\stapi\AppData\Local\Temp\ccjQ9O0I.s:2743   .text.CoAPMessageId_cancel:0000000000000038 .LVL287
C:\Users\stapi\AppData\Local\Temp\ccjQ9O0I.s:2842   .text.CoAPMessageId_cancel:00000000000000ac .LVL298
C:\Users\stapi\AppData\Local\Temp\ccjQ9O0I.s:2783   .text.CoAPMessageId_cancel:0000000000000062 .LVL291
C:\Users\stapi\AppData\Local\Temp\ccjQ9O0I.s:2807   .text.CoAPMessageId_cancel:0000000000000070 .LVL294
C:\Users\stapi\AppData\Local\Temp\ccjQ9O0I.s:2789   .text.CoAPMessageId_cancel:0000000000000064 .LVL292
C:\Users\stapi\AppData\Local\Temp\ccjQ9O0I.s:2793   .text.CoAPMessageId_cancel:0000000000000066 .LVL293
C:\Users\stapi\AppData\Local\Temp\ccjQ9O0I.s:2509   .text.CoAPMessage_cancel:0000000000000000 .LVL260
C:\Users\stapi\AppData\Local\Temp\ccjQ9O0I.s:2531   .text.CoAPMessage_cancel:0000000000000012 .LVL261
C:\Users\stapi\AppData\Local\Temp\ccjQ9O0I.s:2651   .text.CoAPMessage_cancel:00000000000000c2 .LVL279
C:\Users\stapi\AppData\Local\Temp\ccjQ9O0I.s:2665   .text.CoAPMessage_cancel:00000000000000c6 .LVL280
C:\Users\stapi\AppData\Local\Temp\ccjQ9O0I.s:2551   .text.CoAPMessage_cancel:0000000000000038 .LVL263
C:\Users\stapi\AppData\Local\Temp\ccjQ9O0I.s:2565   .text.CoAPMessage_cancel:0000000000000050 .LVL266
C:\Users\stapi\AppData\Local\Temp\ccjQ9O0I.s:2580   .text.CoAPMessage_cancel:0000000000000058 .LVL267
C:\Users\stapi\AppData\Local\Temp\ccjQ9O0I.s:2649   .text.CoAPMessage_cancel:00000000000000c0 .LVL278
C:\Users\stapi\AppData\Local\Temp\ccjQ9O0I.s:2553   .text.CoAPMessage_cancel:000000000000003c .LVL264
C:\Users\stapi\AppData\Local\Temp\ccjQ9O0I.s:2646   .text.CoAPMessage_cancel:00000000000000ba .LVL277
C:\Users\stapi\AppData\Local\Temp\ccjQ9O0I.s:2589   .text.CoAPMessage_cancel:0000000000000064 .LVL268
C:\Users\stapi\AppData\Local\Temp\ccjQ9O0I.s:2612   .text.CoAPMessage_cancel:0000000000000070 .LVL271
C:\Users\stapi\AppData\Local\Temp\ccjQ9O0I.s:2595   .text.CoAPMessage_cancel:0000000000000066 .LVL269
C:\Users\stapi\AppData\Local\Temp\ccjQ9O0I.s:2599   .text.CoAPMessage_cancel:0000000000000068 .LVL270
C:\Users\stapi\AppData\Local\Temp\ccjQ9O0I.s:1573   .text.CoAPMessage_send:0000000000000000 .LVL154
C:\Users\stapi\AppData\Local\Temp\ccjQ9O0I.s:1608   .text.CoAPMessage_send:000000000000001a .LVL156
C:\Users\stapi\AppData\Local\Temp\ccjQ9O0I.s:1651   .text.CoAPMessage_send:0000000000000070 .LVL165
C:\Users\stapi\AppData\Local\Temp\ccjQ9O0I.s:1671   .text.CoAPMessage_send:000000000000007c .LVL166
C:\Users\stapi\AppData\Local\Temp\ccjQ9O0I.s:1588   .text.CoAPMessage_send:0000000000000008 .LVL155
C:\Users\stapi\AppData\Local\Temp\ccjQ9O0I.s:1825   .text.CoAPMessage_send:00000000000001aa .LVL184
C:\Users\stapi\AppData\Local\Temp\ccjQ9O0I.s:2030   .text.CoAPMessage_send:000000000000031c .LVL206
C:\Users\stapi\AppData\Local\Temp\ccjQ9O0I.s:2060   .text.CoAPMessage_send:000000000000035c .LVL211
C:\Users\stapi\AppData\Local\Temp\ccjQ9O0I.s:1625   .text.CoAPMessage_send:0000000000000036 .LVL160
C:\Users\stapi\AppData\Local\Temp\ccjQ9O0I.s:1632   .text.CoAPMessage_send:000000000000003e .LVL161
C:\Users\stapi\AppData\Local\Temp\ccjQ9O0I.s:1679   .text.CoAPMessage_send:0000000000000082 .LVL167
C:\Users\stapi\AppData\Local\Temp\ccjQ9O0I.s:1728   .text.CoAPMessage_send:00000000000000ea .LVL177
C:\Users\stapi\AppData\Local\Temp\ccjQ9O0I.s:1683   .text.CoAPMessage_send:000000000000008c .LVL169
C:\Users\stapi\AppData\Local\Temp\ccjQ9O0I.s:1690   .text.CoAPMessage_send:0000000000000092 .LVL170
C:\Users\stapi\AppData\Local\Temp\ccjQ9O0I.s:1709   .text.CoAPMessage_send:00000000000000c4 .LVL174
C:\Users\stapi\AppData\Local\Temp\ccjQ9O0I.s:1769   .text.CoAPMessage_send:000000000000014c .LVL179
C:\Users\stapi\AppData\Local\Temp\ccjQ9O0I.s:2193   .text.CoAPMessage_send:00000000000003fa .LVL226
C:\Users\stapi\AppData\Local\Temp\ccjQ9O0I.s:2200   .text.CoAPMessage_send:00000000000003fc .LVL227
C:\Users\stapi\AppData\Local\Temp\ccjQ9O0I.s:2214   .text.CoAPMessage_send:0000000000000428 .LVL230
C:\Users\stapi\AppData\Local\Temp\ccjQ9O0I.s:2218   .text.CoAPMessage_send:000000000000042a .LVL231
C:\Users\stapi\AppData\Local\Temp\ccjQ9O0I.s:1611   .text.CoAPMessage_send:000000000000001c .LVL157
C:\Users\stapi\AppData\Local\Temp\ccjQ9O0I.s:2114   .text.CoAPMessage_send:00000000000003ba .LVL219
C:\Users\stapi\AppData\Local\Temp\ccjQ9O0I.s:1844   .text.CoAPMessage_send:00000000000001c6 .LVL187
C:\Users\stapi\AppData\Local\Temp\ccjQ9O0I.s:1880   .text.CoAPMessage_send:000000000000020a .LVL193
C:\Users\stapi\AppData\Local\Temp\ccjQ9O0I.s:2072   .text.CoAPMessage_send:000000000000036a .LVL212
C:\Users\stapi\AppData\Local\Temp\ccjQ9O0I.s:2123   .text.CoAPMessage_send:00000000000003c2 .LVL221
C:\Users\stapi\AppData\Local\Temp\ccjQ9O0I.s:2125   .text.CoAPMessage_send:00000000000003c4 .LVL222
C:\Users\stapi\AppData\Local\Temp\ccjQ9O0I.s:1847   .text.CoAPMessage_send:00000000000001cc .LVL188
C:\Users\stapi\AppData\Local\Temp\ccjQ9O0I.s:2120   .text.CoAPMessage_send:00000000000003bc .LVL220
C:\Users\stapi\AppData\Local\Temp\ccjQ9O0I.s:1793   .text.CoAPMessage_send:0000000000000170 .LVL182
C:\Users\stapi\AppData\Local\Temp\ccjQ9O0I.s:1829   .text.CoAPMessage_send:00000000000001ac .LVL185
C:\Users\stapi\AppData\Local\Temp\ccjQ9O0I.s:1871   .text.CoAPMessage_send:00000000000001f8 .LVL191
C:\Users\stapi\AppData\Local\Temp\ccjQ9O0I.s:2093   .text.CoAPMessage_send:00000000000003a2 .LVL216
C:\Users\stapi\AppData\Local\Temp\ccjQ9O0I.s:1976   .text.CoAPMessage_send:00000000000002a0 .LVL198
C:\Users\stapi\AppData\Local\Temp\ccjQ9O0I.s:2144   .text.CoAPMessage_send:00000000000003de .LVL223
C:\Users\stapi\AppData\Local\Temp\ccjQ9O0I.s:2156   .text.CoAPMessage_send:00000000000003e6 .LVL224
C:\Users\stapi\AppData\Local\Temp\ccjQ9O0I.s:2184   .text.CoAPMessage_send:00000000000003f4 .LVL225
C:\Users\stapi\AppData\Local\Temp\ccjQ9O0I.s:1351   .text.CoAPMessageToken_dump:0000000000000000 .LVL135
C:\Users\stapi\AppData\Local\Temp\ccjQ9O0I.s:1389   .text.CoAPMessageToken_dump:0000000000000026 .LVL138
C:\Users\stapi\AppData\Local\Temp\ccjQ9O0I.s:1362   .text.CoAPMessageToken_dump:0000000000000008 .LVL136
C:\Users\stapi\AppData\Local\Temp\ccjQ9O0I.s:1396   .text.CoAPMessageToken_dump:000000000000002e .LVL139
C:\Users\stapi\AppData\Local\Temp\ccjQ9O0I.s:1430   .text.CoAPMessageToken_dump:000000000000007a .LVL143
C:\Users\stapi\AppData\Local\Temp\ccjQ9O0I.s:1379   .text.CoAPMessageToken_dump:000000000000001c .LVL137
C:\Users\stapi\AppData\Local\Temp\ccjQ9O0I.s:1398   .text.CoAPMessageToken_dump:0000000000000032 .LVL140
C:\Users\stapi\AppData\Local\Temp\ccjQ9O0I.s:1179   .text.CoAPMessageCheckDup:0000000000000000 .LVL121
C:\Users\stapi\AppData\Local\Temp\ccjQ9O0I.s:1199   .text.CoAPMessageCheckDup:0000000000000012 .LVL122
C:\Users\stapi\AppData\Local\Temp\ccjQ9O0I.s:1248   .text.CoAPMessageCheckDup:000000000000006c .LVL129
C:\Users\stapi\AppData\Local\Temp\ccjQ9O0I.s:1317   .text.CoAPMessageCheckDup:00000000000000d6 .LVL133
C:\Users\stapi\AppData\Local\Temp\ccjQ9O0I.s:1327   .text.CoAPMessageCheckDup:00000000000000d8 .LVL134
C:\Users\stapi\AppData\Local\Temp\ccjQ9O0I.s:1217   .text.CoAPMessageCheckDup:0000000000000032 .LVL124
C:\Users\stapi\AppData\Local\Temp\ccjQ9O0I.s:1228   .text.CoAPMessageCheckDup:0000000000000046 .LVL125
C:\Users\stapi\AppData\Local\Temp\ccjQ9O0I.s:1241   .text.CoAPMessageCheckDup:000000000000005e .LVL127
C:\Users\stapi\AppData\Local\Temp\ccjQ9O0I.s:1058   .text.CoAPMessage_init:0000000000000000 .LVL112
C:\Users\stapi\AppData\Local\Temp\ccjQ9O0I.s:1093   .text.CoAPMessage_init:0000000000000032 .LVL114
C:\Users\stapi\AppData\Local\Temp\ccjQ9O0I.s:1097   .text.CoAPMessage_init:0000000000000036 .LVL115
C:\Users\stapi\AppData\Local\Temp\ccjQ9O0I.s:1028   .text.CoAPMessageHandler_set:0000000000000000 .LVL108
C:\Users\stapi\AppData\Local\Temp\ccjQ9O0I.s:1038   .text.CoAPMessageHandler_set:0000000000000006 .LVL109
C:\Users\stapi\AppData\Local\Temp\ccjQ9O0I.s:1040   .text.CoAPMessageHandler_set:0000000000000008 .LVL110
C:\Users\stapi\AppData\Local\Temp\ccjQ9O0I.s:1044   .text.CoAPMessageHandler_set:000000000000000c .LVL111
C:\Users\stapi\AppData\Local\Temp\ccjQ9O0I.s:985    .text.CoAPMessagePayload_set:0000000000000000 .LVL104
C:\Users\stapi\AppData\Local\Temp\ccjQ9O0I.s:995    .text.CoAPMessagePayload_set:000000000000000a .LVL105
C:\Users\stapi\AppData\Local\Temp\ccjQ9O0I.s:1009   .text.CoAPMessagePayload_set:0000000000000016 .LVL106
C:\Users\stapi\AppData\Local\Temp\ccjQ9O0I.s:1013   .text.CoAPMessagePayload_set:000000000000001a .LVL107
C:\Users\stapi\AppData\Local\Temp\ccjQ9O0I.s:953    .text.CoAPMessageKeep_Set:0000000000000000 .LVL102
C:\Users\stapi\AppData\Local\Temp\ccjQ9O0I.s:959    .text.CoAPMessageKeep_Set:0000000000000006 .LVL103
C:\Users\stapi\AppData\Local\Temp\ccjQ9O0I.s:921    .text.CoAPMessageUserData_set:0000000000000000 .LVL100
C:\Users\stapi\AppData\Local\Temp\ccjQ9O0I.s:927    .text.CoAPMessageUserData_set:0000000000000006 .LVL101
C:\Users\stapi\AppData\Local\Temp\ccjQ9O0I.s:857    .text.CoAPMessageToken_set:0000000000000000 .LVL95
C:\Users\stapi\AppData\Local\Temp\ccjQ9O0I.s:870    .text.CoAPMessageToken_set:0000000000000010 .LVL96
C:\Users\stapi\AppData\Local\Temp\ccjQ9O0I.s:903    .text.CoAPMessageToken_set:0000000000000042 .LVL98
C:\Users\stapi\AppData\Local\Temp\ccjQ9O0I.s:907    .text.CoAPMessageToken_set:0000000000000046 .LVL99
C:\Users\stapi\AppData\Local\Temp\ccjQ9O0I.s:820    .text.CoAPMessageCode_get:0000000000000000 .LVL91
C:\Users\stapi\AppData\Local\Temp\ccjQ9O0I.s:826    .text.CoAPMessageCode_get:0000000000000006 .LVL92
C:\Users\stapi\AppData\Local\Temp\ccjQ9O0I.s:834    .text.CoAPMessageCode_get:000000000000000e .LVL93
C:\Users\stapi\AppData\Local\Temp\ccjQ9O0I.s:842    .text.CoAPMessageCode_get:0000000000000014 .LVL94
C:\Users\stapi\AppData\Local\Temp\ccjQ9O0I.s:643    .text.CoAPMessageId_gen:0000000000000000 .LVL70
C:\Users\stapi\AppData\Local\Temp\ccjQ9O0I.s:661    .text.CoAPMessageId_gen:0000000000000010 .LVL73
C:\Users\stapi\AppData\Local\Temp\ccjQ9O0I.s:692    .text.CoAPMessageId_gen:0000000000000044 .LVL77
C:\Users\stapi\AppData\Local\Temp\ccjQ9O0I.s:650    .text.CoAPMessageId_gen:0000000000000008 .LVL71
C:\Users\stapi\AppData\Local\Temp\ccjQ9O0I.s:678    .text.CoAPMessageId_gen:0000000000000032 .LVL75
C:\Users\stapi\AppData\Local\Temp\ccjQ9O0I.s:658    .text.CoAPMessageId_gen:000000000000000e .LVL72
C:\Users\stapi\AppData\Local\Temp\ccjQ9O0I.s:598    .text.CoAPOption_present:0000000000000000 .LVL66
C:\Users\stapi\AppData\Local\Temp\ccjQ9O0I.s:606    .text.CoAPOption_present:0000000000000008 .LVL67
C:\Users\stapi\AppData\Local\Temp\ccjQ9O0I.s:623    .text.CoAPOption_present:000000000000001e .LVL68
C:\Users\stapi\AppData\Local\Temp\ccjQ9O0I.s:625    .text.CoAPOption_present:0000000000000022 .LVL69
C:\Users\stapi\AppData\Local\Temp\ccjQ9O0I.s:422    .text.CoAPUintOption_get:0000000000000000 .LVL44
C:\Users\stapi\AppData\Local\Temp\ccjQ9O0I.s:438    .text.CoAPUintOption_get:0000000000000016 .LVL46
C:\Users\stapi\AppData\Local\Temp\ccjQ9O0I.s:441    .text.CoAPUintOption_get:0000000000000018 .LVL47
C:\Users\stapi\AppData\Local\Temp\ccjQ9O0I.s:455    .text.CoAPUintOption_get:000000000000002a .LVL49
C:\Users\stapi\AppData\Local\Temp\ccjQ9O0I.s:581    .text.CoAPUintOption_get:00000000000000ba .LVL64
C:\Users\stapi\AppData\Local\Temp\ccjQ9O0I.s:430    .text.CoAPUintOption_get:000000000000000a .LVL45
C:\Users\stapi\AppData\Local\Temp\ccjQ9O0I.s:458    .text.CoAPUintOption_get:000000000000002e .LVL50
C:\Users\stapi\AppData\Local\Temp\ccjQ9O0I.s:585    .text.CoAPUintOption_get:00000000000000bc .LVL65
C:\Users\stapi\AppData\Local\Temp\ccjQ9O0I.s:452    .text.CoAPUintOption_get:0000000000000026 .LVL48
C:\Users\stapi\AppData\Local\Temp\ccjQ9O0I.s:480    .text.CoAPUintOption_get:0000000000000052 .LVL51
C:\Users\stapi\AppData\Local\Temp\ccjQ9O0I.s:491    .text.CoAPUintOption_get:000000000000005e .LVL52
C:\Users\stapi\AppData\Local\Temp\ccjQ9O0I.s:500    .text.CoAPUintOption_get:0000000000000068 .LVL53
C:\Users\stapi\AppData\Local\Temp\ccjQ9O0I.s:509    .text.CoAPUintOption_get:0000000000000072 .LVL54
C:\Users\stapi\AppData\Local\Temp\ccjQ9O0I.s:513    .text.CoAPUintOption_get:0000000000000078 .LVL55
C:\Users\stapi\AppData\Local\Temp\ccjQ9O0I.s:521    .text.CoAPUintOption_get:0000000000000080 .LVL56
C:\Users\stapi\AppData\Local\Temp\ccjQ9O0I.s:532    .text.CoAPUintOption_get:0000000000000088 .LVL57
C:\Users\stapi\AppData\Local\Temp\ccjQ9O0I.s:537    .text.CoAPUintOption_get:000000000000008a .LVL58
C:\Users\stapi\AppData\Local\Temp\ccjQ9O0I.s:548    .text.CoAPUintOption_get:0000000000000096 .LVL59
C:\Users\stapi\AppData\Local\Temp\ccjQ9O0I.s:552    .text.CoAPUintOption_get:000000000000009c .LVL60
C:\Users\stapi\AppData\Local\Temp\ccjQ9O0I.s:557    .text.CoAPUintOption_get:000000000000009e .LVL61
C:\Users\stapi\AppData\Local\Temp\ccjQ9O0I.s:568    .text.CoAPUintOption_get:00000000000000aa .LVL62
C:\Users\stapi\AppData\Local\Temp\ccjQ9O0I.s:577    .text.CoAPUintOption_get:00000000000000b4 .LVL63
C:\Users\stapi\AppData\Local\Temp\ccjQ9O0I.s:331    .text.CoAPUintOption_add:0000000000000000 .LVL33
C:\Users\stapi\AppData\Local\Temp\ccjQ9O0I.s:373    .text.CoAPUintOption_add:000000000000002c .LVL39
C:\Users\stapi\AppData\Local\Temp\ccjQ9O0I.s:354    .text.CoAPUintOption_add:0000000000000014 .LVL36
C:\Users\stapi\AppData\Local\Temp\ccjQ9O0I.s:359    .text.CoAPUintOption_add:0000000000000018 .LVL37
C:\Users\stapi\AppData\Local\Temp\ccjQ9O0I.s:390    .text.CoAPUintOption_add:000000000000003e .LVL41
C:\Users\stapi\AppData\Local\Temp\ccjQ9O0I.s:397    .text.CoAPUintOption_add:000000000000004a .LVL42
C:\Users\stapi\AppData\Local\Temp\ccjQ9O0I.s:405    .text.CoAPUintOption_add:000000000000004e .LVL43
C:\Users\stapi\AppData\Local\Temp\ccjQ9O0I.s:337    .text.CoAPUintOption_add:0000000000000008 .LVL34
C:\Users\stapi\AppData\Local\Temp\ccjQ9O0I.s:348    .text.CoAPUintOption_add:0000000000000010 .LVL35
C:\Users\stapi\AppData\Local\Temp\ccjQ9O0I.s:384    .text.CoAPUintOption_add:0000000000000036 .LVL40
C:\Users\stapi\AppData\Local\Temp\ccjQ9O0I.s:240    .text.CoAPStrOption_get:0000000000000000 .LVL20
C:\Users\stapi\AppData\Local\Temp\ccjQ9O0I.s:252    .text.CoAPStrOption_get:000000000000000c .LVL22
C:\Users\stapi\AppData\Local\Temp\ccjQ9O0I.s:282    .text.CoAPStrOption_get:0000000000000038 .LVL27
C:\Users\stapi\AppData\Local\Temp\ccjQ9O0I.s:314    .text.CoAPStrOption_get:0000000000000066 .LVL31
C:\Users\stapi\AppData\Local\Temp\ccjQ9O0I.s:294    .text.CoAPStrOption_get:000000000000004a .LVL29
C:\Users\stapi\AppData\Local\Temp\ccjQ9O0I.s:255    .text.CoAPStrOption_get:0000000000000010 .LVL23
C:\Users\stapi\AppData\Local\Temp\ccjQ9O0I.s:261    .text.CoAPStrOption_get:0000000000000018 .LVL24
C:\Users\stapi\AppData\Local\Temp\ccjQ9O0I.s:247    .text.CoAPStrOption_get:0000000000000008 .LVL21
C:\Users\stapi\AppData\Local\Temp\ccjQ9O0I.s:269    .text.CoAPStrOption_get:0000000000000024 .LVL25
C:\Users\stapi\AppData\Local\Temp\ccjQ9O0I.s:271    .text.CoAPStrOption_get:0000000000000026 .LVL26
C:\Users\stapi\AppData\Local\Temp\ccjQ9O0I.s:289    .text.CoAPStrOption_get:0000000000000044 .LVL28
C:\Users\stapi\AppData\Local\Temp\ccjQ9O0I.s:318    .text.CoAPStrOption_get:0000000000000068 .LVL32
C:\Users\stapi\AppData\Local\Temp\ccjQ9O0I.s:138    .text.CoAPStrOption_add:0000000000000000 .LVL11
C:\Users\stapi\AppData\Local\Temp\ccjQ9O0I.s:177    .text.CoAPStrOption_add:000000000000002e .LVL14
C:\Users\stapi\AppData\Local\Temp\ccjQ9O0I.s:220    .text.CoAPStrOption_add:000000000000006a .LVL18
C:\Users\stapi\AppData\Local\Temp\ccjQ9O0I.s:227    .text.CoAPStrOption_add:0000000000000070 .LVL19
C:\Users\stapi\AppData\Local\Temp\ccjQ9O0I.s:175    .text.CoAPStrOption_add:000000000000002c .LVL13
C:\Users\stapi\AppData\Local\Temp\ccjQ9O0I.s:164    .text.CoAPStrOption_add:0000000000000026 .LVL12
C:\Users\stapi\AppData\Local\Temp\ccjQ9O0I.s:182    .text.CoAPStrOption_add:000000000000003a .LVL16
C:\Users\stapi\AppData\Local\Temp\ccjQ9O0I.s:18     .text.CoAPOption_sort:0000000000000000 .LVL0
C:\Users\stapi\AppData\Local\Temp\ccjQ9O0I.s:53     .text.CoAPOption_sort:000000000000001e .LVL3
C:\Users\stapi\AppData\Local\Temp\ccjQ9O0I.s:110    .text.CoAPOption_sort:000000000000007a .LVL10
C:\Users\stapi\AppData\Local\Temp\ccjQ9O0I.s:33     .text.CoAPOption_sort:000000000000000c .LVL1
C:\Users\stapi\AppData\Local\Temp\ccjQ9O0I.s:47     .text.CoAPOption_sort:0000000000000018 .LVL2
C:\Users\stapi\AppData\Local\Temp\ccjQ9O0I.s:71     .text.CoAPOption_sort:0000000000000040 .LVL5
C:\Users\stapi\AppData\Local\Temp\ccjQ9O0I.s:83     .text.CoAPOption_sort:0000000000000052 .LVL6
C:\Users\stapi\AppData\Local\Temp\ccjQ9O0I.s:711    .text.CoAPMessageId_set:0000000000000000 .LVL78
C:\Users\stapi\AppData\Local\Temp\ccjQ9O0I.s:721    .text.CoAPMessageId_set:0000000000000008 .LVL79
C:\Users\stapi\AppData\Local\Temp\ccjQ9O0I.s:723    .text.CoAPMessageId_set:000000000000000a .LVL80
C:\Users\stapi\AppData\Local\Temp\ccjQ9O0I.s:727    .text.CoAPMessageId_set:000000000000000e .LVL81
C:\Users\stapi\AppData\Local\Temp\ccjQ9O0I.s:741    .text.CoAPMessageType_set:0000000000000000 .LVL82
C:\Users\stapi\AppData\Local\Temp\ccjQ9O0I.s:755    .text.CoAPMessageType_set:0000000000000012 .LVL83
C:\Users\stapi\AppData\Local\Temp\ccjQ9O0I.s:771    .text.CoAPMessageType_set:000000000000002a .LVL85
C:\Users\stapi\AppData\Local\Temp\ccjQ9O0I.s:775    .text.CoAPMessageType_set:000000000000002e .LVL86
C:\Users\stapi\AppData\Local\Temp\ccjQ9O0I.s:762    .text.CoAPMessageType_set:000000000000001c .LVL84
C:\Users\stapi\AppData\Local\Temp\ccjQ9O0I.s:790    .text.CoAPMessageCode_set:0000000000000000 .LVL87
C:\Users\stapi\AppData\Local\Temp\ccjQ9O0I.s:800    .text.CoAPMessageCode_set:0000000000000008 .LVL88
C:\Users\stapi\AppData\Local\Temp\ccjQ9O0I.s:802    .text.CoAPMessageCode_set:000000000000000a .LVL89
C:\Users\stapi\AppData\Local\Temp\ccjQ9O0I.s:806    .text.CoAPMessageCode_set:000000000000000e .LVL90
C:\Users\stapi\AppData\Local\Temp\ccjQ9O0I.s:1111   .text.CoAPMessage_destory:0000000000000000 .LVL116
C:\Users\stapi\AppData\Local\Temp\ccjQ9O0I.s:1124   .text.CoAPMessage_destory:0000000000000012 .LVL117
C:\Users\stapi\AppData\Local\Temp\ccjQ9O0I.s:1154   .text.CoAPMessage_destory:0000000000000032 .LVL119
C:\Users\stapi\AppData\Local\Temp\ccjQ9O0I.s:1158   .text.CoAPMessage_destory:0000000000000036 .LVL120
C:\Users\stapi\AppData\Local\Temp\ccjQ9O0I.s:1471   .text.CoAPMessage_dump:0000000000000000 .LVL148
C:\Users\stapi\AppData\Local\Temp\ccjQ9O0I.s:1479   .text.CoAPMessage_dump:0000000000000004 .LVL149
C:\Users\stapi\AppData\Local\Temp\ccjQ9O0I.s:1505   .text.CoAPMessage_dump:0000000000000014 .LVL151
C:\Users\stapi\AppData\Local\Temp\ccjQ9O0I.s:1518   .text.CoAPMessage_dump:0000000000000026 .LVL153
C:\Users\stapi\AppData\Local\Temp\ccjQ9O0I.s:1486   .text.CoAPMessage_dump:000000000000000e .LVL150
C:\Users\stapi\AppData\Local\Temp\ccjQ9O0I.s:2258   .text.CoAPErrRespMessage_send.isra.0:0000000000000000 .LVL236
C:\Users\stapi\AppData\Local\Temp\ccjQ9O0I.s:2278   .text.CoAPErrRespMessage_send.isra.0:000000000000000e .LVL239
C:\Users\stapi\AppData\Local\Temp\ccjQ9O0I.s:2268   .text.CoAPErrRespMessage_send.isra.0:0000000000000008 .LVL237
C:\Users\stapi\AppData\Local\Temp\ccjQ9O0I.s:2391   .text.CoAPErrRespMessage_send.isra.0:000000000000009a .LVL249
C:\Users\stapi\AppData\Local\Temp\ccjQ9O0I.s:2275   .text.CoAPErrRespMessage_send.isra.0:000000000000000c .LVL238
C:\Users\stapi\AppData\Local\Temp\ccjQ9O0I.s:2320   .text.CoAPErrRespMessage_send.isra.0:0000000000000034 .LVL242
C:\Users\stapi\AppData\Local\Temp\ccjQ9O0I.s:2308   .text.CoAPErrRespMessage_send.isra.0:000000000000002c .LVL241
C:\Users\stapi\AppData\Local\Temp\ccjQ9O0I.s:2341   .text.CoAPErrRespMessage_send.isra.0:0000000000000044 .LVL244
C:\Users\stapi\AppData\Local\Temp\ccjQ9O0I.s:2353   .text.CoAPErrRespMessage_send.isra.0:0000000000000052 .LVL245
C:\Users\stapi\AppData\Local\Temp\ccjQ9O0I.s:2420   .text.CoAPAckMessage_send.isra.0:0000000000000000 .LVL251
C:\Users\stapi\AppData\Local\Temp\ccjQ9O0I.s:2439   .text.CoAPAckMessage_send.isra.0:000000000000000e .LVL254
C:\Users\stapi\AppData\Local\Temp\ccjQ9O0I.s:2428   .text.CoAPAckMessage_send.isra.0:0000000000000008 .LVL252
C:\Users\stapi\AppData\Local\Temp\ccjQ9O0I.s:2436   .text.CoAPAckMessage_send.isra.0:000000000000000c .LVL253
C:\Users\stapi\AppData\Local\Temp\ccjQ9O0I.s:2467   .text.CoAPAckMessage_send.isra.0:000000000000003c .LVL256
C:\Users\stapi\AppData\Local\Temp\ccjQ9O0I.s:2679   .text.CoAPMessage_print_sendlist:0000000000000000 .LVL281
C:\Users\stapi\AppData\Local\Temp\ccjQ9O0I.s:2683   .text.CoAPMessage_print_sendlist:0000000000000002 .LVL282
C:\Users\stapi\AppData\Local\Temp\ccjQ9O0I.s:4511   .debug_info:0000000000000000 .Ldebug_info0
C:\Users\stapi\AppData\Local\Temp\ccjQ9O0I.s:1496   .text.CoAPMessage_dump:000000000000000e .LBE56
C:\Users\stapi\AppData\Local\Temp\ccjQ9O0I.s:1500   .text.CoAPMessage_dump:0000000000000010 .LBB59
C:\Users\stapi\AppData\Local\Temp\ccjQ9O0I.s:1511   .text.CoAPMessage_dump:000000000000001c .LBE59
C:\Users\stapi\AppData\Local\Temp\ccjQ9O0I.s:1817   .text.CoAPMessage_send:00000000000001a4 .LBE67
C:\Users\stapi\AppData\Local\Temp\ccjQ9O0I.s:1820   .text.CoAPMessage_send:00000000000001a4 .LBB87
C:\Users\stapi\AppData\Local\Temp\ccjQ9O0I.s:2023   .text.CoAPMessage_send:0000000000000318 .LBE87
C:\Users\stapi\AppData\Local\Temp\ccjQ9O0I.s:2025   .text.CoAPMessage_send:0000000000000318 .LBB88
C:\Users\stapi\AppData\Local\Temp\ccjQ9O0I.s:2034   .text.CoAPMessage_send:000000000000031c .LBE88
C:\Users\stapi\AppData\Local\Temp\ccjQ9O0I.s:2062   .text.CoAPMessage_send:000000000000035c .LBB89
C:\Users\stapi\AppData\Local\Temp\ccjQ9O0I.s:2102   .text.CoAPMessage_send:00000000000003aa .LBE89
C:\Users\stapi\AppData\Local\Temp\ccjQ9O0I.s:2116   .text.CoAPMessage_send:00000000000003ba .LBB90
C:\Users\stapi\AppData\Local\Temp\ccjQ9O0I.s:2197   .text.CoAPMessage_send:00000000000003fa .LBE90
C:\Users\stapi\AppData\Local\Temp\ccjQ9O0I.s:1884   .text.CoAPMessage_send:000000000000020c .LBB69
C:\Users\stapi\AppData\Local\Temp\ccjQ9O0I.s:2021   .text.CoAPMessage_send:0000000000000318 .LBE69
C:\Users\stapi\AppData\Local\Temp\ccjQ9O0I.s:2027   .text.CoAPMessage_send:0000000000000318 .LBB80
C:\Users\stapi\AppData\Local\Temp\ccjQ9O0I.s:2032   .text.CoAPMessage_send:000000000000031c .LBE80
C:\Users\stapi\AppData\Local\Temp\ccjQ9O0I.s:2095   .text.CoAPMessage_send:00000000000003a2 .LBB81
C:\Users\stapi\AppData\Local\Temp\ccjQ9O0I.s:2100   .text.CoAPMessage_send:00000000000003aa .LBE81
C:\Users\stapi\AppData\Local\Temp\ccjQ9O0I.s:2127   .text.CoAPMessage_send:00000000000003c4 .LBB82
C:\Users\stapi\AppData\Local\Temp\ccjQ9O0I.s:2195   .text.CoAPMessage_send:00000000000003fa .LBE82
C:\Users\stapi\AppData\Local\Temp\ccjQ9O0I.s:2153   .text.CoAPMessage_send:00000000000003e2 .LBE70
C:\Users\stapi\AppData\Local\Temp\ccjQ9O0I.s:2157   .text.CoAPMessage_send:00000000000003e6 .LBB78
C:\Users\stapi\AppData\Local\Temp\ccjQ9O0I.s:2175   .text.CoAPMessage_send:00000000000003ee .LBE78
C:\Users\stapi\AppData\Local\Temp\ccjQ9O0I.s:2178   .text.CoAPMessage_send:00000000000003f0 .LBB79
C:\Users\stapi\AppData\Local\Temp\ccjQ9O0I.s:2188   .text.CoAPMessage_send:00000000000003f4 .LBE79
C:\Users\stapi\AppData\Local\Temp\ccjQ9O0I.s:2173   .text.CoAPMessage_send:00000000000003ee .LBE72
C:\Users\stapi\AppData\Local\Temp\ccjQ9O0I.s:2180   .text.CoAPMessage_send:00000000000003f0 .LBB75
C:\Users\stapi\AppData\Local\Temp\ccjQ9O0I.s:2186   .text.CoAPMessage_send:00000000000003f4 .LBE75
C:\Users\stapi\AppData\Local\Temp\ccjQ9O0I.s:2292   .text.CoAPErrRespMessage_send.isra.0:000000000000001c .LBE91
C:\Users\stapi\AppData\Local\Temp\ccjQ9O0I.s:2315   .text.CoAPErrRespMessage_send.isra.0:0000000000000030 .LBB99
C:\Users\stapi\AppData\Local\Temp\ccjQ9O0I.s:2322   .text.CoAPErrRespMessage_send.isra.0:0000000000000034 .LBE99
C:\Users\stapi\AppData\Local\Temp\ccjQ9O0I.s:2300   .text.CoAPErrRespMessage_send.isra.0:0000000000000022 .LBE94
C:\Users\stapi\AppData\Local\Temp\ccjQ9O0I.s:2309   .text.CoAPErrRespMessage_send.isra.0:000000000000002c .LBB98
C:\Users\stapi\AppData\Local\Temp\ccjQ9O0I.s:2314   .text.CoAPErrRespMessage_send.isra.0:0000000000000030 .LBE98
C:\Users\stapi\AppData\Local\Temp\ccjQ9O0I.s:2324   .text.CoAPErrRespMessage_send.isra.0:0000000000000034 .LBB100
C:\Users\stapi\AppData\Local\Temp\ccjQ9O0I.s:2330   .text.CoAPErrRespMessage_send.isra.0:0000000000000034 .LBE100
C:\Users\stapi\AppData\Local\Temp\ccjQ9O0I.s:2452   .text.CoAPAckMessage_send.isra.0:000000000000001a .LBE103
C:\Users\stapi\AppData\Local\Temp\ccjQ9O0I.s:2462   .text.CoAPAckMessage_send.isra.0:0000000000000038 .LBB106
C:\Users\stapi\AppData\Local\Temp\ccjQ9O0I.s:2469   .text.CoAPAckMessage_send.isra.0:000000000000003c .LBE106
C:\Users\stapi\AppData\Local\Temp\ccjQ9O0I.s:2602   .text.CoAPMessage_cancel:0000000000000068 .LBE109
C:\Users\stapi\AppData\Local\Temp\ccjQ9O0I.s:2605   .text.CoAPMessage_cancel:000000000000006c .LBB112
C:\Users\stapi\AppData\Local\Temp\ccjQ9O0I.s:2614   .text.CoAPMessage_cancel:0000000000000070 .LBE112
C:\Users\stapi\AppData\Local\Temp\ccjQ9O0I.s:2796   .text.CoAPMessageId_cancel:0000000000000066 .LBE117
C:\Users\stapi\AppData\Local\Temp\ccjQ9O0I.s:2800   .text.CoAPMessageId_cancel:000000000000006c .LBB120
C:\Users\stapi\AppData\Local\Temp\ccjQ9O0I.s:2809   .text.CoAPMessageId_cancel:0000000000000070 .LBE120
C:\Users\stapi\AppData\Local\Temp\ccjQ9O0I.s:3012   .text.CoAPMessage_process:000000000000009c .LBE148
C:\Users\stapi\AppData\Local\Temp\ccjQ9O0I.s:3016   .text.CoAPMessage_process:00000000000000a0 .LBB199
C:\Users\stapi\AppData\Local\Temp\ccjQ9O0I.s:3209   .text.CoAPMessage_process:00000000000001b4 .LBE199
C:\Users\stapi\AppData\Local\Temp\ccjQ9O0I.s:3211   .text.CoAPMessage_process:00000000000001b4 .LBB200
C:\Users\stapi\AppData\Local\Temp\ccjQ9O0I.s:3237   .text.CoAPMessage_process:00000000000001ce .LBE200
C:\Users\stapi\AppData\Local\Temp\ccjQ9O0I.s:3264   .text.CoAPMessage_process:00000000000001dc .LBB201
C:\Users\stapi\AppData\Local\Temp\ccjQ9O0I.s:3489   .text.CoAPMessage_process:0000000000000332 .LBE201
C:\Users\stapi\AppData\Local\Temp\ccjQ9O0I.s:3492   .text.CoAPMessage_process:0000000000000332 .LBB202
C:\Users\stapi\AppData\Local\Temp\ccjQ9O0I.s:3519   .text.CoAPMessage_process:000000000000033a .LBE202
C:\Users\stapi\AppData\Local\Temp\ccjQ9O0I.s:3521   .text.CoAPMessage_process:000000000000033a .LBB203
C:\Users\stapi\AppData\Local\Temp\ccjQ9O0I.s:3923   .text.CoAPMessage_process:00000000000005ac .LBE203
C:\Users\stapi\AppData\Local\Temp\ccjQ9O0I.s:3100   .text.CoAPMessage_process:0000000000000124 .LBE150
C:\Users\stapi\AppData\Local\Temp\ccjQ9O0I.s:3114   .text.CoAPMessage_process:0000000000000130 .LBB174
C:\Users\stapi\AppData\Local\Temp\ccjQ9O0I.s:3207   .text.CoAPMessage_process:00000000000001b4 .LBE174
C:\Users\stapi\AppData\Local\Temp\ccjQ9O0I.s:3213   .text.CoAPMessage_process:00000000000001b4 .LBB175
C:\Users\stapi\AppData\Local\Temp\ccjQ9O0I.s:3235   .text.CoAPMessage_process:00000000000001ce .LBE175
C:\Users\stapi\AppData\Local\Temp\ccjQ9O0I.s:3266   .text.CoAPMessage_process:00000000000001dc .LBB176
C:\Users\stapi\AppData\Local\Temp\ccjQ9O0I.s:3278   .text.CoAPMessage_process:00000000000001e6 .LBE176
C:\Users\stapi\AppData\Local\Temp\ccjQ9O0I.s:3120   .text.CoAPMessage_process:0000000000000138 .LBB152
C:\Users\stapi\AppData\Local\Temp\ccjQ9O0I.s:3205   .text.CoAPMessage_process:00000000000001b4 .LBE152
C:\Users\stapi\AppData\Local\Temp\ccjQ9O0I.s:3215   .text.CoAPMessage_process:00000000000001b4 .LBB157
C:\Users\stapi\AppData\Local\Temp\ccjQ9O0I.s:3233   .text.CoAPMessage_process:00000000000001ce .LBE157
C:\Users\stapi\AppData\Local\Temp\ccjQ9O0I.s:3162   .text.CoAPMessage_process:0000000000000168 .LBE153
C:\Users\stapi\AppData\Local\Temp\ccjQ9O0I.s:3165   .text.CoAPMessage_process:000000000000016a .LBB156
C:\Users\stapi\AppData\Local\Temp\ccjQ9O0I.s:3174   .text.CoAPMessage_process:000000000000016e .LBE156
C:\Users\stapi\AppData\Local\Temp\ccjQ9O0I.s:3113   .text.CoAPMessage_process:0000000000000130 .LBE161
C:\Users\stapi\AppData\Local\Temp\ccjQ9O0I.s:3288   .text.CoAPMessage_process:00000000000001f6 .LBB177
C:\Users\stapi\AppData\Local\Temp\ccjQ9O0I.s:3487   .text.CoAPMessage_process:0000000000000332 .LBE177
C:\Users\stapi\AppData\Local\Temp\ccjQ9O0I.s:3494   .text.CoAPMessage_process:0000000000000332 .LBB178
C:\Users\stapi\AppData\Local\Temp\ccjQ9O0I.s:3517   .text.CoAPMessage_process:000000000000033a .LBE178
C:\Users\stapi\AppData\Local\Temp\ccjQ9O0I.s:3523   .text.CoAPMessage_process:000000000000033a .LBB179
C:\Users\stapi\AppData\Local\Temp\ccjQ9O0I.s:3599   .text.CoAPMessage_process:00000000000003b2 .LBE179
C:\Users\stapi\AppData\Local\Temp\ccjQ9O0I.s:3515   .text.CoAPMessage_process:000000000000033a .LBE165
C:\Users\stapi\AppData\Local\Temp\ccjQ9O0I.s:3525   .text.CoAPMessage_process:000000000000033a .LBB170
C:\Users\stapi\AppData\Local\Temp\ccjQ9O0I.s:3537   .text.CoAPMessage_process:0000000000000342 .LBE170
C:\Users\stapi\AppData\Local\Temp\ccjQ9O0I.s:3609   .text.CoAPMessage_process:00000000000003b6 .LBE180
C:\Users\stapi\AppData\Local\Temp\ccjQ9O0I.s:3613   .text.CoAPMessage_process:00000000000003ba .LBB191
C:\Users\stapi\AppData\Local\Temp\ccjQ9O0I.s:3686   .text.CoAPMessage_process:000000000000040e .LBE191
C:\Users\stapi\AppData\Local\Temp\ccjQ9O0I.s:3630   .text.CoAPMessage_process:00000000000003c6 .LBE182
C:\Users\stapi\AppData\Local\Temp\ccjQ9O0I.s:3634   .text.CoAPMessage_process:00000000000003ce .LBB186
C:\Users\stapi\AppData\Local\Temp\ccjQ9O0I.s:3639   .text.CoAPMessage_process:00000000000003d2 .LBE186
C:\Users\stapi\AppData\Local\Temp\ccjQ9O0I.s:3646   .text.CoAPMessage_process:00000000000003e4 .LBB187
C:\Users\stapi\AppData\Local\Temp\ccjQ9O0I.s:3653   .text.CoAPMessage_process:00000000000003e8 .LBE187
C:\Users\stapi\AppData\Local\Temp\ccjQ9O0I.s:3995   .text.CoAPMessage_cycle:000000000000002e .LBE216
C:\Users\stapi\AppData\Local\Temp\ccjQ9O0I.s:4002   .text.CoAPMessage_cycle:0000000000000038 .LBB223
C:\Users\stapi\AppData\Local\Temp\ccjQ9O0I.s:4048   .text.CoAPMessage_cycle:000000000000007e .LBE223
C:\Users\stapi\AppData\Local\Temp\ccjQ9O0I.s:4056   .text.CoAPMessage_cycle:0000000000000086 .LBB240
C:\Users\stapi\AppData\Local\Temp\ccjQ9O0I.s:4062   .text.CoAPMessage_cycle:000000000000008e .LBE240
C:\Users\stapi\AppData\Local\Temp\ccjQ9O0I.s:4104   .text.CoAPMessage_cycle:00000000000000c0 .LBB242
C:\Users\stapi\AppData\Local\Temp\ccjQ9O0I.s:4208   .text.CoAPMessage_cycle:0000000000000182 .LBE242
C:\Users\stapi\AppData\Local\Temp\ccjQ9O0I.s:4055   .text.CoAPMessage_cycle:0000000000000086 .LBE224
C:\Users\stapi\AppData\Local\Temp\ccjQ9O0I.s:4064   .text.CoAPMessage_cycle:000000000000008e .LBB241
C:\Users\stapi\AppData\Local\Temp\ccjQ9O0I.s:4103   .text.CoAPMessage_cycle:00000000000000c0 .LBE241
C:\Users\stapi\AppData\Local\Temp\ccjQ9O0I.s:4209   .text.CoAPMessage_cycle:0000000000000182 .LBB243
C:\Users\stapi\AppData\Local\Temp\ccjQ9O0I.s:4229   .text.CoAPMessage_cycle:000000000000019c .LBE243
C:\Users\stapi\AppData\Local\Temp\ccjQ9O0I.s:4231   .text.CoAPMessage_cycle:000000000000019c .LBB244
C:\Users\stapi\AppData\Local\Temp\ccjQ9O0I.s:4263   .text.CoAPMessage_cycle:00000000000001a8 .LBE244
C:\Users\stapi\AppData\Local\Temp\ccjQ9O0I.s:4265   .text.CoAPMessage_cycle:00000000000001a8 .LBB245
C:\Users\stapi\AppData\Local\Temp\ccjQ9O0I.s:4302   .text.CoAPMessage_cycle:00000000000001de .LBE245
C:\Users\stapi\AppData\Local\Temp\ccjQ9O0I.s:4304   .text.CoAPMessage_cycle:00000000000001de .LBB246
C:\Users\stapi\AppData\Local\Temp\ccjQ9O0I.s:4358   .text.CoAPMessage_cycle:000000000000022a .LBE246
C:\Users\stapi\AppData\Local\Temp\ccjQ9O0I.s:4247   .text.CoAPMessage_cycle:00000000000001a0 .LBE226
C:\Users\stapi\AppData\Local\Temp\ccjQ9O0I.s:4250   .text.CoAPMessage_cycle:00000000000001a4 .LBB233
C:\Users\stapi\AppData\Local\Temp\ccjQ9O0I.s:4261   .text.CoAPMessage_cycle:00000000000001a8 .LBE233
C:\Users\stapi\AppData\Local\Temp\ccjQ9O0I.s:4267   .text.CoAPMessage_cycle:00000000000001a8 .LBB234
C:\Users\stapi\AppData\Local\Temp\ccjQ9O0I.s:4279   .text.CoAPMessage_cycle:00000000000001ac .LBE234
C:\Users\stapi\AppData\Local\Temp\ccjQ9O0I.s:4246   .text.CoAPMessage_cycle:00000000000001a0 .LBE227
C:\Users\stapi\AppData\Local\Temp\ccjQ9O0I.s:4251   .text.CoAPMessage_cycle:00000000000001a4 .LBB230
C:\Users\stapi\AppData\Local\Temp\ccjQ9O0I.s:4260   .text.CoAPMessage_cycle:00000000000001a8 .LBE230

UNDEFINED SYMBOLS
__riscv_save_8
memcpy
__riscv_restore_8
__riscv_save_3
LITE_malloc_internal
__riscv_restore_3
__riscv_save_2
__riscv_restore_2
__riscv_save_0
__riscv_restore_0
HAL_MutexLock
HAL_MutexUnlock
__riscv_save_1
memset
__riscv_restore_1
LITE_free_internal
__riscv_save_4
HAL_UptimeMs
utils_md5
memcmp
LITE_syslog
__riscv_restore_4
__riscv_save_6
__riscv_restore_6
HAL_Snprintf
__riscv_save_10
CoAPSerialize_MessageLength
HAL_Printf
__riscv_restore_10
CoAPSerialize_Message
CoAPNetwork_write
platform_is_multicast
CoAPNetwork_read
HAL_Wifi_Get_IP
strncmp
CoAPDeserialize_Message
CoAPResourceByPath_get
strncpy
__riscv_save_12
coap_yield_mutex
CoapObsServerAll_delete
HAL_SleepMs
__riscv_restore_12
