   1              		.file	"CoAPDeserialize.c"
   2              		.option nopic
   3              		.attribute arch, "rv32i2p0_m2p0_a2p0_f2p0_c2p0_b_p0p94"
   4              		.attribute unaligned_access, 0
   5              		.attribute stack_align, 16
   6              		.text
   7              	.Ltext0:
   8              		.cfi_sections	.debug_frame
   9              		.section	.text.CoAPDeserialize_Header,"ax",@progbits
  10              		.align	1
  11              		.globl	CoAPDeserialize_Header
  13              	CoAPDeserialize_Header:
  14              	.LFB20:
  15              		.file 1 "C:/Users/stapi/OneDrive/Desktop/GD32VW553/V1_MQTT_OK/GD32VW55X_Wifi_BLE_SDK/GD32VW55x_REL
   1:C:/Users/stapi/OneDrive/Desktop/GD32VW553/V1_MQTT_OK/GD32VW55X_Wifi_BLE_SDK/GD32VW55x_RELEASE_V1.0.2/MSDK/cloud/alicloud/src/protocol/coap/local\CoAPDeserialize.c **** /*
   2:C:/Users/stapi/OneDrive/Desktop/GD32VW553/V1_MQTT_OK/GD32VW55X_Wifi_BLE_SDK/GD32VW55x_RELEASE_V1.0.2/MSDK/cloud/alicloud/src/protocol/coap/local\CoAPDeserialize.c ****  * Copyright (C) 2015-2018 Alibaba Group Holding Limited
   3:C:/Users/stapi/OneDrive/Desktop/GD32VW553/V1_MQTT_OK/GD32VW55X_Wifi_BLE_SDK/GD32VW55x_RELEASE_V1.0.2/MSDK/cloud/alicloud/src/protocol/coap/local\CoAPDeserialize.c ****  */
   4:C:/Users/stapi/OneDrive/Desktop/GD32VW553/V1_MQTT_OK/GD32VW55X_Wifi_BLE_SDK/GD32VW55x_RELEASE_V1.0.2/MSDK/cloud/alicloud/src/protocol/coap/local\CoAPDeserialize.c **** 
   5:C:/Users/stapi/OneDrive/Desktop/GD32VW553/V1_MQTT_OK/GD32VW55X_Wifi_BLE_SDK/GD32VW55x_RELEASE_V1.0.2/MSDK/cloud/alicloud/src/protocol/coap/local\CoAPDeserialize.c **** 
   6:C:/Users/stapi/OneDrive/Desktop/GD32VW553/V1_MQTT_OK/GD32VW55X_Wifi_BLE_SDK/GD32VW55x_RELEASE_V1.0.2/MSDK/cloud/alicloud/src/protocol/coap/local\CoAPDeserialize.c **** 
   7:C:/Users/stapi/OneDrive/Desktop/GD32VW553/V1_MQTT_OK/GD32VW55X_Wifi_BLE_SDK/GD32VW55x_RELEASE_V1.0.2/MSDK/cloud/alicloud/src/protocol/coap/local\CoAPDeserialize.c **** 
   8:C:/Users/stapi/OneDrive/Desktop/GD32VW553/V1_MQTT_OK/GD32VW55X_Wifi_BLE_SDK/GD32VW55x_RELEASE_V1.0.2/MSDK/cloud/alicloud/src/protocol/coap/local\CoAPDeserialize.c **** #include <stdio.h>
   9:C:/Users/stapi/OneDrive/Desktop/GD32VW553/V1_MQTT_OK/GD32VW55X_Wifi_BLE_SDK/GD32VW55x_RELEASE_V1.0.2/MSDK/cloud/alicloud/src/protocol/coap/local\CoAPDeserialize.c **** #include <string.h>
  10:C:/Users/stapi/OneDrive/Desktop/GD32VW553/V1_MQTT_OK/GD32VW55X_Wifi_BLE_SDK/GD32VW55x_RELEASE_V1.0.2/MSDK/cloud/alicloud/src/protocol/coap/local\CoAPDeserialize.c **** #include "CoAPExport.h"
  11:C:/Users/stapi/OneDrive/Desktop/GD32VW553/V1_MQTT_OK/GD32VW55X_Wifi_BLE_SDK/GD32VW55x_RELEASE_V1.0.2/MSDK/cloud/alicloud/src/protocol/coap/local\CoAPDeserialize.c **** #include "CoAPPlatform.h"
  12:C:/Users/stapi/OneDrive/Desktop/GD32VW553/V1_MQTT_OK/GD32VW55X_Wifi_BLE_SDK/GD32VW55x_RELEASE_V1.0.2/MSDK/cloud/alicloud/src/protocol/coap/local\CoAPDeserialize.c **** 
  13:C:/Users/stapi/OneDrive/Desktop/GD32VW553/V1_MQTT_OK/GD32VW55X_Wifi_BLE_SDK/GD32VW55x_RELEASE_V1.0.2/MSDK/cloud/alicloud/src/protocol/coap/local\CoAPDeserialize.c **** int CoAPDeserialize_Header(CoAPMessage *msg, unsigned char *buf)
  14:C:/Users/stapi/OneDrive/Desktop/GD32VW553/V1_MQTT_OK/GD32VW55X_Wifi_BLE_SDK/GD32VW55x_RELEASE_V1.0.2/MSDK/cloud/alicloud/src/protocol/coap/local\CoAPDeserialize.c **** {
  16              		.loc 1 14 1
  17              		.cfi_startproc
  18              	.LVL0:
  15:C:/Users/stapi/OneDrive/Desktop/GD32VW553/V1_MQTT_OK/GD32VW55X_Wifi_BLE_SDK/GD32VW55x_RELEASE_V1.0.2/MSDK/cloud/alicloud/src/protocol/coap/local\CoAPDeserialize.c ****     msg->header.version   = ((buf[0] >> 6) & 0x03);
  19              		.loc 1 15 5
  20              		.loc 1 15 44 is_stmt 0
  21 0000 03C70500 		lbu	a4,0(a1)
  22              		.loc 1 15 27
  23 0004 93576700 		srli	a5,a4,6
  24 0008 03470500 		lbu	a4,0(a0)
  25 000c 719B     		andi	a4,a4,-4
  26 000e 5D8F     		or	a4,a4,a5
  27 0010 2300E500 		sb	a4,0(a0)
  16:C:/Users/stapi/OneDrive/Desktop/GD32VW553/V1_MQTT_OK/GD32VW55X_Wifi_BLE_SDK/GD32VW55x_RELEASE_V1.0.2/MSDK/cloud/alicloud/src/protocol/coap/local\CoAPDeserialize.c ****     msg->header.type      = ((buf[0] >> 4) & 0x03);
  28              		.loc 1 16 5 is_stmt 1
  29              		.loc 1 16 44 is_stmt 0
  30 0014 83C70500 		lbu	a5,0(a1)
  31              		.loc 1 16 27
  32 0018 8983     		srli	a5,a5,2
  33 001a 93F6C700 		andi	a3,a5,12
  34 001e 937737FF 		andi	a5,a4,-13
  35 0022 D58F     		or	a5,a5,a3
  36 0024 2300F500 		sb	a5,0(a0)
  17:C:/Users/stapi/OneDrive/Desktop/GD32VW553/V1_MQTT_OK/GD32VW55X_Wifi_BLE_SDK/GD32VW55x_RELEASE_V1.0.2/MSDK/cloud/alicloud/src/protocol/coap/local\CoAPDeserialize.c ****     msg->header.tokenlen  = (buf[0] & 0x0F);
  37              		.loc 1 17 5 is_stmt 1
  38              		.loc 1 17 27 is_stmt 0
  39 0028 03C70500 		lbu	a4,0(a1)
  40 002c BD8B     		andi	a5,a5,15
  41 002e 1207     		slli	a4,a4,4
  42 0030 D98F     		or	a5,a5,a4
  43 0032 2300F500 		sb	a5,0(a0)
  18:C:/Users/stapi/OneDrive/Desktop/GD32VW553/V1_MQTT_OK/GD32VW55X_Wifi_BLE_SDK/GD32VW55x_RELEASE_V1.0.2/MSDK/cloud/alicloud/src/protocol/coap/local\CoAPDeserialize.c ****     msg->header.code      =  buf[1];
  44              		.loc 1 18 5 is_stmt 1
  45              		.loc 1 18 27 is_stmt 0
  46 0036 83C71500 		lbu	a5,1(a1)
  47 003a A300F500 		sb	a5,1(a0)
  19:C:/Users/stapi/OneDrive/Desktop/GD32VW553/V1_MQTT_OK/GD32VW55X_Wifi_BLE_SDK/GD32VW55x_RELEASE_V1.0.2/MSDK/cloud/alicloud/src/protocol/coap/local\CoAPDeserialize.c ****     msg->header.msgid     =  buf[2] << 8;
  48              		.loc 1 19 5 is_stmt 1
  49              		.loc 1 19 37 is_stmt 0
  50 003e 83C72500 		lbu	a5,2(a1)
  51 0042 A207     		slli	a5,a5,8
  52              		.loc 1 19 27
  53 0044 2311F500 		sh	a5,2(a0)
  20:C:/Users/stapi/OneDrive/Desktop/GD32VW553/V1_MQTT_OK/GD32VW55X_Wifi_BLE_SDK/GD32VW55x_RELEASE_V1.0.2/MSDK/cloud/alicloud/src/protocol/coap/local\CoAPDeserialize.c ****     msg->header.msgid    +=  buf[3];
  54              		.loc 1 20 5 is_stmt 1
  55              		.loc 1 20 33 is_stmt 0
  56 0048 03C73500 		lbu	a4,3(a1)
  57              		.loc 1 20 26
  58 004c BA97     		add	a5,a5,a4
  59 004e 2311F500 		sh	a5,2(a0)
  21:C:/Users/stapi/OneDrive/Desktop/GD32VW553/V1_MQTT_OK/GD32VW55X_Wifi_BLE_SDK/GD32VW55x_RELEASE_V1.0.2/MSDK/cloud/alicloud/src/protocol/coap/local\CoAPDeserialize.c **** 
  22:C:/Users/stapi/OneDrive/Desktop/GD32VW553/V1_MQTT_OK/GD32VW55X_Wifi_BLE_SDK/GD32VW55x_RELEASE_V1.0.2/MSDK/cloud/alicloud/src/protocol/coap/local\CoAPDeserialize.c ****     return 4;
  60              		.loc 1 22 5 is_stmt 1
  23:C:/Users/stapi/OneDrive/Desktop/GD32VW553/V1_MQTT_OK/GD32VW55X_Wifi_BLE_SDK/GD32VW55x_RELEASE_V1.0.2/MSDK/cloud/alicloud/src/protocol/coap/local\CoAPDeserialize.c **** }
  61              		.loc 1 23 1 is_stmt 0
  62 0052 1145     		li	a0,4
  63              	.LVL1:
  64 0054 8280     		ret
  65              		.cfi_endproc
  66              	.LFE20:
  68              		.section	.text.CoAPDeserialize_Token,"ax",@progbits
  69              		.align	1
  70              		.globl	CoAPDeserialize_Token
  72              	CoAPDeserialize_Token:
  73              	.LFB21:
  24:C:/Users/stapi/OneDrive/Desktop/GD32VW553/V1_MQTT_OK/GD32VW55X_Wifi_BLE_SDK/GD32VW55x_RELEASE_V1.0.2/MSDK/cloud/alicloud/src/protocol/coap/local\CoAPDeserialize.c **** 
  25:C:/Users/stapi/OneDrive/Desktop/GD32VW553/V1_MQTT_OK/GD32VW55X_Wifi_BLE_SDK/GD32VW55x_RELEASE_V1.0.2/MSDK/cloud/alicloud/src/protocol/coap/local\CoAPDeserialize.c **** int CoAPDeserialize_Token(CoAPMessage *msg, unsigned char *buf)
  26:C:/Users/stapi/OneDrive/Desktop/GD32VW553/V1_MQTT_OK/GD32VW55X_Wifi_BLE_SDK/GD32VW55x_RELEASE_V1.0.2/MSDK/cloud/alicloud/src/protocol/coap/local\CoAPDeserialize.c **** {
  74              		.loc 1 26 1 is_stmt 1
  75              		.cfi_startproc
  76              	.LVL2:
  77 0000 17030000 		call	t0,__riscv_save_1
  77      E7020300 
  78              		.cfi_offset 8, -8
  79              		.cfi_offset 1, -4
  80              		.cfi_def_cfa_offset 16
  27:C:/Users/stapi/OneDrive/Desktop/GD32VW553/V1_MQTT_OK/GD32VW55X_Wifi_BLE_SDK/GD32VW55x_RELEASE_V1.0.2/MSDK/cloud/alicloud/src/protocol/coap/local\CoAPDeserialize.c ****     memcpy(msg->token, buf, msg->header.tokenlen > COAP_MSG_MAX_TOKEN_LEN ? COAP_MSG_MAX_TOKEN_LEN 
  81              		.loc 1 27 5
  82              		.loc 1 27 40 is_stmt 0
  83 0008 0041     		lw	s0,0(a0)
  84              		.loc 1 27 5
  85 000a 2146     		li	a2,8
  86 000c 1105     		addi	a0,a0,4
  87              	.LVL3:
  88              		.loc 1 27 40
  89 000e 1180     		srli	s0,s0,4
  90 0010 3D88     		andi	s0,s0,15
  91              		.loc 1 27 5
  92 0012 3356C40A 		minu	a2,s0,a2
  93 0016 97000000 		call	memcpy
  93      E7800000 
  94              	.LVL4:
  28:C:/Users/stapi/OneDrive/Desktop/GD32VW553/V1_MQTT_OK/GD32VW55X_Wifi_BLE_SDK/GD32VW55x_RELEASE_V1.0.2/MSDK/cloud/alicloud/src/protocol/coap/local\CoAPDeserialize.c ****     return msg->header.tokenlen;
  95              		.loc 1 28 5 is_stmt 1
  29:C:/Users/stapi/OneDrive/Desktop/GD32VW553/V1_MQTT_OK/GD32VW55X_Wifi_BLE_SDK/GD32VW55x_RELEASE_V1.0.2/MSDK/cloud/alicloud/src/protocol/coap/local\CoAPDeserialize.c **** }
  96              		.loc 1 29 1 is_stmt 0
  97 001e 2285     		mv	a0,s0
  98 0020 17030000 		tail	__riscv_restore_1
  98      67000300 
  99              		.cfi_restore 8
 100              		.cfi_restore 1
 101              		.cfi_def_cfa_offset 0
 102              		.cfi_endproc
 103              	.LFE21:
 105              		.section	.rodata.CoAPDeserialize_Options.str1.4,"aMS",@progbits,1
 106              		.align	2
 107              	.LC0:
 108 0000 5B657272 		.string	"[err] "
 108      5D2000
 109 0007 00       		.align	2
 110              	.LC1:
 111 0008 63616E6E 		.string	"cannot advance opt past end"
 111      6F742061 
 111      6476616E 
 111      6365206F 
 111      70742070 
 112              		.align	2
 113              	.LC2:
 114 0024 0D0A00   		.string	"\r\n"
 115              		.section	.text.CoAPDeserialize_Options,"ax",@progbits
 116              		.align	1
 117              		.globl	CoAPDeserialize_Options
 119              	CoAPDeserialize_Options:
 120              	.LFB23:
  30:C:/Users/stapi/OneDrive/Desktop/GD32VW553/V1_MQTT_OK/GD32VW55X_Wifi_BLE_SDK/GD32VW55x_RELEASE_V1.0.2/MSDK/cloud/alicloud/src/protocol/coap/local\CoAPDeserialize.c **** 
  31:C:/Users/stapi/OneDrive/Desktop/GD32VW553/V1_MQTT_OK/GD32VW55X_Wifi_BLE_SDK/GD32VW55x_RELEASE_V1.0.2/MSDK/cloud/alicloud/src/protocol/coap/local\CoAPDeserialize.c **** #define COAP_OPT(o,e,step) if ((e) < step) {           \
  32:C:/Users/stapi/OneDrive/Desktop/GD32VW553/V1_MQTT_OK/GD32VW55X_Wifi_BLE_SDK/GD32VW55x_RELEASE_V1.0.2/MSDK/cloud/alicloud/src/protocol/coap/local\CoAPDeserialize.c ****         COAP_ERR("cannot advance opt past end");           \
  33:C:/Users/stapi/OneDrive/Desktop/GD32VW553/V1_MQTT_OK/GD32VW55X_Wifi_BLE_SDK/GD32VW55x_RELEASE_V1.0.2/MSDK/cloud/alicloud/src/protocol/coap/local\CoAPDeserialize.c ****         return -1;                                         \
  34:C:/Users/stapi/OneDrive/Desktop/GD32VW553/V1_MQTT_OK/GD32VW55X_Wifi_BLE_SDK/GD32VW55x_RELEASE_V1.0.2/MSDK/cloud/alicloud/src/protocol/coap/local\CoAPDeserialize.c ****     } else {                                             \
  35:C:/Users/stapi/OneDrive/Desktop/GD32VW553/V1_MQTT_OK/GD32VW55X_Wifi_BLE_SDK/GD32VW55x_RELEASE_V1.0.2/MSDK/cloud/alicloud/src/protocol/coap/local\CoAPDeserialize.c ****         (e) -= step;                                       \
  36:C:/Users/stapi/OneDrive/Desktop/GD32VW553/V1_MQTT_OK/GD32VW55X_Wifi_BLE_SDK/GD32VW55x_RELEASE_V1.0.2/MSDK/cloud/alicloud/src/protocol/coap/local\CoAPDeserialize.c ****         (o) = ((o)) + step;                                \
  37:C:/Users/stapi/OneDrive/Desktop/GD32VW553/V1_MQTT_OK/GD32VW55X_Wifi_BLE_SDK/GD32VW55x_RELEASE_V1.0.2/MSDK/cloud/alicloud/src/protocol/coap/local\CoAPDeserialize.c ****     }
  38:C:/Users/stapi/OneDrive/Desktop/GD32VW553/V1_MQTT_OK/GD32VW55X_Wifi_BLE_SDK/GD32VW55x_RELEASE_V1.0.2/MSDK/cloud/alicloud/src/protocol/coap/local\CoAPDeserialize.c **** 
  39:C:/Users/stapi/OneDrive/Desktop/GD32VW553/V1_MQTT_OK/GD32VW55X_Wifi_BLE_SDK/GD32VW55x_RELEASE_V1.0.2/MSDK/cloud/alicloud/src/protocol/coap/local\CoAPDeserialize.c **** /*
  40:C:/Users/stapi/OneDrive/Desktop/GD32VW553/V1_MQTT_OK/GD32VW55X_Wifi_BLE_SDK/GD32VW55x_RELEASE_V1.0.2/MSDK/cloud/alicloud/src/protocol/coap/local\CoAPDeserialize.c ****  * Used to prevent access to *option when pointing to after end of buffer
  41:C:/Users/stapi/OneDrive/Desktop/GD32VW553/V1_MQTT_OK/GD32VW55X_Wifi_BLE_SDK/GD32VW55x_RELEASE_V1.0.2/MSDK/cloud/alicloud/src/protocol/coap/local\CoAPDeserialize.c ****  * after doing a COAP_OPT()
  42:C:/Users/stapi/OneDrive/Desktop/GD32VW553/V1_MQTT_OK/GD32VW55X_Wifi_BLE_SDK/GD32VW55x_RELEASE_V1.0.2/MSDK/cloud/alicloud/src/protocol/coap/local\CoAPDeserialize.c ****  */
  43:C:/Users/stapi/OneDrive/Desktop/GD32VW553/V1_MQTT_OK/GD32VW55X_Wifi_BLE_SDK/GD32VW55x_RELEASE_V1.0.2/MSDK/cloud/alicloud/src/protocol/coap/local\CoAPDeserialize.c **** #define COAP_OPT_CHECK(o,e,step) do {                  \
  44:C:/Users/stapi/OneDrive/Desktop/GD32VW553/V1_MQTT_OK/GD32VW55X_Wifi_BLE_SDK/GD32VW55x_RELEASE_V1.0.2/MSDK/cloud/alicloud/src/protocol/coap/local\CoAPDeserialize.c ****         COAP_OPT(o,e,step);                                \
  45:C:/Users/stapi/OneDrive/Desktop/GD32VW553/V1_MQTT_OK/GD32VW55X_Wifi_BLE_SDK/GD32VW55x_RELEASE_V1.0.2/MSDK/cloud/alicloud/src/protocol/coap/local\CoAPDeserialize.c ****         if ((e) < 1)                                       \
  46:C:/Users/stapi/OneDrive/Desktop/GD32VW553/V1_MQTT_OK/GD32VW55X_Wifi_BLE_SDK/GD32VW55x_RELEASE_V1.0.2/MSDK/cloud/alicloud/src/protocol/coap/local\CoAPDeserialize.c ****             return -1;                                       \
  47:C:/Users/stapi/OneDrive/Desktop/GD32VW553/V1_MQTT_OK/GD32VW55X_Wifi_BLE_SDK/GD32VW55x_RELEASE_V1.0.2/MSDK/cloud/alicloud/src/protocol/coap/local\CoAPDeserialize.c ****     } while (0)
  48:C:/Users/stapi/OneDrive/Desktop/GD32VW553/V1_MQTT_OK/GD32VW55X_Wifi_BLE_SDK/GD32VW55x_RELEASE_V1.0.2/MSDK/cloud/alicloud/src/protocol/coap/local\CoAPDeserialize.c **** 
  49:C:/Users/stapi/OneDrive/Desktop/GD32VW553/V1_MQTT_OK/GD32VW55X_Wifi_BLE_SDK/GD32VW55x_RELEASE_V1.0.2/MSDK/cloud/alicloud/src/protocol/coap/local\CoAPDeserialize.c **** static int CoAPDeserialize_Option(CoAPMsgOption *option, unsigned char *buf, int left, unsigned sho
  50:C:/Users/stapi/OneDrive/Desktop/GD32VW553/V1_MQTT_OK/GD32VW55X_Wifi_BLE_SDK/GD32VW55x_RELEASE_V1.0.2/MSDK/cloud/alicloud/src/protocol/coap/local\CoAPDeserialize.c **** {
  51:C:/Users/stapi/OneDrive/Desktop/GD32VW553/V1_MQTT_OK/GD32VW55X_Wifi_BLE_SDK/GD32VW55x_RELEASE_V1.0.2/MSDK/cloud/alicloud/src/protocol/coap/local\CoAPDeserialize.c ****     unsigned char  *ptr      = buf;
  52:C:/Users/stapi/OneDrive/Desktop/GD32VW553/V1_MQTT_OK/GD32VW55X_Wifi_BLE_SDK/GD32VW55x_RELEASE_V1.0.2/MSDK/cloud/alicloud/src/protocol/coap/local\CoAPDeserialize.c ****     unsigned short optdelta  = 0;
  53:C:/Users/stapi/OneDrive/Desktop/GD32VW553/V1_MQTT_OK/GD32VW55X_Wifi_BLE_SDK/GD32VW55x_RELEASE_V1.0.2/MSDK/cloud/alicloud/src/protocol/coap/local\CoAPDeserialize.c ****     unsigned short optlen    = 0;
  54:C:/Users/stapi/OneDrive/Desktop/GD32VW553/V1_MQTT_OK/GD32VW55X_Wifi_BLE_SDK/GD32VW55x_RELEASE_V1.0.2/MSDK/cloud/alicloud/src/protocol/coap/local\CoAPDeserialize.c ****     unsigned short predelta  = 0;
  55:C:/Users/stapi/OneDrive/Desktop/GD32VW553/V1_MQTT_OK/GD32VW55X_Wifi_BLE_SDK/GD32VW55x_RELEASE_V1.0.2/MSDK/cloud/alicloud/src/protocol/coap/local\CoAPDeserialize.c **** 
  56:C:/Users/stapi/OneDrive/Desktop/GD32VW553/V1_MQTT_OK/GD32VW55X_Wifi_BLE_SDK/GD32VW55x_RELEASE_V1.0.2/MSDK/cloud/alicloud/src/protocol/coap/local\CoAPDeserialize.c ****     optdelta  = (*ptr & 0xF0) >> 4;
  57:C:/Users/stapi/OneDrive/Desktop/GD32VW553/V1_MQTT_OK/GD32VW55X_Wifi_BLE_SDK/GD32VW55x_RELEASE_V1.0.2/MSDK/cloud/alicloud/src/protocol/coap/local\CoAPDeserialize.c ****     optlen    = (*ptr & 0x0F);
  58:C:/Users/stapi/OneDrive/Desktop/GD32VW553/V1_MQTT_OK/GD32VW55X_Wifi_BLE_SDK/GD32VW55x_RELEASE_V1.0.2/MSDK/cloud/alicloud/src/protocol/coap/local\CoAPDeserialize.c ****     COAP_OPT_CHECK(ptr, left, 1);
  59:C:/Users/stapi/OneDrive/Desktop/GD32VW553/V1_MQTT_OK/GD32VW55X_Wifi_BLE_SDK/GD32VW55x_RELEASE_V1.0.2/MSDK/cloud/alicloud/src/protocol/coap/local\CoAPDeserialize.c ****     predelta = *predeltas;
  60:C:/Users/stapi/OneDrive/Desktop/GD32VW553/V1_MQTT_OK/GD32VW55X_Wifi_BLE_SDK/GD32VW55x_RELEASE_V1.0.2/MSDK/cloud/alicloud/src/protocol/coap/local\CoAPDeserialize.c ****     if (13 == optdelta) {
  61:C:/Users/stapi/OneDrive/Desktop/GD32VW553/V1_MQTT_OK/GD32VW55X_Wifi_BLE_SDK/GD32VW55x_RELEASE_V1.0.2/MSDK/cloud/alicloud/src/protocol/coap/local\CoAPDeserialize.c ****         predelta += 13 + *ptr;
  62:C:/Users/stapi/OneDrive/Desktop/GD32VW553/V1_MQTT_OK/GD32VW55X_Wifi_BLE_SDK/GD32VW55x_RELEASE_V1.0.2/MSDK/cloud/alicloud/src/protocol/coap/local\CoAPDeserialize.c ****         COAP_OPT_CHECK(ptr, left, 1);
  63:C:/Users/stapi/OneDrive/Desktop/GD32VW553/V1_MQTT_OK/GD32VW55X_Wifi_BLE_SDK/GD32VW55x_RELEASE_V1.0.2/MSDK/cloud/alicloud/src/protocol/coap/local\CoAPDeserialize.c **** 
  64:C:/Users/stapi/OneDrive/Desktop/GD32VW553/V1_MQTT_OK/GD32VW55X_Wifi_BLE_SDK/GD32VW55x_RELEASE_V1.0.2/MSDK/cloud/alicloud/src/protocol/coap/local\CoAPDeserialize.c ****     } else if (14 == optdelta) {
  65:C:/Users/stapi/OneDrive/Desktop/GD32VW553/V1_MQTT_OK/GD32VW55X_Wifi_BLE_SDK/GD32VW55x_RELEASE_V1.0.2/MSDK/cloud/alicloud/src/protocol/coap/local\CoAPDeserialize.c ****         predelta += 269;
  66:C:/Users/stapi/OneDrive/Desktop/GD32VW553/V1_MQTT_OK/GD32VW55X_Wifi_BLE_SDK/GD32VW55x_RELEASE_V1.0.2/MSDK/cloud/alicloud/src/protocol/coap/local\CoAPDeserialize.c ****         predelta += (*ptr << 8);
  67:C:/Users/stapi/OneDrive/Desktop/GD32VW553/V1_MQTT_OK/GD32VW55X_Wifi_BLE_SDK/GD32VW55x_RELEASE_V1.0.2/MSDK/cloud/alicloud/src/protocol/coap/local\CoAPDeserialize.c ****         predelta +=  *(ptr + 1);
  68:C:/Users/stapi/OneDrive/Desktop/GD32VW553/V1_MQTT_OK/GD32VW55X_Wifi_BLE_SDK/GD32VW55x_RELEASE_V1.0.2/MSDK/cloud/alicloud/src/protocol/coap/local\CoAPDeserialize.c ****         COAP_OPT_CHECK(ptr, left, 2);
  69:C:/Users/stapi/OneDrive/Desktop/GD32VW553/V1_MQTT_OK/GD32VW55X_Wifi_BLE_SDK/GD32VW55x_RELEASE_V1.0.2/MSDK/cloud/alicloud/src/protocol/coap/local\CoAPDeserialize.c ****     } else {
  70:C:/Users/stapi/OneDrive/Desktop/GD32VW553/V1_MQTT_OK/GD32VW55X_Wifi_BLE_SDK/GD32VW55x_RELEASE_V1.0.2/MSDK/cloud/alicloud/src/protocol/coap/local\CoAPDeserialize.c ****         predelta += optdelta;
  71:C:/Users/stapi/OneDrive/Desktop/GD32VW553/V1_MQTT_OK/GD32VW55X_Wifi_BLE_SDK/GD32VW55x_RELEASE_V1.0.2/MSDK/cloud/alicloud/src/protocol/coap/local\CoAPDeserialize.c ****     }
  72:C:/Users/stapi/OneDrive/Desktop/GD32VW553/V1_MQTT_OK/GD32VW55X_Wifi_BLE_SDK/GD32VW55x_RELEASE_V1.0.2/MSDK/cloud/alicloud/src/protocol/coap/local\CoAPDeserialize.c ****     option->num = predelta;
  73:C:/Users/stapi/OneDrive/Desktop/GD32VW553/V1_MQTT_OK/GD32VW55X_Wifi_BLE_SDK/GD32VW55x_RELEASE_V1.0.2/MSDK/cloud/alicloud/src/protocol/coap/local\CoAPDeserialize.c **** 
  74:C:/Users/stapi/OneDrive/Desktop/GD32VW553/V1_MQTT_OK/GD32VW55X_Wifi_BLE_SDK/GD32VW55x_RELEASE_V1.0.2/MSDK/cloud/alicloud/src/protocol/coap/local\CoAPDeserialize.c ****     if (13 == optlen) {
  75:C:/Users/stapi/OneDrive/Desktop/GD32VW553/V1_MQTT_OK/GD32VW55X_Wifi_BLE_SDK/GD32VW55x_RELEASE_V1.0.2/MSDK/cloud/alicloud/src/protocol/coap/local\CoAPDeserialize.c ****         optlen = 13 + *ptr;
  76:C:/Users/stapi/OneDrive/Desktop/GD32VW553/V1_MQTT_OK/GD32VW55X_Wifi_BLE_SDK/GD32VW55x_RELEASE_V1.0.2/MSDK/cloud/alicloud/src/protocol/coap/local\CoAPDeserialize.c ****         COAP_OPT_CHECK(ptr, left, 1);
  77:C:/Users/stapi/OneDrive/Desktop/GD32VW553/V1_MQTT_OK/GD32VW55X_Wifi_BLE_SDK/GD32VW55x_RELEASE_V1.0.2/MSDK/cloud/alicloud/src/protocol/coap/local\CoAPDeserialize.c ****     } else if (14 == optlen) {
  78:C:/Users/stapi/OneDrive/Desktop/GD32VW553/V1_MQTT_OK/GD32VW55X_Wifi_BLE_SDK/GD32VW55x_RELEASE_V1.0.2/MSDK/cloud/alicloud/src/protocol/coap/local\CoAPDeserialize.c ****         optlen = (*ptr << 8) + (*(ptr + 1));
  79:C:/Users/stapi/OneDrive/Desktop/GD32VW553/V1_MQTT_OK/GD32VW55X_Wifi_BLE_SDK/GD32VW55x_RELEASE_V1.0.2/MSDK/cloud/alicloud/src/protocol/coap/local\CoAPDeserialize.c ****         if (optlen + 269 < 269) {
  80:C:/Users/stapi/OneDrive/Desktop/GD32VW553/V1_MQTT_OK/GD32VW55X_Wifi_BLE_SDK/GD32VW55x_RELEASE_V1.0.2/MSDK/cloud/alicloud/src/protocol/coap/local\CoAPDeserialize.c ****             return -1;
  81:C:/Users/stapi/OneDrive/Desktop/GD32VW553/V1_MQTT_OK/GD32VW55X_Wifi_BLE_SDK/GD32VW55x_RELEASE_V1.0.2/MSDK/cloud/alicloud/src/protocol/coap/local\CoAPDeserialize.c ****         }
  82:C:/Users/stapi/OneDrive/Desktop/GD32VW553/V1_MQTT_OK/GD32VW55X_Wifi_BLE_SDK/GD32VW55x_RELEASE_V1.0.2/MSDK/cloud/alicloud/src/protocol/coap/local\CoAPDeserialize.c ****         optlen += 269;
  83:C:/Users/stapi/OneDrive/Desktop/GD32VW553/V1_MQTT_OK/GD32VW55X_Wifi_BLE_SDK/GD32VW55x_RELEASE_V1.0.2/MSDK/cloud/alicloud/src/protocol/coap/local\CoAPDeserialize.c ****         COAP_OPT_CHECK(ptr, left, 2);
  84:C:/Users/stapi/OneDrive/Desktop/GD32VW553/V1_MQTT_OK/GD32VW55X_Wifi_BLE_SDK/GD32VW55x_RELEASE_V1.0.2/MSDK/cloud/alicloud/src/protocol/coap/local\CoAPDeserialize.c **** 
  85:C:/Users/stapi/OneDrive/Desktop/GD32VW553/V1_MQTT_OK/GD32VW55X_Wifi_BLE_SDK/GD32VW55x_RELEASE_V1.0.2/MSDK/cloud/alicloud/src/protocol/coap/local\CoAPDeserialize.c ****     }
  86:C:/Users/stapi/OneDrive/Desktop/GD32VW553/V1_MQTT_OK/GD32VW55X_Wifi_BLE_SDK/GD32VW55x_RELEASE_V1.0.2/MSDK/cloud/alicloud/src/protocol/coap/local\CoAPDeserialize.c ****     option->len = optlen;
  87:C:/Users/stapi/OneDrive/Desktop/GD32VW553/V1_MQTT_OK/GD32VW55X_Wifi_BLE_SDK/GD32VW55x_RELEASE_V1.0.2/MSDK/cloud/alicloud/src/protocol/coap/local\CoAPDeserialize.c **** 
  88:C:/Users/stapi/OneDrive/Desktop/GD32VW553/V1_MQTT_OK/GD32VW55X_Wifi_BLE_SDK/GD32VW55x_RELEASE_V1.0.2/MSDK/cloud/alicloud/src/protocol/coap/local\CoAPDeserialize.c ****     option->val = ptr;
  89:C:/Users/stapi/OneDrive/Desktop/GD32VW553/V1_MQTT_OK/GD32VW55X_Wifi_BLE_SDK/GD32VW55x_RELEASE_V1.0.2/MSDK/cloud/alicloud/src/protocol/coap/local\CoAPDeserialize.c ****     *predeltas = option->num;
  90:C:/Users/stapi/OneDrive/Desktop/GD32VW553/V1_MQTT_OK/GD32VW55X_Wifi_BLE_SDK/GD32VW55x_RELEASE_V1.0.2/MSDK/cloud/alicloud/src/protocol/coap/local\CoAPDeserialize.c **** 
  91:C:/Users/stapi/OneDrive/Desktop/GD32VW553/V1_MQTT_OK/GD32VW55X_Wifi_BLE_SDK/GD32VW55x_RELEASE_V1.0.2/MSDK/cloud/alicloud/src/protocol/coap/local\CoAPDeserialize.c ****     return (ptr - buf + option->len);
  92:C:/Users/stapi/OneDrive/Desktop/GD32VW553/V1_MQTT_OK/GD32VW55X_Wifi_BLE_SDK/GD32VW55x_RELEASE_V1.0.2/MSDK/cloud/alicloud/src/protocol/coap/local\CoAPDeserialize.c **** }
  93:C:/Users/stapi/OneDrive/Desktop/GD32VW553/V1_MQTT_OK/GD32VW55X_Wifi_BLE_SDK/GD32VW55x_RELEASE_V1.0.2/MSDK/cloud/alicloud/src/protocol/coap/local\CoAPDeserialize.c **** 
  94:C:/Users/stapi/OneDrive/Desktop/GD32VW553/V1_MQTT_OK/GD32VW55X_Wifi_BLE_SDK/GD32VW55x_RELEASE_V1.0.2/MSDK/cloud/alicloud/src/protocol/coap/local\CoAPDeserialize.c **** int CoAPDeserialize_Options(CoAPMessage *msg, unsigned char *buf, int buflen)
  95:C:/Users/stapi/OneDrive/Desktop/GD32VW553/V1_MQTT_OK/GD32VW55X_Wifi_BLE_SDK/GD32VW55x_RELEASE_V1.0.2/MSDK/cloud/alicloud/src/protocol/coap/local\CoAPDeserialize.c **** {
 121              		.loc 1 95 1 is_stmt 1
 122              		.cfi_startproc
 123              	.LVL5:
 124 0000 17030000 		call	t0,__riscv_save_2
 124      E7020300 
 125              		.cfi_offset 9, -12
 126              		.cfi_offset 8, -8
 127              		.cfi_offset 1, -4
 128              		.cfi_def_cfa_offset 16
  96:C:/Users/stapi/OneDrive/Desktop/GD32VW553/V1_MQTT_OK/GD32VW55X_Wifi_BLE_SDK/GD32VW55x_RELEASE_V1.0.2/MSDK/cloud/alicloud/src/protocol/coap/local\CoAPDeserialize.c ****     int  index = 0;
 129              		.loc 1 96 5
 130              	.LVL6:
  97:C:/Users/stapi/OneDrive/Desktop/GD32VW553/V1_MQTT_OK/GD32VW55X_Wifi_BLE_SDK/GD32VW55x_RELEASE_V1.0.2/MSDK/cloud/alicloud/src/protocol/coap/local\CoAPDeserialize.c ****     unsigned char  *ptr      = buf;
 131              		.loc 1 97 5
  98:C:/Users/stapi/OneDrive/Desktop/GD32VW553/V1_MQTT_OK/GD32VW55X_Wifi_BLE_SDK/GD32VW55x_RELEASE_V1.0.2/MSDK/cloud/alicloud/src/protocol/coap/local\CoAPDeserialize.c ****     int            len       = 0;
 132              		.loc 1 98 5
  99:C:/Users/stapi/OneDrive/Desktop/GD32VW553/V1_MQTT_OK/GD32VW55X_Wifi_BLE_SDK/GD32VW55x_RELEASE_V1.0.2/MSDK/cloud/alicloud/src/protocol/coap/local\CoAPDeserialize.c ****     int            left      = buflen;
 133              		.loc 1 99 5
 100:C:/Users/stapi/OneDrive/Desktop/GD32VW553/V1_MQTT_OK/GD32VW55X_Wifi_BLE_SDK/GD32VW55x_RELEASE_V1.0.2/MSDK/cloud/alicloud/src/protocol/coap/local\CoAPDeserialize.c ****     unsigned short optdeltas = 0;
 134              		.loc 1 100 5
 101:C:/Users/stapi/OneDrive/Desktop/GD32VW553/V1_MQTT_OK/GD32VW55X_Wifi_BLE_SDK/GD32VW55x_RELEASE_V1.0.2/MSDK/cloud/alicloud/src/protocol/coap/local\CoAPDeserialize.c **** 
 102:C:/Users/stapi/OneDrive/Desktop/GD32VW553/V1_MQTT_OK/GD32VW55X_Wifi_BLE_SDK/GD32VW55x_RELEASE_V1.0.2/MSDK/cloud/alicloud/src/protocol/coap/local\CoAPDeserialize.c ****     msg->optcount = 0;
 135              		.loc 1 102 5
  95:C:/Users/stapi/OneDrive/Desktop/GD32VW553/V1_MQTT_OK/GD32VW55X_Wifi_BLE_SDK/GD32VW55x_RELEASE_V1.0.2/MSDK/cloud/alicloud/src/protocol/coap/local\CoAPDeserialize.c ****     int  index = 0;
 136              		.loc 1 95 1 is_stmt 0
 137 0008 2A8E     		mv	t3,a0
 138              		.loc 1 102 19
 139 000a 23060506 		sb	zero,108(a0)
 103:C:/Users/stapi/OneDrive/Desktop/GD32VW553/V1_MQTT_OK/GD32VW55X_Wifi_BLE_SDK/GD32VW55x_RELEASE_V1.0.2/MSDK/cloud/alicloud/src/protocol/coap/local\CoAPDeserialize.c ****     while (left > 0 && (0xFF != *ptr) && index < COAP_MSG_MAX_OPTION_NUM) {
 140              		.loc 1 103 5 is_stmt 1
 141 000e 930EC500 		addi	t4,a0,12
 142 0012 9303C506 		addi	t2,a0,108
  97:C:/Users/stapi/OneDrive/Desktop/GD32VW553/V1_MQTT_OK/GD32VW55X_Wifi_BLE_SDK/GD32VW55x_RELEASE_V1.0.2/MSDK/cloud/alicloud/src/protocol/coap/local\CoAPDeserialize.c ****     int            len       = 0;
 143              		.loc 1 97 21 is_stmt 0
 144 0016 2E83     		mv	t1,a1
 100:C:/Users/stapi/OneDrive/Desktop/GD32VW553/V1_MQTT_OK/GD32VW55X_Wifi_BLE_SDK/GD32VW55x_RELEASE_V1.0.2/MSDK/cloud/alicloud/src/protocol/coap/local\CoAPDeserialize.c **** 
 145              		.loc 1 100 20
 146 0018 0147     		li	a4,0
 147              		.loc 1 103 21
 148 001a 1304F00F 		li	s0,255
 149              	.LBB4:
 150              	.LBB5:
  60:C:/Users/stapi/OneDrive/Desktop/GD32VW553/V1_MQTT_OK/GD32VW55X_Wifi_BLE_SDK/GD32VW55x_RELEASE_V1.0.2/MSDK/cloud/alicloud/src/protocol/coap/local\CoAPDeserialize.c ****         predelta += 13 + *ptr;
 151              		.loc 1 60 8
 152 001e B54F     		li	t6,13
  64:C:/Users/stapi/OneDrive/Desktop/GD32VW553/V1_MQTT_OK/GD32VW55X_Wifi_BLE_SDK/GD32VW55x_RELEASE_V1.0.2/MSDK/cloud/alicloud/src/protocol/coap/local\CoAPDeserialize.c ****         predelta += 269;
 153              		.loc 1 64 15
 154 0020 B942     		li	t0,14
  68:C:/Users/stapi/OneDrive/Desktop/GD32VW553/V1_MQTT_OK/GD32VW55X_Wifi_BLE_SDK/GD32VW55x_RELEASE_V1.0.2/MSDK/cloud/alicloud/src/protocol/coap/local\CoAPDeserialize.c ****     } else {
 155              		.loc 1 68 9
 156 0022 054F     		li	t5,1
  83:C:/Users/stapi/OneDrive/Desktop/GD32VW553/V1_MQTT_OK/GD32VW55X_Wifi_BLE_SDK/GD32VW55x_RELEASE_V1.0.2/MSDK/cloud/alicloud/src/protocol/coap/local\CoAPDeserialize.c **** 
 157              		.loc 1 83 9
 158 0024 8944     		li	s1,2
 159              	.LVL7:
 160              	.L5:
 161              	.LBE5:
 162              	.LBE4:
 163              		.loc 1 103 11 is_stmt 1
 164 0026 6349C00E 		bgt	a2,zero,.L16
 165              	.L17:
 104:C:/Users/stapi/OneDrive/Desktop/GD32VW553/V1_MQTT_OK/GD32VW55X_Wifi_BLE_SDK/GD32VW55x_RELEASE_V1.0.2/MSDK/cloud/alicloud/src/protocol/coap/local\CoAPDeserialize.c ****         len = CoAPDeserialize_Option(&msg->options[index], ptr, left, &optdeltas);
 105:C:/Users/stapi/OneDrive/Desktop/GD32VW553/V1_MQTT_OK/GD32VW55X_Wifi_BLE_SDK/GD32VW55x_RELEASE_V1.0.2/MSDK/cloud/alicloud/src/protocol/coap/local\CoAPDeserialize.c ****         if (len < 0) {
 106:C:/Users/stapi/OneDrive/Desktop/GD32VW553/V1_MQTT_OK/GD32VW55X_Wifi_BLE_SDK/GD32VW55x_RELEASE_V1.0.2/MSDK/cloud/alicloud/src/protocol/coap/local\CoAPDeserialize.c ****             return len;
 107:C:/Users/stapi/OneDrive/Desktop/GD32VW553/V1_MQTT_OK/GD32VW55X_Wifi_BLE_SDK/GD32VW55x_RELEASE_V1.0.2/MSDK/cloud/alicloud/src/protocol/coap/local\CoAPDeserialize.c ****         }
 108:C:/Users/stapi/OneDrive/Desktop/GD32VW553/V1_MQTT_OK/GD32VW55X_Wifi_BLE_SDK/GD32VW55x_RELEASE_V1.0.2/MSDK/cloud/alicloud/src/protocol/coap/local\CoAPDeserialize.c ****         msg->optcount += 1;
 109:C:/Users/stapi/OneDrive/Desktop/GD32VW553/V1_MQTT_OK/GD32VW55X_Wifi_BLE_SDK/GD32VW55x_RELEASE_V1.0.2/MSDK/cloud/alicloud/src/protocol/coap/local\CoAPDeserialize.c ****         ptr += len;
 110:C:/Users/stapi/OneDrive/Desktop/GD32VW553/V1_MQTT_OK/GD32VW55X_Wifi_BLE_SDK/GD32VW55x_RELEASE_V1.0.2/MSDK/cloud/alicloud/src/protocol/coap/local\CoAPDeserialize.c ****         left -= len;
 111:C:/Users/stapi/OneDrive/Desktop/GD32VW553/V1_MQTT_OK/GD32VW55X_Wifi_BLE_SDK/GD32VW55x_RELEASE_V1.0.2/MSDK/cloud/alicloud/src/protocol/coap/local\CoAPDeserialize.c ****         index ++;
 112:C:/Users/stapi/OneDrive/Desktop/GD32VW553/V1_MQTT_OK/GD32VW55X_Wifi_BLE_SDK/GD32VW55x_RELEASE_V1.0.2/MSDK/cloud/alicloud/src/protocol/coap/local\CoAPDeserialize.c ****     }
 113:C:/Users/stapi/OneDrive/Desktop/GD32VW553/V1_MQTT_OK/GD32VW55X_Wifi_BLE_SDK/GD32VW55x_RELEASE_V1.0.2/MSDK/cloud/alicloud/src/protocol/coap/local\CoAPDeserialize.c **** 
 114:C:/Users/stapi/OneDrive/Desktop/GD32VW553/V1_MQTT_OK/GD32VW55X_Wifi_BLE_SDK/GD32VW55x_RELEASE_V1.0.2/MSDK/cloud/alicloud/src/protocol/coap/local\CoAPDeserialize.c ****     return (int)(ptr - buf);
 166              		.loc 1 114 5
 167              		.loc 1 114 12 is_stmt 0
 168 002a 3305B340 		sub	a0,t1,a1
 169 002e 21A2     		j	.L4
 170              	.LVL8:
 171              	.L6:
 172              	.LBB10:
 173              	.LBB6:
  58:C:/Users/stapi/OneDrive/Desktop/GD32VW553/V1_MQTT_OK/GD32VW55X_Wifi_BLE_SDK/GD32VW55x_RELEASE_V1.0.2/MSDK/cloud/alicloud/src/protocol/coap/local\CoAPDeserialize.c ****     predelta = *predeltas;
 174              		.loc 1 58 5 is_stmt 1
  59:C:/Users/stapi/OneDrive/Desktop/GD32VW553/V1_MQTT_OK/GD32VW55X_Wifi_BLE_SDK/GD32VW55x_RELEASE_V1.0.2/MSDK/cloud/alicloud/src/protocol/coap/local\CoAPDeserialize.c ****     if (13 == optdelta) {
 175              		.loc 1 59 5
  60:C:/Users/stapi/OneDrive/Desktop/GD32VW553/V1_MQTT_OK/GD32VW55X_Wifi_BLE_SDK/GD32VW55x_RELEASE_V1.0.2/MSDK/cloud/alicloud/src/protocol/coap/local\CoAPDeserialize.c ****         predelta += 13 + *ptr;
 176              		.loc 1 60 5
  60:C:/Users/stapi/OneDrive/Desktop/GD32VW553/V1_MQTT_OK/GD32VW55X_Wifi_BLE_SDK/GD32VW55x_RELEASE_V1.0.2/MSDK/cloud/alicloud/src/protocol/coap/local\CoAPDeserialize.c ****         predelta += 13 + *ptr;
 177              		.loc 1 60 8 is_stmt 0
 178 0030 631BF505 		bne	a0,t6,.L8
  61:C:/Users/stapi/OneDrive/Desktop/GD32VW553/V1_MQTT_OK/GD32VW55X_Wifi_BLE_SDK/GD32VW55x_RELEASE_V1.0.2/MSDK/cloud/alicloud/src/protocol/coap/local\CoAPDeserialize.c ****         COAP_OPT_CHECK(ptr, left, 1);
 179              		.loc 1 61 9 is_stmt 1
  61:C:/Users/stapi/OneDrive/Desktop/GD32VW553/V1_MQTT_OK/GD32VW55X_Wifi_BLE_SDK/GD32VW55x_RELEASE_V1.0.2/MSDK/cloud/alicloud/src/protocol/coap/local\CoAPDeserialize.c ****         COAP_OPT_CHECK(ptr, left, 1);
 180              		.loc 1 61 26 is_stmt 0
 181 0034 83471300 		lbu	a5,1(t1)
  61:C:/Users/stapi/OneDrive/Desktop/GD32VW553/V1_MQTT_OK/GD32VW55X_Wifi_BLE_SDK/GD32VW55x_RELEASE_V1.0.2/MSDK/cloud/alicloud/src/protocol/coap/local\CoAPDeserialize.c ****         COAP_OPT_CHECK(ptr, left, 1);
 182              		.loc 1 61 18
 183 0038 3507     		addi	a4,a4,13
  62:C:/Users/stapi/OneDrive/Desktop/GD32VW553/V1_MQTT_OK/GD32VW55X_Wifi_BLE_SDK/GD32VW55x_RELEASE_V1.0.2/MSDK/cloud/alicloud/src/protocol/coap/local\CoAPDeserialize.c **** 
 184              		.loc 1 62 9
 185 003a 1308E6FF 		addi	a6,a2,-2
 186              	.LVL9:
  61:C:/Users/stapi/OneDrive/Desktop/GD32VW553/V1_MQTT_OK/GD32VW55X_Wifi_BLE_SDK/GD32VW55x_RELEASE_V1.0.2/MSDK/cloud/alicloud/src/protocol/coap/local\CoAPDeserialize.c ****         COAP_OPT_CHECK(ptr, left, 1);
 187              		.loc 1 61 18
 188 003e 3E97     		add	a4,a4,a5
 189              	.LVL10:
  62:C:/Users/stapi/OneDrive/Desktop/GD32VW553/V1_MQTT_OK/GD32VW55X_Wifi_BLE_SDK/GD32VW55x_RELEASE_V1.0.2/MSDK/cloud/alicloud/src/protocol/coap/local\CoAPDeserialize.c **** 
 190              		.loc 1 62 9
 191 0040 93072300 		addi	a5,t1,2
  61:C:/Users/stapi/OneDrive/Desktop/GD32VW553/V1_MQTT_OK/GD32VW55X_Wifi_BLE_SDK/GD32VW55x_RELEASE_V1.0.2/MSDK/cloud/alicloud/src/protocol/coap/local\CoAPDeserialize.c ****         COAP_OPT_CHECK(ptr, left, 1);
 192              		.loc 1 61 18
 193 0044 33470708 		zext.h	a4,a4
  62:C:/Users/stapi/OneDrive/Desktop/GD32VW553/V1_MQTT_OK/GD32VW55X_Wifi_BLE_SDK/GD32VW55x_RELEASE_V1.0.2/MSDK/cloud/alicloud/src/protocol/coap/local\CoAPDeserialize.c **** 
 194              		.loc 1 62 9 is_stmt 1
  62:C:/Users/stapi/OneDrive/Desktop/GD32VW553/V1_MQTT_OK/GD32VW55X_Wifi_BLE_SDK/GD32VW55x_RELEASE_V1.0.2/MSDK/cloud/alicloud/src/protocol/coap/local\CoAPDeserialize.c **** 
 195              		.loc 1 62 9
  62:C:/Users/stapi/OneDrive/Desktop/GD32VW553/V1_MQTT_OK/GD32VW55X_Wifi_BLE_SDK/GD32VW55x_RELEASE_V1.0.2/MSDK/cloud/alicloud/src/protocol/coap/local\CoAPDeserialize.c **** 
 196              		.loc 1 62 9
 197              	.LVL11:
  62:C:/Users/stapi/OneDrive/Desktop/GD32VW553/V1_MQTT_OK/GD32VW55X_Wifi_BLE_SDK/GD32VW55x_RELEASE_V1.0.2/MSDK/cloud/alicloud/src/protocol/coap/local\CoAPDeserialize.c **** 
 198              		.loc 1 62 9
  62:C:/Users/stapi/OneDrive/Desktop/GD32VW553/V1_MQTT_OK/GD32VW55X_Wifi_BLE_SDK/GD32VW55x_RELEASE_V1.0.2/MSDK/cloud/alicloud/src/protocol/coap/local\CoAPDeserialize.c **** 
 199              		.loc 1 62 9
  62:C:/Users/stapi/OneDrive/Desktop/GD32VW553/V1_MQTT_OK/GD32VW55X_Wifi_BLE_SDK/GD32VW55x_RELEASE_V1.0.2/MSDK/cloud/alicloud/src/protocol/coap/local\CoAPDeserialize.c **** 
 200              		.loc 1 62 9
 201              	.L27:
  68:C:/Users/stapi/OneDrive/Desktop/GD32VW553/V1_MQTT_OK/GD32VW55X_Wifi_BLE_SDK/GD32VW55x_RELEASE_V1.0.2/MSDK/cloud/alicloud/src/protocol/coap/local\CoAPDeserialize.c ****     } else {
 202              		.loc 1 68 9
  68:C:/Users/stapi/OneDrive/Desktop/GD32VW553/V1_MQTT_OK/GD32VW55X_Wifi_BLE_SDK/GD32VW55x_RELEASE_V1.0.2/MSDK/cloud/alicloud/src/protocol/coap/local\CoAPDeserialize.c ****     } else {
 203              		.loc 1 68 9
 204 0048 6306080E 		beq	a6,zero,.L28
 205              	.LVL12:
 206              	.L10:
  72:C:/Users/stapi/OneDrive/Desktop/GD32VW553/V1_MQTT_OK/GD32VW55X_Wifi_BLE_SDK/GD32VW55x_RELEASE_V1.0.2/MSDK/cloud/alicloud/src/protocol/coap/local\CoAPDeserialize.c **** 
 207              		.loc 1 72 5
  72:C:/Users/stapi/OneDrive/Desktop/GD32VW553/V1_MQTT_OK/GD32VW55X_Wifi_BLE_SDK/GD32VW55x_RELEASE_V1.0.2/MSDK/cloud/alicloud/src/protocol/coap/local\CoAPDeserialize.c **** 
 208              		.loc 1 72 17 is_stmt 0
 209 004c 2390EE00 		sh	a4,0(t4)
  74:C:/Users/stapi/OneDrive/Desktop/GD32VW553/V1_MQTT_OK/GD32VW55X_Wifi_BLE_SDK/GD32VW55x_RELEASE_V1.0.2/MSDK/cloud/alicloud/src/protocol/coap/local\CoAPDeserialize.c ****         optlen = 13 + *ptr;
 210              		.loc 1 74 5 is_stmt 1
  74:C:/Users/stapi/OneDrive/Desktop/GD32VW553/V1_MQTT_OK/GD32VW55X_Wifi_BLE_SDK/GD32VW55x_RELEASE_V1.0.2/MSDK/cloud/alicloud/src/protocol/coap/local\CoAPDeserialize.c ****         optlen = 13 + *ptr;
 211              		.loc 1 74 8 is_stmt 0
 212 0050 6390F80B 		bne	a7,t6,.L13
  75:C:/Users/stapi/OneDrive/Desktop/GD32VW553/V1_MQTT_OK/GD32VW55X_Wifi_BLE_SDK/GD32VW55x_RELEASE_V1.0.2/MSDK/cloud/alicloud/src/protocol/coap/local\CoAPDeserialize.c ****         COAP_OPT_CHECK(ptr, left, 1);
 213              		.loc 1 75 9 is_stmt 1
  75:C:/Users/stapi/OneDrive/Desktop/GD32VW553/V1_MQTT_OK/GD32VW55X_Wifi_BLE_SDK/GD32VW55x_RELEASE_V1.0.2/MSDK/cloud/alicloud/src/protocol/coap/local\CoAPDeserialize.c ****         COAP_OPT_CHECK(ptr, left, 1);
 214              		.loc 1 75 16 is_stmt 0
 215 0054 83C60700 		lbu	a3,0(a5)
  76:C:/Users/stapi/OneDrive/Desktop/GD32VW553/V1_MQTT_OK/GD32VW55X_Wifi_BLE_SDK/GD32VW55x_RELEASE_V1.0.2/MSDK/cloud/alicloud/src/protocol/coap/local\CoAPDeserialize.c ****     } else if (14 == optlen) {
 216              		.loc 1 76 9
 217 0058 8507     		addi	a5,a5,1
 218              	.LVL13:
  75:C:/Users/stapi/OneDrive/Desktop/GD32VW553/V1_MQTT_OK/GD32VW55X_Wifi_BLE_SDK/GD32VW55x_RELEASE_V1.0.2/MSDK/cloud/alicloud/src/protocol/coap/local\CoAPDeserialize.c ****         COAP_OPT_CHECK(ptr, left, 1);
 219              		.loc 1 75 16
 220 005a B506     		addi	a3,a3,13
 221              	.LVL14:
  76:C:/Users/stapi/OneDrive/Desktop/GD32VW553/V1_MQTT_OK/GD32VW55X_Wifi_BLE_SDK/GD32VW55x_RELEASE_V1.0.2/MSDK/cloud/alicloud/src/protocol/coap/local\CoAPDeserialize.c ****     } else if (14 == optlen) {
 222              		.loc 1 76 9 is_stmt 1
  76:C:/Users/stapi/OneDrive/Desktop/GD32VW553/V1_MQTT_OK/GD32VW55X_Wifi_BLE_SDK/GD32VW55x_RELEASE_V1.0.2/MSDK/cloud/alicloud/src/protocol/coap/local\CoAPDeserialize.c ****     } else if (14 == optlen) {
 223              		.loc 1 76 9
  76:C:/Users/stapi/OneDrive/Desktop/GD32VW553/V1_MQTT_OK/GD32VW55X_Wifi_BLE_SDK/GD32VW55x_RELEASE_V1.0.2/MSDK/cloud/alicloud/src/protocol/coap/local\CoAPDeserialize.c ****     } else if (14 == optlen) {
 224              		.loc 1 76 9
  76:C:/Users/stapi/OneDrive/Desktop/GD32VW553/V1_MQTT_OK/GD32VW55X_Wifi_BLE_SDK/GD32VW55x_RELEASE_V1.0.2/MSDK/cloud/alicloud/src/protocol/coap/local\CoAPDeserialize.c ****     } else if (14 == optlen) {
 225              		.loc 1 76 9
  76:C:/Users/stapi/OneDrive/Desktop/GD32VW553/V1_MQTT_OK/GD32VW55X_Wifi_BLE_SDK/GD32VW55x_RELEASE_V1.0.2/MSDK/cloud/alicloud/src/protocol/coap/local\CoAPDeserialize.c ****     } else if (14 == optlen) {
 226              		.loc 1 76 9
  76:C:/Users/stapi/OneDrive/Desktop/GD32VW553/V1_MQTT_OK/GD32VW55X_Wifi_BLE_SDK/GD32VW55x_RELEASE_V1.0.2/MSDK/cloud/alicloud/src/protocol/coap/local\CoAPDeserialize.c ****     } else if (14 == optlen) {
 227              		.loc 1 76 9
 228 005c 630CE80D 		beq	a6,t5,.L28
 229              	.LVL15:
 230              	.L14:
  83:C:/Users/stapi/OneDrive/Desktop/GD32VW553/V1_MQTT_OK/GD32VW55X_Wifi_BLE_SDK/GD32VW55x_RELEASE_V1.0.2/MSDK/cloud/alicloud/src/protocol/coap/local\CoAPDeserialize.c **** 
 231              		.loc 1 83 9
  86:C:/Users/stapi/OneDrive/Desktop/GD32VW553/V1_MQTT_OK/GD32VW55X_Wifi_BLE_SDK/GD32VW55x_RELEASE_V1.0.2/MSDK/cloud/alicloud/src/protocol/coap/local\CoAPDeserialize.c **** 
 232              		.loc 1 86 5
  88:C:/Users/stapi/OneDrive/Desktop/GD32VW553/V1_MQTT_OK/GD32VW55X_Wifi_BLE_SDK/GD32VW55x_RELEASE_V1.0.2/MSDK/cloud/alicloud/src/protocol/coap/local\CoAPDeserialize.c ****     *predeltas = option->num;
 233              		.loc 1 88 17 is_stmt 0
 234 0060 23A2FE00 		sw	a5,4(t4)
  91:C:/Users/stapi/OneDrive/Desktop/GD32VW553/V1_MQTT_OK/GD32VW55X_Wifi_BLE_SDK/GD32VW55x_RELEASE_V1.0.2/MSDK/cloud/alicloud/src/protocol/coap/local\CoAPDeserialize.c **** }
 235              		.loc 1 91 17
 236 0064 B3876740 		sub	a5,a5,t1
 237              	.LVL16:
  86:C:/Users/stapi/OneDrive/Desktop/GD32VW553/V1_MQTT_OK/GD32VW55X_Wifi_BLE_SDK/GD32VW55x_RELEASE_V1.0.2/MSDK/cloud/alicloud/src/protocol/coap/local\CoAPDeserialize.c **** 
 238              		.loc 1 86 17
 239 0068 2391DE00 		sh	a3,2(t4)
  88:C:/Users/stapi/OneDrive/Desktop/GD32VW553/V1_MQTT_OK/GD32VW55X_Wifi_BLE_SDK/GD32VW55x_RELEASE_V1.0.2/MSDK/cloud/alicloud/src/protocol/coap/local\CoAPDeserialize.c ****     *predeltas = option->num;
 240              		.loc 1 88 5 is_stmt 1
  89:C:/Users/stapi/OneDrive/Desktop/GD32VW553/V1_MQTT_OK/GD32VW55X_Wifi_BLE_SDK/GD32VW55x_RELEASE_V1.0.2/MSDK/cloud/alicloud/src/protocol/coap/local\CoAPDeserialize.c **** 
 241              		.loc 1 89 5
  91:C:/Users/stapi/OneDrive/Desktop/GD32VW553/V1_MQTT_OK/GD32VW55X_Wifi_BLE_SDK/GD32VW55x_RELEASE_V1.0.2/MSDK/cloud/alicloud/src/protocol/coap/local\CoAPDeserialize.c **** }
 242              		.loc 1 91 5
  91:C:/Users/stapi/OneDrive/Desktop/GD32VW553/V1_MQTT_OK/GD32VW55X_Wifi_BLE_SDK/GD32VW55x_RELEASE_V1.0.2/MSDK/cloud/alicloud/src/protocol/coap/local\CoAPDeserialize.c **** }
 243              		.loc 1 91 23 is_stmt 0
 244 006c 3385D700 		add	a0,a5,a3
 245              	.LVL17:
 246              	.LBE6:
 247              	.LBE10:
 105:C:/Users/stapi/OneDrive/Desktop/GD32VW553/V1_MQTT_OK/GD32VW55X_Wifi_BLE_SDK/GD32VW55x_RELEASE_V1.0.2/MSDK/cloud/alicloud/src/protocol/coap/local\CoAPDeserialize.c ****             return len;
 248              		.loc 1 105 9 is_stmt 1
 105:C:/Users/stapi/OneDrive/Desktop/GD32VW553/V1_MQTT_OK/GD32VW55X_Wifi_BLE_SDK/GD32VW55x_RELEASE_V1.0.2/MSDK/cloud/alicloud/src/protocol/coap/local\CoAPDeserialize.c ****             return len;
 249              		.loc 1 105 12 is_stmt 0
 250 0070 A10E     		addi	t4,t4,8
 251 0072 6342050C 		blt	a0,zero,.L4
 108:C:/Users/stapi/OneDrive/Desktop/GD32VW553/V1_MQTT_OK/GD32VW55X_Wifi_BLE_SDK/GD32VW55x_RELEASE_V1.0.2/MSDK/cloud/alicloud/src/protocol/coap/local\CoAPDeserialize.c ****         ptr += len;
 252              		.loc 1 108 9 is_stmt 1
 108:C:/Users/stapi/OneDrive/Desktop/GD32VW553/V1_MQTT_OK/GD32VW55X_Wifi_BLE_SDK/GD32VW55x_RELEASE_V1.0.2/MSDK/cloud/alicloud/src/protocol/coap/local\CoAPDeserialize.c ****         ptr += len;
 253              		.loc 1 108 23 is_stmt 0
 254 0076 8347CE06 		lbu	a5,108(t3)
 109:C:/Users/stapi/OneDrive/Desktop/GD32VW553/V1_MQTT_OK/GD32VW55X_Wifi_BLE_SDK/GD32VW55x_RELEASE_V1.0.2/MSDK/cloud/alicloud/src/protocol/coap/local\CoAPDeserialize.c ****         left -= len;
 255              		.loc 1 109 13
 256 007a 2A93     		add	t1,t1,a0
 257              	.LVL18:
 110:C:/Users/stapi/OneDrive/Desktop/GD32VW553/V1_MQTT_OK/GD32VW55X_Wifi_BLE_SDK/GD32VW55x_RELEASE_V1.0.2/MSDK/cloud/alicloud/src/protocol/coap/local\CoAPDeserialize.c ****         index ++;
 258              		.loc 1 110 14
 259 007c 098E     		sub	a2,a2,a0
 260              	.LVL19:
 108:C:/Users/stapi/OneDrive/Desktop/GD32VW553/V1_MQTT_OK/GD32VW55X_Wifi_BLE_SDK/GD32VW55x_RELEASE_V1.0.2/MSDK/cloud/alicloud/src/protocol/coap/local\CoAPDeserialize.c ****         ptr += len;
 261              		.loc 1 108 23
 262 007e 8507     		addi	a5,a5,1
 263 0080 2306FE06 		sb	a5,108(t3)
 109:C:/Users/stapi/OneDrive/Desktop/GD32VW553/V1_MQTT_OK/GD32VW55X_Wifi_BLE_SDK/GD32VW55x_RELEASE_V1.0.2/MSDK/cloud/alicloud/src/protocol/coap/local\CoAPDeserialize.c ****         left -= len;
 264              		.loc 1 109 9 is_stmt 1
 265              	.LVL20:
 110:C:/Users/stapi/OneDrive/Desktop/GD32VW553/V1_MQTT_OK/GD32VW55X_Wifi_BLE_SDK/GD32VW55x_RELEASE_V1.0.2/MSDK/cloud/alicloud/src/protocol/coap/local\CoAPDeserialize.c ****         index ++;
 266              		.loc 1 110 9
 111:C:/Users/stapi/OneDrive/Desktop/GD32VW553/V1_MQTT_OK/GD32VW55X_Wifi_BLE_SDK/GD32VW55x_RELEASE_V1.0.2/MSDK/cloud/alicloud/src/protocol/coap/local\CoAPDeserialize.c ****     }
 267              		.loc 1 111 9
 268 0084 4DB7     		j	.L5
 269              	.LVL21:
 270              	.L8:
 271              	.LBB11:
 272              	.LBB7:
  56:C:/Users/stapi/OneDrive/Desktop/GD32VW553/V1_MQTT_OK/GD32VW55X_Wifi_BLE_SDK/GD32VW55x_RELEASE_V1.0.2/MSDK/cloud/alicloud/src/protocol/coap/local\CoAPDeserialize.c ****     optlen    = (*ptr & 0x0F);
 273              		.loc 1 56 15 is_stmt 0
 274 0086 B3460508 		zext.h	a3,a0
  64:C:/Users/stapi/OneDrive/Desktop/GD32VW553/V1_MQTT_OK/GD32VW55X_Wifi_BLE_SDK/GD32VW55x_RELEASE_V1.0.2/MSDK/cloud/alicloud/src/protocol/coap/local\CoAPDeserialize.c ****         predelta += 269;
 275              		.loc 1 64 12 is_stmt 1
  64:C:/Users/stapi/OneDrive/Desktop/GD32VW553/V1_MQTT_OK/GD32VW55X_Wifi_BLE_SDK/GD32VW55x_RELEASE_V1.0.2/MSDK/cloud/alicloud/src/protocol/coap/local\CoAPDeserialize.c ****         predelta += 269;
 276              		.loc 1 64 15 is_stmt 0
 277 008a 631D5504 		bne	a0,t0,.L11
  65:C:/Users/stapi/OneDrive/Desktop/GD32VW553/V1_MQTT_OK/GD32VW55X_Wifi_BLE_SDK/GD32VW55x_RELEASE_V1.0.2/MSDK/cloud/alicloud/src/protocol/coap/local\CoAPDeserialize.c ****         predelta += (*ptr << 8);
 278              		.loc 1 65 9 is_stmt 1
  66:C:/Users/stapi/OneDrive/Desktop/GD32VW553/V1_MQTT_OK/GD32VW55X_Wifi_BLE_SDK/GD32VW55x_RELEASE_V1.0.2/MSDK/cloud/alicloud/src/protocol/coap/local\CoAPDeserialize.c ****         predelta +=  *(ptr + 1);
 279              		.loc 1 66 9
  67:C:/Users/stapi/OneDrive/Desktop/GD32VW553/V1_MQTT_OK/GD32VW55X_Wifi_BLE_SDK/GD32VW55x_RELEASE_V1.0.2/MSDK/cloud/alicloud/src/protocol/coap/local\CoAPDeserialize.c ****         COAP_OPT_CHECK(ptr, left, 2);
 280              		.loc 1 67 9
  67:C:/Users/stapi/OneDrive/Desktop/GD32VW553/V1_MQTT_OK/GD32VW55X_Wifi_BLE_SDK/GD32VW55x_RELEASE_V1.0.2/MSDK/cloud/alicloud/src/protocol/coap/local\CoAPDeserialize.c ****         COAP_OPT_CHECK(ptr, left, 2);
 281              		.loc 1 67 22 is_stmt 0
 282 008e 83472300 		lbu	a5,2(t1)
  65:C:/Users/stapi/OneDrive/Desktop/GD32VW553/V1_MQTT_OK/GD32VW55X_Wifi_BLE_SDK/GD32VW55x_RELEASE_V1.0.2/MSDK/cloud/alicloud/src/protocol/coap/local\CoAPDeserialize.c ****         predelta += (*ptr << 8);
 283              		.loc 1 65 18
 284 0092 1307D710 		addi	a4,a4,269
 285 0096 3E97     		add	a4,a4,a5
  66:C:/Users/stapi/OneDrive/Desktop/GD32VW553/V1_MQTT_OK/GD32VW55X_Wifi_BLE_SDK/GD32VW55x_RELEASE_V1.0.2/MSDK/cloud/alicloud/src/protocol/coap/local\CoAPDeserialize.c ****         predelta +=  *(ptr + 1);
 286              		.loc 1 66 22
 287 0098 83471300 		lbu	a5,1(t1)
  66:C:/Users/stapi/OneDrive/Desktop/GD32VW553/V1_MQTT_OK/GD32VW55X_Wifi_BLE_SDK/GD32VW55x_RELEASE_V1.0.2/MSDK/cloud/alicloud/src/protocol/coap/local\CoAPDeserialize.c ****         predelta +=  *(ptr + 1);
 288              		.loc 1 66 27
 289 009c A207     		slli	a5,a5,8
  67:C:/Users/stapi/OneDrive/Desktop/GD32VW553/V1_MQTT_OK/GD32VW55X_Wifi_BLE_SDK/GD32VW55x_RELEASE_V1.0.2/MSDK/cloud/alicloud/src/protocol/coap/local\CoAPDeserialize.c ****         COAP_OPT_CHECK(ptr, left, 2);
 290              		.loc 1 67 18
 291 009e 3E97     		add	a4,a4,a5
 292 00a0 33470708 		zext.h	a4,a4
  68:C:/Users/stapi/OneDrive/Desktop/GD32VW553/V1_MQTT_OK/GD32VW55X_Wifi_BLE_SDK/GD32VW55x_RELEASE_V1.0.2/MSDK/cloud/alicloud/src/protocol/coap/local\CoAPDeserialize.c ****     } else {
 293              		.loc 1 68 9 is_stmt 1
  68:C:/Users/stapi/OneDrive/Desktop/GD32VW553/V1_MQTT_OK/GD32VW55X_Wifi_BLE_SDK/GD32VW55x_RELEASE_V1.0.2/MSDK/cloud/alicloud/src/protocol/coap/local\CoAPDeserialize.c ****     } else {
 294              		.loc 1 68 9
 295 00a4 631BE803 		bne	a6,t5,.L12
 296              	.LVL22:
 297              	.L15:
  68:C:/Users/stapi/OneDrive/Desktop/GD32VW553/V1_MQTT_OK/GD32VW55X_Wifi_BLE_SDK/GD32VW55x_RELEASE_V1.0.2/MSDK/cloud/alicloud/src/protocol/coap/local\CoAPDeserialize.c ****     } else {
 298              		.loc 1 68 9
  68:C:/Users/stapi/OneDrive/Desktop/GD32VW553/V1_MQTT_OK/GD32VW55X_Wifi_BLE_SDK/GD32VW55x_RELEASE_V1.0.2/MSDK/cloud/alicloud/src/protocol/coap/local\CoAPDeserialize.c ****     } else {
 299              		.loc 1 68 9
 300 00a8 37050000 		lui	a0,%hi(.LC0)
 301 00ac 13050500 		addi	a0,a0,%lo(.LC0)
 302 00b0 97000000 		call	HAL_Printf
 302      E7800000 
 303              	.LVL23:
  68:C:/Users/stapi/OneDrive/Desktop/GD32VW553/V1_MQTT_OK/GD32VW55X_Wifi_BLE_SDK/GD32VW55x_RELEASE_V1.0.2/MSDK/cloud/alicloud/src/protocol/coap/local\CoAPDeserialize.c ****     } else {
 304              		.loc 1 68 9
 305 00b8 37050000 		lui	a0,%hi(.LC1)
 306 00bc 13050500 		addi	a0,a0,%lo(.LC1)
 307 00c0 97000000 		call	HAL_Printf
 307      E7800000 
 308              	.LVL24:
  68:C:/Users/stapi/OneDrive/Desktop/GD32VW553/V1_MQTT_OK/GD32VW55X_Wifi_BLE_SDK/GD32VW55x_RELEASE_V1.0.2/MSDK/cloud/alicloud/src/protocol/coap/local\CoAPDeserialize.c ****     } else {
 309              		.loc 1 68 9
 310 00c8 37050000 		lui	a0,%hi(.LC2)
 311 00cc 13050500 		addi	a0,a0,%lo(.LC2)
 312 00d0 97000000 		call	HAL_Printf
 312      E7800000 
 313              	.LVL25:
 314 00d8 B1A8     		j	.L28
 315              	.LVL26:
 316              	.L12:
  68:C:/Users/stapi/OneDrive/Desktop/GD32VW553/V1_MQTT_OK/GD32VW55X_Wifi_BLE_SDK/GD32VW55x_RELEASE_V1.0.2/MSDK/cloud/alicloud/src/protocol/coap/local\CoAPDeserialize.c ****     } else {
 317              		.loc 1 68 9
 318 00da 1308D6FF 		addi	a6,a2,-3
 319              	.LVL27:
  68:C:/Users/stapi/OneDrive/Desktop/GD32VW553/V1_MQTT_OK/GD32VW55X_Wifi_BLE_SDK/GD32VW55x_RELEASE_V1.0.2/MSDK/cloud/alicloud/src/protocol/coap/local\CoAPDeserialize.c ****     } else {
 320              		.loc 1 68 9
 321 00de 93073300 		addi	a5,t1,3
 322 00e2 9DB7     		j	.L27
 323              	.L11:
  70:C:/Users/stapi/OneDrive/Desktop/GD32VW553/V1_MQTT_OK/GD32VW55X_Wifi_BLE_SDK/GD32VW55x_RELEASE_V1.0.2/MSDK/cloud/alicloud/src/protocol/coap/local\CoAPDeserialize.c ****     }
 324              		.loc 1 70 18 is_stmt 0
 325 00e4 3697     		add	a4,a3,a4
  58:C:/Users/stapi/OneDrive/Desktop/GD32VW553/V1_MQTT_OK/GD32VW55X_Wifi_BLE_SDK/GD32VW55x_RELEASE_V1.0.2/MSDK/cloud/alicloud/src/protocol/coap/local\CoAPDeserialize.c ****     predelta = *predeltas;
 326              		.loc 1 58 5
 327 00e6 93071300 		addi	a5,t1,1
  70:C:/Users/stapi/OneDrive/Desktop/GD32VW553/V1_MQTT_OK/GD32VW55X_Wifi_BLE_SDK/GD32VW55x_RELEASE_V1.0.2/MSDK/cloud/alicloud/src/protocol/coap/local\CoAPDeserialize.c ****     }
 328              		.loc 1 70 9 is_stmt 1
 329              	.LVL28:
  70:C:/Users/stapi/OneDrive/Desktop/GD32VW553/V1_MQTT_OK/GD32VW55X_Wifi_BLE_SDK/GD32VW55x_RELEASE_V1.0.2/MSDK/cloud/alicloud/src/protocol/coap/local\CoAPDeserialize.c ****     }
 330              		.loc 1 70 18 is_stmt 0
 331 00ea 33470708 		zext.h	a4,a4
 332 00ee B9BF     		j	.L10
 333              	.LVL29:
 334              	.L13:
  57:C:/Users/stapi/OneDrive/Desktop/GD32VW553/V1_MQTT_OK/GD32VW55X_Wifi_BLE_SDK/GD32VW55x_RELEASE_V1.0.2/MSDK/cloud/alicloud/src/protocol/coap/local\CoAPDeserialize.c ****     COAP_OPT_CHECK(ptr, left, 1);
 335              		.loc 1 57 15
 336 00f0 B3C60808 		zext.h	a3,a7
  77:C:/Users/stapi/OneDrive/Desktop/GD32VW553/V1_MQTT_OK/GD32VW55X_Wifi_BLE_SDK/GD32VW55x_RELEASE_V1.0.2/MSDK/cloud/alicloud/src/protocol/coap/local\CoAPDeserialize.c ****         optlen = (*ptr << 8) + (*(ptr + 1));
 337              		.loc 1 77 12 is_stmt 1
  77:C:/Users/stapi/OneDrive/Desktop/GD32VW553/V1_MQTT_OK/GD32VW55X_Wifi_BLE_SDK/GD32VW55x_RELEASE_V1.0.2/MSDK/cloud/alicloud/src/protocol/coap/local\CoAPDeserialize.c ****         optlen = (*ptr << 8) + (*(ptr + 1));
 338              		.loc 1 77 15 is_stmt 0
 339 00f4 E39658F6 		bne	a7,t0,.L14
  78:C:/Users/stapi/OneDrive/Desktop/GD32VW553/V1_MQTT_OK/GD32VW55X_Wifi_BLE_SDK/GD32VW55x_RELEASE_V1.0.2/MSDK/cloud/alicloud/src/protocol/coap/local\CoAPDeserialize.c ****         if (optlen + 269 < 269) {
 340              		.loc 1 78 9 is_stmt 1
 341              	.LVL30:
  79:C:/Users/stapi/OneDrive/Desktop/GD32VW553/V1_MQTT_OK/GD32VW55X_Wifi_BLE_SDK/GD32VW55x_RELEASE_V1.0.2/MSDK/cloud/alicloud/src/protocol/coap/local\CoAPDeserialize.c ****             return -1;
 342              		.loc 1 79 9
  82:C:/Users/stapi/OneDrive/Desktop/GD32VW553/V1_MQTT_OK/GD32VW55X_Wifi_BLE_SDK/GD32VW55x_RELEASE_V1.0.2/MSDK/cloud/alicloud/src/protocol/coap/local\CoAPDeserialize.c ****         COAP_OPT_CHECK(ptr, left, 2);
 343              		.loc 1 82 9
  78:C:/Users/stapi/OneDrive/Desktop/GD32VW553/V1_MQTT_OK/GD32VW55X_Wifi_BLE_SDK/GD32VW55x_RELEASE_V1.0.2/MSDK/cloud/alicloud/src/protocol/coap/local\CoAPDeserialize.c ****         if (optlen + 269 < 269) {
 344              		.loc 1 78 19 is_stmt 0
 345 00f8 83C60700 		lbu	a3,0(a5)
  78:C:/Users/stapi/OneDrive/Desktop/GD32VW553/V1_MQTT_OK/GD32VW55X_Wifi_BLE_SDK/GD32VW55x_RELEASE_V1.0.2/MSDK/cloud/alicloud/src/protocol/coap/local\CoAPDeserialize.c ****         if (optlen + 269 < 269) {
 346              		.loc 1 78 33
 347 00fc 03C51700 		lbu	a0,1(a5)
 348              	.LVL31:
  78:C:/Users/stapi/OneDrive/Desktop/GD32VW553/V1_MQTT_OK/GD32VW55X_Wifi_BLE_SDK/GD32VW55x_RELEASE_V1.0.2/MSDK/cloud/alicloud/src/protocol/coap/local\CoAPDeserialize.c ****         if (optlen + 269 < 269) {
 349              		.loc 1 78 24
 350 0100 A206     		slli	a3,a3,8
  82:C:/Users/stapi/OneDrive/Desktop/GD32VW553/V1_MQTT_OK/GD32VW55X_Wifi_BLE_SDK/GD32VW55x_RELEASE_V1.0.2/MSDK/cloud/alicloud/src/protocol/coap/local\CoAPDeserialize.c ****         COAP_OPT_CHECK(ptr, left, 2);
 351              		.loc 1 82 16
 352 0102 1305D510 		addi	a0,a0,269
 353              	.LVL32:
 354 0106 AA96     		add	a3,a3,a0
 355 0108 B3C60608 		zext.h	a3,a3
 356              	.LVL33:
  83:C:/Users/stapi/OneDrive/Desktop/GD32VW553/V1_MQTT_OK/GD32VW55X_Wifi_BLE_SDK/GD32VW55x_RELEASE_V1.0.2/MSDK/cloud/alicloud/src/protocol/coap/local\CoAPDeserialize.c **** 
 357              		.loc 1 83 9 is_stmt 1
  83:C:/Users/stapi/OneDrive/Desktop/GD32VW553/V1_MQTT_OK/GD32VW55X_Wifi_BLE_SDK/GD32VW55x_RELEASE_V1.0.2/MSDK/cloud/alicloud/src/protocol/coap/local\CoAPDeserialize.c **** 
 358              		.loc 1 83 9
 359 010c E30EE8F9 		beq	a6,t5,.L15
  83:C:/Users/stapi/OneDrive/Desktop/GD32VW553/V1_MQTT_OK/GD32VW55X_Wifi_BLE_SDK/GD32VW55x_RELEASE_V1.0.2/MSDK/cloud/alicloud/src/protocol/coap/local\CoAPDeserialize.c **** 
 360              		.loc 1 83 9
 361              	.LVL34:
  83:C:/Users/stapi/OneDrive/Desktop/GD32VW553/V1_MQTT_OK/GD32VW55X_Wifi_BLE_SDK/GD32VW55x_RELEASE_V1.0.2/MSDK/cloud/alicloud/src/protocol/coap/local\CoAPDeserialize.c **** 
 362              		.loc 1 83 9
 363 0110 8907     		addi	a5,a5,2
 364              	.LVL35:
  83:C:/Users/stapi/OneDrive/Desktop/GD32VW553/V1_MQTT_OK/GD32VW55X_Wifi_BLE_SDK/GD32VW55x_RELEASE_V1.0.2/MSDK/cloud/alicloud/src/protocol/coap/local\CoAPDeserialize.c **** 
 365              		.loc 1 83 9
  83:C:/Users/stapi/OneDrive/Desktop/GD32VW553/V1_MQTT_OK/GD32VW55X_Wifi_BLE_SDK/GD32VW55x_RELEASE_V1.0.2/MSDK/cloud/alicloud/src/protocol/coap/local\CoAPDeserialize.c **** 
 366              		.loc 1 83 9
 367 0112 E31798F4 		bne	a6,s1,.L14
 368 0116 39A8     		j	.L28
 369              	.LVL36:
 370              	.L16:
 371              	.LBE7:
 372              	.LBE11:
 103:C:/Users/stapi/OneDrive/Desktop/GD32VW553/V1_MQTT_OK/GD32VW55X_Wifi_BLE_SDK/GD32VW55x_RELEASE_V1.0.2/MSDK/cloud/alicloud/src/protocol/coap/local\CoAPDeserialize.c ****         len = CoAPDeserialize_Option(&msg->options[index], ptr, left, &optdeltas);
 373              		.loc 1 103 33 is_stmt 0 discriminator 1
 374 0118 83470300 		lbu	a5,0(t1)
 103:C:/Users/stapi/OneDrive/Desktop/GD32VW553/V1_MQTT_OK/GD32VW55X_Wifi_BLE_SDK/GD32VW55x_RELEASE_V1.0.2/MSDK/cloud/alicloud/src/protocol/coap/local\CoAPDeserialize.c ****         len = CoAPDeserialize_Option(&msg->options[index], ptr, left, &optdeltas);
 375              		.loc 1 103 21 discriminator 1
 376 011c E38787F0 		beq	a5,s0,.L17
 103:C:/Users/stapi/OneDrive/Desktop/GD32VW553/V1_MQTT_OK/GD32VW55X_Wifi_BLE_SDK/GD32VW55x_RELEASE_V1.0.2/MSDK/cloud/alicloud/src/protocol/coap/local\CoAPDeserialize.c ****         len = CoAPDeserialize_Option(&msg->options[index], ptr, left, &optdeltas);
 377              		.loc 1 103 39 discriminator 2
 378 0120 E3857EF0 		beq	t4,t2,.L17
 104:C:/Users/stapi/OneDrive/Desktop/GD32VW553/V1_MQTT_OK/GD32VW55X_Wifi_BLE_SDK/GD32VW55x_RELEASE_V1.0.2/MSDK/cloud/alicloud/src/protocol/coap/local\CoAPDeserialize.c ****         if (len < 0) {
 379              		.loc 1 104 9 is_stmt 1
 380              	.LVL37:
 381              	.LBB12:
 382              	.LBB8:
  51:C:/Users/stapi/OneDrive/Desktop/GD32VW553/V1_MQTT_OK/GD32VW55X_Wifi_BLE_SDK/GD32VW55x_RELEASE_V1.0.2/MSDK/cloud/alicloud/src/protocol/coap/local\CoAPDeserialize.c ****     unsigned short optdelta  = 0;
 383              		.loc 1 51 5
  52:C:/Users/stapi/OneDrive/Desktop/GD32VW553/V1_MQTT_OK/GD32VW55X_Wifi_BLE_SDK/GD32VW55x_RELEASE_V1.0.2/MSDK/cloud/alicloud/src/protocol/coap/local\CoAPDeserialize.c ****     unsigned short optlen    = 0;
 384              		.loc 1 52 5
  53:C:/Users/stapi/OneDrive/Desktop/GD32VW553/V1_MQTT_OK/GD32VW55X_Wifi_BLE_SDK/GD32VW55x_RELEASE_V1.0.2/MSDK/cloud/alicloud/src/protocol/coap/local\CoAPDeserialize.c ****     unsigned short predelta  = 0;
 385              		.loc 1 53 5
  54:C:/Users/stapi/OneDrive/Desktop/GD32VW553/V1_MQTT_OK/GD32VW55X_Wifi_BLE_SDK/GD32VW55x_RELEASE_V1.0.2/MSDK/cloud/alicloud/src/protocol/coap/local\CoAPDeserialize.c **** 
 386              		.loc 1 54 5
  56:C:/Users/stapi/OneDrive/Desktop/GD32VW553/V1_MQTT_OK/GD32VW55X_Wifi_BLE_SDK/GD32VW55x_RELEASE_V1.0.2/MSDK/cloud/alicloud/src/protocol/coap/local\CoAPDeserialize.c ****     optlen    = (*ptr & 0x0F);
 387              		.loc 1 56 5
  58:C:/Users/stapi/OneDrive/Desktop/GD32VW553/V1_MQTT_OK/GD32VW55X_Wifi_BLE_SDK/GD32VW55x_RELEASE_V1.0.2/MSDK/cloud/alicloud/src/protocol/coap/local\CoAPDeserialize.c ****     predelta = *predeltas;
 388              		.loc 1 58 5 is_stmt 0
 389 0124 1308F6FF 		addi	a6,a2,-1
  56:C:/Users/stapi/OneDrive/Desktop/GD32VW553/V1_MQTT_OK/GD32VW55X_Wifi_BLE_SDK/GD32VW55x_RELEASE_V1.0.2/MSDK/cloud/alicloud/src/protocol/coap/local\CoAPDeserialize.c ****     optlen    = (*ptr & 0x0F);
 390              		.loc 1 56 31
 391 0128 13D54700 		srli	a0,a5,4
 392              	.LVL38:
  57:C:/Users/stapi/OneDrive/Desktop/GD32VW553/V1_MQTT_OK/GD32VW55X_Wifi_BLE_SDK/GD32VW55x_RELEASE_V1.0.2/MSDK/cloud/alicloud/src/protocol/coap/local\CoAPDeserialize.c ****     COAP_OPT_CHECK(ptr, left, 1);
 393              		.loc 1 57 5 is_stmt 1
 394 012c 93F8F700 		andi	a7,a5,15
 395              	.LVL39:
  58:C:/Users/stapi/OneDrive/Desktop/GD32VW553/V1_MQTT_OK/GD32VW55X_Wifi_BLE_SDK/GD32VW55x_RELEASE_V1.0.2/MSDK/cloud/alicloud/src/protocol/coap/local\CoAPDeserialize.c ****     predelta = *predeltas;
 396              		.loc 1 58 5
  58:C:/Users/stapi/OneDrive/Desktop/GD32VW553/V1_MQTT_OK/GD32VW55X_Wifi_BLE_SDK/GD32VW55x_RELEASE_V1.0.2/MSDK/cloud/alicloud/src/protocol/coap/local\CoAPDeserialize.c ****     predelta = *predeltas;
 397              		.loc 1 58 5
  58:C:/Users/stapi/OneDrive/Desktop/GD32VW553/V1_MQTT_OK/GD32VW55X_Wifi_BLE_SDK/GD32VW55x_RELEASE_V1.0.2/MSDK/cloud/alicloud/src/protocol/coap/local\CoAPDeserialize.c ****     predelta = *predeltas;
 398              		.loc 1 58 5
  58:C:/Users/stapi/OneDrive/Desktop/GD32VW553/V1_MQTT_OK/GD32VW55X_Wifi_BLE_SDK/GD32VW55x_RELEASE_V1.0.2/MSDK/cloud/alicloud/src/protocol/coap/local\CoAPDeserialize.c ****     predelta = *predeltas;
 399              		.loc 1 58 5
  58:C:/Users/stapi/OneDrive/Desktop/GD32VW553/V1_MQTT_OK/GD32VW55X_Wifi_BLE_SDK/GD32VW55x_RELEASE_V1.0.2/MSDK/cloud/alicloud/src/protocol/coap/local\CoAPDeserialize.c ****     predelta = *predeltas;
 400              		.loc 1 58 5
  58:C:/Users/stapi/OneDrive/Desktop/GD32VW553/V1_MQTT_OK/GD32VW55X_Wifi_BLE_SDK/GD32VW55x_RELEASE_V1.0.2/MSDK/cloud/alicloud/src/protocol/coap/local\CoAPDeserialize.c ****     predelta = *predeltas;
 401              		.loc 1 58 5
 402 0130 E31008F0 		bne	a6,zero,.L6
 403              	.LVL40:
 404              	.L28:
  68:C:/Users/stapi/OneDrive/Desktop/GD32VW553/V1_MQTT_OK/GD32VW55X_Wifi_BLE_SDK/GD32VW55x_RELEASE_V1.0.2/MSDK/cloud/alicloud/src/protocol/coap/local\CoAPDeserialize.c ****     } else {
 405              		.loc 1 68 9
  68:C:/Users/stapi/OneDrive/Desktop/GD32VW553/V1_MQTT_OK/GD32VW55X_Wifi_BLE_SDK/GD32VW55x_RELEASE_V1.0.2/MSDK/cloud/alicloud/src/protocol/coap/local\CoAPDeserialize.c ****     } else {
 406              		.loc 1 68 9
 407              	.LBE8:
 408              	.LBE12:
 105:C:/Users/stapi/OneDrive/Desktop/GD32VW553/V1_MQTT_OK/GD32VW55X_Wifi_BLE_SDK/GD32VW55x_RELEASE_V1.0.2/MSDK/cloud/alicloud/src/protocol/coap/local\CoAPDeserialize.c ****             return len;
 409              		.loc 1 105 9
 410              	.LBB13:
 411              	.LBB9:
  68:C:/Users/stapi/OneDrive/Desktop/GD32VW553/V1_MQTT_OK/GD32VW55X_Wifi_BLE_SDK/GD32VW55x_RELEASE_V1.0.2/MSDK/cloud/alicloud/src/protocol/coap/local\CoAPDeserialize.c ****     } else {
 412              		.loc 1 68 9 is_stmt 0
 413 0134 7D55     		li	a0,-1
 414              	.LVL41:
 415              	.L4:
 416              	.LBE9:
 417              	.LBE13:
 115:C:/Users/stapi/OneDrive/Desktop/GD32VW553/V1_MQTT_OK/GD32VW55X_Wifi_BLE_SDK/GD32VW55x_RELEASE_V1.0.2/MSDK/cloud/alicloud/src/protocol/coap/local\CoAPDeserialize.c **** }
 418              		.loc 1 115 1
 419 0136 17030000 		tail	__riscv_restore_2
 419      67000300 
 420              		.cfi_restore 9
 421              		.cfi_restore 8
 422              		.cfi_restore 1
 423              		.cfi_def_cfa_offset 0
 424              		.cfi_endproc
 425              	.LFE23:
 427              		.section	.text.CoAPDeserialize_Payload,"ax",@progbits
 428              		.align	1
 429              		.globl	CoAPDeserialize_Payload
 431              	CoAPDeserialize_Payload:
 432              	.LFB24:
 116:C:/Users/stapi/OneDrive/Desktop/GD32VW553/V1_MQTT_OK/GD32VW55X_Wifi_BLE_SDK/GD32VW55x_RELEASE_V1.0.2/MSDK/cloud/alicloud/src/protocol/coap/local\CoAPDeserialize.c **** 
 117:C:/Users/stapi/OneDrive/Desktop/GD32VW553/V1_MQTT_OK/GD32VW55X_Wifi_BLE_SDK/GD32VW55x_RELEASE_V1.0.2/MSDK/cloud/alicloud/src/protocol/coap/local\CoAPDeserialize.c **** int CoAPDeserialize_Payload(CoAPMessage *msg, unsigned char *buf, int buflen)
 118:C:/Users/stapi/OneDrive/Desktop/GD32VW553/V1_MQTT_OK/GD32VW55X_Wifi_BLE_SDK/GD32VW55x_RELEASE_V1.0.2/MSDK/cloud/alicloud/src/protocol/coap/local\CoAPDeserialize.c **** {
 433              		.loc 1 118 1 is_stmt 1
 434              		.cfi_startproc
 435              	.LVL42:
 119:C:/Users/stapi/OneDrive/Desktop/GD32VW553/V1_MQTT_OK/GD32VW55X_Wifi_BLE_SDK/GD32VW55x_RELEASE_V1.0.2/MSDK/cloud/alicloud/src/protocol/coap/local\CoAPDeserialize.c ****     unsigned char *ptr = buf;
 436              		.loc 1 119 5
 120:C:/Users/stapi/OneDrive/Desktop/GD32VW553/V1_MQTT_OK/GD32VW55X_Wifi_BLE_SDK/GD32VW55x_RELEASE_V1.0.2/MSDK/cloud/alicloud/src/protocol/coap/local\CoAPDeserialize.c **** 
 121:C:/Users/stapi/OneDrive/Desktop/GD32VW553/V1_MQTT_OK/GD32VW55X_Wifi_BLE_SDK/GD32VW55x_RELEASE_V1.0.2/MSDK/cloud/alicloud/src/protocol/coap/local\CoAPDeserialize.c ****     if (0xFF == *ptr) {
 437              		.loc 1 121 5
 438              		.loc 1 121 8 is_stmt 0
 439 0000 83C60500 		lbu	a3,0(a1)
 440 0004 1307F00F 		li	a4,255
 118:C:/Users/stapi/OneDrive/Desktop/GD32VW553/V1_MQTT_OK/GD32VW55X_Wifi_BLE_SDK/GD32VW55x_RELEASE_V1.0.2/MSDK/cloud/alicloud/src/protocol/coap/local\CoAPDeserialize.c ****     unsigned char *ptr = buf;
 441              		.loc 1 118 1
 442 0008 AA87     		mv	a5,a0
 443 000a 3285     		mv	a0,a2
 444              	.LVL43:
 445              		.loc 1 121 8
 446 000c 6399E600 		bne	a3,a4,.L31
 122:C:/Users/stapi/OneDrive/Desktop/GD32VW553/V1_MQTT_OK/GD32VW55X_Wifi_BLE_SDK/GD32VW55x_RELEASE_V1.0.2/MSDK/cloud/alicloud/src/protocol/coap/local\CoAPDeserialize.c ****         ptr ++;
 447              		.loc 1 122 9 is_stmt 1
 448              	.LVL44:
 123:C:/Users/stapi/OneDrive/Desktop/GD32VW553/V1_MQTT_OK/GD32VW55X_Wifi_BLE_SDK/GD32VW55x_RELEASE_V1.0.2/MSDK/cloud/alicloud/src/protocol/coap/local\CoAPDeserialize.c ****     } else {
 124:C:/Users/stapi/OneDrive/Desktop/GD32VW553/V1_MQTT_OK/GD32VW55X_Wifi_BLE_SDK/GD32VW55x_RELEASE_V1.0.2/MSDK/cloud/alicloud/src/protocol/coap/local\CoAPDeserialize.c ****         return 0;
 125:C:/Users/stapi/OneDrive/Desktop/GD32VW553/V1_MQTT_OK/GD32VW55X_Wifi_BLE_SDK/GD32VW55x_RELEASE_V1.0.2/MSDK/cloud/alicloud/src/protocol/coap/local\CoAPDeserialize.c ****     }
 126:C:/Users/stapi/OneDrive/Desktop/GD32VW553/V1_MQTT_OK/GD32VW55X_Wifi_BLE_SDK/GD32VW55x_RELEASE_V1.0.2/MSDK/cloud/alicloud/src/protocol/coap/local\CoAPDeserialize.c ****     msg->payloadlen = buflen - 1;
 449              		.loc 1 126 5
 450              		.loc 1 126 30 is_stmt 0
 451 0010 1307F6FF 		addi	a4,a2,-1
 122:C:/Users/stapi/OneDrive/Desktop/GD32VW553/V1_MQTT_OK/GD32VW55X_Wifi_BLE_SDK/GD32VW55x_RELEASE_V1.0.2/MSDK/cloud/alicloud/src/protocol/coap/local\CoAPDeserialize.c ****         ptr ++;
 452              		.loc 1 122 13
 453 0014 8505     		addi	a1,a1,1
 454              	.LVL45:
 455              		.loc 1 126 21
 456 0016 2397E706 		sh	a4,110(a5)
 127:C:/Users/stapi/OneDrive/Desktop/GD32VW553/V1_MQTT_OK/GD32VW55X_Wifi_BLE_SDK/GD32VW55x_RELEASE_V1.0.2/MSDK/cloud/alicloud/src/protocol/coap/local\CoAPDeserialize.c ****     msg->payload = (unsigned char *)ptr;
 457              		.loc 1 127 5 is_stmt 1
 458              		.loc 1 127 18 is_stmt 0
 459 001a ACDB     		sw	a1,112(a5)
 128:C:/Users/stapi/OneDrive/Desktop/GD32VW553/V1_MQTT_OK/GD32VW55X_Wifi_BLE_SDK/GD32VW55x_RELEASE_V1.0.2/MSDK/cloud/alicloud/src/protocol/coap/local\CoAPDeserialize.c **** 
 129:C:/Users/stapi/OneDrive/Desktop/GD32VW553/V1_MQTT_OK/GD32VW55X_Wifi_BLE_SDK/GD32VW55x_RELEASE_V1.0.2/MSDK/cloud/alicloud/src/protocol/coap/local\CoAPDeserialize.c ****     return buflen;
 460              		.loc 1 129 5 is_stmt 1
 461              		.loc 1 129 12 is_stmt 0
 462 001c 8280     		ret
 463              	.LVL46:
 464              	.L31:
 124:C:/Users/stapi/OneDrive/Desktop/GD32VW553/V1_MQTT_OK/GD32VW55X_Wifi_BLE_SDK/GD32VW55x_RELEASE_V1.0.2/MSDK/cloud/alicloud/src/protocol/coap/local\CoAPDeserialize.c ****     }
 465              		.loc 1 124 16
 466 001e 0145     		li	a0,0
 130:C:/Users/stapi/OneDrive/Desktop/GD32VW553/V1_MQTT_OK/GD32VW55X_Wifi_BLE_SDK/GD32VW55x_RELEASE_V1.0.2/MSDK/cloud/alicloud/src/protocol/coap/local\CoAPDeserialize.c **** }
 467              		.loc 1 130 1
 468 0020 8280     		ret
 469              		.cfi_endproc
 470              	.LFE24:
 472              		.section	.text.CoAPDeserialize_Message,"ax",@progbits
 473              		.align	1
 474              		.globl	CoAPDeserialize_Message
 476              	CoAPDeserialize_Message:
 477              	.LFB25:
 131:C:/Users/stapi/OneDrive/Desktop/GD32VW553/V1_MQTT_OK/GD32VW55X_Wifi_BLE_SDK/GD32VW55x_RELEASE_V1.0.2/MSDK/cloud/alicloud/src/protocol/coap/local\CoAPDeserialize.c **** 
 132:C:/Users/stapi/OneDrive/Desktop/GD32VW553/V1_MQTT_OK/GD32VW55X_Wifi_BLE_SDK/GD32VW55x_RELEASE_V1.0.2/MSDK/cloud/alicloud/src/protocol/coap/local\CoAPDeserialize.c **** int CoAPDeserialize_Message(CoAPMessage *msg, unsigned char *buf, int buflen)
 133:C:/Users/stapi/OneDrive/Desktop/GD32VW553/V1_MQTT_OK/GD32VW55X_Wifi_BLE_SDK/GD32VW55x_RELEASE_V1.0.2/MSDK/cloud/alicloud/src/protocol/coap/local\CoAPDeserialize.c **** {
 478              		.loc 1 133 1 is_stmt 1
 479              		.cfi_startproc
 480              	.LVL47:
 134:C:/Users/stapi/OneDrive/Desktop/GD32VW553/V1_MQTT_OK/GD32VW55X_Wifi_BLE_SDK/GD32VW55x_RELEASE_V1.0.2/MSDK/cloud/alicloud/src/protocol/coap/local\CoAPDeserialize.c ****     int count  = 0;
 481              		.loc 1 134 5
 135:C:/Users/stapi/OneDrive/Desktop/GD32VW553/V1_MQTT_OK/GD32VW55X_Wifi_BLE_SDK/GD32VW55x_RELEASE_V1.0.2/MSDK/cloud/alicloud/src/protocol/coap/local\CoAPDeserialize.c ****     int remlen = buflen;
 482              		.loc 1 135 5
 136:C:/Users/stapi/OneDrive/Desktop/GD32VW553/V1_MQTT_OK/GD32VW55X_Wifi_BLE_SDK/GD32VW55x_RELEASE_V1.0.2/MSDK/cloud/alicloud/src/protocol/coap/local\CoAPDeserialize.c ****     unsigned char *ptr = buf;
 483              		.loc 1 136 5
 137:C:/Users/stapi/OneDrive/Desktop/GD32VW553/V1_MQTT_OK/GD32VW55X_Wifi_BLE_SDK/GD32VW55x_RELEASE_V1.0.2/MSDK/cloud/alicloud/src/protocol/coap/local\CoAPDeserialize.c **** 
 138:C:/Users/stapi/OneDrive/Desktop/GD32VW553/V1_MQTT_OK/GD32VW55X_Wifi_BLE_SDK/GD32VW55x_RELEASE_V1.0.2/MSDK/cloud/alicloud/src/protocol/coap/local\CoAPDeserialize.c ****     if (NULL == buf || NULL == msg) {
 484              		.loc 1 138 5
 485              		.loc 1 138 8 is_stmt 0
 486 0000 B5CD     		beq	a1,zero,.L36
 133:C:/Users/stapi/OneDrive/Desktop/GD32VW553/V1_MQTT_OK/GD32VW55X_Wifi_BLE_SDK/GD32VW55x_RELEASE_V1.0.2/MSDK/cloud/alicloud/src/protocol/coap/local\CoAPDeserialize.c ****     int count  = 0;
 487              		.loc 1 133 1 discriminator 1
 488 0002 4111     		addi	sp,sp,-16
 489              		.cfi_def_cfa_offset 16
 490 0004 4EC0     		sw	s3,0(sp)
 491 0006 06C6     		sw	ra,12(sp)
 492 0008 26C4     		sw	s1,8(sp)
 493 000a 4AC2     		sw	s2,4(sp)
 494              		.cfi_offset 19, -16
 495              		.cfi_offset 1, -4
 496              		.cfi_offset 9, -8
 497              		.cfi_offset 18, -12
 498 000c AA89     		mv	s3,a0
 139:C:/Users/stapi/OneDrive/Desktop/GD32VW553/V1_MQTT_OK/GD32VW55X_Wifi_BLE_SDK/GD32VW55x_RELEASE_V1.0.2/MSDK/cloud/alicloud/src/protocol/coap/local\CoAPDeserialize.c ****         return COAP_ERROR_INVALID_PARAM;
 499              		.loc 1 139 16 discriminator 1
 500 000e 93071010 		li	a5,257
 138:C:/Users/stapi/OneDrive/Desktop/GD32VW553/V1_MQTT_OK/GD32VW55X_Wifi_BLE_SDK/GD32VW55x_RELEASE_V1.0.2/MSDK/cloud/alicloud/src/protocol/coap/local\CoAPDeserialize.c ****         return COAP_ERROR_INVALID_PARAM;
 501              		.loc 1 138 21 discriminator 1
 502 0012 19C5     		beq	a0,zero,.L32
 140:C:/Users/stapi/OneDrive/Desktop/GD32VW553/V1_MQTT_OK/GD32VW55X_Wifi_BLE_SDK/GD32VW55x_RELEASE_V1.0.2/MSDK/cloud/alicloud/src/protocol/coap/local\CoAPDeserialize.c ****     }
 141:C:/Users/stapi/OneDrive/Desktop/GD32VW553/V1_MQTT_OK/GD32VW55X_Wifi_BLE_SDK/GD32VW55x_RELEASE_V1.0.2/MSDK/cloud/alicloud/src/protocol/coap/local\CoAPDeserialize.c **** 
 142:C:/Users/stapi/OneDrive/Desktop/GD32VW553/V1_MQTT_OK/GD32VW55X_Wifi_BLE_SDK/GD32VW55x_RELEASE_V1.0.2/MSDK/cloud/alicloud/src/protocol/coap/local\CoAPDeserialize.c ****     if (buflen < 4) {
 503              		.loc 1 142 8
 504 0014 8D47     		li	a5,3
 505 0016 B284     		mv	s1,a2
 506              		.loc 1 142 5 is_stmt 1
 507              		.loc 1 142 8 is_stmt 0
 508 0018 63CBC700 		bgt	a2,a5,.L34
 509              	.LVL48:
 510              	.L35:
 143:C:/Users/stapi/OneDrive/Desktop/GD32VW553/V1_MQTT_OK/GD32VW55X_Wifi_BLE_SDK/GD32VW55x_RELEASE_V1.0.2/MSDK/cloud/alicloud/src/protocol/coap/local\CoAPDeserialize.c ****         return COAP_ERROR_INVALID_LENGTH;
 511              		.loc 1 143 16
 512 001c 93074010 		li	a5,260
 513              	.L32:
 144:C:/Users/stapi/OneDrive/Desktop/GD32VW553/V1_MQTT_OK/GD32VW55X_Wifi_BLE_SDK/GD32VW55x_RELEASE_V1.0.2/MSDK/cloud/alicloud/src/protocol/coap/local\CoAPDeserialize.c ****     }
 145:C:/Users/stapi/OneDrive/Desktop/GD32VW553/V1_MQTT_OK/GD32VW55X_Wifi_BLE_SDK/GD32VW55x_RELEASE_V1.0.2/MSDK/cloud/alicloud/src/protocol/coap/local\CoAPDeserialize.c **** 
 146:C:/Users/stapi/OneDrive/Desktop/GD32VW553/V1_MQTT_OK/GD32VW55X_Wifi_BLE_SDK/GD32VW55x_RELEASE_V1.0.2/MSDK/cloud/alicloud/src/protocol/coap/local\CoAPDeserialize.c ****     /* Deserialize CoAP header. */
 147:C:/Users/stapi/OneDrive/Desktop/GD32VW553/V1_MQTT_OK/GD32VW55X_Wifi_BLE_SDK/GD32VW55x_RELEASE_V1.0.2/MSDK/cloud/alicloud/src/protocol/coap/local\CoAPDeserialize.c ****     count = CoAPDeserialize_Header(msg, ptr);
 148:C:/Users/stapi/OneDrive/Desktop/GD32VW553/V1_MQTT_OK/GD32VW55X_Wifi_BLE_SDK/GD32VW55x_RELEASE_V1.0.2/MSDK/cloud/alicloud/src/protocol/coap/local\CoAPDeserialize.c ****     if (count > remlen) {
 149:C:/Users/stapi/OneDrive/Desktop/GD32VW553/V1_MQTT_OK/GD32VW55X_Wifi_BLE_SDK/GD32VW55x_RELEASE_V1.0.2/MSDK/cloud/alicloud/src/protocol/coap/local\CoAPDeserialize.c ****         return COAP_ERROR_INVALID_LENGTH;
 150:C:/Users/stapi/OneDrive/Desktop/GD32VW553/V1_MQTT_OK/GD32VW55X_Wifi_BLE_SDK/GD32VW55x_RELEASE_V1.0.2/MSDK/cloud/alicloud/src/protocol/coap/local\CoAPDeserialize.c ****     }
 151:C:/Users/stapi/OneDrive/Desktop/GD32VW553/V1_MQTT_OK/GD32VW55X_Wifi_BLE_SDK/GD32VW55x_RELEASE_V1.0.2/MSDK/cloud/alicloud/src/protocol/coap/local\CoAPDeserialize.c ****     ptr += count;
 152:C:/Users/stapi/OneDrive/Desktop/GD32VW553/V1_MQTT_OK/GD32VW55X_Wifi_BLE_SDK/GD32VW55x_RELEASE_V1.0.2/MSDK/cloud/alicloud/src/protocol/coap/local\CoAPDeserialize.c ****     remlen -= count;
 153:C:/Users/stapi/OneDrive/Desktop/GD32VW553/V1_MQTT_OK/GD32VW55X_Wifi_BLE_SDK/GD32VW55x_RELEASE_V1.0.2/MSDK/cloud/alicloud/src/protocol/coap/local\CoAPDeserialize.c **** 
 154:C:/Users/stapi/OneDrive/Desktop/GD32VW553/V1_MQTT_OK/GD32VW55X_Wifi_BLE_SDK/GD32VW55x_RELEASE_V1.0.2/MSDK/cloud/alicloud/src/protocol/coap/local\CoAPDeserialize.c ****     /* Deserialize the token, if any. */
 155:C:/Users/stapi/OneDrive/Desktop/GD32VW553/V1_MQTT_OK/GD32VW55X_Wifi_BLE_SDK/GD32VW55x_RELEASE_V1.0.2/MSDK/cloud/alicloud/src/protocol/coap/local\CoAPDeserialize.c ****     count = CoAPDeserialize_Token(msg, ptr);
 156:C:/Users/stapi/OneDrive/Desktop/GD32VW553/V1_MQTT_OK/GD32VW55X_Wifi_BLE_SDK/GD32VW55x_RELEASE_V1.0.2/MSDK/cloud/alicloud/src/protocol/coap/local\CoAPDeserialize.c ****     if (count > remlen) {
 157:C:/Users/stapi/OneDrive/Desktop/GD32VW553/V1_MQTT_OK/GD32VW55X_Wifi_BLE_SDK/GD32VW55x_RELEASE_V1.0.2/MSDK/cloud/alicloud/src/protocol/coap/local\CoAPDeserialize.c ****         return COAP_ERROR_INVALID_LENGTH;
 158:C:/Users/stapi/OneDrive/Desktop/GD32VW553/V1_MQTT_OK/GD32VW55X_Wifi_BLE_SDK/GD32VW55x_RELEASE_V1.0.2/MSDK/cloud/alicloud/src/protocol/coap/local\CoAPDeserialize.c ****     }
 159:C:/Users/stapi/OneDrive/Desktop/GD32VW553/V1_MQTT_OK/GD32VW55X_Wifi_BLE_SDK/GD32VW55x_RELEASE_V1.0.2/MSDK/cloud/alicloud/src/protocol/coap/local\CoAPDeserialize.c ****     ptr += count;
 160:C:/Users/stapi/OneDrive/Desktop/GD32VW553/V1_MQTT_OK/GD32VW55X_Wifi_BLE_SDK/GD32VW55x_RELEASE_V1.0.2/MSDK/cloud/alicloud/src/protocol/coap/local\CoAPDeserialize.c ****     remlen -= count;
 161:C:/Users/stapi/OneDrive/Desktop/GD32VW553/V1_MQTT_OK/GD32VW55X_Wifi_BLE_SDK/GD32VW55x_RELEASE_V1.0.2/MSDK/cloud/alicloud/src/protocol/coap/local\CoAPDeserialize.c **** 
 162:C:/Users/stapi/OneDrive/Desktop/GD32VW553/V1_MQTT_OK/GD32VW55X_Wifi_BLE_SDK/GD32VW55x_RELEASE_V1.0.2/MSDK/cloud/alicloud/src/protocol/coap/local\CoAPDeserialize.c ****     count = CoAPDeserialize_Options(msg, ptr, remlen);
 163:C:/Users/stapi/OneDrive/Desktop/GD32VW553/V1_MQTT_OK/GD32VW55X_Wifi_BLE_SDK/GD32VW55x_RELEASE_V1.0.2/MSDK/cloud/alicloud/src/protocol/coap/local\CoAPDeserialize.c ****     if (count > remlen || count < 0) {
 164:C:/Users/stapi/OneDrive/Desktop/GD32VW553/V1_MQTT_OK/GD32VW55X_Wifi_BLE_SDK/GD32VW55x_RELEASE_V1.0.2/MSDK/cloud/alicloud/src/protocol/coap/local\CoAPDeserialize.c ****         return COAP_ERROR_INVALID_LENGTH;
 165:C:/Users/stapi/OneDrive/Desktop/GD32VW553/V1_MQTT_OK/GD32VW55X_Wifi_BLE_SDK/GD32VW55x_RELEASE_V1.0.2/MSDK/cloud/alicloud/src/protocol/coap/local\CoAPDeserialize.c ****     }
 166:C:/Users/stapi/OneDrive/Desktop/GD32VW553/V1_MQTT_OK/GD32VW55X_Wifi_BLE_SDK/GD32VW55x_RELEASE_V1.0.2/MSDK/cloud/alicloud/src/protocol/coap/local\CoAPDeserialize.c ****     ptr += count;
 167:C:/Users/stapi/OneDrive/Desktop/GD32VW553/V1_MQTT_OK/GD32VW55X_Wifi_BLE_SDK/GD32VW55x_RELEASE_V1.0.2/MSDK/cloud/alicloud/src/protocol/coap/local\CoAPDeserialize.c ****     remlen -= count;
 168:C:/Users/stapi/OneDrive/Desktop/GD32VW553/V1_MQTT_OK/GD32VW55X_Wifi_BLE_SDK/GD32VW55x_RELEASE_V1.0.2/MSDK/cloud/alicloud/src/protocol/coap/local\CoAPDeserialize.c **** 
 169:C:/Users/stapi/OneDrive/Desktop/GD32VW553/V1_MQTT_OK/GD32VW55X_Wifi_BLE_SDK/GD32VW55x_RELEASE_V1.0.2/MSDK/cloud/alicloud/src/protocol/coap/local\CoAPDeserialize.c ****     CoAPDeserialize_Payload(msg, ptr, remlen);
 170:C:/Users/stapi/OneDrive/Desktop/GD32VW553/V1_MQTT_OK/GD32VW55X_Wifi_BLE_SDK/GD32VW55x_RELEASE_V1.0.2/MSDK/cloud/alicloud/src/protocol/coap/local\CoAPDeserialize.c **** 
 171:C:/Users/stapi/OneDrive/Desktop/GD32VW553/V1_MQTT_OK/GD32VW55X_Wifi_BLE_SDK/GD32VW55x_RELEASE_V1.0.2/MSDK/cloud/alicloud/src/protocol/coap/local\CoAPDeserialize.c ****     return COAP_SUCCESS;
 172:C:/Users/stapi/OneDrive/Desktop/GD32VW553/V1_MQTT_OK/GD32VW55X_Wifi_BLE_SDK/GD32VW55x_RELEASE_V1.0.2/MSDK/cloud/alicloud/src/protocol/coap/local\CoAPDeserialize.c **** }
 514              		.loc 1 172 1
 515 0020 B240     		lw	ra,12(sp)
 516              		.cfi_remember_state
 517              		.cfi_restore 1
 518 0022 A244     		lw	s1,8(sp)
 519              		.cfi_restore 9
 520 0024 1249     		lw	s2,4(sp)
 521              		.cfi_restore 18
 522 0026 8249     		lw	s3,0(sp)
 523              		.cfi_restore 19
 524              	.LVL49:
 525 0028 3E85     		mv	a0,a5
 526 002a 4101     		addi	sp,sp,16
 527              		.cfi_def_cfa_offset 0
 528 002c 8280     		jr	ra
 529              	.LVL50:
 530              	.L34:
 531              		.cfi_restore_state
 532 002e 2E89     		mv	s2,a1
 147:C:/Users/stapi/OneDrive/Desktop/GD32VW553/V1_MQTT_OK/GD32VW55X_Wifi_BLE_SDK/GD32VW55x_RELEASE_V1.0.2/MSDK/cloud/alicloud/src/protocol/coap/local\CoAPDeserialize.c ****     if (count > remlen) {
 533              		.loc 1 147 5 is_stmt 1
 147:C:/Users/stapi/OneDrive/Desktop/GD32VW553/V1_MQTT_OK/GD32VW55X_Wifi_BLE_SDK/GD32VW55x_RELEASE_V1.0.2/MSDK/cloud/alicloud/src/protocol/coap/local\CoAPDeserialize.c ****     if (count > remlen) {
 534              		.loc 1 147 13 is_stmt 0
 535 0030 97000000 		call	CoAPDeserialize_Header
 535      E7800000 
 536              	.LVL51:
 148:C:/Users/stapi/OneDrive/Desktop/GD32VW553/V1_MQTT_OK/GD32VW55X_Wifi_BLE_SDK/GD32VW55x_RELEASE_V1.0.2/MSDK/cloud/alicloud/src/protocol/coap/local\CoAPDeserialize.c ****         return COAP_ERROR_INVALID_LENGTH;
 537              		.loc 1 148 5 is_stmt 1
 148:C:/Users/stapi/OneDrive/Desktop/GD32VW553/V1_MQTT_OK/GD32VW55X_Wifi_BLE_SDK/GD32VW55x_RELEASE_V1.0.2/MSDK/cloud/alicloud/src/protocol/coap/local\CoAPDeserialize.c ****         return COAP_ERROR_INVALID_LENGTH;
 538              		.loc 1 148 8 is_stmt 0
 539 0038 E3C2A4FE 		blt	s1,a0,.L35
 151:C:/Users/stapi/OneDrive/Desktop/GD32VW553/V1_MQTT_OK/GD32VW55X_Wifi_BLE_SDK/GD32VW55x_RELEASE_V1.0.2/MSDK/cloud/alicloud/src/protocol/coap/local\CoAPDeserialize.c ****     remlen -= count;
 540              		.loc 1 151 5 is_stmt 1
 151:C:/Users/stapi/OneDrive/Desktop/GD32VW553/V1_MQTT_OK/GD32VW55X_Wifi_BLE_SDK/GD32VW55x_RELEASE_V1.0.2/MSDK/cloud/alicloud/src/protocol/coap/local\CoAPDeserialize.c ****     remlen -= count;
 541              		.loc 1 151 9 is_stmt 0
 542 003c 2A99     		add	s2,s2,a0
 543              	.LVL52:
 152:C:/Users/stapi/OneDrive/Desktop/GD32VW553/V1_MQTT_OK/GD32VW55X_Wifi_BLE_SDK/GD32VW55x_RELEASE_V1.0.2/MSDK/cloud/alicloud/src/protocol/coap/local\CoAPDeserialize.c **** 
 544              		.loc 1 152 5 is_stmt 1
 152:C:/Users/stapi/OneDrive/Desktop/GD32VW553/V1_MQTT_OK/GD32VW55X_Wifi_BLE_SDK/GD32VW55x_RELEASE_V1.0.2/MSDK/cloud/alicloud/src/protocol/coap/local\CoAPDeserialize.c **** 
 545              		.loc 1 152 12 is_stmt 0
 546 003e 898C     		sub	s1,s1,a0
 547              	.LVL53:
 155:C:/Users/stapi/OneDrive/Desktop/GD32VW553/V1_MQTT_OK/GD32VW55X_Wifi_BLE_SDK/GD32VW55x_RELEASE_V1.0.2/MSDK/cloud/alicloud/src/protocol/coap/local\CoAPDeserialize.c ****     if (count > remlen) {
 548              		.loc 1 155 5 is_stmt 1
 155:C:/Users/stapi/OneDrive/Desktop/GD32VW553/V1_MQTT_OK/GD32VW55X_Wifi_BLE_SDK/GD32VW55x_RELEASE_V1.0.2/MSDK/cloud/alicloud/src/protocol/coap/local\CoAPDeserialize.c ****     if (count > remlen) {
 549              		.loc 1 155 13 is_stmt 0
 550 0040 CA85     		mv	a1,s2
 551 0042 4E85     		mv	a0,s3
 552              	.LVL54:
 553 0044 97000000 		call	CoAPDeserialize_Token
 553      E7800000 
 554              	.LVL55:
 156:C:/Users/stapi/OneDrive/Desktop/GD32VW553/V1_MQTT_OK/GD32VW55X_Wifi_BLE_SDK/GD32VW55x_RELEASE_V1.0.2/MSDK/cloud/alicloud/src/protocol/coap/local\CoAPDeserialize.c ****         return COAP_ERROR_INVALID_LENGTH;
 555              		.loc 1 156 5 is_stmt 1
 156:C:/Users/stapi/OneDrive/Desktop/GD32VW553/V1_MQTT_OK/GD32VW55X_Wifi_BLE_SDK/GD32VW55x_RELEASE_V1.0.2/MSDK/cloud/alicloud/src/protocol/coap/local\CoAPDeserialize.c ****         return COAP_ERROR_INVALID_LENGTH;
 556              		.loc 1 156 8 is_stmt 0
 557 004c E3C8A4FC 		blt	s1,a0,.L35
 159:C:/Users/stapi/OneDrive/Desktop/GD32VW553/V1_MQTT_OK/GD32VW55X_Wifi_BLE_SDK/GD32VW55x_RELEASE_V1.0.2/MSDK/cloud/alicloud/src/protocol/coap/local\CoAPDeserialize.c ****     remlen -= count;
 558              		.loc 1 159 5 is_stmt 1
 160:C:/Users/stapi/OneDrive/Desktop/GD32VW553/V1_MQTT_OK/GD32VW55X_Wifi_BLE_SDK/GD32VW55x_RELEASE_V1.0.2/MSDK/cloud/alicloud/src/protocol/coap/local\CoAPDeserialize.c **** 
 559              		.loc 1 160 12 is_stmt 0
 560 0050 898C     		sub	s1,s1,a0
 561              	.LVL56:
 159:C:/Users/stapi/OneDrive/Desktop/GD32VW553/V1_MQTT_OK/GD32VW55X_Wifi_BLE_SDK/GD32VW55x_RELEASE_V1.0.2/MSDK/cloud/alicloud/src/protocol/coap/local\CoAPDeserialize.c ****     remlen -= count;
 562              		.loc 1 159 9
 563 0052 2A99     		add	s2,s2,a0
 564              	.LVL57:
 160:C:/Users/stapi/OneDrive/Desktop/GD32VW553/V1_MQTT_OK/GD32VW55X_Wifi_BLE_SDK/GD32VW55x_RELEASE_V1.0.2/MSDK/cloud/alicloud/src/protocol/coap/local\CoAPDeserialize.c **** 
 565              		.loc 1 160 5 is_stmt 1
 162:C:/Users/stapi/OneDrive/Desktop/GD32VW553/V1_MQTT_OK/GD32VW55X_Wifi_BLE_SDK/GD32VW55x_RELEASE_V1.0.2/MSDK/cloud/alicloud/src/protocol/coap/local\CoAPDeserialize.c ****     if (count > remlen || count < 0) {
 566              		.loc 1 162 5
 162:C:/Users/stapi/OneDrive/Desktop/GD32VW553/V1_MQTT_OK/GD32VW55X_Wifi_BLE_SDK/GD32VW55x_RELEASE_V1.0.2/MSDK/cloud/alicloud/src/protocol/coap/local\CoAPDeserialize.c ****     if (count > remlen || count < 0) {
 567              		.loc 1 162 13 is_stmt 0
 568 0054 2686     		mv	a2,s1
 569 0056 CA85     		mv	a1,s2
 570 0058 4E85     		mv	a0,s3
 571              	.LVL58:
 572 005a 97000000 		call	CoAPDeserialize_Options
 572      E7800000 
 573              	.LVL59:
 163:C:/Users/stapi/OneDrive/Desktop/GD32VW553/V1_MQTT_OK/GD32VW55X_Wifi_BLE_SDK/GD32VW55x_RELEASE_V1.0.2/MSDK/cloud/alicloud/src/protocol/coap/local\CoAPDeserialize.c ****         return COAP_ERROR_INVALID_LENGTH;
 574              		.loc 1 163 5 is_stmt 1
 163:C:/Users/stapi/OneDrive/Desktop/GD32VW553/V1_MQTT_OK/GD32VW55X_Wifi_BLE_SDK/GD32VW55x_RELEASE_V1.0.2/MSDK/cloud/alicloud/src/protocol/coap/local\CoAPDeserialize.c ****         return COAP_ERROR_INVALID_LENGTH;
 575              		.loc 1 163 8 is_stmt 0
 576 0062 E3EDA4FA 		bltu	s1,a0,.L35
 166:C:/Users/stapi/OneDrive/Desktop/GD32VW553/V1_MQTT_OK/GD32VW55X_Wifi_BLE_SDK/GD32VW55x_RELEASE_V1.0.2/MSDK/cloud/alicloud/src/protocol/coap/local\CoAPDeserialize.c ****     remlen -= count;
 577              		.loc 1 166 5 is_stmt 1
 578              	.LVL60:
 167:C:/Users/stapi/OneDrive/Desktop/GD32VW553/V1_MQTT_OK/GD32VW55X_Wifi_BLE_SDK/GD32VW55x_RELEASE_V1.0.2/MSDK/cloud/alicloud/src/protocol/coap/local\CoAPDeserialize.c **** 
 579              		.loc 1 167 5
 169:C:/Users/stapi/OneDrive/Desktop/GD32VW553/V1_MQTT_OK/GD32VW55X_Wifi_BLE_SDK/GD32VW55x_RELEASE_V1.0.2/MSDK/cloud/alicloud/src/protocol/coap/local\CoAPDeserialize.c **** 
 580              		.loc 1 169 5
 581 0066 3386A440 		sub	a2,s1,a0
 582              	.LVL61:
 583 006a B305A900 		add	a1,s2,a0
 584              	.LVL62:
 585 006e 4E85     		mv	a0,s3
 586              	.LVL63:
 587 0070 97000000 		call	CoAPDeserialize_Payload
 587      E7800000 
 588              	.LVL64:
 171:C:/Users/stapi/OneDrive/Desktop/GD32VW553/V1_MQTT_OK/GD32VW55X_Wifi_BLE_SDK/GD32VW55x_RELEASE_V1.0.2/MSDK/cloud/alicloud/src/protocol/coap/local\CoAPDeserialize.c **** }
 589              		.loc 1 171 5
 171:C:/Users/stapi/OneDrive/Desktop/GD32VW553/V1_MQTT_OK/GD32VW55X_Wifi_BLE_SDK/GD32VW55x_RELEASE_V1.0.2/MSDK/cloud/alicloud/src/protocol/coap/local\CoAPDeserialize.c **** }
 590              		.loc 1 171 12 is_stmt 0
 591 0078 8147     		li	a5,0
 592 007a 5DB7     		j	.L32
 593              	.LVL65:
 594              	.L36:
 595              		.cfi_def_cfa_offset 0
 596              		.cfi_restore 1
 597              		.cfi_restore 9
 598              		.cfi_restore 18
 599              		.cfi_restore 19
 139:C:/Users/stapi/OneDrive/Desktop/GD32VW553/V1_MQTT_OK/GD32VW55X_Wifi_BLE_SDK/GD32VW55x_RELEASE_V1.0.2/MSDK/cloud/alicloud/src/protocol/coap/local\CoAPDeserialize.c ****     }
 600              		.loc 1 139 16
 601 007c 93071010 		li	a5,257
 602              		.loc 1 172 1
 603 0080 3E85     		mv	a0,a5
 604              	.LVL66:
 605 0082 8280     		ret
 606              		.cfi_endproc
 607              	.LFE25:
 609              		.text
 610              	.Letext0:
 611              		.file 2 "c:\\users\\stapi\\onedrive\\desktop\\gd32vw553\\embeddedbuilder_v1.4.7.26843\\tools\\nucl
 612              		.file 3 "c:\\users\\stapi\\onedrive\\desktop\\gd32vw553\\embeddedbuilder_v1.4.7.26843\\tools\\nucl
 613              		.file 4 "..\\..\\..\\..\\cloud\\alicloud\\include/iot_import.h"
 614              		.file 5 "C:/Users/stapi/OneDrive/Desktop/GD32VW553/V1_MQTT_OK/GD32VW55X_Wifi_BLE_SDK/GD32VW55x_REL
 615              		.file 6 "<built-in>"
DEFINED SYMBOLS
                            *ABS*:0000000000000000 CoAPDeserialize.c
C:\Users\stapi\AppData\Local\Temp\ccHaEyNx.s:13     .text.CoAPDeserialize_Header:0000000000000000 CoAPDeserialize_Header
C:\Users\stapi\AppData\Local\Temp\ccHaEyNx.s:17     .text.CoAPDeserialize_Header:0000000000000000 .L0 
C:\Users\stapi\AppData\Local\Temp\ccHaEyNx.s:19     .text.CoAPDeserialize_Header:0000000000000000 .L0 
C:\Users\stapi\AppData\Local\Temp\ccHaEyNx.s:20     .text.CoAPDeserialize_Header:0000000000000000 .L0 
C:\Users\stapi\AppData\Local\Temp\ccHaEyNx.s:21     .text.CoAPDeserialize_Header:0000000000000000 .L0 
C:\Users\stapi\AppData\Local\Temp\ccHaEyNx.s:23     .text.CoAPDeserialize_Header:0000000000000004 .L0 
C:\Users\stapi\AppData\Local\Temp\ccHaEyNx.s:29     .text.CoAPDeserialize_Header:0000000000000014 .L0 
C:\Users\stapi\AppData\Local\Temp\ccHaEyNx.s:30     .text.CoAPDeserialize_Header:0000000000000014 .L0 
C:\Users\stapi\AppData\Local\Temp\ccHaEyNx.s:32     .text.CoAPDeserialize_Header:0000000000000018 .L0 
C:\Users\stapi\AppData\Local\Temp\ccHaEyNx.s:38     .text.CoAPDeserialize_Header:0000000000000028 .L0 
C:\Users\stapi\AppData\Local\Temp\ccHaEyNx.s:39     .text.CoAPDeserialize_Header:0000000000000028 .L0 
C:\Users\stapi\AppData\Local\Temp\ccHaEyNx.s:45     .text.CoAPDeserialize_Header:0000000000000036 .L0 
C:\Users\stapi\AppData\Local\Temp\ccHaEyNx.s:46     .text.CoAPDeserialize_Header:0000000000000036 .L0 
C:\Users\stapi\AppData\Local\Temp\ccHaEyNx.s:49     .text.CoAPDeserialize_Header:000000000000003e .L0 
C:\Users\stapi\AppData\Local\Temp\ccHaEyNx.s:50     .text.CoAPDeserialize_Header:000000000000003e .L0 
C:\Users\stapi\AppData\Local\Temp\ccHaEyNx.s:53     .text.CoAPDeserialize_Header:0000000000000044 .L0 
C:\Users\stapi\AppData\Local\Temp\ccHaEyNx.s:55     .text.CoAPDeserialize_Header:0000000000000048 .L0 
C:\Users\stapi\AppData\Local\Temp\ccHaEyNx.s:56     .text.CoAPDeserialize_Header:0000000000000048 .L0 
C:\Users\stapi\AppData\Local\Temp\ccHaEyNx.s:58     .text.CoAPDeserialize_Header:000000000000004c .L0 
C:\Users\stapi\AppData\Local\Temp\ccHaEyNx.s:61     .text.CoAPDeserialize_Header:0000000000000052 .L0 
C:\Users\stapi\AppData\Local\Temp\ccHaEyNx.s:62     .text.CoAPDeserialize_Header:0000000000000052 .L0 
C:\Users\stapi\AppData\Local\Temp\ccHaEyNx.s:65     .text.CoAPDeserialize_Header:0000000000000056 .L0 
C:\Users\stapi\AppData\Local\Temp\ccHaEyNx.s:72     .text.CoAPDeserialize_Token:0000000000000000 CoAPDeserialize_Token
C:\Users\stapi\AppData\Local\Temp\ccHaEyNx.s:75     .text.CoAPDeserialize_Token:0000000000000000 .L0 
C:\Users\stapi\AppData\Local\Temp\ccHaEyNx.s:77     .text.CoAPDeserialize_Token:0000000000000000 .L0 
C:\Users\stapi\AppData\Local\Temp\ccHaEyNx.s:78     .text.CoAPDeserialize_Token:0000000000000008 .L0 
C:\Users\stapi\AppData\Local\Temp\ccHaEyNx.s:79     .text.CoAPDeserialize_Token:0000000000000008 .L0 
C:\Users\stapi\AppData\Local\Temp\ccHaEyNx.s:80     .text.CoAPDeserialize_Token:0000000000000008 .L0 
C:\Users\stapi\AppData\Local\Temp\ccHaEyNx.s:82     .text.CoAPDeserialize_Token:0000000000000008 .L0 
C:\Users\stapi\AppData\Local\Temp\ccHaEyNx.s:83     .text.CoAPDeserialize_Token:0000000000000008 .L0 
C:\Users\stapi\AppData\Local\Temp\ccHaEyNx.s:85     .text.CoAPDeserialize_Token:000000000000000a .L0 
C:\Users\stapi\AppData\Local\Temp\ccHaEyNx.s:89     .text.CoAPDeserialize_Token:000000000000000e .L0 
C:\Users\stapi\AppData\Local\Temp\ccHaEyNx.s:92     .text.CoAPDeserialize_Token:0000000000000012 .L0 
C:\Users\stapi\AppData\Local\Temp\ccHaEyNx.s:96     .text.CoAPDeserialize_Token:000000000000001e .L0 
C:\Users\stapi\AppData\Local\Temp\ccHaEyNx.s:97     .text.CoAPDeserialize_Token:000000000000001e .L0 
C:\Users\stapi\AppData\Local\Temp\ccHaEyNx.s:99     .text.CoAPDeserialize_Token:0000000000000028 .L0 
C:\Users\stapi\AppData\Local\Temp\ccHaEyNx.s:100    .text.CoAPDeserialize_Token:0000000000000028 .L0 
C:\Users\stapi\AppData\Local\Temp\ccHaEyNx.s:101    .text.CoAPDeserialize_Token:0000000000000028 .L0 
C:\Users\stapi\AppData\Local\Temp\ccHaEyNx.s:102    .text.CoAPDeserialize_Token:0000000000000028 .L0 
C:\Users\stapi\AppData\Local\Temp\ccHaEyNx.s:119    .text.CoAPDeserialize_Options:0000000000000000 CoAPDeserialize_Options
C:\Users\stapi\AppData\Local\Temp\ccHaEyNx.s:122    .text.CoAPDeserialize_Options:0000000000000000 .L0 
C:\Users\stapi\AppData\Local\Temp\ccHaEyNx.s:124    .text.CoAPDeserialize_Options:0000000000000000 .L0 
C:\Users\stapi\AppData\Local\Temp\ccHaEyNx.s:125    .text.CoAPDeserialize_Options:0000000000000008 .L0 
C:\Users\stapi\AppData\Local\Temp\ccHaEyNx.s:126    .text.CoAPDeserialize_Options:0000000000000008 .L0 
C:\Users\stapi\AppData\Local\Temp\ccHaEyNx.s:127    .text.CoAPDeserialize_Options:0000000000000008 .L0 
C:\Users\stapi\AppData\Local\Temp\ccHaEyNx.s:128    .text.CoAPDeserialize_Options:0000000000000008 .L0 
C:\Users\stapi\AppData\Local\Temp\ccHaEyNx.s:131    .text.CoAPDeserialize_Options:0000000000000008 .L0 
C:\Users\stapi\AppData\Local\Temp\ccHaEyNx.s:132    .text.CoAPDeserialize_Options:0000000000000008 .L0 
C:\Users\stapi\AppData\Local\Temp\ccHaEyNx.s:133    .text.CoAPDeserialize_Options:0000000000000008 .L0 
C:\Users\stapi\AppData\Local\Temp\ccHaEyNx.s:134    .text.CoAPDeserialize_Options:0000000000000008 .L0 
C:\Users\stapi\AppData\Local\Temp\ccHaEyNx.s:135    .text.CoAPDeserialize_Options:0000000000000008 .L0 
C:\Users\stapi\AppData\Local\Temp\ccHaEyNx.s:136    .text.CoAPDeserialize_Options:0000000000000008 .L0 
C:\Users\stapi\AppData\Local\Temp\ccHaEyNx.s:137    .text.CoAPDeserialize_Options:0000000000000008 .L0 
C:\Users\stapi\AppData\Local\Temp\ccHaEyNx.s:139    .text.CoAPDeserialize_Options:000000000000000a .L0 
C:\Users\stapi\AppData\Local\Temp\ccHaEyNx.s:141    .text.CoAPDeserialize_Options:000000000000000e .L0 
C:\Users\stapi\AppData\Local\Temp\ccHaEyNx.s:144    .text.CoAPDeserialize_Options:0000000000000016 .L0 
C:\Users\stapi\AppData\Local\Temp\ccHaEyNx.s:146    .text.CoAPDeserialize_Options:0000000000000018 .L0 
C:\Users\stapi\AppData\Local\Temp\ccHaEyNx.s:148    .text.CoAPDeserialize_Options:000000000000001a .L0 
C:\Users\stapi\AppData\Local\Temp\ccHaEyNx.s:152    .text.CoAPDeserialize_Options:000000000000001e .L0 
C:\Users\stapi\AppData\Local\Temp\ccHaEyNx.s:154    .text.CoAPDeserialize_Options:0000000000000020 .L0 
C:\Users\stapi\AppData\Local\Temp\ccHaEyNx.s:156    .text.CoAPDeserialize_Options:0000000000000022 .L0 
C:\Users\stapi\AppData\Local\Temp\ccHaEyNx.s:158    .text.CoAPDeserialize_Options:0000000000000024 .L0 
C:\Users\stapi\AppData\Local\Temp\ccHaEyNx.s:164    .text.CoAPDeserialize_Options:0000000000000026 .L0 
C:\Users\stapi\AppData\Local\Temp\ccHaEyNx.s:167    .text.CoAPDeserialize_Options:000000000000002a .L0 
C:\Users\stapi\AppData\Local\Temp\ccHaEyNx.s:168    .text.CoAPDeserialize_Options:000000000000002a .L0 
C:\Users\stapi\AppData\Local\Temp\ccHaEyNx.s:175    .text.CoAPDeserialize_Options:0000000000000030 .L0 
C:\Users\stapi\AppData\Local\Temp\ccHaEyNx.s:176    .text.CoAPDeserialize_Options:0000000000000030 .L0 
C:\Users\stapi\AppData\Local\Temp\ccHaEyNx.s:177    .text.CoAPDeserialize_Options:0000000000000030 .L0 
C:\Users\stapi\AppData\Local\Temp\ccHaEyNx.s:178    .text.CoAPDeserialize_Options:0000000000000030 .L0 
C:\Users\stapi\AppData\Local\Temp\ccHaEyNx.s:180    .text.CoAPDeserialize_Options:0000000000000034 .L0 
C:\Users\stapi\AppData\Local\Temp\ccHaEyNx.s:181    .text.CoAPDeserialize_Options:0000000000000034 .L0 
C:\Users\stapi\AppData\Local\Temp\ccHaEyNx.s:183    .text.CoAPDeserialize_Options:0000000000000038 .L0 
C:\Users\stapi\AppData\Local\Temp\ccHaEyNx.s:185    .text.CoAPDeserialize_Options:000000000000003a .L0 
C:\Users\stapi\AppData\Local\Temp\ccHaEyNx.s:188    .text.CoAPDeserialize_Options:000000000000003e .L0 
C:\Users\stapi\AppData\Local\Temp\ccHaEyNx.s:191    .text.CoAPDeserialize_Options:0000000000000040 .L0 
C:\Users\stapi\AppData\Local\Temp\ccHaEyNx.s:193    .text.CoAPDeserialize_Options:0000000000000044 .L0 
C:\Users\stapi\AppData\Local\Temp\ccHaEyNx.s:195    .text.CoAPDeserialize_Options:0000000000000048 .L0 
C:\Users\stapi\AppData\Local\Temp\ccHaEyNx.s:196    .text.CoAPDeserialize_Options:0000000000000048 .L0 
C:\Users\stapi\AppData\Local\Temp\ccHaEyNx.s:198    .text.CoAPDeserialize_Options:0000000000000048 .L0 
C:\Users\stapi\AppData\Local\Temp\ccHaEyNx.s:199    .text.CoAPDeserialize_Options:0000000000000048 .L0 
C:\Users\stapi\AppData\Local\Temp\ccHaEyNx.s:200    .text.CoAPDeserialize_Options:0000000000000048 .L0 
C:\Users\stapi\AppData\Local\Temp\ccHaEyNx.s:202    .text.CoAPDeserialize_Options:0000000000000048 .L0 
C:\Users\stapi\AppData\Local\Temp\ccHaEyNx.s:203    .text.CoAPDeserialize_Options:0000000000000048 .L0 
C:\Users\stapi\AppData\Local\Temp\ccHaEyNx.s:204    .text.CoAPDeserialize_Options:0000000000000048 .L0 
C:\Users\stapi\AppData\Local\Temp\ccHaEyNx.s:208    .text.CoAPDeserialize_Options:000000000000004c .L0 
C:\Users\stapi\AppData\Local\Temp\ccHaEyNx.s:209    .text.CoAPDeserialize_Options:000000000000004c .L0 
C:\Users\stapi\AppData\Local\Temp\ccHaEyNx.s:211    .text.CoAPDeserialize_Options:0000000000000050 .L0 
C:\Users\stapi\AppData\Local\Temp\ccHaEyNx.s:212    .text.CoAPDeserialize_Options:0000000000000050 .L0 
C:\Users\stapi\AppData\Local\Temp\ccHaEyNx.s:214    .text.CoAPDeserialize_Options:0000000000000054 .L0 
C:\Users\stapi\AppData\Local\Temp\ccHaEyNx.s:215    .text.CoAPDeserialize_Options:0000000000000054 .L0 
C:\Users\stapi\AppData\Local\Temp\ccHaEyNx.s:217    .text.CoAPDeserialize_Options:0000000000000058 .L0 
C:\Users\stapi\AppData\Local\Temp\ccHaEyNx.s:220    .text.CoAPDeserialize_Options:000000000000005a .L0 
C:\Users\stapi\AppData\Local\Temp\ccHaEyNx.s:223    .text.CoAPDeserialize_Options:000000000000005c .L0 
C:\Users\stapi\AppData\Local\Temp\ccHaEyNx.s:224    .text.CoAPDeserialize_Options:000000000000005c .L0 
C:\Users\stapi\AppData\Local\Temp\ccHaEyNx.s:225    .text.CoAPDeserialize_Options:000000000000005c .L0 
C:\Users\stapi\AppData\Local\Temp\ccHaEyNx.s:226    .text.CoAPDeserialize_Options:000000000000005c .L0 
C:\Users\stapi\AppData\Local\Temp\ccHaEyNx.s:227    .text.CoAPDeserialize_Options:000000000000005c .L0 
C:\Users\stapi\AppData\Local\Temp\ccHaEyNx.s:228    .text.CoAPDeserialize_Options:000000000000005c .L0 
C:\Users\stapi\AppData\Local\Temp\ccHaEyNx.s:232    .text.CoAPDeserialize_Options:0000000000000060 .L0 
C:\Users\stapi\AppData\Local\Temp\ccHaEyNx.s:233    .text.CoAPDeserialize_Options:0000000000000060 .L0 
C:\Users\stapi\AppData\Local\Temp\ccHaEyNx.s:234    .text.CoAPDeserialize_Options:0000000000000060 .L0 
C:\Users\stapi\AppData\Local\Temp\ccHaEyNx.s:236    .text.CoAPDeserialize_Options:0000000000000064 .L0 
C:\Users\stapi\AppData\Local\Temp\ccHaEyNx.s:239    .text.CoAPDeserialize_Options:0000000000000068 .L0 
C:\Users\stapi\AppData\Local\Temp\ccHaEyNx.s:241    .text.CoAPDeserialize_Options:000000000000006c .L0 
C:\Users\stapi\AppData\Local\Temp\ccHaEyNx.s:242    .text.CoAPDeserialize_Options:000000000000006c .L0 
C:\Users\stapi\AppData\Local\Temp\ccHaEyNx.s:243    .text.CoAPDeserialize_Options:000000000000006c .L0 
C:\Users\stapi\AppData\Local\Temp\ccHaEyNx.s:244    .text.CoAPDeserialize_Options:000000000000006c .L0 
C:\Users\stapi\AppData\Local\Temp\ccHaEyNx.s:249    .text.CoAPDeserialize_Options:0000000000000070 .L0 
C:\Users\stapi\AppData\Local\Temp\ccHaEyNx.s:250    .text.CoAPDeserialize_Options:0000000000000070 .L0 
C:\Users\stapi\AppData\Local\Temp\ccHaEyNx.s:253    .text.CoAPDeserialize_Options:0000000000000076 .L0 
C:\Users\stapi\AppData\Local\Temp\ccHaEyNx.s:254    .text.CoAPDeserialize_Options:0000000000000076 .L0 
C:\Users\stapi\AppData\Local\Temp\ccHaEyNx.s:256    .text.CoAPDeserialize_Options:000000000000007a .L0 
C:\Users\stapi\AppData\Local\Temp\ccHaEyNx.s:259    .text.CoAPDeserialize_Options:000000000000007c .L0 
C:\Users\stapi\AppData\Local\Temp\ccHaEyNx.s:262    .text.CoAPDeserialize_Options:000000000000007e .L0 
C:\Users\stapi\AppData\Local\Temp\ccHaEyNx.s:266    .text.CoAPDeserialize_Options:0000000000000084 .L0 
C:\Users\stapi\AppData\Local\Temp\ccHaEyNx.s:267    .text.CoAPDeserialize_Options:0000000000000084 .L0 
C:\Users\stapi\AppData\Local\Temp\ccHaEyNx.s:268    .text.CoAPDeserialize_Options:0000000000000084 .L0 
C:\Users\stapi\AppData\Local\Temp\ccHaEyNx.s:274    .text.CoAPDeserialize_Options:0000000000000086 .L0 
C:\Users\stapi\AppData\Local\Temp\ccHaEyNx.s:276    .text.CoAPDeserialize_Options:000000000000008a .L0 
C:\Users\stapi\AppData\Local\Temp\ccHaEyNx.s:277    .text.CoAPDeserialize_Options:000000000000008a .L0 
C:\Users\stapi\AppData\Local\Temp\ccHaEyNx.s:279    .text.CoAPDeserialize_Options:000000000000008e .L0 
C:\Users\stapi\AppData\Local\Temp\ccHaEyNx.s:280    .text.CoAPDeserialize_Options:000000000000008e .L0 
C:\Users\stapi\AppData\Local\Temp\ccHaEyNx.s:281    .text.CoAPDeserialize_Options:000000000000008e .L0 
C:\Users\stapi\AppData\Local\Temp\ccHaEyNx.s:282    .text.CoAPDeserialize_Options:000000000000008e .L0 
C:\Users\stapi\AppData\Local\Temp\ccHaEyNx.s:284    .text.CoAPDeserialize_Options:0000000000000092 .L0 
C:\Users\stapi\AppData\Local\Temp\ccHaEyNx.s:287    .text.CoAPDeserialize_Options:0000000000000098 .L0 
C:\Users\stapi\AppData\Local\Temp\ccHaEyNx.s:289    .text.CoAPDeserialize_Options:000000000000009c .L0 
C:\Users\stapi\AppData\Local\Temp\ccHaEyNx.s:291    .text.CoAPDeserialize_Options:000000000000009e .L0 
C:\Users\stapi\AppData\Local\Temp\ccHaEyNx.s:294    .text.CoAPDeserialize_Options:00000000000000a4 .L0 
C:\Users\stapi\AppData\Local\Temp\ccHaEyNx.s:295    .text.CoAPDeserialize_Options:00000000000000a4 .L0 
C:\Users\stapi\AppData\Local\Temp\ccHaEyNx.s:299    .text.CoAPDeserialize_Options:00000000000000a8 .L0 
C:\Users\stapi\AppData\Local\Temp\ccHaEyNx.s:300    .text.CoAPDeserialize_Options:00000000000000a8 .L0 
C:\Users\stapi\AppData\Local\Temp\ccHaEyNx.s:305    .text.CoAPDeserialize_Options:00000000000000b8 .L0 
C:\Users\stapi\AppData\Local\Temp\ccHaEyNx.s:310    .text.CoAPDeserialize_Options:00000000000000c8 .L0 
C:\Users\stapi\AppData\Local\Temp\ccHaEyNx.s:318    .text.CoAPDeserialize_Options:00000000000000da .L0 
C:\Users\stapi\AppData\Local\Temp\ccHaEyNx.s:321    .text.CoAPDeserialize_Options:00000000000000de .L0 
C:\Users\stapi\AppData\Local\Temp\ccHaEyNx.s:325    .text.CoAPDeserialize_Options:00000000000000e4 .L0 
C:\Users\stapi\AppData\Local\Temp\ccHaEyNx.s:327    .text.CoAPDeserialize_Options:00000000000000e6 .L0 
C:\Users\stapi\AppData\Local\Temp\ccHaEyNx.s:330    .text.CoAPDeserialize_Options:00000000000000ea .L0 
C:\Users\stapi\AppData\Local\Temp\ccHaEyNx.s:331    .text.CoAPDeserialize_Options:00000000000000ea .L0 
C:\Users\stapi\AppData\Local\Temp\ccHaEyNx.s:336    .text.CoAPDeserialize_Options:00000000000000f0 .L0 
C:\Users\stapi\AppData\Local\Temp\ccHaEyNx.s:338    .text.CoAPDeserialize_Options:00000000000000f4 .L0 
C:\Users\stapi\AppData\Local\Temp\ccHaEyNx.s:339    .text.CoAPDeserialize_Options:00000000000000f4 .L0 
C:\Users\stapi\AppData\Local\Temp\ccHaEyNx.s:342    .text.CoAPDeserialize_Options:00000000000000f8 .L0 
C:\Users\stapi\AppData\Local\Temp\ccHaEyNx.s:343    .text.CoAPDeserialize_Options:00000000000000f8 .L0 
C:\Users\stapi\AppData\Local\Temp\ccHaEyNx.s:344    .text.CoAPDeserialize_Options:00000000000000f8 .L0 
C:\Users\stapi\AppData\Local\Temp\ccHaEyNx.s:345    .text.CoAPDeserialize_Options:00000000000000f8 .L0 
C:\Users\stapi\AppData\Local\Temp\ccHaEyNx.s:347    .text.CoAPDeserialize_Options:00000000000000fc .L0 
C:\Users\stapi\AppData\Local\Temp\ccHaEyNx.s:350    .text.CoAPDeserialize_Options:0000000000000100 .L0 
C:\Users\stapi\AppData\Local\Temp\ccHaEyNx.s:352    .text.CoAPDeserialize_Options:0000000000000102 .L0 
C:\Users\stapi\AppData\Local\Temp\ccHaEyNx.s:358    .text.CoAPDeserialize_Options:000000000000010c .L0 
C:\Users\stapi\AppData\Local\Temp\ccHaEyNx.s:359    .text.CoAPDeserialize_Options:000000000000010c .L0 
C:\Users\stapi\AppData\Local\Temp\ccHaEyNx.s:362    .text.CoAPDeserialize_Options:0000000000000110 .L0 
C:\Users\stapi\AppData\Local\Temp\ccHaEyNx.s:363    .text.CoAPDeserialize_Options:0000000000000110 .L0 
C:\Users\stapi\AppData\Local\Temp\ccHaEyNx.s:366    .text.CoAPDeserialize_Options:0000000000000112 .L0 
C:\Users\stapi\AppData\Local\Temp\ccHaEyNx.s:367    .text.CoAPDeserialize_Options:0000000000000112 .L0 
C:\Users\stapi\AppData\Local\Temp\ccHaEyNx.s:374    .text.CoAPDeserialize_Options:0000000000000118 .L0 
C:\Users\stapi\AppData\Local\Temp\ccHaEyNx.s:376    .text.CoAPDeserialize_Options:000000000000011c .L0 
C:\Users\stapi\AppData\Local\Temp\ccHaEyNx.s:378    .text.CoAPDeserialize_Options:0000000000000120 .L0 
C:\Users\stapi\AppData\Local\Temp\ccHaEyNx.s:383    .text.CoAPDeserialize_Options:0000000000000124 .L0 
C:\Users\stapi\AppData\Local\Temp\ccHaEyNx.s:384    .text.CoAPDeserialize_Options:0000000000000124 .L0 
C:\Users\stapi\AppData\Local\Temp\ccHaEyNx.s:385    .text.CoAPDeserialize_Options:0000000000000124 .L0 
C:\Users\stapi\AppData\Local\Temp\ccHaEyNx.s:386    .text.CoAPDeserialize_Options:0000000000000124 .L0 
C:\Users\stapi\AppData\Local\Temp\ccHaEyNx.s:387    .text.CoAPDeserialize_Options:0000000000000124 .L0 
C:\Users\stapi\AppData\Local\Temp\ccHaEyNx.s:388    .text.CoAPDeserialize_Options:0000000000000124 .L0 
C:\Users\stapi\AppData\Local\Temp\ccHaEyNx.s:389    .text.CoAPDeserialize_Options:0000000000000124 .L0 
C:\Users\stapi\AppData\Local\Temp\ccHaEyNx.s:391    .text.CoAPDeserialize_Options:0000000000000128 .L0 
C:\Users\stapi\AppData\Local\Temp\ccHaEyNx.s:394    .text.CoAPDeserialize_Options:000000000000012c .L0 
C:\Users\stapi\AppData\Local\Temp\ccHaEyNx.s:397    .text.CoAPDeserialize_Options:0000000000000130 .L0 
C:\Users\stapi\AppData\Local\Temp\ccHaEyNx.s:398    .text.CoAPDeserialize_Options:0000000000000130 .L0 
C:\Users\stapi\AppData\Local\Temp\ccHaEyNx.s:399    .text.CoAPDeserialize_Options:0000000000000130 .L0 
C:\Users\stapi\AppData\Local\Temp\ccHaEyNx.s:400    .text.CoAPDeserialize_Options:0000000000000130 .L0 
C:\Users\stapi\AppData\Local\Temp\ccHaEyNx.s:401    .text.CoAPDeserialize_Options:0000000000000130 .L0 
C:\Users\stapi\AppData\Local\Temp\ccHaEyNx.s:402    .text.CoAPDeserialize_Options:0000000000000130 .L0 
C:\Users\stapi\AppData\Local\Temp\ccHaEyNx.s:406    .text.CoAPDeserialize_Options:0000000000000134 .L0 
C:\Users\stapi\AppData\Local\Temp\ccHaEyNx.s:409    .text.CoAPDeserialize_Options:0000000000000134 .L0 
C:\Users\stapi\AppData\Local\Temp\ccHaEyNx.s:412    .text.CoAPDeserialize_Options:0000000000000134 .L0 
C:\Users\stapi\AppData\Local\Temp\ccHaEyNx.s:413    .text.CoAPDeserialize_Options:0000000000000134 .L0 
C:\Users\stapi\AppData\Local\Temp\ccHaEyNx.s:419    .text.CoAPDeserialize_Options:0000000000000136 .L0 
C:\Users\stapi\AppData\Local\Temp\ccHaEyNx.s:420    .text.CoAPDeserialize_Options:000000000000013e .L0 
C:\Users\stapi\AppData\Local\Temp\ccHaEyNx.s:421    .text.CoAPDeserialize_Options:000000000000013e .L0 
C:\Users\stapi\AppData\Local\Temp\ccHaEyNx.s:422    .text.CoAPDeserialize_Options:000000000000013e .L0 
C:\Users\stapi\AppData\Local\Temp\ccHaEyNx.s:423    .text.CoAPDeserialize_Options:000000000000013e .L0 
C:\Users\stapi\AppData\Local\Temp\ccHaEyNx.s:424    .text.CoAPDeserialize_Options:000000000000013e .L0 
C:\Users\stapi\AppData\Local\Temp\ccHaEyNx.s:431    .text.CoAPDeserialize_Payload:0000000000000000 CoAPDeserialize_Payload
C:\Users\stapi\AppData\Local\Temp\ccHaEyNx.s:434    .text.CoAPDeserialize_Payload:0000000000000000 .L0 
C:\Users\stapi\AppData\Local\Temp\ccHaEyNx.s:436    .text.CoAPDeserialize_Payload:0000000000000000 .L0 
C:\Users\stapi\AppData\Local\Temp\ccHaEyNx.s:437    .text.CoAPDeserialize_Payload:0000000000000000 .L0 
C:\Users\stapi\AppData\Local\Temp\ccHaEyNx.s:438    .text.CoAPDeserialize_Payload:0000000000000000 .L0 
C:\Users\stapi\AppData\Local\Temp\ccHaEyNx.s:439    .text.CoAPDeserialize_Payload:0000000000000000 .L0 
C:\Users\stapi\AppData\Local\Temp\ccHaEyNx.s:442    .text.CoAPDeserialize_Payload:0000000000000008 .L0 
C:\Users\stapi\AppData\Local\Temp\ccHaEyNx.s:446    .text.CoAPDeserialize_Payload:000000000000000c .L0 
C:\Users\stapi\AppData\Local\Temp\ccHaEyNx.s:449    .text.CoAPDeserialize_Payload:0000000000000010 .L0 
C:\Users\stapi\AppData\Local\Temp\ccHaEyNx.s:450    .text.CoAPDeserialize_Payload:0000000000000010 .L0 
C:\Users\stapi\AppData\Local\Temp\ccHaEyNx.s:451    .text.CoAPDeserialize_Payload:0000000000000010 .L0 
C:\Users\stapi\AppData\Local\Temp\ccHaEyNx.s:453    .text.CoAPDeserialize_Payload:0000000000000014 .L0 
C:\Users\stapi\AppData\Local\Temp\ccHaEyNx.s:456    .text.CoAPDeserialize_Payload:0000000000000016 .L0 
C:\Users\stapi\AppData\Local\Temp\ccHaEyNx.s:458    .text.CoAPDeserialize_Payload:000000000000001a .L0 
C:\Users\stapi\AppData\Local\Temp\ccHaEyNx.s:459    .text.CoAPDeserialize_Payload:000000000000001a .L0 
C:\Users\stapi\AppData\Local\Temp\ccHaEyNx.s:461    .text.CoAPDeserialize_Payload:000000000000001c .L0 
C:\Users\stapi\AppData\Local\Temp\ccHaEyNx.s:462    .text.CoAPDeserialize_Payload:000000000000001c .L0 
C:\Users\stapi\AppData\Local\Temp\ccHaEyNx.s:466    .text.CoAPDeserialize_Payload:000000000000001e .L0 
C:\Users\stapi\AppData\Local\Temp\ccHaEyNx.s:468    .text.CoAPDeserialize_Payload:0000000000000020 .L0 
C:\Users\stapi\AppData\Local\Temp\ccHaEyNx.s:469    .text.CoAPDeserialize_Payload:0000000000000022 .L0 
C:\Users\stapi\AppData\Local\Temp\ccHaEyNx.s:476    .text.CoAPDeserialize_Message:0000000000000000 CoAPDeserialize_Message
C:\Users\stapi\AppData\Local\Temp\ccHaEyNx.s:479    .text.CoAPDeserialize_Message:0000000000000000 .L0 
C:\Users\stapi\AppData\Local\Temp\ccHaEyNx.s:481    .text.CoAPDeserialize_Message:0000000000000000 .L0 
C:\Users\stapi\AppData\Local\Temp\ccHaEyNx.s:482    .text.CoAPDeserialize_Message:0000000000000000 .L0 
C:\Users\stapi\AppData\Local\Temp\ccHaEyNx.s:483    .text.CoAPDeserialize_Message:0000000000000000 .L0 
C:\Users\stapi\AppData\Local\Temp\ccHaEyNx.s:484    .text.CoAPDeserialize_Message:0000000000000000 .L0 
C:\Users\stapi\AppData\Local\Temp\ccHaEyNx.s:485    .text.CoAPDeserialize_Message:0000000000000000 .L0 
C:\Users\stapi\AppData\Local\Temp\ccHaEyNx.s:486    .text.CoAPDeserialize_Message:0000000000000000 .L0 
C:\Users\stapi\AppData\Local\Temp\ccHaEyNx.s:488    .text.CoAPDeserialize_Message:0000000000000002 .L0 
C:\Users\stapi\AppData\Local\Temp\ccHaEyNx.s:489    .text.CoAPDeserialize_Message:0000000000000004 .L0 
C:\Users\stapi\AppData\Local\Temp\ccHaEyNx.s:494    .text.CoAPDeserialize_Message:000000000000000c .L0 
C:\Users\stapi\AppData\Local\Temp\ccHaEyNx.s:495    .text.CoAPDeserialize_Message:000000000000000c .L0 
C:\Users\stapi\AppData\Local\Temp\ccHaEyNx.s:496    .text.CoAPDeserialize_Message:000000000000000c .L0 
C:\Users\stapi\AppData\Local\Temp\ccHaEyNx.s:497    .text.CoAPDeserialize_Message:000000000000000c .L0 
C:\Users\stapi\AppData\Local\Temp\ccHaEyNx.s:500    .text.CoAPDeserialize_Message:000000000000000e .L0 
C:\Users\stapi\AppData\Local\Temp\ccHaEyNx.s:502    .text.CoAPDeserialize_Message:0000000000000012 .L0 
C:\Users\stapi\AppData\Local\Temp\ccHaEyNx.s:504    .text.CoAPDeserialize_Message:0000000000000014 .L0 
C:\Users\stapi\AppData\Local\Temp\ccHaEyNx.s:507    .text.CoAPDeserialize_Message:0000000000000018 .L0 
C:\Users\stapi\AppData\Local\Temp\ccHaEyNx.s:508    .text.CoAPDeserialize_Message:0000000000000018 .L0 
C:\Users\stapi\AppData\Local\Temp\ccHaEyNx.s:512    .text.CoAPDeserialize_Message:000000000000001c .L0 
C:\Users\stapi\AppData\Local\Temp\ccHaEyNx.s:515    .text.CoAPDeserialize_Message:0000000000000020 .L0 
C:\Users\stapi\AppData\Local\Temp\ccHaEyNx.s:516    .text.CoAPDeserialize_Message:0000000000000022 .L0 
C:\Users\stapi\AppData\Local\Temp\ccHaEyNx.s:517    .text.CoAPDeserialize_Message:0000000000000022 .L0 
C:\Users\stapi\AppData\Local\Temp\ccHaEyNx.s:519    .text.CoAPDeserialize_Message:0000000000000024 .L0 
C:\Users\stapi\AppData\Local\Temp\ccHaEyNx.s:521    .text.CoAPDeserialize_Message:0000000000000026 .L0 
C:\Users\stapi\AppData\Local\Temp\ccHaEyNx.s:523    .text.CoAPDeserialize_Message:0000000000000028 .L0 
C:\Users\stapi\AppData\Local\Temp\ccHaEyNx.s:527    .text.CoAPDeserialize_Message:000000000000002c .L0 
C:\Users\stapi\AppData\Local\Temp\ccHaEyNx.s:531    .text.CoAPDeserialize_Message:000000000000002e .L0 
C:\Users\stapi\AppData\Local\Temp\ccHaEyNx.s:534    .text.CoAPDeserialize_Message:0000000000000030 .L0 
C:\Users\stapi\AppData\Local\Temp\ccHaEyNx.s:535    .text.CoAPDeserialize_Message:0000000000000030 .L0 
C:\Users\stapi\AppData\Local\Temp\ccHaEyNx.s:538    .text.CoAPDeserialize_Message:0000000000000038 .L0 
C:\Users\stapi\AppData\Local\Temp\ccHaEyNx.s:539    .text.CoAPDeserialize_Message:0000000000000038 .L0 
C:\Users\stapi\AppData\Local\Temp\ccHaEyNx.s:541    .text.CoAPDeserialize_Message:000000000000003c .L0 
C:\Users\stapi\AppData\Local\Temp\ccHaEyNx.s:542    .text.CoAPDeserialize_Message:000000000000003c .L0 
C:\Users\stapi\AppData\Local\Temp\ccHaEyNx.s:545    .text.CoAPDeserialize_Message:000000000000003e .L0 
C:\Users\stapi\AppData\Local\Temp\ccHaEyNx.s:546    .text.CoAPDeserialize_Message:000000000000003e .L0 
C:\Users\stapi\AppData\Local\Temp\ccHaEyNx.s:549    .text.CoAPDeserialize_Message:0000000000000040 .L0 
C:\Users\stapi\AppData\Local\Temp\ccHaEyNx.s:550    .text.CoAPDeserialize_Message:0000000000000040 .L0 
C:\Users\stapi\AppData\Local\Temp\ccHaEyNx.s:556    .text.CoAPDeserialize_Message:000000000000004c .L0 
C:\Users\stapi\AppData\Local\Temp\ccHaEyNx.s:557    .text.CoAPDeserialize_Message:000000000000004c .L0 
C:\Users\stapi\AppData\Local\Temp\ccHaEyNx.s:559    .text.CoAPDeserialize_Message:0000000000000050 .L0 
C:\Users\stapi\AppData\Local\Temp\ccHaEyNx.s:560    .text.CoAPDeserialize_Message:0000000000000050 .L0 
C:\Users\stapi\AppData\Local\Temp\ccHaEyNx.s:563    .text.CoAPDeserialize_Message:0000000000000052 .L0 
C:\Users\stapi\AppData\Local\Temp\ccHaEyNx.s:566    .text.CoAPDeserialize_Message:0000000000000054 .L0 
C:\Users\stapi\AppData\Local\Temp\ccHaEyNx.s:567    .text.CoAPDeserialize_Message:0000000000000054 .L0 
C:\Users\stapi\AppData\Local\Temp\ccHaEyNx.s:568    .text.CoAPDeserialize_Message:0000000000000054 .L0 
C:\Users\stapi\AppData\Local\Temp\ccHaEyNx.s:575    .text.CoAPDeserialize_Message:0000000000000062 .L0 
C:\Users\stapi\AppData\Local\Temp\ccHaEyNx.s:576    .text.CoAPDeserialize_Message:0000000000000062 .L0 
C:\Users\stapi\AppData\Local\Temp\ccHaEyNx.s:579    .text.CoAPDeserialize_Message:0000000000000066 .L0 
C:\Users\stapi\AppData\Local\Temp\ccHaEyNx.s:580    .text.CoAPDeserialize_Message:0000000000000066 .L0 
C:\Users\stapi\AppData\Local\Temp\ccHaEyNx.s:581    .text.CoAPDeserialize_Message:0000000000000066 .L0 
C:\Users\stapi\AppData\Local\Temp\ccHaEyNx.s:590    .text.CoAPDeserialize_Message:0000000000000078 .L0 
C:\Users\stapi\AppData\Local\Temp\ccHaEyNx.s:591    .text.CoAPDeserialize_Message:0000000000000078 .L0 
C:\Users\stapi\AppData\Local\Temp\ccHaEyNx.s:595    .text.CoAPDeserialize_Message:000000000000007c .L0 
C:\Users\stapi\AppData\Local\Temp\ccHaEyNx.s:596    .text.CoAPDeserialize_Message:000000000000007c .L0 
C:\Users\stapi\AppData\Local\Temp\ccHaEyNx.s:597    .text.CoAPDeserialize_Message:000000000000007c .L0 
C:\Users\stapi\AppData\Local\Temp\ccHaEyNx.s:598    .text.CoAPDeserialize_Message:000000000000007c .L0 
C:\Users\stapi\AppData\Local\Temp\ccHaEyNx.s:599    .text.CoAPDeserialize_Message:000000000000007c .L0 
C:\Users\stapi\AppData\Local\Temp\ccHaEyNx.s:601    .text.CoAPDeserialize_Message:000000000000007c .L0 
C:\Users\stapi\AppData\Local\Temp\ccHaEyNx.s:603    .text.CoAPDeserialize_Message:0000000000000080 .L0 
C:\Users\stapi\AppData\Local\Temp\ccHaEyNx.s:606    .text.CoAPDeserialize_Message:0000000000000084 .L0 
C:\Users\stapi\AppData\Local\Temp\ccHaEyNx.s:68     .text.CoAPDeserialize_Header:0000000000000056 .L0 
C:\Users\stapi\AppData\Local\Temp\ccHaEyNx.s:105    .text.CoAPDeserialize_Token:0000000000000028 .L0 
C:\Users\stapi\AppData\Local\Temp\ccHaEyNx.s:427    .text.CoAPDeserialize_Options:000000000000013e .L0 
C:\Users\stapi\AppData\Local\Temp\ccHaEyNx.s:472    .text.CoAPDeserialize_Payload:0000000000000022 .L0 
C:\Users\stapi\AppData\Local\Temp\ccHaEyNx.s:609    .text.CoAPDeserialize_Message:0000000000000084 .L0 
                     .debug_frame:0000000000000000 .L0 
C:\Users\stapi\AppData\Local\Temp\ccHaEyNx.s:107    .rodata.CoAPDeserialize_Options.str1.4:0000000000000000 .LC0
C:\Users\stapi\AppData\Local\Temp\ccHaEyNx.s:110    .rodata.CoAPDeserialize_Options.str1.4:0000000000000008 .LC1
C:\Users\stapi\AppData\Local\Temp\ccHaEyNx.s:113    .rodata.CoAPDeserialize_Options.str1.4:0000000000000024 .LC2
C:\Users\stapi\AppData\Local\Temp\ccHaEyNx.s:370    .text.CoAPDeserialize_Options:0000000000000118 .L16
C:\Users\stapi\AppData\Local\Temp\ccHaEyNx.s:415    .text.CoAPDeserialize_Options:0000000000000136 .L4
C:\Users\stapi\AppData\Local\Temp\ccHaEyNx.s:270    .text.CoAPDeserialize_Options:0000000000000086 .L8
C:\Users\stapi\AppData\Local\Temp\ccHaEyNx.s:404    .text.CoAPDeserialize_Options:0000000000000134 .L28
C:\Users\stapi\AppData\Local\Temp\ccHaEyNx.s:334    .text.CoAPDeserialize_Options:00000000000000f0 .L13
C:\Users\stapi\AppData\Local\Temp\ccHaEyNx.s:160    .text.CoAPDeserialize_Options:0000000000000026 .L5
C:\Users\stapi\AppData\Local\Temp\ccHaEyNx.s:323    .text.CoAPDeserialize_Options:00000000000000e4 .L11
C:\Users\stapi\AppData\Local\Temp\ccHaEyNx.s:316    .text.CoAPDeserialize_Options:00000000000000da .L12
C:\Users\stapi\AppData\Local\Temp\ccHaEyNx.s:201    .text.CoAPDeserialize_Options:0000000000000048 .L27
C:\Users\stapi\AppData\Local\Temp\ccHaEyNx.s:206    .text.CoAPDeserialize_Options:000000000000004c .L10
C:\Users\stapi\AppData\Local\Temp\ccHaEyNx.s:230    .text.CoAPDeserialize_Options:0000000000000060 .L14
C:\Users\stapi\AppData\Local\Temp\ccHaEyNx.s:297    .text.CoAPDeserialize_Options:00000000000000a8 .L15
C:\Users\stapi\AppData\Local\Temp\ccHaEyNx.s:165    .text.CoAPDeserialize_Options:000000000000002a .L17
C:\Users\stapi\AppData\Local\Temp\ccHaEyNx.s:171    .text.CoAPDeserialize_Options:0000000000000030 .L6
C:\Users\stapi\AppData\Local\Temp\ccHaEyNx.s:464    .text.CoAPDeserialize_Payload:000000000000001e .L31
C:\Users\stapi\AppData\Local\Temp\ccHaEyNx.s:594    .text.CoAPDeserialize_Message:000000000000007c .L36
C:\Users\stapi\AppData\Local\Temp\ccHaEyNx.s:513    .text.CoAPDeserialize_Message:0000000000000020 .L32
C:\Users\stapi\AppData\Local\Temp\ccHaEyNx.s:530    .text.CoAPDeserialize_Message:000000000000002e .L34
C:\Users\stapi\AppData\Local\Temp\ccHaEyNx.s:510    .text.CoAPDeserialize_Message:000000000000001c .L35
C:\Users\stapi\AppData\Local\Temp\ccHaEyNx.s:1448   .debug_abbrev:0000000000000000 .Ldebug_abbrev0
C:\Users\stapi\AppData\Local\Temp\ccHaEyNx.s:2887   .debug_str:0000000000000140 .LASF56
C:\Users\stapi\AppData\Local\Temp\ccHaEyNx.s:2957   .debug_str:00000000000003b8 .LASF57
C:\Users\stapi\AppData\Local\Temp\ccHaEyNx.s:2883   .debug_str:00000000000000a8 .LASF58
C:\Users\stapi\AppData\Local\Temp\ccHaEyNx.s:2823   .debug_ranges:0000000000000000 .Ldebug_ranges0
C:\Users\stapi\AppData\Local\Temp\ccHaEyNx.s:2849   .debug_line:0000000000000000 .Ldebug_line0
C:\Users\stapi\AppData\Local\Temp\ccHaEyNx.s:2911   .debug_str:0000000000000296 .LASF0
C:\Users\stapi\AppData\Local\Temp\ccHaEyNx.s:2909   .debug_str:0000000000000288 .LASF1
C:\Users\stapi\AppData\Local\Temp\ccHaEyNx.s:2865   .debug_str:0000000000000045 .LASF2
C:\Users\stapi\AppData\Local\Temp\ccHaEyNx.s:2941   .debug_str:0000000000000347 .LASF3
C:\Users\stapi\AppData\Local\Temp\ccHaEyNx.s:2899   .debug_str:000000000000025d .LASF4
C:\Users\stapi\AppData\Local\Temp\ccHaEyNx.s:2949   .debug_str:000000000000037d .LASF5
C:\Users\stapi\AppData\Local\Temp\ccHaEyNx.s:2891   .debug_str:000000000000022e .LASF6
C:\Users\stapi\AppData\Local\Temp\ccHaEyNx.s:2943   .debug_str:000000000000035a .LASF10
C:\Users\stapi\AppData\Local\Temp\ccHaEyNx.s:2913   .debug_str:00000000000002a2 .LASF7
C:\Users\stapi\AppData\Local\Temp\ccHaEyNx.s:2919   .debug_str:00000000000002d6 .LASF8
C:\Users\stapi\AppData\Local\Temp\ccHaEyNx.s:2933   .debug_str:000000000000030f .LASF9
C:\Users\stapi\AppData\Local\Temp\ccHaEyNx.s:2863   .debug_str:000000000000003c .LASF11
C:\Users\stapi\AppData\Local\Temp\ccHaEyNx.s:2895   .debug_str:0000000000000244 .LASF27
C:\Users\stapi\AppData\Local\Temp\ccHaEyNx.s:2901   .debug_str:0000000000000266 .LASF12
C:\Users\stapi\AppData\Local\Temp\ccHaEyNx.s:2947   .debug_str:0000000000000378 .LASF13
C:\Users\stapi\AppData\Local\Temp\ccHaEyNx.s:2871   .debug_str:0000000000000065 .LASF14
C:\Users\stapi\AppData\Local\Temp\ccHaEyNx.s:2963   .debug_str:0000000000000474 .LASF15
C:\Users\stapi\AppData\Local\Temp\ccHaEyNx.s:2939   .debug_str:0000000000000330 .LASF16
C:\Users\stapi\AppData\Local\Temp\ccHaEyNx.s:2945   .debug_str:0000000000000365 .LASF17
C:\Users\stapi\AppData\Local\Temp\ccHaEyNx.s:2859   .debug_str:0000000000000020 .LASF18
C:\Users\stapi\AppData\Local\Temp\ccHaEyNx.s:2857   .debug_str:0000000000000018 .LASF19
C:\Users\stapi\AppData\Local\Temp\ccHaEyNx.s:2915   .debug_str:00000000000002b9 .LASF20
C:\Users\stapi\AppData\Local\Temp\ccHaEyNx.s:2897   .debug_str:0000000000000254 .LASF21
C:\Users\stapi\AppData\Local\Temp\ccHaEyNx.s:2925   .debug_str:00000000000002f2 .LASF22
C:\Users\stapi\AppData\Local\Temp\ccHaEyNx.s:2923   .debug_str:00000000000002ec .LASF23
C:\Users\stapi\AppData\Local\Temp\ccHaEyNx.s:2965   .debug_str:0000000000000489 .LASF24
C:\Users\stapi\AppData\Local\Temp\ccHaEyNx.s:2861   .debug_str:000000000000002e .LASF25
C:\Users\stapi\AppData\Local\Temp\ccHaEyNx.s:2931   .debug_str:0000000000000303 .LASF59
C:\Users\stapi\AppData\Local\Temp\ccHaEyNx.s:2907   .debug_str:000000000000027c .LASF26
C:\Users\stapi\AppData\Local\Temp\ccHaEyNx.s:2851   .debug_str:0000000000000000 .LASF28
C:\Users\stapi\AppData\Local\Temp\ccHaEyNx.s:2903   .debug_str:000000000000026b .LASF29
C:\Users\stapi\AppData\Local\Temp\ccHaEyNx.s:2893   .debug_str:000000000000023c .LASF30
C:\Users\stapi\AppData\Local\Temp\ccHaEyNx.s:2921   .debug_str:00000000000002e3 .LASF31
C:\Users\stapi\AppData\Local\Temp\ccHaEyNx.s:2967   .debug_str:0000000000000497 .LASF32
C:\Users\stapi\AppData\Local\Temp\ccHaEyNx.s:2905   .debug_str:0000000000000271 .LASF33
C:\Users\stapi\AppData\Local\Temp\ccHaEyNx.s:2977   .debug_str:00000000000004e1 .LASF34
C:\Users\stapi\AppData\Local\Temp\ccHaEyNx.s:2877   .debug_str:0000000000000082 .LASF35
C:\Users\stapi\AppData\Local\Temp\ccHaEyNx.s:2927   .debug_str:00000000000002f7 .LASF36
C:\Users\stapi\AppData\Local\Temp\ccHaEyNx.s:2867   .debug_str:000000000000004f .LASF37
C:\Users\stapi\AppData\Local\Temp\ccHaEyNx.s:2855   .debug_str:000000000000000e .LASF38
C:\Users\stapi\AppData\Local\Temp\ccHaEyNx.s:2961   .debug_str:0000000000000461 .LASF39
C:\Users\stapi\AppData\Local\Temp\ccHaEyNx.s:2951   .debug_str:000000000000038f .LASF40
C:\Users\stapi\AppData\Local\Temp\ccHaEyNx.s:2879   .debug_str:000000000000008a .LASF44
C:\Users\stapi\AppData\Local\Temp\ccHaEyNx.s:477    .text.CoAPDeserialize_Message:0000000000000000 .LFB25
C:\Users\stapi\AppData\Local\Temp\ccHaEyNx.s:607    .text.CoAPDeserialize_Message:0000000000000084 .LFE25
C:\Users\stapi\AppData\Local\Temp\ccHaEyNx.s:2063   .debug_loc:0000000000000000 .LLST21
C:\Users\stapi\AppData\Local\Temp\ccHaEyNx.s:2100   .debug_loc:000000000000005b .LLST22
C:\Users\stapi\AppData\Local\Temp\ccHaEyNx.s:2853   .debug_str:0000000000000007 .LASF41
C:\Users\stapi\AppData\Local\Temp\ccHaEyNx.s:2133   .debug_loc:00000000000000ab .LLST23
C:\Users\stapi\AppData\Local\Temp\ccHaEyNx.s:2959   .debug_str:000000000000045b .LASF42
C:\Users\stapi\AppData\Local\Temp\ccHaEyNx.s:2162   .debug_loc:00000000000000f0 .LLST24
C:\Users\stapi\AppData\Local\Temp\ccHaEyNx.s:2929   .debug_str:00000000000002fc .LASF43
C:\Users\stapi\AppData\Local\Temp\ccHaEyNx.s:2192   .debug_loc:000000000000013d .LLST25
C:\Users\stapi\AppData\Local\Temp\ccHaEyNx.s:2224   .debug_loc:000000000000018c .LLST26
C:\Users\stapi\AppData\Local\Temp\ccHaEyNx.s:536    .text.CoAPDeserialize_Message:0000000000000038 .LVL51
C:\Users\stapi\AppData\Local\Temp\ccHaEyNx.s:554    .text.CoAPDeserialize_Message:000000000000004c .LVL55
C:\Users\stapi\AppData\Local\Temp\ccHaEyNx.s:573    .text.CoAPDeserialize_Message:0000000000000062 .LVL59
C:\Users\stapi\AppData\Local\Temp\ccHaEyNx.s:588    .text.CoAPDeserialize_Message:0000000000000078 .LVL64
C:\Users\stapi\AppData\Local\Temp\ccHaEyNx.s:2917   .debug_str:00000000000002be .LASF45
C:\Users\stapi\AppData\Local\Temp\ccHaEyNx.s:432    .text.CoAPDeserialize_Payload:0000000000000000 .LFB24
C:\Users\stapi\AppData\Local\Temp\ccHaEyNx.s:470    .text.CoAPDeserialize_Payload:0000000000000022 .LFE24
C:\Users\stapi\AppData\Local\Temp\ccHaEyNx.s:2256   .debug_loc:00000000000001db .LLST18
C:\Users\stapi\AppData\Local\Temp\ccHaEyNx.s:2267   .debug_loc:00000000000001f9 .LLST19
C:\Users\stapi\AppData\Local\Temp\ccHaEyNx.s:2284   .debug_loc:0000000000000224 .LLST20
C:\Users\stapi\AppData\Local\Temp\ccHaEyNx.s:2953   .debug_str:0000000000000396 .LASF46
C:\Users\stapi\AppData\Local\Temp\ccHaEyNx.s:120    .text.CoAPDeserialize_Options:0000000000000000 .LFB23
C:\Users\stapi\AppData\Local\Temp\ccHaEyNx.s:425    .text.CoAPDeserialize_Options:000000000000013e .LFE23
C:\Users\stapi\AppData\Local\Temp\ccHaEyNx.s:2301   .debug_loc:000000000000024f .LLST3
C:\Users\stapi\AppData\Local\Temp\ccHaEyNx.s:2330   .debug_loc:0000000000000294 .LLST4
C:\Users\stapi\AppData\Local\Temp\ccHaEyNx.s:2355   .debug_loc:00000000000002ce .LLST5
C:\Users\stapi\AppData\Local\Temp\ccHaEyNx.s:2881   .debug_str:00000000000000a2 .LASF47
C:\Users\stapi\AppData\Local\Temp\ccHaEyNx.s:2369   .debug_loc:00000000000002ef .LLST6
C:\Users\stapi\AppData\Local\Temp\ccHaEyNx.s:2377   .debug_loc:0000000000000303 .LLST7
C:\Users\stapi\AppData\Local\Temp\ccHaEyNx.s:2396   .debug_loc:0000000000000337 .LLST8
C:\Users\stapi\AppData\Local\Temp\ccHaEyNx.s:2937   .debug_str:000000000000032b .LASF48
C:\Users\stapi\AppData\Local\Temp\ccHaEyNx.s:2414   .debug_loc:0000000000000363 .LLST9
C:\Users\stapi\AppData\Local\Temp\ccHaEyNx.s:2875   .debug_str:0000000000000078 .LASF49
C:\Users\stapi\AppData\Local\Temp\ccHaEyNx.s:2429   .debug_loc:000000000000038c .LLST10
C:\Users\stapi\AppData\Local\Temp\ccHaEyNx.s:149    .text.CoAPDeserialize_Options:000000000000001e .LBB4
C:\Users\stapi\AppData\Local\Temp\ccHaEyNx.s:2445   .debug_loc:00000000000003b6 .LLST11
C:\Users\stapi\AppData\Local\Temp\ccHaEyNx.s:2466   .debug_loc:00000000000003ee .LLST12
C:\Users\stapi\AppData\Local\Temp\ccHaEyNx.s:2511   .debug_loc:000000000000045f .LLST13
C:\Users\stapi\AppData\Local\Temp\ccHaEyNx.s:2530   .debug_loc:0000000000000493 .LLST14
C:\Users\stapi\AppData\Local\Temp\ccHaEyNx.s:2584   .debug_loc:0000000000000514 .LLST15
C:\Users\stapi\AppData\Local\Temp\ccHaEyNx.s:2628   .debug_loc:0000000000000568 .LLST16
C:\Users\stapi\AppData\Local\Temp\ccHaEyNx.s:2738   .debug_loc:0000000000000621 .LLST17
C:\Users\stapi\AppData\Local\Temp\ccHaEyNx.s:303    .text.CoAPDeserialize_Options:00000000000000b8 .LVL23
C:\Users\stapi\AppData\Local\Temp\ccHaEyNx.s:308    .text.CoAPDeserialize_Options:00000000000000c8 .LVL24
C:\Users\stapi\AppData\Local\Temp\ccHaEyNx.s:313    .text.CoAPDeserialize_Options:00000000000000d8 .LVL25
C:\Users\stapi\AppData\Local\Temp\ccHaEyNx.s:2975   .debug_str:00000000000004ca .LASF60
C:\Users\stapi\AppData\Local\Temp\ccHaEyNx.s:2889   .debug_str:0000000000000227 .LASF50
C:\Users\stapi\AppData\Local\Temp\ccHaEyNx.s:2955   .debug_str:00000000000003ae .LASF51
C:\Users\stapi\AppData\Local\Temp\ccHaEyNx.s:2885   .debug_str:0000000000000139 .LASF52
C:\Users\stapi\AppData\Local\Temp\ccHaEyNx.s:2971   .debug_str:00000000000004b6 .LASF53
C:\Users\stapi\AppData\Local\Temp\ccHaEyNx.s:2969   .debug_str:00000000000004a0 .LASF54
C:\Users\stapi\AppData\Local\Temp\ccHaEyNx.s:73     .text.CoAPDeserialize_Token:0000000000000000 .LFB21
C:\Users\stapi\AppData\Local\Temp\ccHaEyNx.s:103    .text.CoAPDeserialize_Token:0000000000000028 .LFE21
C:\Users\stapi\AppData\Local\Temp\ccHaEyNx.s:2754   .debug_loc:000000000000064b .LLST1
C:\Users\stapi\AppData\Local\Temp\ccHaEyNx.s:2774   .debug_loc:0000000000000679 .LLST2
C:\Users\stapi\AppData\Local\Temp\ccHaEyNx.s:94     .text.CoAPDeserialize_Token:000000000000001e .LVL4
C:\Users\stapi\AppData\Local\Temp\ccHaEyNx.s:2935   .debug_str:0000000000000314 .LASF55
C:\Users\stapi\AppData\Local\Temp\ccHaEyNx.s:14     .text.CoAPDeserialize_Header:0000000000000000 .LFB20
C:\Users\stapi\AppData\Local\Temp\ccHaEyNx.s:66     .text.CoAPDeserialize_Header:0000000000000056 .LFE20
C:\Users\stapi\AppData\Local\Temp\ccHaEyNx.s:2788   .debug_loc:000000000000069a .LLST0
C:\Users\stapi\AppData\Local\Temp\ccHaEyNx.s:2973   .debug_str:00000000000004bf .LASF61
C:\Users\stapi\AppData\Local\Temp\ccHaEyNx.s:2873   .debug_str:0000000000000071 .LASF62
C:\Users\stapi\AppData\Local\Temp\ccHaEyNx.s:2869   .debug_str:0000000000000054 .LASF63
C:\Users\stapi\AppData\Local\Temp\ccHaEyNx.s:480    .text.CoAPDeserialize_Message:0000000000000000 .LVL47
C:\Users\stapi\AppData\Local\Temp\ccHaEyNx.s:509    .text.CoAPDeserialize_Message:000000000000001c .LVL48
C:\Users\stapi\AppData\Local\Temp\ccHaEyNx.s:524    .text.CoAPDeserialize_Message:0000000000000028 .LVL49
C:\Users\stapi\AppData\Local\Temp\ccHaEyNx.s:529    .text.CoAPDeserialize_Message:000000000000002e .LVL50
C:\Users\stapi\AppData\Local\Temp\ccHaEyNx.s:593    .text.CoAPDeserialize_Message:000000000000007c .LVL65
C:\Users\stapi\AppData\Local\Temp\ccHaEyNx.s:604    .text.CoAPDeserialize_Message:0000000000000082 .LVL66
C:\Users\stapi\AppData\Local\Temp\ccHaEyNx.s:543    .text.CoAPDeserialize_Message:000000000000003e .LVL52
C:\Users\stapi\AppData\Local\Temp\ccHaEyNx.s:547    .text.CoAPDeserialize_Message:0000000000000040 .LVL53
C:\Users\stapi\AppData\Local\Temp\ccHaEyNx.s:552    .text.CoAPDeserialize_Message:0000000000000044 .LVL54
C:\Users\stapi\AppData\Local\Temp\ccHaEyNx.s:571    .text.CoAPDeserialize_Message:000000000000005a .LVL58
C:\Users\stapi\AppData\Local\Temp\ccHaEyNx.s:586    .text.CoAPDeserialize_Message:0000000000000070 .LVL63
C:\Users\stapi\AppData\Local\Temp\ccHaEyNx.s:561    .text.CoAPDeserialize_Message:0000000000000052 .LVL56
C:\Users\stapi\AppData\Local\Temp\ccHaEyNx.s:564    .text.CoAPDeserialize_Message:0000000000000054 .LVL57
C:\Users\stapi\AppData\Local\Temp\ccHaEyNx.s:578    .text.CoAPDeserialize_Message:0000000000000066 .LVL60
C:\Users\stapi\AppData\Local\Temp\ccHaEyNx.s:582    .text.CoAPDeserialize_Message:000000000000006a .LVL61
C:\Users\stapi\AppData\Local\Temp\ccHaEyNx.s:584    .text.CoAPDeserialize_Message:000000000000006e .LVL62
C:\Users\stapi\AppData\Local\Temp\ccHaEyNx.s:435    .text.CoAPDeserialize_Payload:0000000000000000 .LVL42
C:\Users\stapi\AppData\Local\Temp\ccHaEyNx.s:444    .text.CoAPDeserialize_Payload:000000000000000c .LVL43
C:\Users\stapi\AppData\Local\Temp\ccHaEyNx.s:454    .text.CoAPDeserialize_Payload:0000000000000016 .LVL45
C:\Users\stapi\AppData\Local\Temp\ccHaEyNx.s:463    .text.CoAPDeserialize_Payload:000000000000001e .LVL46
C:\Users\stapi\AppData\Local\Temp\ccHaEyNx.s:448    .text.CoAPDeserialize_Payload:0000000000000010 .LVL44
C:\Users\stapi\AppData\Local\Temp\ccHaEyNx.s:123    .text.CoAPDeserialize_Options:0000000000000000 .LVL5
C:\Users\stapi\AppData\Local\Temp\ccHaEyNx.s:159    .text.CoAPDeserialize_Options:0000000000000026 .LVL7
C:\Users\stapi\AppData\Local\Temp\ccHaEyNx.s:315    .text.CoAPDeserialize_Options:00000000000000da .LVL26
C:\Users\stapi\AppData\Local\Temp\ccHaEyNx.s:403    .text.CoAPDeserialize_Options:0000000000000134 .LVL40
C:\Users\stapi\AppData\Local\Temp\ccHaEyNx.s:130    .text.CoAPDeserialize_Options:0000000000000008 .LVL6
C:\Users\stapi\AppData\Local\Temp\ccHaEyNx.s:257    .text.CoAPDeserialize_Options:000000000000007c .LVL18
C:\Users\stapi\AppData\Local\Temp\ccHaEyNx.s:265    .text.CoAPDeserialize_Options:0000000000000084 .LVL20
C:\Users\stapi\AppData\Local\Temp\ccHaEyNx.s:245    .text.CoAPDeserialize_Options:0000000000000070 .LVL17
C:\Users\stapi\AppData\Local\Temp\ccHaEyNx.s:269    .text.CoAPDeserialize_Options:0000000000000086 .LVL21
C:\Users\stapi\AppData\Local\Temp\ccHaEyNx.s:414    .text.CoAPDeserialize_Options:0000000000000136 .LVL41
C:\Users\stapi\AppData\Local\Temp\ccHaEyNx.s:260    .text.CoAPDeserialize_Options:000000000000007e .LVL19
C:\Users\stapi\AppData\Local\Temp\ccHaEyNx.s:189    .text.CoAPDeserialize_Options:0000000000000040 .LVL10
C:\Users\stapi\AppData\Local\Temp\ccHaEyNx.s:197    .text.CoAPDeserialize_Options:0000000000000048 .LVL11
C:\Users\stapi\AppData\Local\Temp\ccHaEyNx.s:329    .text.CoAPDeserialize_Options:00000000000000ea .LVL28
C:\Users\stapi\AppData\Local\Temp\ccHaEyNx.s:333    .text.CoAPDeserialize_Options:00000000000000f0 .LVL29
C:\Users\stapi\AppData\Local\Temp\ccHaEyNx.s:170    .text.CoAPDeserialize_Options:0000000000000030 .LVL8
C:\Users\stapi\AppData\Local\Temp\ccHaEyNx.s:617    .debug_info:0000000000000000 .Ldebug_info0
C:\Users\stapi\AppData\Local\Temp\ccHaEyNx.s:369    .text.CoAPDeserialize_Options:0000000000000118 .LVL36
C:\Users\stapi\AppData\Local\Temp\ccHaEyNx.s:380    .text.CoAPDeserialize_Options:0000000000000124 .LVL37
C:\Users\stapi\AppData\Local\Temp\ccHaEyNx.s:186    .text.CoAPDeserialize_Options:000000000000003e .LVL9
C:\Users\stapi\AppData\Local\Temp\ccHaEyNx.s:221    .text.CoAPDeserialize_Options:000000000000005c .LVL14
C:\Users\stapi\AppData\Local\Temp\ccHaEyNx.s:229    .text.CoAPDeserialize_Options:0000000000000060 .LVL15
C:\Users\stapi\AppData\Local\Temp\ccHaEyNx.s:361    .text.CoAPDeserialize_Options:0000000000000110 .LVL34
C:\Users\stapi\AppData\Local\Temp\ccHaEyNx.s:395    .text.CoAPDeserialize_Options:0000000000000130 .LVL39
C:\Users\stapi\AppData\Local\Temp\ccHaEyNx.s:218    .text.CoAPDeserialize_Options:000000000000005a .LVL13
C:\Users\stapi\AppData\Local\Temp\ccHaEyNx.s:237    .text.CoAPDeserialize_Options:0000000000000068 .LVL16
C:\Users\stapi\AppData\Local\Temp\ccHaEyNx.s:296    .text.CoAPDeserialize_Options:00000000000000a8 .LVL22
C:\Users\stapi\AppData\Local\Temp\ccHaEyNx.s:348    .text.CoAPDeserialize_Options:0000000000000100 .LVL31
C:\Users\stapi\AppData\Local\Temp\ccHaEyNx.s:392    .text.CoAPDeserialize_Options:000000000000012c .LVL38
C:\Users\stapi\AppData\Local\Temp\ccHaEyNx.s:341    .text.CoAPDeserialize_Options:00000000000000f8 .LVL30
C:\Users\stapi\AppData\Local\Temp\ccHaEyNx.s:353    .text.CoAPDeserialize_Options:0000000000000106 .LVL32
C:\Users\stapi\AppData\Local\Temp\ccHaEyNx.s:356    .text.CoAPDeserialize_Options:000000000000010c .LVL33
C:\Users\stapi\AppData\Local\Temp\ccHaEyNx.s:76     .text.CoAPDeserialize_Token:0000000000000000 .LVL2
C:\Users\stapi\AppData\Local\Temp\ccHaEyNx.s:87     .text.CoAPDeserialize_Token:000000000000000e .LVL3
C:\Users\stapi\AppData\Local\Temp\ccHaEyNx.s:18     .text.CoAPDeserialize_Header:0000000000000000 .LVL0
C:\Users\stapi\AppData\Local\Temp\ccHaEyNx.s:63     .text.CoAPDeserialize_Header:0000000000000054 .LVL1
C:\Users\stapi\AppData\Local\Temp\ccHaEyNx.s:162    .text.CoAPDeserialize_Options:0000000000000026 .LBE4
C:\Users\stapi\AppData\Local\Temp\ccHaEyNx.s:172    .text.CoAPDeserialize_Options:0000000000000030 .LBB10
C:\Users\stapi\AppData\Local\Temp\ccHaEyNx.s:247    .text.CoAPDeserialize_Options:0000000000000070 .LBE10
C:\Users\stapi\AppData\Local\Temp\ccHaEyNx.s:271    .text.CoAPDeserialize_Options:0000000000000086 .LBB11
C:\Users\stapi\AppData\Local\Temp\ccHaEyNx.s:372    .text.CoAPDeserialize_Options:0000000000000118 .LBE11
C:\Users\stapi\AppData\Local\Temp\ccHaEyNx.s:381    .text.CoAPDeserialize_Options:0000000000000124 .LBB12
C:\Users\stapi\AppData\Local\Temp\ccHaEyNx.s:408    .text.CoAPDeserialize_Options:0000000000000134 .LBE12
C:\Users\stapi\AppData\Local\Temp\ccHaEyNx.s:410    .text.CoAPDeserialize_Options:0000000000000134 .LBB13
C:\Users\stapi\AppData\Local\Temp\ccHaEyNx.s:417    .text.CoAPDeserialize_Options:0000000000000136 .LBE13

UNDEFINED SYMBOLS
__riscv_save_1
memcpy
__riscv_restore_1
__riscv_save_2
HAL_Printf
__riscv_restore_2
