   1              		.file	"CoAPMessage.c"
   2              		.option nopic
   3              		.attribute arch, "rv32i2p0_m2p0_a2p0_f2p0_c2p0_b_p0p94"
   4              		.attribute unaligned_access, 0
   5              		.attribute stack_align, 16
   6              		.text
   7              	.Ltext0:
   8              		.cfi_sections	.debug_frame
   9              		.section	.text.CoAPOption_sort,"ax",@progbits
  10              		.align	1
  11              		.globl	CoAPOption_sort
  13              	CoAPOption_sort:
  14              	.LFB20:
  15              		.file 1 "C:/Users/stapi/OneDrive/Desktop/GD32VW553/V1_MQTT_OK/GD32VW55X_Wifi_BLE_SDK/GD32VW55x_REL
   1:C:/Users/stapi/OneDrive/Desktop/GD32VW553/V1_MQTT_OK/GD32VW55X_Wifi_BLE_SDK/GD32VW55x_RELEASE_V1.0.2/MSDK/cloud/alicloud/src/protocol/coap/local\CoAPMessage.c **** /*
   2:C:/Users/stapi/OneDrive/Desktop/GD32VW553/V1_MQTT_OK/GD32VW55X_Wifi_BLE_SDK/GD32VW55x_RELEASE_V1.0.2/MSDK/cloud/alicloud/src/protocol/coap/local\CoAPMessage.c ****  * Copyright (C) 2015-2018 Alibaba Group Holding Limited
   3:C:/Users/stapi/OneDrive/Desktop/GD32VW553/V1_MQTT_OK/GD32VW55X_Wifi_BLE_SDK/GD32VW55x_RELEASE_V1.0.2/MSDK/cloud/alicloud/src/protocol/coap/local\CoAPMessage.c ****  */
   4:C:/Users/stapi/OneDrive/Desktop/GD32VW553/V1_MQTT_OK/GD32VW55X_Wifi_BLE_SDK/GD32VW55x_RELEASE_V1.0.2/MSDK/cloud/alicloud/src/protocol/coap/local\CoAPMessage.c **** 
   5:C:/Users/stapi/OneDrive/Desktop/GD32VW553/V1_MQTT_OK/GD32VW55X_Wifi_BLE_SDK/GD32VW55x_RELEASE_V1.0.2/MSDK/cloud/alicloud/src/protocol/coap/local\CoAPMessage.c **** #include <stdio.h>
   6:C:/Users/stapi/OneDrive/Desktop/GD32VW553/V1_MQTT_OK/GD32VW55X_Wifi_BLE_SDK/GD32VW55x_RELEASE_V1.0.2/MSDK/cloud/alicloud/src/protocol/coap/local\CoAPMessage.c **** #include <string.h>
   7:C:/Users/stapi/OneDrive/Desktop/GD32VW553/V1_MQTT_OK/GD32VW55X_Wifi_BLE_SDK/GD32VW55x_RELEASE_V1.0.2/MSDK/cloud/alicloud/src/protocol/coap/local\CoAPMessage.c **** #include "CoAPExport.h"
   8:C:/Users/stapi/OneDrive/Desktop/GD32VW553/V1_MQTT_OK/GD32VW55X_Wifi_BLE_SDK/GD32VW55x_RELEASE_V1.0.2/MSDK/cloud/alicloud/src/protocol/coap/local\CoAPMessage.c **** #include "CoAPSerialize.h"
   9:C:/Users/stapi/OneDrive/Desktop/GD32VW553/V1_MQTT_OK/GD32VW55X_Wifi_BLE_SDK/GD32VW55x_RELEASE_V1.0.2/MSDK/cloud/alicloud/src/protocol/coap/local\CoAPMessage.c **** #include "CoAPDeserialize.h"
  10:C:/Users/stapi/OneDrive/Desktop/GD32VW553/V1_MQTT_OK/GD32VW55X_Wifi_BLE_SDK/GD32VW55x_RELEASE_V1.0.2/MSDK/cloud/alicloud/src/protocol/coap/local\CoAPMessage.c **** #include "CoAPResource.h"
  11:C:/Users/stapi/OneDrive/Desktop/GD32VW553/V1_MQTT_OK/GD32VW55X_Wifi_BLE_SDK/GD32VW55x_RELEASE_V1.0.2/MSDK/cloud/alicloud/src/protocol/coap/local\CoAPMessage.c **** #include "CoAPObserve.h"
  12:C:/Users/stapi/OneDrive/Desktop/GD32VW553/V1_MQTT_OK/GD32VW55X_Wifi_BLE_SDK/GD32VW55x_RELEASE_V1.0.2/MSDK/cloud/alicloud/src/protocol/coap/local\CoAPMessage.c **** #include "iot_import.h"
  13:C:/Users/stapi/OneDrive/Desktop/GD32VW553/V1_MQTT_OK/GD32VW55X_Wifi_BLE_SDK/GD32VW55x_RELEASE_V1.0.2/MSDK/cloud/alicloud/src/protocol/coap/local\CoAPMessage.c **** #include "CoAPPlatform.h"
  14:C:/Users/stapi/OneDrive/Desktop/GD32VW553/V1_MQTT_OK/GD32VW55X_Wifi_BLE_SDK/GD32VW55x_RELEASE_V1.0.2/MSDK/cloud/alicloud/src/protocol/coap/local\CoAPMessage.c **** #include "CoAPInternal.h"
  15:C:/Users/stapi/OneDrive/Desktop/GD32VW553/V1_MQTT_OK/GD32VW55X_Wifi_BLE_SDK/GD32VW55x_RELEASE_V1.0.2/MSDK/cloud/alicloud/src/protocol/coap/local\CoAPMessage.c **** #include "lite-list.h"
  16:C:/Users/stapi/OneDrive/Desktop/GD32VW553/V1_MQTT_OK/GD32VW55X_Wifi_BLE_SDK/GD32VW55x_RELEASE_V1.0.2/MSDK/cloud/alicloud/src/protocol/coap/local\CoAPMessage.c **** 
  17:C:/Users/stapi/OneDrive/Desktop/GD32VW553/V1_MQTT_OK/GD32VW55X_Wifi_BLE_SDK/GD32VW55x_RELEASE_V1.0.2/MSDK/cloud/alicloud/src/protocol/coap/local\CoAPMessage.c **** //#define DEBUG_OPEN_COAP_MSG_LOG
  18:C:/Users/stapi/OneDrive/Desktop/GD32VW553/V1_MQTT_OK/GD32VW55X_Wifi_BLE_SDK/GD32VW55x_RELEASE_V1.0.2/MSDK/cloud/alicloud/src/protocol/coap/local\CoAPMessage.c **** 
  19:C:/Users/stapi/OneDrive/Desktop/GD32VW553/V1_MQTT_OK/GD32VW55X_Wifi_BLE_SDK/GD32VW55x_RELEASE_V1.0.2/MSDK/cloud/alicloud/src/protocol/coap/local\CoAPMessage.c **** #define COAPAckMsg(header) \
  20:C:/Users/stapi/OneDrive/Desktop/GD32VW553/V1_MQTT_OK/GD32VW55X_Wifi_BLE_SDK/GD32VW55x_RELEASE_V1.0.2/MSDK/cloud/alicloud/src/protocol/coap/local\CoAPMessage.c ****     ((header.code == COAP_MSG_CODE_EMPTY_MESSAGE) \
  21:C:/Users/stapi/OneDrive/Desktop/GD32VW553/V1_MQTT_OK/GD32VW55X_Wifi_BLE_SDK/GD32VW55x_RELEASE_V1.0.2/MSDK/cloud/alicloud/src/protocol/coap/local\CoAPMessage.c ****      &&(header.type == COAP_MESSAGE_TYPE_ACK))
  22:C:/Users/stapi/OneDrive/Desktop/GD32VW553/V1_MQTT_OK/GD32VW55X_Wifi_BLE_SDK/GD32VW55x_RELEASE_V1.0.2/MSDK/cloud/alicloud/src/protocol/coap/local\CoAPMessage.c **** 
  23:C:/Users/stapi/OneDrive/Desktop/GD32VW553/V1_MQTT_OK/GD32VW55X_Wifi_BLE_SDK/GD32VW55x_RELEASE_V1.0.2/MSDK/cloud/alicloud/src/protocol/coap/local\CoAPMessage.c **** #define CoAPRespMsg(header)\
  24:C:/Users/stapi/OneDrive/Desktop/GD32VW553/V1_MQTT_OK/GD32VW55X_Wifi_BLE_SDK/GD32VW55x_RELEASE_V1.0.2/MSDK/cloud/alicloud/src/protocol/coap/local\CoAPMessage.c ****     ((header.code >= 0x40) && (header.code < 0xc0))
  25:C:/Users/stapi/OneDrive/Desktop/GD32VW553/V1_MQTT_OK/GD32VW55X_Wifi_BLE_SDK/GD32VW55x_RELEASE_V1.0.2/MSDK/cloud/alicloud/src/protocol/coap/local\CoAPMessage.c **** 
  26:C:/Users/stapi/OneDrive/Desktop/GD32VW553/V1_MQTT_OK/GD32VW55X_Wifi_BLE_SDK/GD32VW55x_RELEASE_V1.0.2/MSDK/cloud/alicloud/src/protocol/coap/local\CoAPMessage.c **** #define CoAPPingMsg(header)\
  27:C:/Users/stapi/OneDrive/Desktop/GD32VW553/V1_MQTT_OK/GD32VW55X_Wifi_BLE_SDK/GD32VW55x_RELEASE_V1.0.2/MSDK/cloud/alicloud/src/protocol/coap/local\CoAPMessage.c ****     ((header.code == COAP_MSG_CODE_EMPTY_MESSAGE)\
  28:C:/Users/stapi/OneDrive/Desktop/GD32VW553/V1_MQTT_OK/GD32VW55X_Wifi_BLE_SDK/GD32VW55x_RELEASE_V1.0.2/MSDK/cloud/alicloud/src/protocol/coap/local\CoAPMessage.c ****      && (header.type == COAP_MESSAGE_TYPE_CON))
  29:C:/Users/stapi/OneDrive/Desktop/GD32VW553/V1_MQTT_OK/GD32VW55X_Wifi_BLE_SDK/GD32VW55x_RELEASE_V1.0.2/MSDK/cloud/alicloud/src/protocol/coap/local\CoAPMessage.c **** 
  30:C:/Users/stapi/OneDrive/Desktop/GD32VW553/V1_MQTT_OK/GD32VW55X_Wifi_BLE_SDK/GD32VW55x_RELEASE_V1.0.2/MSDK/cloud/alicloud/src/protocol/coap/local\CoAPMessage.c **** #define CoAPResetMsg(header)\
  31:C:/Users/stapi/OneDrive/Desktop/GD32VW553/V1_MQTT_OK/GD32VW55X_Wifi_BLE_SDK/GD32VW55x_RELEASE_V1.0.2/MSDK/cloud/alicloud/src/protocol/coap/local\CoAPMessage.c ****     (header.type == COAP_MESSAGE_TYPE_RST)
  32:C:/Users/stapi/OneDrive/Desktop/GD32VW553/V1_MQTT_OK/GD32VW55X_Wifi_BLE_SDK/GD32VW55x_RELEASE_V1.0.2/MSDK/cloud/alicloud/src/protocol/coap/local\CoAPMessage.c **** 
  33:C:/Users/stapi/OneDrive/Desktop/GD32VW553/V1_MQTT_OK/GD32VW55X_Wifi_BLE_SDK/GD32VW55x_RELEASE_V1.0.2/MSDK/cloud/alicloud/src/protocol/coap/local\CoAPMessage.c **** #define CoAPCONRespMsg(header)\
  34:C:/Users/stapi/OneDrive/Desktop/GD32VW553/V1_MQTT_OK/GD32VW55X_Wifi_BLE_SDK/GD32VW55x_RELEASE_V1.0.2/MSDK/cloud/alicloud/src/protocol/coap/local\CoAPMessage.c ****     ((header.code == COAP_MSG_CODE_205_CONTENT) \
  35:C:/Users/stapi/OneDrive/Desktop/GD32VW553/V1_MQTT_OK/GD32VW55X_Wifi_BLE_SDK/GD32VW55x_RELEASE_V1.0.2/MSDK/cloud/alicloud/src/protocol/coap/local\CoAPMessage.c ****      && (header.type == COAP_MESSAGE_TYPE_CON))
  36:C:/Users/stapi/OneDrive/Desktop/GD32VW553/V1_MQTT_OK/GD32VW55X_Wifi_BLE_SDK/GD32VW55x_RELEASE_V1.0.2/MSDK/cloud/alicloud/src/protocol/coap/local\CoAPMessage.c **** 
  37:C:/Users/stapi/OneDrive/Desktop/GD32VW553/V1_MQTT_OK/GD32VW55X_Wifi_BLE_SDK/GD32VW55x_RELEASE_V1.0.2/MSDK/cloud/alicloud/src/protocol/coap/local\CoAPMessage.c **** #define CoAPReqMsg(header)\
  38:C:/Users/stapi/OneDrive/Desktop/GD32VW553/V1_MQTT_OK/GD32VW55X_Wifi_BLE_SDK/GD32VW55x_RELEASE_V1.0.2/MSDK/cloud/alicloud/src/protocol/coap/local\CoAPMessage.c ****     ((1 <= header.code) && (32 > header.code))
  39:C:/Users/stapi/OneDrive/Desktop/GD32VW553/V1_MQTT_OK/GD32VW55X_Wifi_BLE_SDK/GD32VW55x_RELEASE_V1.0.2/MSDK/cloud/alicloud/src/protocol/coap/local\CoAPMessage.c **** 
  40:C:/Users/stapi/OneDrive/Desktop/GD32VW553/V1_MQTT_OK/GD32VW55X_Wifi_BLE_SDK/GD32VW55x_RELEASE_V1.0.2/MSDK/cloud/alicloud/src/protocol/coap/local\CoAPMessage.c **** #define CoAPConMsg(header) (header.type == COAP_MESSAGE_TYPE_CON)
  41:C:/Users/stapi/OneDrive/Desktop/GD32VW553/V1_MQTT_OK/GD32VW55X_Wifi_BLE_SDK/GD32VW55x_RELEASE_V1.0.2/MSDK/cloud/alicloud/src/protocol/coap/local\CoAPMessage.c **** #define CoAPNonMsg(header) (header.type == COAP_MESSAGE_TYPE_NON)
  42:C:/Users/stapi/OneDrive/Desktop/GD32VW553/V1_MQTT_OK/GD32VW55X_Wifi_BLE_SDK/GD32VW55x_RELEASE_V1.0.2/MSDK/cloud/alicloud/src/protocol/coap/local\CoAPMessage.c **** 
  43:C:/Users/stapi/OneDrive/Desktop/GD32VW553/V1_MQTT_OK/GD32VW55X_Wifi_BLE_SDK/GD32VW55x_RELEASE_V1.0.2/MSDK/cloud/alicloud/src/protocol/coap/local\CoAPMessage.c **** #define NOKEEP 0
  44:C:/Users/stapi/OneDrive/Desktop/GD32VW553/V1_MQTT_OK/GD32VW55X_Wifi_BLE_SDK/GD32VW55x_RELEASE_V1.0.2/MSDK/cloud/alicloud/src/protocol/coap/local\CoAPMessage.c **** #define KEEPING 1
  45:C:/Users/stapi/OneDrive/Desktop/GD32VW553/V1_MQTT_OK/GD32VW55X_Wifi_BLE_SDK/GD32VW55x_RELEASE_V1.0.2/MSDK/cloud/alicloud/src/protocol/coap/local\CoAPMessage.c **** 
  46:C:/Users/stapi/OneDrive/Desktop/GD32VW553/V1_MQTT_OK/GD32VW55X_Wifi_BLE_SDK/GD32VW55x_RELEASE_V1.0.2/MSDK/cloud/alicloud/src/protocol/coap/local\CoAPMessage.c **** #define COAP_MAX_MESSAGE_ID     65535
  47:C:/Users/stapi/OneDrive/Desktop/GD32VW553/V1_MQTT_OK/GD32VW55X_Wifi_BLE_SDK/GD32VW55x_RELEASE_V1.0.2/MSDK/cloud/alicloud/src/protocol/coap/local\CoAPMessage.c **** #define COAP_MAX_RETRY_COUNT    4
  48:C:/Users/stapi/OneDrive/Desktop/GD32VW553/V1_MQTT_OK/GD32VW55X_Wifi_BLE_SDK/GD32VW55x_RELEASE_V1.0.2/MSDK/cloud/alicloud/src/protocol/coap/local\CoAPMessage.c **** #define COAP_ACK_TIMEOUT        600
  49:C:/Users/stapi/OneDrive/Desktop/GD32VW553/V1_MQTT_OK/GD32VW55X_Wifi_BLE_SDK/GD32VW55x_RELEASE_V1.0.2/MSDK/cloud/alicloud/src/protocol/coap/local\CoAPMessage.c **** #define COAP_ACK_RANDOM_FACTOR  1
  50:C:/Users/stapi/OneDrive/Desktop/GD32VW553/V1_MQTT_OK/GD32VW55X_Wifi_BLE_SDK/GD32VW55x_RELEASE_V1.0.2/MSDK/cloud/alicloud/src/protocol/coap/local\CoAPMessage.c **** 
  51:C:/Users/stapi/OneDrive/Desktop/GD32VW553/V1_MQTT_OK/GD32VW55X_Wifi_BLE_SDK/GD32VW55x_RELEASE_V1.0.2/MSDK/cloud/alicloud/src/protocol/coap/local\CoAPMessage.c **** int CoAPMessage_print_sendlist(CoAPContext *context);
  52:C:/Users/stapi/OneDrive/Desktop/GD32VW553/V1_MQTT_OK/GD32VW55X_Wifi_BLE_SDK/GD32VW55x_RELEASE_V1.0.2/MSDK/cloud/alicloud/src/protocol/coap/local\CoAPMessage.c **** 
  53:C:/Users/stapi/OneDrive/Desktop/GD32VW553/V1_MQTT_OK/GD32VW55X_Wifi_BLE_SDK/GD32VW55x_RELEASE_V1.0.2/MSDK/cloud/alicloud/src/protocol/coap/local\CoAPMessage.c **** int CoAPOption_sort(CoAPMessage *message)
  54:C:/Users/stapi/OneDrive/Desktop/GD32VW553/V1_MQTT_OK/GD32VW55X_Wifi_BLE_SDK/GD32VW55x_RELEASE_V1.0.2/MSDK/cloud/alicloud/src/protocol/coap/local\CoAPMessage.c **** {
  16              		.loc 1 54 1
  17              		.cfi_startproc
  18              	.LVL0:
  19 0000 17030000 		call	t0,__riscv_save_8
  19      E7020300 
  20              		.cfi_offset 23, -36
  21              		.cfi_offset 22, -32
  22              		.cfi_offset 21, -28
  23              		.cfi_offset 20, -24
  24              		.cfi_offset 19, -20
  25              		.cfi_offset 18, -16
  26              		.cfi_offset 9, -12
  27              		.cfi_offset 8, -8
  28              		.cfi_offset 1, -4
  29              		.cfi_def_cfa_offset 48
  55:C:/Users/stapi/OneDrive/Desktop/GD32VW553/V1_MQTT_OK/GD32VW55X_Wifi_BLE_SDK/GD32VW55x_RELEASE_V1.0.2/MSDK/cloud/alicloud/src/protocol/coap/local\CoAPMessage.c ****     int opt_count = message->optcount;
  30              		.loc 1 55 5
  31              		.loc 1 55 9 is_stmt 0
  32 0008 834AC506 		lbu	s5,108(a0)
  33              	.LVL1:
  56:C:/Users/stapi/OneDrive/Desktop/GD32VW553/V1_MQTT_OK/GD32VW55X_Wifi_BLE_SDK/GD32VW55x_RELEASE_V1.0.2/MSDK/cloud/alicloud/src/protocol/coap/local\CoAPMessage.c ****     CoAPMsgOption *options = message->options;
  34              		.loc 1 56 5 is_stmt 1
  57:C:/Users/stapi/OneDrive/Desktop/GD32VW553/V1_MQTT_OK/GD32VW55X_Wifi_BLE_SDK/GD32VW55x_RELEASE_V1.0.2/MSDK/cloud/alicloud/src/protocol/coap/local\CoAPMessage.c ****     CoAPMsgOption temp;
  35              		.loc 1 57 5
  58:C:/Users/stapi/OneDrive/Desktop/GD32VW553/V1_MQTT_OK/GD32VW55X_Wifi_BLE_SDK/GD32VW55x_RELEASE_V1.0.2/MSDK/cloud/alicloud/src/protocol/coap/local\CoAPMessage.c ****     int i, j;
  36              		.loc 1 58 5
  59:C:/Users/stapi/OneDrive/Desktop/GD32VW553/V1_MQTT_OK/GD32VW55X_Wifi_BLE_SDK/GD32VW55x_RELEASE_V1.0.2/MSDK/cloud/alicloud/src/protocol/coap/local\CoAPMessage.c **** 
  60:C:/Users/stapi/OneDrive/Desktop/GD32VW553/V1_MQTT_OK/GD32VW55X_Wifi_BLE_SDK/GD32VW55x_RELEASE_V1.0.2/MSDK/cloud/alicloud/src/protocol/coap/local\CoAPMessage.c ****     if (opt_count <= 1) {
  37              		.loc 1 60 5
  38              		.loc 1 60 8 is_stmt 0
  39 000c 8547     		li	a5,1
  54:C:/Users/stapi/OneDrive/Desktop/GD32VW553/V1_MQTT_OK/GD32VW55X_Wifi_BLE_SDK/GD32VW55x_RELEASE_V1.0.2/MSDK/cloud/alicloud/src/protocol/coap/local\CoAPMessage.c ****     int opt_count = message->optcount;
  40              		.loc 1 54 1
  41 000e 4111     		addi	sp,sp,-16
  42              		.cfi_def_cfa_offset 64
  43              		.loc 1 60 8
  44 0010 63D55707 		ble	s5,a5,.L10
  56:C:/Users/stapi/OneDrive/Desktop/GD32VW553/V1_MQTT_OK/GD32VW55X_Wifi_BLE_SDK/GD32VW55x_RELEASE_V1.0.2/MSDK/cloud/alicloud/src/protocol/coap/local\CoAPMessage.c ****     CoAPMsgOption temp;
  45              		.loc 1 56 20
  46 0014 1304C500 		addi	s0,a0,12
  47              	.LVL2:
  48 0018 228A     		mv	s4,s0
  61:C:/Users/stapi/OneDrive/Desktop/GD32VW553/V1_MQTT_OK/GD32VW55X_Wifi_BLE_SDK/GD32VW55x_RELEASE_V1.0.2/MSDK/cloud/alicloud/src/protocol/coap/local\CoAPMessage.c ****         return COAP_SUCCESS;
  62:C:/Users/stapi/OneDrive/Desktop/GD32VW553/V1_MQTT_OK/GD32VW55X_Wifi_BLE_SDK/GD32VW55x_RELEASE_V1.0.2/MSDK/cloud/alicloud/src/protocol/coap/local\CoAPMessage.c ****     }
  63:C:/Users/stapi/OneDrive/Desktop/GD32VW553/V1_MQTT_OK/GD32VW55X_Wifi_BLE_SDK/GD32VW55x_RELEASE_V1.0.2/MSDK/cloud/alicloud/src/protocol/coap/local\CoAPMessage.c **** 
  64:C:/Users/stapi/OneDrive/Desktop/GD32VW553/V1_MQTT_OK/GD32VW55X_Wifi_BLE_SDK/GD32VW55x_RELEASE_V1.0.2/MSDK/cloud/alicloud/src/protocol/coap/local\CoAPMessage.c ****     for (i = 1; i < opt_count; i++) {
  49              		.loc 1 64 12
  50 001a 8549     		li	s3,1
  65:C:/Users/stapi/OneDrive/Desktop/GD32VW553/V1_MQTT_OK/GD32VW55X_Wifi_BLE_SDK/GD32VW55x_RELEASE_V1.0.2/MSDK/cloud/alicloud/src/protocol/coap/local\CoAPMessage.c ****         if (options[i].num < options[i-1].num) {
  66:C:/Users/stapi/OneDrive/Desktop/GD32VW553/V1_MQTT_OK/GD32VW55X_Wifi_BLE_SDK/GD32VW55x_RELEASE_V1.0.2/MSDK/cloud/alicloud/src/protocol/coap/local\CoAPMessage.c ****             memcpy((void *)&temp, (void *)&options[i], sizeof(CoAPMsgOption));
  67:C:/Users/stapi/OneDrive/Desktop/GD32VW553/V1_MQTT_OK/GD32VW55X_Wifi_BLE_SDK/GD32VW55x_RELEASE_V1.0.2/MSDK/cloud/alicloud/src/protocol/coap/local\CoAPMessage.c ****             for (j = i - 1; j >= 0 && options[j].num > temp.num; j--) {
  51              		.loc 1 67 13
  52 001c FD5B     		li	s7,-1
  53              	.LVL3:
  54              	.L7:
  65:C:/Users/stapi/OneDrive/Desktop/GD32VW553/V1_MQTT_OK/GD32VW55X_Wifi_BLE_SDK/GD32VW55x_RELEASE_V1.0.2/MSDK/cloud/alicloud/src/protocol/coap/local\CoAPMessage.c ****         if (options[i].num < options[i-1].num) {
  55              		.loc 1 65 9 is_stmt 1
  56 001e D284     		mv	s1,s4
  65:C:/Users/stapi/OneDrive/Desktop/GD32VW553/V1_MQTT_OK/GD32VW55X_Wifi_BLE_SDK/GD32VW55x_RELEASE_V1.0.2/MSDK/cloud/alicloud/src/protocol/coap/local\CoAPMessage.c ****         if (options[i].num < options[i-1].num) {
  57              		.loc 1 65 23 is_stmt 0
  58 0020 03DB8400 		lhu	s6,8(s1)
  65:C:/Users/stapi/OneDrive/Desktop/GD32VW553/V1_MQTT_OK/GD32VW55X_Wifi_BLE_SDK/GD32VW55x_RELEASE_V1.0.2/MSDK/cloud/alicloud/src/protocol/coap/local\CoAPMessage.c ****         if (options[i].num < options[i-1].num) {
  59              		.loc 1 65 12
  60 0024 83D70400 		lhu	a5,0(s1)
  61 0028 210A     		addi	s4,s4,8
  62 002a 6375FB04 		bleu	a5,s6,.L3
  66:C:/Users/stapi/OneDrive/Desktop/GD32VW553/V1_MQTT_OK/GD32VW55X_Wifi_BLE_SDK/GD32VW55x_RELEASE_V1.0.2/MSDK/cloud/alicloud/src/protocol/coap/local\CoAPMessage.c ****             for (j = i - 1; j >= 0 && options[j].num > temp.num; j--) {
  63              		.loc 1 66 13 is_stmt 1
  64 002e 2146     		li	a2,8
  65 0030 D285     		mv	a1,s4
  66 0032 2800     		addi	a0,sp,8
  67 0034 97000000 		call	memcpy
  67      E7800000 
  68              	.LVL4:
  69              		.loc 1 67 13
  70 003c 1389F9FF 		addi	s2,s3,-1
  71              	.LVL5:
  72              		.loc 1 67 29
  73              	.L4:
  74              		.loc 1 67 36 is_stmt 0 discriminator 3
  75 0040 83D70400 		lhu	a5,0(s1)
  76 0044 13858400 		addi	a0,s1,8
  77 0048 637CFB00 		bleu	a5,s6,.L5
  68:C:/Users/stapi/OneDrive/Desktop/GD32VW553/V1_MQTT_OK/GD32VW55X_Wifi_BLE_SDK/GD32VW55x_RELEASE_V1.0.2/MSDK/cloud/alicloud/src/protocol/coap/local\CoAPMessage.c ****                 memcpy((void *)&options[j + 1], (void *)&options[j], sizeof(CoAPMsgOption));
  78              		.loc 1 68 17 is_stmt 1 discriminator 4
  79 004c A685     		mv	a1,s1
  80 004e 2146     		li	a2,8
  67:C:/Users/stapi/OneDrive/Desktop/GD32VW553/V1_MQTT_OK/GD32VW55X_Wifi_BLE_SDK/GD32VW55x_RELEASE_V1.0.2/MSDK/cloud/alicloud/src/protocol/coap/local\CoAPMessage.c ****                 memcpy((void *)&options[j + 1], (void *)&options[j], sizeof(CoAPMsgOption));
  81              		.loc 1 67 67 is_stmt 0 discriminator 4
  82 0050 7D19     		addi	s2,s2,-1
  83              	.LVL6:
  84              		.loc 1 68 17 discriminator 4
  85 0052 97000000 		call	memcpy
  85      E7800000 
  86              	.LVL7:
  67:C:/Users/stapi/OneDrive/Desktop/GD32VW553/V1_MQTT_OK/GD32VW55X_Wifi_BLE_SDK/GD32VW55x_RELEASE_V1.0.2/MSDK/cloud/alicloud/src/protocol/coap/local\CoAPMessage.c ****                 memcpy((void *)&options[j + 1], (void *)&options[j], sizeof(CoAPMsgOption));
  87              		.loc 1 67 66 is_stmt 1 discriminator 4
  67:C:/Users/stapi/OneDrive/Desktop/GD32VW553/V1_MQTT_OK/GD32VW55X_Wifi_BLE_SDK/GD32VW55x_RELEASE_V1.0.2/MSDK/cloud/alicloud/src/protocol/coap/local\CoAPMessage.c ****                 memcpy((void *)&options[j + 1], (void *)&options[j], sizeof(CoAPMsgOption));
  88              		.loc 1 67 29 discriminator 4
  67:C:/Users/stapi/OneDrive/Desktop/GD32VW553/V1_MQTT_OK/GD32VW55X_Wifi_BLE_SDK/GD32VW55x_RELEASE_V1.0.2/MSDK/cloud/alicloud/src/protocol/coap/local\CoAPMessage.c ****                 memcpy((void *)&options[j + 1], (void *)&options[j], sizeof(CoAPMsgOption));
  89              		.loc 1 67 13 is_stmt 0 discriminator 4
  90 005a E114     		addi	s1,s1,-8
  91 005c E31279FF 		bne	s2,s7,.L4
  92              	.L5:
  69:C:/Users/stapi/OneDrive/Desktop/GD32VW553/V1_MQTT_OK/GD32VW55X_Wifi_BLE_SDK/GD32VW55x_RELEASE_V1.0.2/MSDK/cloud/alicloud/src/protocol/coap/local\CoAPMessage.c ****             }
  70:C:/Users/stapi/OneDrive/Desktop/GD32VW553/V1_MQTT_OK/GD32VW55X_Wifi_BLE_SDK/GD32VW55x_RELEASE_V1.0.2/MSDK/cloud/alicloud/src/protocol/coap/local\CoAPMessage.c ****             memcpy((void *)&options[j + 1], (void *)&temp, sizeof(CoAPMsgOption));
  93              		.loc 1 70 13 is_stmt 1
  94              		.loc 1 70 36 is_stmt 0
  95 0060 13051900 		addi	a0,s2,1
  96              		.loc 1 70 13
  97 0064 2146     		li	a2,8
  98 0066 2C00     		addi	a1,sp,8
  99 0068 33658520 		sh3add	a0,a0,s0
 100 006c 97000000 		call	memcpy
 100      E7800000 
 101              	.LVL8:
 102              	.L3:
  64:C:/Users/stapi/OneDrive/Desktop/GD32VW553/V1_MQTT_OK/GD32VW55X_Wifi_BLE_SDK/GD32VW55x_RELEASE_V1.0.2/MSDK/cloud/alicloud/src/protocol/coap/local\CoAPMessage.c ****         if (options[i].num < options[i-1].num) {
 103              		.loc 1 64 32 is_stmt 1 discriminator 2
  64:C:/Users/stapi/OneDrive/Desktop/GD32VW553/V1_MQTT_OK/GD32VW55X_Wifi_BLE_SDK/GD32VW55x_RELEASE_V1.0.2/MSDK/cloud/alicloud/src/protocol/coap/local\CoAPMessage.c ****         if (options[i].num < options[i-1].num) {
 104              		.loc 1 64 33 is_stmt 0 discriminator 2
 105 0074 8509     		addi	s3,s3,1
 106              	.LVL9:
  64:C:/Users/stapi/OneDrive/Desktop/GD32VW553/V1_MQTT_OK/GD32VW55X_Wifi_BLE_SDK/GD32VW55x_RELEASE_V1.0.2/MSDK/cloud/alicloud/src/protocol/coap/local\CoAPMessage.c ****         if (options[i].num < options[i-1].num) {
 107              		.loc 1 64 17 is_stmt 1 discriminator 2
  64:C:/Users/stapi/OneDrive/Desktop/GD32VW553/V1_MQTT_OK/GD32VW55X_Wifi_BLE_SDK/GD32VW55x_RELEASE_V1.0.2/MSDK/cloud/alicloud/src/protocol/coap/local\CoAPMessage.c ****         if (options[i].num < options[i-1].num) {
 108              		.loc 1 64 5 is_stmt 0 discriminator 2
 109 0076 E3C459FB 		bgt	s5,s3,.L7
 110              	.LVL10:
 111              	.L10:
  71:C:/Users/stapi/OneDrive/Desktop/GD32VW553/V1_MQTT_OK/GD32VW55X_Wifi_BLE_SDK/GD32VW55x_RELEASE_V1.0.2/MSDK/cloud/alicloud/src/protocol/coap/local\CoAPMessage.c ****         }
  72:C:/Users/stapi/OneDrive/Desktop/GD32VW553/V1_MQTT_OK/GD32VW55X_Wifi_BLE_SDK/GD32VW55x_RELEASE_V1.0.2/MSDK/cloud/alicloud/src/protocol/coap/local\CoAPMessage.c ****     }
  73:C:/Users/stapi/OneDrive/Desktop/GD32VW553/V1_MQTT_OK/GD32VW55X_Wifi_BLE_SDK/GD32VW55x_RELEASE_V1.0.2/MSDK/cloud/alicloud/src/protocol/coap/local\CoAPMessage.c **** 
  74:C:/Users/stapi/OneDrive/Desktop/GD32VW553/V1_MQTT_OK/GD32VW55X_Wifi_BLE_SDK/GD32VW55x_RELEASE_V1.0.2/MSDK/cloud/alicloud/src/protocol/coap/local\CoAPMessage.c ****     return COAP_SUCCESS;
  75:C:/Users/stapi/OneDrive/Desktop/GD32VW553/V1_MQTT_OK/GD32VW55X_Wifi_BLE_SDK/GD32VW55x_RELEASE_V1.0.2/MSDK/cloud/alicloud/src/protocol/coap/local\CoAPMessage.c **** }
 112              		.loc 1 75 1
 113 007a 0145     		li	a0,0
 114 007c 4101     		addi	sp,sp,16
 115              		.cfi_def_cfa_offset 0
 116 007e 17030000 		tail	__riscv_restore_8
 116      67000300 
 117              		.cfi_restore 23
 118              		.cfi_restore 22
 119              		.cfi_restore 21
 120              		.cfi_restore 20
 121              		.cfi_restore 19
 122              		.cfi_restore 18
 123              		.cfi_restore 9
 124              		.cfi_restore 8
 125              		.cfi_restore 1
 126              		.cfi_def_cfa_offset -48
 127              		.cfi_endproc
 128              	.LFE20:
 130              		.section	.text.CoAPStrOption_add,"ax",@progbits
 131              		.align	1
 132              		.globl	CoAPStrOption_add
 134              	CoAPStrOption_add:
 135              	.LFB21:
  76:C:/Users/stapi/OneDrive/Desktop/GD32VW553/V1_MQTT_OK/GD32VW55X_Wifi_BLE_SDK/GD32VW55x_RELEASE_V1.0.2/MSDK/cloud/alicloud/src/protocol/coap/local\CoAPMessage.c **** 
  77:C:/Users/stapi/OneDrive/Desktop/GD32VW553/V1_MQTT_OK/GD32VW55X_Wifi_BLE_SDK/GD32VW55x_RELEASE_V1.0.2/MSDK/cloud/alicloud/src/protocol/coap/local\CoAPMessage.c **** int CoAPStrOption_add(CoAPMessage *message, unsigned short optnum, unsigned char *data, unsigned sh
  78:C:/Users/stapi/OneDrive/Desktop/GD32VW553/V1_MQTT_OK/GD32VW55X_Wifi_BLE_SDK/GD32VW55x_RELEASE_V1.0.2/MSDK/cloud/alicloud/src/protocol/coap/local\CoAPMessage.c **** {
 136              		.loc 1 78 1 is_stmt 1
 137              		.cfi_startproc
 138              	.LVL11:
  79:C:/Users/stapi/OneDrive/Desktop/GD32VW553/V1_MQTT_OK/GD32VW55X_Wifi_BLE_SDK/GD32VW55x_RELEASE_V1.0.2/MSDK/cloud/alicloud/src/protocol/coap/local\CoAPMessage.c ****     unsigned char *ptr = NULL;
 139              		.loc 1 79 5
  80:C:/Users/stapi/OneDrive/Desktop/GD32VW553/V1_MQTT_OK/GD32VW55X_Wifi_BLE_SDK/GD32VW55x_RELEASE_V1.0.2/MSDK/cloud/alicloud/src/protocol/coap/local\CoAPMessage.c ****     if (COAP_MSG_MAX_OPTION_NUM <= message->optcount) {
 140              		.loc 1 80 5
 141              		.loc 1 80 43 is_stmt 0
 142 0000 8347C506 		lbu	a5,108(a0)
 143              		.loc 1 80 8
 144 0004 2D47     		li	a4,11
 145 0006 6362F706 		bgtu	a5,a4,.L15
  78:C:/Users/stapi/OneDrive/Desktop/GD32VW553/V1_MQTT_OK/GD32VW55X_Wifi_BLE_SDK/GD32VW55x_RELEASE_V1.0.2/MSDK/cloud/alicloud/src/protocol/coap/local\CoAPMessage.c ****     unsigned char *ptr = NULL;
 146              		.loc 1 78 1
 147 000a 17030000 		call	t0,__riscv_save_3
 147      E7020300 
 148              		.cfi_offset 18, -16
 149              		.cfi_offset 9, -12
 150              		.cfi_offset 8, -8
 151              		.cfi_offset 1, -4
 152              		.cfi_def_cfa_offset 16
 153 0012 B3E7A720 		sh3add	a5,a5,a0
  81:C:/Users/stapi/OneDrive/Desktop/GD32VW553/V1_MQTT_OK/GD32VW55X_Wifi_BLE_SDK/GD32VW55x_RELEASE_V1.0.2/MSDK/cloud/alicloud/src/protocol/coap/local\CoAPMessage.c ****         return COAP_ERROR_INVALID_PARAM;
  82:C:/Users/stapi/OneDrive/Desktop/GD32VW553/V1_MQTT_OK/GD32VW55X_Wifi_BLE_SDK/GD32VW55x_RELEASE_V1.0.2/MSDK/cloud/alicloud/src/protocol/coap/local\CoAPMessage.c ****     }
  83:C:/Users/stapi/OneDrive/Desktop/GD32VW553/V1_MQTT_OK/GD32VW55X_Wifi_BLE_SDK/GD32VW55x_RELEASE_V1.0.2/MSDK/cloud/alicloud/src/protocol/coap/local\CoAPMessage.c **** 
  84:C:/Users/stapi/OneDrive/Desktop/GD32VW553/V1_MQTT_OK/GD32VW55X_Wifi_BLE_SDK/GD32VW55x_RELEASE_V1.0.2/MSDK/cloud/alicloud/src/protocol/coap/local\CoAPMessage.c ****     /* coap options will be sorted in coap send message */
  85:C:/Users/stapi/OneDrive/Desktop/GD32VW553/V1_MQTT_OK/GD32VW55X_Wifi_BLE_SDK/GD32VW55x_RELEASE_V1.0.2/MSDK/cloud/alicloud/src/protocol/coap/local\CoAPMessage.c ****     message->options[message->optcount].num = optnum;
 154              		.loc 1 85 45
 155 0016 2396B700 		sh	a1,12(a5)
  86:C:/Users/stapi/OneDrive/Desktop/GD32VW553/V1_MQTT_OK/GD32VW55X_Wifi_BLE_SDK/GD32VW55x_RELEASE_V1.0.2/MSDK/cloud/alicloud/src/protocol/coap/local\CoAPMessage.c ****     message->options[message->optcount].len = datalen;
 156              		.loc 1 86 45
 157 001a 2397D700 		sh	a3,14(a5)
 158 001e 3289     		mv	s2,a2
  78:C:/Users/stapi/OneDrive/Desktop/GD32VW553/V1_MQTT_OK/GD32VW55X_Wifi_BLE_SDK/GD32VW55x_RELEASE_V1.0.2/MSDK/cloud/alicloud/src/protocol/coap/local\CoAPMessage.c ****     unsigned char *ptr = NULL;
 159              		.loc 1 78 1
 160 0020 4111     		addi	sp,sp,-16
 161              		.cfi_def_cfa_offset 32
 162 0022 2A84     		mv	s0,a0
 163 0024 3686     		mv	a2,a3
 164              	.LVL12:
  85:C:/Users/stapi/OneDrive/Desktop/GD32VW553/V1_MQTT_OK/GD32VW55X_Wifi_BLE_SDK/GD32VW55x_RELEASE_V1.0.2/MSDK/cloud/alicloud/src/protocol/coap/local\CoAPMessage.c ****     message->options[message->optcount].len = datalen;
 165              		.loc 1 85 5 is_stmt 1
 166              		.loc 1 86 5
  87:C:/Users/stapi/OneDrive/Desktop/GD32VW553/V1_MQTT_OK/GD32VW55X_Wifi_BLE_SDK/GD32VW55x_RELEASE_V1.0.2/MSDK/cloud/alicloud/src/protocol/coap/local\CoAPMessage.c **** 
  88:C:/Users/stapi/OneDrive/Desktop/GD32VW553/V1_MQTT_OK/GD32VW55X_Wifi_BLE_SDK/GD32VW55x_RELEASE_V1.0.2/MSDK/cloud/alicloud/src/protocol/coap/local\CoAPMessage.c ****     if (datalen) {
 167              		.loc 1 88 5
  79:C:/Users/stapi/OneDrive/Desktop/GD32VW553/V1_MQTT_OK/GD32VW55X_Wifi_BLE_SDK/GD32VW55x_RELEASE_V1.0.2/MSDK/cloud/alicloud/src/protocol/coap/local\CoAPMessage.c ****     if (COAP_MSG_MAX_OPTION_NUM <= message->optcount) {
 168              		.loc 1 79 20 is_stmt 0
 169 0026 8144     		li	s1,0
 170              		.loc 1 88 8
 171 0028 95C2     		beq	a3,zero,.L14
  89:C:/Users/stapi/OneDrive/Desktop/GD32VW553/V1_MQTT_OK/GD32VW55X_Wifi_BLE_SDK/GD32VW55x_RELEASE_V1.0.2/MSDK/cloud/alicloud/src/protocol/coap/local\CoAPMessage.c ****         ptr = (unsigned char *)coap_malloc(datalen);
 172              		.loc 1 89 9 is_stmt 1
 173              		.loc 1 89 32 is_stmt 0
 174 002a 8145     		li	a1,0
 175              	.LVL13:
 176 002c 0145     		li	a0,0
 177              	.LVL14:
 178 002e 36C6     		sw	a3,12(sp)
 179 0030 97000000 		call	LITE_malloc_internal
 179      E7800000 
 180              	.LVL15:
 181 0038 AA84     		mv	s1,a0
 182              	.LVL16:
  90:C:/Users/stapi/OneDrive/Desktop/GD32VW553/V1_MQTT_OK/GD32VW55X_Wifi_BLE_SDK/GD32VW55x_RELEASE_V1.0.2/MSDK/cloud/alicloud/src/protocol/coap/local\CoAPMessage.c ****         if (NULL == ptr) {
 183              		.loc 1 90 9 is_stmt 1
  91:C:/Users/stapi/OneDrive/Desktop/GD32VW553/V1_MQTT_OK/GD32VW55X_Wifi_BLE_SDK/GD32VW55x_RELEASE_V1.0.2/MSDK/cloud/alicloud/src/protocol/coap/local\CoAPMessage.c ****             return COAP_ERROR_MALLOC;
 184              		.loc 1 91 20 is_stmt 0
 185 003a 93073010 		li	a5,259
  90:C:/Users/stapi/OneDrive/Desktop/GD32VW553/V1_MQTT_OK/GD32VW55X_Wifi_BLE_SDK/GD32VW55x_RELEASE_V1.0.2/MSDK/cloud/alicloud/src/protocol/coap/local\CoAPMessage.c ****         if (NULL == ptr) {
 186              		.loc 1 90 12
 187 003e 05C1     		beq	a0,zero,.L12
  92:C:/Users/stapi/OneDrive/Desktop/GD32VW553/V1_MQTT_OK/GD32VW55X_Wifi_BLE_SDK/GD32VW55x_RELEASE_V1.0.2/MSDK/cloud/alicloud/src/protocol/coap/local\CoAPMessage.c ****         }
  93:C:/Users/stapi/OneDrive/Desktop/GD32VW553/V1_MQTT_OK/GD32VW55X_Wifi_BLE_SDK/GD32VW55x_RELEASE_V1.0.2/MSDK/cloud/alicloud/src/protocol/coap/local\CoAPMessage.c ****         memcpy(ptr, data, datalen);
 188              		.loc 1 93 9 is_stmt 1
 189 0040 3246     		lw	a2,12(sp)
 190 0042 CA85     		mv	a1,s2
 191 0044 97000000 		call	memcpy
 191      E7800000 
 192              	.LVL17:
 193              	.L14:
  94:C:/Users/stapi/OneDrive/Desktop/GD32VW553/V1_MQTT_OK/GD32VW55X_Wifi_BLE_SDK/GD32VW55x_RELEASE_V1.0.2/MSDK/cloud/alicloud/src/protocol/coap/local\CoAPMessage.c ****     }
  95:C:/Users/stapi/OneDrive/Desktop/GD32VW553/V1_MQTT_OK/GD32VW55X_Wifi_BLE_SDK/GD32VW55x_RELEASE_V1.0.2/MSDK/cloud/alicloud/src/protocol/coap/local\CoAPMessage.c ****     message->options[message->optcount].val = ptr;
 194              		.loc 1 95 5
 195              		.loc 1 95 29 is_stmt 0
 196 004c 8347C406 		lbu	a5,108(s0)
 197              		.loc 1 95 45
 198 0050 33E78720 		sh3add	a4,a5,s0
  96:C:/Users/stapi/OneDrive/Desktop/GD32VW553/V1_MQTT_OK/GD32VW55X_Wifi_BLE_SDK/GD32VW55x_RELEASE_V1.0.2/MSDK/cloud/alicloud/src/protocol/coap/local\CoAPMessage.c ****     message->optcount ++;
 199              		.loc 1 96 23
 200 0054 8507     		addi	a5,a5,1
  95:C:/Users/stapi/OneDrive/Desktop/GD32VW553/V1_MQTT_OK/GD32VW55X_Wifi_BLE_SDK/GD32VW55x_RELEASE_V1.0.2/MSDK/cloud/alicloud/src/protocol/coap/local\CoAPMessage.c ****     message->optcount ++;
 201              		.loc 1 95 45
 202 0056 04CB     		sw	s1,16(a4)
 203              		.loc 1 96 5 is_stmt 1
 204              		.loc 1 96 23 is_stmt 0
 205 0058 2306F406 		sb	a5,108(s0)
  97:C:/Users/stapi/OneDrive/Desktop/GD32VW553/V1_MQTT_OK/GD32VW55X_Wifi_BLE_SDK/GD32VW55x_RELEASE_V1.0.2/MSDK/cloud/alicloud/src/protocol/coap/local\CoAPMessage.c **** 
  98:C:/Users/stapi/OneDrive/Desktop/GD32VW553/V1_MQTT_OK/GD32VW55X_Wifi_BLE_SDK/GD32VW55x_RELEASE_V1.0.2/MSDK/cloud/alicloud/src/protocol/coap/local\CoAPMessage.c ****     return COAP_SUCCESS;
 206              		.loc 1 98 5 is_stmt 1
 207              		.loc 1 98 12 is_stmt 0
 208 005c 8147     		li	a5,0
 209              	.L12:
  99:C:/Users/stapi/OneDrive/Desktop/GD32VW553/V1_MQTT_OK/GD32VW55X_Wifi_BLE_SDK/GD32VW55x_RELEASE_V1.0.2/MSDK/cloud/alicloud/src/protocol/coap/local\CoAPMessage.c **** 
 100:C:/Users/stapi/OneDrive/Desktop/GD32VW553/V1_MQTT_OK/GD32VW55X_Wifi_BLE_SDK/GD32VW55x_RELEASE_V1.0.2/MSDK/cloud/alicloud/src/protocol/coap/local\CoAPMessage.c **** }
 210              		.loc 1 100 1
 211 005e 3E85     		mv	a0,a5
 212 0060 4101     		addi	sp,sp,16
 213              		.cfi_def_cfa_offset 0
 214 0062 17030000 		tail	__riscv_restore_3
 214      67000300 
 215              		.cfi_restore 18
 216              		.cfi_restore 9
 217              		.cfi_restore 8
 218              		.cfi_restore 1
 219              		.cfi_def_cfa_offset -16
 220              	.LVL18:
 221              	.L15:
 222              		.cfi_def_cfa_offset 0
  81:C:/Users/stapi/OneDrive/Desktop/GD32VW553/V1_MQTT_OK/GD32VW55X_Wifi_BLE_SDK/GD32VW55x_RELEASE_V1.0.2/MSDK/cloud/alicloud/src/protocol/coap/local\CoAPMessage.c ****     }
 223              		.loc 1 81 16
 224 006a 93071010 		li	a5,257
 225              		.loc 1 100 1
 226 006e 3E85     		mv	a0,a5
 227              	.LVL19:
 228 0070 8280     		ret
 229              		.cfi_endproc
 230              	.LFE21:
 232              		.section	.text.CoAPStrOption_get,"ax",@progbits
 233              		.align	1
 234              		.globl	CoAPStrOption_get
 236              	CoAPStrOption_get:
 237              	.LFB22:
 101:C:/Users/stapi/OneDrive/Desktop/GD32VW553/V1_MQTT_OK/GD32VW55X_Wifi_BLE_SDK/GD32VW55x_RELEASE_V1.0.2/MSDK/cloud/alicloud/src/protocol/coap/local\CoAPMessage.c **** 
 102:C:/Users/stapi/OneDrive/Desktop/GD32VW553/V1_MQTT_OK/GD32VW55X_Wifi_BLE_SDK/GD32VW55x_RELEASE_V1.0.2/MSDK/cloud/alicloud/src/protocol/coap/local\CoAPMessage.c **** int CoAPStrOption_get(CoAPMessage *message, unsigned short optnum, unsigned char *data, unsigned sh
 103:C:/Users/stapi/OneDrive/Desktop/GD32VW553/V1_MQTT_OK/GD32VW55X_Wifi_BLE_SDK/GD32VW55x_RELEASE_V1.0.2/MSDK/cloud/alicloud/src/protocol/coap/local\CoAPMessage.c **** {
 238              		.loc 1 103 1 is_stmt 1
 239              		.cfi_startproc
 240              	.LVL20:
 241 0000 17030000 		call	t0,__riscv_save_2
 241      E7020300 
 242              		.cfi_offset 9, -12
 243              		.cfi_offset 8, -8
 244              		.cfi_offset 1, -4
 245              		.cfi_def_cfa_offset 16
 104:C:/Users/stapi/OneDrive/Desktop/GD32VW553/V1_MQTT_OK/GD32VW55X_Wifi_BLE_SDK/GD32VW55x_RELEASE_V1.0.2/MSDK/cloud/alicloud/src/protocol/coap/local\CoAPMessage.c ****     unsigned char index = 0;
 246              		.loc 1 104 5
 247              	.LVL21:
 105:C:/Users/stapi/OneDrive/Desktop/GD32VW553/V1_MQTT_OK/GD32VW55X_Wifi_BLE_SDK/GD32VW55x_RELEASE_V1.0.2/MSDK/cloud/alicloud/src/protocol/coap/local\CoAPMessage.c **** 
 106:C:/Users/stapi/OneDrive/Desktop/GD32VW553/V1_MQTT_OK/GD32VW55X_Wifi_BLE_SDK/GD32VW55x_RELEASE_V1.0.2/MSDK/cloud/alicloud/src/protocol/coap/local\CoAPMessage.c ****     for (index = 0; index < message->optcount; index++) {
 248              		.loc 1 106 5
 103:C:/Users/stapi/OneDrive/Desktop/GD32VW553/V1_MQTT_OK/GD32VW55X_Wifi_BLE_SDK/GD32VW55x_RELEASE_V1.0.2/MSDK/cloud/alicloud/src/protocol/coap/local\CoAPMessage.c ****     unsigned char index = 0;
 249              		.loc 1 103 1 is_stmt 0
 250 0008 2A84     		mv	s0,a0
 251 000a 3285     		mv	a0,a2
 252              	.LVL22:
 253              		.loc 1 106 36
 254 000c 0346C406 		lbu	a2,108(s0)
 255              	.LVL23:
 103:C:/Users/stapi/OneDrive/Desktop/GD32VW553/V1_MQTT_OK/GD32VW55X_Wifi_BLE_SDK/GD32VW55x_RELEASE_V1.0.2/MSDK/cloud/alicloud/src/protocol/coap/local\CoAPMessage.c ****     unsigned char index = 0;
 256              		.loc 1 103 1
 257 0010 B684     		mv	s1,a3
 258 0012 1307C400 		addi	a4,s0,12
 259              		.loc 1 106 5
 260 0016 8147     		li	a5,0
 261              	.LVL24:
 262              	.L24:
 263              		.loc 1 106 21 is_stmt 1 discriminator 1
 264              		.loc 1 106 5 is_stmt 0 discriminator 1
 265 0018 93F6F70F 		andi	a3,a5,0xff
 266 001c 63E5C600 		bgtu	a2,a3,.L26
 107:C:/Users/stapi/OneDrive/Desktop/GD32VW553/V1_MQTT_OK/GD32VW55X_Wifi_BLE_SDK/GD32VW55x_RELEASE_V1.0.2/MSDK/cloud/alicloud/src/protocol/coap/local\CoAPMessage.c ****         if (message->options[index].num == optnum) {
 108:C:/Users/stapi/OneDrive/Desktop/GD32VW553/V1_MQTT_OK/GD32VW55X_Wifi_BLE_SDK/GD32VW55x_RELEASE_V1.0.2/MSDK/cloud/alicloud/src/protocol/coap/local\CoAPMessage.c ****             if (*datalen >= message->options[index].len) {
 109:C:/Users/stapi/OneDrive/Desktop/GD32VW553/V1_MQTT_OK/GD32VW55X_Wifi_BLE_SDK/GD32VW55x_RELEASE_V1.0.2/MSDK/cloud/alicloud/src/protocol/coap/local\CoAPMessage.c ****                 memcpy(data, message->options[index].val, message->options[index].len);
 110:C:/Users/stapi/OneDrive/Desktop/GD32VW553/V1_MQTT_OK/GD32VW55X_Wifi_BLE_SDK/GD32VW55x_RELEASE_V1.0.2/MSDK/cloud/alicloud/src/protocol/coap/local\CoAPMessage.c ****                 *datalen = message->options[index].len;
 111:C:/Users/stapi/OneDrive/Desktop/GD32VW553/V1_MQTT_OK/GD32VW55X_Wifi_BLE_SDK/GD32VW55x_RELEASE_V1.0.2/MSDK/cloud/alicloud/src/protocol/coap/local\CoAPMessage.c ****                 return COAP_SUCCESS;
 112:C:/Users/stapi/OneDrive/Desktop/GD32VW553/V1_MQTT_OK/GD32VW55X_Wifi_BLE_SDK/GD32VW55x_RELEASE_V1.0.2/MSDK/cloud/alicloud/src/protocol/coap/local\CoAPMessage.c ****             } else {
 113:C:/Users/stapi/OneDrive/Desktop/GD32VW553/V1_MQTT_OK/GD32VW55X_Wifi_BLE_SDK/GD32VW55x_RELEASE_V1.0.2/MSDK/cloud/alicloud/src/protocol/coap/local\CoAPMessage.c ****                 return COAP_ERROR_INVALID_LENGTH;
 114:C:/Users/stapi/OneDrive/Desktop/GD32VW553/V1_MQTT_OK/GD32VW55X_Wifi_BLE_SDK/GD32VW55x_RELEASE_V1.0.2/MSDK/cloud/alicloud/src/protocol/coap/local\CoAPMessage.c ****             }
 115:C:/Users/stapi/OneDrive/Desktop/GD32VW553/V1_MQTT_OK/GD32VW55X_Wifi_BLE_SDK/GD32VW55x_RELEASE_V1.0.2/MSDK/cloud/alicloud/src/protocol/coap/local\CoAPMessage.c ****         }
 116:C:/Users/stapi/OneDrive/Desktop/GD32VW553/V1_MQTT_OK/GD32VW55X_Wifi_BLE_SDK/GD32VW55x_RELEASE_V1.0.2/MSDK/cloud/alicloud/src/protocol/coap/local\CoAPMessage.c ****     }
 117:C:/Users/stapi/OneDrive/Desktop/GD32VW553/V1_MQTT_OK/GD32VW55X_Wifi_BLE_SDK/GD32VW55x_RELEASE_V1.0.2/MSDK/cloud/alicloud/src/protocol/coap/local\CoAPMessage.c **** 
 118:C:/Users/stapi/OneDrive/Desktop/GD32VW553/V1_MQTT_OK/GD32VW55X_Wifi_BLE_SDK/GD32VW55x_RELEASE_V1.0.2/MSDK/cloud/alicloud/src/protocol/coap/local\CoAPMessage.c ****     return COAP_ERROR_NOT_FOUND;
 267              		.loc 1 118 12
 268 0020 93077010 		li	a5,263
 269              	.LVL25:
 270 0024 25A8     		j	.L23
 271              	.LVL26:
 272              	.L26:
 107:C:/Users/stapi/OneDrive/Desktop/GD32VW553/V1_MQTT_OK/GD32VW55X_Wifi_BLE_SDK/GD32VW55x_RELEASE_V1.0.2/MSDK/cloud/alicloud/src/protocol/coap/local\CoAPMessage.c ****         if (message->options[index].num == optnum) {
 273              		.loc 1 107 9 is_stmt 1
 107:C:/Users/stapi/OneDrive/Desktop/GD32VW553/V1_MQTT_OK/GD32VW55X_Wifi_BLE_SDK/GD32VW55x_RELEASE_V1.0.2/MSDK/cloud/alicloud/src/protocol/coap/local\CoAPMessage.c ****         if (message->options[index].num == optnum) {
 274              		.loc 1 107 36 is_stmt 0
 275 0026 03580700 		lhu	a6,0(a4)
 107:C:/Users/stapi/OneDrive/Desktop/GD32VW553/V1_MQTT_OK/GD32VW55X_Wifi_BLE_SDK/GD32VW55x_RELEASE_V1.0.2/MSDK/cloud/alicloud/src/protocol/coap/local\CoAPMessage.c ****         if (message->options[index].num == optnum) {
 276              		.loc 1 107 12
 277 002a 93861700 		addi	a3,a5,1
 278 002e 2107     		addi	a4,a4,8
 279 0030 631BB802 		bne	a6,a1,.L27
 108:C:/Users/stapi/OneDrive/Desktop/GD32VW553/V1_MQTT_OK/GD32VW55X_Wifi_BLE_SDK/GD32VW55x_RELEASE_V1.0.2/MSDK/cloud/alicloud/src/protocol/coap/local\CoAPMessage.c ****                 memcpy(data, message->options[index].val, message->options[index].len);
 280              		.loc 1 108 13 is_stmt 1
 281 0034 33E48720 		sh3add	s0,a5,s0
 282              	.LVL27:
 108:C:/Users/stapi/OneDrive/Desktop/GD32VW553/V1_MQTT_OK/GD32VW55X_Wifi_BLE_SDK/GD32VW55x_RELEASE_V1.0.2/MSDK/cloud/alicloud/src/protocol/coap/local\CoAPMessage.c ****                 memcpy(data, message->options[index].val, message->options[index].len);
 283              		.loc 1 108 16 is_stmt 0
 284 0038 03D70400 		lhu	a4,0(s1)
 108:C:/Users/stapi/OneDrive/Desktop/GD32VW553/V1_MQTT_OK/GD32VW55X_Wifi_BLE_SDK/GD32VW55x_RELEASE_V1.0.2/MSDK/cloud/alicloud/src/protocol/coap/local\CoAPMessage.c ****                 memcpy(data, message->options[index].val, message->options[index].len);
 285              		.loc 1 108 52
 286 003c 0356E400 		lhu	a2,14(s0)
 113:C:/Users/stapi/OneDrive/Desktop/GD32VW553/V1_MQTT_OK/GD32VW55X_Wifi_BLE_SDK/GD32VW55x_RELEASE_V1.0.2/MSDK/cloud/alicloud/src/protocol/coap/local\CoAPMessage.c ****             }
 287              		.loc 1 113 24
 288 0040 93074010 		li	a5,260
 289              	.LVL28:
 108:C:/Users/stapi/OneDrive/Desktop/GD32VW553/V1_MQTT_OK/GD32VW55X_Wifi_BLE_SDK/GD32VW55x_RELEASE_V1.0.2/MSDK/cloud/alicloud/src/protocol/coap/local\CoAPMessage.c ****                 memcpy(data, message->options[index].val, message->options[index].len);
 290              		.loc 1 108 16
 291 0044 636CC700 		bltu	a4,a2,.L23
 109:C:/Users/stapi/OneDrive/Desktop/GD32VW553/V1_MQTT_OK/GD32VW55X_Wifi_BLE_SDK/GD32VW55x_RELEASE_V1.0.2/MSDK/cloud/alicloud/src/protocol/coap/local\CoAPMessage.c ****                 *datalen = message->options[index].len;
 292              		.loc 1 109 17 is_stmt 1
 293 0048 0C48     		lw	a1,16(s0)
 294              	.LVL29:
 295 004a 97000000 		call	memcpy
 295      E7800000 
 296              	.LVL30:
 110:C:/Users/stapi/OneDrive/Desktop/GD32VW553/V1_MQTT_OK/GD32VW55X_Wifi_BLE_SDK/GD32VW55x_RELEASE_V1.0.2/MSDK/cloud/alicloud/src/protocol/coap/local\CoAPMessage.c ****                 return COAP_SUCCESS;
 297              		.loc 1 110 17
 110:C:/Users/stapi/OneDrive/Desktop/GD32VW553/V1_MQTT_OK/GD32VW55X_Wifi_BLE_SDK/GD32VW55x_RELEASE_V1.0.2/MSDK/cloud/alicloud/src/protocol/coap/local\CoAPMessage.c ****                 return COAP_SUCCESS;
 298              		.loc 1 110 51 is_stmt 0
 299 0052 8357E400 		lhu	a5,14(s0)
 110:C:/Users/stapi/OneDrive/Desktop/GD32VW553/V1_MQTT_OK/GD32VW55X_Wifi_BLE_SDK/GD32VW55x_RELEASE_V1.0.2/MSDK/cloud/alicloud/src/protocol/coap/local\CoAPMessage.c ****                 return COAP_SUCCESS;
 300              		.loc 1 110 26
 301 0056 2390F400 		sh	a5,0(s1)
 111:C:/Users/stapi/OneDrive/Desktop/GD32VW553/V1_MQTT_OK/GD32VW55X_Wifi_BLE_SDK/GD32VW55x_RELEASE_V1.0.2/MSDK/cloud/alicloud/src/protocol/coap/local\CoAPMessage.c ****             } else {
 302              		.loc 1 111 17 is_stmt 1
 111:C:/Users/stapi/OneDrive/Desktop/GD32VW553/V1_MQTT_OK/GD32VW55X_Wifi_BLE_SDK/GD32VW55x_RELEASE_V1.0.2/MSDK/cloud/alicloud/src/protocol/coap/local\CoAPMessage.c ****             } else {
 303              		.loc 1 111 24 is_stmt 0
 304 005a 8147     		li	a5,0
 305              	.L23:
 119:C:/Users/stapi/OneDrive/Desktop/GD32VW553/V1_MQTT_OK/GD32VW55X_Wifi_BLE_SDK/GD32VW55x_RELEASE_V1.0.2/MSDK/cloud/alicloud/src/protocol/coap/local\CoAPMessage.c **** 
 120:C:/Users/stapi/OneDrive/Desktop/GD32VW553/V1_MQTT_OK/GD32VW55X_Wifi_BLE_SDK/GD32VW55x_RELEASE_V1.0.2/MSDK/cloud/alicloud/src/protocol/coap/local\CoAPMessage.c **** }
 306              		.loc 1 120 1
 307 005c 3E85     		mv	a0,a5
 308 005e 17030000 		tail	__riscv_restore_2
 308      67000300 
 309              		.cfi_remember_state
 310              		.cfi_restore 9
 311              		.cfi_restore 8
 312              		.cfi_restore 1
 313              		.cfi_def_cfa_offset 0
 314              	.LVL31:
 315              	.L27:
 316              		.cfi_restore_state
 317 0066 B687     		mv	a5,a3
 318              	.LVL32:
 319 0068 45BF     		j	.L24
 320              		.cfi_endproc
 321              	.LFE22:
 323              		.section	.text.CoAPUintOption_add,"ax",@progbits
 324              		.align	1
 325              		.globl	CoAPUintOption_add
 327              	CoAPUintOption_add:
 328              	.LFB23:
 121:C:/Users/stapi/OneDrive/Desktop/GD32VW553/V1_MQTT_OK/GD32VW55X_Wifi_BLE_SDK/GD32VW55x_RELEASE_V1.0.2/MSDK/cloud/alicloud/src/protocol/coap/local\CoAPMessage.c **** 
 122:C:/Users/stapi/OneDrive/Desktop/GD32VW553/V1_MQTT_OK/GD32VW55X_Wifi_BLE_SDK/GD32VW55x_RELEASE_V1.0.2/MSDK/cloud/alicloud/src/protocol/coap/local\CoAPMessage.c **** 
 123:C:/Users/stapi/OneDrive/Desktop/GD32VW553/V1_MQTT_OK/GD32VW55X_Wifi_BLE_SDK/GD32VW55x_RELEASE_V1.0.2/MSDK/cloud/alicloud/src/protocol/coap/local\CoAPMessage.c **** int CoAPUintOption_add(CoAPMessage *message, unsigned short  optnum, unsigned int data)
 124:C:/Users/stapi/OneDrive/Desktop/GD32VW553/V1_MQTT_OK/GD32VW55X_Wifi_BLE_SDK/GD32VW55x_RELEASE_V1.0.2/MSDK/cloud/alicloud/src/protocol/coap/local\CoAPMessage.c **** {
 329              		.loc 1 124 1 is_stmt 1
 330              		.cfi_startproc
 331              	.LVL33:
 332 0000 17030000 		call	t0,__riscv_save_0
 332      E7020300 
 333              		.cfi_offset 1, -4
 334              		.cfi_def_cfa_offset 16
 125:C:/Users/stapi/OneDrive/Desktop/GD32VW553/V1_MQTT_OK/GD32VW55X_Wifi_BLE_SDK/GD32VW55x_RELEASE_V1.0.2/MSDK/cloud/alicloud/src/protocol/coap/local\CoAPMessage.c ****     unsigned char buf[4];
 335              		.loc 1 125 5
 126:C:/Users/stapi/OneDrive/Desktop/GD32VW553/V1_MQTT_OK/GD32VW55X_Wifi_BLE_SDK/GD32VW55x_RELEASE_V1.0.2/MSDK/cloud/alicloud/src/protocol/coap/local\CoAPMessage.c ****     unsigned short datalen = 0;
 336              		.loc 1 126 5
 337              	.LVL34:
 127:C:/Users/stapi/OneDrive/Desktop/GD32VW553/V1_MQTT_OK/GD32VW55X_Wifi_BLE_SDK/GD32VW55x_RELEASE_V1.0.2/MSDK/cloud/alicloud/src/protocol/coap/local\CoAPMessage.c **** 
 128:C:/Users/stapi/OneDrive/Desktop/GD32VW553/V1_MQTT_OK/GD32VW55X_Wifi_BLE_SDK/GD32VW55x_RELEASE_V1.0.2/MSDK/cloud/alicloud/src/protocol/coap/local\CoAPMessage.c ****     if (data & 0xFFFF0000) {
 338              		.loc 1 128 5
 339              		.loc 1 128 14 is_stmt 0
 340 0008 C177     		li	a5,-65536
 341 000a F18F     		and	a5,a2,a5
 124:C:/Users/stapi/OneDrive/Desktop/GD32VW553/V1_MQTT_OK/GD32VW55X_Wifi_BLE_SDK/GD32VW55x_RELEASE_V1.0.2/MSDK/cloud/alicloud/src/protocol/coap/local\CoAPMessage.c ****     unsigned char buf[4];
 342              		.loc 1 124 1
 343 000c 4111     		addi	sp,sp,-16
 344              		.cfi_def_cfa_offset 32
 345              		.loc 1 128 8
 346 000e 99CF     		beq	a5,zero,.L31
 129:C:/Users/stapi/OneDrive/Desktop/GD32VW553/V1_MQTT_OK/GD32VW55X_Wifi_BLE_SDK/GD32VW55x_RELEASE_V1.0.2/MSDK/cloud/alicloud/src/protocol/coap/local\CoAPMessage.c ****         datalen = 4;
 347              		.loc 1 129 9 is_stmt 1
 348              	.LVL35:
 130:C:/Users/stapi/OneDrive/Desktop/GD32VW553/V1_MQTT_OK/GD32VW55X_Wifi_BLE_SDK/GD32VW55x_RELEASE_V1.0.2/MSDK/cloud/alicloud/src/protocol/coap/local\CoAPMessage.c ****         buf[0] = (unsigned char)((data & 0xFF000000) >> 24);
 349              		.loc 1 130 9
 131:C:/Users/stapi/OneDrive/Desktop/GD32VW553/V1_MQTT_OK/GD32VW55X_Wifi_BLE_SDK/GD32VW55x_RELEASE_V1.0.2/MSDK/cloud/alicloud/src/protocol/coap/local\CoAPMessage.c ****         buf[1] = (unsigned char)((data & 0x00FF0000) >> 16);
 350              		.loc 1 131 9
 132:C:/Users/stapi/OneDrive/Desktop/GD32VW553/V1_MQTT_OK/GD32VW55X_Wifi_BLE_SDK/GD32VW55x_RELEASE_V1.0.2/MSDK/cloud/alicloud/src/protocol/coap/local\CoAPMessage.c ****         buf[2] = (unsigned char)((data & 0x0000FF00) >> 8);
 351              		.loc 1 132 9
 133:C:/Users/stapi/OneDrive/Desktop/GD32VW553/V1_MQTT_OK/GD32VW55X_Wifi_BLE_SDK/GD32VW55x_RELEASE_V1.0.2/MSDK/cloud/alicloud/src/protocol/coap/local\CoAPMessage.c ****         buf[3] = (unsigned char)(data & 0x000000FF);
 352              		.loc 1 133 9
 353 0010 13568669 		rev8	a2,a2
 354              	.LVL36:
 129:C:/Users/stapi/OneDrive/Desktop/GD32VW553/V1_MQTT_OK/GD32VW55X_Wifi_BLE_SDK/GD32VW55x_RELEASE_V1.0.2/MSDK/cloud/alicloud/src/protocol/coap/local\CoAPMessage.c ****         buf[0] = (unsigned char)((data & 0xFF000000) >> 24);
 355              		.loc 1 129 17 is_stmt 0
 356 0014 9146     		li	a3,4
 130:C:/Users/stapi/OneDrive/Desktop/GD32VW553/V1_MQTT_OK/GD32VW55X_Wifi_BLE_SDK/GD32VW55x_RELEASE_V1.0.2/MSDK/cloud/alicloud/src/protocol/coap/local\CoAPMessage.c ****         buf[1] = (unsigned char)((data & 0x00FF0000) >> 16);
 357              		.loc 1 130 16
 358 0016 32C6     		sw	a2,12(sp)
 359              	.LVL37:
 360              	.L32:
 134:C:/Users/stapi/OneDrive/Desktop/GD32VW553/V1_MQTT_OK/GD32VW55X_Wifi_BLE_SDK/GD32VW55x_RELEASE_V1.0.2/MSDK/cloud/alicloud/src/protocol/coap/local\CoAPMessage.c ****     } else if (data & 0x0000FF00) {
 135:C:/Users/stapi/OneDrive/Desktop/GD32VW553/V1_MQTT_OK/GD32VW55X_Wifi_BLE_SDK/GD32VW55x_RELEASE_V1.0.2/MSDK/cloud/alicloud/src/protocol/coap/local\CoAPMessage.c ****         datalen = 2;
 136:C:/Users/stapi/OneDrive/Desktop/GD32VW553/V1_MQTT_OK/GD32VW55X_Wifi_BLE_SDK/GD32VW55x_RELEASE_V1.0.2/MSDK/cloud/alicloud/src/protocol/coap/local\CoAPMessage.c ****         buf[0] = (unsigned char)((data & 0xFF00) >> 8);
 137:C:/Users/stapi/OneDrive/Desktop/GD32VW553/V1_MQTT_OK/GD32VW55X_Wifi_BLE_SDK/GD32VW55x_RELEASE_V1.0.2/MSDK/cloud/alicloud/src/protocol/coap/local\CoAPMessage.c ****         buf[1] = (unsigned char)(data & 0x00FF);
 138:C:/Users/stapi/OneDrive/Desktop/GD32VW553/V1_MQTT_OK/GD32VW55X_Wifi_BLE_SDK/GD32VW55x_RELEASE_V1.0.2/MSDK/cloud/alicloud/src/protocol/coap/local\CoAPMessage.c ****     } else if (data) {
 139:C:/Users/stapi/OneDrive/Desktop/GD32VW553/V1_MQTT_OK/GD32VW55X_Wifi_BLE_SDK/GD32VW55x_RELEASE_V1.0.2/MSDK/cloud/alicloud/src/protocol/coap/local\CoAPMessage.c ****         data = 1;
 140:C:/Users/stapi/OneDrive/Desktop/GD32VW553/V1_MQTT_OK/GD32VW55X_Wifi_BLE_SDK/GD32VW55x_RELEASE_V1.0.2/MSDK/cloud/alicloud/src/protocol/coap/local\CoAPMessage.c ****         buf[0] = (unsigned char)data;
 141:C:/Users/stapi/OneDrive/Desktop/GD32VW553/V1_MQTT_OK/GD32VW55X_Wifi_BLE_SDK/GD32VW55x_RELEASE_V1.0.2/MSDK/cloud/alicloud/src/protocol/coap/local\CoAPMessage.c ****     }
 142:C:/Users/stapi/OneDrive/Desktop/GD32VW553/V1_MQTT_OK/GD32VW55X_Wifi_BLE_SDK/GD32VW55x_RELEASE_V1.0.2/MSDK/cloud/alicloud/src/protocol/coap/local\CoAPMessage.c **** 
 143:C:/Users/stapi/OneDrive/Desktop/GD32VW553/V1_MQTT_OK/GD32VW55X_Wifi_BLE_SDK/GD32VW55x_RELEASE_V1.0.2/MSDK/cloud/alicloud/src/protocol/coap/local\CoAPMessage.c ****     return CoAPStrOption_add (message, optnum, buf, datalen);
 361              		.loc 1 143 5 is_stmt 1
 362              		.loc 1 143 12 is_stmt 0
 363 0018 7000     		addi	a2,sp,12
 364 001a 97000000 		call	CoAPStrOption_add
 364      E7800000 
 365              	.LVL38:
 144:C:/Users/stapi/OneDrive/Desktop/GD32VW553/V1_MQTT_OK/GD32VW55X_Wifi_BLE_SDK/GD32VW55x_RELEASE_V1.0.2/MSDK/cloud/alicloud/src/protocol/coap/local\CoAPMessage.c **** }
 366              		.loc 1 144 1
 367 0022 4101     		addi	sp,sp,16
 368              		.cfi_remember_state
 369              		.cfi_def_cfa_offset 0
 370 0024 17030000 		tail	__riscv_restore_0
 370      67000300 
 371              		.cfi_restore 1
 372              		.cfi_def_cfa_offset -16
 373              	.LVL39:
 374              	.L31:
 375              		.cfi_restore_state
 134:C:/Users/stapi/OneDrive/Desktop/GD32VW553/V1_MQTT_OK/GD32VW55X_Wifi_BLE_SDK/GD32VW55x_RELEASE_V1.0.2/MSDK/cloud/alicloud/src/protocol/coap/local\CoAPMessage.c ****     } else if (data & 0x0000FF00) {
 376              		.loc 1 134 12 is_stmt 1
 134:C:/Users/stapi/OneDrive/Desktop/GD32VW553/V1_MQTT_OK/GD32VW55X_Wifi_BLE_SDK/GD32VW55x_RELEASE_V1.0.2/MSDK/cloud/alicloud/src/protocol/coap/local\CoAPMessage.c ****     } else if (data & 0x0000FF00) {
 377              		.loc 1 134 21 is_stmt 0
 378 002c C167     		li	a5,65536
 379 002e 938707F0 		addi	a5,a5,-256
 380 0032 F18F     		and	a5,a2,a5
 134:C:/Users/stapi/OneDrive/Desktop/GD32VW553/V1_MQTT_OK/GD32VW55X_Wifi_BLE_SDK/GD32VW55x_RELEASE_V1.0.2/MSDK/cloud/alicloud/src/protocol/coap/local\CoAPMessage.c ****     } else if (data & 0x0000FF00) {
 381              		.loc 1 134 15
 382 0034 99CB     		beq	a5,zero,.L33
 135:C:/Users/stapi/OneDrive/Desktop/GD32VW553/V1_MQTT_OK/GD32VW55X_Wifi_BLE_SDK/GD32VW55x_RELEASE_V1.0.2/MSDK/cloud/alicloud/src/protocol/coap/local\CoAPMessage.c ****         buf[0] = (unsigned char)((data & 0xFF00) >> 8);
 383              		.loc 1 135 9 is_stmt 1
 384              	.LVL40:
 136:C:/Users/stapi/OneDrive/Desktop/GD32VW553/V1_MQTT_OK/GD32VW55X_Wifi_BLE_SDK/GD32VW55x_RELEASE_V1.0.2/MSDK/cloud/alicloud/src/protocol/coap/local\CoAPMessage.c ****         buf[1] = (unsigned char)(data & 0x00FF);
 385              		.loc 1 136 9
 137:C:/Users/stapi/OneDrive/Desktop/GD32VW553/V1_MQTT_OK/GD32VW55X_Wifi_BLE_SDK/GD32VW55x_RELEASE_V1.0.2/MSDK/cloud/alicloud/src/protocol/coap/local\CoAPMessage.c ****     } else if (data) {
 386              		.loc 1 137 9
 136:C:/Users/stapi/OneDrive/Desktop/GD32VW553/V1_MQTT_OK/GD32VW55X_Wifi_BLE_SDK/GD32VW55x_RELEASE_V1.0.2/MSDK/cloud/alicloud/src/protocol/coap/local\CoAPMessage.c ****         buf[1] = (unsigned char)(data & 0x00FF);
 387              		.loc 1 136 16 is_stmt 0
 388 0036 93178600 		slli	a5,a2,8
 389 003a 33460608 		zext.h	a2,a2
 390              	.LVL41:
 391 003e 2182     		srli	a2,a2,8
 392 0040 5D8E     		or	a2,a5,a2
 393 0042 2316C100 		sh	a2,12(sp)
 135:C:/Users/stapi/OneDrive/Desktop/GD32VW553/V1_MQTT_OK/GD32VW55X_Wifi_BLE_SDK/GD32VW55x_RELEASE_V1.0.2/MSDK/cloud/alicloud/src/protocol/coap/local\CoAPMessage.c ****         buf[0] = (unsigned char)((data & 0xFF00) >> 8);
 394              		.loc 1 135 17
 395 0046 8946     		li	a3,2
 396 0048 C1BF     		j	.L32
 397              	.LVL42:
 398              	.L33:
 138:C:/Users/stapi/OneDrive/Desktop/GD32VW553/V1_MQTT_OK/GD32VW55X_Wifi_BLE_SDK/GD32VW55x_RELEASE_V1.0.2/MSDK/cloud/alicloud/src/protocol/coap/local\CoAPMessage.c ****         data = 1;
 399              		.loc 1 138 12 is_stmt 1
 126:C:/Users/stapi/OneDrive/Desktop/GD32VW553/V1_MQTT_OK/GD32VW55X_Wifi_BLE_SDK/GD32VW55x_RELEASE_V1.0.2/MSDK/cloud/alicloud/src/protocol/coap/local\CoAPMessage.c **** 
 400              		.loc 1 126 20 is_stmt 0
 401 004a 8146     		li	a3,0
 138:C:/Users/stapi/OneDrive/Desktop/GD32VW553/V1_MQTT_OK/GD32VW55X_Wifi_BLE_SDK/GD32VW55x_RELEASE_V1.0.2/MSDK/cloud/alicloud/src/protocol/coap/local\CoAPMessage.c ****         data = 1;
 402              		.loc 1 138 15
 403 004c 71D6     		beq	a2,zero,.L32
 139:C:/Users/stapi/OneDrive/Desktop/GD32VW553/V1_MQTT_OK/GD32VW55X_Wifi_BLE_SDK/GD32VW55x_RELEASE_V1.0.2/MSDK/cloud/alicloud/src/protocol/coap/local\CoAPMessage.c ****         buf[0] = (unsigned char)data;
 404              		.loc 1 139 9 is_stmt 1
 405              	.LVL43:
 140:C:/Users/stapi/OneDrive/Desktop/GD32VW553/V1_MQTT_OK/GD32VW55X_Wifi_BLE_SDK/GD32VW55x_RELEASE_V1.0.2/MSDK/cloud/alicloud/src/protocol/coap/local\CoAPMessage.c ****     }
 406              		.loc 1 140 9
 140:C:/Users/stapi/OneDrive/Desktop/GD32VW553/V1_MQTT_OK/GD32VW55X_Wifi_BLE_SDK/GD32VW55x_RELEASE_V1.0.2/MSDK/cloud/alicloud/src/protocol/coap/local\CoAPMessage.c ****     }
 407              		.loc 1 140 16 is_stmt 0
 408 004e 8547     		li	a5,1
 409 0050 2306F100 		sb	a5,12(sp)
 410 0054 D1B7     		j	.L32
 411              		.cfi_endproc
 412              	.LFE23:
 414              		.section	.text.CoAPUintOption_get,"ax",@progbits
 415              		.align	1
 416              		.globl	CoAPUintOption_get
 418              	CoAPUintOption_get:
 419              	.LFB24:
 145:C:/Users/stapi/OneDrive/Desktop/GD32VW553/V1_MQTT_OK/GD32VW55X_Wifi_BLE_SDK/GD32VW55x_RELEASE_V1.0.2/MSDK/cloud/alicloud/src/protocol/coap/local\CoAPMessage.c **** 
 146:C:/Users/stapi/OneDrive/Desktop/GD32VW553/V1_MQTT_OK/GD32VW55X_Wifi_BLE_SDK/GD32VW55x_RELEASE_V1.0.2/MSDK/cloud/alicloud/src/protocol/coap/local\CoAPMessage.c **** int CoAPUintOption_get(CoAPMessage *message,
 147:C:/Users/stapi/OneDrive/Desktop/GD32VW553/V1_MQTT_OK/GD32VW55X_Wifi_BLE_SDK/GD32VW55x_RELEASE_V1.0.2/MSDK/cloud/alicloud/src/protocol/coap/local\CoAPMessage.c ****                        unsigned short  optnum,
 148:C:/Users/stapi/OneDrive/Desktop/GD32VW553/V1_MQTT_OK/GD32VW55X_Wifi_BLE_SDK/GD32VW55x_RELEASE_V1.0.2/MSDK/cloud/alicloud/src/protocol/coap/local\CoAPMessage.c ****                        unsigned int *data)
 149:C:/Users/stapi/OneDrive/Desktop/GD32VW553/V1_MQTT_OK/GD32VW55X_Wifi_BLE_SDK/GD32VW55x_RELEASE_V1.0.2/MSDK/cloud/alicloud/src/protocol/coap/local\CoAPMessage.c **** {
 420              		.loc 1 149 1 is_stmt 1
 421              		.cfi_startproc
 422              	.LVL44:
 150:C:/Users/stapi/OneDrive/Desktop/GD32VW553/V1_MQTT_OK/GD32VW55X_Wifi_BLE_SDK/GD32VW55x_RELEASE_V1.0.2/MSDK/cloud/alicloud/src/protocol/coap/local\CoAPMessage.c **** 
 151:C:/Users/stapi/OneDrive/Desktop/GD32VW553/V1_MQTT_OK/GD32VW55X_Wifi_BLE_SDK/GD32VW55x_RELEASE_V1.0.2/MSDK/cloud/alicloud/src/protocol/coap/local\CoAPMessage.c ****     unsigned char index = 0;
 423              		.loc 1 151 5
 152:C:/Users/stapi/OneDrive/Desktop/GD32VW553/V1_MQTT_OK/GD32VW55X_Wifi_BLE_SDK/GD32VW55x_RELEASE_V1.0.2/MSDK/cloud/alicloud/src/protocol/coap/local\CoAPMessage.c **** 
 153:C:/Users/stapi/OneDrive/Desktop/GD32VW553/V1_MQTT_OK/GD32VW55X_Wifi_BLE_SDK/GD32VW55x_RELEASE_V1.0.2/MSDK/cloud/alicloud/src/protocol/coap/local\CoAPMessage.c ****     for (index = 0; index < message->optcount; index++) {
 424              		.loc 1 153 5
 425              		.loc 1 153 36 is_stmt 0
 426 0000 8346C506 		lbu	a3,108(a0)
 427 0004 1307C500 		addi	a4,a0,12
 428              		.loc 1 153 5
 429 0008 8147     		li	a5,0
 430              	.LVL45:
 431              	.L38:
 432              		.loc 1 153 21 is_stmt 1 discriminator 1
 433              		.loc 1 153 5 is_stmt 0 discriminator 1
 434 000a 13F8F70F 		andi	a6,a5,0xff
 435 000e 6365D800 		bltu	a6,a3,.L46
 154:C:/Users/stapi/OneDrive/Desktop/GD32VW553/V1_MQTT_OK/GD32VW55X_Wifi_BLE_SDK/GD32VW55x_RELEASE_V1.0.2/MSDK/cloud/alicloud/src/protocol/coap/local\CoAPMessage.c ****         if (message->options[index].num == optnum) {
 155:C:/Users/stapi/OneDrive/Desktop/GD32VW553/V1_MQTT_OK/GD32VW55X_Wifi_BLE_SDK/GD32VW55x_RELEASE_V1.0.2/MSDK/cloud/alicloud/src/protocol/coap/local\CoAPMessage.c ****             int byte = 0;
 156:C:/Users/stapi/OneDrive/Desktop/GD32VW553/V1_MQTT_OK/GD32VW55X_Wifi_BLE_SDK/GD32VW55x_RELEASE_V1.0.2/MSDK/cloud/alicloud/src/protocol/coap/local\CoAPMessage.c ****             switch (message->options[index].len) {
 157:C:/Users/stapi/OneDrive/Desktop/GD32VW553/V1_MQTT_OK/GD32VW55X_Wifi_BLE_SDK/GD32VW55x_RELEASE_V1.0.2/MSDK/cloud/alicloud/src/protocol/coap/local\CoAPMessage.c ****                 case 1:
 158:C:/Users/stapi/OneDrive/Desktop/GD32VW553/V1_MQTT_OK/GD32VW55X_Wifi_BLE_SDK/GD32VW55x_RELEASE_V1.0.2/MSDK/cloud/alicloud/src/protocol/coap/local\CoAPMessage.c ****                     *data |= message->options[index].val[byte++];
 159:C:/Users/stapi/OneDrive/Desktop/GD32VW553/V1_MQTT_OK/GD32VW55X_Wifi_BLE_SDK/GD32VW55x_RELEASE_V1.0.2/MSDK/cloud/alicloud/src/protocol/coap/local\CoAPMessage.c ****                     break;
 160:C:/Users/stapi/OneDrive/Desktop/GD32VW553/V1_MQTT_OK/GD32VW55X_Wifi_BLE_SDK/GD32VW55x_RELEASE_V1.0.2/MSDK/cloud/alicloud/src/protocol/coap/local\CoAPMessage.c ****                 case 2:
 161:C:/Users/stapi/OneDrive/Desktop/GD32VW553/V1_MQTT_OK/GD32VW55X_Wifi_BLE_SDK/GD32VW55x_RELEASE_V1.0.2/MSDK/cloud/alicloud/src/protocol/coap/local\CoAPMessage.c ****                     *data |= (message->options[index].val[byte++] << 8);
 162:C:/Users/stapi/OneDrive/Desktop/GD32VW553/V1_MQTT_OK/GD32VW55X_Wifi_BLE_SDK/GD32VW55x_RELEASE_V1.0.2/MSDK/cloud/alicloud/src/protocol/coap/local\CoAPMessage.c ****                     *data |= message->options[index].val[byte++];
 163:C:/Users/stapi/OneDrive/Desktop/GD32VW553/V1_MQTT_OK/GD32VW55X_Wifi_BLE_SDK/GD32VW55x_RELEASE_V1.0.2/MSDK/cloud/alicloud/src/protocol/coap/local\CoAPMessage.c ****                     break;
 164:C:/Users/stapi/OneDrive/Desktop/GD32VW553/V1_MQTT_OK/GD32VW55X_Wifi_BLE_SDK/GD32VW55x_RELEASE_V1.0.2/MSDK/cloud/alicloud/src/protocol/coap/local\CoAPMessage.c ****                 case 3:
 165:C:/Users/stapi/OneDrive/Desktop/GD32VW553/V1_MQTT_OK/GD32VW55X_Wifi_BLE_SDK/GD32VW55x_RELEASE_V1.0.2/MSDK/cloud/alicloud/src/protocol/coap/local\CoAPMessage.c ****                     *data |= (message->options[index].val[byte++] << 16);
 166:C:/Users/stapi/OneDrive/Desktop/GD32VW553/V1_MQTT_OK/GD32VW55X_Wifi_BLE_SDK/GD32VW55x_RELEASE_V1.0.2/MSDK/cloud/alicloud/src/protocol/coap/local\CoAPMessage.c ****                     *data |= (message->options[index].val[byte++] << 8);
 167:C:/Users/stapi/OneDrive/Desktop/GD32VW553/V1_MQTT_OK/GD32VW55X_Wifi_BLE_SDK/GD32VW55x_RELEASE_V1.0.2/MSDK/cloud/alicloud/src/protocol/coap/local\CoAPMessage.c ****                     *data |= message->options[index].val[byte++];
 168:C:/Users/stapi/OneDrive/Desktop/GD32VW553/V1_MQTT_OK/GD32VW55X_Wifi_BLE_SDK/GD32VW55x_RELEASE_V1.0.2/MSDK/cloud/alicloud/src/protocol/coap/local\CoAPMessage.c ****                     break;
 169:C:/Users/stapi/OneDrive/Desktop/GD32VW553/V1_MQTT_OK/GD32VW55X_Wifi_BLE_SDK/GD32VW55x_RELEASE_V1.0.2/MSDK/cloud/alicloud/src/protocol/coap/local\CoAPMessage.c ****                 case 4:
 170:C:/Users/stapi/OneDrive/Desktop/GD32VW553/V1_MQTT_OK/GD32VW55X_Wifi_BLE_SDK/GD32VW55x_RELEASE_V1.0.2/MSDK/cloud/alicloud/src/protocol/coap/local\CoAPMessage.c ****                     *data |= (message->options[index].val[byte++] << 24);
 171:C:/Users/stapi/OneDrive/Desktop/GD32VW553/V1_MQTT_OK/GD32VW55X_Wifi_BLE_SDK/GD32VW55x_RELEASE_V1.0.2/MSDK/cloud/alicloud/src/protocol/coap/local\CoAPMessage.c ****                     *data |= (message->options[index].val[byte++] << 16);
 172:C:/Users/stapi/OneDrive/Desktop/GD32VW553/V1_MQTT_OK/GD32VW55X_Wifi_BLE_SDK/GD32VW55x_RELEASE_V1.0.2/MSDK/cloud/alicloud/src/protocol/coap/local\CoAPMessage.c ****                     *data |= (message->options[index].val[byte++] << 8);
 173:C:/Users/stapi/OneDrive/Desktop/GD32VW553/V1_MQTT_OK/GD32VW55X_Wifi_BLE_SDK/GD32VW55x_RELEASE_V1.0.2/MSDK/cloud/alicloud/src/protocol/coap/local\CoAPMessage.c ****                     *data |= message->options[index].val[byte++];
 174:C:/Users/stapi/OneDrive/Desktop/GD32VW553/V1_MQTT_OK/GD32VW55X_Wifi_BLE_SDK/GD32VW55x_RELEASE_V1.0.2/MSDK/cloud/alicloud/src/protocol/coap/local\CoAPMessage.c ****                     break;
 175:C:/Users/stapi/OneDrive/Desktop/GD32VW553/V1_MQTT_OK/GD32VW55X_Wifi_BLE_SDK/GD32VW55x_RELEASE_V1.0.2/MSDK/cloud/alicloud/src/protocol/coap/local\CoAPMessage.c ****                 default:
 176:C:/Users/stapi/OneDrive/Desktop/GD32VW553/V1_MQTT_OK/GD32VW55X_Wifi_BLE_SDK/GD32VW55x_RELEASE_V1.0.2/MSDK/cloud/alicloud/src/protocol/coap/local\CoAPMessage.c ****                     *data = 0;
 177:C:/Users/stapi/OneDrive/Desktop/GD32VW553/V1_MQTT_OK/GD32VW55X_Wifi_BLE_SDK/GD32VW55x_RELEASE_V1.0.2/MSDK/cloud/alicloud/src/protocol/coap/local\CoAPMessage.c ****                     break;
 178:C:/Users/stapi/OneDrive/Desktop/GD32VW553/V1_MQTT_OK/GD32VW55X_Wifi_BLE_SDK/GD32VW55x_RELEASE_V1.0.2/MSDK/cloud/alicloud/src/protocol/coap/local\CoAPMessage.c ****             }
 179:C:/Users/stapi/OneDrive/Desktop/GD32VW553/V1_MQTT_OK/GD32VW55X_Wifi_BLE_SDK/GD32VW55x_RELEASE_V1.0.2/MSDK/cloud/alicloud/src/protocol/coap/local\CoAPMessage.c ****             return COAP_SUCCESS;
 180:C:/Users/stapi/OneDrive/Desktop/GD32VW553/V1_MQTT_OK/GD32VW55X_Wifi_BLE_SDK/GD32VW55x_RELEASE_V1.0.2/MSDK/cloud/alicloud/src/protocol/coap/local\CoAPMessage.c ****         }
 181:C:/Users/stapi/OneDrive/Desktop/GD32VW553/V1_MQTT_OK/GD32VW55X_Wifi_BLE_SDK/GD32VW55x_RELEASE_V1.0.2/MSDK/cloud/alicloud/src/protocol/coap/local\CoAPMessage.c ****     }
 182:C:/Users/stapi/OneDrive/Desktop/GD32VW553/V1_MQTT_OK/GD32VW55X_Wifi_BLE_SDK/GD32VW55x_RELEASE_V1.0.2/MSDK/cloud/alicloud/src/protocol/coap/local\CoAPMessage.c **** 
 183:C:/Users/stapi/OneDrive/Desktop/GD32VW553/V1_MQTT_OK/GD32VW55X_Wifi_BLE_SDK/GD32VW55x_RELEASE_V1.0.2/MSDK/cloud/alicloud/src/protocol/coap/local\CoAPMessage.c ****     return COAP_ERROR_NOT_FOUND;
 436              		.loc 1 183 12
 437 0012 13057010 		li	a0,263
 438              	.LVL46:
 184:C:/Users/stapi/OneDrive/Desktop/GD32VW553/V1_MQTT_OK/GD32VW55X_Wifi_BLE_SDK/GD32VW55x_RELEASE_V1.0.2/MSDK/cloud/alicloud/src/protocol/coap/local\CoAPMessage.c **** }
 439              		.loc 1 184 1
 440 0016 8280     		ret
 441              	.LVL47:
 442              	.L46:
 154:C:/Users/stapi/OneDrive/Desktop/GD32VW553/V1_MQTT_OK/GD32VW55X_Wifi_BLE_SDK/GD32VW55x_RELEASE_V1.0.2/MSDK/cloud/alicloud/src/protocol/coap/local\CoAPMessage.c ****         if (message->options[index].num == optnum) {
 443              		.loc 1 154 9 is_stmt 1
 154:C:/Users/stapi/OneDrive/Desktop/GD32VW553/V1_MQTT_OK/GD32VW55X_Wifi_BLE_SDK/GD32VW55x_RELEASE_V1.0.2/MSDK/cloud/alicloud/src/protocol/coap/local\CoAPMessage.c ****         if (message->options[index].num == optnum) {
 444              		.loc 1 154 36 is_stmt 0
 445 0018 83580700 		lhu	a7,0(a4)
 154:C:/Users/stapi/OneDrive/Desktop/GD32VW553/V1_MQTT_OK/GD32VW55X_Wifi_BLE_SDK/GD32VW55x_RELEASE_V1.0.2/MSDK/cloud/alicloud/src/protocol/coap/local\CoAPMessage.c ****         if (message->options[index].num == optnum) {
 446              		.loc 1 154 12
 447 001c 13881700 		addi	a6,a5,1
 448 0020 2107     		addi	a4,a4,8
 449 0022 639CB808 		bne	a7,a1,.L47
 450              	.LBB49:
 155:C:/Users/stapi/OneDrive/Desktop/GD32VW553/V1_MQTT_OK/GD32VW55X_Wifi_BLE_SDK/GD32VW55x_RELEASE_V1.0.2/MSDK/cloud/alicloud/src/protocol/coap/local\CoAPMessage.c ****             switch (message->options[index].len) {
 451              		.loc 1 155 13 is_stmt 1
 452              	.LVL48:
 156:C:/Users/stapi/OneDrive/Desktop/GD32VW553/V1_MQTT_OK/GD32VW55X_Wifi_BLE_SDK/GD32VW55x_RELEASE_V1.0.2/MSDK/cloud/alicloud/src/protocol/coap/local\CoAPMessage.c ****                 case 1:
 453              		.loc 1 156 13
 454 0026 33E5A720 		sh3add	a0,a5,a0
 455              	.LVL49:
 156:C:/Users/stapi/OneDrive/Desktop/GD32VW553/V1_MQTT_OK/GD32VW55X_Wifi_BLE_SDK/GD32VW55x_RELEASE_V1.0.2/MSDK/cloud/alicloud/src/protocol/coap/local\CoAPMessage.c ****                 case 1:
 456              		.loc 1 156 44 is_stmt 0
 457 002a 8357E500 		lhu	a5,14(a0)
 458              	.LVL50:
 156:C:/Users/stapi/OneDrive/Desktop/GD32VW553/V1_MQTT_OK/GD32VW55X_Wifi_BLE_SDK/GD32VW55x_RELEASE_V1.0.2/MSDK/cloud/alicloud/src/protocol/coap/local\CoAPMessage.c ****                 case 1:
 459              		.loc 1 156 13
 460 002e 0D47     		li	a4,3
 461 0030 6386E706 		beq	a5,a4,.L39
 462 0034 636BF700 		bgtu	a5,a4,.L40
 463 0038 0547     		li	a4,1
 464 003a 638FE702 		beq	a5,a4,.L41
 465 003e 0947     		li	a4,2
 466 0040 6384E704 		beq	a5,a4,.L42
 467              	.L43:
 176:C:/Users/stapi/OneDrive/Desktop/GD32VW553/V1_MQTT_OK/GD32VW55X_Wifi_BLE_SDK/GD32VW55x_RELEASE_V1.0.2/MSDK/cloud/alicloud/src/protocol/coap/local\CoAPMessage.c ****                     break;
 468              		.loc 1 176 21 is_stmt 1
 176:C:/Users/stapi/OneDrive/Desktop/GD32VW553/V1_MQTT_OK/GD32VW55X_Wifi_BLE_SDK/GD32VW55x_RELEASE_V1.0.2/MSDK/cloud/alicloud/src/protocol/coap/local\CoAPMessage.c ****                     break;
 469              		.loc 1 176 27 is_stmt 0
 470 0044 23200600 		sw	zero,0(a2)
 177:C:/Users/stapi/OneDrive/Desktop/GD32VW553/V1_MQTT_OK/GD32VW55X_Wifi_BLE_SDK/GD32VW55x_RELEASE_V1.0.2/MSDK/cloud/alicloud/src/protocol/coap/local\CoAPMessage.c ****             }
 471              		.loc 1 177 21 is_stmt 1
 472 0048 35A8     		j	.L49
 473              	.L40:
 156:C:/Users/stapi/OneDrive/Desktop/GD32VW553/V1_MQTT_OK/GD32VW55X_Wifi_BLE_SDK/GD32VW55x_RELEASE_V1.0.2/MSDK/cloud/alicloud/src/protocol/coap/local\CoAPMessage.c ****                 case 1:
 474              		.loc 1 156 13 is_stmt 0
 475 004a 1147     		li	a4,4
 476 004c E39CE7FE 		bne	a5,a4,.L43
 170:C:/Users/stapi/OneDrive/Desktop/GD32VW553/V1_MQTT_OK/GD32VW55X_Wifi_BLE_SDK/GD32VW55x_RELEASE_V1.0.2/MSDK/cloud/alicloud/src/protocol/coap/local\CoAPMessage.c ****                     *data |= (message->options[index].val[byte++] << 16);
 477              		.loc 1 170 21 is_stmt 1
 170:C:/Users/stapi/OneDrive/Desktop/GD32VW553/V1_MQTT_OK/GD32VW55X_Wifi_BLE_SDK/GD32VW55x_RELEASE_V1.0.2/MSDK/cloud/alicloud/src/protocol/coap/local\CoAPMessage.c ****                     *data |= (message->options[index].val[byte++] << 16);
 478              		.loc 1 170 54 is_stmt 0
 479 0050 1449     		lw	a3,16(a0)
 480              	.LVL51:
 170:C:/Users/stapi/OneDrive/Desktop/GD32VW553/V1_MQTT_OK/GD32VW55X_Wifi_BLE_SDK/GD32VW55x_RELEASE_V1.0.2/MSDK/cloud/alicloud/src/protocol/coap/local\CoAPMessage.c ****                     *data |= (message->options[index].val[byte++] << 16);
 481              		.loc 1 170 27
 482 0052 1C42     		lw	a5,0(a2)
 170:C:/Users/stapi/OneDrive/Desktop/GD32VW553/V1_MQTT_OK/GD32VW55X_Wifi_BLE_SDK/GD32VW55x_RELEASE_V1.0.2/MSDK/cloud/alicloud/src/protocol/coap/local\CoAPMessage.c ****                     *data |= (message->options[index].val[byte++] << 16);
 483              		.loc 1 170 58
 484 0054 03C70600 		lbu	a4,0(a3)
 170:C:/Users/stapi/OneDrive/Desktop/GD32VW553/V1_MQTT_OK/GD32VW55X_Wifi_BLE_SDK/GD32VW55x_RELEASE_V1.0.2/MSDK/cloud/alicloud/src/protocol/coap/local\CoAPMessage.c ****                     *data |= (message->options[index].val[byte++] << 16);
 485              		.loc 1 170 67
 486 0058 6207     		slli	a4,a4,24
 170:C:/Users/stapi/OneDrive/Desktop/GD32VW553/V1_MQTT_OK/GD32VW55X_Wifi_BLE_SDK/GD32VW55x_RELEASE_V1.0.2/MSDK/cloud/alicloud/src/protocol/coap/local\CoAPMessage.c ****                     *data |= (message->options[index].val[byte++] << 16);
 487              		.loc 1 170 27
 488 005a 5D8F     		or	a4,a4,a5
 489 005c 18C2     		sw	a4,0(a2)
 171:C:/Users/stapi/OneDrive/Desktop/GD32VW553/V1_MQTT_OK/GD32VW55X_Wifi_BLE_SDK/GD32VW55x_RELEASE_V1.0.2/MSDK/cloud/alicloud/src/protocol/coap/local\CoAPMessage.c ****                     *data |= (message->options[index].val[byte++] << 8);
 490              		.loc 1 171 21 is_stmt 1
 491              	.LVL52:
 171:C:/Users/stapi/OneDrive/Desktop/GD32VW553/V1_MQTT_OK/GD32VW55X_Wifi_BLE_SDK/GD32VW55x_RELEASE_V1.0.2/MSDK/cloud/alicloud/src/protocol/coap/local\CoAPMessage.c ****                     *data |= (message->options[index].val[byte++] << 8);
 492              		.loc 1 171 58 is_stmt 0
 493 005e 83C71600 		lbu	a5,1(a3)
 171:C:/Users/stapi/OneDrive/Desktop/GD32VW553/V1_MQTT_OK/GD32VW55X_Wifi_BLE_SDK/GD32VW55x_RELEASE_V1.0.2/MSDK/cloud/alicloud/src/protocol/coap/local\CoAPMessage.c ****                     *data |= (message->options[index].val[byte++] << 8);
 494              		.loc 1 171 67
 495 0062 C207     		slli	a5,a5,16
 171:C:/Users/stapi/OneDrive/Desktop/GD32VW553/V1_MQTT_OK/GD32VW55X_Wifi_BLE_SDK/GD32VW55x_RELEASE_V1.0.2/MSDK/cloud/alicloud/src/protocol/coap/local\CoAPMessage.c ****                     *data |= (message->options[index].val[byte++] << 8);
 496              		.loc 1 171 27
 497 0064 5D8F     		or	a4,a5,a4
 498 0066 18C2     		sw	a4,0(a2)
 172:C:/Users/stapi/OneDrive/Desktop/GD32VW553/V1_MQTT_OK/GD32VW55X_Wifi_BLE_SDK/GD32VW55x_RELEASE_V1.0.2/MSDK/cloud/alicloud/src/protocol/coap/local\CoAPMessage.c ****                     *data |= message->options[index].val[byte++];
 499              		.loc 1 172 21 is_stmt 1
 500              	.LVL53:
 172:C:/Users/stapi/OneDrive/Desktop/GD32VW553/V1_MQTT_OK/GD32VW55X_Wifi_BLE_SDK/GD32VW55x_RELEASE_V1.0.2/MSDK/cloud/alicloud/src/protocol/coap/local\CoAPMessage.c ****                     *data |= message->options[index].val[byte++];
 501              		.loc 1 172 58 is_stmt 0
 502 0068 83C72600 		lbu	a5,2(a3)
 172:C:/Users/stapi/OneDrive/Desktop/GD32VW553/V1_MQTT_OK/GD32VW55X_Wifi_BLE_SDK/GD32VW55x_RELEASE_V1.0.2/MSDK/cloud/alicloud/src/protocol/coap/local\CoAPMessage.c ****                     *data |= message->options[index].val[byte++];
 503              		.loc 1 172 67
 504 006c A207     		slli	a5,a5,8
 172:C:/Users/stapi/OneDrive/Desktop/GD32VW553/V1_MQTT_OK/GD32VW55X_Wifi_BLE_SDK/GD32VW55x_RELEASE_V1.0.2/MSDK/cloud/alicloud/src/protocol/coap/local\CoAPMessage.c ****                     *data |= message->options[index].val[byte++];
 505              		.loc 1 172 27
 506 006e D98F     		or	a5,a5,a4
 507 0070 1CC2     		sw	a5,0(a2)
 173:C:/Users/stapi/OneDrive/Desktop/GD32VW553/V1_MQTT_OK/GD32VW55X_Wifi_BLE_SDK/GD32VW55x_RELEASE_V1.0.2/MSDK/cloud/alicloud/src/protocol/coap/local\CoAPMessage.c ****                     break;
 508              		.loc 1 173 21 is_stmt 1
 509              	.LVL54:
 173:C:/Users/stapi/OneDrive/Desktop/GD32VW553/V1_MQTT_OK/GD32VW55X_Wifi_BLE_SDK/GD32VW55x_RELEASE_V1.0.2/MSDK/cloud/alicloud/src/protocol/coap/local\CoAPMessage.c ****                     break;
 510              		.loc 1 173 57 is_stmt 0
 511 0072 03C73600 		lbu	a4,3(a3)
 512 0076 29A0     		j	.L48
 513              	.LVL55:
 514              	.L41:
 158:C:/Users/stapi/OneDrive/Desktop/GD32VW553/V1_MQTT_OK/GD32VW55X_Wifi_BLE_SDK/GD32VW55x_RELEASE_V1.0.2/MSDK/cloud/alicloud/src/protocol/coap/local\CoAPMessage.c ****                     break;
 515              		.loc 1 158 21 is_stmt 1
 158:C:/Users/stapi/OneDrive/Desktop/GD32VW553/V1_MQTT_OK/GD32VW55X_Wifi_BLE_SDK/GD32VW55x_RELEASE_V1.0.2/MSDK/cloud/alicloud/src/protocol/coap/local\CoAPMessage.c ****                     break;
 516              		.loc 1 158 57 is_stmt 0
 517 0078 1C49     		lw	a5,16(a0)
 518 007a 03C70700 		lbu	a4,0(a5)
 158:C:/Users/stapi/OneDrive/Desktop/GD32VW553/V1_MQTT_OK/GD32VW55X_Wifi_BLE_SDK/GD32VW55x_RELEASE_V1.0.2/MSDK/cloud/alicloud/src/protocol/coap/local\CoAPMessage.c ****                     break;
 519              		.loc 1 158 27
 520 007e 1C42     		lw	a5,0(a2)
 521              	.LVL56:
 522              	.L48:
 162:C:/Users/stapi/OneDrive/Desktop/GD32VW553/V1_MQTT_OK/GD32VW55X_Wifi_BLE_SDK/GD32VW55x_RELEASE_V1.0.2/MSDK/cloud/alicloud/src/protocol/coap/local\CoAPMessage.c ****                     break;
 523              		.loc 1 162 27
 524 0080 D98F     		or	a5,a4,a5
 525 0082 1CC2     		sw	a5,0(a2)
 526              	.L49:
 163:C:/Users/stapi/OneDrive/Desktop/GD32VW553/V1_MQTT_OK/GD32VW55X_Wifi_BLE_SDK/GD32VW55x_RELEASE_V1.0.2/MSDK/cloud/alicloud/src/protocol/coap/local\CoAPMessage.c ****                 case 3:
 527              		.loc 1 163 21 is_stmt 1
 179:C:/Users/stapi/OneDrive/Desktop/GD32VW553/V1_MQTT_OK/GD32VW55X_Wifi_BLE_SDK/GD32VW55x_RELEASE_V1.0.2/MSDK/cloud/alicloud/src/protocol/coap/local\CoAPMessage.c ****         }
 528              		.loc 1 179 20 is_stmt 0
 529 0084 0145     		li	a0,0
 163:C:/Users/stapi/OneDrive/Desktop/GD32VW553/V1_MQTT_OK/GD32VW55X_Wifi_BLE_SDK/GD32VW55x_RELEASE_V1.0.2/MSDK/cloud/alicloud/src/protocol/coap/local\CoAPMessage.c ****                 case 3:
 530              		.loc 1 163 21
 531 0086 8280     		ret
 532              	.LVL57:
 533              	.L42:
 161:C:/Users/stapi/OneDrive/Desktop/GD32VW553/V1_MQTT_OK/GD32VW55X_Wifi_BLE_SDK/GD32VW55x_RELEASE_V1.0.2/MSDK/cloud/alicloud/src/protocol/coap/local\CoAPMessage.c ****                     *data |= message->options[index].val[byte++];
 534              		.loc 1 161 21 is_stmt 1
 161:C:/Users/stapi/OneDrive/Desktop/GD32VW553/V1_MQTT_OK/GD32VW55X_Wifi_BLE_SDK/GD32VW55x_RELEASE_V1.0.2/MSDK/cloud/alicloud/src/protocol/coap/local\CoAPMessage.c ****                     *data |= message->options[index].val[byte++];
 535              		.loc 1 161 54 is_stmt 0
 536 0088 1849     		lw	a4,16(a0)
 537              	.LVL58:
 161:C:/Users/stapi/OneDrive/Desktop/GD32VW553/V1_MQTT_OK/GD32VW55X_Wifi_BLE_SDK/GD32VW55x_RELEASE_V1.0.2/MSDK/cloud/alicloud/src/protocol/coap/local\CoAPMessage.c ****                     *data |= message->options[index].val[byte++];
 538              		.loc 1 161 27
 539 008a 1442     		lw	a3,0(a2)
 161:C:/Users/stapi/OneDrive/Desktop/GD32VW553/V1_MQTT_OK/GD32VW55X_Wifi_BLE_SDK/GD32VW55x_RELEASE_V1.0.2/MSDK/cloud/alicloud/src/protocol/coap/local\CoAPMessage.c ****                     *data |= message->options[index].val[byte++];
 540              		.loc 1 161 58
 541 008c 83470700 		lbu	a5,0(a4)
 161:C:/Users/stapi/OneDrive/Desktop/GD32VW553/V1_MQTT_OK/GD32VW55X_Wifi_BLE_SDK/GD32VW55x_RELEASE_V1.0.2/MSDK/cloud/alicloud/src/protocol/coap/local\CoAPMessage.c ****                     *data |= message->options[index].val[byte++];
 542              		.loc 1 161 67
 543 0090 A207     		slli	a5,a5,8
 161:C:/Users/stapi/OneDrive/Desktop/GD32VW553/V1_MQTT_OK/GD32VW55X_Wifi_BLE_SDK/GD32VW55x_RELEASE_V1.0.2/MSDK/cloud/alicloud/src/protocol/coap/local\CoAPMessage.c ****                     *data |= message->options[index].val[byte++];
 544              		.loc 1 161 27
 545 0092 D58F     		or	a5,a5,a3
 546 0094 1CC2     		sw	a5,0(a2)
 162:C:/Users/stapi/OneDrive/Desktop/GD32VW553/V1_MQTT_OK/GD32VW55X_Wifi_BLE_SDK/GD32VW55x_RELEASE_V1.0.2/MSDK/cloud/alicloud/src/protocol/coap/local\CoAPMessage.c ****                     break;
 547              		.loc 1 162 21 is_stmt 1
 548              	.LVL59:
 162:C:/Users/stapi/OneDrive/Desktop/GD32VW553/V1_MQTT_OK/GD32VW55X_Wifi_BLE_SDK/GD32VW55x_RELEASE_V1.0.2/MSDK/cloud/alicloud/src/protocol/coap/local\CoAPMessage.c ****                     break;
 549              		.loc 1 162 57 is_stmt 0
 550 0096 03471700 		lbu	a4,1(a4)
 551 009a DDB7     		j	.L48
 552              	.LVL60:
 553              	.L39:
 165:C:/Users/stapi/OneDrive/Desktop/GD32VW553/V1_MQTT_OK/GD32VW55X_Wifi_BLE_SDK/GD32VW55x_RELEASE_V1.0.2/MSDK/cloud/alicloud/src/protocol/coap/local\CoAPMessage.c ****                     *data |= (message->options[index].val[byte++] << 8);
 554              		.loc 1 165 21 is_stmt 1
 165:C:/Users/stapi/OneDrive/Desktop/GD32VW553/V1_MQTT_OK/GD32VW55X_Wifi_BLE_SDK/GD32VW55x_RELEASE_V1.0.2/MSDK/cloud/alicloud/src/protocol/coap/local\CoAPMessage.c ****                     *data |= (message->options[index].val[byte++] << 8);
 555              		.loc 1 165 54 is_stmt 0
 556 009c 1449     		lw	a3,16(a0)
 557              	.LVL61:
 165:C:/Users/stapi/OneDrive/Desktop/GD32VW553/V1_MQTT_OK/GD32VW55X_Wifi_BLE_SDK/GD32VW55x_RELEASE_V1.0.2/MSDK/cloud/alicloud/src/protocol/coap/local\CoAPMessage.c ****                     *data |= (message->options[index].val[byte++] << 8);
 558              		.loc 1 165 27
 559 009e 1842     		lw	a4,0(a2)
 165:C:/Users/stapi/OneDrive/Desktop/GD32VW553/V1_MQTT_OK/GD32VW55X_Wifi_BLE_SDK/GD32VW55x_RELEASE_V1.0.2/MSDK/cloud/alicloud/src/protocol/coap/local\CoAPMessage.c ****                     *data |= (message->options[index].val[byte++] << 8);
 560              		.loc 1 165 58
 561 00a0 83C70600 		lbu	a5,0(a3)
 165:C:/Users/stapi/OneDrive/Desktop/GD32VW553/V1_MQTT_OK/GD32VW55X_Wifi_BLE_SDK/GD32VW55x_RELEASE_V1.0.2/MSDK/cloud/alicloud/src/protocol/coap/local\CoAPMessage.c ****                     *data |= (message->options[index].val[byte++] << 8);
 562              		.loc 1 165 67
 563 00a4 C207     		slli	a5,a5,16
 165:C:/Users/stapi/OneDrive/Desktop/GD32VW553/V1_MQTT_OK/GD32VW55X_Wifi_BLE_SDK/GD32VW55x_RELEASE_V1.0.2/MSDK/cloud/alicloud/src/protocol/coap/local\CoAPMessage.c ****                     *data |= (message->options[index].val[byte++] << 8);
 564              		.loc 1 165 27
 565 00a6 5D8F     		or	a4,a5,a4
 566 00a8 18C2     		sw	a4,0(a2)
 166:C:/Users/stapi/OneDrive/Desktop/GD32VW553/V1_MQTT_OK/GD32VW55X_Wifi_BLE_SDK/GD32VW55x_RELEASE_V1.0.2/MSDK/cloud/alicloud/src/protocol/coap/local\CoAPMessage.c ****                     *data |= message->options[index].val[byte++];
 567              		.loc 1 166 21 is_stmt 1
 568              	.LVL62:
 166:C:/Users/stapi/OneDrive/Desktop/GD32VW553/V1_MQTT_OK/GD32VW55X_Wifi_BLE_SDK/GD32VW55x_RELEASE_V1.0.2/MSDK/cloud/alicloud/src/protocol/coap/local\CoAPMessage.c ****                     *data |= message->options[index].val[byte++];
 569              		.loc 1 166 58 is_stmt 0
 570 00aa 83C71600 		lbu	a5,1(a3)
 166:C:/Users/stapi/OneDrive/Desktop/GD32VW553/V1_MQTT_OK/GD32VW55X_Wifi_BLE_SDK/GD32VW55x_RELEASE_V1.0.2/MSDK/cloud/alicloud/src/protocol/coap/local\CoAPMessage.c ****                     *data |= message->options[index].val[byte++];
 571              		.loc 1 166 67
 572 00ae A207     		slli	a5,a5,8
 166:C:/Users/stapi/OneDrive/Desktop/GD32VW553/V1_MQTT_OK/GD32VW55X_Wifi_BLE_SDK/GD32VW55x_RELEASE_V1.0.2/MSDK/cloud/alicloud/src/protocol/coap/local\CoAPMessage.c ****                     *data |= message->options[index].val[byte++];
 573              		.loc 1 166 27
 574 00b0 D98F     		or	a5,a5,a4
 575 00b2 1CC2     		sw	a5,0(a2)
 167:C:/Users/stapi/OneDrive/Desktop/GD32VW553/V1_MQTT_OK/GD32VW55X_Wifi_BLE_SDK/GD32VW55x_RELEASE_V1.0.2/MSDK/cloud/alicloud/src/protocol/coap/local\CoAPMessage.c ****                     break;
 576              		.loc 1 167 21 is_stmt 1
 577              	.LVL63:
 167:C:/Users/stapi/OneDrive/Desktop/GD32VW553/V1_MQTT_OK/GD32VW55X_Wifi_BLE_SDK/GD32VW55x_RELEASE_V1.0.2/MSDK/cloud/alicloud/src/protocol/coap/local\CoAPMessage.c ****                     break;
 578              		.loc 1 167 57 is_stmt 0
 579 00b4 03C72600 		lbu	a4,2(a3)
 580 00b8 E1B7     		j	.L48
 581              	.LVL64:
 582              	.L47:
 583              	.LBE49:
 584 00ba C287     		mv	a5,a6
 585              	.LVL65:
 586 00bc B9B7     		j	.L38
 587              		.cfi_endproc
 588              	.LFE24:
 590              		.section	.text.CoAPOption_present,"ax",@progbits
 591              		.align	1
 592              		.globl	CoAPOption_present
 594              	CoAPOption_present:
 595              	.LFB25:
 185:C:/Users/stapi/OneDrive/Desktop/GD32VW553/V1_MQTT_OK/GD32VW55X_Wifi_BLE_SDK/GD32VW55x_RELEASE_V1.0.2/MSDK/cloud/alicloud/src/protocol/coap/local\CoAPMessage.c **** 
 186:C:/Users/stapi/OneDrive/Desktop/GD32VW553/V1_MQTT_OK/GD32VW55X_Wifi_BLE_SDK/GD32VW55x_RELEASE_V1.0.2/MSDK/cloud/alicloud/src/protocol/coap/local\CoAPMessage.c **** 
 187:C:/Users/stapi/OneDrive/Desktop/GD32VW553/V1_MQTT_OK/GD32VW55X_Wifi_BLE_SDK/GD32VW55x_RELEASE_V1.0.2/MSDK/cloud/alicloud/src/protocol/coap/local\CoAPMessage.c **** int CoAPOption_present(CoAPMessage *message, unsigned short option)
 188:C:/Users/stapi/OneDrive/Desktop/GD32VW553/V1_MQTT_OK/GD32VW55X_Wifi_BLE_SDK/GD32VW55x_RELEASE_V1.0.2/MSDK/cloud/alicloud/src/protocol/coap/local\CoAPMessage.c **** {
 596              		.loc 1 188 1 is_stmt 1
 597              		.cfi_startproc
 598              	.LVL66:
 189:C:/Users/stapi/OneDrive/Desktop/GD32VW553/V1_MQTT_OK/GD32VW55X_Wifi_BLE_SDK/GD32VW55x_RELEASE_V1.0.2/MSDK/cloud/alicloud/src/protocol/coap/local\CoAPMessage.c ****     unsigned char index = 0;
 599              		.loc 1 189 5
 190:C:/Users/stapi/OneDrive/Desktop/GD32VW553/V1_MQTT_OK/GD32VW55X_Wifi_BLE_SDK/GD32VW55x_RELEASE_V1.0.2/MSDK/cloud/alicloud/src/protocol/coap/local\CoAPMessage.c **** 
 191:C:/Users/stapi/OneDrive/Desktop/GD32VW553/V1_MQTT_OK/GD32VW55X_Wifi_BLE_SDK/GD32VW55x_RELEASE_V1.0.2/MSDK/cloud/alicloud/src/protocol/coap/local\CoAPMessage.c **** 
 192:C:/Users/stapi/OneDrive/Desktop/GD32VW553/V1_MQTT_OK/GD32VW55X_Wifi_BLE_SDK/GD32VW55x_RELEASE_V1.0.2/MSDK/cloud/alicloud/src/protocol/coap/local\CoAPMessage.c ****     for (index = 0; index < message->optcount; index++) {
 600              		.loc 1 192 5
 601              		.loc 1 192 36 is_stmt 0
 602 0000 0347C506 		lbu	a4,108(a0)
 603              		.loc 1 192 16
 604 0004 8147     		li	a5,0
 605 0006 3105     		addi	a0,a0,12
 606              	.LVL67:
 607              	.L51:
 608              		.loc 1 192 21 is_stmt 1 discriminator 1
 609              		.loc 1 192 5 is_stmt 0 discriminator 1
 610 0008 6315F700 		bne	a4,a5,.L53
 193:C:/Users/stapi/OneDrive/Desktop/GD32VW553/V1_MQTT_OK/GD32VW55X_Wifi_BLE_SDK/GD32VW55x_RELEASE_V1.0.2/MSDK/cloud/alicloud/src/protocol/coap/local\CoAPMessage.c ****         if (message->options[index].num == option) {
 194:C:/Users/stapi/OneDrive/Desktop/GD32VW553/V1_MQTT_OK/GD32VW55X_Wifi_BLE_SDK/GD32VW55x_RELEASE_V1.0.2/MSDK/cloud/alicloud/src/protocol/coap/local\CoAPMessage.c ****             return COAP_SUCCESS;
 195:C:/Users/stapi/OneDrive/Desktop/GD32VW553/V1_MQTT_OK/GD32VW55X_Wifi_BLE_SDK/GD32VW55x_RELEASE_V1.0.2/MSDK/cloud/alicloud/src/protocol/coap/local\CoAPMessage.c ****         }
 196:C:/Users/stapi/OneDrive/Desktop/GD32VW553/V1_MQTT_OK/GD32VW55X_Wifi_BLE_SDK/GD32VW55x_RELEASE_V1.0.2/MSDK/cloud/alicloud/src/protocol/coap/local\CoAPMessage.c ****     }
 197:C:/Users/stapi/OneDrive/Desktop/GD32VW553/V1_MQTT_OK/GD32VW55X_Wifi_BLE_SDK/GD32VW55x_RELEASE_V1.0.2/MSDK/cloud/alicloud/src/protocol/coap/local\CoAPMessage.c ****     return COAP_ERROR_NOT_FOUND;
 611              		.loc 1 197 12
 612 000c 13057010 		li	a0,263
 613 0010 8280     		ret
 614              	.L53:
 193:C:/Users/stapi/OneDrive/Desktop/GD32VW553/V1_MQTT_OK/GD32VW55X_Wifi_BLE_SDK/GD32VW55x_RELEASE_V1.0.2/MSDK/cloud/alicloud/src/protocol/coap/local\CoAPMessage.c ****         if (message->options[index].num == option) {
 615              		.loc 1 193 9 is_stmt 1
 193:C:/Users/stapi/OneDrive/Desktop/GD32VW553/V1_MQTT_OK/GD32VW55X_Wifi_BLE_SDK/GD32VW55x_RELEASE_V1.0.2/MSDK/cloud/alicloud/src/protocol/coap/local\CoAPMessage.c ****         if (message->options[index].num == option) {
 616              		.loc 1 193 12 is_stmt 0
 617 0012 83560500 		lhu	a3,0(a0)
 618 0016 2105     		addi	a0,a0,8
 619 0018 6386B600 		beq	a3,a1,.L54
 192:C:/Users/stapi/OneDrive/Desktop/GD32VW553/V1_MQTT_OK/GD32VW55X_Wifi_BLE_SDK/GD32VW55x_RELEASE_V1.0.2/MSDK/cloud/alicloud/src/protocol/coap/local\CoAPMessage.c ****         if (message->options[index].num == option) {
 620              		.loc 1 192 48 is_stmt 1 discriminator 2
 192:C:/Users/stapi/OneDrive/Desktop/GD32VW553/V1_MQTT_OK/GD32VW55X_Wifi_BLE_SDK/GD32VW55x_RELEASE_V1.0.2/MSDK/cloud/alicloud/src/protocol/coap/local\CoAPMessage.c ****         if (message->options[index].num == option) {
 621              		.loc 1 192 53 is_stmt 0 discriminator 2
 622 001c 8507     		addi	a5,a5,1
 623              	.LVL68:
 624 001e 93F7F70F 		andi	a5,a5,0xff
 625              	.LVL69:
 626 0022 DDB7     		j	.L51
 627              	.L54:
 194:C:/Users/stapi/OneDrive/Desktop/GD32VW553/V1_MQTT_OK/GD32VW55X_Wifi_BLE_SDK/GD32VW55x_RELEASE_V1.0.2/MSDK/cloud/alicloud/src/protocol/coap/local\CoAPMessage.c ****         }
 628              		.loc 1 194 20
 629 0024 0145     		li	a0,0
 198:C:/Users/stapi/OneDrive/Desktop/GD32VW553/V1_MQTT_OK/GD32VW55X_Wifi_BLE_SDK/GD32VW55x_RELEASE_V1.0.2/MSDK/cloud/alicloud/src/protocol/coap/local\CoAPMessage.c **** }
 630              		.loc 1 198 1
 631 0026 8280     		ret
 632              		.cfi_endproc
 633              	.LFE25:
 635              		.section	.text.CoAPMessageId_gen,"ax",@progbits
 636              		.align	1
 637              		.globl	CoAPMessageId_gen
 639              	CoAPMessageId_gen:
 640              	.LFB26:
 199:C:/Users/stapi/OneDrive/Desktop/GD32VW553/V1_MQTT_OK/GD32VW55X_Wifi_BLE_SDK/GD32VW55x_RELEASE_V1.0.2/MSDK/cloud/alicloud/src/protocol/coap/local\CoAPMessage.c **** 
 200:C:/Users/stapi/OneDrive/Desktop/GD32VW553/V1_MQTT_OK/GD32VW55X_Wifi_BLE_SDK/GD32VW55x_RELEASE_V1.0.2/MSDK/cloud/alicloud/src/protocol/coap/local\CoAPMessage.c **** unsigned short CoAPMessageId_gen(CoAPContext *context)
 201:C:/Users/stapi/OneDrive/Desktop/GD32VW553/V1_MQTT_OK/GD32VW55X_Wifi_BLE_SDK/GD32VW55x_RELEASE_V1.0.2/MSDK/cloud/alicloud/src/protocol/coap/local\CoAPMessage.c **** {
 641              		.loc 1 201 1 is_stmt 1
 642              		.cfi_startproc
 643              	.LVL70:
 644 0000 17030000 		call	t0,__riscv_save_2
 644      E7020300 
 645              		.cfi_offset 9, -12
 646              		.cfi_offset 8, -8
 647              		.cfi_offset 1, -4
 648              		.cfi_def_cfa_offset 16
 202:C:/Users/stapi/OneDrive/Desktop/GD32VW553/V1_MQTT_OK/GD32VW55X_Wifi_BLE_SDK/GD32VW55x_RELEASE_V1.0.2/MSDK/cloud/alicloud/src/protocol/coap/local\CoAPMessage.c ****     unsigned short msg_id = 0;
 649              		.loc 1 202 5
 650              	.LVL71:
 203:C:/Users/stapi/OneDrive/Desktop/GD32VW553/V1_MQTT_OK/GD32VW55X_Wifi_BLE_SDK/GD32VW55x_RELEASE_V1.0.2/MSDK/cloud/alicloud/src/protocol/coap/local\CoAPMessage.c ****     if (!context) {
 651              		.loc 1 203 5
 204:C:/Users/stapi/OneDrive/Desktop/GD32VW553/V1_MQTT_OK/GD32VW55X_Wifi_BLE_SDK/GD32VW55x_RELEASE_V1.0.2/MSDK/cloud/alicloud/src/protocol/coap/local\CoAPMessage.c ****         return msg_id;
 652              		.loc 1 204 16 is_stmt 0
 653 0008 8144     		li	s1,0
 203:C:/Users/stapi/OneDrive/Desktop/GD32VW553/V1_MQTT_OK/GD32VW55X_Wifi_BLE_SDK/GD32VW55x_RELEASE_V1.0.2/MSDK/cloud/alicloud/src/protocol/coap/local\CoAPMessage.c ****     if (!context) {
 654              		.loc 1 203 8
 655 000a 05C9     		beq	a0,zero,.L56
 656 000c 2A84     		mv	s0,a0
 205:C:/Users/stapi/OneDrive/Desktop/GD32VW553/V1_MQTT_OK/GD32VW55X_Wifi_BLE_SDK/GD32VW55x_RELEASE_V1.0.2/MSDK/cloud/alicloud/src/protocol/coap/local\CoAPMessage.c ****     }
 206:C:/Users/stapi/OneDrive/Desktop/GD32VW553/V1_MQTT_OK/GD32VW55X_Wifi_BLE_SDK/GD32VW55x_RELEASE_V1.0.2/MSDK/cloud/alicloud/src/protocol/coap/local\CoAPMessage.c ****     CoAPIntContext *ctx = (CoAPIntContext *)context;
 657              		.loc 1 206 5 is_stmt 1
 658              	.LVL72:
 207:C:/Users/stapi/OneDrive/Desktop/GD32VW553/V1_MQTT_OK/GD32VW55X_Wifi_BLE_SDK/GD32VW55x_RELEASE_V1.0.2/MSDK/cloud/alicloud/src/protocol/coap/local\CoAPMessage.c ****     HAL_MutexLock(ctx->mutex);
 659              		.loc 1 207 5
 660 000e 684D     		lw	a0,92(a0)
 661              	.LVL73:
 662 0010 97000000 		call	HAL_MutexLock
 662      E7800000 
 663              	.LVL74:
 208:C:/Users/stapi/OneDrive/Desktop/GD32VW553/V1_MQTT_OK/GD32VW55X_Wifi_BLE_SDK/GD32VW55x_RELEASE_V1.0.2/MSDK/cloud/alicloud/src/protocol/coap/local\CoAPMessage.c ****     msg_id = ((COAP_MAX_MESSAGE_ID == ctx->message_id)  ? (ctx->message_id = 1) : ctx->message_id++
 664              		.loc 1 208 5
 665              		.loc 1 208 42 is_stmt 0
 666 0018 83540400 		lhu	s1,0(s0)
 667              		.loc 1 208 12
 668 001c C167     		li	a5,65536
 669 001e FD17     		addi	a5,a5,-1
 670 0020 6382F402 		beq	s1,a5,.L59
 671              		.loc 1 208 98 discriminator 2
 672 0024 93871400 		addi	a5,s1,1
 673 0028 B3C70708 		zext.h	a5,a5
 674              	.L57:
 209:C:/Users/stapi/OneDrive/Desktop/GD32VW553/V1_MQTT_OK/GD32VW55X_Wifi_BLE_SDK/GD32VW55x_RELEASE_V1.0.2/MSDK/cloud/alicloud/src/protocol/coap/local\CoAPMessage.c ****     HAL_MutexUnlock(ctx->mutex);
 675              		.loc 1 209 5 discriminator 4
 676 002c 684C     		lw	a0,92(s0)
 677 002e 2310F400 		sh	a5,0(s0)
 678              	.LVL75:
 679              		.loc 1 209 5 is_stmt 1 discriminator 4
 680 0032 97000000 		call	HAL_MutexUnlock
 680      E7800000 
 681              	.LVL76:
 210:C:/Users/stapi/OneDrive/Desktop/GD32VW553/V1_MQTT_OK/GD32VW55X_Wifi_BLE_SDK/GD32VW55x_RELEASE_V1.0.2/MSDK/cloud/alicloud/src/protocol/coap/local\CoAPMessage.c ****     return msg_id;
 682              		.loc 1 210 5 discriminator 4
 683              	.L56:
 211:C:/Users/stapi/OneDrive/Desktop/GD32VW553/V1_MQTT_OK/GD32VW55X_Wifi_BLE_SDK/GD32VW55x_RELEASE_V1.0.2/MSDK/cloud/alicloud/src/protocol/coap/local\CoAPMessage.c **** }
 684              		.loc 1 211 1 is_stmt 0
 685 003a 2685     		mv	a0,s1
 686 003c 17030000 		tail	__riscv_restore_2
 686      67000300 
 687              		.cfi_remember_state
 688              		.cfi_restore 9
 689              		.cfi_restore 8
 690              		.cfi_restore 1
 691              		.cfi_def_cfa_offset 0
 692              	.LVL77:
 693              	.L59:
 694              		.cfi_restore_state
 208:C:/Users/stapi/OneDrive/Desktop/GD32VW553/V1_MQTT_OK/GD32VW55X_Wifi_BLE_SDK/GD32VW55x_RELEASE_V1.0.2/MSDK/cloud/alicloud/src/protocol/coap/local\CoAPMessage.c ****     HAL_MutexUnlock(ctx->mutex);
 695              		.loc 1 208 76
 696 0044 8547     		li	a5,1
 208:C:/Users/stapi/OneDrive/Desktop/GD32VW553/V1_MQTT_OK/GD32VW55X_Wifi_BLE_SDK/GD32VW55x_RELEASE_V1.0.2/MSDK/cloud/alicloud/src/protocol/coap/local\CoAPMessage.c ****     HAL_MutexUnlock(ctx->mutex);
 697              		.loc 1 208 12
 698 0046 8544     		li	s1,1
 699 0048 D5B7     		j	.L57
 700              		.cfi_endproc
 701              	.LFE26:
 703              		.section	.text.CoAPMessageId_set,"ax",@progbits
 704              		.align	1
 705              		.globl	CoAPMessageId_set
 707              	CoAPMessageId_set:
 708              	.LFB27:
 212:C:/Users/stapi/OneDrive/Desktop/GD32VW553/V1_MQTT_OK/GD32VW55X_Wifi_BLE_SDK/GD32VW55x_RELEASE_V1.0.2/MSDK/cloud/alicloud/src/protocol/coap/local\CoAPMessage.c **** 
 213:C:/Users/stapi/OneDrive/Desktop/GD32VW553/V1_MQTT_OK/GD32VW55X_Wifi_BLE_SDK/GD32VW55x_RELEASE_V1.0.2/MSDK/cloud/alicloud/src/protocol/coap/local\CoAPMessage.c **** 
 214:C:/Users/stapi/OneDrive/Desktop/GD32VW553/V1_MQTT_OK/GD32VW55X_Wifi_BLE_SDK/GD32VW55x_RELEASE_V1.0.2/MSDK/cloud/alicloud/src/protocol/coap/local\CoAPMessage.c **** int CoAPMessageId_set(CoAPMessage *message, unsigned short msgid)
 215:C:/Users/stapi/OneDrive/Desktop/GD32VW553/V1_MQTT_OK/GD32VW55X_Wifi_BLE_SDK/GD32VW55x_RELEASE_V1.0.2/MSDK/cloud/alicloud/src/protocol/coap/local\CoAPMessage.c **** {
 709              		.loc 1 215 1 is_stmt 1
 710              		.cfi_startproc
 711              	.LVL78:
 216:C:/Users/stapi/OneDrive/Desktop/GD32VW553/V1_MQTT_OK/GD32VW55X_Wifi_BLE_SDK/GD32VW55x_RELEASE_V1.0.2/MSDK/cloud/alicloud/src/protocol/coap/local\CoAPMessage.c ****     if (NULL == message) {
 712              		.loc 1 216 5
 713              		.loc 1 216 8 is_stmt 0
 714 0000 09C5     		beq	a0,zero,.L63
 217:C:/Users/stapi/OneDrive/Desktop/GD32VW553/V1_MQTT_OK/GD32VW55X_Wifi_BLE_SDK/GD32VW55x_RELEASE_V1.0.2/MSDK/cloud/alicloud/src/protocol/coap/local\CoAPMessage.c ****         return COAP_ERROR_NULL;
 218:C:/Users/stapi/OneDrive/Desktop/GD32VW553/V1_MQTT_OK/GD32VW55X_Wifi_BLE_SDK/GD32VW55x_RELEASE_V1.0.2/MSDK/cloud/alicloud/src/protocol/coap/local\CoAPMessage.c ****     }
 219:C:/Users/stapi/OneDrive/Desktop/GD32VW553/V1_MQTT_OK/GD32VW55X_Wifi_BLE_SDK/GD32VW55x_RELEASE_V1.0.2/MSDK/cloud/alicloud/src/protocol/coap/local\CoAPMessage.c ****     message->header.msgid = msgid;
 715              		.loc 1 219 5 is_stmt 1
 716              		.loc 1 219 27 is_stmt 0
 717 0002 2311B500 		sh	a1,2(a0)
 220:C:/Users/stapi/OneDrive/Desktop/GD32VW553/V1_MQTT_OK/GD32VW55X_Wifi_BLE_SDK/GD32VW55x_RELEASE_V1.0.2/MSDK/cloud/alicloud/src/protocol/coap/local\CoAPMessage.c ****     return COAP_SUCCESS;
 718              		.loc 1 220 5 is_stmt 1
 719              		.loc 1 220 12 is_stmt 0
 720 0006 0145     		li	a0,0
 721              	.LVL79:
 722 0008 8280     		ret
 723              	.LVL80:
 724              	.L63:
 217:C:/Users/stapi/OneDrive/Desktop/GD32VW553/V1_MQTT_OK/GD32VW55X_Wifi_BLE_SDK/GD32VW55x_RELEASE_V1.0.2/MSDK/cloud/alicloud/src/protocol/coap/local\CoAPMessage.c ****         return COAP_ERROR_NULL;
 725              		.loc 1 217 16
 726 000a 13052010 		li	a0,258
 727              	.LVL81:
 221:C:/Users/stapi/OneDrive/Desktop/GD32VW553/V1_MQTT_OK/GD32VW55X_Wifi_BLE_SDK/GD32VW55x_RELEASE_V1.0.2/MSDK/cloud/alicloud/src/protocol/coap/local\CoAPMessage.c **** }
 728              		.loc 1 221 1
 729 000e 8280     		ret
 730              		.cfi_endproc
 731              	.LFE27:
 733              		.section	.text.CoAPMessageType_set,"ax",@progbits
 734              		.align	1
 735              		.globl	CoAPMessageType_set
 737              	CoAPMessageType_set:
 738              	.LFB28:
 222:C:/Users/stapi/OneDrive/Desktop/GD32VW553/V1_MQTT_OK/GD32VW55X_Wifi_BLE_SDK/GD32VW55x_RELEASE_V1.0.2/MSDK/cloud/alicloud/src/protocol/coap/local\CoAPMessage.c **** 
 223:C:/Users/stapi/OneDrive/Desktop/GD32VW553/V1_MQTT_OK/GD32VW55X_Wifi_BLE_SDK/GD32VW55x_RELEASE_V1.0.2/MSDK/cloud/alicloud/src/protocol/coap/local\CoAPMessage.c **** int CoAPMessageType_set(CoAPMessage *message, unsigned char type)
 224:C:/Users/stapi/OneDrive/Desktop/GD32VW553/V1_MQTT_OK/GD32VW55X_Wifi_BLE_SDK/GD32VW55x_RELEASE_V1.0.2/MSDK/cloud/alicloud/src/protocol/coap/local\CoAPMessage.c **** {
 739              		.loc 1 224 1 is_stmt 1
 740              		.cfi_startproc
 741              	.LVL82:
 225:C:/Users/stapi/OneDrive/Desktop/GD32VW553/V1_MQTT_OK/GD32VW55X_Wifi_BLE_SDK/GD32VW55x_RELEASE_V1.0.2/MSDK/cloud/alicloud/src/protocol/coap/local\CoAPMessage.c ****     if (NULL == message) {
 742              		.loc 1 225 5
 224:C:/Users/stapi/OneDrive/Desktop/GD32VW553/V1_MQTT_OK/GD32VW55X_Wifi_BLE_SDK/GD32VW55x_RELEASE_V1.0.2/MSDK/cloud/alicloud/src/protocol/coap/local\CoAPMessage.c ****     if (NULL == message) {
 743              		.loc 1 224 1 is_stmt 0
 744 0000 AA87     		mv	a5,a0
 745              		.loc 1 225 8
 746 0002 05C5     		beq	a0,zero,.L66
 226:C:/Users/stapi/OneDrive/Desktop/GD32VW553/V1_MQTT_OK/GD32VW55X_Wifi_BLE_SDK/GD32VW55x_RELEASE_V1.0.2/MSDK/cloud/alicloud/src/protocol/coap/local\CoAPMessage.c ****         return COAP_ERROR_NULL;
 227:C:/Users/stapi/OneDrive/Desktop/GD32VW553/V1_MQTT_OK/GD32VW55X_Wifi_BLE_SDK/GD32VW55x_RELEASE_V1.0.2/MSDK/cloud/alicloud/src/protocol/coap/local\CoAPMessage.c ****     }
 228:C:/Users/stapi/OneDrive/Desktop/GD32VW553/V1_MQTT_OK/GD32VW55X_Wifi_BLE_SDK/GD32VW55x_RELEASE_V1.0.2/MSDK/cloud/alicloud/src/protocol/coap/local\CoAPMessage.c ****     if (COAP_MESSAGE_TYPE_NON > type || COAP_MESSAGE_TYPE_RST < type) {
 747              		.loc 1 228 5 is_stmt 1
 748              		.loc 1 228 38 is_stmt 0
 749 0004 1387F5FF 		addi	a4,a1,-1
 750              		.loc 1 228 8
 751 0008 1377F70F 		andi	a4,a4,0xff
 752 000c 8946     		li	a3,2
 229:C:/Users/stapi/OneDrive/Desktop/GD32VW553/V1_MQTT_OK/GD32VW55X_Wifi_BLE_SDK/GD32VW55x_RELEASE_V1.0.2/MSDK/cloud/alicloud/src/protocol/coap/local\CoAPMessage.c ****         return COAP_ERROR_INVALID_PARAM;
 753              		.loc 1 229 16
 754 000e 13051010 		li	a0,257
 755              	.LVL83:
 228:C:/Users/stapi/OneDrive/Desktop/GD32VW553/V1_MQTT_OK/GD32VW55X_Wifi_BLE_SDK/GD32VW55x_RELEASE_V1.0.2/MSDK/cloud/alicloud/src/protocol/coap/local\CoAPMessage.c ****         return COAP_ERROR_INVALID_PARAM;
 756              		.loc 1 228 8
 757 0012 63EEE600 		bgtu	a4,a3,.L64
 230:C:/Users/stapi/OneDrive/Desktop/GD32VW553/V1_MQTT_OK/GD32VW55X_Wifi_BLE_SDK/GD32VW55x_RELEASE_V1.0.2/MSDK/cloud/alicloud/src/protocol/coap/local\CoAPMessage.c ****     }
 231:C:/Users/stapi/OneDrive/Desktop/GD32VW553/V1_MQTT_OK/GD32VW55X_Wifi_BLE_SDK/GD32VW55x_RELEASE_V1.0.2/MSDK/cloud/alicloud/src/protocol/coap/local\CoAPMessage.c **** 
 232:C:/Users/stapi/OneDrive/Desktop/GD32VW553/V1_MQTT_OK/GD32VW55X_Wifi_BLE_SDK/GD32VW55x_RELEASE_V1.0.2/MSDK/cloud/alicloud/src/protocol/coap/local\CoAPMessage.c ****     message->header.type = type;
 758              		.loc 1 232 5 is_stmt 1
 759              		.loc 1 232 26 is_stmt 0
 760 0016 03C70700 		lbu	a4,0(a5)
 761 001a 8D89     		andi	a1,a1,3
 762              	.LVL84:
 763 001c 8A05     		slli	a1,a1,2
 764 001e 4D9B     		andi	a4,a4,-13
 765 0020 D98D     		or	a1,a4,a1
 766 0022 2380B700 		sb	a1,0(a5)
 233:C:/Users/stapi/OneDrive/Desktop/GD32VW553/V1_MQTT_OK/GD32VW55X_Wifi_BLE_SDK/GD32VW55x_RELEASE_V1.0.2/MSDK/cloud/alicloud/src/protocol/coap/local\CoAPMessage.c ****     return COAP_SUCCESS;
 767              		.loc 1 233 5 is_stmt 1
 768              		.loc 1 233 12 is_stmt 0
 769 0026 0145     		li	a0,0
 770 0028 8280     		ret
 771              	.LVL85:
 772              	.L66:
 226:C:/Users/stapi/OneDrive/Desktop/GD32VW553/V1_MQTT_OK/GD32VW55X_Wifi_BLE_SDK/GD32VW55x_RELEASE_V1.0.2/MSDK/cloud/alicloud/src/protocol/coap/local\CoAPMessage.c ****     }
 773              		.loc 1 226 16
 774 002a 13052010 		li	a0,258
 775              	.LVL86:
 776              	.L64:
 234:C:/Users/stapi/OneDrive/Desktop/GD32VW553/V1_MQTT_OK/GD32VW55X_Wifi_BLE_SDK/GD32VW55x_RELEASE_V1.0.2/MSDK/cloud/alicloud/src/protocol/coap/local\CoAPMessage.c **** }
 777              		.loc 1 234 1
 778 002e 8280     		ret
 779              		.cfi_endproc
 780              	.LFE28:
 782              		.section	.text.CoAPMessageCode_set,"ax",@progbits
 783              		.align	1
 784              		.globl	CoAPMessageCode_set
 786              	CoAPMessageCode_set:
 787              	.LFB29:
 235:C:/Users/stapi/OneDrive/Desktop/GD32VW553/V1_MQTT_OK/GD32VW55X_Wifi_BLE_SDK/GD32VW55x_RELEASE_V1.0.2/MSDK/cloud/alicloud/src/protocol/coap/local\CoAPMessage.c **** 
 236:C:/Users/stapi/OneDrive/Desktop/GD32VW553/V1_MQTT_OK/GD32VW55X_Wifi_BLE_SDK/GD32VW55x_RELEASE_V1.0.2/MSDK/cloud/alicloud/src/protocol/coap/local\CoAPMessage.c **** int CoAPMessageCode_set(CoAPMessage *message, CoAPMessageCode code)
 237:C:/Users/stapi/OneDrive/Desktop/GD32VW553/V1_MQTT_OK/GD32VW55X_Wifi_BLE_SDK/GD32VW55x_RELEASE_V1.0.2/MSDK/cloud/alicloud/src/protocol/coap/local\CoAPMessage.c **** {
 788              		.loc 1 237 1 is_stmt 1
 789              		.cfi_startproc
 790              	.LVL87:
 238:C:/Users/stapi/OneDrive/Desktop/GD32VW553/V1_MQTT_OK/GD32VW55X_Wifi_BLE_SDK/GD32VW55x_RELEASE_V1.0.2/MSDK/cloud/alicloud/src/protocol/coap/local\CoAPMessage.c ****     if (NULL == message) {
 791              		.loc 1 238 5
 792              		.loc 1 238 8 is_stmt 0
 793 0000 09C5     		beq	a0,zero,.L70
 239:C:/Users/stapi/OneDrive/Desktop/GD32VW553/V1_MQTT_OK/GD32VW55X_Wifi_BLE_SDK/GD32VW55x_RELEASE_V1.0.2/MSDK/cloud/alicloud/src/protocol/coap/local\CoAPMessage.c ****         return COAP_ERROR_NULL;
 240:C:/Users/stapi/OneDrive/Desktop/GD32VW553/V1_MQTT_OK/GD32VW55X_Wifi_BLE_SDK/GD32VW55x_RELEASE_V1.0.2/MSDK/cloud/alicloud/src/protocol/coap/local\CoAPMessage.c ****     }
 241:C:/Users/stapi/OneDrive/Desktop/GD32VW553/V1_MQTT_OK/GD32VW55X_Wifi_BLE_SDK/GD32VW55x_RELEASE_V1.0.2/MSDK/cloud/alicloud/src/protocol/coap/local\CoAPMessage.c ****     message->header.code  = code;
 794              		.loc 1 241 5 is_stmt 1
 795              		.loc 1 241 27 is_stmt 0
 796 0002 A300B500 		sb	a1,1(a0)
 242:C:/Users/stapi/OneDrive/Desktop/GD32VW553/V1_MQTT_OK/GD32VW55X_Wifi_BLE_SDK/GD32VW55x_RELEASE_V1.0.2/MSDK/cloud/alicloud/src/protocol/coap/local\CoAPMessage.c ****     return COAP_SUCCESS;
 797              		.loc 1 242 5 is_stmt 1
 798              		.loc 1 242 12 is_stmt 0
 799 0006 0145     		li	a0,0
 800              	.LVL88:
 801 0008 8280     		ret
 802              	.LVL89:
 803              	.L70:
 239:C:/Users/stapi/OneDrive/Desktop/GD32VW553/V1_MQTT_OK/GD32VW55X_Wifi_BLE_SDK/GD32VW55x_RELEASE_V1.0.2/MSDK/cloud/alicloud/src/protocol/coap/local\CoAPMessage.c ****         return COAP_ERROR_NULL;
 804              		.loc 1 239 16
 805 000a 13052010 		li	a0,258
 806              	.LVL90:
 243:C:/Users/stapi/OneDrive/Desktop/GD32VW553/V1_MQTT_OK/GD32VW55X_Wifi_BLE_SDK/GD32VW55x_RELEASE_V1.0.2/MSDK/cloud/alicloud/src/protocol/coap/local\CoAPMessage.c **** }
 807              		.loc 1 243 1
 808 000e 8280     		ret
 809              		.cfi_endproc
 810              	.LFE29:
 812              		.section	.text.CoAPMessageCode_get,"ax",@progbits
 813              		.align	1
 814              		.globl	CoAPMessageCode_get
 816              	CoAPMessageCode_get:
 817              	.LFB30:
 244:C:/Users/stapi/OneDrive/Desktop/GD32VW553/V1_MQTT_OK/GD32VW55X_Wifi_BLE_SDK/GD32VW55x_RELEASE_V1.0.2/MSDK/cloud/alicloud/src/protocol/coap/local\CoAPMessage.c **** 
 245:C:/Users/stapi/OneDrive/Desktop/GD32VW553/V1_MQTT_OK/GD32VW55X_Wifi_BLE_SDK/GD32VW55x_RELEASE_V1.0.2/MSDK/cloud/alicloud/src/protocol/coap/local\CoAPMessage.c **** int CoAPMessageCode_get(CoAPMessage *message, CoAPMessageCode *code)
 246:C:/Users/stapi/OneDrive/Desktop/GD32VW553/V1_MQTT_OK/GD32VW55X_Wifi_BLE_SDK/GD32VW55x_RELEASE_V1.0.2/MSDK/cloud/alicloud/src/protocol/coap/local\CoAPMessage.c **** {
 818              		.loc 1 246 1 is_stmt 1
 819              		.cfi_startproc
 820              	.LVL91:
 247:C:/Users/stapi/OneDrive/Desktop/GD32VW553/V1_MQTT_OK/GD32VW55X_Wifi_BLE_SDK/GD32VW55x_RELEASE_V1.0.2/MSDK/cloud/alicloud/src/protocol/coap/local\CoAPMessage.c ****     if (NULL == message || NULL == code) {
 821              		.loc 1 247 5
 246:C:/Users/stapi/OneDrive/Desktop/GD32VW553/V1_MQTT_OK/GD32VW55X_Wifi_BLE_SDK/GD32VW55x_RELEASE_V1.0.2/MSDK/cloud/alicloud/src/protocol/coap/local\CoAPMessage.c ****     if (NULL == message || NULL == code) {
 822              		.loc 1 246 1 is_stmt 0
 823 0000 AA87     		mv	a5,a0
 248:C:/Users/stapi/OneDrive/Desktop/GD32VW553/V1_MQTT_OK/GD32VW55X_Wifi_BLE_SDK/GD32VW55x_RELEASE_V1.0.2/MSDK/cloud/alicloud/src/protocol/coap/local\CoAPMessage.c ****         return COAP_ERROR_NULL;
 824              		.loc 1 248 16
 825 0002 13052010 		li	a0,258
 826              	.LVL92:
 247:C:/Users/stapi/OneDrive/Desktop/GD32VW553/V1_MQTT_OK/GD32VW55X_Wifi_BLE_SDK/GD32VW55x_RELEASE_V1.0.2/MSDK/cloud/alicloud/src/protocol/coap/local\CoAPMessage.c ****     if (NULL == message || NULL == code) {
 827              		.loc 1 247 8
 828 0006 99C7     		beq	a5,zero,.L71
 247:C:/Users/stapi/OneDrive/Desktop/GD32VW553/V1_MQTT_OK/GD32VW55X_Wifi_BLE_SDK/GD32VW55x_RELEASE_V1.0.2/MSDK/cloud/alicloud/src/protocol/coap/local\CoAPMessage.c ****     if (NULL == message || NULL == code) {
 829              		.loc 1 247 25 discriminator 1
 830 0008 91C5     		beq	a1,zero,.L71
 249:C:/Users/stapi/OneDrive/Desktop/GD32VW553/V1_MQTT_OK/GD32VW55X_Wifi_BLE_SDK/GD32VW55x_RELEASE_V1.0.2/MSDK/cloud/alicloud/src/protocol/coap/local\CoAPMessage.c ****     }
 250:C:/Users/stapi/OneDrive/Desktop/GD32VW553/V1_MQTT_OK/GD32VW55X_Wifi_BLE_SDK/GD32VW55x_RELEASE_V1.0.2/MSDK/cloud/alicloud/src/protocol/coap/local\CoAPMessage.c ****     *code = message->header.code;
 831              		.loc 1 250 5 is_stmt 1
 832              		.loc 1 250 28 is_stmt 0
 833 000a 83C71700 		lbu	a5,1(a5)
 834              	.LVL93:
 251:C:/Users/stapi/OneDrive/Desktop/GD32VW553/V1_MQTT_OK/GD32VW55X_Wifi_BLE_SDK/GD32VW55x_RELEASE_V1.0.2/MSDK/cloud/alicloud/src/protocol/coap/local\CoAPMessage.c ****     return COAP_SUCCESS;
 835              		.loc 1 251 12
 836 000e 0145     		li	a0,0
 250:C:/Users/stapi/OneDrive/Desktop/GD32VW553/V1_MQTT_OK/GD32VW55X_Wifi_BLE_SDK/GD32VW55x_RELEASE_V1.0.2/MSDK/cloud/alicloud/src/protocol/coap/local\CoAPMessage.c ****     return COAP_SUCCESS;
 837              		.loc 1 250 28
 838 0010 9CC1     		sw	a5,0(a1)
 839              		.loc 1 251 5 is_stmt 1
 840              		.loc 1 251 12 is_stmt 0
 841 0012 8280     		ret
 842              	.LVL94:
 843              	.L71:
 252:C:/Users/stapi/OneDrive/Desktop/GD32VW553/V1_MQTT_OK/GD32VW55X_Wifi_BLE_SDK/GD32VW55x_RELEASE_V1.0.2/MSDK/cloud/alicloud/src/protocol/coap/local\CoAPMessage.c **** }
 844              		.loc 1 252 1
 845 0014 8280     		ret
 846              		.cfi_endproc
 847              	.LFE30:
 849              		.section	.text.CoAPMessageToken_set,"ax",@progbits
 850              		.align	1
 851              		.globl	CoAPMessageToken_set
 853              	CoAPMessageToken_set:
 854              	.LFB31:
 253:C:/Users/stapi/OneDrive/Desktop/GD32VW553/V1_MQTT_OK/GD32VW55X_Wifi_BLE_SDK/GD32VW55x_RELEASE_V1.0.2/MSDK/cloud/alicloud/src/protocol/coap/local\CoAPMessage.c **** 
 254:C:/Users/stapi/OneDrive/Desktop/GD32VW553/V1_MQTT_OK/GD32VW55X_Wifi_BLE_SDK/GD32VW55x_RELEASE_V1.0.2/MSDK/cloud/alicloud/src/protocol/coap/local\CoAPMessage.c **** int CoAPMessageToken_set(CoAPMessage *message, unsigned char *token,
 255:C:/Users/stapi/OneDrive/Desktop/GD32VW553/V1_MQTT_OK/GD32VW55X_Wifi_BLE_SDK/GD32VW55x_RELEASE_V1.0.2/MSDK/cloud/alicloud/src/protocol/coap/local\CoAPMessage.c ****                          unsigned char tokenlen)
 256:C:/Users/stapi/OneDrive/Desktop/GD32VW553/V1_MQTT_OK/GD32VW55X_Wifi_BLE_SDK/GD32VW55x_RELEASE_V1.0.2/MSDK/cloud/alicloud/src/protocol/coap/local\CoAPMessage.c **** {
 855              		.loc 1 256 1 is_stmt 1
 856              		.cfi_startproc
 857              	.LVL95:
 257:C:/Users/stapi/OneDrive/Desktop/GD32VW553/V1_MQTT_OK/GD32VW55X_Wifi_BLE_SDK/GD32VW55x_RELEASE_V1.0.2/MSDK/cloud/alicloud/src/protocol/coap/local\CoAPMessage.c ****     if (NULL == message || NULL == token) {
 858              		.loc 1 257 5
 859              		.loc 1 257 8 is_stmt 0
 860 0000 29C1     		beq	a0,zero,.L77
 256:C:/Users/stapi/OneDrive/Desktop/GD32VW553/V1_MQTT_OK/GD32VW55X_Wifi_BLE_SDK/GD32VW55x_RELEASE_V1.0.2/MSDK/cloud/alicloud/src/protocol/coap/local\CoAPMessage.c ****     if (NULL == message || NULL == token) {
 861              		.loc 1 256 1 discriminator 1
 862 0002 17030000 		call	t0,__riscv_save_2
 862      E7020300 
 863              		.cfi_offset 9, -12
 864              		.cfi_offset 8, -8
 865              		.cfi_offset 1, -4
 866              		.cfi_def_cfa_offset 16
 867 000a 2A84     		mv	s0,a0
 258:C:/Users/stapi/OneDrive/Desktop/GD32VW553/V1_MQTT_OK/GD32VW55X_Wifi_BLE_SDK/GD32VW55x_RELEASE_V1.0.2/MSDK/cloud/alicloud/src/protocol/coap/local\CoAPMessage.c ****         return COAP_ERROR_NULL;
 868              		.loc 1 258 16 discriminator 1
 869 000c 13052010 		li	a0,258
 870              	.LVL96:
 257:C:/Users/stapi/OneDrive/Desktop/GD32VW553/V1_MQTT_OK/GD32VW55X_Wifi_BLE_SDK/GD32VW55x_RELEASE_V1.0.2/MSDK/cloud/alicloud/src/protocol/coap/local\CoAPMessage.c ****     if (NULL == message || NULL == token) {
 871              		.loc 1 257 25 discriminator 1
 872 0010 8DC5     		beq	a1,zero,.L75
 259:C:/Users/stapi/OneDrive/Desktop/GD32VW553/V1_MQTT_OK/GD32VW55X_Wifi_BLE_SDK/GD32VW55x_RELEASE_V1.0.2/MSDK/cloud/alicloud/src/protocol/coap/local\CoAPMessage.c ****     }
 260:C:/Users/stapi/OneDrive/Desktop/GD32VW553/V1_MQTT_OK/GD32VW55X_Wifi_BLE_SDK/GD32VW55x_RELEASE_V1.0.2/MSDK/cloud/alicloud/src/protocol/coap/local\CoAPMessage.c ****     if (COAP_MSG_MAX_TOKEN_LEN < tokenlen) {
 873              		.loc 1 260 8
 874 0012 A147     		li	a5,8
 875 0014 B284     		mv	s1,a2
 876              		.loc 1 260 5 is_stmt 1
 261:C:/Users/stapi/OneDrive/Desktop/GD32VW553/V1_MQTT_OK/GD32VW55X_Wifi_BLE_SDK/GD32VW55x_RELEASE_V1.0.2/MSDK/cloud/alicloud/src/protocol/coap/local\CoAPMessage.c ****         return COAP_ERROR_INVALID_LENGTH;
 877              		.loc 1 261 16 is_stmt 0
 878 0016 13054010 		li	a0,260
 260:C:/Users/stapi/OneDrive/Desktop/GD32VW553/V1_MQTT_OK/GD32VW55X_Wifi_BLE_SDK/GD32VW55x_RELEASE_V1.0.2/MSDK/cloud/alicloud/src/protocol/coap/local\CoAPMessage.c ****         return COAP_ERROR_INVALID_LENGTH;
 879              		.loc 1 260 8
 880 001a 63E0C702 		bgtu	a2,a5,.L75
 262:C:/Users/stapi/OneDrive/Desktop/GD32VW553/V1_MQTT_OK/GD32VW55X_Wifi_BLE_SDK/GD32VW55x_RELEASE_V1.0.2/MSDK/cloud/alicloud/src/protocol/coap/local\CoAPMessage.c ****     }
 263:C:/Users/stapi/OneDrive/Desktop/GD32VW553/V1_MQTT_OK/GD32VW55X_Wifi_BLE_SDK/GD32VW55x_RELEASE_V1.0.2/MSDK/cloud/alicloud/src/protocol/coap/local\CoAPMessage.c ****     memcpy(message->token, token, tokenlen);
 881              		.loc 1 263 5 is_stmt 1
 882 001e 13054400 		addi	a0,s0,4
 883 0022 97000000 		call	memcpy
 883      E7800000 
 884              	.LVL97:
 264:C:/Users/stapi/OneDrive/Desktop/GD32VW553/V1_MQTT_OK/GD32VW55X_Wifi_BLE_SDK/GD32VW55x_RELEASE_V1.0.2/MSDK/cloud/alicloud/src/protocol/coap/local\CoAPMessage.c ****     message->header.tokenlen = tokenlen;
 885              		.loc 1 264 5
 886              		.loc 1 264 30 is_stmt 0
 887 002a 03460400 		lbu	a2,0(s0)
 888 002e 9204     		slli	s1,s1,4
 265:C:/Users/stapi/OneDrive/Desktop/GD32VW553/V1_MQTT_OK/GD32VW55X_Wifi_BLE_SDK/GD32VW55x_RELEASE_V1.0.2/MSDK/cloud/alicloud/src/protocol/coap/local\CoAPMessage.c **** 
 266:C:/Users/stapi/OneDrive/Desktop/GD32VW553/V1_MQTT_OK/GD32VW55X_Wifi_BLE_SDK/GD32VW55x_RELEASE_V1.0.2/MSDK/cloud/alicloud/src/protocol/coap/local\CoAPMessage.c ****     return COAP_SUCCESS;
 889              		.loc 1 266 12
 890 0030 0145     		li	a0,0
 264:C:/Users/stapi/OneDrive/Desktop/GD32VW553/V1_MQTT_OK/GD32VW55X_Wifi_BLE_SDK/GD32VW55x_RELEASE_V1.0.2/MSDK/cloud/alicloud/src/protocol/coap/local\CoAPMessage.c ****     message->header.tokenlen = tokenlen;
 891              		.loc 1 264 30
 892 0032 3D8A     		andi	a2,a2,15
 893 0034 D18C     		or	s1,a2,s1
 894 0036 23009400 		sb	s1,0(s0)
 895              		.loc 1 266 5 is_stmt 1
 896              	.L75:
 267:C:/Users/stapi/OneDrive/Desktop/GD32VW553/V1_MQTT_OK/GD32VW55X_Wifi_BLE_SDK/GD32VW55x_RELEASE_V1.0.2/MSDK/cloud/alicloud/src/protocol/coap/local\CoAPMessage.c **** }
 897              		.loc 1 267 1 is_stmt 0
 898 003a 17030000 		tail	__riscv_restore_2
 898      67000300 
 899              		.cfi_restore 9
 900              		.cfi_restore 8
 901              		.cfi_restore 1
 902              		.cfi_def_cfa_offset 0
 903              	.LVL98:
 904              	.L77:
 258:C:/Users/stapi/OneDrive/Desktop/GD32VW553/V1_MQTT_OK/GD32VW55X_Wifi_BLE_SDK/GD32VW55x_RELEASE_V1.0.2/MSDK/cloud/alicloud/src/protocol/coap/local\CoAPMessage.c ****     }
 905              		.loc 1 258 16
 906 0042 13052010 		li	a0,258
 907              	.LVL99:
 908              		.loc 1 267 1
 909 0046 8280     		ret
 910              		.cfi_endproc
 911              	.LFE31:
 913              		.section	.text.CoAPMessageUserData_set,"ax",@progbits
 914              		.align	1
 915              		.globl	CoAPMessageUserData_set
 917              	CoAPMessageUserData_set:
 918              	.LFB32:
 268:C:/Users/stapi/OneDrive/Desktop/GD32VW553/V1_MQTT_OK/GD32VW55X_Wifi_BLE_SDK/GD32VW55x_RELEASE_V1.0.2/MSDK/cloud/alicloud/src/protocol/coap/local\CoAPMessage.c **** 
 269:C:/Users/stapi/OneDrive/Desktop/GD32VW553/V1_MQTT_OK/GD32VW55X_Wifi_BLE_SDK/GD32VW55x_RELEASE_V1.0.2/MSDK/cloud/alicloud/src/protocol/coap/local\CoAPMessage.c **** int CoAPMessageUserData_set(CoAPMessage *message, void *userdata)
 270:C:/Users/stapi/OneDrive/Desktop/GD32VW553/V1_MQTT_OK/GD32VW55X_Wifi_BLE_SDK/GD32VW55x_RELEASE_V1.0.2/MSDK/cloud/alicloud/src/protocol/coap/local\CoAPMessage.c **** {
 919              		.loc 1 270 1 is_stmt 1
 920              		.cfi_startproc
 921              	.LVL100:
 271:C:/Users/stapi/OneDrive/Desktop/GD32VW553/V1_MQTT_OK/GD32VW55X_Wifi_BLE_SDK/GD32VW55x_RELEASE_V1.0.2/MSDK/cloud/alicloud/src/protocol/coap/local\CoAPMessage.c ****     if (NULL == message || NULL == userdata) {
 922              		.loc 1 271 5
 270:C:/Users/stapi/OneDrive/Desktop/GD32VW553/V1_MQTT_OK/GD32VW55X_Wifi_BLE_SDK/GD32VW55x_RELEASE_V1.0.2/MSDK/cloud/alicloud/src/protocol/coap/local\CoAPMessage.c ****     if (NULL == message || NULL == userdata) {
 923              		.loc 1 270 1 is_stmt 0
 924 0000 AA87     		mv	a5,a0
 272:C:/Users/stapi/OneDrive/Desktop/GD32VW553/V1_MQTT_OK/GD32VW55X_Wifi_BLE_SDK/GD32VW55x_RELEASE_V1.0.2/MSDK/cloud/alicloud/src/protocol/coap/local\CoAPMessage.c ****         return COAP_ERROR_NULL;
 925              		.loc 1 272 16
 926 0002 13052010 		li	a0,258
 927              	.LVL101:
 271:C:/Users/stapi/OneDrive/Desktop/GD32VW553/V1_MQTT_OK/GD32VW55X_Wifi_BLE_SDK/GD32VW55x_RELEASE_V1.0.2/MSDK/cloud/alicloud/src/protocol/coap/local\CoAPMessage.c ****     if (NULL == message || NULL == userdata) {
 928              		.loc 1 271 8
 929 0006 89C7     		beq	a5,zero,.L84
 271:C:/Users/stapi/OneDrive/Desktop/GD32VW553/V1_MQTT_OK/GD32VW55X_Wifi_BLE_SDK/GD32VW55x_RELEASE_V1.0.2/MSDK/cloud/alicloud/src/protocol/coap/local\CoAPMessage.c ****     if (NULL == message || NULL == userdata) {
 930              		.loc 1 271 25 discriminator 1
 931 0008 81C5     		beq	a1,zero,.L84
 273:C:/Users/stapi/OneDrive/Desktop/GD32VW553/V1_MQTT_OK/GD32VW55X_Wifi_BLE_SDK/GD32VW55x_RELEASE_V1.0.2/MSDK/cloud/alicloud/src/protocol/coap/local\CoAPMessage.c ****     }
 274:C:/Users/stapi/OneDrive/Desktop/GD32VW553/V1_MQTT_OK/GD32VW55X_Wifi_BLE_SDK/GD32VW55x_RELEASE_V1.0.2/MSDK/cloud/alicloud/src/protocol/coap/local\CoAPMessage.c ****     message->user = userdata;
 932              		.loc 1 274 5 is_stmt 1
 933              		.loc 1 274 19 is_stmt 0
 934 000a ACDF     		sw	a1,120(a5)
 275:C:/Users/stapi/OneDrive/Desktop/GD32VW553/V1_MQTT_OK/GD32VW55X_Wifi_BLE_SDK/GD32VW55x_RELEASE_V1.0.2/MSDK/cloud/alicloud/src/protocol/coap/local\CoAPMessage.c ****     return COAP_SUCCESS;
 935              		.loc 1 275 5 is_stmt 1
 936              		.loc 1 275 12 is_stmt 0
 937 000c 0145     		li	a0,0
 938 000e 8280     		ret
 939              	.L84:
 276:C:/Users/stapi/OneDrive/Desktop/GD32VW553/V1_MQTT_OK/GD32VW55X_Wifi_BLE_SDK/GD32VW55x_RELEASE_V1.0.2/MSDK/cloud/alicloud/src/protocol/coap/local\CoAPMessage.c **** }
 940              		.loc 1 276 1
 941 0010 8280     		ret
 942              		.cfi_endproc
 943              	.LFE32:
 945              		.section	.text.CoAPMessageKeep_Set,"ax",@progbits
 946              		.align	1
 947              		.globl	CoAPMessageKeep_Set
 949              	CoAPMessageKeep_Set:
 950              	.LFB33:
 277:C:/Users/stapi/OneDrive/Desktop/GD32VW553/V1_MQTT_OK/GD32VW55X_Wifi_BLE_SDK/GD32VW55x_RELEASE_V1.0.2/MSDK/cloud/alicloud/src/protocol/coap/local\CoAPMessage.c **** 
 278:C:/Users/stapi/OneDrive/Desktop/GD32VW553/V1_MQTT_OK/GD32VW55X_Wifi_BLE_SDK/GD32VW55x_RELEASE_V1.0.2/MSDK/cloud/alicloud/src/protocol/coap/local\CoAPMessage.c **** int CoAPMessageKeep_Set(CoAPMessage *message, int keep)
 279:C:/Users/stapi/OneDrive/Desktop/GD32VW553/V1_MQTT_OK/GD32VW55X_Wifi_BLE_SDK/GD32VW55x_RELEASE_V1.0.2/MSDK/cloud/alicloud/src/protocol/coap/local\CoAPMessage.c **** {
 951              		.loc 1 279 1 is_stmt 1
 952              		.cfi_startproc
 953              	.LVL102:
 280:C:/Users/stapi/OneDrive/Desktop/GD32VW553/V1_MQTT_OK/GD32VW55X_Wifi_BLE_SDK/GD32VW55x_RELEASE_V1.0.2/MSDK/cloud/alicloud/src/protocol/coap/local\CoAPMessage.c ****     if (NULL == message || keep < 0) {
 954              		.loc 1 280 5
 279:C:/Users/stapi/OneDrive/Desktop/GD32VW553/V1_MQTT_OK/GD32VW55X_Wifi_BLE_SDK/GD32VW55x_RELEASE_V1.0.2/MSDK/cloud/alicloud/src/protocol/coap/local\CoAPMessage.c ****     if (NULL == message || keep < 0) {
 955              		.loc 1 279 1 is_stmt 0
 956 0000 AA87     		mv	a5,a0
 281:C:/Users/stapi/OneDrive/Desktop/GD32VW553/V1_MQTT_OK/GD32VW55X_Wifi_BLE_SDK/GD32VW55x_RELEASE_V1.0.2/MSDK/cloud/alicloud/src/protocol/coap/local\CoAPMessage.c ****         return COAP_ERROR_NULL;
 957              		.loc 1 281 16
 958 0002 13052010 		li	a0,258
 959              	.LVL103:
 280:C:/Users/stapi/OneDrive/Desktop/GD32VW553/V1_MQTT_OK/GD32VW55X_Wifi_BLE_SDK/GD32VW55x_RELEASE_V1.0.2/MSDK/cloud/alicloud/src/protocol/coap/local\CoAPMessage.c ****     if (NULL == message || keep < 0) {
 960              		.loc 1 280 8
 961 0006 91C7     		beq	a5,zero,.L88
 280:C:/Users/stapi/OneDrive/Desktop/GD32VW553/V1_MQTT_OK/GD32VW55X_Wifi_BLE_SDK/GD32VW55x_RELEASE_V1.0.2/MSDK/cloud/alicloud/src/protocol/coap/local\CoAPMessage.c ****     if (NULL == message || keep < 0) {
 962              		.loc 1 280 25 discriminator 1
 963 0008 63C50500 		blt	a1,zero,.L88
 282:C:/Users/stapi/OneDrive/Desktop/GD32VW553/V1_MQTT_OK/GD32VW55X_Wifi_BLE_SDK/GD32VW55x_RELEASE_V1.0.2/MSDK/cloud/alicloud/src/protocol/coap/local\CoAPMessage.c ****     }
 283:C:/Users/stapi/OneDrive/Desktop/GD32VW553/V1_MQTT_OK/GD32VW55X_Wifi_BLE_SDK/GD32VW55x_RELEASE_V1.0.2/MSDK/cloud/alicloud/src/protocol/coap/local\CoAPMessage.c ****     message->keep = keep;
 964              		.loc 1 283 5 is_stmt 1
 965              		.loc 1 283 19 is_stmt 0
 966 000c ECDF     		sw	a1,124(a5)
 284:C:/Users/stapi/OneDrive/Desktop/GD32VW553/V1_MQTT_OK/GD32VW55X_Wifi_BLE_SDK/GD32VW55x_RELEASE_V1.0.2/MSDK/cloud/alicloud/src/protocol/coap/local\CoAPMessage.c ****     return COAP_SUCCESS;
 967              		.loc 1 284 5 is_stmt 1
 968              		.loc 1 284 12 is_stmt 0
 969 000e 0145     		li	a0,0
 970 0010 8280     		ret
 971              	.L88:
 285:C:/Users/stapi/OneDrive/Desktop/GD32VW553/V1_MQTT_OK/GD32VW55X_Wifi_BLE_SDK/GD32VW55x_RELEASE_V1.0.2/MSDK/cloud/alicloud/src/protocol/coap/local\CoAPMessage.c **** }
 972              		.loc 1 285 1
 973 0012 8280     		ret
 974              		.cfi_endproc
 975              	.LFE33:
 977              		.section	.text.CoAPMessagePayload_set,"ax",@progbits
 978              		.align	1
 979              		.globl	CoAPMessagePayload_set
 981              	CoAPMessagePayload_set:
 982              	.LFB34:
 286:C:/Users/stapi/OneDrive/Desktop/GD32VW553/V1_MQTT_OK/GD32VW55X_Wifi_BLE_SDK/GD32VW55x_RELEASE_V1.0.2/MSDK/cloud/alicloud/src/protocol/coap/local\CoAPMessage.c **** 
 287:C:/Users/stapi/OneDrive/Desktop/GD32VW553/V1_MQTT_OK/GD32VW55X_Wifi_BLE_SDK/GD32VW55x_RELEASE_V1.0.2/MSDK/cloud/alicloud/src/protocol/coap/local\CoAPMessage.c **** int CoAPMessagePayload_set(CoAPMessage *message, unsigned char *payload,
 288:C:/Users/stapi/OneDrive/Desktop/GD32VW553/V1_MQTT_OK/GD32VW55X_Wifi_BLE_SDK/GD32VW55x_RELEASE_V1.0.2/MSDK/cloud/alicloud/src/protocol/coap/local\CoAPMessage.c ****                            unsigned short payloadlen)
 289:C:/Users/stapi/OneDrive/Desktop/GD32VW553/V1_MQTT_OK/GD32VW55X_Wifi_BLE_SDK/GD32VW55x_RELEASE_V1.0.2/MSDK/cloud/alicloud/src/protocol/coap/local\CoAPMessage.c **** {
 983              		.loc 1 289 1 is_stmt 1
 984              		.cfi_startproc
 985              	.LVL104:
 290:C:/Users/stapi/OneDrive/Desktop/GD32VW553/V1_MQTT_OK/GD32VW55X_Wifi_BLE_SDK/GD32VW55x_RELEASE_V1.0.2/MSDK/cloud/alicloud/src/protocol/coap/local\CoAPMessage.c ****     if (NULL == message || (0 < payloadlen && NULL == payload)) {
 986              		.loc 1 290 5
 289:C:/Users/stapi/OneDrive/Desktop/GD32VW553/V1_MQTT_OK/GD32VW55X_Wifi_BLE_SDK/GD32VW55x_RELEASE_V1.0.2/MSDK/cloud/alicloud/src/protocol/coap/local\CoAPMessage.c ****     if (NULL == message || (0 < payloadlen && NULL == payload)) {
 987              		.loc 1 289 1 is_stmt 0
 988 0000 AA87     		mv	a5,a0
 989              		.loc 1 290 8
 990 0002 11C9     		beq	a0,zero,.L95
 991              		.loc 1 290 25 discriminator 1
 992 0004 01C6     		beq	a2,zero,.L94
 291:C:/Users/stapi/OneDrive/Desktop/GD32VW553/V1_MQTT_OK/GD32VW55X_Wifi_BLE_SDK/GD32VW55x_RELEASE_V1.0.2/MSDK/cloud/alicloud/src/protocol/coap/local\CoAPMessage.c ****         return COAP_ERROR_NULL;
 993              		.loc 1 291 16 discriminator 2
 994 0006 13052010 		li	a0,258
 995              	.LVL105:
 290:C:/Users/stapi/OneDrive/Desktop/GD32VW553/V1_MQTT_OK/GD32VW55X_Wifi_BLE_SDK/GD32VW55x_RELEASE_V1.0.2/MSDK/cloud/alicloud/src/protocol/coap/local\CoAPMessage.c ****     if (NULL == message || (0 < payloadlen && NULL == payload)) {
 996              		.loc 1 290 44 discriminator 2
 997 000a 81C9     		beq	a1,zero,.L92
 998              	.L94:
 292:C:/Users/stapi/OneDrive/Desktop/GD32VW553/V1_MQTT_OK/GD32VW55X_Wifi_BLE_SDK/GD32VW55x_RELEASE_V1.0.2/MSDK/cloud/alicloud/src/protocol/coap/local\CoAPMessage.c ****     }
 293:C:/Users/stapi/OneDrive/Desktop/GD32VW553/V1_MQTT_OK/GD32VW55X_Wifi_BLE_SDK/GD32VW55x_RELEASE_V1.0.2/MSDK/cloud/alicloud/src/protocol/coap/local\CoAPMessage.c ****     message->payload = payload;
 999              		.loc 1 293 5 is_stmt 1
 1000              		.loc 1 293 22 is_stmt 0
 1001 000c ACDB     		sw	a1,112(a5)
 294:C:/Users/stapi/OneDrive/Desktop/GD32VW553/V1_MQTT_OK/GD32VW55X_Wifi_BLE_SDK/GD32VW55x_RELEASE_V1.0.2/MSDK/cloud/alicloud/src/protocol/coap/local\CoAPMessage.c ****     message->payloadlen = payloadlen;
 1002              		.loc 1 294 5 is_stmt 1
 1003              		.loc 1 294 25 is_stmt 0
 1004 000e 2397C706 		sh	a2,110(a5)
 295:C:/Users/stapi/OneDrive/Desktop/GD32VW553/V1_MQTT_OK/GD32VW55X_Wifi_BLE_SDK/GD32VW55x_RELEASE_V1.0.2/MSDK/cloud/alicloud/src/protocol/coap/local\CoAPMessage.c **** 
 296:C:/Users/stapi/OneDrive/Desktop/GD32VW553/V1_MQTT_OK/GD32VW55X_Wifi_BLE_SDK/GD32VW55x_RELEASE_V1.0.2/MSDK/cloud/alicloud/src/protocol/coap/local\CoAPMessage.c ****     return COAP_SUCCESS;
 1005              		.loc 1 296 5 is_stmt 1
 1006              		.loc 1 296 12 is_stmt 0
 1007 0012 0145     		li	a0,0
 1008 0014 8280     		ret
 1009              	.LVL106:
 1010              	.L95:
 291:C:/Users/stapi/OneDrive/Desktop/GD32VW553/V1_MQTT_OK/GD32VW55X_Wifi_BLE_SDK/GD32VW55x_RELEASE_V1.0.2/MSDK/cloud/alicloud/src/protocol/coap/local\CoAPMessage.c ****     }
 1011              		.loc 1 291 16
 1012 0016 13052010 		li	a0,258
 1013              	.LVL107:
 1014              	.L92:
 297:C:/Users/stapi/OneDrive/Desktop/GD32VW553/V1_MQTT_OK/GD32VW55X_Wifi_BLE_SDK/GD32VW55x_RELEASE_V1.0.2/MSDK/cloud/alicloud/src/protocol/coap/local\CoAPMessage.c **** }
 1015              		.loc 1 297 1
 1016 001a 8280     		ret
 1017              		.cfi_endproc
 1018              	.LFE34:
 1020              		.section	.text.CoAPMessageHandler_set,"ax",@progbits
 1021              		.align	1
 1022              		.globl	CoAPMessageHandler_set
 1024              	CoAPMessageHandler_set:
 1025              	.LFB35:
 298:C:/Users/stapi/OneDrive/Desktop/GD32VW553/V1_MQTT_OK/GD32VW55X_Wifi_BLE_SDK/GD32VW55x_RELEASE_V1.0.2/MSDK/cloud/alicloud/src/protocol/coap/local\CoAPMessage.c **** 
 299:C:/Users/stapi/OneDrive/Desktop/GD32VW553/V1_MQTT_OK/GD32VW55X_Wifi_BLE_SDK/GD32VW55x_RELEASE_V1.0.2/MSDK/cloud/alicloud/src/protocol/coap/local\CoAPMessage.c **** int CoAPMessageHandler_set(CoAPMessage *message, CoAPSendMsgHandler handler)
 300:C:/Users/stapi/OneDrive/Desktop/GD32VW553/V1_MQTT_OK/GD32VW55X_Wifi_BLE_SDK/GD32VW55x_RELEASE_V1.0.2/MSDK/cloud/alicloud/src/protocol/coap/local\CoAPMessage.c **** {
 1026              		.loc 1 300 1 is_stmt 1
 1027              		.cfi_startproc
 1028              	.LVL108:
 301:C:/Users/stapi/OneDrive/Desktop/GD32VW553/V1_MQTT_OK/GD32VW55X_Wifi_BLE_SDK/GD32VW55x_RELEASE_V1.0.2/MSDK/cloud/alicloud/src/protocol/coap/local\CoAPMessage.c ****     if (NULL == message) {
 1029              		.loc 1 301 5
 1030              		.loc 1 301 8 is_stmt 0
 1031 0000 01C5     		beq	a0,zero,.L102
 302:C:/Users/stapi/OneDrive/Desktop/GD32VW553/V1_MQTT_OK/GD32VW55X_Wifi_BLE_SDK/GD32VW55x_RELEASE_V1.0.2/MSDK/cloud/alicloud/src/protocol/coap/local\CoAPMessage.c ****         return COAP_ERROR_NULL;
 303:C:/Users/stapi/OneDrive/Desktop/GD32VW553/V1_MQTT_OK/GD32VW55X_Wifi_BLE_SDK/GD32VW55x_RELEASE_V1.0.2/MSDK/cloud/alicloud/src/protocol/coap/local\CoAPMessage.c ****     }
 304:C:/Users/stapi/OneDrive/Desktop/GD32VW553/V1_MQTT_OK/GD32VW55X_Wifi_BLE_SDK/GD32VW55x_RELEASE_V1.0.2/MSDK/cloud/alicloud/src/protocol/coap/local\CoAPMessage.c ****     message->handler = handler;
 1032              		.loc 1 304 5 is_stmt 1
 1033              		.loc 1 304 22 is_stmt 0
 1034 0002 6CD9     		sw	a1,116(a0)
 305:C:/Users/stapi/OneDrive/Desktop/GD32VW553/V1_MQTT_OK/GD32VW55X_Wifi_BLE_SDK/GD32VW55x_RELEASE_V1.0.2/MSDK/cloud/alicloud/src/protocol/coap/local\CoAPMessage.c ****     return COAP_SUCCESS;
 1035              		.loc 1 305 5 is_stmt 1
 1036              		.loc 1 305 12 is_stmt 0
 1037 0004 0145     		li	a0,0
 1038              	.LVL109:
 1039 0006 8280     		ret
 1040              	.LVL110:
 1041              	.L102:
 302:C:/Users/stapi/OneDrive/Desktop/GD32VW553/V1_MQTT_OK/GD32VW55X_Wifi_BLE_SDK/GD32VW55x_RELEASE_V1.0.2/MSDK/cloud/alicloud/src/protocol/coap/local\CoAPMessage.c ****         return COAP_ERROR_NULL;
 1042              		.loc 1 302 16
 1043 0008 13052010 		li	a0,258
 1044              	.LVL111:
 306:C:/Users/stapi/OneDrive/Desktop/GD32VW553/V1_MQTT_OK/GD32VW55X_Wifi_BLE_SDK/GD32VW55x_RELEASE_V1.0.2/MSDK/cloud/alicloud/src/protocol/coap/local\CoAPMessage.c **** }
 1045              		.loc 1 306 1
 1046 000c 8280     		ret
 1047              		.cfi_endproc
 1048              	.LFE35:
 1050              		.section	.text.CoAPMessage_init,"ax",@progbits
 1051              		.align	1
 1052              		.globl	CoAPMessage_init
 1054              	CoAPMessage_init:
 1055              	.LFB36:
 307:C:/Users/stapi/OneDrive/Desktop/GD32VW553/V1_MQTT_OK/GD32VW55X_Wifi_BLE_SDK/GD32VW55x_RELEASE_V1.0.2/MSDK/cloud/alicloud/src/protocol/coap/local\CoAPMessage.c **** 
 308:C:/Users/stapi/OneDrive/Desktop/GD32VW553/V1_MQTT_OK/GD32VW55X_Wifi_BLE_SDK/GD32VW55x_RELEASE_V1.0.2/MSDK/cloud/alicloud/src/protocol/coap/local\CoAPMessage.c **** int CoAPMessage_init(CoAPMessage *message)
 309:C:/Users/stapi/OneDrive/Desktop/GD32VW553/V1_MQTT_OK/GD32VW55X_Wifi_BLE_SDK/GD32VW55x_RELEASE_V1.0.2/MSDK/cloud/alicloud/src/protocol/coap/local\CoAPMessage.c **** {
 1056              		.loc 1 309 1 is_stmt 1
 1057              		.cfi_startproc
 1058              	.LVL112:
 310:C:/Users/stapi/OneDrive/Desktop/GD32VW553/V1_MQTT_OK/GD32VW55X_Wifi_BLE_SDK/GD32VW55x_RELEASE_V1.0.2/MSDK/cloud/alicloud/src/protocol/coap/local\CoAPMessage.c ****     int count = 0;
 1059              		.loc 1 310 5
 311:C:/Users/stapi/OneDrive/Desktop/GD32VW553/V1_MQTT_OK/GD32VW55X_Wifi_BLE_SDK/GD32VW55x_RELEASE_V1.0.2/MSDK/cloud/alicloud/src/protocol/coap/local\CoAPMessage.c **** 
 312:C:/Users/stapi/OneDrive/Desktop/GD32VW553/V1_MQTT_OK/GD32VW55X_Wifi_BLE_SDK/GD32VW55x_RELEASE_V1.0.2/MSDK/cloud/alicloud/src/protocol/coap/local\CoAPMessage.c ****     if (NULL == message) {
 1060              		.loc 1 312 5
 1061              		.loc 1 312 8 is_stmt 0
 1062 0000 0DC9     		beq	a0,zero,.L105
 309:C:/Users/stapi/OneDrive/Desktop/GD32VW553/V1_MQTT_OK/GD32VW55X_Wifi_BLE_SDK/GD32VW55x_RELEASE_V1.0.2/MSDK/cloud/alicloud/src/protocol/coap/local\CoAPMessage.c ****     int count = 0;
 1063              		.loc 1 309 1
 1064 0002 17030000 		call	t0,__riscv_save_1
 1064      E7020300 
 1065              		.cfi_offset 8, -8
 1066              		.cfi_offset 1, -4
 1067              		.cfi_def_cfa_offset 16
 313:C:/Users/stapi/OneDrive/Desktop/GD32VW553/V1_MQTT_OK/GD32VW55X_Wifi_BLE_SDK/GD32VW55x_RELEASE_V1.0.2/MSDK/cloud/alicloud/src/protocol/coap/local\CoAPMessage.c ****         return COAP_ERROR_NULL;
 314:C:/Users/stapi/OneDrive/Desktop/GD32VW553/V1_MQTT_OK/GD32VW55X_Wifi_BLE_SDK/GD32VW55x_RELEASE_V1.0.2/MSDK/cloud/alicloud/src/protocol/coap/local\CoAPMessage.c ****     }
 315:C:/Users/stapi/OneDrive/Desktop/GD32VW553/V1_MQTT_OK/GD32VW55X_Wifi_BLE_SDK/GD32VW55x_RELEASE_V1.0.2/MSDK/cloud/alicloud/src/protocol/coap/local\CoAPMessage.c ****     memset(message, 0x00, sizeof(CoAPMessage));
 1068              		.loc 1 315 5
 1069 000a 13068008 		li	a2,136
 1070 000e 8145     		li	a1,0
 1071 0010 2A84     		mv	s0,a0
 1072              		.loc 1 315 5 is_stmt 1
 1073 0012 97000000 		call	memset
 1073      E7800000 
 1074              	.LVL113:
 316:C:/Users/stapi/OneDrive/Desktop/GD32VW553/V1_MQTT_OK/GD32VW55X_Wifi_BLE_SDK/GD32VW55x_RELEASE_V1.0.2/MSDK/cloud/alicloud/src/protocol/coap/local\CoAPMessage.c ****     message->header.version    = COAP_CUR_VERSION;
 1075              		.loc 1 316 5
 317:C:/Users/stapi/OneDrive/Desktop/GD32VW553/V1_MQTT_OK/GD32VW55X_Wifi_BLE_SDK/GD32VW55x_RELEASE_V1.0.2/MSDK/cloud/alicloud/src/protocol/coap/local\CoAPMessage.c ****     message->header.type       = COAP_MESSAGE_TYPE_ACK;
 1076              		.loc 1 317 5
 316:C:/Users/stapi/OneDrive/Desktop/GD32VW553/V1_MQTT_OK/GD32VW55X_Wifi_BLE_SDK/GD32VW55x_RELEASE_V1.0.2/MSDK/cloud/alicloud/src/protocol/coap/local\CoAPMessage.c ****     message->header.version    = COAP_CUR_VERSION;
 1077              		.loc 1 316 32 is_stmt 0
 1078 001a 83470400 		lbu	a5,0(s0)
 318:C:/Users/stapi/OneDrive/Desktop/GD32VW553/V1_MQTT_OK/GD32VW55X_Wifi_BLE_SDK/GD32VW55x_RELEASE_V1.0.2/MSDK/cloud/alicloud/src/protocol/coap/local\CoAPMessage.c ****     message->header.code       = COAP_MSG_CODE_EMPTY_MESSAGE;
 319:C:/Users/stapi/OneDrive/Desktop/GD32VW553/V1_MQTT_OK/GD32VW55X_Wifi_BLE_SDK/GD32VW55x_RELEASE_V1.0.2/MSDK/cloud/alicloud/src/protocol/coap/local\CoAPMessage.c ****     message->keep              = NOKEEP;
 320:C:/Users/stapi/OneDrive/Desktop/GD32VW553/V1_MQTT_OK/GD32VW55X_Wifi_BLE_SDK/GD32VW55x_RELEASE_V1.0.2/MSDK/cloud/alicloud/src/protocol/coap/local\CoAPMessage.c ****     return COAP_SUCCESS;
 1079              		.loc 1 320 12
 1080 001e 0145     		li	a0,0
 316:C:/Users/stapi/OneDrive/Desktop/GD32VW553/V1_MQTT_OK/GD32VW55X_Wifi_BLE_SDK/GD32VW55x_RELEASE_V1.0.2/MSDK/cloud/alicloud/src/protocol/coap/local\CoAPMessage.c ****     message->header.type       = COAP_MESSAGE_TYPE_ACK;
 1081              		.loc 1 316 32
 1082 0020 C19B     		andi	a5,a5,-16
 1083 0022 93E79700 		ori	a5,a5,9
 1084 0026 2300F400 		sb	a5,0(s0)
 318:C:/Users/stapi/OneDrive/Desktop/GD32VW553/V1_MQTT_OK/GD32VW55X_Wifi_BLE_SDK/GD32VW55x_RELEASE_V1.0.2/MSDK/cloud/alicloud/src/protocol/coap/local\CoAPMessage.c ****     message->header.code       = COAP_MSG_CODE_EMPTY_MESSAGE;
 1085              		.loc 1 318 5 is_stmt 1
 319:C:/Users/stapi/OneDrive/Desktop/GD32VW553/V1_MQTT_OK/GD32VW55X_Wifi_BLE_SDK/GD32VW55x_RELEASE_V1.0.2/MSDK/cloud/alicloud/src/protocol/coap/local\CoAPMessage.c ****     return COAP_SUCCESS;
 1086              		.loc 1 319 5
 1087              		.loc 1 320 5
 321:C:/Users/stapi/OneDrive/Desktop/GD32VW553/V1_MQTT_OK/GD32VW55X_Wifi_BLE_SDK/GD32VW55x_RELEASE_V1.0.2/MSDK/cloud/alicloud/src/protocol/coap/local\CoAPMessage.c **** }
 1088              		.loc 1 321 1 is_stmt 0
 1089 002a 17030000 		tail	__riscv_restore_1
 1089      67000300 
 1090              		.cfi_restore 8
 1091              		.cfi_restore 1
 1092              		.cfi_def_cfa_offset 0
 1093              	.LVL114:
 1094              	.L105:
 313:C:/Users/stapi/OneDrive/Desktop/GD32VW553/V1_MQTT_OK/GD32VW55X_Wifi_BLE_SDK/GD32VW55x_RELEASE_V1.0.2/MSDK/cloud/alicloud/src/protocol/coap/local\CoAPMessage.c ****     }
 1095              		.loc 1 313 16
 1096 0032 13052010 		li	a0,258
 1097              	.LVL115:
 1098              		.loc 1 321 1
 1099 0036 8280     		ret
 1100              		.cfi_endproc
 1101              	.LFE36:
 1103              		.section	.text.CoAPMessage_destory,"ax",@progbits
 1104              		.align	1
 1105              		.globl	CoAPMessage_destory
 1107              	CoAPMessage_destory:
 1108              	.LFB37:
 322:C:/Users/stapi/OneDrive/Desktop/GD32VW553/V1_MQTT_OK/GD32VW55X_Wifi_BLE_SDK/GD32VW55x_RELEASE_V1.0.2/MSDK/cloud/alicloud/src/protocol/coap/local\CoAPMessage.c **** 
 323:C:/Users/stapi/OneDrive/Desktop/GD32VW553/V1_MQTT_OK/GD32VW55X_Wifi_BLE_SDK/GD32VW55x_RELEASE_V1.0.2/MSDK/cloud/alicloud/src/protocol/coap/local\CoAPMessage.c **** int CoAPMessage_destory(CoAPMessage *message)
 324:C:/Users/stapi/OneDrive/Desktop/GD32VW553/V1_MQTT_OK/GD32VW55X_Wifi_BLE_SDK/GD32VW55x_RELEASE_V1.0.2/MSDK/cloud/alicloud/src/protocol/coap/local\CoAPMessage.c **** {
 1109              		.loc 1 324 1 is_stmt 1
 1110              		.cfi_startproc
 1111              	.LVL116:
 325:C:/Users/stapi/OneDrive/Desktop/GD32VW553/V1_MQTT_OK/GD32VW55X_Wifi_BLE_SDK/GD32VW55x_RELEASE_V1.0.2/MSDK/cloud/alicloud/src/protocol/coap/local\CoAPMessage.c ****     int count = 0;
 1112              		.loc 1 325 5
 326:C:/Users/stapi/OneDrive/Desktop/GD32VW553/V1_MQTT_OK/GD32VW55X_Wifi_BLE_SDK/GD32VW55x_RELEASE_V1.0.2/MSDK/cloud/alicloud/src/protocol/coap/local\CoAPMessage.c ****     if (NULL == message) {
 1113              		.loc 1 326 5
 1114              		.loc 1 326 8 is_stmt 0
 1115 0000 0DC9     		beq	a0,zero,.L114
 324:C:/Users/stapi/OneDrive/Desktop/GD32VW553/V1_MQTT_OK/GD32VW55X_Wifi_BLE_SDK/GD32VW55x_RELEASE_V1.0.2/MSDK/cloud/alicloud/src/protocol/coap/local\CoAPMessage.c ****     int count = 0;
 1116              		.loc 1 324 1
 1117 0002 17030000 		call	t0,__riscv_save_2
 1117      E7020300 
 1118              		.cfi_offset 9, -12
 1119              		.cfi_offset 8, -8
 1120              		.cfi_offset 1, -4
 1121              		.cfi_def_cfa_offset 16
 1122 000a 93040501 		addi	s1,a0,16
 1123 000e 13040507 		addi	s0,a0,112
 1124              	.LVL117:
 1125              	.L113:
 1126              	.LBB52:
 1127              	.LBB53:
 327:C:/Users/stapi/OneDrive/Desktop/GD32VW553/V1_MQTT_OK/GD32VW55X_Wifi_BLE_SDK/GD32VW55x_RELEASE_V1.0.2/MSDK/cloud/alicloud/src/protocol/coap/local\CoAPMessage.c ****         return COAP_ERROR_NULL;
 328:C:/Users/stapi/OneDrive/Desktop/GD32VW553/V1_MQTT_OK/GD32VW55X_Wifi_BLE_SDK/GD32VW55x_RELEASE_V1.0.2/MSDK/cloud/alicloud/src/protocol/coap/local\CoAPMessage.c ****     }
 329:C:/Users/stapi/OneDrive/Desktop/GD32VW553/V1_MQTT_OK/GD32VW55X_Wifi_BLE_SDK/GD32VW55x_RELEASE_V1.0.2/MSDK/cloud/alicloud/src/protocol/coap/local\CoAPMessage.c **** 
 330:C:/Users/stapi/OneDrive/Desktop/GD32VW553/V1_MQTT_OK/GD32VW55X_Wifi_BLE_SDK/GD32VW55x_RELEASE_V1.0.2/MSDK/cloud/alicloud/src/protocol/coap/local\CoAPMessage.c ****     for (count = 0; count < COAP_MSG_MAX_OPTION_NUM; count++) {
 331:C:/Users/stapi/OneDrive/Desktop/GD32VW553/V1_MQTT_OK/GD32VW55X_Wifi_BLE_SDK/GD32VW55x_RELEASE_V1.0.2/MSDK/cloud/alicloud/src/protocol/coap/local\CoAPMessage.c ****         if (NULL != message->options[count].val) {
 1128              		.loc 1 331 9 is_stmt 1
 1129              		.loc 1 331 44 is_stmt 0
 1130 0012 8840     		lw	a0,0(s1)
 1131              		.loc 1 331 12
 1132 0014 19C5     		beq	a0,zero,.L112
 332:C:/Users/stapi/OneDrive/Desktop/GD32VW553/V1_MQTT_OK/GD32VW55X_Wifi_BLE_SDK/GD32VW55x_RELEASE_V1.0.2/MSDK/cloud/alicloud/src/protocol/coap/local\CoAPMessage.c ****             coap_free(message->options[count].val);
 1133              		.loc 1 332 13 is_stmt 1
 1134 0016 97000000 		call	LITE_free_internal
 1134      E7800000 
 1135              	.LVL118:
 333:C:/Users/stapi/OneDrive/Desktop/GD32VW553/V1_MQTT_OK/GD32VW55X_Wifi_BLE_SDK/GD32VW55x_RELEASE_V1.0.2/MSDK/cloud/alicloud/src/protocol/coap/local\CoAPMessage.c ****             message->options[count].val = NULL;
 1136              		.loc 1 333 13
 1137              		.loc 1 333 41 is_stmt 0
 1138 001e 23A00400 		sw	zero,0(s1)
 1139              	.L112:
 330:C:/Users/stapi/OneDrive/Desktop/GD32VW553/V1_MQTT_OK/GD32VW55X_Wifi_BLE_SDK/GD32VW55x_RELEASE_V1.0.2/MSDK/cloud/alicloud/src/protocol/coap/local\CoAPMessage.c ****         if (NULL != message->options[count].val) {
 1140              		.loc 1 330 54 is_stmt 1
 330:C:/Users/stapi/OneDrive/Desktop/GD32VW553/V1_MQTT_OK/GD32VW55X_Wifi_BLE_SDK/GD32VW55x_RELEASE_V1.0.2/MSDK/cloud/alicloud/src/protocol/coap/local\CoAPMessage.c ****         if (NULL != message->options[count].val) {
 1141              		.loc 1 330 21
 330:C:/Users/stapi/OneDrive/Desktop/GD32VW553/V1_MQTT_OK/GD32VW55X_Wifi_BLE_SDK/GD32VW55x_RELEASE_V1.0.2/MSDK/cloud/alicloud/src/protocol/coap/local\CoAPMessage.c ****         if (NULL != message->options[count].val) {
 1142              		.loc 1 330 5 is_stmt 0
 1143 0022 A104     		addi	s1,s1,8
 1144 0024 E39784FE 		bne	s1,s0,.L113
 1145 0028 0145     		li	a0,0
 1146              	.LBE53:
 1147              	.LBE52:
 334:C:/Users/stapi/OneDrive/Desktop/GD32VW553/V1_MQTT_OK/GD32VW55X_Wifi_BLE_SDK/GD32VW55x_RELEASE_V1.0.2/MSDK/cloud/alicloud/src/protocol/coap/local\CoAPMessage.c ****         }
 335:C:/Users/stapi/OneDrive/Desktop/GD32VW553/V1_MQTT_OK/GD32VW55X_Wifi_BLE_SDK/GD32VW55x_RELEASE_V1.0.2/MSDK/cloud/alicloud/src/protocol/coap/local\CoAPMessage.c ****     }
 336:C:/Users/stapi/OneDrive/Desktop/GD32VW553/V1_MQTT_OK/GD32VW55X_Wifi_BLE_SDK/GD32VW55x_RELEASE_V1.0.2/MSDK/cloud/alicloud/src/protocol/coap/local\CoAPMessage.c **** 
 337:C:/Users/stapi/OneDrive/Desktop/GD32VW553/V1_MQTT_OK/GD32VW55X_Wifi_BLE_SDK/GD32VW55x_RELEASE_V1.0.2/MSDK/cloud/alicloud/src/protocol/coap/local\CoAPMessage.c ****     return COAP_SUCCESS;
 338:C:/Users/stapi/OneDrive/Desktop/GD32VW553/V1_MQTT_OK/GD32VW55X_Wifi_BLE_SDK/GD32VW55x_RELEASE_V1.0.2/MSDK/cloud/alicloud/src/protocol/coap/local\CoAPMessage.c **** }
 1148              		.loc 1 338 1
 1149 002a 17030000 		tail	__riscv_restore_2
 1149      67000300 
 1150              		.cfi_restore 9
 1151              		.cfi_restore 8
 1152              		.cfi_restore 1
 1153              		.cfi_def_cfa_offset 0
 1154              	.LVL119:
 1155              	.L114:
 327:C:/Users/stapi/OneDrive/Desktop/GD32VW553/V1_MQTT_OK/GD32VW55X_Wifi_BLE_SDK/GD32VW55x_RELEASE_V1.0.2/MSDK/cloud/alicloud/src/protocol/coap/local\CoAPMessage.c ****     }
 1156              		.loc 1 327 16
 1157 0032 13052010 		li	a0,258
 1158              	.LVL120:
 1159              		.loc 1 338 1
 1160 0036 8280     		ret
 1161              		.cfi_endproc
 1162              	.LFE37:
 1164              		.section	.rodata.CoAPMessageCheckDup.str1.4,"aMS",@progbits,1
 1165              		.align	2
 1166              	.LC0:
 1167 0000 72656365 		.string	"receive repeat data"
 1167      69766520 
 1167      72657065 
 1167      61742064 
 1167      61746100 
 1168              		.align	2
 1169              	.LC1:
 1170 0014 636F6170 		.string	"coap_local"
 1170      5F6C6F63 
 1170      616C00
 1171              		.section	.text.CoAPMessageCheckDup,"ax",@progbits
 1172              		.align	1
 1173              		.globl	CoAPMessageCheckDup
 1175              	CoAPMessageCheckDup:
 1176              	.LFB38:
 339:C:/Users/stapi/OneDrive/Desktop/GD32VW553/V1_MQTT_OK/GD32VW55X_Wifi_BLE_SDK/GD32VW55x_RELEASE_V1.0.2/MSDK/cloud/alicloud/src/protocol/coap/local\CoAPMessage.c **** 
 340:C:/Users/stapi/OneDrive/Desktop/GD32VW553/V1_MQTT_OK/GD32VW55X_Wifi_BLE_SDK/GD32VW55x_RELEASE_V1.0.2/MSDK/cloud/alicloud/src/protocol/coap/local\CoAPMessage.c **** int CoAPMessageCheckDup(CoAPMessage *message, CoAPPreventDuplicate* preventDup)
 341:C:/Users/stapi/OneDrive/Desktop/GD32VW553/V1_MQTT_OK/GD32VW55X_Wifi_BLE_SDK/GD32VW55x_RELEASE_V1.0.2/MSDK/cloud/alicloud/src/protocol/coap/local\CoAPMessage.c **** {
 1177              		.loc 1 341 1 is_stmt 1
 1178              		.cfi_startproc
 1179              	.LVL121:
 342:C:/Users/stapi/OneDrive/Desktop/GD32VW553/V1_MQTT_OK/GD32VW55X_Wifi_BLE_SDK/GD32VW55x_RELEASE_V1.0.2/MSDK/cloud/alicloud/src/protocol/coap/local\CoAPMessage.c ****     unsigned char checksum[16];
 1180              		.loc 1 342 5
 343:C:/Users/stapi/OneDrive/Desktop/GD32VW553/V1_MQTT_OK/GD32VW55X_Wifi_BLE_SDK/GD32VW55x_RELEASE_V1.0.2/MSDK/cloud/alicloud/src/protocol/coap/local\CoAPMessage.c ****     int i;
 1181              		.loc 1 343 5
 344:C:/Users/stapi/OneDrive/Desktop/GD32VW553/V1_MQTT_OK/GD32VW55X_Wifi_BLE_SDK/GD32VW55x_RELEASE_V1.0.2/MSDK/cloud/alicloud/src/protocol/coap/local\CoAPMessage.c **** 
 345:C:/Users/stapi/OneDrive/Desktop/GD32VW553/V1_MQTT_OK/GD32VW55X_Wifi_BLE_SDK/GD32VW55x_RELEASE_V1.0.2/MSDK/cloud/alicloud/src/protocol/coap/local\CoAPMessage.c ****     if (message == NULL || preventDup == NULL) {
 1182              		.loc 1 345 5
 1183              		.loc 1 345 8 is_stmt 0
 1184 0000 79C9     		beq	a0,zero,.L129
 341:C:/Users/stapi/OneDrive/Desktop/GD32VW553/V1_MQTT_OK/GD32VW55X_Wifi_BLE_SDK/GD32VW55x_RELEASE_V1.0.2/MSDK/cloud/alicloud/src/protocol/coap/local\CoAPMessage.c ****     unsigned char checksum[16];
 1185              		.loc 1 341 1 discriminator 1
 1186 0002 17030000 		call	t0,__riscv_save_4
 1186      E7020300 
 1187              		.cfi_offset 19, -20
 1188              		.cfi_offset 18, -16
 1189              		.cfi_offset 9, -12
 1190              		.cfi_offset 8, -8
 1191              		.cfi_offset 1, -4
 1192              		.cfi_def_cfa_offset 32
 1193 000a 2A89     		mv	s2,a0
 1194 000c 4111     		addi	sp,sp,-16
 1195              		.cfi_def_cfa_offset 48
 1196 000e 2E84     		mv	s0,a1
 346:C:/Users/stapi/OneDrive/Desktop/GD32VW553/V1_MQTT_OK/GD32VW55X_Wifi_BLE_SDK/GD32VW55x_RELEASE_V1.0.2/MSDK/cloud/alicloud/src/protocol/coap/local\CoAPMessage.c ****         return 0;
 1197              		.loc 1 346 16 discriminator 1
 1198 0010 0145     		li	a0,0
 1199              	.LVL122:
 345:C:/Users/stapi/OneDrive/Desktop/GD32VW553/V1_MQTT_OK/GD32VW55X_Wifi_BLE_SDK/GD32VW55x_RELEASE_V1.0.2/MSDK/cloud/alicloud/src/protocol/coap/local\CoAPMessage.c ****         return 0;
 1200              		.loc 1 345 25 discriminator 1
 1201 0012 C9C9     		beq	a1,zero,.L123
 347:C:/Users/stapi/OneDrive/Desktop/GD32VW553/V1_MQTT_OK/GD32VW55X_Wifi_BLE_SDK/GD32VW55x_RELEASE_V1.0.2/MSDK/cloud/alicloud/src/protocol/coap/local\CoAPMessage.c ****     }
 348:C:/Users/stapi/OneDrive/Desktop/GD32VW553/V1_MQTT_OK/GD32VW55X_Wifi_BLE_SDK/GD32VW55x_RELEASE_V1.0.2/MSDK/cloud/alicloud/src/protocol/coap/local\CoAPMessage.c ****     uint64_t tick = HAL_UptimeMs ();
 1202              		.loc 1 348 5 is_stmt 1
 1203              		.loc 1 348 21 is_stmt 0
 1204 0014 97000000 		call	HAL_UptimeMs
 1204      E7800000 
 1205              	.LVL123:
 349:C:/Users/stapi/OneDrive/Desktop/GD32VW553/V1_MQTT_OK/GD32VW55X_Wifi_BLE_SDK/GD32VW55x_RELEASE_V1.0.2/MSDK/cloud/alicloud/src/protocol/coap/local\CoAPMessage.c ****     if (tick > preventDup->last_tick + 60000) {
 1206              		.loc 1 349 38
 1207 001c 1C44     		lw	a5,8(s0)
 1208 001e 3D67     		li	a4,61440
 1209 0020 5444     		lw	a3,12(s0)
 1210 0022 130707A6 		addi	a4,a4,-1440
 1211 0026 3E97     		add	a4,a5,a4
 1212 0028 B337F700 		sltu	a5,a4,a5
 1213 002c B697     		add	a5,a5,a3
 348:C:/Users/stapi/OneDrive/Desktop/GD32VW553/V1_MQTT_OK/GD32VW55X_Wifi_BLE_SDK/GD32VW55x_RELEASE_V1.0.2/MSDK/cloud/alicloud/src/protocol/coap/local\CoAPMessage.c ****     if (tick > preventDup->last_tick + 60000) {
 1214              		.loc 1 348 21
 1215 002e AA89     		mv	s3,a0
 1216 0030 AE84     		mv	s1,a1
 1217              	.LVL124:
 1218              		.loc 1 349 5 is_stmt 1
 1219              		.loc 1 349 8 is_stmt 0
 1220 0032 63E6B700 		bgtu	a1,a5,.L131
 1221 0036 639FF500 		bne	a1,a5,.L125
 1222 003a 637DA700 		bleu	a0,a4,.L125
 1223              	.L131:
 350:C:/Users/stapi/OneDrive/Desktop/GD32VW553/V1_MQTT_OK/GD32VW55X_Wifi_BLE_SDK/GD32VW55x_RELEASE_V1.0.2/MSDK/cloud/alicloud/src/protocol/coap/local\CoAPMessage.c ****         memset (preventDup, 0, sizeof(CoAPPreventDuplicate));
 1224              		.loc 1 350 9 is_stmt 1
 1225 003e 13060005 		li	a2,80
 1226 0042 8145     		li	a1,0
 1227 0044 2285     		mv	a0,s0
 1228              	.LVL125:
 1229 0046 97000000 		call	memset
 1229      E7800000 
 1230              	.LVL126:
 351:C:/Users/stapi/OneDrive/Desktop/GD32VW553/V1_MQTT_OK/GD32VW55X_Wifi_BLE_SDK/GD32VW55x_RELEASE_V1.0.2/MSDK/cloud/alicloud/src/protocol/coap/local\CoAPMessage.c ****         preventDup->last_tick = tick;
 1231              		.loc 1 351 9
 1232              		.loc 1 351 31 is_stmt 0
 1233 004e 23243401 		sw	s3,8(s0)
 1234 0052 44C4     		sw	s1,12(s0)
 1235              	.L125:
 352:C:/Users/stapi/OneDrive/Desktop/GD32VW553/V1_MQTT_OK/GD32VW55X_Wifi_BLE_SDK/GD32VW55x_RELEASE_V1.0.2/MSDK/cloud/alicloud/src/protocol/coap/local\CoAPMessage.c ****     }
 353:C:/Users/stapi/OneDrive/Desktop/GD32VW553/V1_MQTT_OK/GD32VW55X_Wifi_BLE_SDK/GD32VW55x_RELEASE_V1.0.2/MSDK/cloud/alicloud/src/protocol/coap/local\CoAPMessage.c **** 
 354:C:/Users/stapi/OneDrive/Desktop/GD32VW553/V1_MQTT_OK/GD32VW55X_Wifi_BLE_SDK/GD32VW55x_RELEASE_V1.0.2/MSDK/cloud/alicloud/src/protocol/coap/local\CoAPMessage.c ****     utils_md5 ((unsigned char*)&message->header, sizeof(CoAPMsgHeader), checksum);
 1236              		.loc 1 354 5 is_stmt 1
 1237 0054 4A85     		mv	a0,s2
 1238 0056 0A86     		mv	a2,sp
 1239 0058 9145     		li	a1,4
 1240 005a 93040401 		addi	s1,s0,16
 1241              	.LVL127:
 1242 005e 97000000 		call	utils_md5
 1242      E7800000 
 1243              	.LVL128:
 355:C:/Users/stapi/OneDrive/Desktop/GD32VW553/V1_MQTT_OK/GD32VW55X_Wifi_BLE_SDK/GD32VW55x_RELEASE_V1.0.2/MSDK/cloud/alicloud/src/protocol/coap/local\CoAPMessage.c **** 
 356:C:/Users/stapi/OneDrive/Desktop/GD32VW553/V1_MQTT_OK/GD32VW55X_Wifi_BLE_SDK/GD32VW55x_RELEASE_V1.0.2/MSDK/cloud/alicloud/src/protocol/coap/local\CoAPMessage.c ****     for (i = 0; i < DUP_CHECKSUM_COUNT; ++i) {
 1244              		.loc 1 356 5
 1245              		.loc 1 356 17
 1246 0066 9309C404 		addi	s3,s0,76
 1247 006a 2689     		mv	s2,s1
 1248              	.LVL129:
 1249              	.L128:
 357:C:/Users/stapi/OneDrive/Desktop/GD32VW553/V1_MQTT_OK/GD32VW55X_Wifi_BLE_SDK/GD32VW55x_RELEASE_V1.0.2/MSDK/cloud/alicloud/src/protocol/coap/local\CoAPMessage.c ****         if (memcmp(preventDup->checksum_list + i * DUP_CHECKSUM_LEN, checksum, DUP_CHECKSUM_LEN) ==
 1250              		.loc 1 357 9
 1251              		.loc 1 357 13 is_stmt 0
 1252 006c 1146     		li	a2,4
 1253 006e 8A85     		mv	a1,sp
 1254 0070 2685     		mv	a0,s1
 1255 0072 97000000 		call	memcmp
 1255      E7800000 
 1256              	.LVL130:
 1257              		.loc 1 357 12
 1258 007a 15E9     		bne	a0,zero,.L127
 358:C:/Users/stapi/OneDrive/Desktop/GD32VW553/V1_MQTT_OK/GD32VW55X_Wifi_BLE_SDK/GD32VW55x_RELEASE_V1.0.2/MSDK/cloud/alicloud/src/protocol/coap/local\CoAPMessage.c ****             COAP_DEBUG("receive repeat data");
 1259              		.loc 1 358 13 is_stmt 1
 1260 007c 37070000 		lui	a4,%hi(.LC0)
 1261 0080 B7050000 		lui	a1,%hi(.LANCHOR0)
 1262 0084 37050000 		lui	a0,%hi(.LC1)
 1263 0088 13050500 		addi	a0,a0,%lo(.LC1)
 1264 008c 13070700 		addi	a4,a4,%lo(.LC0)
 1265 0090 9546     		li	a3,5
 1266 0092 13066016 		li	a2,358
 1267 0096 93850500 		addi	a1,a1,%lo(.LANCHOR0)
 1268 009a 97000000 		call	LITE_syslog
 1268      E7800000 
 1269              	.LVL131:
 359:C:/Users/stapi/OneDrive/Desktop/GD32VW553/V1_MQTT_OK/GD32VW55X_Wifi_BLE_SDK/GD32VW55x_RELEASE_V1.0.2/MSDK/cloud/alicloud/src/protocol/coap/local\CoAPMessage.c ****             return 1;
 1270              		.loc 1 359 13
 1271              		.loc 1 359 20 is_stmt 0
 1272 00a2 0545     		li	a0,1
 1273              	.L123:
 360:C:/Users/stapi/OneDrive/Desktop/GD32VW553/V1_MQTT_OK/GD32VW55X_Wifi_BLE_SDK/GD32VW55x_RELEASE_V1.0.2/MSDK/cloud/alicloud/src/protocol/coap/local\CoAPMessage.c ****         }
 361:C:/Users/stapi/OneDrive/Desktop/GD32VW553/V1_MQTT_OK/GD32VW55X_Wifi_BLE_SDK/GD32VW55x_RELEASE_V1.0.2/MSDK/cloud/alicloud/src/protocol/coap/local\CoAPMessage.c ****     }
 362:C:/Users/stapi/OneDrive/Desktop/GD32VW553/V1_MQTT_OK/GD32VW55X_Wifi_BLE_SDK/GD32VW55x_RELEASE_V1.0.2/MSDK/cloud/alicloud/src/protocol/coap/local\CoAPMessage.c **** 
 363:C:/Users/stapi/OneDrive/Desktop/GD32VW553/V1_MQTT_OK/GD32VW55X_Wifi_BLE_SDK/GD32VW55x_RELEASE_V1.0.2/MSDK/cloud/alicloud/src/protocol/coap/local\CoAPMessage.c ****     memcpy (preventDup->checksum_list + preventDup->write_index * DUP_CHECKSUM_LEN, checksum, DUP_C
 364:C:/Users/stapi/OneDrive/Desktop/GD32VW553/V1_MQTT_OK/GD32VW55X_Wifi_BLE_SDK/GD32VW55x_RELEASE_V1.0.2/MSDK/cloud/alicloud/src/protocol/coap/local\CoAPMessage.c ****     preventDup->write_index = (preventDup->write_index + 1) % DUP_CHECKSUM_COUNT;
 365:C:/Users/stapi/OneDrive/Desktop/GD32VW553/V1_MQTT_OK/GD32VW55X_Wifi_BLE_SDK/GD32VW55x_RELEASE_V1.0.2/MSDK/cloud/alicloud/src/protocol/coap/local\CoAPMessage.c ****     return 0;
 366:C:/Users/stapi/OneDrive/Desktop/GD32VW553/V1_MQTT_OK/GD32VW55X_Wifi_BLE_SDK/GD32VW55x_RELEASE_V1.0.2/MSDK/cloud/alicloud/src/protocol/coap/local\CoAPMessage.c **** }
 1274              		.loc 1 366 1
 1275 00a4 4101     		addi	sp,sp,16
 1276              		.cfi_remember_state
 1277              		.cfi_def_cfa_offset 0
 1278 00a6 17030000 		tail	__riscv_restore_4
 1278      67000300 
 1279              		.cfi_restore 19
 1280              		.cfi_restore 18
 1281              		.cfi_restore 9
 1282              		.cfi_restore 8
 1283              		.cfi_restore 1
 1284              		.cfi_def_cfa_offset -32
 1285              	.L127:
 1286              		.cfi_restore_state
 356:C:/Users/stapi/OneDrive/Desktop/GD32VW553/V1_MQTT_OK/GD32VW55X_Wifi_BLE_SDK/GD32VW55x_RELEASE_V1.0.2/MSDK/cloud/alicloud/src/protocol/coap/local\CoAPMessage.c ****         if (memcmp(preventDup->checksum_list + i * DUP_CHECKSUM_LEN, checksum, DUP_CHECKSUM_LEN) ==
 1287              		.loc 1 356 41 is_stmt 1 discriminator 2
 356:C:/Users/stapi/OneDrive/Desktop/GD32VW553/V1_MQTT_OK/GD32VW55X_Wifi_BLE_SDK/GD32VW55x_RELEASE_V1.0.2/MSDK/cloud/alicloud/src/protocol/coap/local\CoAPMessage.c ****         if (memcmp(preventDup->checksum_list + i * DUP_CHECKSUM_LEN, checksum, DUP_CHECKSUM_LEN) ==
 1288              		.loc 1 356 17 discriminator 2
 356:C:/Users/stapi/OneDrive/Desktop/GD32VW553/V1_MQTT_OK/GD32VW55X_Wifi_BLE_SDK/GD32VW55x_RELEASE_V1.0.2/MSDK/cloud/alicloud/src/protocol/coap/local\CoAPMessage.c ****         if (memcmp(preventDup->checksum_list + i * DUP_CHECKSUM_LEN, checksum, DUP_CHECKSUM_LEN) ==
 1289              		.loc 1 356 5 is_stmt 0 discriminator 2
 1290 00ae 9104     		addi	s1,s1,4
 1291 00b0 E39E34FB 		bne	s1,s3,.L128
 363:C:/Users/stapi/OneDrive/Desktop/GD32VW553/V1_MQTT_OK/GD32VW55X_Wifi_BLE_SDK/GD32VW55x_RELEASE_V1.0.2/MSDK/cloud/alicloud/src/protocol/coap/local\CoAPMessage.c ****     preventDup->write_index = (preventDup->write_index + 1) % DUP_CHECKSUM_COUNT;
 1292              		.loc 1 363 5 is_stmt 1
 363:C:/Users/stapi/OneDrive/Desktop/GD32VW553/V1_MQTT_OK/GD32VW55X_Wifi_BLE_SDK/GD32VW55x_RELEASE_V1.0.2/MSDK/cloud/alicloud/src/protocol/coap/local\CoAPMessage.c ****     preventDup->write_index = (preventDup->write_index + 1) % DUP_CHECKSUM_COUNT;
 1293              		.loc 1 363 65 is_stmt 0
 1294 00b4 0840     		lw	a0,0(s0)
 363:C:/Users/stapi/OneDrive/Desktop/GD32VW553/V1_MQTT_OK/GD32VW55X_Wifi_BLE_SDK/GD32VW55x_RELEASE_V1.0.2/MSDK/cloud/alicloud/src/protocol/coap/local\CoAPMessage.c ****     preventDup->write_index = (preventDup->write_index + 1) % DUP_CHECKSUM_COUNT;
 1295              		.loc 1 363 5
 1296 00b6 1146     		li	a2,4
 1297 00b8 8A85     		mv	a1,sp
 1298 00ba 33452521 		sh2add	a0,a0,s2
 1299 00be 97000000 		call	memcpy
 1299      E7800000 
 1300              	.LVL132:
 364:C:/Users/stapi/OneDrive/Desktop/GD32VW553/V1_MQTT_OK/GD32VW55X_Wifi_BLE_SDK/GD32VW55x_RELEASE_V1.0.2/MSDK/cloud/alicloud/src/protocol/coap/local\CoAPMessage.c ****     return 0;
 1301              		.loc 1 364 5 is_stmt 1
 364:C:/Users/stapi/OneDrive/Desktop/GD32VW553/V1_MQTT_OK/GD32VW55X_Wifi_BLE_SDK/GD32VW55x_RELEASE_V1.0.2/MSDK/cloud/alicloud/src/protocol/coap/local\CoAPMessage.c ****     return 0;
 1302              		.loc 1 364 56 is_stmt 0
 1303 00c6 1C40     		lw	a5,0(s0)
 364:C:/Users/stapi/OneDrive/Desktop/GD32VW553/V1_MQTT_OK/GD32VW55X_Wifi_BLE_SDK/GD32VW55x_RELEASE_V1.0.2/MSDK/cloud/alicloud/src/protocol/coap/local\CoAPMessage.c ****     return 0;
 1304              		.loc 1 364 61
 1305 00c8 3D47     		li	a4,15
 365:C:/Users/stapi/OneDrive/Desktop/GD32VW553/V1_MQTT_OK/GD32VW55X_Wifi_BLE_SDK/GD32VW55x_RELEASE_V1.0.2/MSDK/cloud/alicloud/src/protocol/coap/local\CoAPMessage.c **** }
 1306              		.loc 1 365 12
 1307 00ca 0145     		li	a0,0
 364:C:/Users/stapi/OneDrive/Desktop/GD32VW553/V1_MQTT_OK/GD32VW55X_Wifi_BLE_SDK/GD32VW55x_RELEASE_V1.0.2/MSDK/cloud/alicloud/src/protocol/coap/local\CoAPMessage.c ****     return 0;
 1308              		.loc 1 364 56
 1309 00cc 8507     		addi	a5,a5,1
 364:C:/Users/stapi/OneDrive/Desktop/GD32VW553/V1_MQTT_OK/GD32VW55X_Wifi_BLE_SDK/GD32VW55x_RELEASE_V1.0.2/MSDK/cloud/alicloud/src/protocol/coap/local\CoAPMessage.c ****     return 0;
 1310              		.loc 1 364 61
 1311 00ce B3E7E702 		rem	a5,a5,a4
 364:C:/Users/stapi/OneDrive/Desktop/GD32VW553/V1_MQTT_OK/GD32VW55X_Wifi_BLE_SDK/GD32VW55x_RELEASE_V1.0.2/MSDK/cloud/alicloud/src/protocol/coap/local\CoAPMessage.c ****     return 0;
 1312              		.loc 1 364 29
 1313 00d2 1CC0     		sw	a5,0(s0)
 365:C:/Users/stapi/OneDrive/Desktop/GD32VW553/V1_MQTT_OK/GD32VW55X_Wifi_BLE_SDK/GD32VW55x_RELEASE_V1.0.2/MSDK/cloud/alicloud/src/protocol/coap/local\CoAPMessage.c **** }
 1314              		.loc 1 365 5 is_stmt 1
 365:C:/Users/stapi/OneDrive/Desktop/GD32VW553/V1_MQTT_OK/GD32VW55X_Wifi_BLE_SDK/GD32VW55x_RELEASE_V1.0.2/MSDK/cloud/alicloud/src/protocol/coap/local\CoAPMessage.c **** }
 1315              		.loc 1 365 12 is_stmt 0
 1316 00d4 C1BF     		j	.L123
 1317              	.LVL133:
 1318              	.L129:
 1319              		.cfi_def_cfa_offset 0
 1320              		.cfi_restore 1
 1321              		.cfi_restore 8
 1322              		.cfi_restore 9
 1323              		.cfi_restore 18
 1324              		.cfi_restore 19
 346:C:/Users/stapi/OneDrive/Desktop/GD32VW553/V1_MQTT_OK/GD32VW55X_Wifi_BLE_SDK/GD32VW55x_RELEASE_V1.0.2/MSDK/cloud/alicloud/src/protocol/coap/local\CoAPMessage.c ****     }
 1325              		.loc 1 346 16
 1326 00d6 0145     		li	a0,0
 1327              	.LVL134:
 1328              		.loc 1 366 1
 1329 00d8 8280     		ret
 1330              		.cfi_endproc
 1331              	.LFE38:
 1333              		.section	.rodata.CoAPMessageToken_dump.str1.4,"aMS",@progbits,1
 1334              		.align	2
 1335              	.LC2:
 1336 0000 25303258 		.string	"%02X"
 1336      00
 1337 0005 000000   		.align	2
 1338              	.LC3:
 1339 0008 546F6B65 		.string	"Token Len   : %d"
 1339      6E204C65 
 1339      6E202020 
 1339      3A202564 
 1339      00
 1340 0019 000000   		.align	2
 1341              	.LC4:
 1342 001c 546F6B65 		.string	"Token       : %s"
 1342      6E202020 
 1342      20202020 
 1342      3A202573 
 1342      00
 1343              		.section	.text.CoAPMessageToken_dump,"ax",@progbits
 1344              		.align	1
 1345              		.globl	CoAPMessageToken_dump
 1347              	CoAPMessageToken_dump:
 1348              	.LFB40:
 367:C:/Users/stapi/OneDrive/Desktop/GD32VW553/V1_MQTT_OK/GD32VW55X_Wifi_BLE_SDK/GD32VW55x_RELEASE_V1.0.2/MSDK/cloud/alicloud/src/protocol/coap/local\CoAPMessage.c **** 
 368:C:/Users/stapi/OneDrive/Desktop/GD32VW553/V1_MQTT_OK/GD32VW55X_Wifi_BLE_SDK/GD32VW55x_RELEASE_V1.0.2/MSDK/cloud/alicloud/src/protocol/coap/local\CoAPMessage.c **** static int CoAPMessageList_add(CoAPContext *context, NetworkAddr *remote,
 369:C:/Users/stapi/OneDrive/Desktop/GD32VW553/V1_MQTT_OK/GD32VW55X_Wifi_BLE_SDK/GD32VW55x_RELEASE_V1.0.2/MSDK/cloud/alicloud/src/protocol/coap/local\CoAPMessage.c ****                                CoAPMessage *message, unsigned char *buffer, int len)
 370:C:/Users/stapi/OneDrive/Desktop/GD32VW553/V1_MQTT_OK/GD32VW55X_Wifi_BLE_SDK/GD32VW55x_RELEASE_V1.0.2/MSDK/cloud/alicloud/src/protocol/coap/local\CoAPMessage.c **** {
 371:C:/Users/stapi/OneDrive/Desktop/GD32VW553/V1_MQTT_OK/GD32VW55X_Wifi_BLE_SDK/GD32VW55x_RELEASE_V1.0.2/MSDK/cloud/alicloud/src/protocol/coap/local\CoAPMessage.c ****     CoAPIntContext *ctx = (CoAPIntContext *)context;
 372:C:/Users/stapi/OneDrive/Desktop/GD32VW553/V1_MQTT_OK/GD32VW55X_Wifi_BLE_SDK/GD32VW55x_RELEASE_V1.0.2/MSDK/cloud/alicloud/src/protocol/coap/local\CoAPMessage.c ****     CoAPSendNode *node = NULL;
 373:C:/Users/stapi/OneDrive/Desktop/GD32VW553/V1_MQTT_OK/GD32VW55X_Wifi_BLE_SDK/GD32VW55x_RELEASE_V1.0.2/MSDK/cloud/alicloud/src/protocol/coap/local\CoAPMessage.c ****     CoAPSendNode *next = NULL;
 374:C:/Users/stapi/OneDrive/Desktop/GD32VW553/V1_MQTT_OK/GD32VW55X_Wifi_BLE_SDK/GD32VW55x_RELEASE_V1.0.2/MSDK/cloud/alicloud/src/protocol/coap/local\CoAPMessage.c ****     int no_response = 0;
 375:C:/Users/stapi/OneDrive/Desktop/GD32VW553/V1_MQTT_OK/GD32VW55X_Wifi_BLE_SDK/GD32VW55x_RELEASE_V1.0.2/MSDK/cloud/alicloud/src/protocol/coap/local\CoAPMessage.c ****     int keep = NOKEEP;
 376:C:/Users/stapi/OneDrive/Desktop/GD32VW553/V1_MQTT_OK/GD32VW55X_Wifi_BLE_SDK/GD32VW55x_RELEASE_V1.0.2/MSDK/cloud/alicloud/src/protocol/coap/local\CoAPMessage.c **** 
 377:C:/Users/stapi/OneDrive/Desktop/GD32VW553/V1_MQTT_OK/GD32VW55X_Wifi_BLE_SDK/GD32VW55x_RELEASE_V1.0.2/MSDK/cloud/alicloud/src/protocol/coap/local\CoAPMessage.c ****     if(COAP_SUCCESS == CoAPOption_present(message, COAP_OPTION_NO_RESPONSE)){
 378:C:/Users/stapi/OneDrive/Desktop/GD32VW553/V1_MQTT_OK/GD32VW55X_Wifi_BLE_SDK/GD32VW55x_RELEASE_V1.0.2/MSDK/cloud/alicloud/src/protocol/coap/local\CoAPMessage.c ****        no_response = 1;
 379:C:/Users/stapi/OneDrive/Desktop/GD32VW553/V1_MQTT_OK/GD32VW55X_Wifi_BLE_SDK/GD32VW55x_RELEASE_V1.0.2/MSDK/cloud/alicloud/src/protocol/coap/local\CoAPMessage.c ****     }
 380:C:/Users/stapi/OneDrive/Desktop/GD32VW553/V1_MQTT_OK/GD32VW55X_Wifi_BLE_SDK/GD32VW55x_RELEASE_V1.0.2/MSDK/cloud/alicloud/src/protocol/coap/local\CoAPMessage.c ****     if (no_response && CoAPNonMsg(message->header)) {
 381:C:/Users/stapi/OneDrive/Desktop/GD32VW553/V1_MQTT_OK/GD32VW55X_Wifi_BLE_SDK/GD32VW55x_RELEASE_V1.0.2/MSDK/cloud/alicloud/src/protocol/coap/local\CoAPMessage.c ****         COAP_DEBUG("The message %d don't add to list", message->header.msgid);
 382:C:/Users/stapi/OneDrive/Desktop/GD32VW553/V1_MQTT_OK/GD32VW55X_Wifi_BLE_SDK/GD32VW55x_RELEASE_V1.0.2/MSDK/cloud/alicloud/src/protocol/coap/local\CoAPMessage.c ****         return COAP_ERROR_NULL;
 383:C:/Users/stapi/OneDrive/Desktop/GD32VW553/V1_MQTT_OK/GD32VW55X_Wifi_BLE_SDK/GD32VW55x_RELEASE_V1.0.2/MSDK/cloud/alicloud/src/protocol/coap/local\CoAPMessage.c ****     }
 384:C:/Users/stapi/OneDrive/Desktop/GD32VW553/V1_MQTT_OK/GD32VW55X_Wifi_BLE_SDK/GD32VW55x_RELEASE_V1.0.2/MSDK/cloud/alicloud/src/protocol/coap/local\CoAPMessage.c **** 
 385:C:/Users/stapi/OneDrive/Desktop/GD32VW553/V1_MQTT_OK/GD32VW55X_Wifi_BLE_SDK/GD32VW55x_RELEASE_V1.0.2/MSDK/cloud/alicloud/src/protocol/coap/local\CoAPMessage.c ****     HAL_MutexLock(ctx->sendlist.list_mutex);
 386:C:/Users/stapi/OneDrive/Desktop/GD32VW553/V1_MQTT_OK/GD32VW55X_Wifi_BLE_SDK/GD32VW55x_RELEASE_V1.0.2/MSDK/cloud/alicloud/src/protocol/coap/local\CoAPMessage.c ****     list_for_each_entry_safe(node, next, &ctx->sendlist.list, sendlist, CoAPSendNode) {
 387:C:/Users/stapi/OneDrive/Desktop/GD32VW553/V1_MQTT_OK/GD32VW55X_Wifi_BLE_SDK/GD32VW55x_RELEASE_V1.0.2/MSDK/cloud/alicloud/src/protocol/coap/local\CoAPMessage.c ****         if (NULL != node && node->keep == KEEPING){
 388:C:/Users/stapi/OneDrive/Desktop/GD32VW553/V1_MQTT_OK/GD32VW55X_Wifi_BLE_SDK/GD32VW55x_RELEASE_V1.0.2/MSDK/cloud/alicloud/src/protocol/coap/local\CoAPMessage.c ****             if (node->header.msgid == message->header.msgid) {
 389:C:/Users/stapi/OneDrive/Desktop/GD32VW553/V1_MQTT_OK/GD32VW55X_Wifi_BLE_SDK/GD32VW55x_RELEASE_V1.0.2/MSDK/cloud/alicloud/src/protocol/coap/local\CoAPMessage.c ****                 COAP_INFO("message already present!");
 390:C:/Users/stapi/OneDrive/Desktop/GD32VW553/V1_MQTT_OK/GD32VW55X_Wifi_BLE_SDK/GD32VW55x_RELEASE_V1.0.2/MSDK/cloud/alicloud/src/protocol/coap/local\CoAPMessage.c ****                 HAL_MutexUnlock(ctx->sendlist.list_mutex);
 391:C:/Users/stapi/OneDrive/Desktop/GD32VW553/V1_MQTT_OK/GD32VW55X_Wifi_BLE_SDK/GD32VW55x_RELEASE_V1.0.2/MSDK/cloud/alicloud/src/protocol/coap/local\CoAPMessage.c ****                 return COAP_SUCCESS;
 392:C:/Users/stapi/OneDrive/Desktop/GD32VW553/V1_MQTT_OK/GD32VW55X_Wifi_BLE_SDK/GD32VW55x_RELEASE_V1.0.2/MSDK/cloud/alicloud/src/protocol/coap/local\CoAPMessage.c ****             }
 393:C:/Users/stapi/OneDrive/Desktop/GD32VW553/V1_MQTT_OK/GD32VW55X_Wifi_BLE_SDK/GD32VW55x_RELEASE_V1.0.2/MSDK/cloud/alicloud/src/protocol/coap/local\CoAPMessage.c ****         }
 394:C:/Users/stapi/OneDrive/Desktop/GD32VW553/V1_MQTT_OK/GD32VW55X_Wifi_BLE_SDK/GD32VW55x_RELEASE_V1.0.2/MSDK/cloud/alicloud/src/protocol/coap/local\CoAPMessage.c ****     }
 395:C:/Users/stapi/OneDrive/Desktop/GD32VW553/V1_MQTT_OK/GD32VW55X_Wifi_BLE_SDK/GD32VW55x_RELEASE_V1.0.2/MSDK/cloud/alicloud/src/protocol/coap/local\CoAPMessage.c ****     HAL_MutexUnlock(ctx->sendlist.list_mutex);
 396:C:/Users/stapi/OneDrive/Desktop/GD32VW553/V1_MQTT_OK/GD32VW55X_Wifi_BLE_SDK/GD32VW55x_RELEASE_V1.0.2/MSDK/cloud/alicloud/src/protocol/coap/local\CoAPMessage.c **** 
 397:C:/Users/stapi/OneDrive/Desktop/GD32VW553/V1_MQTT_OK/GD32VW55X_Wifi_BLE_SDK/GD32VW55x_RELEASE_V1.0.2/MSDK/cloud/alicloud/src/protocol/coap/local\CoAPMessage.c ****     if(platform_is_multicast((const char *)remote->addr) || 1 == message->keep){
 398:C:/Users/stapi/OneDrive/Desktop/GD32VW553/V1_MQTT_OK/GD32VW55X_Wifi_BLE_SDK/GD32VW55x_RELEASE_V1.0.2/MSDK/cloud/alicloud/src/protocol/coap/local\CoAPMessage.c ****         keep = KEEPING;
 399:C:/Users/stapi/OneDrive/Desktop/GD32VW553/V1_MQTT_OK/GD32VW55X_Wifi_BLE_SDK/GD32VW55x_RELEASE_V1.0.2/MSDK/cloud/alicloud/src/protocol/coap/local\CoAPMessage.c ****     }
 400:C:/Users/stapi/OneDrive/Desktop/GD32VW553/V1_MQTT_OK/GD32VW55X_Wifi_BLE_SDK/GD32VW55x_RELEASE_V1.0.2/MSDK/cloud/alicloud/src/protocol/coap/local\CoAPMessage.c **** 
 401:C:/Users/stapi/OneDrive/Desktop/GD32VW553/V1_MQTT_OK/GD32VW55X_Wifi_BLE_SDK/GD32VW55x_RELEASE_V1.0.2/MSDK/cloud/alicloud/src/protocol/coap/local\CoAPMessage.c ****     node = coap_malloc(sizeof(CoAPSendNode));
 402:C:/Users/stapi/OneDrive/Desktop/GD32VW553/V1_MQTT_OK/GD32VW55X_Wifi_BLE_SDK/GD32VW55x_RELEASE_V1.0.2/MSDK/cloud/alicloud/src/protocol/coap/local\CoAPMessage.c ****     if (NULL != node) {
 403:C:/Users/stapi/OneDrive/Desktop/GD32VW553/V1_MQTT_OK/GD32VW55X_Wifi_BLE_SDK/GD32VW55x_RELEASE_V1.0.2/MSDK/cloud/alicloud/src/protocol/coap/local\CoAPMessage.c ****         memset(node, 0x00, sizeof(CoAPSendNode));
 404:C:/Users/stapi/OneDrive/Desktop/GD32VW553/V1_MQTT_OK/GD32VW55X_Wifi_BLE_SDK/GD32VW55x_RELEASE_V1.0.2/MSDK/cloud/alicloud/src/protocol/coap/local\CoAPMessage.c ****         node->acked        = 0;
 405:C:/Users/stapi/OneDrive/Desktop/GD32VW553/V1_MQTT_OK/GD32VW55X_Wifi_BLE_SDK/GD32VW55x_RELEASE_V1.0.2/MSDK/cloud/alicloud/src/protocol/coap/local\CoAPMessage.c ****         node->user         = message->user;
 406:C:/Users/stapi/OneDrive/Desktop/GD32VW553/V1_MQTT_OK/GD32VW55X_Wifi_BLE_SDK/GD32VW55x_RELEASE_V1.0.2/MSDK/cloud/alicloud/src/protocol/coap/local\CoAPMessage.c ****         node->header       = message->header;
 407:C:/Users/stapi/OneDrive/Desktop/GD32VW553/V1_MQTT_OK/GD32VW55X_Wifi_BLE_SDK/GD32VW55x_RELEASE_V1.0.2/MSDK/cloud/alicloud/src/protocol/coap/local\CoAPMessage.c ****         node->handler      = message->handler;
 408:C:/Users/stapi/OneDrive/Desktop/GD32VW553/V1_MQTT_OK/GD32VW55X_Wifi_BLE_SDK/GD32VW55x_RELEASE_V1.0.2/MSDK/cloud/alicloud/src/protocol/coap/local\CoAPMessage.c ****         node->msglen       = len;
 409:C:/Users/stapi/OneDrive/Desktop/GD32VW553/V1_MQTT_OK/GD32VW55X_Wifi_BLE_SDK/GD32VW55x_RELEASE_V1.0.2/MSDK/cloud/alicloud/src/protocol/coap/local\CoAPMessage.c ****         node->message      = buffer;
 410:C:/Users/stapi/OneDrive/Desktop/GD32VW553/V1_MQTT_OK/GD32VW55X_Wifi_BLE_SDK/GD32VW55x_RELEASE_V1.0.2/MSDK/cloud/alicloud/src/protocol/coap/local\CoAPMessage.c ****         node->timeout_val   = COAP_ACK_TIMEOUT * COAP_ACK_RANDOM_FACTOR;
 411:C:/Users/stapi/OneDrive/Desktop/GD32VW553/V1_MQTT_OK/GD32VW55X_Wifi_BLE_SDK/GD32VW55x_RELEASE_V1.0.2/MSDK/cloud/alicloud/src/protocol/coap/local\CoAPMessage.c ****         node->no_response = no_response;
 412:C:/Users/stapi/OneDrive/Desktop/GD32VW553/V1_MQTT_OK/GD32VW55X_Wifi_BLE_SDK/GD32VW55x_RELEASE_V1.0.2/MSDK/cloud/alicloud/src/protocol/coap/local\CoAPMessage.c ****         node->keep = keep;
 413:C:/Users/stapi/OneDrive/Desktop/GD32VW553/V1_MQTT_OK/GD32VW55X_Wifi_BLE_SDK/GD32VW55x_RELEASE_V1.0.2/MSDK/cloud/alicloud/src/protocol/coap/local\CoAPMessage.c ****         memcpy(&node->remote, remote, sizeof(NetworkAddr));
 414:C:/Users/stapi/OneDrive/Desktop/GD32VW553/V1_MQTT_OK/GD32VW55X_Wifi_BLE_SDK/GD32VW55x_RELEASE_V1.0.2/MSDK/cloud/alicloud/src/protocol/coap/local\CoAPMessage.c ****         memcpy(node->token, message->token, message->header.tokenlen);
 415:C:/Users/stapi/OneDrive/Desktop/GD32VW553/V1_MQTT_OK/GD32VW55X_Wifi_BLE_SDK/GD32VW55x_RELEASE_V1.0.2/MSDK/cloud/alicloud/src/protocol/coap/local\CoAPMessage.c **** 
 416:C:/Users/stapi/OneDrive/Desktop/GD32VW553/V1_MQTT_OK/GD32VW55X_Wifi_BLE_SDK/GD32VW55x_RELEASE_V1.0.2/MSDK/cloud/alicloud/src/protocol/coap/local\CoAPMessage.c ****         uint64_t tick = HAL_UptimeMs ();
 417:C:/Users/stapi/OneDrive/Desktop/GD32VW553/V1_MQTT_OK/GD32VW55X_Wifi_BLE_SDK/GD32VW55x_RELEASE_V1.0.2/MSDK/cloud/alicloud/src/protocol/coap/local\CoAPMessage.c ****         if (CoAPConMsg(message->header)) {
 418:C:/Users/stapi/OneDrive/Desktop/GD32VW553/V1_MQTT_OK/GD32VW55X_Wifi_BLE_SDK/GD32VW55x_RELEASE_V1.0.2/MSDK/cloud/alicloud/src/protocol/coap/local\CoAPMessage.c ****             node->timeout = node->timeout_val + tick;
 419:C:/Users/stapi/OneDrive/Desktop/GD32VW553/V1_MQTT_OK/GD32VW55X_Wifi_BLE_SDK/GD32VW55x_RELEASE_V1.0.2/MSDK/cloud/alicloud/src/protocol/coap/local\CoAPMessage.c ****             node->retrans_count = COAP_MAX_RETRY_COUNT;
 420:C:/Users/stapi/OneDrive/Desktop/GD32VW553/V1_MQTT_OK/GD32VW55X_Wifi_BLE_SDK/GD32VW55x_RELEASE_V1.0.2/MSDK/cloud/alicloud/src/protocol/coap/local\CoAPMessage.c ****         } else {
 421:C:/Users/stapi/OneDrive/Desktop/GD32VW553/V1_MQTT_OK/GD32VW55X_Wifi_BLE_SDK/GD32VW55x_RELEASE_V1.0.2/MSDK/cloud/alicloud/src/protocol/coap/local\CoAPMessage.c ****             node->timeout = node->timeout_val * 4 + tick;
 422:C:/Users/stapi/OneDrive/Desktop/GD32VW553/V1_MQTT_OK/GD32VW55X_Wifi_BLE_SDK/GD32VW55x_RELEASE_V1.0.2/MSDK/cloud/alicloud/src/protocol/coap/local\CoAPMessage.c ****             node->retrans_count = 0;
 423:C:/Users/stapi/OneDrive/Desktop/GD32VW553/V1_MQTT_OK/GD32VW55X_Wifi_BLE_SDK/GD32VW55x_RELEASE_V1.0.2/MSDK/cloud/alicloud/src/protocol/coap/local\CoAPMessage.c ****         }
 424:C:/Users/stapi/OneDrive/Desktop/GD32VW553/V1_MQTT_OK/GD32VW55X_Wifi_BLE_SDK/GD32VW55x_RELEASE_V1.0.2/MSDK/cloud/alicloud/src/protocol/coap/local\CoAPMessage.c **** 
 425:C:/Users/stapi/OneDrive/Desktop/GD32VW553/V1_MQTT_OK/GD32VW55X_Wifi_BLE_SDK/GD32VW55x_RELEASE_V1.0.2/MSDK/cloud/alicloud/src/protocol/coap/local\CoAPMessage.c ****         if(keep == KEEPING){
 426:C:/Users/stapi/OneDrive/Desktop/GD32VW553/V1_MQTT_OK/GD32VW55X_Wifi_BLE_SDK/GD32VW55x_RELEASE_V1.0.2/MSDK/cloud/alicloud/src/protocol/coap/local\CoAPMessage.c ****             COAP_DEBUG("The message %d need keep", message->header.msgid);
 427:C:/Users/stapi/OneDrive/Desktop/GD32VW553/V1_MQTT_OK/GD32VW55X_Wifi_BLE_SDK/GD32VW55x_RELEASE_V1.0.2/MSDK/cloud/alicloud/src/protocol/coap/local\CoAPMessage.c ****         }
 428:C:/Users/stapi/OneDrive/Desktop/GD32VW553/V1_MQTT_OK/GD32VW55X_Wifi_BLE_SDK/GD32VW55x_RELEASE_V1.0.2/MSDK/cloud/alicloud/src/protocol/coap/local\CoAPMessage.c **** 
 429:C:/Users/stapi/OneDrive/Desktop/GD32VW553/V1_MQTT_OK/GD32VW55X_Wifi_BLE_SDK/GD32VW55x_RELEASE_V1.0.2/MSDK/cloud/alicloud/src/protocol/coap/local\CoAPMessage.c ****         HAL_MutexLock(ctx->sendlist.list_mutex);
 430:C:/Users/stapi/OneDrive/Desktop/GD32VW553/V1_MQTT_OK/GD32VW55X_Wifi_BLE_SDK/GD32VW55x_RELEASE_V1.0.2/MSDK/cloud/alicloud/src/protocol/coap/local\CoAPMessage.c ****         if (ctx->sendlist.count >= ctx->sendlist.maxcount) {
 431:C:/Users/stapi/OneDrive/Desktop/GD32VW553/V1_MQTT_OK/GD32VW55X_Wifi_BLE_SDK/GD32VW55x_RELEASE_V1.0.2/MSDK/cloud/alicloud/src/protocol/coap/local\CoAPMessage.c ****             HAL_MutexUnlock(ctx->sendlist.list_mutex);
 432:C:/Users/stapi/OneDrive/Desktop/GD32VW553/V1_MQTT_OK/GD32VW55X_Wifi_BLE_SDK/GD32VW55x_RELEASE_V1.0.2/MSDK/cloud/alicloud/src/protocol/coap/local\CoAPMessage.c ****             coap_free(node);
 433:C:/Users/stapi/OneDrive/Desktop/GD32VW553/V1_MQTT_OK/GD32VW55X_Wifi_BLE_SDK/GD32VW55x_RELEASE_V1.0.2/MSDK/cloud/alicloud/src/protocol/coap/local\CoAPMessage.c ****             COAP_INFO("The send list is full");
 434:C:/Users/stapi/OneDrive/Desktop/GD32VW553/V1_MQTT_OK/GD32VW55X_Wifi_BLE_SDK/GD32VW55x_RELEASE_V1.0.2/MSDK/cloud/alicloud/src/protocol/coap/local\CoAPMessage.c ****             return COAP_ERROR_DATA_SIZE;
 435:C:/Users/stapi/OneDrive/Desktop/GD32VW553/V1_MQTT_OK/GD32VW55X_Wifi_BLE_SDK/GD32VW55x_RELEASE_V1.0.2/MSDK/cloud/alicloud/src/protocol/coap/local\CoAPMessage.c ****         } else {
 436:C:/Users/stapi/OneDrive/Desktop/GD32VW553/V1_MQTT_OK/GD32VW55X_Wifi_BLE_SDK/GD32VW55x_RELEASE_V1.0.2/MSDK/cloud/alicloud/src/protocol/coap/local\CoAPMessage.c ****             list_add_tail(&node->sendlist, &ctx->sendlist.list);
 437:C:/Users/stapi/OneDrive/Desktop/GD32VW553/V1_MQTT_OK/GD32VW55X_Wifi_BLE_SDK/GD32VW55x_RELEASE_V1.0.2/MSDK/cloud/alicloud/src/protocol/coap/local\CoAPMessage.c ****             ctx->sendlist.count ++;
 438:C:/Users/stapi/OneDrive/Desktop/GD32VW553/V1_MQTT_OK/GD32VW55X_Wifi_BLE_SDK/GD32VW55x_RELEASE_V1.0.2/MSDK/cloud/alicloud/src/protocol/coap/local\CoAPMessage.c ****             HAL_MutexUnlock(ctx->sendlist.list_mutex);
 439:C:/Users/stapi/OneDrive/Desktop/GD32VW553/V1_MQTT_OK/GD32VW55X_Wifi_BLE_SDK/GD32VW55x_RELEASE_V1.0.2/MSDK/cloud/alicloud/src/protocol/coap/local\CoAPMessage.c ****             return COAP_SUCCESS;
 440:C:/Users/stapi/OneDrive/Desktop/GD32VW553/V1_MQTT_OK/GD32VW55X_Wifi_BLE_SDK/GD32VW55x_RELEASE_V1.0.2/MSDK/cloud/alicloud/src/protocol/coap/local\CoAPMessage.c ****         }
 441:C:/Users/stapi/OneDrive/Desktop/GD32VW553/V1_MQTT_OK/GD32VW55X_Wifi_BLE_SDK/GD32VW55x_RELEASE_V1.0.2/MSDK/cloud/alicloud/src/protocol/coap/local\CoAPMessage.c ****     } else {
 442:C:/Users/stapi/OneDrive/Desktop/GD32VW553/V1_MQTT_OK/GD32VW55X_Wifi_BLE_SDK/GD32VW55x_RELEASE_V1.0.2/MSDK/cloud/alicloud/src/protocol/coap/local\CoAPMessage.c ****         return COAP_ERROR_NULL;
 443:C:/Users/stapi/OneDrive/Desktop/GD32VW553/V1_MQTT_OK/GD32VW55X_Wifi_BLE_SDK/GD32VW55x_RELEASE_V1.0.2/MSDK/cloud/alicloud/src/protocol/coap/local\CoAPMessage.c ****     }
 444:C:/Users/stapi/OneDrive/Desktop/GD32VW553/V1_MQTT_OK/GD32VW55X_Wifi_BLE_SDK/GD32VW55x_RELEASE_V1.0.2/MSDK/cloud/alicloud/src/protocol/coap/local\CoAPMessage.c **** }
 445:C:/Users/stapi/OneDrive/Desktop/GD32VW553/V1_MQTT_OK/GD32VW55X_Wifi_BLE_SDK/GD32VW55x_RELEASE_V1.0.2/MSDK/cloud/alicloud/src/protocol/coap/local\CoAPMessage.c **** 
 446:C:/Users/stapi/OneDrive/Desktop/GD32VW553/V1_MQTT_OK/GD32VW55X_Wifi_BLE_SDK/GD32VW55x_RELEASE_V1.0.2/MSDK/cloud/alicloud/src/protocol/coap/local\CoAPMessage.c **** void CoAPMessageToken_dump(unsigned char *token, unsigned char tokenlen)
 447:C:/Users/stapi/OneDrive/Desktop/GD32VW553/V1_MQTT_OK/GD32VW55X_Wifi_BLE_SDK/GD32VW55x_RELEASE_V1.0.2/MSDK/cloud/alicloud/src/protocol/coap/local\CoAPMessage.c **** {
 1349              		.loc 1 447 1 is_stmt 1
 1350              		.cfi_startproc
 1351              	.LVL135:
 1352 0000 17030000 		call	t0,__riscv_save_6
 1352      E7020300 
 1353              		.cfi_offset 21, -28
 1354              		.cfi_offset 20, -24
 1355              		.cfi_offset 19, -20
 1356              		.cfi_offset 18, -16
 1357              		.cfi_offset 9, -12
 1358              		.cfi_offset 8, -8
 1359              		.cfi_offset 1, -4
 1360              		.cfi_def_cfa_offset 32
 448:C:/Users/stapi/OneDrive/Desktop/GD32VW553/V1_MQTT_OK/GD32VW55X_Wifi_BLE_SDK/GD32VW55x_RELEASE_V1.0.2/MSDK/cloud/alicloud/src/protocol/coap/local\CoAPMessage.c ****     int index = 0, count = 0;
 1361              		.loc 1 448 5
 1362              	.LVL136:
 449:C:/Users/stapi/OneDrive/Desktop/GD32VW553/V1_MQTT_OK/GD32VW55X_Wifi_BLE_SDK/GD32VW55x_RELEASE_V1.0.2/MSDK/cloud/alicloud/src/protocol/coap/local\CoAPMessage.c ****     int total = 2 * COAP_MSG_MAX_TOKEN_LEN;
 1363              		.loc 1 449 5
 450:C:/Users/stapi/OneDrive/Desktop/GD32VW553/V1_MQTT_OK/GD32VW55X_Wifi_BLE_SDK/GD32VW55x_RELEASE_V1.0.2/MSDK/cloud/alicloud/src/protocol/coap/local\CoAPMessage.c ****     char   buff[2 * COAP_MSG_MAX_TOKEN_LEN + 1] = {0}, *ptr = NULL;
 1364              		.loc 1 450 5
 447:C:/Users/stapi/OneDrive/Desktop/GD32VW553/V1_MQTT_OK/GD32VW55X_Wifi_BLE_SDK/GD32VW55x_RELEASE_V1.0.2/MSDK/cloud/alicloud/src/protocol/coap/local\CoAPMessage.c ****     int index = 0, count = 0;
 1365              		.loc 1 447 1 is_stmt 0
 1366 0008 7971     		addi	sp,sp,-48
 1367              		.cfi_def_cfa_offset 80
 451:C:/Users/stapi/OneDrive/Desktop/GD32VW553/V1_MQTT_OK/GD32VW55X_Wifi_BLE_SDK/GD32VW55x_RELEASE_V1.0.2/MSDK/cloud/alicloud/src/protocol/coap/local\CoAPMessage.c **** 
 452:C:/Users/stapi/OneDrive/Desktop/GD32VW553/V1_MQTT_OK/GD32VW55X_Wifi_BLE_SDK/GD32VW55x_RELEASE_V1.0.2/MSDK/cloud/alicloud/src/protocol/coap/local\CoAPMessage.c ****     ptr = buff;
 1368              		.loc 1 452 9
 1369 000a 6408     		addi	s1,sp,28
 447:C:/Users/stapi/OneDrive/Desktop/GD32VW553/V1_MQTT_OK/GD32VW55X_Wifi_BLE_SDK/GD32VW55x_RELEASE_V1.0.2/MSDK/cloud/alicloud/src/protocol/coap/local\CoAPMessage.c ****     int index = 0, count = 0;
 1370              		.loc 1 447 1
 1371 000c AA89     		mv	s3,a0
 1372 000e AE87     		mv	a5,a1
 450:C:/Users/stapi/OneDrive/Desktop/GD32VW553/V1_MQTT_OK/GD32VW55X_Wifi_BLE_SDK/GD32VW55x_RELEASE_V1.0.2/MSDK/cloud/alicloud/src/protocol/coap/local\CoAPMessage.c **** 
 1373              		.loc 1 450 12
 1374 0010 02CE     		sw	zero,28(sp)
 1375 0012 02D0     		sw	zero,32(sp)
 1376 0014 02D2     		sw	zero,36(sp)
 1377 0016 02D4     		sw	zero,40(sp)
 1378 0018 23060102 		sb	zero,44(sp)
 1379              	.LVL137:
 1380              		.loc 1 452 5 is_stmt 1
 453:C:/Users/stapi/OneDrive/Desktop/GD32VW553/V1_MQTT_OK/GD32VW55X_Wifi_BLE_SDK/GD32VW55x_RELEASE_V1.0.2/MSDK/cloud/alicloud/src/protocol/coap/local\CoAPMessage.c ****     for (index = 0; index < tokenlen; index++) {
 1381              		.loc 1 453 5
 449:C:/Users/stapi/OneDrive/Desktop/GD32VW553/V1_MQTT_OK/GD32VW55X_Wifi_BLE_SDK/GD32VW55x_RELEASE_V1.0.2/MSDK/cloud/alicloud/src/protocol/coap/local\CoAPMessage.c ****     char   buff[2 * COAP_MSG_MAX_TOKEN_LEN + 1] = {0}, *ptr = NULL;
 1382              		.loc 1 449 9 is_stmt 0
 1383 001c 4149     		li	s2,16
 1384              		.loc 1 453 16
 1385 001e 0144     		li	s0,0
 1386 0020 268A     		mv	s4,s1
 454:C:/Users/stapi/OneDrive/Desktop/GD32VW553/V1_MQTT_OK/GD32VW55X_Wifi_BLE_SDK/GD32VW55x_RELEASE_V1.0.2/MSDK/cloud/alicloud/src/protocol/coap/local\CoAPMessage.c ****         count = HAL_Snprintf(ptr, total, "%02X", token[index]);
 1387              		.loc 1 454 17
 1388 0022 B70A0000 		lui	s5,%hi(.LC2)
 1389              	.LVL138:
 1390              	.L138:
 453:C:/Users/stapi/OneDrive/Desktop/GD32VW553/V1_MQTT_OK/GD32VW55X_Wifi_BLE_SDK/GD32VW55x_RELEASE_V1.0.2/MSDK/cloud/alicloud/src/protocol/coap/local\CoAPMessage.c ****     for (index = 0; index < tokenlen; index++) {
 1391              		.loc 1 453 21 is_stmt 1 discriminator 1
 453:C:/Users/stapi/OneDrive/Desktop/GD32VW553/V1_MQTT_OK/GD32VW55X_Wifi_BLE_SDK/GD32VW55x_RELEASE_V1.0.2/MSDK/cloud/alicloud/src/protocol/coap/local\CoAPMessage.c ****     for (index = 0; index < tokenlen; index++) {
 1392              		.loc 1 453 5 is_stmt 0 discriminator 1
 1393 0026 634AF404 		bgt	a5,s0,.L139
 455:C:/Users/stapi/OneDrive/Desktop/GD32VW553/V1_MQTT_OK/GD32VW55X_Wifi_BLE_SDK/GD32VW55x_RELEASE_V1.0.2/MSDK/cloud/alicloud/src/protocol/coap/local\CoAPMessage.c ****         ptr += count;
 456:C:/Users/stapi/OneDrive/Desktop/GD32VW553/V1_MQTT_OK/GD32VW55X_Wifi_BLE_SDK/GD32VW55x_RELEASE_V1.0.2/MSDK/cloud/alicloud/src/protocol/coap/local\CoAPMessage.c ****         total -= count;
 457:C:/Users/stapi/OneDrive/Desktop/GD32VW553/V1_MQTT_OK/GD32VW55X_Wifi_BLE_SDK/GD32VW55x_RELEASE_V1.0.2/MSDK/cloud/alicloud/src/protocol/coap/local\CoAPMessage.c ****     }
 458:C:/Users/stapi/OneDrive/Desktop/GD32VW553/V1_MQTT_OK/GD32VW55X_Wifi_BLE_SDK/GD32VW55x_RELEASE_V1.0.2/MSDK/cloud/alicloud/src/protocol/coap/local\CoAPMessage.c **** 
 459:C:/Users/stapi/OneDrive/Desktop/GD32VW553/V1_MQTT_OK/GD32VW55X_Wifi_BLE_SDK/GD32VW55x_RELEASE_V1.0.2/MSDK/cloud/alicloud/src/protocol/coap/local\CoAPMessage.c ****     COAP_FLOW("Token Len   : %d", tokenlen);
 1394              		.loc 1 459 5 is_stmt 1
 1395 002a 37040000 		lui	s0,%hi(.LC1)
 1396              	.LVL139:
 1397 002e B7040000 		lui	s1,%hi(.LANCHOR1)
 1398              	.LVL140:
 1399 0032 37070000 		lui	a4,%hi(.LC3)
 1400 0036 93850400 		addi	a1,s1,%lo(.LANCHOR1)
 1401 003a 13050400 		addi	a0,s0,%lo(.LC1)
 1402 003e 13070700 		addi	a4,a4,%lo(.LC3)
 1403 0042 9546     		li	a3,5
 1404 0044 1306B01C 		li	a2,459
 1405 0048 97000000 		call	LITE_syslog
 1405      E7800000 
 1406              	.LVL141:
 460:C:/Users/stapi/OneDrive/Desktop/GD32VW553/V1_MQTT_OK/GD32VW55X_Wifi_BLE_SDK/GD32VW55x_RELEASE_V1.0.2/MSDK/cloud/alicloud/src/protocol/coap/local\CoAPMessage.c ****     COAP_FLOW("Token       : %s", buff);
 1407              		.loc 1 460 5
 1408 0050 37070000 		lui	a4,%hi(.LC4)
 1409 0054 D287     		mv	a5,s4
 1410 0056 13070700 		addi	a4,a4,%lo(.LC4)
 1411 005a 9546     		li	a3,5
 1412 005c 1306C01C 		li	a2,460
 1413 0060 93850400 		addi	a1,s1,%lo(.LANCHOR1)
 1414 0064 13050400 		addi	a0,s0,%lo(.LC1)
 1415 0068 97000000 		call	LITE_syslog
 1415      E7800000 
 1416              	.LVL142:
 461:C:/Users/stapi/OneDrive/Desktop/GD32VW553/V1_MQTT_OK/GD32VW55X_Wifi_BLE_SDK/GD32VW55x_RELEASE_V1.0.2/MSDK/cloud/alicloud/src/protocol/coap/local\CoAPMessage.c **** }
 1417              		.loc 1 461 1 is_stmt 0
 1418 0070 4561     		addi	sp,sp,48
 1419              		.cfi_remember_state
 1420              		.cfi_def_cfa_offset 0
 1421 0072 17030000 		tail	__riscv_restore_6
 1421      67000300 
 1422              		.cfi_restore 21
 1423              		.cfi_restore 20
 1424              		.cfi_restore 19
 1425              		.cfi_restore 18
 1426              		.cfi_restore 9
 1427              		.cfi_restore 8
 1428              		.cfi_restore 1
 1429              		.cfi_def_cfa_offset -32
 1430              	.LVL143:
 1431              	.L139:
 1432              		.cfi_restore_state
 454:C:/Users/stapi/OneDrive/Desktop/GD32VW553/V1_MQTT_OK/GD32VW55X_Wifi_BLE_SDK/GD32VW55x_RELEASE_V1.0.2/MSDK/cloud/alicloud/src/protocol/coap/local\CoAPMessage.c ****         ptr += count;
 1433              		.loc 1 454 55 discriminator 3
 1434 007a 33878900 		add	a4,s3,s0
 454:C:/Users/stapi/OneDrive/Desktop/GD32VW553/V1_MQTT_OK/GD32VW55X_Wifi_BLE_SDK/GD32VW55x_RELEASE_V1.0.2/MSDK/cloud/alicloud/src/protocol/coap/local\CoAPMessage.c ****         ptr += count;
 1435              		.loc 1 454 17 discriminator 3
 1436 007e 83460700 		lbu	a3,0(a4)
 1437 0082 CA85     		mv	a1,s2
 1438 0084 2685     		mv	a0,s1
 1439 0086 13860A00 		addi	a2,s5,%lo(.LC2)
 1440 008a 3EC6     		sw	a5,12(sp)
 454:C:/Users/stapi/OneDrive/Desktop/GD32VW553/V1_MQTT_OK/GD32VW55X_Wifi_BLE_SDK/GD32VW55x_RELEASE_V1.0.2/MSDK/cloud/alicloud/src/protocol/coap/local\CoAPMessage.c ****         ptr += count;
 1441              		.loc 1 454 9 is_stmt 1 discriminator 3
 454:C:/Users/stapi/OneDrive/Desktop/GD32VW553/V1_MQTT_OK/GD32VW55X_Wifi_BLE_SDK/GD32VW55x_RELEASE_V1.0.2/MSDK/cloud/alicloud/src/protocol/coap/local\CoAPMessage.c ****         ptr += count;
 1442              		.loc 1 454 17 is_stmt 0 discriminator 3
 1443 008c 97000000 		call	HAL_Snprintf
 1443      E7800000 
 1444              	.LVL144:
 455:C:/Users/stapi/OneDrive/Desktop/GD32VW553/V1_MQTT_OK/GD32VW55X_Wifi_BLE_SDK/GD32VW55x_RELEASE_V1.0.2/MSDK/cloud/alicloud/src/protocol/coap/local\CoAPMessage.c ****         total -= count;
 1445              		.loc 1 455 9 is_stmt 1 discriminator 3
 453:C:/Users/stapi/OneDrive/Desktop/GD32VW553/V1_MQTT_OK/GD32VW55X_Wifi_BLE_SDK/GD32VW55x_RELEASE_V1.0.2/MSDK/cloud/alicloud/src/protocol/coap/local\CoAPMessage.c ****         count = HAL_Snprintf(ptr, total, "%02X", token[index]);
 1446              		.loc 1 453 44 is_stmt 0 discriminator 3
 1447 0094 B247     		lw	a5,12(sp)
 455:C:/Users/stapi/OneDrive/Desktop/GD32VW553/V1_MQTT_OK/GD32VW55X_Wifi_BLE_SDK/GD32VW55x_RELEASE_V1.0.2/MSDK/cloud/alicloud/src/protocol/coap/local\CoAPMessage.c ****         total -= count;
 1448              		.loc 1 455 13 discriminator 3
 1449 0096 AA94     		add	s1,s1,a0
 1450              	.LVL145:
 456:C:/Users/stapi/OneDrive/Desktop/GD32VW553/V1_MQTT_OK/GD32VW55X_Wifi_BLE_SDK/GD32VW55x_RELEASE_V1.0.2/MSDK/cloud/alicloud/src/protocol/coap/local\CoAPMessage.c ****     }
 1451              		.loc 1 456 9 is_stmt 1 discriminator 3
 456:C:/Users/stapi/OneDrive/Desktop/GD32VW553/V1_MQTT_OK/GD32VW55X_Wifi_BLE_SDK/GD32VW55x_RELEASE_V1.0.2/MSDK/cloud/alicloud/src/protocol/coap/local\CoAPMessage.c ****     }
 1452              		.loc 1 456 15 is_stmt 0 discriminator 3
 1453 0098 3309A940 		sub	s2,s2,a0
 1454              	.LVL146:
 453:C:/Users/stapi/OneDrive/Desktop/GD32VW553/V1_MQTT_OK/GD32VW55X_Wifi_BLE_SDK/GD32VW55x_RELEASE_V1.0.2/MSDK/cloud/alicloud/src/protocol/coap/local\CoAPMessage.c ****         count = HAL_Snprintf(ptr, total, "%02X", token[index]);
 1455              		.loc 1 453 39 is_stmt 1 discriminator 3
 453:C:/Users/stapi/OneDrive/Desktop/GD32VW553/V1_MQTT_OK/GD32VW55X_Wifi_BLE_SDK/GD32VW55x_RELEASE_V1.0.2/MSDK/cloud/alicloud/src/protocol/coap/local\CoAPMessage.c ****         count = HAL_Snprintf(ptr, total, "%02X", token[index]);
 1456              		.loc 1 453 44 is_stmt 0 discriminator 3
 1457 009c 0504     		addi	s0,s0,1
 1458              	.LVL147:
 1459 009e 61B7     		j	.L138
 1460              		.cfi_endproc
 1461              	.LFE40:
 1463              		.section	.text.CoAPMessage_dump,"ax",@progbits
 1464              		.align	1
 1465              		.globl	CoAPMessage_dump
 1467              	CoAPMessage_dump:
 1468              	.LFB41:
 462:C:/Users/stapi/OneDrive/Desktop/GD32VW553/V1_MQTT_OK/GD32VW55X_Wifi_BLE_SDK/GD32VW55x_RELEASE_V1.0.2/MSDK/cloud/alicloud/src/protocol/coap/local\CoAPMessage.c **** 
 463:C:/Users/stapi/OneDrive/Desktop/GD32VW553/V1_MQTT_OK/GD32VW55X_Wifi_BLE_SDK/GD32VW55x_RELEASE_V1.0.2/MSDK/cloud/alicloud/src/protocol/coap/local\CoAPMessage.c **** void CoAPMessage_dump(NetworkAddr *remote, CoAPMessage *message)
 464:C:/Users/stapi/OneDrive/Desktop/GD32VW553/V1_MQTT_OK/GD32VW55X_Wifi_BLE_SDK/GD32VW55x_RELEASE_V1.0.2/MSDK/cloud/alicloud/src/protocol/coap/local\CoAPMessage.c **** {
 1469              		.loc 1 464 1 is_stmt 1
 1470              		.cfi_startproc
 1471              	.LVL148:
 465:C:/Users/stapi/OneDrive/Desktop/GD32VW553/V1_MQTT_OK/GD32VW55X_Wifi_BLE_SDK/GD32VW55x_RELEASE_V1.0.2/MSDK/cloud/alicloud/src/protocol/coap/local\CoAPMessage.c ****     int ret = COAP_SUCCESS;
 1472              		.loc 1 465 5
 466:C:/Users/stapi/OneDrive/Desktop/GD32VW553/V1_MQTT_OK/GD32VW55X_Wifi_BLE_SDK/GD32VW55x_RELEASE_V1.0.2/MSDK/cloud/alicloud/src/protocol/coap/local\CoAPMessage.c ****     unsigned int ctype;
 1473              		.loc 1 466 5
 467:C:/Users/stapi/OneDrive/Desktop/GD32VW553/V1_MQTT_OK/GD32VW55X_Wifi_BLE_SDK/GD32VW55x_RELEASE_V1.0.2/MSDK/cloud/alicloud/src/protocol/coap/local\CoAPMessage.c ****     unsigned char code, msgclass, detail;
 1474              		.loc 1 467 5
 468:C:/Users/stapi/OneDrive/Desktop/GD32VW553/V1_MQTT_OK/GD32VW55X_Wifi_BLE_SDK/GD32VW55x_RELEASE_V1.0.2/MSDK/cloud/alicloud/src/protocol/coap/local\CoAPMessage.c **** 
 469:C:/Users/stapi/OneDrive/Desktop/GD32VW553/V1_MQTT_OK/GD32VW55X_Wifi_BLE_SDK/GD32VW55x_RELEASE_V1.0.2/MSDK/cloud/alicloud/src/protocol/coap/local\CoAPMessage.c ****     if (NULL == remote || NULL == message) {
 1475              		.loc 1 469 5
 1476              		.loc 1 469 8 is_stmt 0
 1477 0000 1DC1     		beq	a0,zero,.L150
 1478 0002 2E85     		mv	a0,a1
 1479              	.LVL149:
 1480              		.loc 1 469 24 discriminator 1
 1481 0004 8DC1     		beq	a1,zero,.L150
 464:C:/Users/stapi/OneDrive/Desktop/GD32VW553/V1_MQTT_OK/GD32VW55X_Wifi_BLE_SDK/GD32VW55x_RELEASE_V1.0.2/MSDK/cloud/alicloud/src/protocol/coap/local\CoAPMessage.c ****     int ret = COAP_SUCCESS;
 1482              		.loc 1 464 1
 1483 0006 17030000 		call	t0,__riscv_save_0
 1483      E7020300 
 1484              		.cfi_offset 1, -4
 1485              		.cfi_def_cfa_offset 16
 1486              	.LVL150:
 1487              	.LBB56:
 1488              	.LBB57:
 470:C:/Users/stapi/OneDrive/Desktop/GD32VW553/V1_MQTT_OK/GD32VW55X_Wifi_BLE_SDK/GD32VW55x_RELEASE_V1.0.2/MSDK/cloud/alicloud/src/protocol/coap/local\CoAPMessage.c ****         return;
 471:C:/Users/stapi/OneDrive/Desktop/GD32VW553/V1_MQTT_OK/GD32VW55X_Wifi_BLE_SDK/GD32VW55x_RELEASE_V1.0.2/MSDK/cloud/alicloud/src/protocol/coap/local\CoAPMessage.c ****     }
 472:C:/Users/stapi/OneDrive/Desktop/GD32VW553/V1_MQTT_OK/GD32VW55X_Wifi_BLE_SDK/GD32VW55x_RELEASE_V1.0.2/MSDK/cloud/alicloud/src/protocol/coap/local\CoAPMessage.c ****     code = (unsigned char)message->header.code;
 1489              		.loc 1 472 5 is_stmt 1
 473:C:/Users/stapi/OneDrive/Desktop/GD32VW553/V1_MQTT_OK/GD32VW55X_Wifi_BLE_SDK/GD32VW55x_RELEASE_V1.0.2/MSDK/cloud/alicloud/src/protocol/coap/local\CoAPMessage.c ****     msgclass = code >> 5;
 1490              		.loc 1 473 5
 474:C:/Users/stapi/OneDrive/Desktop/GD32VW553/V1_MQTT_OK/GD32VW55X_Wifi_BLE_SDK/GD32VW55x_RELEASE_V1.0.2/MSDK/cloud/alicloud/src/protocol/coap/local\CoAPMessage.c ****     detail = code & 0x1F;
 1491              		.loc 1 474 5
 475:C:/Users/stapi/OneDrive/Desktop/GD32VW553/V1_MQTT_OK/GD32VW55X_Wifi_BLE_SDK/GD32VW55x_RELEASE_V1.0.2/MSDK/cloud/alicloud/src/protocol/coap/local\CoAPMessage.c **** #ifdef DEBUG_OPEN_COAP_MSG_LOG
 476:C:/Users/stapi/OneDrive/Desktop/GD32VW553/V1_MQTT_OK/GD32VW55X_Wifi_BLE_SDK/GD32VW55x_RELEASE_V1.0.2/MSDK/cloud/alicloud/src/protocol/coap/local\CoAPMessage.c ****     COAP_FLOW("*********Message Info**********");
 477:C:/Users/stapi/OneDrive/Desktop/GD32VW553/V1_MQTT_OK/GD32VW55X_Wifi_BLE_SDK/GD32VW55x_RELEASE_V1.0.2/MSDK/cloud/alicloud/src/protocol/coap/local\CoAPMessage.c ****     COAP_FLOW("Version     : %d", message->header.version);
 478:C:/Users/stapi/OneDrive/Desktop/GD32VW553/V1_MQTT_OK/GD32VW55X_Wifi_BLE_SDK/GD32VW55x_RELEASE_V1.0.2/MSDK/cloud/alicloud/src/protocol/coap/local\CoAPMessage.c ****     COAP_FLOW("Code        : %d.%02d(0x%x)", msgclass, detail, code);
 479:C:/Users/stapi/OneDrive/Desktop/GD32VW553/V1_MQTT_OK/GD32VW55X_Wifi_BLE_SDK/GD32VW55x_RELEASE_V1.0.2/MSDK/cloud/alicloud/src/protocol/coap/local\CoAPMessage.c ****     COAP_FLOW("Type        : 0x%x", message->header.type);
 480:C:/Users/stapi/OneDrive/Desktop/GD32VW553/V1_MQTT_OK/GD32VW55X_Wifi_BLE_SDK/GD32VW55x_RELEASE_V1.0.2/MSDK/cloud/alicloud/src/protocol/coap/local\CoAPMessage.c ****     COAP_FLOW("Msgid       : %d", message->header.msgid);
 481:C:/Users/stapi/OneDrive/Desktop/GD32VW553/V1_MQTT_OK/GD32VW55X_Wifi_BLE_SDK/GD32VW55x_RELEASE_V1.0.2/MSDK/cloud/alicloud/src/protocol/coap/local\CoAPMessage.c ****     COAP_FLOW("Option      : %d", message->optcount);
 482:C:/Users/stapi/OneDrive/Desktop/GD32VW553/V1_MQTT_OK/GD32VW55X_Wifi_BLE_SDK/GD32VW55x_RELEASE_V1.0.2/MSDK/cloud/alicloud/src/protocol/coap/local\CoAPMessage.c ****     COAP_FLOW("Payload Len : %d", message->payloadlen);
 483:C:/Users/stapi/OneDrive/Desktop/GD32VW553/V1_MQTT_OK/GD32VW55X_Wifi_BLE_SDK/GD32VW55x_RELEASE_V1.0.2/MSDK/cloud/alicloud/src/protocol/coap/local\CoAPMessage.c **** #endif
 484:C:/Users/stapi/OneDrive/Desktop/GD32VW553/V1_MQTT_OK/GD32VW55X_Wifi_BLE_SDK/GD32VW55x_RELEASE_V1.0.2/MSDK/cloud/alicloud/src/protocol/coap/local\CoAPMessage.c ****     (void)msgclass;
 1492              		.loc 1 484 5
 485:C:/Users/stapi/OneDrive/Desktop/GD32VW553/V1_MQTT_OK/GD32VW55X_Wifi_BLE_SDK/GD32VW55x_RELEASE_V1.0.2/MSDK/cloud/alicloud/src/protocol/coap/local\CoAPMessage.c ****     (void)detail;
 1493              		.loc 1 485 5
 486:C:/Users/stapi/OneDrive/Desktop/GD32VW553/V1_MQTT_OK/GD32VW55X_Wifi_BLE_SDK/GD32VW55x_RELEASE_V1.0.2/MSDK/cloud/alicloud/src/protocol/coap/local\CoAPMessage.c **** #ifdef DEBUG_OPEN_COAP_MSG_LOG
 487:C:/Users/stapi/OneDrive/Desktop/GD32VW553/V1_MQTT_OK/GD32VW55X_Wifi_BLE_SDK/GD32VW55x_RELEASE_V1.0.2/MSDK/cloud/alicloud/src/protocol/coap/local\CoAPMessage.c ****     CoAPMessageToken_dump(message->token, message->header.tokenlen);
 488:C:/Users/stapi/OneDrive/Desktop/GD32VW553/V1_MQTT_OK/GD32VW55X_Wifi_BLE_SDK/GD32VW55x_RELEASE_V1.0.2/MSDK/cloud/alicloud/src/protocol/coap/local\CoAPMessage.c ****     COAP_FLOW("Remote      : %s:%d", remote->addr, remote->port);
 489:C:/Users/stapi/OneDrive/Desktop/GD32VW553/V1_MQTT_OK/GD32VW55X_Wifi_BLE_SDK/GD32VW55x_RELEASE_V1.0.2/MSDK/cloud/alicloud/src/protocol/coap/local\CoAPMessage.c **** #endif
 490:C:/Users/stapi/OneDrive/Desktop/GD32VW553/V1_MQTT_OK/GD32VW55X_Wifi_BLE_SDK/GD32VW55x_RELEASE_V1.0.2/MSDK/cloud/alicloud/src/protocol/coap/local\CoAPMessage.c ****     ret = CoAPUintOption_get(message, COAP_OPTION_CONTENT_FORMAT, &ctype);
 1494              		.loc 1 490 5
 1495              	.LBE57:
 1496              	.LBE56:
 464:C:/Users/stapi/OneDrive/Desktop/GD32VW553/V1_MQTT_OK/GD32VW55X_Wifi_BLE_SDK/GD32VW55x_RELEASE_V1.0.2/MSDK/cloud/alicloud/src/protocol/coap/local\CoAPMessage.c ****     int ret = COAP_SUCCESS;
 1497              		.loc 1 464 1 is_stmt 0
 1498 000e 4111     		addi	sp,sp,-16
 1499              		.cfi_def_cfa_offset 32
 1500              	.LBB59:
 1501              	.LBB58:
 1502              		.loc 1 490 11
 1503 0010 7000     		addi	a2,sp,12
 1504 0012 B145     		li	a1,12
 1505              	.LVL151:
 1506 0014 97000000 		call	CoAPUintOption_get
 1506      E7800000 
 1507              	.LVL152:
 491:C:/Users/stapi/OneDrive/Desktop/GD32VW553/V1_MQTT_OK/GD32VW55X_Wifi_BLE_SDK/GD32VW55x_RELEASE_V1.0.2/MSDK/cloud/alicloud/src/protocol/coap/local\CoAPMessage.c ****     if (COAP_SUCCESS == ret && NULL != message->payload
 1508              		.loc 1 491 5 is_stmt 1
 492:C:/Users/stapi/OneDrive/Desktop/GD32VW553/V1_MQTT_OK/GD32VW55X_Wifi_BLE_SDK/GD32VW55x_RELEASE_V1.0.2/MSDK/cloud/alicloud/src/protocol/coap/local\CoAPMessage.c ****         && (COAP_CT_APP_OCTET_STREAM != ctype && COAP_CT_APP_CBOR != ctype)) {
 493:C:/Users/stapi/OneDrive/Desktop/GD32VW553/V1_MQTT_OK/GD32VW55X_Wifi_BLE_SDK/GD32VW55x_RELEASE_V1.0.2/MSDK/cloud/alicloud/src/protocol/coap/local\CoAPMessage.c ****         //     COAP_FLOW("Payload     : %s", message->payload);
 494:C:/Users/stapi/OneDrive/Desktop/GD32VW553/V1_MQTT_OK/GD32VW55X_Wifi_BLE_SDK/GD32VW55x_RELEASE_V1.0.2/MSDK/cloud/alicloud/src/protocol/coap/local\CoAPMessage.c ****     }
 1509              		.loc 1 494 5
 1510              	.LBE58:
 1511              	.LBE59:
 495:C:/Users/stapi/OneDrive/Desktop/GD32VW553/V1_MQTT_OK/GD32VW55X_Wifi_BLE_SDK/GD32VW55x_RELEASE_V1.0.2/MSDK/cloud/alicloud/src/protocol/coap/local\CoAPMessage.c **** #ifdef DEBUG_OPEN_COAP_MSG_LOG
 496:C:/Users/stapi/OneDrive/Desktop/GD32VW553/V1_MQTT_OK/GD32VW55X_Wifi_BLE_SDK/GD32VW55x_RELEASE_V1.0.2/MSDK/cloud/alicloud/src/protocol/coap/local\CoAPMessage.c ****     COAP_FLOW("********************************");
 497:C:/Users/stapi/OneDrive/Desktop/GD32VW553/V1_MQTT_OK/GD32VW55X_Wifi_BLE_SDK/GD32VW55x_RELEASE_V1.0.2/MSDK/cloud/alicloud/src/protocol/coap/local\CoAPMessage.c **** #endif
 498:C:/Users/stapi/OneDrive/Desktop/GD32VW553/V1_MQTT_OK/GD32VW55X_Wifi_BLE_SDK/GD32VW55x_RELEASE_V1.0.2/MSDK/cloud/alicloud/src/protocol/coap/local\CoAPMessage.c **** }
 1512              		.loc 1 498 1 is_stmt 0
 1513 001c 4101     		addi	sp,sp,16
 1514              		.cfi_def_cfa_offset 0
 1515 001e 17030000 		tail	__riscv_restore_0
 1515      67000300 
 1516              		.cfi_restore 1
 1517              		.cfi_def_cfa_offset -16
 1518              	.LVL153:
 1519              	.L150:
 1520              		.cfi_def_cfa_offset 0
 1521 0026 8280     		ret
 1522              		.cfi_endproc
 1523              	.LFE41:
 1525              		.section	.rodata.CoAPMessage_send.str1.4,"aMS",@progbits,1
 1526              		.align	2
 1527              	.LC5:
 1528 0000 5B696E66 		.string	"[inf] "
 1528      5D2000
 1529 0007 00       		.align	2
 1530              	.LC6:
 1531 0008 54686520 		.string	"The message length %d is too long"
 1531      6D657373 
 1531      61676520 
 1531      6C656E67 
 1531      74682025 
 1532 002a 0000     		.align	2
 1533              	.LC7:
 1534 002c 0D0A00   		.string	"\r\n"
 1535 002f 00       		.align	2
 1536              	.LC8:
 1537 0030 4D616C6C 		.string	"Malloc memory failed"
 1537      6F63206D 
 1537      656D6F72 
 1537      79206661 
 1537      696C6564 
 1538 0045 000000   		.align	2
 1539              	.LC9:
 1540 0048 54686520 		.string	"The message id %d len %d send success, add to the list"
 1540      6D657373 
 1540      61676520 
 1540      69642025 
 1540      64206C65 
 1541 007f 00       		.align	2
 1542              	.LC10:
 1543 0080 54686520 		.string	"The message %d don't add to list"
 1543      6D657373 
 1543      61676520 
 1543      25642064 
 1543      6F6E2774 
 1544 00a1 000000   		.align	2
 1545              	.LC11:
 1546 00a4 6D657373 		.string	"message already present!"
 1546      61676520 
 1546      616C7265 
 1546      61647920 
 1546      70726573 
 1547 00bd 000000   		.align	2
 1548              	.LC12:
 1549 00c0 54686520 		.string	"The message %d need keep"
 1549      6D657373 
 1549      61676520 
 1549      2564206E 
 1549      65656420 
 1550 00d9 000000   		.align	2
 1551              	.LC13:
 1552 00dc 54686520 		.string	"The send list is full"
 1552      73656E64 
 1552      206C6973 
 1552      74206973 
 1552      2066756C 
 1553 00f2 0000     		.align	2
 1554              	.LC14:
 1555 00f4 5B657272 		.string	"[err] "
 1555      5D2000
 1556 00fb 00       		.align	2
 1557              	.LC15:
 1558 00fc 41646420 		.string	"Add the message %d to list failed"
 1558      74686520 
 1558      6D657373 
 1558      61676520 
 1558      25642074 
 1559 011e 0000     		.align	2
 1560              	.LC16:
 1561 0120 54686520 		.string	"The message %d isn't CON msg, needless to be retransmitted"
 1561      6D657373 
 1561      61676520 
 1561      25642069 
 1561      736E2774 
 1562 015b 00       		.align	2
 1563              	.LC17:
 1564 015c 436F4150 		.string	"CoAP transport write failed, send message %d return %d"
 1564      20747261 
 1564      6E73706F 
 1564      72742077 
 1564      72697465 
 1565              		.section	.text.CoAPMessage_send,"ax",@progbits
 1566              		.align	1
 1567              		.globl	CoAPMessage_send
 1569              	CoAPMessage_send:
 1570              	.LFB42:
 499:C:/Users/stapi/OneDrive/Desktop/GD32VW553/V1_MQTT_OK/GD32VW55X_Wifi_BLE_SDK/GD32VW55x_RELEASE_V1.0.2/MSDK/cloud/alicloud/src/protocol/coap/local\CoAPMessage.c **** 
 500:C:/Users/stapi/OneDrive/Desktop/GD32VW553/V1_MQTT_OK/GD32VW55X_Wifi_BLE_SDK/GD32VW55x_RELEASE_V1.0.2/MSDK/cloud/alicloud/src/protocol/coap/local\CoAPMessage.c **** int CoAPMessage_send(CoAPContext *context, NetworkAddr *remote, CoAPMessage *message)
 501:C:/Users/stapi/OneDrive/Desktop/GD32VW553/V1_MQTT_OK/GD32VW55X_Wifi_BLE_SDK/GD32VW55x_RELEASE_V1.0.2/MSDK/cloud/alicloud/src/protocol/coap/local\CoAPMessage.c **** {
 1571              		.loc 1 501 1 is_stmt 1
 1572              		.cfi_startproc
 1573              	.LVL154:
 1574 0000 17030000 		call	t0,__riscv_save_10
 1574      E7020300 
 1575              		.cfi_offset 25, -44
 1576              		.cfi_offset 24, -40
 1577              		.cfi_offset 23, -36
 1578              		.cfi_offset 22, -32
 1579              		.cfi_offset 21, -28
 1580              		.cfi_offset 20, -24
 1581              		.cfi_offset 19, -20
 1582              		.cfi_offset 18, -16
 1583              		.cfi_offset 9, -12
 1584              		.cfi_offset 8, -8
 1585              		.cfi_offset 1, -4
 1586              		.cfi_def_cfa_offset 48
 502:C:/Users/stapi/OneDrive/Desktop/GD32VW553/V1_MQTT_OK/GD32VW55X_Wifi_BLE_SDK/GD32VW55x_RELEASE_V1.0.2/MSDK/cloud/alicloud/src/protocol/coap/local\CoAPMessage.c ****     int   ret              = COAP_SUCCESS;
 1587              		.loc 1 502 5
 1588              	.LVL155:
 503:C:/Users/stapi/OneDrive/Desktop/GD32VW553/V1_MQTT_OK/GD32VW55X_Wifi_BLE_SDK/GD32VW55x_RELEASE_V1.0.2/MSDK/cloud/alicloud/src/protocol/coap/local\CoAPMessage.c ****     unsigned short msglen  = 0;
 1589              		.loc 1 503 5
 504:C:/Users/stapi/OneDrive/Desktop/GD32VW553/V1_MQTT_OK/GD32VW55X_Wifi_BLE_SDK/GD32VW55x_RELEASE_V1.0.2/MSDK/cloud/alicloud/src/protocol/coap/local\CoAPMessage.c ****     unsigned char  *buff   = NULL;
 1590              		.loc 1 504 5
 505:C:/Users/stapi/OneDrive/Desktop/GD32VW553/V1_MQTT_OK/GD32VW55X_Wifi_BLE_SDK/GD32VW55x_RELEASE_V1.0.2/MSDK/cloud/alicloud/src/protocol/coap/local\CoAPMessage.c ****     unsigned short readlen = 0;
 1591              		.loc 1 505 5
 506:C:/Users/stapi/OneDrive/Desktop/GD32VW553/V1_MQTT_OK/GD32VW55X_Wifi_BLE_SDK/GD32VW55x_RELEASE_V1.0.2/MSDK/cloud/alicloud/src/protocol/coap/local\CoAPMessage.c ****     CoAPIntContext *ctx    = NULL;
 1592              		.loc 1 506 5
 507:C:/Users/stapi/OneDrive/Desktop/GD32VW553/V1_MQTT_OK/GD32VW55X_Wifi_BLE_SDK/GD32VW55x_RELEASE_V1.0.2/MSDK/cloud/alicloud/src/protocol/coap/local\CoAPMessage.c **** 
 508:C:/Users/stapi/OneDrive/Desktop/GD32VW553/V1_MQTT_OK/GD32VW55X_Wifi_BLE_SDK/GD32VW55x_RELEASE_V1.0.2/MSDK/cloud/alicloud/src/protocol/coap/local\CoAPMessage.c ****     if (NULL == message || NULL == context) {
 1593              		.loc 1 508 5
 501:C:/Users/stapi/OneDrive/Desktop/GD32VW553/V1_MQTT_OK/GD32VW55X_Wifi_BLE_SDK/GD32VW55x_RELEASE_V1.0.2/MSDK/cloud/alicloud/src/protocol/coap/local\CoAPMessage.c ****     int   ret              = COAP_SUCCESS;
 1594              		.loc 1 501 1 is_stmt 0
 1595 0008 4111     		addi	sp,sp,-16
 1596              		.cfi_def_cfa_offset 64
 509:C:/Users/stapi/OneDrive/Desktop/GD32VW553/V1_MQTT_OK/GD32VW55X_Wifi_BLE_SDK/GD32VW55x_RELEASE_V1.0.2/MSDK/cloud/alicloud/src/protocol/coap/local\CoAPMessage.c ****         return (COAP_ERROR_INVALID_PARAM);
 1597              		.loc 1 509 16
 1598 000a 93041010 		li	s1,257
 508:C:/Users/stapi/OneDrive/Desktop/GD32VW553/V1_MQTT_OK/GD32VW55X_Wifi_BLE_SDK/GD32VW55x_RELEASE_V1.0.2/MSDK/cloud/alicloud/src/protocol/coap/local\CoAPMessage.c ****         return (COAP_ERROR_INVALID_PARAM);
 1599              		.loc 1 508 8
 1600 000e 2DC2     		beq	a2,zero,.L153
 1601 0010 2A89     		mv	s2,a0
 1602              		.loc 1 509 16 discriminator 1
 1603 0012 93041010 		li	s1,257
 508:C:/Users/stapi/OneDrive/Desktop/GD32VW553/V1_MQTT_OK/GD32VW55X_Wifi_BLE_SDK/GD32VW55x_RELEASE_V1.0.2/MSDK/cloud/alicloud/src/protocol/coap/local\CoAPMessage.c ****         return (COAP_ERROR_INVALID_PARAM);
 1604              		.loc 1 508 25 discriminator 1
 1605 0016 29CD     		beq	a0,zero,.L153
 510:C:/Users/stapi/OneDrive/Desktop/GD32VW553/V1_MQTT_OK/GD32VW55X_Wifi_BLE_SDK/GD32VW55x_RELEASE_V1.0.2/MSDK/cloud/alicloud/src/protocol/coap/local\CoAPMessage.c ****     }
 511:C:/Users/stapi/OneDrive/Desktop/GD32VW553/V1_MQTT_OK/GD32VW55X_Wifi_BLE_SDK/GD32VW55x_RELEASE_V1.0.2/MSDK/cloud/alicloud/src/protocol/coap/local\CoAPMessage.c **** 
 512:C:/Users/stapi/OneDrive/Desktop/GD32VW553/V1_MQTT_OK/GD32VW55X_Wifi_BLE_SDK/GD32VW55x_RELEASE_V1.0.2/MSDK/cloud/alicloud/src/protocol/coap/local\CoAPMessage.c ****     ctx = (CoAPIntContext *)context;
 513:C:/Users/stapi/OneDrive/Desktop/GD32VW553/V1_MQTT_OK/GD32VW55X_Wifi_BLE_SDK/GD32VW55x_RELEASE_V1.0.2/MSDK/cloud/alicloud/src/protocol/coap/local\CoAPMessage.c ****     /* sort coap options */
 514:C:/Users/stapi/OneDrive/Desktop/GD32VW553/V1_MQTT_OK/GD32VW55X_Wifi_BLE_SDK/GD32VW55x_RELEASE_V1.0.2/MSDK/cloud/alicloud/src/protocol/coap/local\CoAPMessage.c ****     CoAPOption_sort(message);
 1606              		.loc 1 514 5
 1607 0018 3285     		mv	a0,a2
 1608              	.LVL156:
 1609 001a 3284     		mv	s0,a2
 512:C:/Users/stapi/OneDrive/Desktop/GD32VW553/V1_MQTT_OK/GD32VW55X_Wifi_BLE_SDK/GD32VW55x_RELEASE_V1.0.2/MSDK/cloud/alicloud/src/protocol/coap/local\CoAPMessage.c ****     /* sort coap options */
 1610              		.loc 1 512 5 is_stmt 1
 1611              	.LVL157:
 1612              		.loc 1 514 5
 1613 001c AE8A     		mv	s5,a1
 1614 001e 97000000 		call	CoAPOption_sort
 1614      E7800000 
 1615              	.LVL158:
 515:C:/Users/stapi/OneDrive/Desktop/GD32VW553/V1_MQTT_OK/GD32VW55X_Wifi_BLE_SDK/GD32VW55x_RELEASE_V1.0.2/MSDK/cloud/alicloud/src/protocol/coap/local\CoAPMessage.c **** 
 516:C:/Users/stapi/OneDrive/Desktop/GD32VW553/V1_MQTT_OK/GD32VW55X_Wifi_BLE_SDK/GD32VW55x_RELEASE_V1.0.2/MSDK/cloud/alicloud/src/protocol/coap/local\CoAPMessage.c ****     msglen = CoAPSerialize_MessageLength(message);
 1616              		.loc 1 516 5
 1617              		.loc 1 516 14 is_stmt 0
 1618 0026 2285     		mv	a0,s0
 1619 0028 97000000 		call	CoAPSerialize_MessageLength
 1619      E7800000 
 1620              	.LVL159:
 517:C:/Users/stapi/OneDrive/Desktop/GD32VW553/V1_MQTT_OK/GD32VW55X_Wifi_BLE_SDK/GD32VW55x_RELEASE_V1.0.2/MSDK/cloud/alicloud/src/protocol/coap/local\CoAPMessage.c ****     if (COAP_MSG_MAX_PDU_LEN < msglen) {
 1621              		.loc 1 517 8
 1622 0030 93070050 		li	a5,1280
 516:C:/Users/stapi/OneDrive/Desktop/GD32VW553/V1_MQTT_OK/GD32VW55X_Wifi_BLE_SDK/GD32VW55x_RELEASE_V1.0.2/MSDK/cloud/alicloud/src/protocol/coap/local\CoAPMessage.c ****     if (COAP_MSG_MAX_PDU_LEN < msglen) {
 1623              		.loc 1 516 14
 1624 0034 AA84     		mv	s1,a0
 1625              	.LVL160:
 1626              		.loc 1 517 5 is_stmt 1
 1627              		.loc 1 517 8 is_stmt 0
 1628 0036 63F3A704 		bleu	a0,a5,.L155
 518:C:/Users/stapi/OneDrive/Desktop/GD32VW553/V1_MQTT_OK/GD32VW55X_Wifi_BLE_SDK/GD32VW55x_RELEASE_V1.0.2/MSDK/cloud/alicloud/src/protocol/coap/local\CoAPMessage.c ****         COAP_INFO("The message length %d is too long", msglen);
 1629              		.loc 1 518 9 is_stmt 1
 1630              		.loc 1 518 9
 1631 003a 37050000 		lui	a0,%hi(.LC5)
 1632              	.LVL161:
 1633 003e 13050500 		addi	a0,a0,%lo(.LC5)
 1634 0042 97000000 		call	HAL_Printf
 1634      E7800000 
 1635              	.LVL162:
 1636              		.loc 1 518 9
 1637 004a 37050000 		lui	a0,%hi(.LC6)
 1638 004e A685     		mv	a1,s1
 1639 0050 13050500 		addi	a0,a0,%lo(.LC6)
 1640 0054 97000000 		call	HAL_Printf
 1640      E7800000 
 1641              	.LVL163:
 1642              		.loc 1 518 9
 1643 005c 37050000 		lui	a0,%hi(.LC7)
 1644 0060 13050500 		addi	a0,a0,%lo(.LC7)
 1645 0064 97000000 		call	HAL_Printf
 1645      E7800000 
 1646              	.LVL164:
 1647              		.loc 1 518 9
 519:C:/Users/stapi/OneDrive/Desktop/GD32VW553/V1_MQTT_OK/GD32VW55X_Wifi_BLE_SDK/GD32VW55x_RELEASE_V1.0.2/MSDK/cloud/alicloud/src/protocol/coap/local\CoAPMessage.c ****         return COAP_ERROR_DATA_SIZE;
 1648              		.loc 1 519 9
 1649              		.loc 1 519 16 is_stmt 0
 1650 006c 93045010 		li	s1,261
 1651              	.LVL165:
 1652              	.L153:
 520:C:/Users/stapi/OneDrive/Desktop/GD32VW553/V1_MQTT_OK/GD32VW55X_Wifi_BLE_SDK/GD32VW55x_RELEASE_V1.0.2/MSDK/cloud/alicloud/src/protocol/coap/local\CoAPMessage.c ****     }
 521:C:/Users/stapi/OneDrive/Desktop/GD32VW553/V1_MQTT_OK/GD32VW55X_Wifi_BLE_SDK/GD32VW55x_RELEASE_V1.0.2/MSDK/cloud/alicloud/src/protocol/coap/local\CoAPMessage.c **** 
 522:C:/Users/stapi/OneDrive/Desktop/GD32VW553/V1_MQTT_OK/GD32VW55X_Wifi_BLE_SDK/GD32VW55x_RELEASE_V1.0.2/MSDK/cloud/alicloud/src/protocol/coap/local\CoAPMessage.c ****     buff = (unsigned char *)coap_malloc(msglen);
 523:C:/Users/stapi/OneDrive/Desktop/GD32VW553/V1_MQTT_OK/GD32VW55X_Wifi_BLE_SDK/GD32VW55x_RELEASE_V1.0.2/MSDK/cloud/alicloud/src/protocol/coap/local\CoAPMessage.c ****     if (NULL == buff) {
 524:C:/Users/stapi/OneDrive/Desktop/GD32VW553/V1_MQTT_OK/GD32VW55X_Wifi_BLE_SDK/GD32VW55x_RELEASE_V1.0.2/MSDK/cloud/alicloud/src/protocol/coap/local\CoAPMessage.c ****         COAP_INFO("Malloc memory failed");
 525:C:/Users/stapi/OneDrive/Desktop/GD32VW553/V1_MQTT_OK/GD32VW55X_Wifi_BLE_SDK/GD32VW55x_RELEASE_V1.0.2/MSDK/cloud/alicloud/src/protocol/coap/local\CoAPMessage.c ****         return COAP_ERROR_NULL;
 526:C:/Users/stapi/OneDrive/Desktop/GD32VW553/V1_MQTT_OK/GD32VW55X_Wifi_BLE_SDK/GD32VW55x_RELEASE_V1.0.2/MSDK/cloud/alicloud/src/protocol/coap/local\CoAPMessage.c ****     }
 527:C:/Users/stapi/OneDrive/Desktop/GD32VW553/V1_MQTT_OK/GD32VW55X_Wifi_BLE_SDK/GD32VW55x_RELEASE_V1.0.2/MSDK/cloud/alicloud/src/protocol/coap/local\CoAPMessage.c ****     memset(buff, 0x00, msglen);
 528:C:/Users/stapi/OneDrive/Desktop/GD32VW553/V1_MQTT_OK/GD32VW55X_Wifi_BLE_SDK/GD32VW55x_RELEASE_V1.0.2/MSDK/cloud/alicloud/src/protocol/coap/local\CoAPMessage.c ****     msglen = CoAPSerialize_Message(message, buff, msglen);
 529:C:/Users/stapi/OneDrive/Desktop/GD32VW553/V1_MQTT_OK/GD32VW55X_Wifi_BLE_SDK/GD32VW55x_RELEASE_V1.0.2/MSDK/cloud/alicloud/src/protocol/coap/local\CoAPMessage.c **** 
 530:C:/Users/stapi/OneDrive/Desktop/GD32VW553/V1_MQTT_OK/GD32VW55X_Wifi_BLE_SDK/GD32VW55x_RELEASE_V1.0.2/MSDK/cloud/alicloud/src/protocol/coap/local\CoAPMessage.c **** #ifndef COAP_OBSERVE_CLIENT_DISABLE
 531:C:/Users/stapi/OneDrive/Desktop/GD32VW553/V1_MQTT_OK/GD32VW55X_Wifi_BLE_SDK/GD32VW55x_RELEASE_V1.0.2/MSDK/cloud/alicloud/src/protocol/coap/local\CoAPMessage.c ****     CoAPObsClient_delete(ctx, message);
 532:C:/Users/stapi/OneDrive/Desktop/GD32VW553/V1_MQTT_OK/GD32VW55X_Wifi_BLE_SDK/GD32VW55x_RELEASE_V1.0.2/MSDK/cloud/alicloud/src/protocol/coap/local\CoAPMessage.c **** #endif
 533:C:/Users/stapi/OneDrive/Desktop/GD32VW553/V1_MQTT_OK/GD32VW55X_Wifi_BLE_SDK/GD32VW55x_RELEASE_V1.0.2/MSDK/cloud/alicloud/src/protocol/coap/local\CoAPMessage.c ****     readlen = CoAPNetwork_write(ctx->p_network, remote,
 534:C:/Users/stapi/OneDrive/Desktop/GD32VW553/V1_MQTT_OK/GD32VW55X_Wifi_BLE_SDK/GD32VW55x_RELEASE_V1.0.2/MSDK/cloud/alicloud/src/protocol/coap/local\CoAPMessage.c ****                                 buff, (unsigned int)msglen, ctx->waittime);
 535:C:/Users/stapi/OneDrive/Desktop/GD32VW553/V1_MQTT_OK/GD32VW55X_Wifi_BLE_SDK/GD32VW55x_RELEASE_V1.0.2/MSDK/cloud/alicloud/src/protocol/coap/local\CoAPMessage.c ****     if (msglen == readlen) {/*Send message success*/
 536:C:/Users/stapi/OneDrive/Desktop/GD32VW553/V1_MQTT_OK/GD32VW55X_Wifi_BLE_SDK/GD32VW55x_RELEASE_V1.0.2/MSDK/cloud/alicloud/src/protocol/coap/local\CoAPMessage.c ****         if (CoAPReqMsg(message->header) || CoAPCONRespMsg(message->header)) {
 537:C:/Users/stapi/OneDrive/Desktop/GD32VW553/V1_MQTT_OK/GD32VW55X_Wifi_BLE_SDK/GD32VW55x_RELEASE_V1.0.2/MSDK/cloud/alicloud/src/protocol/coap/local\CoAPMessage.c ****             COAP_FLOW("The message id %d len %d send success, add to the list",
 538:C:/Users/stapi/OneDrive/Desktop/GD32VW553/V1_MQTT_OK/GD32VW55X_Wifi_BLE_SDK/GD32VW55x_RELEASE_V1.0.2/MSDK/cloud/alicloud/src/protocol/coap/local\CoAPMessage.c ****                       message->header.msgid, msglen);
 539:C:/Users/stapi/OneDrive/Desktop/GD32VW553/V1_MQTT_OK/GD32VW55X_Wifi_BLE_SDK/GD32VW55x_RELEASE_V1.0.2/MSDK/cloud/alicloud/src/protocol/coap/local\CoAPMessage.c ****             ret = CoAPMessageList_add(ctx, remote, message, buff, msglen);
 540:C:/Users/stapi/OneDrive/Desktop/GD32VW553/V1_MQTT_OK/GD32VW55X_Wifi_BLE_SDK/GD32VW55x_RELEASE_V1.0.2/MSDK/cloud/alicloud/src/protocol/coap/local\CoAPMessage.c ****             if (COAP_SUCCESS != ret) {
 541:C:/Users/stapi/OneDrive/Desktop/GD32VW553/V1_MQTT_OK/GD32VW55X_Wifi_BLE_SDK/GD32VW55x_RELEASE_V1.0.2/MSDK/cloud/alicloud/src/protocol/coap/local\CoAPMessage.c ****                 coap_free(buff);
 542:C:/Users/stapi/OneDrive/Desktop/GD32VW553/V1_MQTT_OK/GD32VW55X_Wifi_BLE_SDK/GD32VW55x_RELEASE_V1.0.2/MSDK/cloud/alicloud/src/protocol/coap/local\CoAPMessage.c ****                 COAP_ERR("Add the message %d to list failed", message->header.msgid);
 543:C:/Users/stapi/OneDrive/Desktop/GD32VW553/V1_MQTT_OK/GD32VW55X_Wifi_BLE_SDK/GD32VW55x_RELEASE_V1.0.2/MSDK/cloud/alicloud/src/protocol/coap/local\CoAPMessage.c ****                 return ret;
 544:C:/Users/stapi/OneDrive/Desktop/GD32VW553/V1_MQTT_OK/GD32VW55X_Wifi_BLE_SDK/GD32VW55x_RELEASE_V1.0.2/MSDK/cloud/alicloud/src/protocol/coap/local\CoAPMessage.c ****             }
 545:C:/Users/stapi/OneDrive/Desktop/GD32VW553/V1_MQTT_OK/GD32VW55X_Wifi_BLE_SDK/GD32VW55x_RELEASE_V1.0.2/MSDK/cloud/alicloud/src/protocol/coap/local\CoAPMessage.c ****         } else {
 546:C:/Users/stapi/OneDrive/Desktop/GD32VW553/V1_MQTT_OK/GD32VW55X_Wifi_BLE_SDK/GD32VW55x_RELEASE_V1.0.2/MSDK/cloud/alicloud/src/protocol/coap/local\CoAPMessage.c ****             coap_free(buff);
 547:C:/Users/stapi/OneDrive/Desktop/GD32VW553/V1_MQTT_OK/GD32VW55X_Wifi_BLE_SDK/GD32VW55x_RELEASE_V1.0.2/MSDK/cloud/alicloud/src/protocol/coap/local\CoAPMessage.c ****             COAP_FLOW("The message %d isn't CON msg, needless to be retransmitted",
 548:C:/Users/stapi/OneDrive/Desktop/GD32VW553/V1_MQTT_OK/GD32VW55X_Wifi_BLE_SDK/GD32VW55x_RELEASE_V1.0.2/MSDK/cloud/alicloud/src/protocol/coap/local\CoAPMessage.c ****                       message->header.msgid);
 549:C:/Users/stapi/OneDrive/Desktop/GD32VW553/V1_MQTT_OK/GD32VW55X_Wifi_BLE_SDK/GD32VW55x_RELEASE_V1.0.2/MSDK/cloud/alicloud/src/protocol/coap/local\CoAPMessage.c ****         }
 550:C:/Users/stapi/OneDrive/Desktop/GD32VW553/V1_MQTT_OK/GD32VW55X_Wifi_BLE_SDK/GD32VW55x_RELEASE_V1.0.2/MSDK/cloud/alicloud/src/protocol/coap/local\CoAPMessage.c ****     } else {
 551:C:/Users/stapi/OneDrive/Desktop/GD32VW553/V1_MQTT_OK/GD32VW55X_Wifi_BLE_SDK/GD32VW55x_RELEASE_V1.0.2/MSDK/cloud/alicloud/src/protocol/coap/local\CoAPMessage.c ****         coap_free(buff);
 552:C:/Users/stapi/OneDrive/Desktop/GD32VW553/V1_MQTT_OK/GD32VW55X_Wifi_BLE_SDK/GD32VW55x_RELEASE_V1.0.2/MSDK/cloud/alicloud/src/protocol/coap/local\CoAPMessage.c ****         COAP_ERR("CoAP transport write failed, send message %d return %d", message->header.msgid, r
 553:C:/Users/stapi/OneDrive/Desktop/GD32VW553/V1_MQTT_OK/GD32VW55X_Wifi_BLE_SDK/GD32VW55x_RELEASE_V1.0.2/MSDK/cloud/alicloud/src/protocol/coap/local\CoAPMessage.c ****         return COAP_ERROR_WRITE_FAILED;
 554:C:/Users/stapi/OneDrive/Desktop/GD32VW553/V1_MQTT_OK/GD32VW55X_Wifi_BLE_SDK/GD32VW55x_RELEASE_V1.0.2/MSDK/cloud/alicloud/src/protocol/coap/local\CoAPMessage.c ****     }
 555:C:/Users/stapi/OneDrive/Desktop/GD32VW553/V1_MQTT_OK/GD32VW55X_Wifi_BLE_SDK/GD32VW55x_RELEASE_V1.0.2/MSDK/cloud/alicloud/src/protocol/coap/local\CoAPMessage.c **** 
 556:C:/Users/stapi/OneDrive/Desktop/GD32VW553/V1_MQTT_OK/GD32VW55X_Wifi_BLE_SDK/GD32VW55x_RELEASE_V1.0.2/MSDK/cloud/alicloud/src/protocol/coap/local\CoAPMessage.c ****     CoAPMessage_dump(remote, message);
 557:C:/Users/stapi/OneDrive/Desktop/GD32VW553/V1_MQTT_OK/GD32VW55X_Wifi_BLE_SDK/GD32VW55x_RELEASE_V1.0.2/MSDK/cloud/alicloud/src/protocol/coap/local\CoAPMessage.c ****     return COAP_SUCCESS;
 558:C:/Users/stapi/OneDrive/Desktop/GD32VW553/V1_MQTT_OK/GD32VW55X_Wifi_BLE_SDK/GD32VW55x_RELEASE_V1.0.2/MSDK/cloud/alicloud/src/protocol/coap/local\CoAPMessage.c **** }
 1653              		.loc 1 558 1
 1654 0070 2685     		mv	a0,s1
 1655 0072 4101     		addi	sp,sp,16
 1656              		.cfi_remember_state
 1657              		.cfi_def_cfa_offset 0
 1658 0074 17030000 		tail	__riscv_restore_10
 1658      67000300 
 1659              		.cfi_restore 25
 1660              		.cfi_restore 24
 1661              		.cfi_restore 23
 1662              		.cfi_restore 22
 1663              		.cfi_restore 21
 1664              		.cfi_restore 20
 1665              		.cfi_restore 19
 1666              		.cfi_restore 18
 1667              		.cfi_restore 9
 1668              		.cfi_restore 8
 1669              		.cfi_restore 1
 1670              		.cfi_def_cfa_offset -48
 1671              	.LVL166:
 1672              	.L155:
 1673              		.cfi_restore_state
 522:C:/Users/stapi/OneDrive/Desktop/GD32VW553/V1_MQTT_OK/GD32VW55X_Wifi_BLE_SDK/GD32VW55x_RELEASE_V1.0.2/MSDK/cloud/alicloud/src/protocol/coap/local\CoAPMessage.c ****     if (NULL == buff) {
 1674              		.loc 1 522 5 is_stmt 1
 522:C:/Users/stapi/OneDrive/Desktop/GD32VW553/V1_MQTT_OK/GD32VW55X_Wifi_BLE_SDK/GD32VW55x_RELEASE_V1.0.2/MSDK/cloud/alicloud/src/protocol/coap/local\CoAPMessage.c ****     if (NULL == buff) {
 1675              		.loc 1 522 29 is_stmt 0
 1676 007c 2A86     		mv	a2,a0
 1677 007e 8145     		li	a1,0
 1678 0080 0145     		li	a0,0
 1679              	.LVL167:
 1680 0082 97000000 		call	LITE_malloc_internal
 1680      E7800000 
 1681              	.LVL168:
 1682 008a AA89     		mv	s3,a0
 1683              	.LVL169:
 523:C:/Users/stapi/OneDrive/Desktop/GD32VW553/V1_MQTT_OK/GD32VW55X_Wifi_BLE_SDK/GD32VW55x_RELEASE_V1.0.2/MSDK/cloud/alicloud/src/protocol/coap/local\CoAPMessage.c ****         COAP_INFO("Malloc memory failed");
 1684              		.loc 1 523 5 is_stmt 1
 523:C:/Users/stapi/OneDrive/Desktop/GD32VW553/V1_MQTT_OK/GD32VW55X_Wifi_BLE_SDK/GD32VW55x_RELEASE_V1.0.2/MSDK/cloud/alicloud/src/protocol/coap/local\CoAPMessage.c ****         COAP_INFO("Malloc memory failed");
 1685              		.loc 1 523 8 is_stmt 0
 1686 008c 05ED     		bne	a0,zero,.L156
 524:C:/Users/stapi/OneDrive/Desktop/GD32VW553/V1_MQTT_OK/GD32VW55X_Wifi_BLE_SDK/GD32VW55x_RELEASE_V1.0.2/MSDK/cloud/alicloud/src/protocol/coap/local\CoAPMessage.c ****         return COAP_ERROR_NULL;
 1687              		.loc 1 524 9 is_stmt 1
 524:C:/Users/stapi/OneDrive/Desktop/GD32VW553/V1_MQTT_OK/GD32VW55X_Wifi_BLE_SDK/GD32VW55x_RELEASE_V1.0.2/MSDK/cloud/alicloud/src/protocol/coap/local\CoAPMessage.c ****         return COAP_ERROR_NULL;
 1688              		.loc 1 524 9
 1689 008e 37050000 		lui	a0,%hi(.LC5)
 1690              	.LVL170:
 1691 0092 13050500 		addi	a0,a0,%lo(.LC5)
 1692 0096 97000000 		call	HAL_Printf
 1692      E7800000 
 1693              	.LVL171:
 524:C:/Users/stapi/OneDrive/Desktop/GD32VW553/V1_MQTT_OK/GD32VW55X_Wifi_BLE_SDK/GD32VW55x_RELEASE_V1.0.2/MSDK/cloud/alicloud/src/protocol/coap/local\CoAPMessage.c ****         return COAP_ERROR_NULL;
 1694              		.loc 1 524 9
 1695 009e 37050000 		lui	a0,%hi(.LC8)
 1696 00a2 13050500 		addi	a0,a0,%lo(.LC8)
 1697 00a6 97000000 		call	HAL_Printf
 1697      E7800000 
 1698              	.LVL172:
 524:C:/Users/stapi/OneDrive/Desktop/GD32VW553/V1_MQTT_OK/GD32VW55X_Wifi_BLE_SDK/GD32VW55x_RELEASE_V1.0.2/MSDK/cloud/alicloud/src/protocol/coap/local\CoAPMessage.c ****         return COAP_ERROR_NULL;
 1699              		.loc 1 524 9
 1700 00ae 37050000 		lui	a0,%hi(.LC7)
 1701 00b2 13050500 		addi	a0,a0,%lo(.LC7)
 1702 00b6 97000000 		call	HAL_Printf
 1702      E7800000 
 1703              	.LVL173:
 524:C:/Users/stapi/OneDrive/Desktop/GD32VW553/V1_MQTT_OK/GD32VW55X_Wifi_BLE_SDK/GD32VW55x_RELEASE_V1.0.2/MSDK/cloud/alicloud/src/protocol/coap/local\CoAPMessage.c ****         return COAP_ERROR_NULL;
 1704              		.loc 1 524 9
 525:C:/Users/stapi/OneDrive/Desktop/GD32VW553/V1_MQTT_OK/GD32VW55X_Wifi_BLE_SDK/GD32VW55x_RELEASE_V1.0.2/MSDK/cloud/alicloud/src/protocol/coap/local\CoAPMessage.c ****     }
 1705              		.loc 1 525 9
 525:C:/Users/stapi/OneDrive/Desktop/GD32VW553/V1_MQTT_OK/GD32VW55X_Wifi_BLE_SDK/GD32VW55x_RELEASE_V1.0.2/MSDK/cloud/alicloud/src/protocol/coap/local\CoAPMessage.c ****     }
 1706              		.loc 1 525 16 is_stmt 0
 1707 00be 93042010 		li	s1,258
 1708 00c2 7DB7     		j	.L153
 1709              	.LVL174:
 1710              	.L156:
 527:C:/Users/stapi/OneDrive/Desktop/GD32VW553/V1_MQTT_OK/GD32VW55X_Wifi_BLE_SDK/GD32VW55x_RELEASE_V1.0.2/MSDK/cloud/alicloud/src/protocol/coap/local\CoAPMessage.c ****     msglen = CoAPSerialize_Message(message, buff, msglen);
 1711              		.loc 1 527 5 is_stmt 1
 1712 00c4 2686     		mv	a2,s1
 1713 00c6 8145     		li	a1,0
 1714 00c8 97000000 		call	memset
 1714      E7800000 
 1715              	.LVL175:
 528:C:/Users/stapi/OneDrive/Desktop/GD32VW553/V1_MQTT_OK/GD32VW55X_Wifi_BLE_SDK/GD32VW55x_RELEASE_V1.0.2/MSDK/cloud/alicloud/src/protocol/coap/local\CoAPMessage.c **** 
 1716              		.loc 1 528 5
 528:C:/Users/stapi/OneDrive/Desktop/GD32VW553/V1_MQTT_OK/GD32VW55X_Wifi_BLE_SDK/GD32VW55x_RELEASE_V1.0.2/MSDK/cloud/alicloud/src/protocol/coap/local\CoAPMessage.c **** 
 1717              		.loc 1 528 14 is_stmt 0
 1718 00d0 2686     		mv	a2,s1
 1719 00d2 CE85     		mv	a1,s3
 1720 00d4 2285     		mv	a0,s0
 1721 00d6 97000000 		call	CoAPSerialize_Message
 1721      E7800000 
 1722              	.LVL176:
 533:C:/Users/stapi/OneDrive/Desktop/GD32VW553/V1_MQTT_OK/GD32VW55X_Wifi_BLE_SDK/GD32VW55x_RELEASE_V1.0.2/MSDK/cloud/alicloud/src/protocol/coap/local\CoAPMessage.c ****                                 buff, (unsigned int)msglen, ctx->waittime);
 1723              		.loc 1 533 5 is_stmt 1
 1724 00de 334C0508 		zext.h	s8,a0
 533:C:/Users/stapi/OneDrive/Desktop/GD32VW553/V1_MQTT_OK/GD32VW55X_Wifi_BLE_SDK/GD32VW55x_RELEASE_V1.0.2/MSDK/cloud/alicloud/src/protocol/coap/local\CoAPMessage.c ****                                 buff, (unsigned int)msglen, ctx->waittime);
 1725              		.loc 1 533 15 is_stmt 0
 1726 00e2 03274905 		lw	a4,84(s2)
 1727 00e6 03254900 		lw	a0,4(s2)
 1728              	.LVL177:
 1729 00ea E286     		mv	a3,s8
 1730 00ec 4E86     		mv	a2,s3
 1731 00ee D685     		mv	a1,s5
 1732 00f0 97000000 		call	CoAPNetwork_write
 1732      E7800000 
 1733              	.LVL178:
 535:C:/Users/stapi/OneDrive/Desktop/GD32VW553/V1_MQTT_OK/GD32VW55X_Wifi_BLE_SDK/GD32VW55x_RELEASE_V1.0.2/MSDK/cloud/alicloud/src/protocol/coap/local\CoAPMessage.c ****         if (CoAPReqMsg(message->header) || CoAPCONRespMsg(message->header)) {
 1734              		.loc 1 535 5 is_stmt 1
 535:C:/Users/stapi/OneDrive/Desktop/GD32VW553/V1_MQTT_OK/GD32VW55X_Wifi_BLE_SDK/GD32VW55x_RELEASE_V1.0.2/MSDK/cloud/alicloud/src/protocol/coap/local\CoAPMessage.c ****         if (CoAPReqMsg(message->header) || CoAPCONRespMsg(message->header)) {
 1735              		.loc 1 535 8 is_stmt 0
 1736 00f8 33450508 		zext.h	a0,a0
 1737 00fc 6316AC32 		bne	s8,a0,.L157
 536:C:/Users/stapi/OneDrive/Desktop/GD32VW553/V1_MQTT_OK/GD32VW55X_Wifi_BLE_SDK/GD32VW55x_RELEASE_V1.0.2/MSDK/cloud/alicloud/src/protocol/coap/local\CoAPMessage.c ****             COAP_FLOW("The message id %d len %d send success, add to the list",
 1738              		.loc 1 536 9 is_stmt 1
 536:C:/Users/stapi/OneDrive/Desktop/GD32VW553/V1_MQTT_OK/GD32VW55X_Wifi_BLE_SDK/GD32VW55x_RELEASE_V1.0.2/MSDK/cloud/alicloud/src/protocol/coap/local\CoAPMessage.c ****             COAP_FLOW("The message id %d len %d send success, add to the list",
 1739              		.loc 1 536 13 is_stmt 0
 1740 0100 83471400 		lbu	a5,1(s0)
 536:C:/Users/stapi/OneDrive/Desktop/GD32VW553/V1_MQTT_OK/GD32VW55X_Wifi_BLE_SDK/GD32VW55x_RELEASE_V1.0.2/MSDK/cloud/alicloud/src/protocol/coap/local\CoAPMessage.c ****             COAP_FLOW("The message id %d len %d send success, add to the list",
 1741              		.loc 1 536 12
 1742 0104 7947     		li	a4,30
 1743 0106 B7040000 		lui	s1,%hi(.LANCHOR2)
 536:C:/Users/stapi/OneDrive/Desktop/GD32VW553/V1_MQTT_OK/GD32VW55X_Wifi_BLE_SDK/GD32VW55x_RELEASE_V1.0.2/MSDK/cloud/alicloud/src/protocol/coap/local\CoAPMessage.c ****             COAP_FLOW("The message id %d len %d send success, add to the list",
 1744              		.loc 1 536 13
 1745 010a FD17     		addi	a5,a5,-1
 536:C:/Users/stapi/OneDrive/Desktop/GD32VW553/V1_MQTT_OK/GD32VW55X_Wifi_BLE_SDK/GD32VW55x_RELEASE_V1.0.2/MSDK/cloud/alicloud/src/protocol/coap/local\CoAPMessage.c ****             COAP_FLOW("The message id %d len %d send success, add to the list",
 1746              		.loc 1 536 12
 1747 010c 93F7F70F 		andi	a5,a5,0xff
 1748 0110 370B0000 		lui	s6,%hi(.LC1)
 1749 0114 6374F702 		bleu	a5,a4,.L158
 536:C:/Users/stapi/OneDrive/Desktop/GD32VW553/V1_MQTT_OK/GD32VW55X_Wifi_BLE_SDK/GD32VW55x_RELEASE_V1.0.2/MSDK/cloud/alicloud/src/protocol/coap/local\CoAPMessage.c ****             COAP_FLOW("The message id %d len %d send success, add to the list",
 1750              		.loc 1 536 44 discriminator 1
 1751 0118 83570400 		lhu	a5,0(s0)
 1752 011c 2316F100 		sh	a5,12(sp)
 1753 0120 83572400 		lhu	a5,2(s0)
 1754 0124 2317F100 		sh	a5,14(sp)
 1755 0128 3247     		lw	a4,12(sp)
 1756 012a C167     		li	a5,65536
 1757 012c 9387C7F0 		addi	a5,a5,-244
 1758 0130 7D8F     		and	a4,a4,a5
 536:C:/Users/stapi/OneDrive/Desktop/GD32VW553/V1_MQTT_OK/GD32VW55X_Wifi_BLE_SDK/GD32VW55x_RELEASE_V1.0.2/MSDK/cloud/alicloud/src/protocol/coap/local\CoAPMessage.c ****             COAP_FLOW("The message id %d len %d send success, add to the list",
 1759              		.loc 1 536 41 discriminator 1
 1760 0132 9167     		li	a5,16384
 1761 0134 93870750 		addi	a5,a5,1280
 1762 0138 6311F72C 		bne	a4,a5,.L159
 1763              	.L158:
 537:C:/Users/stapi/OneDrive/Desktop/GD32VW553/V1_MQTT_OK/GD32VW55X_Wifi_BLE_SDK/GD32VW55x_RELEASE_V1.0.2/MSDK/cloud/alicloud/src/protocol/coap/local\CoAPMessage.c ****                       message->header.msgid, msglen);
 1764              		.loc 1 537 13 is_stmt 1
 1765 013c 83572400 		lhu	a5,2(s0)
 1766 0140 37070000 		lui	a4,%hi(.LC9)
 1767 0144 93850400 		addi	a1,s1,%lo(.LANCHOR2)
 1768 0148 13050B00 		addi	a0,s6,%lo(.LC1)
 1769              	.LVL179:
 1770 014c 6288     		mv	a6,s8
 1771 014e 13070700 		addi	a4,a4,%lo(.LC9)
 1772 0152 9546     		li	a3,5
 1773 0154 13069021 		li	a2,537
 1774 0158 97000000 		call	LITE_syslog
 1774      E7800000 
 1775              	.LVL180:
 539:C:/Users/stapi/OneDrive/Desktop/GD32VW553/V1_MQTT_OK/GD32VW55X_Wifi_BLE_SDK/GD32VW55x_RELEASE_V1.0.2/MSDK/cloud/alicloud/src/protocol/coap/local\CoAPMessage.c ****             if (COAP_SUCCESS != ret) {
 1776              		.loc 1 539 13
 1777              	.LBB67:
 1778              	.LBB68:
 371:C:/Users/stapi/OneDrive/Desktop/GD32VW553/V1_MQTT_OK/GD32VW55X_Wifi_BLE_SDK/GD32VW55x_RELEASE_V1.0.2/MSDK/cloud/alicloud/src/protocol/coap/local\CoAPMessage.c ****     CoAPSendNode *node = NULL;
 1779              		.loc 1 371 5
 372:C:/Users/stapi/OneDrive/Desktop/GD32VW553/V1_MQTT_OK/GD32VW55X_Wifi_BLE_SDK/GD32VW55x_RELEASE_V1.0.2/MSDK/cloud/alicloud/src/protocol/coap/local\CoAPMessage.c ****     CoAPSendNode *next = NULL;
 1780              		.loc 1 372 5
 373:C:/Users/stapi/OneDrive/Desktop/GD32VW553/V1_MQTT_OK/GD32VW55X_Wifi_BLE_SDK/GD32VW55x_RELEASE_V1.0.2/MSDK/cloud/alicloud/src/protocol/coap/local\CoAPMessage.c ****     int no_response = 0;
 1781              		.loc 1 373 5
 374:C:/Users/stapi/OneDrive/Desktop/GD32VW553/V1_MQTT_OK/GD32VW55X_Wifi_BLE_SDK/GD32VW55x_RELEASE_V1.0.2/MSDK/cloud/alicloud/src/protocol/coap/local\CoAPMessage.c ****     int keep = NOKEEP;
 1782              		.loc 1 374 5
 375:C:/Users/stapi/OneDrive/Desktop/GD32VW553/V1_MQTT_OK/GD32VW55X_Wifi_BLE_SDK/GD32VW55x_RELEASE_V1.0.2/MSDK/cloud/alicloud/src/protocol/coap/local\CoAPMessage.c **** 
 1783              		.loc 1 375 5
 377:C:/Users/stapi/OneDrive/Desktop/GD32VW553/V1_MQTT_OK/GD32VW55X_Wifi_BLE_SDK/GD32VW55x_RELEASE_V1.0.2/MSDK/cloud/alicloud/src/protocol/coap/local\CoAPMessage.c ****        no_response = 1;
 1784              		.loc 1 377 5
 377:C:/Users/stapi/OneDrive/Desktop/GD32VW553/V1_MQTT_OK/GD32VW55X_Wifi_BLE_SDK/GD32VW55x_RELEASE_V1.0.2/MSDK/cloud/alicloud/src/protocol/coap/local\CoAPMessage.c ****        no_response = 1;
 1785              		.loc 1 377 24 is_stmt 0
 1786 0160 93052010 		li	a1,258
 1787 0164 2285     		mv	a0,s0
 1788 0166 97000000 		call	CoAPOption_present
 1788      E7800000 
 1789              	.LVL181:
 377:C:/Users/stapi/OneDrive/Desktop/GD32VW553/V1_MQTT_OK/GD32VW55X_Wifi_BLE_SDK/GD32VW55x_RELEASE_V1.0.2/MSDK/cloud/alicloud/src/protocol/coap/local\CoAPMessage.c ****        no_response = 1;
 1790              		.loc 1 377 7
 1791 016e 15ED     		bne	a0,zero,.L173
 378:C:/Users/stapi/OneDrive/Desktop/GD32VW553/V1_MQTT_OK/GD32VW55X_Wifi_BLE_SDK/GD32VW55x_RELEASE_V1.0.2/MSDK/cloud/alicloud/src/protocol/coap/local\CoAPMessage.c ****     }
 1792              		.loc 1 378 8 is_stmt 1
 1793              	.LVL182:
 380:C:/Users/stapi/OneDrive/Desktop/GD32VW553/V1_MQTT_OK/GD32VW55X_Wifi_BLE_SDK/GD32VW55x_RELEASE_V1.0.2/MSDK/cloud/alicloud/src/protocol/coap/local\CoAPMessage.c ****         COAP_DEBUG("The message %d don't add to list", message->header.msgid);
 1794              		.loc 1 380 5
 380:C:/Users/stapi/OneDrive/Desktop/GD32VW553/V1_MQTT_OK/GD32VW55X_Wifi_BLE_SDK/GD32VW55x_RELEASE_V1.0.2/MSDK/cloud/alicloud/src/protocol/coap/local\CoAPMessage.c ****         COAP_DEBUG("The message %d don't add to list", message->header.msgid);
 1795              		.loc 1 380 24 is_stmt 0
 1796 0170 83470400 		lbu	a5,0(s0)
 380:C:/Users/stapi/OneDrive/Desktop/GD32VW553/V1_MQTT_OK/GD32VW55X_Wifi_BLE_SDK/GD32VW55x_RELEASE_V1.0.2/MSDK/cloud/alicloud/src/protocol/coap/local\CoAPMessage.c ****         COAP_DEBUG("The message %d don't add to list", message->header.msgid);
 1797              		.loc 1 380 21
 1798 0174 1147     		li	a4,4
 378:C:/Users/stapi/OneDrive/Desktop/GD32VW553/V1_MQTT_OK/GD32VW55X_Wifi_BLE_SDK/GD32VW55x_RELEASE_V1.0.2/MSDK/cloud/alicloud/src/protocol/coap/local\CoAPMessage.c ****     }
 1799              		.loc 1 378 20
 1800 0176 854C     		li	s9,1
 380:C:/Users/stapi/OneDrive/Desktop/GD32VW553/V1_MQTT_OK/GD32VW55X_Wifi_BLE_SDK/GD32VW55x_RELEASE_V1.0.2/MSDK/cloud/alicloud/src/protocol/coap/local\CoAPMessage.c ****         COAP_DEBUG("The message %d don't add to list", message->header.msgid);
 1801              		.loc 1 380 21
 1802 0178 B18B     		andi	a5,a5,12
 1803 017a 6399E702 		bne	a5,a4,.L160
 381:C:/Users/stapi/OneDrive/Desktop/GD32VW553/V1_MQTT_OK/GD32VW55X_Wifi_BLE_SDK/GD32VW55x_RELEASE_V1.0.2/MSDK/cloud/alicloud/src/protocol/coap/local\CoAPMessage.c ****         return COAP_ERROR_NULL;
 1804              		.loc 1 381 9 is_stmt 1
 1805 017e 83572400 		lhu	a5,2(s0)
 1806 0182 37070000 		lui	a4,%hi(.LC10)
 1807 0186 B7050000 		lui	a1,%hi(.LANCHOR3)
 1808 018a 13070700 		addi	a4,a4,%lo(.LC10)
 1809 018e 9546     		li	a3,5
 1810 0190 1306D017 		li	a2,381
 1811 0194 93850500 		addi	a1,a1,%lo(.LANCHOR3)
 1812 0198 13050B00 		addi	a0,s6,%lo(.LC1)
 1813 019c 97000000 		call	LITE_syslog
 1813      E7800000 
 1814              	.LVL183:
 382:C:/Users/stapi/OneDrive/Desktop/GD32VW553/V1_MQTT_OK/GD32VW55X_Wifi_BLE_SDK/GD32VW55x_RELEASE_V1.0.2/MSDK/cloud/alicloud/src/protocol/coap/local\CoAPMessage.c ****     }
 1815              		.loc 1 382 9
 1816              	.LBE68:
 1817              	.LBE67:
 540:C:/Users/stapi/OneDrive/Desktop/GD32VW553/V1_MQTT_OK/GD32VW55X_Wifi_BLE_SDK/GD32VW55x_RELEASE_V1.0.2/MSDK/cloud/alicloud/src/protocol/coap/local\CoAPMessage.c ****                 coap_free(buff);
 1818              		.loc 1 540 13
 1819              	.L176:
 1820              	.LBB87:
 1821              	.LBB83:
 442:C:/Users/stapi/OneDrive/Desktop/GD32VW553/V1_MQTT_OK/GD32VW55X_Wifi_BLE_SDK/GD32VW55x_RELEASE_V1.0.2/MSDK/cloud/alicloud/src/protocol/coap/local\CoAPMessage.c ****     }
 1822              		.loc 1 442 16 is_stmt 0
 1823 01a4 93042010 		li	s1,258
 1824 01a8 95AA     		j	.L161
 1825              	.LVL184:
 1826              	.L173:
 374:C:/Users/stapi/OneDrive/Desktop/GD32VW553/V1_MQTT_OK/GD32VW55X_Wifi_BLE_SDK/GD32VW55x_RELEASE_V1.0.2/MSDK/cloud/alicloud/src/protocol/coap/local\CoAPMessage.c ****     int keep = NOKEEP;
 1827              		.loc 1 374 9
 1828 01aa 814C     		li	s9,0
 1829              	.LVL185:
 1830              	.L160:
 385:C:/Users/stapi/OneDrive/Desktop/GD32VW553/V1_MQTT_OK/GD32VW55X_Wifi_BLE_SDK/GD32VW55x_RELEASE_V1.0.2/MSDK/cloud/alicloud/src/protocol/coap/local\CoAPMessage.c ****     list_for_each_entry_safe(node, next, &ctx->sendlist.list, sendlist, CoAPSendNode) {
 1831              		.loc 1 385 5 is_stmt 1
 1832 01ac 03254901 		lw	a0,20(s2)
 386:C:/Users/stapi/OneDrive/Desktop/GD32VW553/V1_MQTT_OK/GD32VW55X_Wifi_BLE_SDK/GD32VW55x_RELEASE_V1.0.2/MSDK/cloud/alicloud/src/protocol/coap/local\CoAPMessage.c ****         if (NULL != node && node->keep == KEEPING){
 1833              		.loc 1 386 5 is_stmt 0
 1834 01b0 930B8901 		addi	s7,s2,24
 385:C:/Users/stapi/OneDrive/Desktop/GD32VW553/V1_MQTT_OK/GD32VW55X_Wifi_BLE_SDK/GD32VW55x_RELEASE_V1.0.2/MSDK/cloud/alicloud/src/protocol/coap/local\CoAPMessage.c ****     list_for_each_entry_safe(node, next, &ctx->sendlist.list, sendlist, CoAPSendNode) {
 1835              		.loc 1 385 5
 1836 01b4 97000000 		call	HAL_MutexLock
 1836      E7800000 
 1837              	.LVL186:
 386:C:/Users/stapi/OneDrive/Desktop/GD32VW553/V1_MQTT_OK/GD32VW55X_Wifi_BLE_SDK/GD32VW55x_RELEASE_V1.0.2/MSDK/cloud/alicloud/src/protocol/coap/local\CoAPMessage.c ****         if (NULL != node && node->keep == KEEPING){
 1838              		.loc 1 386 5 is_stmt 1
 1839 01bc 8327C901 		lw	a5,28(s2)
 387:C:/Users/stapi/OneDrive/Desktop/GD32VW553/V1_MQTT_OK/GD32VW55X_Wifi_BLE_SDK/GD32VW55x_RELEASE_V1.0.2/MSDK/cloud/alicloud/src/protocol/coap/local\CoAPMessage.c ****             if (node->header.msgid == message->header.msgid) {
 1840              		.loc 1 387 26 is_stmt 0
 1841 01c0 0546     		li	a2,1
 386:C:/Users/stapi/OneDrive/Desktop/GD32VW553/V1_MQTT_OK/GD32VW55X_Wifi_BLE_SDK/GD32VW55x_RELEASE_V1.0.2/MSDK/cloud/alicloud/src/protocol/coap/local\CoAPMessage.c ****         if (NULL != node && node->keep == KEEPING){
 1842              		.loc 1 386 5
 1843 01c2 138787FC 		addi	a4,a5,-56
 1844              	.LVL187:
 1845 01c6 DC43     		lw	a5,4(a5)
 1846 01c8 938787FC 		addi	a5,a5,-56
 1847              	.LVL188:
 1848              	.L162:
 386:C:/Users/stapi/OneDrive/Desktop/GD32VW553/V1_MQTT_OK/GD32VW55X_Wifi_BLE_SDK/GD32VW55x_RELEASE_V1.0.2/MSDK/cloud/alicloud/src/protocol/coap/local\CoAPMessage.c ****         if (NULL != node && node->keep == KEEPING){
 1849              		.loc 1 386 5 is_stmt 1
 1850 01cc 93068703 		addi	a3,a4,56
 1851 01d0 6396DB18 		bne	s7,a3,.L165
 395:C:/Users/stapi/OneDrive/Desktop/GD32VW553/V1_MQTT_OK/GD32VW55X_Wifi_BLE_SDK/GD32VW55x_RELEASE_V1.0.2/MSDK/cloud/alicloud/src/protocol/coap/local\CoAPMessage.c **** 
 1852              		.loc 1 395 5
 1853 01d4 03254901 		lw	a0,20(s2)
 398:C:/Users/stapi/OneDrive/Desktop/GD32VW553/V1_MQTT_OK/GD32VW55X_Wifi_BLE_SDK/GD32VW55x_RELEASE_V1.0.2/MSDK/cloud/alicloud/src/protocol/coap/local\CoAPMessage.c ****     }
 1854              		.loc 1 398 14 is_stmt 0
 1855 01d8 054A     		li	s4,1
 395:C:/Users/stapi/OneDrive/Desktop/GD32VW553/V1_MQTT_OK/GD32VW55X_Wifi_BLE_SDK/GD32VW55x_RELEASE_V1.0.2/MSDK/cloud/alicloud/src/protocol/coap/local\CoAPMessage.c **** 
 1856              		.loc 1 395 5
 1857 01da 97000000 		call	HAL_MutexUnlock
 1857      E7800000 
 1858              	.LVL189:
 397:C:/Users/stapi/OneDrive/Desktop/GD32VW553/V1_MQTT_OK/GD32VW55X_Wifi_BLE_SDK/GD32VW55x_RELEASE_V1.0.2/MSDK/cloud/alicloud/src/protocol/coap/local\CoAPMessage.c ****         keep = KEEPING;
 1859              		.loc 1 397 5 is_stmt 1
 397:C:/Users/stapi/OneDrive/Desktop/GD32VW553/V1_MQTT_OK/GD32VW55X_Wifi_BLE_SDK/GD32VW55x_RELEASE_V1.0.2/MSDK/cloud/alicloud/src/protocol/coap/local\CoAPMessage.c ****         keep = KEEPING;
 1860              		.loc 1 397 8 is_stmt 0
 1861 01e2 5685     		mv	a0,s5
 1862 01e4 97000000 		call	platform_is_multicast
 1862      E7800000 
 1863              	.LVL190:
 397:C:/Users/stapi/OneDrive/Desktop/GD32VW553/V1_MQTT_OK/GD32VW55X_Wifi_BLE_SDK/GD32VW55x_RELEASE_V1.0.2/MSDK/cloud/alicloud/src/protocol/coap/local\CoAPMessage.c ****         keep = KEEPING;
 1864              		.loc 1 397 7
 1865 01ec 11E5     		bne	a0,zero,.L166
 397:C:/Users/stapi/OneDrive/Desktop/GD32VW553/V1_MQTT_OK/GD32VW55X_Wifi_BLE_SDK/GD32VW55x_RELEASE_V1.0.2/MSDK/cloud/alicloud/src/protocol/coap/local\CoAPMessage.c ****         keep = KEEPING;
 1866              		.loc 1 397 58
 1867 01ee 032AC407 		lw	s4,124(s0)
 1868 01f2 7D1A     		addi	s4,s4,-1
 1869 01f4 133A1A00 		seqz	s4,s4
 1870              	.L166:
 1871              	.LVL191:
 401:C:/Users/stapi/OneDrive/Desktop/GD32VW553/V1_MQTT_OK/GD32VW55X_Wifi_BLE_SDK/GD32VW55x_RELEASE_V1.0.2/MSDK/cloud/alicloud/src/protocol/coap/local\CoAPMessage.c ****     if (NULL != node) {
 1872              		.loc 1 401 5 is_stmt 1
 401:C:/Users/stapi/OneDrive/Desktop/GD32VW553/V1_MQTT_OK/GD32VW55X_Wifi_BLE_SDK/GD32VW55x_RELEASE_V1.0.2/MSDK/cloud/alicloud/src/protocol/coap/local\CoAPMessage.c ****     if (NULL != node) {
 1873              		.loc 1 401 12 is_stmt 0
 1874 01f8 13068005 		li	a2,88
 1875 01fc 8145     		li	a1,0
 1876 01fe 0145     		li	a0,0
 1877 0200 97000000 		call	LITE_malloc_internal
 1877      E7800000 
 1878              	.LVL192:
 1879 0208 AA84     		mv	s1,a0
 1880              	.LVL193:
 402:C:/Users/stapi/OneDrive/Desktop/GD32VW553/V1_MQTT_OK/GD32VW55X_Wifi_BLE_SDK/GD32VW55x_RELEASE_V1.0.2/MSDK/cloud/alicloud/src/protocol/coap/local\CoAPMessage.c ****         memset(node, 0x00, sizeof(CoAPSendNode));
 1881              		.loc 1 402 5 is_stmt 1
 402:C:/Users/stapi/OneDrive/Desktop/GD32VW553/V1_MQTT_OK/GD32VW55X_Wifi_BLE_SDK/GD32VW55x_RELEASE_V1.0.2/MSDK/cloud/alicloud/src/protocol/coap/local\CoAPMessage.c ****         memset(node, 0x00, sizeof(CoAPSendNode));
 1882              		.loc 1 402 8 is_stmt 0
 1883 020a 49DD     		beq	a0,zero,.L176
 1884              	.LBB69:
 403:C:/Users/stapi/OneDrive/Desktop/GD32VW553/V1_MQTT_OK/GD32VW55X_Wifi_BLE_SDK/GD32VW55x_RELEASE_V1.0.2/MSDK/cloud/alicloud/src/protocol/coap/local\CoAPMessage.c ****         node->acked        = 0;
 1885              		.loc 1 403 9 is_stmt 1
 1886 020c 13068005 		li	a2,88
 1887 0210 8145     		li	a1,0
 1888 0212 97000000 		call	memset
 1888      E7800000 
 1889              	.LVL194:
 404:C:/Users/stapi/OneDrive/Desktop/GD32VW553/V1_MQTT_OK/GD32VW55X_Wifi_BLE_SDK/GD32VW55x_RELEASE_V1.0.2/MSDK/cloud/alicloud/src/protocol/coap/local\CoAPMessage.c ****         node->user         = message->user;
 1890              		.loc 1 404 9
 405:C:/Users/stapi/OneDrive/Desktop/GD32VW553/V1_MQTT_OK/GD32VW55X_Wifi_BLE_SDK/GD32VW55x_RELEASE_V1.0.2/MSDK/cloud/alicloud/src/protocol/coap/local\CoAPMessage.c ****         node->header       = message->header;
 1891              		.loc 1 405 9
 405:C:/Users/stapi/OneDrive/Desktop/GD32VW553/V1_MQTT_OK/GD32VW55X_Wifi_BLE_SDK/GD32VW55x_RELEASE_V1.0.2/MSDK/cloud/alicloud/src/protocol/coap/local\CoAPMessage.c ****         node->header       = message->header;
 1892              		.loc 1 405 28 is_stmt 0
 1893 021a 3C5C     		lw	a5,120(s0)
 413:C:/Users/stapi/OneDrive/Desktop/GD32VW553/V1_MQTT_OK/GD32VW55X_Wifi_BLE_SDK/GD32VW55x_RELEASE_V1.0.2/MSDK/cloud/alicloud/src/protocol/coap/local\CoAPMessage.c ****         memcpy(node->token, message->token, message->header.tokenlen);
 1894              		.loc 1 413 9
 1895 021c 4946     		li	a2,18
 1896 021e D685     		mv	a1,s5
 405:C:/Users/stapi/OneDrive/Desktop/GD32VW553/V1_MQTT_OK/GD32VW55X_Wifi_BLE_SDK/GD32VW55x_RELEASE_V1.0.2/MSDK/cloud/alicloud/src/protocol/coap/local\CoAPMessage.c ****         node->header       = message->header;
 1897              		.loc 1 405 28
 1898 0220 BCC0     		sw	a5,64(s1)
 406:C:/Users/stapi/OneDrive/Desktop/GD32VW553/V1_MQTT_OK/GD32VW55X_Wifi_BLE_SDK/GD32VW55x_RELEASE_V1.0.2/MSDK/cloud/alicloud/src/protocol/coap/local\CoAPMessage.c ****         node->handler      = message->handler;
 1899              		.loc 1 406 9 is_stmt 1
 406:C:/Users/stapi/OneDrive/Desktop/GD32VW553/V1_MQTT_OK/GD32VW55X_Wifi_BLE_SDK/GD32VW55x_RELEASE_V1.0.2/MSDK/cloud/alicloud/src/protocol/coap/local\CoAPMessage.c ****         node->handler      = message->handler;
 1900              		.loc 1 406 28 is_stmt 0
 1901 0222 1C40     		lw	a5,0(s0)
 413:C:/Users/stapi/OneDrive/Desktop/GD32VW553/V1_MQTT_OK/GD32VW55X_Wifi_BLE_SDK/GD32VW55x_RELEASE_V1.0.2/MSDK/cloud/alicloud/src/protocol/coap/local\CoAPMessage.c ****         memcpy(node->token, message->token, message->header.tokenlen);
 1902              		.loc 1 413 9
 1903 0224 13854402 		addi	a0,s1,36
 406:C:/Users/stapi/OneDrive/Desktop/GD32VW553/V1_MQTT_OK/GD32VW55X_Wifi_BLE_SDK/GD32VW55x_RELEASE_V1.0.2/MSDK/cloud/alicloud/src/protocol/coap/local\CoAPMessage.c ****         node->handler      = message->handler;
 1904              		.loc 1 406 28
 1905 0228 9CC0     		sw	a5,0(s1)
 407:C:/Users/stapi/OneDrive/Desktop/GD32VW553/V1_MQTT_OK/GD32VW55X_Wifi_BLE_SDK/GD32VW55x_RELEASE_V1.0.2/MSDK/cloud/alicloud/src/protocol/coap/local\CoAPMessage.c ****         node->msglen       = len;
 1906              		.loc 1 407 9 is_stmt 1
 407:C:/Users/stapi/OneDrive/Desktop/GD32VW553/V1_MQTT_OK/GD32VW55X_Wifi_BLE_SDK/GD32VW55x_RELEASE_V1.0.2/MSDK/cloud/alicloud/src/protocol/coap/local\CoAPMessage.c ****         node->msglen       = len;
 1907              		.loc 1 407 28 is_stmt 0
 1908 022a 7C58     		lw	a5,116(s0)
 408:C:/Users/stapi/OneDrive/Desktop/GD32VW553/V1_MQTT_OK/GD32VW55X_Wifi_BLE_SDK/GD32VW55x_RELEASE_V1.0.2/MSDK/cloud/alicloud/src/protocol/coap/local\CoAPMessage.c ****         node->message      = buffer;
 1909              		.loc 1 408 28
 1910 022c 23AE8401 		sw	s8,28(s1)
 409:C:/Users/stapi/OneDrive/Desktop/GD32VW553/V1_MQTT_OK/GD32VW55X_Wifi_BLE_SDK/GD32VW55x_RELEASE_V1.0.2/MSDK/cloud/alicloud/src/protocol/coap/local\CoAPMessage.c ****         node->timeout_val   = COAP_ACK_TIMEOUT * COAP_ACK_RANDOM_FACTOR;
 1911              		.loc 1 409 28
 1912 0230 23A23405 		sw	s3,68(s1)
 407:C:/Users/stapi/OneDrive/Desktop/GD32VW553/V1_MQTT_OK/GD32VW55X_Wifi_BLE_SDK/GD32VW55x_RELEASE_V1.0.2/MSDK/cloud/alicloud/src/protocol/coap/local\CoAPMessage.c ****         node->msglen       = len;
 1913              		.loc 1 407 28
 1914 0234 9CD0     		sw	a5,32(s1)
 408:C:/Users/stapi/OneDrive/Desktop/GD32VW553/V1_MQTT_OK/GD32VW55X_Wifi_BLE_SDK/GD32VW55x_RELEASE_V1.0.2/MSDK/cloud/alicloud/src/protocol/coap/local\CoAPMessage.c ****         node->message      = buffer;
 1915              		.loc 1 408 9 is_stmt 1
 409:C:/Users/stapi/OneDrive/Desktop/GD32VW553/V1_MQTT_OK/GD32VW55X_Wifi_BLE_SDK/GD32VW55x_RELEASE_V1.0.2/MSDK/cloud/alicloud/src/protocol/coap/local\CoAPMessage.c ****         node->timeout_val   = COAP_ACK_TIMEOUT * COAP_ACK_RANDOM_FACTOR;
 1916              		.loc 1 409 9
 410:C:/Users/stapi/OneDrive/Desktop/GD32VW553/V1_MQTT_OK/GD32VW55X_Wifi_BLE_SDK/GD32VW55x_RELEASE_V1.0.2/MSDK/cloud/alicloud/src/protocol/coap/local\CoAPMessage.c ****         node->no_response = no_response;
 1917              		.loc 1 410 9
 410:C:/Users/stapi/OneDrive/Desktop/GD32VW553/V1_MQTT_OK/GD32VW55X_Wifi_BLE_SDK/GD32VW55x_RELEASE_V1.0.2/MSDK/cloud/alicloud/src/protocol/coap/local\CoAPMessage.c ****         node->no_response = no_response;
 1918              		.loc 1 410 29 is_stmt 0
 1919 0236 93078025 		li	a5,600
 1920 023a 239CF400 		sh	a5,24(s1)
 411:C:/Users/stapi/OneDrive/Desktop/GD32VW553/V1_MQTT_OK/GD32VW55X_Wifi_BLE_SDK/GD32VW55x_RELEASE_V1.0.2/MSDK/cloud/alicloud/src/protocol/coap/local\CoAPMessage.c ****         node->keep = keep;
 1921              		.loc 1 411 9 is_stmt 1
 411:C:/Users/stapi/OneDrive/Desktop/GD32VW553/V1_MQTT_OK/GD32VW55X_Wifi_BLE_SDK/GD32VW55x_RELEASE_V1.0.2/MSDK/cloud/alicloud/src/protocol/coap/local\CoAPMessage.c ****         node->keep = keep;
 1922              		.loc 1 411 27 is_stmt 0
 1923 023e 23989405 		sh	s9,80(s1)
 412:C:/Users/stapi/OneDrive/Desktop/GD32VW553/V1_MQTT_OK/GD32VW55X_Wifi_BLE_SDK/GD32VW55x_RELEASE_V1.0.2/MSDK/cloud/alicloud/src/protocol/coap/local\CoAPMessage.c ****         memcpy(&node->remote, remote, sizeof(NetworkAddr));
 1924              		.loc 1 412 9 is_stmt 1
 412:C:/Users/stapi/OneDrive/Desktop/GD32VW553/V1_MQTT_OK/GD32VW55X_Wifi_BLE_SDK/GD32VW55x_RELEASE_V1.0.2/MSDK/cloud/alicloud/src/protocol/coap/local\CoAPMessage.c ****         memcpy(&node->remote, remote, sizeof(NetworkAddr));
 1925              		.loc 1 412 20 is_stmt 0
 1926 0242 23A64405 		sw	s4,76(s1)
 413:C:/Users/stapi/OneDrive/Desktop/GD32VW553/V1_MQTT_OK/GD32VW55X_Wifi_BLE_SDK/GD32VW55x_RELEASE_V1.0.2/MSDK/cloud/alicloud/src/protocol/coap/local\CoAPMessage.c ****         memcpy(node->token, message->token, message->header.tokenlen);
 1927              		.loc 1 413 9 is_stmt 1
 1928 0246 97000000 		call	memcpy
 1928      E7800000 
 1929              	.LVL195:
 414:C:/Users/stapi/OneDrive/Desktop/GD32VW553/V1_MQTT_OK/GD32VW55X_Wifi_BLE_SDK/GD32VW55x_RELEASE_V1.0.2/MSDK/cloud/alicloud/src/protocol/coap/local\CoAPMessage.c **** 
 1930              		.loc 1 414 9
 414:C:/Users/stapi/OneDrive/Desktop/GD32VW553/V1_MQTT_OK/GD32VW55X_Wifi_BLE_SDK/GD32VW55x_RELEASE_V1.0.2/MSDK/cloud/alicloud/src/protocol/coap/local\CoAPMessage.c **** 
 1931              		.loc 1 414 60 is_stmt 0
 1932 024e 1040     		lw	a2,0(s0)
 414:C:/Users/stapi/OneDrive/Desktop/GD32VW553/V1_MQTT_OK/GD32VW55X_Wifi_BLE_SDK/GD32VW55x_RELEASE_V1.0.2/MSDK/cloud/alicloud/src/protocol/coap/local\CoAPMessage.c **** 
 1933              		.loc 1 414 9
 1934 0250 93054400 		addi	a1,s0,4
 1935 0254 13855400 		addi	a0,s1,5
 414:C:/Users/stapi/OneDrive/Desktop/GD32VW553/V1_MQTT_OK/GD32VW55X_Wifi_BLE_SDK/GD32VW55x_RELEASE_V1.0.2/MSDK/cloud/alicloud/src/protocol/coap/local\CoAPMessage.c **** 
 1936              		.loc 1 414 60
 1937 0258 1182     		srli	a2,a2,4
 414:C:/Users/stapi/OneDrive/Desktop/GD32VW553/V1_MQTT_OK/GD32VW55X_Wifi_BLE_SDK/GD32VW55x_RELEASE_V1.0.2/MSDK/cloud/alicloud/src/protocol/coap/local\CoAPMessage.c **** 
 1938              		.loc 1 414 9
 1939 025a 3D8A     		andi	a2,a2,15
 1940 025c 97000000 		call	memcpy
 1940      E7800000 
 1941              	.LVL196:
 416:C:/Users/stapi/OneDrive/Desktop/GD32VW553/V1_MQTT_OK/GD32VW55X_Wifi_BLE_SDK/GD32VW55x_RELEASE_V1.0.2/MSDK/cloud/alicloud/src/protocol/coap/local\CoAPMessage.c ****         if (CoAPConMsg(message->header)) {
 1942              		.loc 1 416 9 is_stmt 1
 416:C:/Users/stapi/OneDrive/Desktop/GD32VW553/V1_MQTT_OK/GD32VW55X_Wifi_BLE_SDK/GD32VW55x_RELEASE_V1.0.2/MSDK/cloud/alicloud/src/protocol/coap/local\CoAPMessage.c ****         if (CoAPConMsg(message->header)) {
 1943              		.loc 1 416 25 is_stmt 0
 1944 0264 97000000 		call	HAL_UptimeMs
 1944      E7800000 
 1945              	.LVL197:
 417:C:/Users/stapi/OneDrive/Desktop/GD32VW553/V1_MQTT_OK/GD32VW55X_Wifi_BLE_SDK/GD32VW55x_RELEASE_V1.0.2/MSDK/cloud/alicloud/src/protocol/coap/local\CoAPMessage.c ****             node->timeout = node->timeout_val + tick;
 1946              		.loc 1 417 9 is_stmt 1
 417:C:/Users/stapi/OneDrive/Desktop/GD32VW553/V1_MQTT_OK/GD32VW55X_Wifi_BLE_SDK/GD32VW55x_RELEASE_V1.0.2/MSDK/cloud/alicloud/src/protocol/coap/local\CoAPMessage.c ****             node->timeout = node->timeout_val + tick;
 1947              		.loc 1 417 13 is_stmt 0
 1948 026c 83470400 		lbu	a5,0(s0)
 417:C:/Users/stapi/OneDrive/Desktop/GD32VW553/V1_MQTT_OK/GD32VW55X_Wifi_BLE_SDK/GD32VW55x_RELEASE_V1.0.2/MSDK/cloud/alicloud/src/protocol/coap/local\CoAPMessage.c ****             node->timeout = node->timeout_val + tick;
 1949              		.loc 1 417 12
 1950 0270 B18B     		andi	a5,a5,12
 1951 0272 63990714 		bne	a5,zero,.L167
 418:C:/Users/stapi/OneDrive/Desktop/GD32VW553/V1_MQTT_OK/GD32VW55X_Wifi_BLE_SDK/GD32VW55x_RELEASE_V1.0.2/MSDK/cloud/alicloud/src/protocol/coap/local\CoAPMessage.c ****             node->retrans_count = COAP_MAX_RETRY_COUNT;
 1952              		.loc 1 418 13 is_stmt 1
 418:C:/Users/stapi/OneDrive/Desktop/GD32VW553/V1_MQTT_OK/GD32VW55X_Wifi_BLE_SDK/GD32VW55x_RELEASE_V1.0.2/MSDK/cloud/alicloud/src/protocol/coap/local\CoAPMessage.c ****             node->retrans_count = COAP_MAX_RETRY_COUNT;
 1953              		.loc 1 418 33 is_stmt 0
 1954 0276 83D68401 		lhu	a3,24(s1)
 418:C:/Users/stapi/OneDrive/Desktop/GD32VW553/V1_MQTT_OK/GD32VW55X_Wifi_BLE_SDK/GD32VW55x_RELEASE_V1.0.2/MSDK/cloud/alicloud/src/protocol/coap/local\CoAPMessage.c ****             node->retrans_count = COAP_MAX_RETRY_COUNT;
 1955              		.loc 1 418 47
 1956 027a B387A600 		add	a5,a3,a0
 1957 027e B3B6D700 		sltu	a3,a5,a3
 1958 0282 3387B600 		add	a4,a3,a1
 418:C:/Users/stapi/OneDrive/Desktop/GD32VW553/V1_MQTT_OK/GD32VW55X_Wifi_BLE_SDK/GD32VW55x_RELEASE_V1.0.2/MSDK/cloud/alicloud/src/protocol/coap/local\CoAPMessage.c ****             node->retrans_count = COAP_MAX_RETRY_COUNT;
 1959              		.loc 1 418 27
 1960 0286 9CC8     		sw	a5,16(s1)
 419:C:/Users/stapi/OneDrive/Desktop/GD32VW553/V1_MQTT_OK/GD32VW55X_Wifi_BLE_SDK/GD32VW55x_RELEASE_V1.0.2/MSDK/cloud/alicloud/src/protocol/coap/local\CoAPMessage.c ****         } else {
 1961              		.loc 1 419 33
 1962 0288 9147     		li	a5,4
 418:C:/Users/stapi/OneDrive/Desktop/GD32VW553/V1_MQTT_OK/GD32VW55X_Wifi_BLE_SDK/GD32VW55x_RELEASE_V1.0.2/MSDK/cloud/alicloud/src/protocol/coap/local\CoAPMessage.c ****             node->retrans_count = COAP_MAX_RETRY_COUNT;
 1963              		.loc 1 418 27
 1964 028a D8C8     		sw	a4,20(s1)
 419:C:/Users/stapi/OneDrive/Desktop/GD32VW553/V1_MQTT_OK/GD32VW55X_Wifi_BLE_SDK/GD32VW55x_RELEASE_V1.0.2/MSDK/cloud/alicloud/src/protocol/coap/local\CoAPMessage.c ****         } else {
 1965              		.loc 1 419 13 is_stmt 1
 419:C:/Users/stapi/OneDrive/Desktop/GD32VW553/V1_MQTT_OK/GD32VW55X_Wifi_BLE_SDK/GD32VW55x_RELEASE_V1.0.2/MSDK/cloud/alicloud/src/protocol/coap/local\CoAPMessage.c ****         } else {
 1966              		.loc 1 419 33 is_stmt 0
 1967 028c 2382F400 		sb	a5,4(s1)
 1968              	.L168:
 425:C:/Users/stapi/OneDrive/Desktop/GD32VW553/V1_MQTT_OK/GD32VW55X_Wifi_BLE_SDK/GD32VW55x_RELEASE_V1.0.2/MSDK/cloud/alicloud/src/protocol/coap/local\CoAPMessage.c ****             COAP_DEBUG("The message %d need keep", message->header.msgid);
 1969              		.loc 1 425 9 is_stmt 1
 425:C:/Users/stapi/OneDrive/Desktop/GD32VW553/V1_MQTT_OK/GD32VW55X_Wifi_BLE_SDK/GD32VW55x_RELEASE_V1.0.2/MSDK/cloud/alicloud/src/protocol/coap/local\CoAPMessage.c ****             COAP_DEBUG("The message %d need keep", message->header.msgid);
 1970              		.loc 1 425 11 is_stmt 0
 1971 0290 63050A02 		beq	s4,zero,.L169
 426:C:/Users/stapi/OneDrive/Desktop/GD32VW553/V1_MQTT_OK/GD32VW55X_Wifi_BLE_SDK/GD32VW55x_RELEASE_V1.0.2/MSDK/cloud/alicloud/src/protocol/coap/local\CoAPMessage.c ****         }
 1972              		.loc 1 426 13 is_stmt 1
 1973 0294 83572400 		lhu	a5,2(s0)
 1974 0298 37070000 		lui	a4,%hi(.LC12)
 1975 029c B7050000 		lui	a1,%hi(.LANCHOR3)
 1976              	.LVL198:
 1977 02a0 13070700 		addi	a4,a4,%lo(.LC12)
 1978 02a4 9546     		li	a3,5
 1979 02a6 1306A01A 		li	a2,426
 1980 02aa 93850500 		addi	a1,a1,%lo(.LANCHOR3)
 1981 02ae 13050B00 		addi	a0,s6,%lo(.LC1)
 1982 02b2 97000000 		call	LITE_syslog
 1982      E7800000 
 1983              	.LVL199:
 1984              	.L169:
 429:C:/Users/stapi/OneDrive/Desktop/GD32VW553/V1_MQTT_OK/GD32VW55X_Wifi_BLE_SDK/GD32VW55x_RELEASE_V1.0.2/MSDK/cloud/alicloud/src/protocol/coap/local\CoAPMessage.c ****         if (ctx->sendlist.count >= ctx->sendlist.maxcount) {
 1985              		.loc 1 429 9
 1986 02ba 03254901 		lw	a0,20(s2)
 1987 02be 97000000 		call	HAL_MutexLock
 1987      E7800000 
 1988              	.LVL200:
 430:C:/Users/stapi/OneDrive/Desktop/GD32VW553/V1_MQTT_OK/GD32VW55X_Wifi_BLE_SDK/GD32VW55x_RELEASE_V1.0.2/MSDK/cloud/alicloud/src/protocol/coap/local\CoAPMessage.c ****             HAL_MutexUnlock(ctx->sendlist.list_mutex);
 1989              		.loc 1 430 9
 430:C:/Users/stapi/OneDrive/Desktop/GD32VW553/V1_MQTT_OK/GD32VW55X_Wifi_BLE_SDK/GD32VW55x_RELEASE_V1.0.2/MSDK/cloud/alicloud/src/protocol/coap/local\CoAPMessage.c ****             HAL_MutexUnlock(ctx->sendlist.list_mutex);
 1990              		.loc 1 430 26 is_stmt 0
 1991 02c6 83470902 		lbu	a5,32(s2)
 430:C:/Users/stapi/OneDrive/Desktop/GD32VW553/V1_MQTT_OK/GD32VW55X_Wifi_BLE_SDK/GD32VW55x_RELEASE_V1.0.2/MSDK/cloud/alicloud/src/protocol/coap/local\CoAPMessage.c ****             HAL_MutexUnlock(ctx->sendlist.list_mutex);
 1992              		.loc 1 430 12
 1993 02ca 03471902 		lbu	a4,33(s2)
 1994 02ce 03254901 		lw	a0,20(s2)
 1995 02d2 63E6E710 		bgtu	a4,a5,.L170
 431:C:/Users/stapi/OneDrive/Desktop/GD32VW553/V1_MQTT_OK/GD32VW55X_Wifi_BLE_SDK/GD32VW55x_RELEASE_V1.0.2/MSDK/cloud/alicloud/src/protocol/coap/local\CoAPMessage.c ****             coap_free(node);
