   1              		.file	"CoAPNetwork.c"
   2              		.option nopic
   3              		.attribute arch, "rv32i2p0_m2p0_a2p0_f2p0_c2p0_b_p0p94"
   4              		.attribute unaligned_access, 0
   5              		.attribute stack_align, 16
   6              		.text
   7              	.Ltext0:
   8              		.cfi_sections	.debug_frame
   9              		.section	.text.CoAPNetwork_read,"ax",@progbits
  10              		.align	1
  11              		.globl	CoAPNetwork_read
  13              	CoAPNetwork_read:
  14              	.LFB20:
  15              		.file 1 "C:/Users/stapi/OneDrive/Desktop/GD32VW553/V1_MQTT_OK/GD32VW55X_Wifi_BLE_SDK/GD32VW55x_REL
   1:C:/Users/stapi/OneDrive/Desktop/GD32VW553/V1_MQTT_OK/GD32VW55X_Wifi_BLE_SDK/GD32VW55x_RELEASE_V1.0.2/MSDK/cloud/alicloud/src/protocol/coap/local\CoAPNetwork.c **** /*
   2:C:/Users/stapi/OneDrive/Desktop/GD32VW553/V1_MQTT_OK/GD32VW55X_Wifi_BLE_SDK/GD32VW55x_RELEASE_V1.0.2/MSDK/cloud/alicloud/src/protocol/coap/local\CoAPNetwork.c ****  * Copyright (C) 2015-2018 Alibaba Group Holding Limited
   3:C:/Users/stapi/OneDrive/Desktop/GD32VW553/V1_MQTT_OK/GD32VW55X_Wifi_BLE_SDK/GD32VW55x_RELEASE_V1.0.2/MSDK/cloud/alicloud/src/protocol/coap/local\CoAPNetwork.c ****  */
   4:C:/Users/stapi/OneDrive/Desktop/GD32VW553/V1_MQTT_OK/GD32VW55X_Wifi_BLE_SDK/GD32VW55x_RELEASE_V1.0.2/MSDK/cloud/alicloud/src/protocol/coap/local\CoAPNetwork.c **** 
   5:C:/Users/stapi/OneDrive/Desktop/GD32VW553/V1_MQTT_OK/GD32VW55X_Wifi_BLE_SDK/GD32VW55x_RELEASE_V1.0.2/MSDK/cloud/alicloud/src/protocol/coap/local\CoAPNetwork.c **** 
   6:C:/Users/stapi/OneDrive/Desktop/GD32VW553/V1_MQTT_OK/GD32VW55X_Wifi_BLE_SDK/GD32VW55x_RELEASE_V1.0.2/MSDK/cloud/alicloud/src/protocol/coap/local\CoAPNetwork.c **** 
   7:C:/Users/stapi/OneDrive/Desktop/GD32VW553/V1_MQTT_OK/GD32VW55X_Wifi_BLE_SDK/GD32VW55x_RELEASE_V1.0.2/MSDK/cloud/alicloud/src/protocol/coap/local\CoAPNetwork.c **** 
   8:C:/Users/stapi/OneDrive/Desktop/GD32VW553/V1_MQTT_OK/GD32VW55X_Wifi_BLE_SDK/GD32VW55x_RELEASE_V1.0.2/MSDK/cloud/alicloud/src/protocol/coap/local\CoAPNetwork.c **** #include <stdint.h>
   9:C:/Users/stapi/OneDrive/Desktop/GD32VW553/V1_MQTT_OK/GD32VW55X_Wifi_BLE_SDK/GD32VW55x_RELEASE_V1.0.2/MSDK/cloud/alicloud/src/protocol/coap/local\CoAPNetwork.c **** #include <stdio.h>
  10:C:/Users/stapi/OneDrive/Desktop/GD32VW553/V1_MQTT_OK/GD32VW55X_Wifi_BLE_SDK/GD32VW55x_RELEASE_V1.0.2/MSDK/cloud/alicloud/src/protocol/coap/local\CoAPNetwork.c **** #include <string.h>
  11:C:/Users/stapi/OneDrive/Desktop/GD32VW553/V1_MQTT_OK/GD32VW55X_Wifi_BLE_SDK/GD32VW55x_RELEASE_V1.0.2/MSDK/cloud/alicloud/src/protocol/coap/local\CoAPNetwork.c **** #include <errno.h>
  12:C:/Users/stapi/OneDrive/Desktop/GD32VW553/V1_MQTT_OK/GD32VW55X_Wifi_BLE_SDK/GD32VW55x_RELEASE_V1.0.2/MSDK/cloud/alicloud/src/protocol/coap/local\CoAPNetwork.c **** 
  13:C:/Users/stapi/OneDrive/Desktop/GD32VW553/V1_MQTT_OK/GD32VW55X_Wifi_BLE_SDK/GD32VW55x_RELEASE_V1.0.2/MSDK/cloud/alicloud/src/protocol/coap/local\CoAPNetwork.c **** #include "iot_import.h"
  14:C:/Users/stapi/OneDrive/Desktop/GD32VW553/V1_MQTT_OK/GD32VW55X_Wifi_BLE_SDK/GD32VW55x_RELEASE_V1.0.2/MSDK/cloud/alicloud/src/protocol/coap/local\CoAPNetwork.c **** #include "CoAPExport.h"
  15:C:/Users/stapi/OneDrive/Desktop/GD32VW553/V1_MQTT_OK/GD32VW55X_Wifi_BLE_SDK/GD32VW55x_RELEASE_V1.0.2/MSDK/cloud/alicloud/src/protocol/coap/local\CoAPNetwork.c **** #include "CoAPPlatform.h"
  16:C:/Users/stapi/OneDrive/Desktop/GD32VW553/V1_MQTT_OK/GD32VW55X_Wifi_BLE_SDK/GD32VW55x_RELEASE_V1.0.2/MSDK/cloud/alicloud/src/protocol/coap/local\CoAPNetwork.c **** #ifdef COAP_DTLS_SUPPORT
  17:C:/Users/stapi/OneDrive/Desktop/GD32VW553/V1_MQTT_OK/GD32VW55X_Wifi_BLE_SDK/GD32VW55x_RELEASE_V1.0.2/MSDK/cloud/alicloud/src/protocol/coap/local\CoAPNetwork.c **** #include "iot_import_dtls.h"
  18:C:/Users/stapi/OneDrive/Desktop/GD32VW553/V1_MQTT_OK/GD32VW55X_Wifi_BLE_SDK/GD32VW55x_RELEASE_V1.0.2/MSDK/cloud/alicloud/src/protocol/coap/local\CoAPNetwork.c **** #endif
  19:C:/Users/stapi/OneDrive/Desktop/GD32VW553/V1_MQTT_OK/GD32VW55X_Wifi_BLE_SDK/GD32VW55x_RELEASE_V1.0.2/MSDK/cloud/alicloud/src/protocol/coap/local\CoAPNetwork.c **** #include "CoAPNetwork.h"
  20:C:/Users/stapi/OneDrive/Desktop/GD32VW553/V1_MQTT_OK/GD32VW55X_Wifi_BLE_SDK/GD32VW55x_RELEASE_V1.0.2/MSDK/cloud/alicloud/src/protocol/coap/local\CoAPNetwork.c **** 
  21:C:/Users/stapi/OneDrive/Desktop/GD32VW553/V1_MQTT_OK/GD32VW55X_Wifi_BLE_SDK/GD32VW55x_RELEASE_V1.0.2/MSDK/cloud/alicloud/src/protocol/coap/local\CoAPNetwork.c **** int CoAPNetwork_read(NetworkContext         *p_context,
  22:C:/Users/stapi/OneDrive/Desktop/GD32VW553/V1_MQTT_OK/GD32VW55X_Wifi_BLE_SDK/GD32VW55x_RELEASE_V1.0.2/MSDK/cloud/alicloud/src/protocol/coap/local\CoAPNetwork.c ****                      NetworkAddr     *p_remote,
  23:C:/Users/stapi/OneDrive/Desktop/GD32VW553/V1_MQTT_OK/GD32VW55X_Wifi_BLE_SDK/GD32VW55x_RELEASE_V1.0.2/MSDK/cloud/alicloud/src/protocol/coap/local\CoAPNetwork.c ****                      unsigned char   *p_data,
  24:C:/Users/stapi/OneDrive/Desktop/GD32VW553/V1_MQTT_OK/GD32VW55X_Wifi_BLE_SDK/GD32VW55x_RELEASE_V1.0.2/MSDK/cloud/alicloud/src/protocol/coap/local\CoAPNetwork.c ****                      unsigned int     datalen,
  25:C:/Users/stapi/OneDrive/Desktop/GD32VW553/V1_MQTT_OK/GD32VW55X_Wifi_BLE_SDK/GD32VW55x_RELEASE_V1.0.2/MSDK/cloud/alicloud/src/protocol/coap/local\CoAPNetwork.c ****                      unsigned int     timeout_ms)
  26:C:/Users/stapi/OneDrive/Desktop/GD32VW553/V1_MQTT_OK/GD32VW55X_Wifi_BLE_SDK/GD32VW55x_RELEASE_V1.0.2/MSDK/cloud/alicloud/src/protocol/coap/local\CoAPNetwork.c **** 
  27:C:/Users/stapi/OneDrive/Desktop/GD32VW553/V1_MQTT_OK/GD32VW55X_Wifi_BLE_SDK/GD32VW55x_RELEASE_V1.0.2/MSDK/cloud/alicloud/src/protocol/coap/local\CoAPNetwork.c **** {
  16              		.loc 1 27 1
  17              		.cfi_startproc
  18              	.LVL0:
  28:C:/Users/stapi/OneDrive/Desktop/GD32VW553/V1_MQTT_OK/GD32VW55X_Wifi_BLE_SDK/GD32VW55x_RELEASE_V1.0.2/MSDK/cloud/alicloud/src/protocol/coap/local\CoAPNetwork.c ****     int          len      = 0;
  19              		.loc 1 28 5
  29:C:/Users/stapi/OneDrive/Desktop/GD32VW553/V1_MQTT_OK/GD32VW55X_Wifi_BLE_SDK/GD32VW55x_RELEASE_V1.0.2/MSDK/cloud/alicloud/src/protocol/coap/local\CoAPNetwork.c ****     NetworkConf  *network = NULL;
  20              		.loc 1 29 5
  30:C:/Users/stapi/OneDrive/Desktop/GD32VW553/V1_MQTT_OK/GD32VW55X_Wifi_BLE_SDK/GD32VW55x_RELEASE_V1.0.2/MSDK/cloud/alicloud/src/protocol/coap/local\CoAPNetwork.c **** 
  31:C:/Users/stapi/OneDrive/Desktop/GD32VW553/V1_MQTT_OK/GD32VW55X_Wifi_BLE_SDK/GD32VW55x_RELEASE_V1.0.2/MSDK/cloud/alicloud/src/protocol/coap/local\CoAPNetwork.c ****     if(NULL == p_context || NULL == p_remote || NULL == p_data){
  21              		.loc 1 31 5
  22              		.loc 1 31 7 is_stmt 0
  23 0000 11C9     		beq	a0,zero,.L3
  24 0002 AA87     		mv	a5,a0
  32:C:/Users/stapi/OneDrive/Desktop/GD32VW553/V1_MQTT_OK/GD32VW55X_Wifi_BLE_SDK/GD32VW55x_RELEASE_V1.0.2/MSDK/cloud/alicloud/src/protocol/coap/local\CoAPNetwork.c ****         return -1; // TODO
  25              		.loc 1 32 16 discriminator 1
  26 0004 7D55     		li	a0,-1
  27              	.LVL1:
  31:C:/Users/stapi/OneDrive/Desktop/GD32VW553/V1_MQTT_OK/GD32VW55X_Wifi_BLE_SDK/GD32VW55x_RELEASE_V1.0.2/MSDK/cloud/alicloud/src/protocol/coap/local\CoAPNetwork.c ****         return -1; // TODO
  28              		.loc 1 31 26 discriminator 1
  29 0006 89C9     		beq	a1,zero,.L7
  31:C:/Users/stapi/OneDrive/Desktop/GD32VW553/V1_MQTT_OK/GD32VW55X_Wifi_BLE_SDK/GD32VW55x_RELEASE_V1.0.2/MSDK/cloud/alicloud/src/protocol/coap/local\CoAPNetwork.c ****         return -1; // TODO
  30              		.loc 1 31 46 discriminator 2
  31 0008 01CA     		beq	a2,zero,.L7
  33:C:/Users/stapi/OneDrive/Desktop/GD32VW553/V1_MQTT_OK/GD32VW55X_Wifi_BLE_SDK/GD32VW55x_RELEASE_V1.0.2/MSDK/cloud/alicloud/src/protocol/coap/local\CoAPNetwork.c ****     }
  34:C:/Users/stapi/OneDrive/Desktop/GD32VW553/V1_MQTT_OK/GD32VW55X_Wifi_BLE_SDK/GD32VW55x_RELEASE_V1.0.2/MSDK/cloud/alicloud/src/protocol/coap/local\CoAPNetwork.c **** 
  35:C:/Users/stapi/OneDrive/Desktop/GD32VW553/V1_MQTT_OK/GD32VW55X_Wifi_BLE_SDK/GD32VW55x_RELEASE_V1.0.2/MSDK/cloud/alicloud/src/protocol/coap/local\CoAPNetwork.c ****     network = (NetworkConf *)p_context;
  32              		.loc 1 35 5 is_stmt 1
  33              	.LVL2:
  36:C:/Users/stapi/OneDrive/Desktop/GD32VW553/V1_MQTT_OK/GD32VW55X_Wifi_BLE_SDK/GD32VW55x_RELEASE_V1.0.2/MSDK/cloud/alicloud/src/protocol/coap/local\CoAPNetwork.c **** #ifdef COAP_DTLS_SUPPORT
  37:C:/Users/stapi/OneDrive/Desktop/GD32VW553/V1_MQTT_OK/GD32VW55X_Wifi_BLE_SDK/GD32VW55x_RELEASE_V1.0.2/MSDK/cloud/alicloud/src/protocol/coap/local\CoAPNetwork.c ****     if (COAP_NETWORK_DTLS == network->type) {
  38:C:/Users/stapi/OneDrive/Desktop/GD32VW553/V1_MQTT_OK/GD32VW55X_Wifi_BLE_SDK/GD32VW55x_RELEASE_V1.0.2/MSDK/cloud/alicloud/src/protocol/coap/local\CoAPNetwork.c ****     } else {
  39:C:/Users/stapi/OneDrive/Desktop/GD32VW553/V1_MQTT_OK/GD32VW55X_Wifi_BLE_SDK/GD32VW55x_RELEASE_V1.0.2/MSDK/cloud/alicloud/src/protocol/coap/local\CoAPNetwork.c **** #endif
  40:C:/Users/stapi/OneDrive/Desktop/GD32VW553/V1_MQTT_OK/GD32VW55X_Wifi_BLE_SDK/GD32VW55x_RELEASE_V1.0.2/MSDK/cloud/alicloud/src/protocol/coap/local\CoAPNetwork.c ****         len =  HAL_UDP_recvfrom(network->fd, p_remote, p_data,
  34              		.loc 1 40 9
  35              		.loc 1 40 16 is_stmt 0
  36 000a 8847     		lw	a0,8(a5)
  37 000c 17030000 		tail	HAL_UDP_recvfrom
  37      67000300 
  38              	.LVL3:
  41:C:/Users/stapi/OneDrive/Desktop/GD32VW553/V1_MQTT_OK/GD32VW55X_Wifi_BLE_SDK/GD32VW55x_RELEASE_V1.0.2/MSDK/cloud/alicloud/src/protocol/coap/local\CoAPNetwork.c ****                             datalen, timeout_ms);
  42:C:/Users/stapi/OneDrive/Desktop/GD32VW553/V1_MQTT_OK/GD32VW55X_Wifi_BLE_SDK/GD32VW55x_RELEASE_V1.0.2/MSDK/cloud/alicloud/src/protocol/coap/local\CoAPNetwork.c ****        // COAP_DEBUG("[CoAP-NWK]: Network read return %d", len);
  43:C:/Users/stapi/OneDrive/Desktop/GD32VW553/V1_MQTT_OK/GD32VW55X_Wifi_BLE_SDK/GD32VW55x_RELEASE_V1.0.2/MSDK/cloud/alicloud/src/protocol/coap/local\CoAPNetwork.c **** #ifdef COAP_DTLS_SUPPORT
  44:C:/Users/stapi/OneDrive/Desktop/GD32VW553/V1_MQTT_OK/GD32VW55X_Wifi_BLE_SDK/GD32VW55x_RELEASE_V1.0.2/MSDK/cloud/alicloud/src/protocol/coap/local\CoAPNetwork.c ****     }
  45:C:/Users/stapi/OneDrive/Desktop/GD32VW553/V1_MQTT_OK/GD32VW55X_Wifi_BLE_SDK/GD32VW55x_RELEASE_V1.0.2/MSDK/cloud/alicloud/src/protocol/coap/local\CoAPNetwork.c **** #endif
  46:C:/Users/stapi/OneDrive/Desktop/GD32VW553/V1_MQTT_OK/GD32VW55X_Wifi_BLE_SDK/GD32VW55x_RELEASE_V1.0.2/MSDK/cloud/alicloud/src/protocol/coap/local\CoAPNetwork.c ****     return len;
  39              		.loc 1 46 5 is_stmt 1
  40              	.L3:
  32:C:/Users/stapi/OneDrive/Desktop/GD32VW553/V1_MQTT_OK/GD32VW55X_Wifi_BLE_SDK/GD32VW55x_RELEASE_V1.0.2/MSDK/cloud/alicloud/src/protocol/coap/local\CoAPNetwork.c ****     }
  41              		.loc 1 32 16 is_stmt 0
  42 0014 7D55     		li	a0,-1
  43              	.LVL4:
  44 0016 8280     		ret
  45              	.LVL5:
  46              	.L7:
  47:C:/Users/stapi/OneDrive/Desktop/GD32VW553/V1_MQTT_OK/GD32VW55X_Wifi_BLE_SDK/GD32VW55x_RELEASE_V1.0.2/MSDK/cloud/alicloud/src/protocol/coap/local\CoAPNetwork.c **** }
  47              		.loc 1 47 1
  48 0018 8280     		ret
  49              		.cfi_endproc
  50              	.LFE20:
  52              		.section	.text.CoAPNetwork_write,"ax",@progbits
  53              		.align	1
  54              		.globl	CoAPNetwork_write
  56              	CoAPNetwork_write:
  57              	.LFB21:
  48:C:/Users/stapi/OneDrive/Desktop/GD32VW553/V1_MQTT_OK/GD32VW55X_Wifi_BLE_SDK/GD32VW55x_RELEASE_V1.0.2/MSDK/cloud/alicloud/src/protocol/coap/local\CoAPNetwork.c **** 
  49:C:/Users/stapi/OneDrive/Desktop/GD32VW553/V1_MQTT_OK/GD32VW55X_Wifi_BLE_SDK/GD32VW55x_RELEASE_V1.0.2/MSDK/cloud/alicloud/src/protocol/coap/local\CoAPNetwork.c **** int CoAPNetwork_write(NetworkContext          *p_context,
  50:C:/Users/stapi/OneDrive/Desktop/GD32VW553/V1_MQTT_OK/GD32VW55X_Wifi_BLE_SDK/GD32VW55x_RELEASE_V1.0.2/MSDK/cloud/alicloud/src/protocol/coap/local\CoAPNetwork.c ****                                 NetworkAddr   *p_remote,
  51:C:/Users/stapi/OneDrive/Desktop/GD32VW553/V1_MQTT_OK/GD32VW55X_Wifi_BLE_SDK/GD32VW55x_RELEASE_V1.0.2/MSDK/cloud/alicloud/src/protocol/coap/local\CoAPNetwork.c ****                          const unsigned char  *p_data,
  52:C:/Users/stapi/OneDrive/Desktop/GD32VW553/V1_MQTT_OK/GD32VW55X_Wifi_BLE_SDK/GD32VW55x_RELEASE_V1.0.2/MSDK/cloud/alicloud/src/protocol/coap/local\CoAPNetwork.c ****                          unsigned int          datalen,
  53:C:/Users/stapi/OneDrive/Desktop/GD32VW553/V1_MQTT_OK/GD32VW55X_Wifi_BLE_SDK/GD32VW55x_RELEASE_V1.0.2/MSDK/cloud/alicloud/src/protocol/coap/local\CoAPNetwork.c ****                          unsigned int          timeout_ms)
  54:C:/Users/stapi/OneDrive/Desktop/GD32VW553/V1_MQTT_OK/GD32VW55X_Wifi_BLE_SDK/GD32VW55x_RELEASE_V1.0.2/MSDK/cloud/alicloud/src/protocol/coap/local\CoAPNetwork.c **** 
  55:C:/Users/stapi/OneDrive/Desktop/GD32VW553/V1_MQTT_OK/GD32VW55X_Wifi_BLE_SDK/GD32VW55x_RELEASE_V1.0.2/MSDK/cloud/alicloud/src/protocol/coap/local\CoAPNetwork.c **** {
  58              		.loc 1 55 1 is_stmt 1
  59              		.cfi_startproc
  60              	.LVL6:
  56:C:/Users/stapi/OneDrive/Desktop/GD32VW553/V1_MQTT_OK/GD32VW55X_Wifi_BLE_SDK/GD32VW55x_RELEASE_V1.0.2/MSDK/cloud/alicloud/src/protocol/coap/local\CoAPNetwork.c **** 
  57:C:/Users/stapi/OneDrive/Desktop/GD32VW553/V1_MQTT_OK/GD32VW55X_Wifi_BLE_SDK/GD32VW55x_RELEASE_V1.0.2/MSDK/cloud/alicloud/src/protocol/coap/local\CoAPNetwork.c ****     int          len      = 0;
  61              		.loc 1 57 5
  58:C:/Users/stapi/OneDrive/Desktop/GD32VW553/V1_MQTT_OK/GD32VW55X_Wifi_BLE_SDK/GD32VW55x_RELEASE_V1.0.2/MSDK/cloud/alicloud/src/protocol/coap/local\CoAPNetwork.c ****     NetworkConf  *network = NULL;
  62              		.loc 1 58 5
  59:C:/Users/stapi/OneDrive/Desktop/GD32VW553/V1_MQTT_OK/GD32VW55X_Wifi_BLE_SDK/GD32VW55x_RELEASE_V1.0.2/MSDK/cloud/alicloud/src/protocol/coap/local\CoAPNetwork.c **** 
  60:C:/Users/stapi/OneDrive/Desktop/GD32VW553/V1_MQTT_OK/GD32VW55X_Wifi_BLE_SDK/GD32VW55x_RELEASE_V1.0.2/MSDK/cloud/alicloud/src/protocol/coap/local\CoAPNetwork.c ****     if(NULL == p_context || NULL == p_remote || NULL == p_data){
  63              		.loc 1 60 5
  64              		.loc 1 60 7 is_stmt 0
  65 0000 11C9     		beq	a0,zero,.L12
  66 0002 AA87     		mv	a5,a0
  61:C:/Users/stapi/OneDrive/Desktop/GD32VW553/V1_MQTT_OK/GD32VW55X_Wifi_BLE_SDK/GD32VW55x_RELEASE_V1.0.2/MSDK/cloud/alicloud/src/protocol/coap/local\CoAPNetwork.c ****         return -1; // TODO
  67              		.loc 1 61 16 discriminator 1
  68 0004 7D55     		li	a0,-1
  69              	.LVL7:
  60:C:/Users/stapi/OneDrive/Desktop/GD32VW553/V1_MQTT_OK/GD32VW55X_Wifi_BLE_SDK/GD32VW55x_RELEASE_V1.0.2/MSDK/cloud/alicloud/src/protocol/coap/local\CoAPNetwork.c ****         return -1; // TODO
  70              		.loc 1 60 26 discriminator 1
  71 0006 89C9     		beq	a1,zero,.L16
  60:C:/Users/stapi/OneDrive/Desktop/GD32VW553/V1_MQTT_OK/GD32VW55X_Wifi_BLE_SDK/GD32VW55x_RELEASE_V1.0.2/MSDK/cloud/alicloud/src/protocol/coap/local\CoAPNetwork.c ****         return -1; // TODO
  72              		.loc 1 60 46 discriminator 2
  73 0008 01CA     		beq	a2,zero,.L16
  62:C:/Users/stapi/OneDrive/Desktop/GD32VW553/V1_MQTT_OK/GD32VW55X_Wifi_BLE_SDK/GD32VW55x_RELEASE_V1.0.2/MSDK/cloud/alicloud/src/protocol/coap/local\CoAPNetwork.c ****     }
  63:C:/Users/stapi/OneDrive/Desktop/GD32VW553/V1_MQTT_OK/GD32VW55X_Wifi_BLE_SDK/GD32VW55x_RELEASE_V1.0.2/MSDK/cloud/alicloud/src/protocol/coap/local\CoAPNetwork.c **** 
  64:C:/Users/stapi/OneDrive/Desktop/GD32VW553/V1_MQTT_OK/GD32VW55X_Wifi_BLE_SDK/GD32VW55x_RELEASE_V1.0.2/MSDK/cloud/alicloud/src/protocol/coap/local\CoAPNetwork.c ****     network = (NetworkConf *)p_context;
  74              		.loc 1 64 5 is_stmt 1
  75              	.LVL8:
  65:C:/Users/stapi/OneDrive/Desktop/GD32VW553/V1_MQTT_OK/GD32VW55X_Wifi_BLE_SDK/GD32VW55x_RELEASE_V1.0.2/MSDK/cloud/alicloud/src/protocol/coap/local\CoAPNetwork.c **** #ifdef COAP_DTLS_SUPPORT
  66:C:/Users/stapi/OneDrive/Desktop/GD32VW553/V1_MQTT_OK/GD32VW55X_Wifi_BLE_SDK/GD32VW55x_RELEASE_V1.0.2/MSDK/cloud/alicloud/src/protocol/coap/local\CoAPNetwork.c ****     // TODO:
  67:C:/Users/stapi/OneDrive/Desktop/GD32VW553/V1_MQTT_OK/GD32VW55X_Wifi_BLE_SDK/GD32VW55x_RELEASE_V1.0.2/MSDK/cloud/alicloud/src/protocol/coap/local\CoAPNetwork.c ****     if(COAP_NETWORK_DTLS == network->type){
  68:C:/Users/stapi/OneDrive/Desktop/GD32VW553/V1_MQTT_OK/GD32VW55X_Wifi_BLE_SDK/GD32VW55x_RELEASE_V1.0.2/MSDK/cloud/alicloud/src/protocol/coap/local\CoAPNetwork.c **** 
  69:C:/Users/stapi/OneDrive/Desktop/GD32VW553/V1_MQTT_OK/GD32VW55X_Wifi_BLE_SDK/GD32VW55x_RELEASE_V1.0.2/MSDK/cloud/alicloud/src/protocol/coap/local\CoAPNetwork.c ****     }
  70:C:/Users/stapi/OneDrive/Desktop/GD32VW553/V1_MQTT_OK/GD32VW55X_Wifi_BLE_SDK/GD32VW55x_RELEASE_V1.0.2/MSDK/cloud/alicloud/src/protocol/coap/local\CoAPNetwork.c ****     else{
  71:C:/Users/stapi/OneDrive/Desktop/GD32VW553/V1_MQTT_OK/GD32VW55X_Wifi_BLE_SDK/GD32VW55x_RELEASE_V1.0.2/MSDK/cloud/alicloud/src/protocol/coap/local\CoAPNetwork.c **** #endif
  72:C:/Users/stapi/OneDrive/Desktop/GD32VW553/V1_MQTT_OK/GD32VW55X_Wifi_BLE_SDK/GD32VW55x_RELEASE_V1.0.2/MSDK/cloud/alicloud/src/protocol/coap/local\CoAPNetwork.c ****         len = HAL_UDP_sendto(network->fd, p_remote,
  76              		.loc 1 72 9
  77              		.loc 1 72 15 is_stmt 0
  78 000a 8847     		lw	a0,8(a5)
  79 000c 17030000 		tail	HAL_UDP_sendto
  79      67000300 
  80              	.LVL9:
  73:C:/Users/stapi/OneDrive/Desktop/GD32VW553/V1_MQTT_OK/GD32VW55X_Wifi_BLE_SDK/GD32VW55x_RELEASE_V1.0.2/MSDK/cloud/alicloud/src/protocol/coap/local\CoAPNetwork.c ****                        p_data, datalen, timeout_ms);
  74:C:/Users/stapi/OneDrive/Desktop/GD32VW553/V1_MQTT_OK/GD32VW55X_Wifi_BLE_SDK/GD32VW55x_RELEASE_V1.0.2/MSDK/cloud/alicloud/src/protocol/coap/local\CoAPNetwork.c **** #ifdef COAP_DTLS_SUPPORT
  75:C:/Users/stapi/OneDrive/Desktop/GD32VW553/V1_MQTT_OK/GD32VW55X_Wifi_BLE_SDK/GD32VW55x_RELEASE_V1.0.2/MSDK/cloud/alicloud/src/protocol/coap/local\CoAPNetwork.c ****     }
  76:C:/Users/stapi/OneDrive/Desktop/GD32VW553/V1_MQTT_OK/GD32VW55X_Wifi_BLE_SDK/GD32VW55x_RELEASE_V1.0.2/MSDK/cloud/alicloud/src/protocol/coap/local\CoAPNetwork.c **** #endif
  77:C:/Users/stapi/OneDrive/Desktop/GD32VW553/V1_MQTT_OK/GD32VW55X_Wifi_BLE_SDK/GD32VW55x_RELEASE_V1.0.2/MSDK/cloud/alicloud/src/protocol/coap/local\CoAPNetwork.c ****     return len;
  81              		.loc 1 77 5 is_stmt 1
  82              	.L12:
  61:C:/Users/stapi/OneDrive/Desktop/GD32VW553/V1_MQTT_OK/GD32VW55X_Wifi_BLE_SDK/GD32VW55x_RELEASE_V1.0.2/MSDK/cloud/alicloud/src/protocol/coap/local\CoAPNetwork.c ****     }
  83              		.loc 1 61 16 is_stmt 0
  84 0014 7D55     		li	a0,-1
  85              	.LVL10:
  86 0016 8280     		ret
  87              	.LVL11:
  88              	.L16:
  78:C:/Users/stapi/OneDrive/Desktop/GD32VW553/V1_MQTT_OK/GD32VW55X_Wifi_BLE_SDK/GD32VW55x_RELEASE_V1.0.2/MSDK/cloud/alicloud/src/protocol/coap/local\CoAPNetwork.c **** }
  89              		.loc 1 78 1
  90 0018 8280     		ret
  91              		.cfi_endproc
  92              	.LFE21:
  94              		.section	.text.CoAPNetwork_init,"ax",@progbits
  95              		.align	1
  96              		.globl	CoAPNetwork_init
  98              	CoAPNetwork_init:
  99              	.LFB22:
  79:C:/Users/stapi/OneDrive/Desktop/GD32VW553/V1_MQTT_OK/GD32VW55X_Wifi_BLE_SDK/GD32VW55x_RELEASE_V1.0.2/MSDK/cloud/alicloud/src/protocol/coap/local\CoAPNetwork.c **** 
  80:C:/Users/stapi/OneDrive/Desktop/GD32VW553/V1_MQTT_OK/GD32VW55X_Wifi_BLE_SDK/GD32VW55x_RELEASE_V1.0.2/MSDK/cloud/alicloud/src/protocol/coap/local\CoAPNetwork.c **** 
  81:C:/Users/stapi/OneDrive/Desktop/GD32VW553/V1_MQTT_OK/GD32VW55X_Wifi_BLE_SDK/GD32VW55x_RELEASE_V1.0.2/MSDK/cloud/alicloud/src/protocol/coap/local\CoAPNetwork.c **** NetworkContext *CoAPNetwork_init (const NetworkInit   *p_param)
  82:C:/Users/stapi/OneDrive/Desktop/GD32VW553/V1_MQTT_OK/GD32VW55X_Wifi_BLE_SDK/GD32VW55x_RELEASE_V1.0.2/MSDK/cloud/alicloud/src/protocol/coap/local\CoAPNetwork.c **** {
 100              		.loc 1 82 1 is_stmt 1
 101              		.cfi_startproc
 102              	.LVL12:
 103 0000 17030000 		call	t0,__riscv_save_2
 103      E7020300 
 104              		.cfi_offset 9, -12
 105              		.cfi_offset 8, -8
 106              		.cfi_offset 1, -4
 107              		.cfi_def_cfa_offset 16
  83:C:/Users/stapi/OneDrive/Desktop/GD32VW553/V1_MQTT_OK/GD32VW55X_Wifi_BLE_SDK/GD32VW55x_RELEASE_V1.0.2/MSDK/cloud/alicloud/src/protocol/coap/local\CoAPNetwork.c ****     NetworkConf     *network = NULL;
 108              		.loc 1 83 5
 109              	.LVL13:
  84:C:/Users/stapi/OneDrive/Desktop/GD32VW553/V1_MQTT_OK/GD32VW55X_Wifi_BLE_SDK/GD32VW55x_RELEASE_V1.0.2/MSDK/cloud/alicloud/src/protocol/coap/local\CoAPNetwork.c **** 
  85:C:/Users/stapi/OneDrive/Desktop/GD32VW553/V1_MQTT_OK/GD32VW55X_Wifi_BLE_SDK/GD32VW55x_RELEASE_V1.0.2/MSDK/cloud/alicloud/src/protocol/coap/local\CoAPNetwork.c ****     if (NULL == p_param) {
 110              		.loc 1 85 5
 111              		.loc 1 85 8 is_stmt 0
 112 0008 19E5     		bne	a0,zero,.L20
 113              	.LVL14:
 114              	.L28:
  86:C:/Users/stapi/OneDrive/Desktop/GD32VW553/V1_MQTT_OK/GD32VW55X_Wifi_BLE_SDK/GD32VW55x_RELEASE_V1.0.2/MSDK/cloud/alicloud/src/protocol/coap/local\CoAPNetwork.c ****         return NULL;
  87:C:/Users/stapi/OneDrive/Desktop/GD32VW553/V1_MQTT_OK/GD32VW55X_Wifi_BLE_SDK/GD32VW55x_RELEASE_V1.0.2/MSDK/cloud/alicloud/src/protocol/coap/local\CoAPNetwork.c ****     }
  88:C:/Users/stapi/OneDrive/Desktop/GD32VW553/V1_MQTT_OK/GD32VW55X_Wifi_BLE_SDK/GD32VW55x_RELEASE_V1.0.2/MSDK/cloud/alicloud/src/protocol/coap/local\CoAPNetwork.c **** 
  89:C:/Users/stapi/OneDrive/Desktop/GD32VW553/V1_MQTT_OK/GD32VW55X_Wifi_BLE_SDK/GD32VW55x_RELEASE_V1.0.2/MSDK/cloud/alicloud/src/protocol/coap/local\CoAPNetwork.c ****     network = coap_malloc(sizeof(NetworkConf));
  90:C:/Users/stapi/OneDrive/Desktop/GD32VW553/V1_MQTT_OK/GD32VW55X_Wifi_BLE_SDK/GD32VW55x_RELEASE_V1.0.2/MSDK/cloud/alicloud/src/protocol/coap/local\CoAPNetwork.c ****     if(NULL == network){
  91:C:/Users/stapi/OneDrive/Desktop/GD32VW553/V1_MQTT_OK/GD32VW55X_Wifi_BLE_SDK/GD32VW55x_RELEASE_V1.0.2/MSDK/cloud/alicloud/src/protocol/coap/local\CoAPNetwork.c ****         return NULL;
  92:C:/Users/stapi/OneDrive/Desktop/GD32VW553/V1_MQTT_OK/GD32VW55X_Wifi_BLE_SDK/GD32VW55x_RELEASE_V1.0.2/MSDK/cloud/alicloud/src/protocol/coap/local\CoAPNetwork.c ****     }
  93:C:/Users/stapi/OneDrive/Desktop/GD32VW553/V1_MQTT_OK/GD32VW55X_Wifi_BLE_SDK/GD32VW55x_RELEASE_V1.0.2/MSDK/cloud/alicloud/src/protocol/coap/local\CoAPNetwork.c **** 
  94:C:/Users/stapi/OneDrive/Desktop/GD32VW553/V1_MQTT_OK/GD32VW55X_Wifi_BLE_SDK/GD32VW55x_RELEASE_V1.0.2/MSDK/cloud/alicloud/src/protocol/coap/local\CoAPNetwork.c ****     memset(network, 0x00, sizeof(NetworkConf));
  95:C:/Users/stapi/OneDrive/Desktop/GD32VW553/V1_MQTT_OK/GD32VW55X_Wifi_BLE_SDK/GD32VW55x_RELEASE_V1.0.2/MSDK/cloud/alicloud/src/protocol/coap/local\CoAPNetwork.c ****     network->type = p_param->type;
  96:C:/Users/stapi/OneDrive/Desktop/GD32VW553/V1_MQTT_OK/GD32VW55X_Wifi_BLE_SDK/GD32VW55x_RELEASE_V1.0.2/MSDK/cloud/alicloud/src/protocol/coap/local\CoAPNetwork.c **** 
  97:C:/Users/stapi/OneDrive/Desktop/GD32VW553/V1_MQTT_OK/GD32VW55X_Wifi_BLE_SDK/GD32VW55x_RELEASE_V1.0.2/MSDK/cloud/alicloud/src/protocol/coap/local\CoAPNetwork.c **** #ifdef COAP_DTLS_SUPPORT
  98:C:/Users/stapi/OneDrive/Desktop/GD32VW553/V1_MQTT_OK/GD32VW55X_Wifi_BLE_SDK/GD32VW55x_RELEASE_V1.0.2/MSDK/cloud/alicloud/src/protocol/coap/local\CoAPNetwork.c ****     if (COAP_NETWORK_DTLS == network->type) {
  99:C:/Users/stapi/OneDrive/Desktop/GD32VW553/V1_MQTT_OK/GD32VW55X_Wifi_BLE_SDK/GD32VW55x_RELEASE_V1.0.2/MSDK/cloud/alicloud/src/protocol/coap/local\CoAPNetwork.c ****         // TODO:
 100:C:/Users/stapi/OneDrive/Desktop/GD32VW553/V1_MQTT_OK/GD32VW55X_Wifi_BLE_SDK/GD32VW55x_RELEASE_V1.0.2/MSDK/cloud/alicloud/src/protocol/coap/local\CoAPNetwork.c ****         coap_free(network);
 101:C:/Users/stapi/OneDrive/Desktop/GD32VW553/V1_MQTT_OK/GD32VW55X_Wifi_BLE_SDK/GD32VW55x_RELEASE_V1.0.2/MSDK/cloud/alicloud/src/protocol/coap/local\CoAPNetwork.c ****         return NULL;
 102:C:/Users/stapi/OneDrive/Desktop/GD32VW553/V1_MQTT_OK/GD32VW55X_Wifi_BLE_SDK/GD32VW55x_RELEASE_V1.0.2/MSDK/cloud/alicloud/src/protocol/coap/local\CoAPNetwork.c ****     }else{
 103:C:/Users/stapi/OneDrive/Desktop/GD32VW553/V1_MQTT_OK/GD32VW55X_Wifi_BLE_SDK/GD32VW55x_RELEASE_V1.0.2/MSDK/cloud/alicloud/src/protocol/coap/local\CoAPNetwork.c **** #endif
 104:C:/Users/stapi/OneDrive/Desktop/GD32VW553/V1_MQTT_OK/GD32VW55X_Wifi_BLE_SDK/GD32VW55x_RELEASE_V1.0.2/MSDK/cloud/alicloud/src/protocol/coap/local\CoAPNetwork.c ****         /*Create udp socket*/
 105:C:/Users/stapi/OneDrive/Desktop/GD32VW553/V1_MQTT_OK/GD32VW55X_Wifi_BLE_SDK/GD32VW55x_RELEASE_V1.0.2/MSDK/cloud/alicloud/src/protocol/coap/local\CoAPNetwork.c ****         network->port = p_param->port;
 106:C:/Users/stapi/OneDrive/Desktop/GD32VW553/V1_MQTT_OK/GD32VW55X_Wifi_BLE_SDK/GD32VW55x_RELEASE_V1.0.2/MSDK/cloud/alicloud/src/protocol/coap/local\CoAPNetwork.c ****         network->fd = (intptr_t)HAL_UDP_create_without_connect(NULL, network->port);
 107:C:/Users/stapi/OneDrive/Desktop/GD32VW553/V1_MQTT_OK/GD32VW55X_Wifi_BLE_SDK/GD32VW55x_RELEASE_V1.0.2/MSDK/cloud/alicloud/src/protocol/coap/local\CoAPNetwork.c ****         if ((intptr_t)-1 == network->fd) {
 108:C:/Users/stapi/OneDrive/Desktop/GD32VW553/V1_MQTT_OK/GD32VW55X_Wifi_BLE_SDK/GD32VW55x_RELEASE_V1.0.2/MSDK/cloud/alicloud/src/protocol/coap/local\CoAPNetwork.c ****             coap_free(network);
 109:C:/Users/stapi/OneDrive/Desktop/GD32VW553/V1_MQTT_OK/GD32VW55X_Wifi_BLE_SDK/GD32VW55x_RELEASE_V1.0.2/MSDK/cloud/alicloud/src/protocol/coap/local\CoAPNetwork.c ****             return NULL;
 115              		.loc 1 109 13 is_stmt 1
 116              		.loc 1 109 20 is_stmt 0
 117 000a 0144     		li	s0,0
 118              	.L19:
 110:C:/Users/stapi/OneDrive/Desktop/GD32VW553/V1_MQTT_OK/GD32VW55X_Wifi_BLE_SDK/GD32VW55x_RELEASE_V1.0.2/MSDK/cloud/alicloud/src/protocol/coap/local\CoAPNetwork.c ****         }
 111:C:/Users/stapi/OneDrive/Desktop/GD32VW553/V1_MQTT_OK/GD32VW55X_Wifi_BLE_SDK/GD32VW55x_RELEASE_V1.0.2/MSDK/cloud/alicloud/src/protocol/coap/local\CoAPNetwork.c **** 
 112:C:/Users/stapi/OneDrive/Desktop/GD32VW553/V1_MQTT_OK/GD32VW55X_Wifi_BLE_SDK/GD32VW55x_RELEASE_V1.0.2/MSDK/cloud/alicloud/src/protocol/coap/local\CoAPNetwork.c ****         HAL_UDP_joinmulticast(network->fd, p_param->group);
 113:C:/Users/stapi/OneDrive/Desktop/GD32VW553/V1_MQTT_OK/GD32VW55X_Wifi_BLE_SDK/GD32VW55x_RELEASE_V1.0.2/MSDK/cloud/alicloud/src/protocol/coap/local\CoAPNetwork.c **** #ifdef COAP_DTLS_SUPPORT
 114:C:/Users/stapi/OneDrive/Desktop/GD32VW553/V1_MQTT_OK/GD32VW55X_Wifi_BLE_SDK/GD32VW55x_RELEASE_V1.0.2/MSDK/cloud/alicloud/src/protocol/coap/local\CoAPNetwork.c ****     }
 115:C:/Users/stapi/OneDrive/Desktop/GD32VW553/V1_MQTT_OK/GD32VW55X_Wifi_BLE_SDK/GD32VW55x_RELEASE_V1.0.2/MSDK/cloud/alicloud/src/protocol/coap/local\CoAPNetwork.c **** #endif
 116:C:/Users/stapi/OneDrive/Desktop/GD32VW553/V1_MQTT_OK/GD32VW55X_Wifi_BLE_SDK/GD32VW55x_RELEASE_V1.0.2/MSDK/cloud/alicloud/src/protocol/coap/local\CoAPNetwork.c ****     return (NetworkContext *)network;
 117:C:/Users/stapi/OneDrive/Desktop/GD32VW553/V1_MQTT_OK/GD32VW55X_Wifi_BLE_SDK/GD32VW55x_RELEASE_V1.0.2/MSDK/cloud/alicloud/src/protocol/coap/local\CoAPNetwork.c **** }
 119              		.loc 1 117 1
 120 000c 2285     		mv	a0,s0
 121 000e 17030000 		tail	__riscv_restore_2
 121      67000300 
 122              		.cfi_remember_state
 123              		.cfi_restore 9
 124              		.cfi_restore 8
 125              		.cfi_restore 1
 126              		.cfi_def_cfa_offset 0
 127              	.LVL15:
 128              	.L20:
 129              		.cfi_restore_state
 130 0016 AA84     		mv	s1,a0
  89:C:/Users/stapi/OneDrive/Desktop/GD32VW553/V1_MQTT_OK/GD32VW55X_Wifi_BLE_SDK/GD32VW55x_RELEASE_V1.0.2/MSDK/cloud/alicloud/src/protocol/coap/local\CoAPNetwork.c ****     if(NULL == network){
 131              		.loc 1 89 5 is_stmt 1
  89:C:/Users/stapi/OneDrive/Desktop/GD32VW553/V1_MQTT_OK/GD32VW55X_Wifi_BLE_SDK/GD32VW55x_RELEASE_V1.0.2/MSDK/cloud/alicloud/src/protocol/coap/local\CoAPNetwork.c ****     if(NULL == network){
 132              		.loc 1 89 15 is_stmt 0
 133 0018 3146     		li	a2,12
 134 001a 8145     		li	a1,0
 135 001c 0145     		li	a0,0
 136              	.LVL16:
 137 001e 97000000 		call	LITE_malloc_internal
 137      E7800000 
 138              	.LVL17:
 139 0026 2A84     		mv	s0,a0
 140              	.LVL18:
  90:C:/Users/stapi/OneDrive/Desktop/GD32VW553/V1_MQTT_OK/GD32VW55X_Wifi_BLE_SDK/GD32VW55x_RELEASE_V1.0.2/MSDK/cloud/alicloud/src/protocol/coap/local\CoAPNetwork.c ****         return NULL;
 141              		.loc 1 90 5 is_stmt 1
  90:C:/Users/stapi/OneDrive/Desktop/GD32VW553/V1_MQTT_OK/GD32VW55X_Wifi_BLE_SDK/GD32VW55x_RELEASE_V1.0.2/MSDK/cloud/alicloud/src/protocol/coap/local\CoAPNetwork.c ****         return NULL;
 142              		.loc 1 90 7 is_stmt 0
 143 0028 6DD1     		beq	a0,zero,.L28
  94:C:/Users/stapi/OneDrive/Desktop/GD32VW553/V1_MQTT_OK/GD32VW55X_Wifi_BLE_SDK/GD32VW55x_RELEASE_V1.0.2/MSDK/cloud/alicloud/src/protocol/coap/local\CoAPNetwork.c ****     network->type = p_param->type;
 144              		.loc 1 94 5 is_stmt 1
 145 002a 3146     		li	a2,12
 146 002c 8145     		li	a1,0
 147 002e 97000000 		call	memset
 147      E7800000 
 148              	.LVL19:
  95:C:/Users/stapi/OneDrive/Desktop/GD32VW553/V1_MQTT_OK/GD32VW55X_Wifi_BLE_SDK/GD32VW55x_RELEASE_V1.0.2/MSDK/cloud/alicloud/src/protocol/coap/local\CoAPNetwork.c **** 
 149              		.loc 1 95 5
  95:C:/Users/stapi/OneDrive/Desktop/GD32VW553/V1_MQTT_OK/GD32VW55X_Wifi_BLE_SDK/GD32VW55x_RELEASE_V1.0.2/MSDK/cloud/alicloud/src/protocol/coap/local\CoAPNetwork.c **** 
 150              		.loc 1 95 19 is_stmt 0
 151 0036 9C40     		lw	a5,0(s1)
 105:C:/Users/stapi/OneDrive/Desktop/GD32VW553/V1_MQTT_OK/GD32VW55X_Wifi_BLE_SDK/GD32VW55x_RELEASE_V1.0.2/MSDK/cloud/alicloud/src/protocol/coap/local\CoAPNetwork.c ****         network->fd = (intptr_t)HAL_UDP_create_without_connect(NULL, network->port);
 152              		.loc 1 105 32
 153 0038 83D58400 		lhu	a1,8(s1)
 106:C:/Users/stapi/OneDrive/Desktop/GD32VW553/V1_MQTT_OK/GD32VW55X_Wifi_BLE_SDK/GD32VW55x_RELEASE_V1.0.2/MSDK/cloud/alicloud/src/protocol/coap/local\CoAPNetwork.c ****         if ((intptr_t)-1 == network->fd) {
 154              		.loc 1 106 33
 155 003c 0145     		li	a0,0
  95:C:/Users/stapi/OneDrive/Desktop/GD32VW553/V1_MQTT_OK/GD32VW55X_Wifi_BLE_SDK/GD32VW55x_RELEASE_V1.0.2/MSDK/cloud/alicloud/src/protocol/coap/local\CoAPNetwork.c **** 
 156              		.loc 1 95 19
 157 003e 1CC0     		sw	a5,0(s0)
 105:C:/Users/stapi/OneDrive/Desktop/GD32VW553/V1_MQTT_OK/GD32VW55X_Wifi_BLE_SDK/GD32VW55x_RELEASE_V1.0.2/MSDK/cloud/alicloud/src/protocol/coap/local\CoAPNetwork.c ****         network->fd = (intptr_t)HAL_UDP_create_without_connect(NULL, network->port);
 158              		.loc 1 105 9 is_stmt 1
 105:C:/Users/stapi/OneDrive/Desktop/GD32VW553/V1_MQTT_OK/GD32VW55X_Wifi_BLE_SDK/GD32VW55x_RELEASE_V1.0.2/MSDK/cloud/alicloud/src/protocol/coap/local\CoAPNetwork.c ****         network->fd = (intptr_t)HAL_UDP_create_without_connect(NULL, network->port);
 159              		.loc 1 105 23 is_stmt 0
 160 0040 2312B400 		sh	a1,4(s0)
 106:C:/Users/stapi/OneDrive/Desktop/GD32VW553/V1_MQTT_OK/GD32VW55X_Wifi_BLE_SDK/GD32VW55x_RELEASE_V1.0.2/MSDK/cloud/alicloud/src/protocol/coap/local\CoAPNetwork.c ****         if ((intptr_t)-1 == network->fd) {
 161              		.loc 1 106 9 is_stmt 1
 106:C:/Users/stapi/OneDrive/Desktop/GD32VW553/V1_MQTT_OK/GD32VW55X_Wifi_BLE_SDK/GD32VW55x_RELEASE_V1.0.2/MSDK/cloud/alicloud/src/protocol/coap/local\CoAPNetwork.c ****         if ((intptr_t)-1 == network->fd) {
 162              		.loc 1 106 33 is_stmt 0
 163 0044 97000000 		call	HAL_UDP_create_without_connect
 163      E7800000 
 164              	.LVL20:
 106:C:/Users/stapi/OneDrive/Desktop/GD32VW553/V1_MQTT_OK/GD32VW55X_Wifi_BLE_SDK/GD32VW55x_RELEASE_V1.0.2/MSDK/cloud/alicloud/src/protocol/coap/local\CoAPNetwork.c ****         if ((intptr_t)-1 == network->fd) {
 165              		.loc 1 106 21
 166 004c 08C4     		sw	a0,8(s0)
 107:C:/Users/stapi/OneDrive/Desktop/GD32VW553/V1_MQTT_OK/GD32VW55X_Wifi_BLE_SDK/GD32VW55x_RELEASE_V1.0.2/MSDK/cloud/alicloud/src/protocol/coap/local\CoAPNetwork.c ****             coap_free(network);
 167              		.loc 1 107 9 is_stmt 1
 107:C:/Users/stapi/OneDrive/Desktop/GD32VW553/V1_MQTT_OK/GD32VW55X_Wifi_BLE_SDK/GD32VW55x_RELEASE_V1.0.2/MSDK/cloud/alicloud/src/protocol/coap/local\CoAPNetwork.c ****             coap_free(network);
 168              		.loc 1 107 12 is_stmt 0
 169 004e 7D57     		li	a4,-1
 170 0050 6318E500 		bne	a0,a4,.L23
 108:C:/Users/stapi/OneDrive/Desktop/GD32VW553/V1_MQTT_OK/GD32VW55X_Wifi_BLE_SDK/GD32VW55x_RELEASE_V1.0.2/MSDK/cloud/alicloud/src/protocol/coap/local\CoAPNetwork.c ****             return NULL;
 171              		.loc 1 108 13 is_stmt 1
 172 0054 2285     		mv	a0,s0
 173 0056 97000000 		call	LITE_free_internal
 173      E7800000 
 174              	.LVL21:
 175 005e 75B7     		j	.L28
 176              	.L23:
 112:C:/Users/stapi/OneDrive/Desktop/GD32VW553/V1_MQTT_OK/GD32VW55X_Wifi_BLE_SDK/GD32VW55x_RELEASE_V1.0.2/MSDK/cloud/alicloud/src/protocol/coap/local\CoAPNetwork.c **** #ifdef COAP_DTLS_SUPPORT
 177              		.loc 1 112 9
 178 0060 CC40     		lw	a1,4(s1)
 179 0062 97000000 		call	HAL_UDP_joinmulticast
 179      E7800000 
 180              	.LVL22:
 116:C:/Users/stapi/OneDrive/Desktop/GD32VW553/V1_MQTT_OK/GD32VW55X_Wifi_BLE_SDK/GD32VW55x_RELEASE_V1.0.2/MSDK/cloud/alicloud/src/protocol/coap/local\CoAPNetwork.c **** }
 181              		.loc 1 116 5
 116:C:/Users/stapi/OneDrive/Desktop/GD32VW553/V1_MQTT_OK/GD32VW55X_Wifi_BLE_SDK/GD32VW55x_RELEASE_V1.0.2/MSDK/cloud/alicloud/src/protocol/coap/local\CoAPNetwork.c **** }
 182              		.loc 1 116 12 is_stmt 0
 183 006a 4DB7     		j	.L19
 184              		.cfi_endproc
 185              	.LFE22:
 187              		.section	.text.CoAPNetwork_deinit,"ax",@progbits
 188              		.align	1
 189              		.globl	CoAPNetwork_deinit
 191              	CoAPNetwork_deinit:
 192              	.LFB23:
 118:C:/Users/stapi/OneDrive/Desktop/GD32VW553/V1_MQTT_OK/GD32VW55X_Wifi_BLE_SDK/GD32VW55x_RELEASE_V1.0.2/MSDK/cloud/alicloud/src/protocol/coap/local\CoAPNetwork.c **** 
 119:C:/Users/stapi/OneDrive/Desktop/GD32VW553/V1_MQTT_OK/GD32VW55X_Wifi_BLE_SDK/GD32VW55x_RELEASE_V1.0.2/MSDK/cloud/alicloud/src/protocol/coap/local\CoAPNetwork.c **** 
 120:C:/Users/stapi/OneDrive/Desktop/GD32VW553/V1_MQTT_OK/GD32VW55X_Wifi_BLE_SDK/GD32VW55x_RELEASE_V1.0.2/MSDK/cloud/alicloud/src/protocol/coap/local\CoAPNetwork.c **** void CoAPNetwork_deinit(NetworkContext *p_context)
 121:C:/Users/stapi/OneDrive/Desktop/GD32VW553/V1_MQTT_OK/GD32VW55X_Wifi_BLE_SDK/GD32VW55x_RELEASE_V1.0.2/MSDK/cloud/alicloud/src/protocol/coap/local\CoAPNetwork.c **** {
 193              		.loc 1 121 1 is_stmt 1
 194              		.cfi_startproc
 195              	.LVL23:
 122:C:/Users/stapi/OneDrive/Desktop/GD32VW553/V1_MQTT_OK/GD32VW55X_Wifi_BLE_SDK/GD32VW55x_RELEASE_V1.0.2/MSDK/cloud/alicloud/src/protocol/coap/local\CoAPNetwork.c ****     NetworkConf     *network = NULL;
 196              		.loc 1 122 5
 123:C:/Users/stapi/OneDrive/Desktop/GD32VW553/V1_MQTT_OK/GD32VW55X_Wifi_BLE_SDK/GD32VW55x_RELEASE_V1.0.2/MSDK/cloud/alicloud/src/protocol/coap/local\CoAPNetwork.c ****     if(NULL == p_context)
 197              		.loc 1 123 5
 198              		.loc 1 123 7 is_stmt 0
 199 0000 05C5     		beq	a0,zero,.L35
 121:C:/Users/stapi/OneDrive/Desktop/GD32VW553/V1_MQTT_OK/GD32VW55X_Wifi_BLE_SDK/GD32VW55x_RELEASE_V1.0.2/MSDK/cloud/alicloud/src/protocol/coap/local\CoAPNetwork.c ****     NetworkConf     *network = NULL;
 200              		.loc 1 121 1
 201 0002 17030000 		call	t0,__riscv_save_1
 201      E7020300 
 202              		.cfi_offset 8, -8
 203              		.cfi_offset 1, -4
 204              		.cfi_def_cfa_offset 16
 205 000a 2A84     		mv	s0,a0
 124:C:/Users/stapi/OneDrive/Desktop/GD32VW553/V1_MQTT_OK/GD32VW55X_Wifi_BLE_SDK/GD32VW55x_RELEASE_V1.0.2/MSDK/cloud/alicloud/src/protocol/coap/local\CoAPNetwork.c ****         return;
 125:C:/Users/stapi/OneDrive/Desktop/GD32VW553/V1_MQTT_OK/GD32VW55X_Wifi_BLE_SDK/GD32VW55x_RELEASE_V1.0.2/MSDK/cloud/alicloud/src/protocol/coap/local\CoAPNetwork.c **** 
 126:C:/Users/stapi/OneDrive/Desktop/GD32VW553/V1_MQTT_OK/GD32VW55X_Wifi_BLE_SDK/GD32VW55x_RELEASE_V1.0.2/MSDK/cloud/alicloud/src/protocol/coap/local\CoAPNetwork.c ****     network = (NetworkConf *)p_context;
 206              		.loc 1 126 5 is_stmt 1
 207              	.LVL24:
 127:C:/Users/stapi/OneDrive/Desktop/GD32VW553/V1_MQTT_OK/GD32VW55X_Wifi_BLE_SDK/GD32VW55x_RELEASE_V1.0.2/MSDK/cloud/alicloud/src/protocol/coap/local\CoAPNetwork.c **** #ifdef COAP_DTLS_SUPPORT
 128:C:/Users/stapi/OneDrive/Desktop/GD32VW553/V1_MQTT_OK/GD32VW55X_Wifi_BLE_SDK/GD32VW55x_RELEASE_V1.0.2/MSDK/cloud/alicloud/src/protocol/coap/local\CoAPNetwork.c ****     if (COAP_NETWORK_DTLS == network->type) {
 129:C:/Users/stapi/OneDrive/Desktop/GD32VW553/V1_MQTT_OK/GD32VW55X_Wifi_BLE_SDK/GD32VW55x_RELEASE_V1.0.2/MSDK/cloud/alicloud/src/protocol/coap/local\CoAPNetwork.c ****         // TODO:
 130:C:/Users/stapi/OneDrive/Desktop/GD32VW553/V1_MQTT_OK/GD32VW55X_Wifi_BLE_SDK/GD32VW55x_RELEASE_V1.0.2/MSDK/cloud/alicloud/src/protocol/coap/local\CoAPNetwork.c ****     }else{
 131:C:/Users/stapi/OneDrive/Desktop/GD32VW553/V1_MQTT_OK/GD32VW55X_Wifi_BLE_SDK/GD32VW55x_RELEASE_V1.0.2/MSDK/cloud/alicloud/src/protocol/coap/local\CoAPNetwork.c **** #endif
 132:C:/Users/stapi/OneDrive/Desktop/GD32VW553/V1_MQTT_OK/GD32VW55X_Wifi_BLE_SDK/GD32VW55x_RELEASE_V1.0.2/MSDK/cloud/alicloud/src/protocol/coap/local\CoAPNetwork.c ****         HAL_UDP_close_without_connect(network->fd);
 208              		.loc 1 132 9
 209 000c 0845     		lw	a0,8(a0)
 210              	.LVL25:
 211 000e 97000000 		call	HAL_UDP_close_without_connect
 211      E7800000 
 212              	.LVL26:
 133:C:/Users/stapi/OneDrive/Desktop/GD32VW553/V1_MQTT_OK/GD32VW55X_Wifi_BLE_SDK/GD32VW55x_RELEASE_V1.0.2/MSDK/cloud/alicloud/src/protocol/coap/local\CoAPNetwork.c ****         coap_free(p_context);
 213              		.loc 1 133 9
 214 0016 2285     		mv	a0,s0
 215 0018 97000000 		call	LITE_free_internal
 215      E7800000 
 216              	.LVL27:
 134:C:/Users/stapi/OneDrive/Desktop/GD32VW553/V1_MQTT_OK/GD32VW55X_Wifi_BLE_SDK/GD32VW55x_RELEASE_V1.0.2/MSDK/cloud/alicloud/src/protocol/coap/local\CoAPNetwork.c ****         p_context = NULL;
 217              		.loc 1 134 9
 135:C:/Users/stapi/OneDrive/Desktop/GD32VW553/V1_MQTT_OK/GD32VW55X_Wifi_BLE_SDK/GD32VW55x_RELEASE_V1.0.2/MSDK/cloud/alicloud/src/protocol/coap/local\CoAPNetwork.c **** #ifdef COAP_DTLS_SUPPORT
 136:C:/Users/stapi/OneDrive/Desktop/GD32VW553/V1_MQTT_OK/GD32VW55X_Wifi_BLE_SDK/GD32VW55x_RELEASE_V1.0.2/MSDK/cloud/alicloud/src/protocol/coap/local\CoAPNetwork.c ****     }
 137:C:/Users/stapi/OneDrive/Desktop/GD32VW553/V1_MQTT_OK/GD32VW55X_Wifi_BLE_SDK/GD32VW55x_RELEASE_V1.0.2/MSDK/cloud/alicloud/src/protocol/coap/local\CoAPNetwork.c **** #endif
 138:C:/Users/stapi/OneDrive/Desktop/GD32VW553/V1_MQTT_OK/GD32VW55X_Wifi_BLE_SDK/GD32VW55x_RELEASE_V1.0.2/MSDK/cloud/alicloud/src/protocol/coap/local\CoAPNetwork.c ****     return;
 218              		.loc 1 138 5
 139:C:/Users/stapi/OneDrive/Desktop/GD32VW553/V1_MQTT_OK/GD32VW55X_Wifi_BLE_SDK/GD32VW55x_RELEASE_V1.0.2/MSDK/cloud/alicloud/src/protocol/coap/local\CoAPNetwork.c **** }
 219              		.loc 1 139 1 is_stmt 0
 220 0020 17030000 		tail	__riscv_restore_1
 220      67000300 
 221              		.cfi_restore 8
 222              		.cfi_restore 1
 223              		.cfi_def_cfa_offset 0
 224              	.LVL28:
 225              	.L35:
 226 0028 8280     		ret
 227              		.cfi_endproc
 228              	.LFE23:
 230              		.text
 231              	.Letext0:
 232              		.file 2 "c:\\users\\stapi\\onedrive\\desktop\\gd32vw553\\embeddedbuilder_v1.4.7.26843\\tools\\nucl
 233              		.file 3 "c:\\users\\stapi\\onedrive\\desktop\\gd32vw553\\embeddedbuilder_v1.4.7.26843\\tools\\nucl
 234              		.file 4 "..\\..\\..\\..\\cloud\\alicloud\\include/iot_import.h"
 235              		.file 5 "C:/Users/stapi/OneDrive/Desktop/GD32VW553/V1_MQTT_OK/GD32VW55X_Wifi_BLE_SDK/GD32VW55x_REL
 236              		.file 6 "..\\..\\..\\..\\cloud\\alicloud\\include/imports/iot_import_udp.h"
 237              		.file 7 "..\\..\\..\\..\\cloud\\alicloud\\src\\infra\\utils/iotx_utils.h"
 238              		.file 8 "<built-in>"
DEFINED SYMBOLS
                            *ABS*:0000000000000000 CoAPNetwork.c
C:\Users\stapi\AppData\Local\Temp\ccVjgIkW.s:13     .text.CoAPNetwork_read:0000000000000000 CoAPNetwork_read
C:\Users\stapi\AppData\Local\Temp\ccVjgIkW.s:17     .text.CoAPNetwork_read:0000000000000000 .L0 
C:\Users\stapi\AppData\Local\Temp\ccVjgIkW.s:19     .text.CoAPNetwork_read:0000000000000000 .L0 
C:\Users\stapi\AppData\Local\Temp\ccVjgIkW.s:20     .text.CoAPNetwork_read:0000000000000000 .L0 
C:\Users\stapi\AppData\Local\Temp\ccVjgIkW.s:21     .text.CoAPNetwork_read:0000000000000000 .L0 
C:\Users\stapi\AppData\Local\Temp\ccVjgIkW.s:22     .text.CoAPNetwork_read:0000000000000000 .L0 
C:\Users\stapi\AppData\Local\Temp\ccVjgIkW.s:23     .text.CoAPNetwork_read:0000000000000000 .L0 
C:\Users\stapi\AppData\Local\Temp\ccVjgIkW.s:26     .text.CoAPNetwork_read:0000000000000004 .L0 
C:\Users\stapi\AppData\Local\Temp\ccVjgIkW.s:29     .text.CoAPNetwork_read:0000000000000006 .L0 
C:\Users\stapi\AppData\Local\Temp\ccVjgIkW.s:31     .text.CoAPNetwork_read:0000000000000008 .L0 
C:\Users\stapi\AppData\Local\Temp\ccVjgIkW.s:34     .text.CoAPNetwork_read:000000000000000a .L0 
C:\Users\stapi\AppData\Local\Temp\ccVjgIkW.s:35     .text.CoAPNetwork_read:000000000000000a .L0 
C:\Users\stapi\AppData\Local\Temp\ccVjgIkW.s:36     .text.CoAPNetwork_read:000000000000000a .L0 
C:\Users\stapi\AppData\Local\Temp\ccVjgIkW.s:41     .text.CoAPNetwork_read:0000000000000014 .L0 
C:\Users\stapi\AppData\Local\Temp\ccVjgIkW.s:42     .text.CoAPNetwork_read:0000000000000014 .L0 
C:\Users\stapi\AppData\Local\Temp\ccVjgIkW.s:48     .text.CoAPNetwork_read:0000000000000018 .L0 
C:\Users\stapi\AppData\Local\Temp\ccVjgIkW.s:49     .text.CoAPNetwork_read:000000000000001a .L0 
C:\Users\stapi\AppData\Local\Temp\ccVjgIkW.s:56     .text.CoAPNetwork_write:0000000000000000 CoAPNetwork_write
C:\Users\stapi\AppData\Local\Temp\ccVjgIkW.s:59     .text.CoAPNetwork_write:0000000000000000 .L0 
C:\Users\stapi\AppData\Local\Temp\ccVjgIkW.s:61     .text.CoAPNetwork_write:0000000000000000 .L0 
C:\Users\stapi\AppData\Local\Temp\ccVjgIkW.s:62     .text.CoAPNetwork_write:0000000000000000 .L0 
C:\Users\stapi\AppData\Local\Temp\ccVjgIkW.s:63     .text.CoAPNetwork_write:0000000000000000 .L0 
C:\Users\stapi\AppData\Local\Temp\ccVjgIkW.s:64     .text.CoAPNetwork_write:0000000000000000 .L0 
C:\Users\stapi\AppData\Local\Temp\ccVjgIkW.s:65     .text.CoAPNetwork_write:0000000000000000 .L0 
C:\Users\stapi\AppData\Local\Temp\ccVjgIkW.s:68     .text.CoAPNetwork_write:0000000000000004 .L0 
C:\Users\stapi\AppData\Local\Temp\ccVjgIkW.s:71     .text.CoAPNetwork_write:0000000000000006 .L0 
C:\Users\stapi\AppData\Local\Temp\ccVjgIkW.s:73     .text.CoAPNetwork_write:0000000000000008 .L0 
C:\Users\stapi\AppData\Local\Temp\ccVjgIkW.s:76     .text.CoAPNetwork_write:000000000000000a .L0 
C:\Users\stapi\AppData\Local\Temp\ccVjgIkW.s:77     .text.CoAPNetwork_write:000000000000000a .L0 
C:\Users\stapi\AppData\Local\Temp\ccVjgIkW.s:78     .text.CoAPNetwork_write:000000000000000a .L0 
C:\Users\stapi\AppData\Local\Temp\ccVjgIkW.s:83     .text.CoAPNetwork_write:0000000000000014 .L0 
C:\Users\stapi\AppData\Local\Temp\ccVjgIkW.s:84     .text.CoAPNetwork_write:0000000000000014 .L0 
C:\Users\stapi\AppData\Local\Temp\ccVjgIkW.s:90     .text.CoAPNetwork_write:0000000000000018 .L0 
C:\Users\stapi\AppData\Local\Temp\ccVjgIkW.s:91     .text.CoAPNetwork_write:000000000000001a .L0 
C:\Users\stapi\AppData\Local\Temp\ccVjgIkW.s:98     .text.CoAPNetwork_init:0000000000000000 CoAPNetwork_init
C:\Users\stapi\AppData\Local\Temp\ccVjgIkW.s:101    .text.CoAPNetwork_init:0000000000000000 .L0 
C:\Users\stapi\AppData\Local\Temp\ccVjgIkW.s:103    .text.CoAPNetwork_init:0000000000000000 .L0 
C:\Users\stapi\AppData\Local\Temp\ccVjgIkW.s:104    .text.CoAPNetwork_init:0000000000000008 .L0 
C:\Users\stapi\AppData\Local\Temp\ccVjgIkW.s:105    .text.CoAPNetwork_init:0000000000000008 .L0 
C:\Users\stapi\AppData\Local\Temp\ccVjgIkW.s:106    .text.CoAPNetwork_init:0000000000000008 .L0 
C:\Users\stapi\AppData\Local\Temp\ccVjgIkW.s:107    .text.CoAPNetwork_init:0000000000000008 .L0 
C:\Users\stapi\AppData\Local\Temp\ccVjgIkW.s:110    .text.CoAPNetwork_init:0000000000000008 .L0 
C:\Users\stapi\AppData\Local\Temp\ccVjgIkW.s:111    .text.CoAPNetwork_init:0000000000000008 .L0 
C:\Users\stapi\AppData\Local\Temp\ccVjgIkW.s:112    .text.CoAPNetwork_init:0000000000000008 .L0 
C:\Users\stapi\AppData\Local\Temp\ccVjgIkW.s:116    .text.CoAPNetwork_init:000000000000000a .L0 
C:\Users\stapi\AppData\Local\Temp\ccVjgIkW.s:117    .text.CoAPNetwork_init:000000000000000a .L0 
C:\Users\stapi\AppData\Local\Temp\ccVjgIkW.s:120    .text.CoAPNetwork_init:000000000000000c .L0 
C:\Users\stapi\AppData\Local\Temp\ccVjgIkW.s:122    .text.CoAPNetwork_init:0000000000000016 .L0 
C:\Users\stapi\AppData\Local\Temp\ccVjgIkW.s:123    .text.CoAPNetwork_init:0000000000000016 .L0 
C:\Users\stapi\AppData\Local\Temp\ccVjgIkW.s:124    .text.CoAPNetwork_init:0000000000000016 .L0 
C:\Users\stapi\AppData\Local\Temp\ccVjgIkW.s:125    .text.CoAPNetwork_init:0000000000000016 .L0 
C:\Users\stapi\AppData\Local\Temp\ccVjgIkW.s:126    .text.CoAPNetwork_init:0000000000000016 .L0 
C:\Users\stapi\AppData\Local\Temp\ccVjgIkW.s:129    .text.CoAPNetwork_init:0000000000000016 .L0 
C:\Users\stapi\AppData\Local\Temp\ccVjgIkW.s:132    .text.CoAPNetwork_init:0000000000000018 .L0 
C:\Users\stapi\AppData\Local\Temp\ccVjgIkW.s:133    .text.CoAPNetwork_init:0000000000000018 .L0 
C:\Users\stapi\AppData\Local\Temp\ccVjgIkW.s:142    .text.CoAPNetwork_init:0000000000000028 .L0 
C:\Users\stapi\AppData\Local\Temp\ccVjgIkW.s:143    .text.CoAPNetwork_init:0000000000000028 .L0 
C:\Users\stapi\AppData\Local\Temp\ccVjgIkW.s:145    .text.CoAPNetwork_init:000000000000002a .L0 
C:\Users\stapi\AppData\Local\Temp\ccVjgIkW.s:150    .text.CoAPNetwork_init:0000000000000036 .L0 
C:\Users\stapi\AppData\Local\Temp\ccVjgIkW.s:151    .text.CoAPNetwork_init:0000000000000036 .L0 
C:\Users\stapi\AppData\Local\Temp\ccVjgIkW.s:153    .text.CoAPNetwork_init:0000000000000038 .L0 
C:\Users\stapi\AppData\Local\Temp\ccVjgIkW.s:155    .text.CoAPNetwork_init:000000000000003c .L0 
C:\Users\stapi\AppData\Local\Temp\ccVjgIkW.s:157    .text.CoAPNetwork_init:000000000000003e .L0 
C:\Users\stapi\AppData\Local\Temp\ccVjgIkW.s:159    .text.CoAPNetwork_init:0000000000000040 .L0 
C:\Users\stapi\AppData\Local\Temp\ccVjgIkW.s:160    .text.CoAPNetwork_init:0000000000000040 .L0 
C:\Users\stapi\AppData\Local\Temp\ccVjgIkW.s:162    .text.CoAPNetwork_init:0000000000000044 .L0 
C:\Users\stapi\AppData\Local\Temp\ccVjgIkW.s:163    .text.CoAPNetwork_init:0000000000000044 .L0 
C:\Users\stapi\AppData\Local\Temp\ccVjgIkW.s:166    .text.CoAPNetwork_init:000000000000004c .L0 
C:\Users\stapi\AppData\Local\Temp\ccVjgIkW.s:168    .text.CoAPNetwork_init:000000000000004e .L0 
C:\Users\stapi\AppData\Local\Temp\ccVjgIkW.s:169    .text.CoAPNetwork_init:000000000000004e .L0 
C:\Users\stapi\AppData\Local\Temp\ccVjgIkW.s:172    .text.CoAPNetwork_init:0000000000000054 .L0 
C:\Users\stapi\AppData\Local\Temp\ccVjgIkW.s:178    .text.CoAPNetwork_init:0000000000000060 .L0 
C:\Users\stapi\AppData\Local\Temp\ccVjgIkW.s:182    .text.CoAPNetwork_init:000000000000006a .L0 
C:\Users\stapi\AppData\Local\Temp\ccVjgIkW.s:183    .text.CoAPNetwork_init:000000000000006a .L0 
C:\Users\stapi\AppData\Local\Temp\ccVjgIkW.s:184    .text.CoAPNetwork_init:000000000000006c .L0 
C:\Users\stapi\AppData\Local\Temp\ccVjgIkW.s:191    .text.CoAPNetwork_deinit:0000000000000000 CoAPNetwork_deinit
C:\Users\stapi\AppData\Local\Temp\ccVjgIkW.s:194    .text.CoAPNetwork_deinit:0000000000000000 .L0 
C:\Users\stapi\AppData\Local\Temp\ccVjgIkW.s:196    .text.CoAPNetwork_deinit:0000000000000000 .L0 
C:\Users\stapi\AppData\Local\Temp\ccVjgIkW.s:197    .text.CoAPNetwork_deinit:0000000000000000 .L0 
C:\Users\stapi\AppData\Local\Temp\ccVjgIkW.s:198    .text.CoAPNetwork_deinit:0000000000000000 .L0 
C:\Users\stapi\AppData\Local\Temp\ccVjgIkW.s:199    .text.CoAPNetwork_deinit:0000000000000000 .L0 
C:\Users\stapi\AppData\Local\Temp\ccVjgIkW.s:201    .text.CoAPNetwork_deinit:0000000000000002 .L0 
C:\Users\stapi\AppData\Local\Temp\ccVjgIkW.s:202    .text.CoAPNetwork_deinit:000000000000000a .L0 
C:\Users\stapi\AppData\Local\Temp\ccVjgIkW.s:203    .text.CoAPNetwork_deinit:000000000000000a .L0 
C:\Users\stapi\AppData\Local\Temp\ccVjgIkW.s:204    .text.CoAPNetwork_deinit:000000000000000a .L0 
C:\Users\stapi\AppData\Local\Temp\ccVjgIkW.s:208    .text.CoAPNetwork_deinit:000000000000000c .L0 
C:\Users\stapi\AppData\Local\Temp\ccVjgIkW.s:209    .text.CoAPNetwork_deinit:000000000000000c .L0 
C:\Users\stapi\AppData\Local\Temp\ccVjgIkW.s:214    .text.CoAPNetwork_deinit:0000000000000016 .L0 
C:\Users\stapi\AppData\Local\Temp\ccVjgIkW.s:218    .text.CoAPNetwork_deinit:0000000000000020 .L0 
C:\Users\stapi\AppData\Local\Temp\ccVjgIkW.s:219    .text.CoAPNetwork_deinit:0000000000000020 .L0 
C:\Users\stapi\AppData\Local\Temp\ccVjgIkW.s:220    .text.CoAPNetwork_deinit:0000000000000020 .L0 
C:\Users\stapi\AppData\Local\Temp\ccVjgIkW.s:221    .text.CoAPNetwork_deinit:0000000000000028 .L0 
C:\Users\stapi\AppData\Local\Temp\ccVjgIkW.s:222    .text.CoAPNetwork_deinit:0000000000000028 .L0 
C:\Users\stapi\AppData\Local\Temp\ccVjgIkW.s:223    .text.CoAPNetwork_deinit:0000000000000028 .L0 
C:\Users\stapi\AppData\Local\Temp\ccVjgIkW.s:227    .text.CoAPNetwork_deinit:000000000000002a .L0 
C:\Users\stapi\AppData\Local\Temp\ccVjgIkW.s:52     .text.CoAPNetwork_read:000000000000001a .L0 
C:\Users\stapi\AppData\Local\Temp\ccVjgIkW.s:94     .text.CoAPNetwork_write:000000000000001a .L0 
C:\Users\stapi\AppData\Local\Temp\ccVjgIkW.s:187    .text.CoAPNetwork_init:000000000000006c .L0 
C:\Users\stapi\AppData\Local\Temp\ccVjgIkW.s:230    .text.CoAPNetwork_deinit:000000000000002a .L0 
                     .debug_frame:0000000000000000 .L0 
C:\Users\stapi\AppData\Local\Temp\ccVjgIkW.s:40     .text.CoAPNetwork_read:0000000000000014 .L3
C:\Users\stapi\AppData\Local\Temp\ccVjgIkW.s:46     .text.CoAPNetwork_read:0000000000000018 .L7
C:\Users\stapi\AppData\Local\Temp\ccVjgIkW.s:82     .text.CoAPNetwork_write:0000000000000014 .L12
C:\Users\stapi\AppData\Local\Temp\ccVjgIkW.s:88     .text.CoAPNetwork_write:0000000000000018 .L16
C:\Users\stapi\AppData\Local\Temp\ccVjgIkW.s:128    .text.CoAPNetwork_init:0000000000000016 .L20
C:\Users\stapi\AppData\Local\Temp\ccVjgIkW.s:114    .text.CoAPNetwork_init:000000000000000a .L28
C:\Users\stapi\AppData\Local\Temp\ccVjgIkW.s:176    .text.CoAPNetwork_init:0000000000000060 .L23
C:\Users\stapi\AppData\Local\Temp\ccVjgIkW.s:118    .text.CoAPNetwork_init:000000000000000c .L19
C:\Users\stapi\AppData\Local\Temp\ccVjgIkW.s:225    .text.CoAPNetwork_deinit:0000000000000028 .L35
C:\Users\stapi\AppData\Local\Temp\ccVjgIkW.s:831    .debug_abbrev:0000000000000000 .Ldebug_abbrev0
C:\Users\stapi\AppData\Local\Temp\ccVjgIkW.s:1683   .debug_str:0000000000000207 .LASF40
C:\Users\stapi\AppData\Local\Temp\ccVjgIkW.s:1687   .debug_str:0000000000000305 .LASF41
C:\Users\stapi\AppData\Local\Temp\ccVjgIkW.s:1631   .debug_str:0000000000000020 .LASF42
C:\Users\stapi\AppData\Local\Temp\ccVjgIkW.s:1613   .debug_ranges:0000000000000000 .Ldebug_ranges0
C:\Users\stapi\AppData\Local\Temp\ccVjgIkW.s:1625   .debug_line:0000000000000000 .Ldebug_line0
C:\Users\stapi\AppData\Local\Temp\ccVjgIkW.s:1717   .debug_str:0000000000000454 .LASF0
C:\Users\stapi\AppData\Local\Temp\ccVjgIkW.s:1645   .debug_str:0000000000000110 .LASF1
C:\Users\stapi\AppData\Local\Temp\ccVjgIkW.s:1661   .debug_str:0000000000000166 .LASF2
C:\Users\stapi\AppData\Local\Temp\ccVjgIkW.s:1633   .debug_str:00000000000000b1 .LASF3
C:\Users\stapi\AppData\Local\Temp\ccVjgIkW.s:1715   .debug_str:000000000000044b .LASF4
C:\Users\stapi\AppData\Local\Temp\ccVjgIkW.s:1649   .debug_str:000000000000012f .LASF5
C:\Users\stapi\AppData\Local\Temp\ccVjgIkW.s:1695   .debug_str:00000000000003d2 .LASF6
C:\Users\stapi\AppData\Local\Temp\ccVjgIkW.s:1685   .debug_str:00000000000002ee .LASF7
C:\Users\stapi\AppData\Local\Temp\ccVjgIkW.s:1627   .debug_str:0000000000000000 .LASF9
C:\Users\stapi\AppData\Local\Temp\ccVjgIkW.s:1677   .debug_str:00000000000001e3 .LASF8
C:\Users\stapi\AppData\Local\Temp\ccVjgIkW.s:1675   .debug_str:00000000000001da .LASF10
C:\Users\stapi\AppData\Local\Temp\ccVjgIkW.s:1681   .debug_str:0000000000000202 .LASF11
C:\Users\stapi\AppData\Local\Temp\ccVjgIkW.s:1713   .debug_str:000000000000043b .LASF43
C:\Users\stapi\AppData\Local\Temp\ccVjgIkW.s:1651   .debug_str:0000000000000141 .LASF12
C:\Users\stapi\AppData\Local\Temp\ccVjgIkW.s:1703   .debug_str:0000000000000406 .LASF13
C:\Users\stapi\AppData\Local\Temp\ccVjgIkW.s:1673   .debug_str:00000000000001ce .LASF14
C:\Users\stapi\AppData\Local\Temp\ccVjgIkW.s:1659   .debug_str:000000000000015f .LASF15
C:\Users\stapi\AppData\Local\Temp\ccVjgIkW.s:1637   .debug_str:00000000000000d3 .LASF16
C:\Users\stapi\AppData\Local\Temp\ccVjgIkW.s:1667   .debug_str:0000000000000197 .LASF17
C:\Users\stapi\AppData\Local\Temp\ccVjgIkW.s:1641   .debug_str:00000000000000f7 .LASF18
C:\Users\stapi\AppData\Local\Temp\ccVjgIkW.s:1705   .debug_str:000000000000040b .LASF19
C:\Users\stapi\AppData\Local\Temp\ccVjgIkW.s:1721   .debug_str:0000000000000473 .LASF20
C:\Users\stapi\AppData\Local\Temp\ccVjgIkW.s:1635   .debug_str:00000000000000c4 .LASF44
C:\Users\stapi\AppData\Local\Temp\ccVjgIkW.s:1655   .debug_str:0000000000000152 .LASF21
C:\Users\stapi\AppData\Local\Temp\ccVjgIkW.s:1653   .debug_str:0000000000000146 .LASF22
C:\Users\stapi\AppData\Local\Temp\ccVjgIkW.s:1691   .debug_str:00000000000003ae .LASF45
C:\Users\stapi\AppData\Local\Temp\ccVjgIkW.s:192    .text.CoAPNetwork_deinit:0000000000000000 .LFB23
C:\Users\stapi\AppData\Local\Temp\ccVjgIkW.s:228    .text.CoAPNetwork_deinit:000000000000002a .LFE23
C:\Users\stapi\AppData\Local\Temp\ccVjgIkW.s:1689   .debug_str:00000000000003a4 .LASF23
C:\Users\stapi\AppData\Local\Temp\ccVjgIkW.s:1256   .debug_loc:0000000000000000 .LLST14
C:\Users\stapi\AppData\Local\Temp\ccVjgIkW.s:1701   .debug_str:00000000000003fe .LASF25
C:\Users\stapi\AppData\Local\Temp\ccVjgIkW.s:1276   .debug_loc:0000000000000035 .LLST15
C:\Users\stapi\AppData\Local\Temp\ccVjgIkW.s:212    .text.CoAPNetwork_deinit:0000000000000016 .LVL26
C:\Users\stapi\AppData\Local\Temp\ccVjgIkW.s:216    .text.CoAPNetwork_deinit:0000000000000020 .LVL27
C:\Users\stapi\AppData\Local\Temp\ccVjgIkW.s:1639   .debug_str:00000000000000e6 .LASF26
C:\Users\stapi\AppData\Local\Temp\ccVjgIkW.s:99     .text.CoAPNetwork_init:0000000000000000 .LFB22
C:\Users\stapi\AppData\Local\Temp\ccVjgIkW.s:185    .text.CoAPNetwork_init:000000000000006c .LFE22
C:\Users\stapi\AppData\Local\Temp\ccVjgIkW.s:1665   .debug_str:000000000000018f .LASF24
C:\Users\stapi\AppData\Local\Temp\ccVjgIkW.s:1297   .debug_loc:000000000000006b .LLST12
C:\Users\stapi\AppData\Local\Temp\ccVjgIkW.s:1319   .debug_loc:00000000000000a2 .LLST13
C:\Users\stapi\AppData\Local\Temp\ccVjgIkW.s:138    .text.CoAPNetwork_init:0000000000000026 .LVL17
C:\Users\stapi\AppData\Local\Temp\ccVjgIkW.s:148    .text.CoAPNetwork_init:0000000000000036 .LVL19
C:\Users\stapi\AppData\Local\Temp\ccVjgIkW.s:164    .text.CoAPNetwork_init:000000000000004c .LVL20
C:\Users\stapi\AppData\Local\Temp\ccVjgIkW.s:174    .text.CoAPNetwork_init:000000000000005e .LVL21
C:\Users\stapi\AppData\Local\Temp\ccVjgIkW.s:180    .text.CoAPNetwork_init:000000000000006a .LVL22
C:\Users\stapi\AppData\Local\Temp\ccVjgIkW.s:1679   .debug_str:00000000000001f0 .LASF27
C:\Users\stapi\AppData\Local\Temp\ccVjgIkW.s:57     .text.CoAPNetwork_write:0000000000000000 .LFB21
C:\Users\stapi\AppData\Local\Temp\ccVjgIkW.s:92     .text.CoAPNetwork_write:000000000000001a .LFE21
C:\Users\stapi\AppData\Local\Temp\ccVjgIkW.s:1336   .debug_loc:00000000000000cd .LLST6
C:\Users\stapi\AppData\Local\Temp\ccVjgIkW.s:1643   .debug_str:0000000000000107 .LASF28
C:\Users\stapi\AppData\Local\Temp\ccVjgIkW.s:1369   .debug_loc:000000000000011d .LLST7
C:\Users\stapi\AppData\Local\Temp\ccVjgIkW.s:1669   .debug_str:00000000000001a9 .LASF29
C:\Users\stapi\AppData\Local\Temp\ccVjgIkW.s:1387   .debug_loc:0000000000000149 .LLST8
C:\Users\stapi\AppData\Local\Temp\ccVjgIkW.s:1697   .debug_str:00000000000003e0 .LASF30
C:\Users\stapi\AppData\Local\Temp\ccVjgIkW.s:1405   .debug_loc:0000000000000175 .LLST9
C:\Users\stapi\AppData\Local\Temp\ccVjgIkW.s:1707   .debug_str:0000000000000410 .LASF31
C:\Users\stapi\AppData\Local\Temp\ccVjgIkW.s:1423   .debug_loc:00000000000001a1 .LLST10
C:\Users\stapi\AppData\Local\Temp\ccVjgIkW.s:1441   .debug_loc:00000000000001cd .LLST11
C:\Users\stapi\AppData\Local\Temp\ccVjgIkW.s:80     .text.CoAPNetwork_write:0000000000000014 .LVL9
C:\Users\stapi\AppData\Local\Temp\ccVjgIkW.s:1711   .debug_str:000000000000042a .LASF32
C:\Users\stapi\AppData\Local\Temp\ccVjgIkW.s:14     .text.CoAPNetwork_read:0000000000000000 .LFB20
C:\Users\stapi\AppData\Local\Temp\ccVjgIkW.s:50     .text.CoAPNetwork_read:000000000000001a .LFE20
C:\Users\stapi\AppData\Local\Temp\ccVjgIkW.s:1465   .debug_loc:0000000000000206 .LLST0
C:\Users\stapi\AppData\Local\Temp\ccVjgIkW.s:1498   .debug_loc:0000000000000256 .LLST1
C:\Users\stapi\AppData\Local\Temp\ccVjgIkW.s:1516   .debug_loc:0000000000000282 .LLST2
C:\Users\stapi\AppData\Local\Temp\ccVjgIkW.s:1534   .debug_loc:00000000000002ae .LLST3
C:\Users\stapi\AppData\Local\Temp\ccVjgIkW.s:1552   .debug_loc:00000000000002da .LLST4
C:\Users\stapi\AppData\Local\Temp\ccVjgIkW.s:1570   .debug_loc:0000000000000306 .LLST5
C:\Users\stapi\AppData\Local\Temp\ccVjgIkW.s:38     .text.CoAPNetwork_read:0000000000000014 .LVL3
C:\Users\stapi\AppData\Local\Temp\ccVjgIkW.s:1671   .debug_str:00000000000001b0 .LASF33
C:\Users\stapi\AppData\Local\Temp\ccVjgIkW.s:1719   .debug_str:0000000000000460 .LASF34
C:\Users\stapi\AppData\Local\Temp\ccVjgIkW.s:1629   .debug_str:000000000000000b .LASF35
C:\Users\stapi\AppData\Local\Temp\ccVjgIkW.s:1657   .debug_str:0000000000000158 .LASF46
C:\Users\stapi\AppData\Local\Temp\ccVjgIkW.s:1647   .debug_str:000000000000011e .LASF47
C:\Users\stapi\AppData\Local\Temp\ccVjgIkW.s:1663   .debug_str:0000000000000170 .LASF36
C:\Users\stapi\AppData\Local\Temp\ccVjgIkW.s:1699   .debug_str:00000000000003e8 .LASF37
C:\Users\stapi\AppData\Local\Temp\ccVjgIkW.s:1709   .debug_str:000000000000041b .LASF38
C:\Users\stapi\AppData\Local\Temp\ccVjgIkW.s:1693   .debug_str:00000000000003c1 .LASF39
C:\Users\stapi\AppData\Local\Temp\ccVjgIkW.s:195    .text.CoAPNetwork_deinit:0000000000000000 .LVL23
C:\Users\stapi\AppData\Local\Temp\ccVjgIkW.s:210    .text.CoAPNetwork_deinit:000000000000000e .LVL25
C:\Users\stapi\AppData\Local\Temp\ccVjgIkW.s:224    .text.CoAPNetwork_deinit:0000000000000028 .LVL28
C:\Users\stapi\AppData\Local\Temp\ccVjgIkW.s:207    .text.CoAPNetwork_deinit:000000000000000c .LVL24
C:\Users\stapi\AppData\Local\Temp\ccVjgIkW.s:102    .text.CoAPNetwork_init:0000000000000000 .LVL12
C:\Users\stapi\AppData\Local\Temp\ccVjgIkW.s:113    .text.CoAPNetwork_init:000000000000000a .LVL14
C:\Users\stapi\AppData\Local\Temp\ccVjgIkW.s:127    .text.CoAPNetwork_init:0000000000000016 .LVL15
C:\Users\stapi\AppData\Local\Temp\ccVjgIkW.s:136    .text.CoAPNetwork_init:000000000000001e .LVL16
C:\Users\stapi\AppData\Local\Temp\ccVjgIkW.s:109    .text.CoAPNetwork_init:0000000000000008 .LVL13
C:\Users\stapi\AppData\Local\Temp\ccVjgIkW.s:140    .text.CoAPNetwork_init:0000000000000028 .LVL18
C:\Users\stapi\AppData\Local\Temp\ccVjgIkW.s:60     .text.CoAPNetwork_write:0000000000000000 .LVL6
C:\Users\stapi\AppData\Local\Temp\ccVjgIkW.s:69     .text.CoAPNetwork_write:0000000000000006 .LVL7
C:\Users\stapi\AppData\Local\Temp\ccVjgIkW.s:85     .text.CoAPNetwork_write:0000000000000016 .LVL10
C:\Users\stapi\AppData\Local\Temp\ccVjgIkW.s:87     .text.CoAPNetwork_write:0000000000000018 .LVL11
C:\Users\stapi\AppData\Local\Temp\ccVjgIkW.s:75     .text.CoAPNetwork_write:000000000000000a .LVL8
C:\Users\stapi\AppData\Local\Temp\ccVjgIkW.s:18     .text.CoAPNetwork_read:0000000000000000 .LVL0
C:\Users\stapi\AppData\Local\Temp\ccVjgIkW.s:27     .text.CoAPNetwork_read:0000000000000006 .LVL1
C:\Users\stapi\AppData\Local\Temp\ccVjgIkW.s:43     .text.CoAPNetwork_read:0000000000000016 .LVL4
C:\Users\stapi\AppData\Local\Temp\ccVjgIkW.s:45     .text.CoAPNetwork_read:0000000000000018 .LVL5
C:\Users\stapi\AppData\Local\Temp\ccVjgIkW.s:33     .text.CoAPNetwork_read:000000000000000a .LVL2
C:\Users\stapi\AppData\Local\Temp\ccVjgIkW.s:240    .debug_info:0000000000000000 .Ldebug_info0

UNDEFINED SYMBOLS
HAL_UDP_recvfrom
HAL_UDP_sendto
__riscv_save_2
__riscv_restore_2
LITE_malloc_internal
memset
HAL_UDP_create_without_connect
LITE_free_internal
HAL_UDP_joinmulticast
__riscv_save_1
HAL_UDP_close_without_connect
__riscv_restore_1
