   1              		.file	"heap_4.c"
   2              		.option nopic
   3              		.attribute arch, "rv32i2p0_m2p0_a2p0_f2p0_c2p0_b_p0p94"
   4              		.attribute unaligned_access, 0
   5              		.attribute stack_align, 16
   6              		.text
   7              	.Ltext0:
   8              		.cfi_sections	.debug_frame
   9              		.section	.text.prvInsertBlockIntoFreeList,"ax",@progbits
  10              		.align	1
  12              	prvInsertBlockIntoFreeList:
  13              	.LFB12:
  14              		.file 1 "C:/Users/stapi/OneDrive/Desktop/GD32VW553/V1_MQTT_OK/GD32VW55X_Wifi_BLE_SDK/GD32VW55x_REL
   1:C:/Users/stapi/OneDrive/Desktop/GD32VW553/V1_MQTT_OK/GD32VW55X_Wifi_BLE_SDK/GD32VW55x_RELEASE_V1.0.2/MSDK/rtos/FreeRTOS/Source/portable/MemMang\heap_4.c **** /*
   2:C:/Users/stapi/OneDrive/Desktop/GD32VW553/V1_MQTT_OK/GD32VW55X_Wifi_BLE_SDK/GD32VW55x_RELEASE_V1.0.2/MSDK/rtos/FreeRTOS/Source/portable/MemMang\heap_4.c ****  * FreeRTOS Kernel V10.3.1
   3:C:/Users/stapi/OneDrive/Desktop/GD32VW553/V1_MQTT_OK/GD32VW55X_Wifi_BLE_SDK/GD32VW55x_RELEASE_V1.0.2/MSDK/rtos/FreeRTOS/Source/portable/MemMang\heap_4.c ****  * Copyright (C) 2020 Amazon.com, Inc. or its affiliates.  All Rights Reserved.
   4:C:/Users/stapi/OneDrive/Desktop/GD32VW553/V1_MQTT_OK/GD32VW55X_Wifi_BLE_SDK/GD32VW55x_RELEASE_V1.0.2/MSDK/rtos/FreeRTOS/Source/portable/MemMang\heap_4.c ****  *
   5:C:/Users/stapi/OneDrive/Desktop/GD32VW553/V1_MQTT_OK/GD32VW55X_Wifi_BLE_SDK/GD32VW55x_RELEASE_V1.0.2/MSDK/rtos/FreeRTOS/Source/portable/MemMang\heap_4.c ****  * Permission is hereby granted, free of charge, to any person obtaining a copy of
   6:C:/Users/stapi/OneDrive/Desktop/GD32VW553/V1_MQTT_OK/GD32VW55X_Wifi_BLE_SDK/GD32VW55x_RELEASE_V1.0.2/MSDK/rtos/FreeRTOS/Source/portable/MemMang\heap_4.c ****  * this software and associated documentation files (the "Software"), to deal in
   7:C:/Users/stapi/OneDrive/Desktop/GD32VW553/V1_MQTT_OK/GD32VW55X_Wifi_BLE_SDK/GD32VW55x_RELEASE_V1.0.2/MSDK/rtos/FreeRTOS/Source/portable/MemMang\heap_4.c ****  * the Software without restriction, including without limitation the rights to
   8:C:/Users/stapi/OneDrive/Desktop/GD32VW553/V1_MQTT_OK/GD32VW55X_Wifi_BLE_SDK/GD32VW55x_RELEASE_V1.0.2/MSDK/rtos/FreeRTOS/Source/portable/MemMang\heap_4.c ****  * use, copy, modify, merge, publish, distribute, sublicense, and/or sell copies of
   9:C:/Users/stapi/OneDrive/Desktop/GD32VW553/V1_MQTT_OK/GD32VW55X_Wifi_BLE_SDK/GD32VW55x_RELEASE_V1.0.2/MSDK/rtos/FreeRTOS/Source/portable/MemMang\heap_4.c ****  * the Software, and to permit persons to whom the Software is furnished to do so,
  10:C:/Users/stapi/OneDrive/Desktop/GD32VW553/V1_MQTT_OK/GD32VW55X_Wifi_BLE_SDK/GD32VW55x_RELEASE_V1.0.2/MSDK/rtos/FreeRTOS/Source/portable/MemMang\heap_4.c ****  * subject to the following conditions:
  11:C:/Users/stapi/OneDrive/Desktop/GD32VW553/V1_MQTT_OK/GD32VW55X_Wifi_BLE_SDK/GD32VW55x_RELEASE_V1.0.2/MSDK/rtos/FreeRTOS/Source/portable/MemMang\heap_4.c ****  *
  12:C:/Users/stapi/OneDrive/Desktop/GD32VW553/V1_MQTT_OK/GD32VW55X_Wifi_BLE_SDK/GD32VW55x_RELEASE_V1.0.2/MSDK/rtos/FreeRTOS/Source/portable/MemMang\heap_4.c ****  * The above copyright notice and this permission notice shall be included in all
  13:C:/Users/stapi/OneDrive/Desktop/GD32VW553/V1_MQTT_OK/GD32VW55X_Wifi_BLE_SDK/GD32VW55x_RELEASE_V1.0.2/MSDK/rtos/FreeRTOS/Source/portable/MemMang\heap_4.c ****  * copies or substantial portions of the Software.
  14:C:/Users/stapi/OneDrive/Desktop/GD32VW553/V1_MQTT_OK/GD32VW55X_Wifi_BLE_SDK/GD32VW55x_RELEASE_V1.0.2/MSDK/rtos/FreeRTOS/Source/portable/MemMang\heap_4.c ****  *
  15:C:/Users/stapi/OneDrive/Desktop/GD32VW553/V1_MQTT_OK/GD32VW55X_Wifi_BLE_SDK/GD32VW55x_RELEASE_V1.0.2/MSDK/rtos/FreeRTOS/Source/portable/MemMang\heap_4.c ****  * THE SOFTWARE IS PROVIDED "AS IS", WITHOUT WARRANTY OF ANY KIND, EXPRESS OR
  16:C:/Users/stapi/OneDrive/Desktop/GD32VW553/V1_MQTT_OK/GD32VW55X_Wifi_BLE_SDK/GD32VW55x_RELEASE_V1.0.2/MSDK/rtos/FreeRTOS/Source/portable/MemMang\heap_4.c ****  * IMPLIED, INCLUDING BUT NOT LIMITED TO THE WARRANTIES OF MERCHANTABILITY, FITNESS
  17:C:/Users/stapi/OneDrive/Desktop/GD32VW553/V1_MQTT_OK/GD32VW55X_Wifi_BLE_SDK/GD32VW55x_RELEASE_V1.0.2/MSDK/rtos/FreeRTOS/Source/portable/MemMang\heap_4.c ****  * FOR A PARTICULAR PURPOSE AND NONINFRINGEMENT. IN NO EVENT SHALL THE AUTHORS OR
  18:C:/Users/stapi/OneDrive/Desktop/GD32VW553/V1_MQTT_OK/GD32VW55X_Wifi_BLE_SDK/GD32VW55x_RELEASE_V1.0.2/MSDK/rtos/FreeRTOS/Source/portable/MemMang\heap_4.c ****  * COPYRIGHT HOLDERS BE LIABLE FOR ANY CLAIM, DAMAGES OR OTHER LIABILITY, WHETHER
  19:C:/Users/stapi/OneDrive/Desktop/GD32VW553/V1_MQTT_OK/GD32VW55X_Wifi_BLE_SDK/GD32VW55x_RELEASE_V1.0.2/MSDK/rtos/FreeRTOS/Source/portable/MemMang\heap_4.c ****  * IN AN ACTION OF CONTRACT, TORT OR OTHERWISE, ARISING FROM, OUT OF OR IN
  20:C:/Users/stapi/OneDrive/Desktop/GD32VW553/V1_MQTT_OK/GD32VW55X_Wifi_BLE_SDK/GD32VW55x_RELEASE_V1.0.2/MSDK/rtos/FreeRTOS/Source/portable/MemMang\heap_4.c ****  * CONNECTION WITH THE SOFTWARE OR THE USE OR OTHER DEALINGS IN THE SOFTWARE.
  21:C:/Users/stapi/OneDrive/Desktop/GD32VW553/V1_MQTT_OK/GD32VW55X_Wifi_BLE_SDK/GD32VW55x_RELEASE_V1.0.2/MSDK/rtos/FreeRTOS/Source/portable/MemMang\heap_4.c ****  *
  22:C:/Users/stapi/OneDrive/Desktop/GD32VW553/V1_MQTT_OK/GD32VW55X_Wifi_BLE_SDK/GD32VW55x_RELEASE_V1.0.2/MSDK/rtos/FreeRTOS/Source/portable/MemMang\heap_4.c ****  * http://www.FreeRTOS.org
  23:C:/Users/stapi/OneDrive/Desktop/GD32VW553/V1_MQTT_OK/GD32VW55X_Wifi_BLE_SDK/GD32VW55x_RELEASE_V1.0.2/MSDK/rtos/FreeRTOS/Source/portable/MemMang\heap_4.c ****  * http://aws.amazon.com/freertos
  24:C:/Users/stapi/OneDrive/Desktop/GD32VW553/V1_MQTT_OK/GD32VW55X_Wifi_BLE_SDK/GD32VW55x_RELEASE_V1.0.2/MSDK/rtos/FreeRTOS/Source/portable/MemMang\heap_4.c ****  *
  25:C:/Users/stapi/OneDrive/Desktop/GD32VW553/V1_MQTT_OK/GD32VW55X_Wifi_BLE_SDK/GD32VW55x_RELEASE_V1.0.2/MSDK/rtos/FreeRTOS/Source/portable/MemMang\heap_4.c ****  * 1 tab == 4 spaces!
  26:C:/Users/stapi/OneDrive/Desktop/GD32VW553/V1_MQTT_OK/GD32VW55X_Wifi_BLE_SDK/GD32VW55x_RELEASE_V1.0.2/MSDK/rtos/FreeRTOS/Source/portable/MemMang\heap_4.c ****  */
  27:C:/Users/stapi/OneDrive/Desktop/GD32VW553/V1_MQTT_OK/GD32VW55X_Wifi_BLE_SDK/GD32VW55x_RELEASE_V1.0.2/MSDK/rtos/FreeRTOS/Source/portable/MemMang\heap_4.c **** 
  28:C:/Users/stapi/OneDrive/Desktop/GD32VW553/V1_MQTT_OK/GD32VW55X_Wifi_BLE_SDK/GD32VW55x_RELEASE_V1.0.2/MSDK/rtos/FreeRTOS/Source/portable/MemMang\heap_4.c **** /*
  29:C:/Users/stapi/OneDrive/Desktop/GD32VW553/V1_MQTT_OK/GD32VW55X_Wifi_BLE_SDK/GD32VW55x_RELEASE_V1.0.2/MSDK/rtos/FreeRTOS/Source/portable/MemMang\heap_4.c ****  * A sample implementation of pvPortMalloc() and vPortFree() that combines
  30:C:/Users/stapi/OneDrive/Desktop/GD32VW553/V1_MQTT_OK/GD32VW55X_Wifi_BLE_SDK/GD32VW55x_RELEASE_V1.0.2/MSDK/rtos/FreeRTOS/Source/portable/MemMang\heap_4.c ****  * (coalescences) adjacent memory blocks as they are freed, and in so doing
  31:C:/Users/stapi/OneDrive/Desktop/GD32VW553/V1_MQTT_OK/GD32VW55X_Wifi_BLE_SDK/GD32VW55x_RELEASE_V1.0.2/MSDK/rtos/FreeRTOS/Source/portable/MemMang\heap_4.c ****  * limits memory fragmentation.
  32:C:/Users/stapi/OneDrive/Desktop/GD32VW553/V1_MQTT_OK/GD32VW55X_Wifi_BLE_SDK/GD32VW55x_RELEASE_V1.0.2/MSDK/rtos/FreeRTOS/Source/portable/MemMang\heap_4.c ****  *
  33:C:/Users/stapi/OneDrive/Desktop/GD32VW553/V1_MQTT_OK/GD32VW55X_Wifi_BLE_SDK/GD32VW55x_RELEASE_V1.0.2/MSDK/rtos/FreeRTOS/Source/portable/MemMang\heap_4.c ****  * See heap_1.c, heap_2.c and heap_3.c for alternative implementations, and the
  34:C:/Users/stapi/OneDrive/Desktop/GD32VW553/V1_MQTT_OK/GD32VW55X_Wifi_BLE_SDK/GD32VW55x_RELEASE_V1.0.2/MSDK/rtos/FreeRTOS/Source/portable/MemMang\heap_4.c ****  * memory management pages of http://www.FreeRTOS.org for more information.
  35:C:/Users/stapi/OneDrive/Desktop/GD32VW553/V1_MQTT_OK/GD32VW55X_Wifi_BLE_SDK/GD32VW55x_RELEASE_V1.0.2/MSDK/rtos/FreeRTOS/Source/portable/MemMang\heap_4.c ****  */
  36:C:/Users/stapi/OneDrive/Desktop/GD32VW553/V1_MQTT_OK/GD32VW55X_Wifi_BLE_SDK/GD32VW55x_RELEASE_V1.0.2/MSDK/rtos/FreeRTOS/Source/portable/MemMang\heap_4.c **** #include <stdlib.h>
  37:C:/Users/stapi/OneDrive/Desktop/GD32VW553/V1_MQTT_OK/GD32VW55X_Wifi_BLE_SDK/GD32VW55x_RELEASE_V1.0.2/MSDK/rtos/FreeRTOS/Source/portable/MemMang\heap_4.c **** #include <stdio.h>
  38:C:/Users/stapi/OneDrive/Desktop/GD32VW553/V1_MQTT_OK/GD32VW55X_Wifi_BLE_SDK/GD32VW55x_RELEASE_V1.0.2/MSDK/rtos/FreeRTOS/Source/portable/MemMang\heap_4.c **** #include <string.h>
  39:C:/Users/stapi/OneDrive/Desktop/GD32VW553/V1_MQTT_OK/GD32VW55X_Wifi_BLE_SDK/GD32VW55x_RELEASE_V1.0.2/MSDK/rtos/FreeRTOS/Source/portable/MemMang\heap_4.c **** 
  40:C:/Users/stapi/OneDrive/Desktop/GD32VW553/V1_MQTT_OK/GD32VW55X_Wifi_BLE_SDK/GD32VW55x_RELEASE_V1.0.2/MSDK/rtos/FreeRTOS/Source/portable/MemMang\heap_4.c **** /* Defining MPU_WRAPPERS_INCLUDED_FROM_API_FILE prevents task.h from redefining
  41:C:/Users/stapi/OneDrive/Desktop/GD32VW553/V1_MQTT_OK/GD32VW55X_Wifi_BLE_SDK/GD32VW55x_RELEASE_V1.0.2/MSDK/rtos/FreeRTOS/Source/portable/MemMang\heap_4.c **** all the API functions to use the MPU wrappers.  That should only be done when
  42:C:/Users/stapi/OneDrive/Desktop/GD32VW553/V1_MQTT_OK/GD32VW55X_Wifi_BLE_SDK/GD32VW55x_RELEASE_V1.0.2/MSDK/rtos/FreeRTOS/Source/portable/MemMang\heap_4.c **** task.h is included from an application file. */
  43:C:/Users/stapi/OneDrive/Desktop/GD32VW553/V1_MQTT_OK/GD32VW55X_Wifi_BLE_SDK/GD32VW55x_RELEASE_V1.0.2/MSDK/rtos/FreeRTOS/Source/portable/MemMang\heap_4.c **** #define MPU_WRAPPERS_INCLUDED_FROM_API_FILE
  44:C:/Users/stapi/OneDrive/Desktop/GD32VW553/V1_MQTT_OK/GD32VW55X_Wifi_BLE_SDK/GD32VW55x_RELEASE_V1.0.2/MSDK/rtos/FreeRTOS/Source/portable/MemMang\heap_4.c **** 
  45:C:/Users/stapi/OneDrive/Desktop/GD32VW553/V1_MQTT_OK/GD32VW55X_Wifi_BLE_SDK/GD32VW55x_RELEASE_V1.0.2/MSDK/rtos/FreeRTOS/Source/portable/MemMang\heap_4.c **** #include "FreeRTOS.h"
  46:C:/Users/stapi/OneDrive/Desktop/GD32VW553/V1_MQTT_OK/GD32VW55X_Wifi_BLE_SDK/GD32VW55x_RELEASE_V1.0.2/MSDK/rtos/FreeRTOS/Source/portable/MemMang\heap_4.c **** #include "task.h"
  47:C:/Users/stapi/OneDrive/Desktop/GD32VW553/V1_MQTT_OK/GD32VW55X_Wifi_BLE_SDK/GD32VW55x_RELEASE_V1.0.2/MSDK/rtos/FreeRTOS/Source/portable/MemMang\heap_4.c **** 
  48:C:/Users/stapi/OneDrive/Desktop/GD32VW553/V1_MQTT_OK/GD32VW55X_Wifi_BLE_SDK/GD32VW55x_RELEASE_V1.0.2/MSDK/rtos/FreeRTOS/Source/portable/MemMang\heap_4.c **** #undef MPU_WRAPPERS_INCLUDED_FROM_API_FILE
  49:C:/Users/stapi/OneDrive/Desktop/GD32VW553/V1_MQTT_OK/GD32VW55X_Wifi_BLE_SDK/GD32VW55x_RELEASE_V1.0.2/MSDK/rtos/FreeRTOS/Source/portable/MemMang\heap_4.c **** 
  50:C:/Users/stapi/OneDrive/Desktop/GD32VW553/V1_MQTT_OK/GD32VW55X_Wifi_BLE_SDK/GD32VW55x_RELEASE_V1.0.2/MSDK/rtos/FreeRTOS/Source/portable/MemMang\heap_4.c **** #if( configSUPPORT_DYNAMIC_ALLOCATION == 0 )
  51:C:/Users/stapi/OneDrive/Desktop/GD32VW553/V1_MQTT_OK/GD32VW55X_Wifi_BLE_SDK/GD32VW55x_RELEASE_V1.0.2/MSDK/rtos/FreeRTOS/Source/portable/MemMang\heap_4.c **** 	#error This file must not be used if configSUPPORT_DYNAMIC_ALLOCATION is 0
  52:C:/Users/stapi/OneDrive/Desktop/GD32VW553/V1_MQTT_OK/GD32VW55X_Wifi_BLE_SDK/GD32VW55x_RELEASE_V1.0.2/MSDK/rtos/FreeRTOS/Source/portable/MemMang\heap_4.c **** #endif
  53:C:/Users/stapi/OneDrive/Desktop/GD32VW553/V1_MQTT_OK/GD32VW55X_Wifi_BLE_SDK/GD32VW55x_RELEASE_V1.0.2/MSDK/rtos/FreeRTOS/Source/portable/MemMang\heap_4.c **** 
  54:C:/Users/stapi/OneDrive/Desktop/GD32VW553/V1_MQTT_OK/GD32VW55X_Wifi_BLE_SDK/GD32VW55x_RELEASE_V1.0.2/MSDK/rtos/FreeRTOS/Source/portable/MemMang\heap_4.c **** /* Block sizes must not get too small. */
  55:C:/Users/stapi/OneDrive/Desktop/GD32VW553/V1_MQTT_OK/GD32VW55X_Wifi_BLE_SDK/GD32VW55x_RELEASE_V1.0.2/MSDK/rtos/FreeRTOS/Source/portable/MemMang\heap_4.c **** #define heapMINIMUM_BLOCK_SIZE	( ( size_t ) ( xHeapStructSize << 1 ) )
  56:C:/Users/stapi/OneDrive/Desktop/GD32VW553/V1_MQTT_OK/GD32VW55X_Wifi_BLE_SDK/GD32VW55x_RELEASE_V1.0.2/MSDK/rtos/FreeRTOS/Source/portable/MemMang\heap_4.c **** 
  57:C:/Users/stapi/OneDrive/Desktop/GD32VW553/V1_MQTT_OK/GD32VW55X_Wifi_BLE_SDK/GD32VW55x_RELEASE_V1.0.2/MSDK/rtos/FreeRTOS/Source/portable/MemMang\heap_4.c **** /* Assumes 8bit bytes! */
  58:C:/Users/stapi/OneDrive/Desktop/GD32VW553/V1_MQTT_OK/GD32VW55X_Wifi_BLE_SDK/GD32VW55x_RELEASE_V1.0.2/MSDK/rtos/FreeRTOS/Source/portable/MemMang\heap_4.c **** #define heapBITS_PER_BYTE		( ( size_t ) 8 )
  59:C:/Users/stapi/OneDrive/Desktop/GD32VW553/V1_MQTT_OK/GD32VW55X_Wifi_BLE_SDK/GD32VW55x_RELEASE_V1.0.2/MSDK/rtos/FreeRTOS/Source/portable/MemMang\heap_4.c **** 
  60:C:/Users/stapi/OneDrive/Desktop/GD32VW553/V1_MQTT_OK/GD32VW55X_Wifi_BLE_SDK/GD32VW55x_RELEASE_V1.0.2/MSDK/rtos/FreeRTOS/Source/portable/MemMang\heap_4.c **** /* Allocate the memory for the heap. */
  61:C:/Users/stapi/OneDrive/Desktop/GD32VW553/V1_MQTT_OK/GD32VW55X_Wifi_BLE_SDK/GD32VW55x_RELEASE_V1.0.2/MSDK/rtos/FreeRTOS/Source/portable/MemMang\heap_4.c **** #if( configAPPLICATION_ALLOCATED_HEAP == 1 )
  62:C:/Users/stapi/OneDrive/Desktop/GD32VW553/V1_MQTT_OK/GD32VW55X_Wifi_BLE_SDK/GD32VW55x_RELEASE_V1.0.2/MSDK/rtos/FreeRTOS/Source/portable/MemMang\heap_4.c **** 	/* The application writer has already defined the array used for the RTOS
  63:C:/Users/stapi/OneDrive/Desktop/GD32VW553/V1_MQTT_OK/GD32VW55X_Wifi_BLE_SDK/GD32VW55x_RELEASE_V1.0.2/MSDK/rtos/FreeRTOS/Source/portable/MemMang\heap_4.c **** 	heap - probably so it can be placed in a special segment or address. */
  64:C:/Users/stapi/OneDrive/Desktop/GD32VW553/V1_MQTT_OK/GD32VW55X_Wifi_BLE_SDK/GD32VW55x_RELEASE_V1.0.2/MSDK/rtos/FreeRTOS/Source/portable/MemMang\heap_4.c **** 	extern uint8_t *ucHeap;
  65:C:/Users/stapi/OneDrive/Desktop/GD32VW553/V1_MQTT_OK/GD32VW55X_Wifi_BLE_SDK/GD32VW55x_RELEASE_V1.0.2/MSDK/rtos/FreeRTOS/Source/portable/MemMang\heap_4.c **** #else
  66:C:/Users/stapi/OneDrive/Desktop/GD32VW553/V1_MQTT_OK/GD32VW55X_Wifi_BLE_SDK/GD32VW55x_RELEASE_V1.0.2/MSDK/rtos/FreeRTOS/Source/portable/MemMang\heap_4.c **** 	static uint8_t ucHeap[ configTOTAL_HEAP_SIZE ];
  67:C:/Users/stapi/OneDrive/Desktop/GD32VW553/V1_MQTT_OK/GD32VW55X_Wifi_BLE_SDK/GD32VW55x_RELEASE_V1.0.2/MSDK/rtos/FreeRTOS/Source/portable/MemMang\heap_4.c **** #endif /* configAPPLICATION_ALLOCATED_HEAP */
  68:C:/Users/stapi/OneDrive/Desktop/GD32VW553/V1_MQTT_OK/GD32VW55X_Wifi_BLE_SDK/GD32VW55x_RELEASE_V1.0.2/MSDK/rtos/FreeRTOS/Source/portable/MemMang\heap_4.c **** 
  69:C:/Users/stapi/OneDrive/Desktop/GD32VW553/V1_MQTT_OK/GD32VW55X_Wifi_BLE_SDK/GD32VW55x_RELEASE_V1.0.2/MSDK/rtos/FreeRTOS/Source/portable/MemMang\heap_4.c **** /* Define the linked list structure.  This is used to link free blocks in order
  70:C:/Users/stapi/OneDrive/Desktop/GD32VW553/V1_MQTT_OK/GD32VW55X_Wifi_BLE_SDK/GD32VW55x_RELEASE_V1.0.2/MSDK/rtos/FreeRTOS/Source/portable/MemMang\heap_4.c **** of their memory address. */
  71:C:/Users/stapi/OneDrive/Desktop/GD32VW553/V1_MQTT_OK/GD32VW55X_Wifi_BLE_SDK/GD32VW55x_RELEASE_V1.0.2/MSDK/rtos/FreeRTOS/Source/portable/MemMang\heap_4.c **** typedef struct A_BLOCK_LINK
  72:C:/Users/stapi/OneDrive/Desktop/GD32VW553/V1_MQTT_OK/GD32VW55X_Wifi_BLE_SDK/GD32VW55x_RELEASE_V1.0.2/MSDK/rtos/FreeRTOS/Source/portable/MemMang\heap_4.c **** {
  73:C:/Users/stapi/OneDrive/Desktop/GD32VW553/V1_MQTT_OK/GD32VW55X_Wifi_BLE_SDK/GD32VW55x_RELEASE_V1.0.2/MSDK/rtos/FreeRTOS/Source/portable/MemMang\heap_4.c **** 	struct A_BLOCK_LINK *pxNextFreeBlock;	/*<< The next free block in the list. */
  74:C:/Users/stapi/OneDrive/Desktop/GD32VW553/V1_MQTT_OK/GD32VW55X_Wifi_BLE_SDK/GD32VW55x_RELEASE_V1.0.2/MSDK/rtos/FreeRTOS/Source/portable/MemMang\heap_4.c **** 	size_t xBlockSize;						/*<< The size of the free block. */
  75:C:/Users/stapi/OneDrive/Desktop/GD32VW553/V1_MQTT_OK/GD32VW55X_Wifi_BLE_SDK/GD32VW55x_RELEASE_V1.0.2/MSDK/rtos/FreeRTOS/Source/portable/MemMang\heap_4.c **** } BlockLink_t;
  76:C:/Users/stapi/OneDrive/Desktop/GD32VW553/V1_MQTT_OK/GD32VW55X_Wifi_BLE_SDK/GD32VW55x_RELEASE_V1.0.2/MSDK/rtos/FreeRTOS/Source/portable/MemMang\heap_4.c **** 
  77:C:/Users/stapi/OneDrive/Desktop/GD32VW553/V1_MQTT_OK/GD32VW55X_Wifi_BLE_SDK/GD32VW55x_RELEASE_V1.0.2/MSDK/rtos/FreeRTOS/Source/portable/MemMang\heap_4.c **** /*-----------------------------------------------------------*/
  78:C:/Users/stapi/OneDrive/Desktop/GD32VW553/V1_MQTT_OK/GD32VW55X_Wifi_BLE_SDK/GD32VW55x_RELEASE_V1.0.2/MSDK/rtos/FreeRTOS/Source/portable/MemMang\heap_4.c **** 
  79:C:/Users/stapi/OneDrive/Desktop/GD32VW553/V1_MQTT_OK/GD32VW55X_Wifi_BLE_SDK/GD32VW55x_RELEASE_V1.0.2/MSDK/rtos/FreeRTOS/Source/portable/MemMang\heap_4.c **** /*
  80:C:/Users/stapi/OneDrive/Desktop/GD32VW553/V1_MQTT_OK/GD32VW55X_Wifi_BLE_SDK/GD32VW55x_RELEASE_V1.0.2/MSDK/rtos/FreeRTOS/Source/portable/MemMang\heap_4.c ****  * Inserts a block of memory that is being freed into the correct position in
  81:C:/Users/stapi/OneDrive/Desktop/GD32VW553/V1_MQTT_OK/GD32VW55X_Wifi_BLE_SDK/GD32VW55x_RELEASE_V1.0.2/MSDK/rtos/FreeRTOS/Source/portable/MemMang\heap_4.c ****  * the list of free memory blocks.  The block being freed will be merged with
  82:C:/Users/stapi/OneDrive/Desktop/GD32VW553/V1_MQTT_OK/GD32VW55X_Wifi_BLE_SDK/GD32VW55x_RELEASE_V1.0.2/MSDK/rtos/FreeRTOS/Source/portable/MemMang\heap_4.c ****  * the block in front it and/or the block behind it if the memory blocks are
  83:C:/Users/stapi/OneDrive/Desktop/GD32VW553/V1_MQTT_OK/GD32VW55X_Wifi_BLE_SDK/GD32VW55x_RELEASE_V1.0.2/MSDK/rtos/FreeRTOS/Source/portable/MemMang\heap_4.c ****  * adjacent to each other.
  84:C:/Users/stapi/OneDrive/Desktop/GD32VW553/V1_MQTT_OK/GD32VW55X_Wifi_BLE_SDK/GD32VW55x_RELEASE_V1.0.2/MSDK/rtos/FreeRTOS/Source/portable/MemMang\heap_4.c ****  */
  85:C:/Users/stapi/OneDrive/Desktop/GD32VW553/V1_MQTT_OK/GD32VW55X_Wifi_BLE_SDK/GD32VW55x_RELEASE_V1.0.2/MSDK/rtos/FreeRTOS/Source/portable/MemMang\heap_4.c **** static void prvInsertBlockIntoFreeList( BlockLink_t *pxBlockToInsert );
  86:C:/Users/stapi/OneDrive/Desktop/GD32VW553/V1_MQTT_OK/GD32VW55X_Wifi_BLE_SDK/GD32VW55x_RELEASE_V1.0.2/MSDK/rtos/FreeRTOS/Source/portable/MemMang\heap_4.c **** 
  87:C:/Users/stapi/OneDrive/Desktop/GD32VW553/V1_MQTT_OK/GD32VW55X_Wifi_BLE_SDK/GD32VW55x_RELEASE_V1.0.2/MSDK/rtos/FreeRTOS/Source/portable/MemMang\heap_4.c **** /*
  88:C:/Users/stapi/OneDrive/Desktop/GD32VW553/V1_MQTT_OK/GD32VW55X_Wifi_BLE_SDK/GD32VW55x_RELEASE_V1.0.2/MSDK/rtos/FreeRTOS/Source/portable/MemMang\heap_4.c ****  * Called automatically to setup the required heap structures the first time
  89:C:/Users/stapi/OneDrive/Desktop/GD32VW553/V1_MQTT_OK/GD32VW55X_Wifi_BLE_SDK/GD32VW55x_RELEASE_V1.0.2/MSDK/rtos/FreeRTOS/Source/portable/MemMang\heap_4.c ****  * pvPortMalloc() is called.
  90:C:/Users/stapi/OneDrive/Desktop/GD32VW553/V1_MQTT_OK/GD32VW55X_Wifi_BLE_SDK/GD32VW55x_RELEASE_V1.0.2/MSDK/rtos/FreeRTOS/Source/portable/MemMang\heap_4.c ****  */
  91:C:/Users/stapi/OneDrive/Desktop/GD32VW553/V1_MQTT_OK/GD32VW55X_Wifi_BLE_SDK/GD32VW55x_RELEASE_V1.0.2/MSDK/rtos/FreeRTOS/Source/portable/MemMang\heap_4.c **** static void prvHeapInit( void );
  92:C:/Users/stapi/OneDrive/Desktop/GD32VW553/V1_MQTT_OK/GD32VW55X_Wifi_BLE_SDK/GD32VW55x_RELEASE_V1.0.2/MSDK/rtos/FreeRTOS/Source/portable/MemMang\heap_4.c **** 
  93:C:/Users/stapi/OneDrive/Desktop/GD32VW553/V1_MQTT_OK/GD32VW55X_Wifi_BLE_SDK/GD32VW55x_RELEASE_V1.0.2/MSDK/rtos/FreeRTOS/Source/portable/MemMang\heap_4.c **** /*-----------------------------------------------------------*/
  94:C:/Users/stapi/OneDrive/Desktop/GD32VW553/V1_MQTT_OK/GD32VW55X_Wifi_BLE_SDK/GD32VW55x_RELEASE_V1.0.2/MSDK/rtos/FreeRTOS/Source/portable/MemMang\heap_4.c **** 
  95:C:/Users/stapi/OneDrive/Desktop/GD32VW553/V1_MQTT_OK/GD32VW55X_Wifi_BLE_SDK/GD32VW55x_RELEASE_V1.0.2/MSDK/rtos/FreeRTOS/Source/portable/MemMang\heap_4.c **** /* The size of the structure placed at the beginning of each allocated memory
  96:C:/Users/stapi/OneDrive/Desktop/GD32VW553/V1_MQTT_OK/GD32VW55X_Wifi_BLE_SDK/GD32VW55x_RELEASE_V1.0.2/MSDK/rtos/FreeRTOS/Source/portable/MemMang\heap_4.c **** block must by correctly byte aligned. */
  97:C:/Users/stapi/OneDrive/Desktop/GD32VW553/V1_MQTT_OK/GD32VW55X_Wifi_BLE_SDK/GD32VW55x_RELEASE_V1.0.2/MSDK/rtos/FreeRTOS/Source/portable/MemMang\heap_4.c **** static const size_t xHeapStructSize	= ( sizeof( BlockLink_t ) + ( ( size_t ) ( portBYTE_ALIGNMENT -
  98:C:/Users/stapi/OneDrive/Desktop/GD32VW553/V1_MQTT_OK/GD32VW55X_Wifi_BLE_SDK/GD32VW55x_RELEASE_V1.0.2/MSDK/rtos/FreeRTOS/Source/portable/MemMang\heap_4.c **** 
  99:C:/Users/stapi/OneDrive/Desktop/GD32VW553/V1_MQTT_OK/GD32VW55X_Wifi_BLE_SDK/GD32VW55x_RELEASE_V1.0.2/MSDK/rtos/FreeRTOS/Source/portable/MemMang\heap_4.c **** /* Create a couple of list links to mark the start and end of the list. */
 100:C:/Users/stapi/OneDrive/Desktop/GD32VW553/V1_MQTT_OK/GD32VW55X_Wifi_BLE_SDK/GD32VW55x_RELEASE_V1.0.2/MSDK/rtos/FreeRTOS/Source/portable/MemMang\heap_4.c **** static BlockLink_t xStart, *pxEnd = NULL;
 101:C:/Users/stapi/OneDrive/Desktop/GD32VW553/V1_MQTT_OK/GD32VW55X_Wifi_BLE_SDK/GD32VW55x_RELEASE_V1.0.2/MSDK/rtos/FreeRTOS/Source/portable/MemMang\heap_4.c **** 
 102:C:/Users/stapi/OneDrive/Desktop/GD32VW553/V1_MQTT_OK/GD32VW55X_Wifi_BLE_SDK/GD32VW55x_RELEASE_V1.0.2/MSDK/rtos/FreeRTOS/Source/portable/MemMang\heap_4.c **** /* Keeps track of the number of calls to allocate and free memory as well as the
 103:C:/Users/stapi/OneDrive/Desktop/GD32VW553/V1_MQTT_OK/GD32VW55X_Wifi_BLE_SDK/GD32VW55x_RELEASE_V1.0.2/MSDK/rtos/FreeRTOS/Source/portable/MemMang\heap_4.c **** number of free bytes remaining, but says nothing about fragmentation. */
 104:C:/Users/stapi/OneDrive/Desktop/GD32VW553/V1_MQTT_OK/GD32VW55X_Wifi_BLE_SDK/GD32VW55x_RELEASE_V1.0.2/MSDK/rtos/FreeRTOS/Source/portable/MemMang\heap_4.c **** static size_t xFreeBytesRemaining = 0U;
 105:C:/Users/stapi/OneDrive/Desktop/GD32VW553/V1_MQTT_OK/GD32VW55X_Wifi_BLE_SDK/GD32VW55x_RELEASE_V1.0.2/MSDK/rtos/FreeRTOS/Source/portable/MemMang\heap_4.c **** static size_t xMinimumEverFreeBytesRemaining = 0U;
 106:C:/Users/stapi/OneDrive/Desktop/GD32VW553/V1_MQTT_OK/GD32VW55X_Wifi_BLE_SDK/GD32VW55x_RELEASE_V1.0.2/MSDK/rtos/FreeRTOS/Source/portable/MemMang\heap_4.c **** static size_t xTotalHeapSize = 0U;
 107:C:/Users/stapi/OneDrive/Desktop/GD32VW553/V1_MQTT_OK/GD32VW55X_Wifi_BLE_SDK/GD32VW55x_RELEASE_V1.0.2/MSDK/rtos/FreeRTOS/Source/portable/MemMang\heap_4.c **** static size_t xNumberOfSuccessfulAllocations = 0;
 108:C:/Users/stapi/OneDrive/Desktop/GD32VW553/V1_MQTT_OK/GD32VW55X_Wifi_BLE_SDK/GD32VW55x_RELEASE_V1.0.2/MSDK/rtos/FreeRTOS/Source/portable/MemMang\heap_4.c **** static size_t xNumberOfSuccessfulFrees = 0;
 109:C:/Users/stapi/OneDrive/Desktop/GD32VW553/V1_MQTT_OK/GD32VW55X_Wifi_BLE_SDK/GD32VW55x_RELEASE_V1.0.2/MSDK/rtos/FreeRTOS/Source/portable/MemMang\heap_4.c **** 
 110:C:/Users/stapi/OneDrive/Desktop/GD32VW553/V1_MQTT_OK/GD32VW55X_Wifi_BLE_SDK/GD32VW55x_RELEASE_V1.0.2/MSDK/rtos/FreeRTOS/Source/portable/MemMang\heap_4.c **** /* Gets set to the top bit of an size_t type.  When this bit in the xBlockSize
 111:C:/Users/stapi/OneDrive/Desktop/GD32VW553/V1_MQTT_OK/GD32VW55X_Wifi_BLE_SDK/GD32VW55x_RELEASE_V1.0.2/MSDK/rtos/FreeRTOS/Source/portable/MemMang\heap_4.c **** member of an BlockLink_t structure is set then the block belongs to the
 112:C:/Users/stapi/OneDrive/Desktop/GD32VW553/V1_MQTT_OK/GD32VW55X_Wifi_BLE_SDK/GD32VW55x_RELEASE_V1.0.2/MSDK/rtos/FreeRTOS/Source/portable/MemMang\heap_4.c **** application.  When the bit is free the block is still part of the free heap
 113:C:/Users/stapi/OneDrive/Desktop/GD32VW553/V1_MQTT_OK/GD32VW55X_Wifi_BLE_SDK/GD32VW55x_RELEASE_V1.0.2/MSDK/rtos/FreeRTOS/Source/portable/MemMang\heap_4.c **** space. */
 114:C:/Users/stapi/OneDrive/Desktop/GD32VW553/V1_MQTT_OK/GD32VW55X_Wifi_BLE_SDK/GD32VW55x_RELEASE_V1.0.2/MSDK/rtos/FreeRTOS/Source/portable/MemMang\heap_4.c **** static size_t xBlockAllocatedBit = 0;
 115:C:/Users/stapi/OneDrive/Desktop/GD32VW553/V1_MQTT_OK/GD32VW55X_Wifi_BLE_SDK/GD32VW55x_RELEASE_V1.0.2/MSDK/rtos/FreeRTOS/Source/portable/MemMang\heap_4.c **** 
 116:C:/Users/stapi/OneDrive/Desktop/GD32VW553/V1_MQTT_OK/GD32VW55X_Wifi_BLE_SDK/GD32VW55x_RELEASE_V1.0.2/MSDK/rtos/FreeRTOS/Source/portable/MemMang\heap_4.c **** /* For last region dynamically added or removed */
 117:C:/Users/stapi/OneDrive/Desktop/GD32VW553/V1_MQTT_OK/GD32VW55X_Wifi_BLE_SDK/GD32VW55x_RELEASE_V1.0.2/MSDK/rtos/FreeRTOS/Source/portable/MemMang\heap_4.c **** static BlockLink_t *pxEndPrevious = NULL;
 118:C:/Users/stapi/OneDrive/Desktop/GD32VW553/V1_MQTT_OK/GD32VW55X_Wifi_BLE_SDK/GD32VW55x_RELEASE_V1.0.2/MSDK/rtos/FreeRTOS/Source/portable/MemMang\heap_4.c **** 
 119:C:/Users/stapi/OneDrive/Desktop/GD32VW553/V1_MQTT_OK/GD32VW55X_Wifi_BLE_SDK/GD32VW55x_RELEASE_V1.0.2/MSDK/rtos/FreeRTOS/Source/portable/MemMang\heap_4.c **** /*-----------------------------------------------------------*/
 120:C:/Users/stapi/OneDrive/Desktop/GD32VW553/V1_MQTT_OK/GD32VW55X_Wifi_BLE_SDK/GD32VW55x_RELEASE_V1.0.2/MSDK/rtos/FreeRTOS/Source/portable/MemMang\heap_4.c **** 
 121:C:/Users/stapi/OneDrive/Desktop/GD32VW553/V1_MQTT_OK/GD32VW55X_Wifi_BLE_SDK/GD32VW55x_RELEASE_V1.0.2/MSDK/rtos/FreeRTOS/Source/portable/MemMang\heap_4.c **** void *pvPortMalloc( size_t xWantedSize )
 122:C:/Users/stapi/OneDrive/Desktop/GD32VW553/V1_MQTT_OK/GD32VW55X_Wifi_BLE_SDK/GD32VW55x_RELEASE_V1.0.2/MSDK/rtos/FreeRTOS/Source/portable/MemMang\heap_4.c **** {
 123:C:/Users/stapi/OneDrive/Desktop/GD32VW553/V1_MQTT_OK/GD32VW55X_Wifi_BLE_SDK/GD32VW55x_RELEASE_V1.0.2/MSDK/rtos/FreeRTOS/Source/portable/MemMang\heap_4.c **** BlockLink_t *pxBlock, *pxPreviousBlock, *pxNewBlockLink;
 124:C:/Users/stapi/OneDrive/Desktop/GD32VW553/V1_MQTT_OK/GD32VW55X_Wifi_BLE_SDK/GD32VW55x_RELEASE_V1.0.2/MSDK/rtos/FreeRTOS/Source/portable/MemMang\heap_4.c **** void *pvReturn = NULL;
 125:C:/Users/stapi/OneDrive/Desktop/GD32VW553/V1_MQTT_OK/GD32VW55X_Wifi_BLE_SDK/GD32VW55x_RELEASE_V1.0.2/MSDK/rtos/FreeRTOS/Source/portable/MemMang\heap_4.c **** 
 126:C:/Users/stapi/OneDrive/Desktop/GD32VW553/V1_MQTT_OK/GD32VW55X_Wifi_BLE_SDK/GD32VW55x_RELEASE_V1.0.2/MSDK/rtos/FreeRTOS/Source/portable/MemMang\heap_4.c **** 	vTaskSuspendAll();
 127:C:/Users/stapi/OneDrive/Desktop/GD32VW553/V1_MQTT_OK/GD32VW55X_Wifi_BLE_SDK/GD32VW55x_RELEASE_V1.0.2/MSDK/rtos/FreeRTOS/Source/portable/MemMang\heap_4.c **** 	{
 128:C:/Users/stapi/OneDrive/Desktop/GD32VW553/V1_MQTT_OK/GD32VW55X_Wifi_BLE_SDK/GD32VW55x_RELEASE_V1.0.2/MSDK/rtos/FreeRTOS/Source/portable/MemMang\heap_4.c **** 		/* If this is the first call to malloc then the heap will require
 129:C:/Users/stapi/OneDrive/Desktop/GD32VW553/V1_MQTT_OK/GD32VW55X_Wifi_BLE_SDK/GD32VW55x_RELEASE_V1.0.2/MSDK/rtos/FreeRTOS/Source/portable/MemMang\heap_4.c **** 		initialisation to setup the list of free blocks. */
 130:C:/Users/stapi/OneDrive/Desktop/GD32VW553/V1_MQTT_OK/GD32VW55X_Wifi_BLE_SDK/GD32VW55x_RELEASE_V1.0.2/MSDK/rtos/FreeRTOS/Source/portable/MemMang\heap_4.c **** 		if( pxEnd == NULL )
 131:C:/Users/stapi/OneDrive/Desktop/GD32VW553/V1_MQTT_OK/GD32VW55X_Wifi_BLE_SDK/GD32VW55x_RELEASE_V1.0.2/MSDK/rtos/FreeRTOS/Source/portable/MemMang\heap_4.c **** 		{
 132:C:/Users/stapi/OneDrive/Desktop/GD32VW553/V1_MQTT_OK/GD32VW55X_Wifi_BLE_SDK/GD32VW55x_RELEASE_V1.0.2/MSDK/rtos/FreeRTOS/Source/portable/MemMang\heap_4.c **** 			prvHeapInit();
 133:C:/Users/stapi/OneDrive/Desktop/GD32VW553/V1_MQTT_OK/GD32VW55X_Wifi_BLE_SDK/GD32VW55x_RELEASE_V1.0.2/MSDK/rtos/FreeRTOS/Source/portable/MemMang\heap_4.c **** 		}
 134:C:/Users/stapi/OneDrive/Desktop/GD32VW553/V1_MQTT_OK/GD32VW55X_Wifi_BLE_SDK/GD32VW55x_RELEASE_V1.0.2/MSDK/rtos/FreeRTOS/Source/portable/MemMang\heap_4.c **** 		else
 135:C:/Users/stapi/OneDrive/Desktop/GD32VW553/V1_MQTT_OK/GD32VW55X_Wifi_BLE_SDK/GD32VW55x_RELEASE_V1.0.2/MSDK/rtos/FreeRTOS/Source/portable/MemMang\heap_4.c **** 		{
 136:C:/Users/stapi/OneDrive/Desktop/GD32VW553/V1_MQTT_OK/GD32VW55X_Wifi_BLE_SDK/GD32VW55x_RELEASE_V1.0.2/MSDK/rtos/FreeRTOS/Source/portable/MemMang\heap_4.c **** 			mtCOVERAGE_TEST_MARKER();
 137:C:/Users/stapi/OneDrive/Desktop/GD32VW553/V1_MQTT_OK/GD32VW55X_Wifi_BLE_SDK/GD32VW55x_RELEASE_V1.0.2/MSDK/rtos/FreeRTOS/Source/portable/MemMang\heap_4.c **** 		}
 138:C:/Users/stapi/OneDrive/Desktop/GD32VW553/V1_MQTT_OK/GD32VW55X_Wifi_BLE_SDK/GD32VW55x_RELEASE_V1.0.2/MSDK/rtos/FreeRTOS/Source/portable/MemMang\heap_4.c **** 
 139:C:/Users/stapi/OneDrive/Desktop/GD32VW553/V1_MQTT_OK/GD32VW55X_Wifi_BLE_SDK/GD32VW55x_RELEASE_V1.0.2/MSDK/rtos/FreeRTOS/Source/portable/MemMang\heap_4.c **** 		/* Check the requested block size is not so large that the top bit is
 140:C:/Users/stapi/OneDrive/Desktop/GD32VW553/V1_MQTT_OK/GD32VW55X_Wifi_BLE_SDK/GD32VW55x_RELEASE_V1.0.2/MSDK/rtos/FreeRTOS/Source/portable/MemMang\heap_4.c **** 		set.  The top bit of the block size member of the BlockLink_t structure
 141:C:/Users/stapi/OneDrive/Desktop/GD32VW553/V1_MQTT_OK/GD32VW55X_Wifi_BLE_SDK/GD32VW55x_RELEASE_V1.0.2/MSDK/rtos/FreeRTOS/Source/portable/MemMang\heap_4.c **** 		is used to determine who owns the block - the application or the
 142:C:/Users/stapi/OneDrive/Desktop/GD32VW553/V1_MQTT_OK/GD32VW55X_Wifi_BLE_SDK/GD32VW55x_RELEASE_V1.0.2/MSDK/rtos/FreeRTOS/Source/portable/MemMang\heap_4.c **** 		kernel, so it must be free. */
 143:C:/Users/stapi/OneDrive/Desktop/GD32VW553/V1_MQTT_OK/GD32VW55X_Wifi_BLE_SDK/GD32VW55x_RELEASE_V1.0.2/MSDK/rtos/FreeRTOS/Source/portable/MemMang\heap_4.c **** 		if( ( xWantedSize & xBlockAllocatedBit ) == 0 )
 144:C:/Users/stapi/OneDrive/Desktop/GD32VW553/V1_MQTT_OK/GD32VW55X_Wifi_BLE_SDK/GD32VW55x_RELEASE_V1.0.2/MSDK/rtos/FreeRTOS/Source/portable/MemMang\heap_4.c **** 		{
 145:C:/Users/stapi/OneDrive/Desktop/GD32VW553/V1_MQTT_OK/GD32VW55X_Wifi_BLE_SDK/GD32VW55x_RELEASE_V1.0.2/MSDK/rtos/FreeRTOS/Source/portable/MemMang\heap_4.c **** 			/* The wanted size is increased so it can contain a BlockLink_t
 146:C:/Users/stapi/OneDrive/Desktop/GD32VW553/V1_MQTT_OK/GD32VW55X_Wifi_BLE_SDK/GD32VW55x_RELEASE_V1.0.2/MSDK/rtos/FreeRTOS/Source/portable/MemMang\heap_4.c **** 			structure in addition to the requested amount of bytes. */
 147:C:/Users/stapi/OneDrive/Desktop/GD32VW553/V1_MQTT_OK/GD32VW55X_Wifi_BLE_SDK/GD32VW55x_RELEASE_V1.0.2/MSDK/rtos/FreeRTOS/Source/portable/MemMang\heap_4.c **** 			if( xWantedSize > 0 )
 148:C:/Users/stapi/OneDrive/Desktop/GD32VW553/V1_MQTT_OK/GD32VW55X_Wifi_BLE_SDK/GD32VW55x_RELEASE_V1.0.2/MSDK/rtos/FreeRTOS/Source/portable/MemMang\heap_4.c **** 			{
 149:C:/Users/stapi/OneDrive/Desktop/GD32VW553/V1_MQTT_OK/GD32VW55X_Wifi_BLE_SDK/GD32VW55x_RELEASE_V1.0.2/MSDK/rtos/FreeRTOS/Source/portable/MemMang\heap_4.c **** 				xWantedSize += xHeapStructSize;
 150:C:/Users/stapi/OneDrive/Desktop/GD32VW553/V1_MQTT_OK/GD32VW55X_Wifi_BLE_SDK/GD32VW55x_RELEASE_V1.0.2/MSDK/rtos/FreeRTOS/Source/portable/MemMang\heap_4.c **** 
 151:C:/Users/stapi/OneDrive/Desktop/GD32VW553/V1_MQTT_OK/GD32VW55X_Wifi_BLE_SDK/GD32VW55x_RELEASE_V1.0.2/MSDK/rtos/FreeRTOS/Source/portable/MemMang\heap_4.c **** 				/* Ensure that blocks are always aligned to the required number
 152:C:/Users/stapi/OneDrive/Desktop/GD32VW553/V1_MQTT_OK/GD32VW55X_Wifi_BLE_SDK/GD32VW55x_RELEASE_V1.0.2/MSDK/rtos/FreeRTOS/Source/portable/MemMang\heap_4.c **** 				of bytes. */
 153:C:/Users/stapi/OneDrive/Desktop/GD32VW553/V1_MQTT_OK/GD32VW55X_Wifi_BLE_SDK/GD32VW55x_RELEASE_V1.0.2/MSDK/rtos/FreeRTOS/Source/portable/MemMang\heap_4.c **** 				if( ( xWantedSize & portBYTE_ALIGNMENT_MASK ) != 0x00 )
 154:C:/Users/stapi/OneDrive/Desktop/GD32VW553/V1_MQTT_OK/GD32VW55X_Wifi_BLE_SDK/GD32VW55x_RELEASE_V1.0.2/MSDK/rtos/FreeRTOS/Source/portable/MemMang\heap_4.c **** 				{
 155:C:/Users/stapi/OneDrive/Desktop/GD32VW553/V1_MQTT_OK/GD32VW55X_Wifi_BLE_SDK/GD32VW55x_RELEASE_V1.0.2/MSDK/rtos/FreeRTOS/Source/portable/MemMang\heap_4.c **** 					/* Byte alignment required. */
 156:C:/Users/stapi/OneDrive/Desktop/GD32VW553/V1_MQTT_OK/GD32VW55X_Wifi_BLE_SDK/GD32VW55x_RELEASE_V1.0.2/MSDK/rtos/FreeRTOS/Source/portable/MemMang\heap_4.c **** 					xWantedSize += ( portBYTE_ALIGNMENT - ( xWantedSize & portBYTE_ALIGNMENT_MASK ) );
 157:C:/Users/stapi/OneDrive/Desktop/GD32VW553/V1_MQTT_OK/GD32VW55X_Wifi_BLE_SDK/GD32VW55x_RELEASE_V1.0.2/MSDK/rtos/FreeRTOS/Source/portable/MemMang\heap_4.c **** 					configASSERT( ( xWantedSize & portBYTE_ALIGNMENT_MASK ) == 0 );
 158:C:/Users/stapi/OneDrive/Desktop/GD32VW553/V1_MQTT_OK/GD32VW55X_Wifi_BLE_SDK/GD32VW55x_RELEASE_V1.0.2/MSDK/rtos/FreeRTOS/Source/portable/MemMang\heap_4.c **** 				}
 159:C:/Users/stapi/OneDrive/Desktop/GD32VW553/V1_MQTT_OK/GD32VW55X_Wifi_BLE_SDK/GD32VW55x_RELEASE_V1.0.2/MSDK/rtos/FreeRTOS/Source/portable/MemMang\heap_4.c **** 				else
 160:C:/Users/stapi/OneDrive/Desktop/GD32VW553/V1_MQTT_OK/GD32VW55X_Wifi_BLE_SDK/GD32VW55x_RELEASE_V1.0.2/MSDK/rtos/FreeRTOS/Source/portable/MemMang\heap_4.c **** 				{
 161:C:/Users/stapi/OneDrive/Desktop/GD32VW553/V1_MQTT_OK/GD32VW55X_Wifi_BLE_SDK/GD32VW55x_RELEASE_V1.0.2/MSDK/rtos/FreeRTOS/Source/portable/MemMang\heap_4.c **** 					mtCOVERAGE_TEST_MARKER();
 162:C:/Users/stapi/OneDrive/Desktop/GD32VW553/V1_MQTT_OK/GD32VW55X_Wifi_BLE_SDK/GD32VW55x_RELEASE_V1.0.2/MSDK/rtos/FreeRTOS/Source/portable/MemMang\heap_4.c **** 				}
 163:C:/Users/stapi/OneDrive/Desktop/GD32VW553/V1_MQTT_OK/GD32VW55X_Wifi_BLE_SDK/GD32VW55x_RELEASE_V1.0.2/MSDK/rtos/FreeRTOS/Source/portable/MemMang\heap_4.c **** 			}
 164:C:/Users/stapi/OneDrive/Desktop/GD32VW553/V1_MQTT_OK/GD32VW55X_Wifi_BLE_SDK/GD32VW55x_RELEASE_V1.0.2/MSDK/rtos/FreeRTOS/Source/portable/MemMang\heap_4.c **** 			else
 165:C:/Users/stapi/OneDrive/Desktop/GD32VW553/V1_MQTT_OK/GD32VW55X_Wifi_BLE_SDK/GD32VW55x_RELEASE_V1.0.2/MSDK/rtos/FreeRTOS/Source/portable/MemMang\heap_4.c **** 			{
 166:C:/Users/stapi/OneDrive/Desktop/GD32VW553/V1_MQTT_OK/GD32VW55X_Wifi_BLE_SDK/GD32VW55x_RELEASE_V1.0.2/MSDK/rtos/FreeRTOS/Source/portable/MemMang\heap_4.c **** 				mtCOVERAGE_TEST_MARKER();
 167:C:/Users/stapi/OneDrive/Desktop/GD32VW553/V1_MQTT_OK/GD32VW55X_Wifi_BLE_SDK/GD32VW55x_RELEASE_V1.0.2/MSDK/rtos/FreeRTOS/Source/portable/MemMang\heap_4.c **** 			}
 168:C:/Users/stapi/OneDrive/Desktop/GD32VW553/V1_MQTT_OK/GD32VW55X_Wifi_BLE_SDK/GD32VW55x_RELEASE_V1.0.2/MSDK/rtos/FreeRTOS/Source/portable/MemMang\heap_4.c **** 
 169:C:/Users/stapi/OneDrive/Desktop/GD32VW553/V1_MQTT_OK/GD32VW55X_Wifi_BLE_SDK/GD32VW55x_RELEASE_V1.0.2/MSDK/rtos/FreeRTOS/Source/portable/MemMang\heap_4.c **** 			if( ( xWantedSize > 0 ) && ( xWantedSize <= xFreeBytesRemaining ) )
 170:C:/Users/stapi/OneDrive/Desktop/GD32VW553/V1_MQTT_OK/GD32VW55X_Wifi_BLE_SDK/GD32VW55x_RELEASE_V1.0.2/MSDK/rtos/FreeRTOS/Source/portable/MemMang\heap_4.c **** 			{
 171:C:/Users/stapi/OneDrive/Desktop/GD32VW553/V1_MQTT_OK/GD32VW55X_Wifi_BLE_SDK/GD32VW55x_RELEASE_V1.0.2/MSDK/rtos/FreeRTOS/Source/portable/MemMang\heap_4.c **** 				/* Traverse the list from the start	(lowest address) block until
 172:C:/Users/stapi/OneDrive/Desktop/GD32VW553/V1_MQTT_OK/GD32VW55X_Wifi_BLE_SDK/GD32VW55x_RELEASE_V1.0.2/MSDK/rtos/FreeRTOS/Source/portable/MemMang\heap_4.c **** 				one	of adequate size is found. */
 173:C:/Users/stapi/OneDrive/Desktop/GD32VW553/V1_MQTT_OK/GD32VW55X_Wifi_BLE_SDK/GD32VW55x_RELEASE_V1.0.2/MSDK/rtos/FreeRTOS/Source/portable/MemMang\heap_4.c **** 				pxPreviousBlock = &xStart;
 174:C:/Users/stapi/OneDrive/Desktop/GD32VW553/V1_MQTT_OK/GD32VW55X_Wifi_BLE_SDK/GD32VW55x_RELEASE_V1.0.2/MSDK/rtos/FreeRTOS/Source/portable/MemMang\heap_4.c **** 				pxBlock = xStart.pxNextFreeBlock;
 175:C:/Users/stapi/OneDrive/Desktop/GD32VW553/V1_MQTT_OK/GD32VW55X_Wifi_BLE_SDK/GD32VW55x_RELEASE_V1.0.2/MSDK/rtos/FreeRTOS/Source/portable/MemMang\heap_4.c **** 				while( ( pxBlock->xBlockSize < xWantedSize ) && ( pxBlock->pxNextFreeBlock != NULL ) )
 176:C:/Users/stapi/OneDrive/Desktop/GD32VW553/V1_MQTT_OK/GD32VW55X_Wifi_BLE_SDK/GD32VW55x_RELEASE_V1.0.2/MSDK/rtos/FreeRTOS/Source/portable/MemMang\heap_4.c **** 				{
 177:C:/Users/stapi/OneDrive/Desktop/GD32VW553/V1_MQTT_OK/GD32VW55X_Wifi_BLE_SDK/GD32VW55x_RELEASE_V1.0.2/MSDK/rtos/FreeRTOS/Source/portable/MemMang\heap_4.c **** 					pxPreviousBlock = pxBlock;
 178:C:/Users/stapi/OneDrive/Desktop/GD32VW553/V1_MQTT_OK/GD32VW55X_Wifi_BLE_SDK/GD32VW55x_RELEASE_V1.0.2/MSDK/rtos/FreeRTOS/Source/portable/MemMang\heap_4.c **** 					pxBlock = pxBlock->pxNextFreeBlock;
 179:C:/Users/stapi/OneDrive/Desktop/GD32VW553/V1_MQTT_OK/GD32VW55X_Wifi_BLE_SDK/GD32VW55x_RELEASE_V1.0.2/MSDK/rtos/FreeRTOS/Source/portable/MemMang\heap_4.c **** 				}
 180:C:/Users/stapi/OneDrive/Desktop/GD32VW553/V1_MQTT_OK/GD32VW55X_Wifi_BLE_SDK/GD32VW55x_RELEASE_V1.0.2/MSDK/rtos/FreeRTOS/Source/portable/MemMang\heap_4.c **** 
 181:C:/Users/stapi/OneDrive/Desktop/GD32VW553/V1_MQTT_OK/GD32VW55X_Wifi_BLE_SDK/GD32VW55x_RELEASE_V1.0.2/MSDK/rtos/FreeRTOS/Source/portable/MemMang\heap_4.c **** 				/* If the end marker was reached then a block of adequate size
 182:C:/Users/stapi/OneDrive/Desktop/GD32VW553/V1_MQTT_OK/GD32VW55X_Wifi_BLE_SDK/GD32VW55x_RELEASE_V1.0.2/MSDK/rtos/FreeRTOS/Source/portable/MemMang\heap_4.c **** 				was	not found. */
 183:C:/Users/stapi/OneDrive/Desktop/GD32VW553/V1_MQTT_OK/GD32VW55X_Wifi_BLE_SDK/GD32VW55x_RELEASE_V1.0.2/MSDK/rtos/FreeRTOS/Source/portable/MemMang\heap_4.c **** 				if( pxBlock != pxEnd )
 184:C:/Users/stapi/OneDrive/Desktop/GD32VW553/V1_MQTT_OK/GD32VW55X_Wifi_BLE_SDK/GD32VW55x_RELEASE_V1.0.2/MSDK/rtos/FreeRTOS/Source/portable/MemMang\heap_4.c **** 				{
 185:C:/Users/stapi/OneDrive/Desktop/GD32VW553/V1_MQTT_OK/GD32VW55X_Wifi_BLE_SDK/GD32VW55x_RELEASE_V1.0.2/MSDK/rtos/FreeRTOS/Source/portable/MemMang\heap_4.c **** 					/* Return the memory space pointed to - jumping over the
 186:C:/Users/stapi/OneDrive/Desktop/GD32VW553/V1_MQTT_OK/GD32VW55X_Wifi_BLE_SDK/GD32VW55x_RELEASE_V1.0.2/MSDK/rtos/FreeRTOS/Source/portable/MemMang\heap_4.c **** 					BlockLink_t structure at its start. */
 187:C:/Users/stapi/OneDrive/Desktop/GD32VW553/V1_MQTT_OK/GD32VW55X_Wifi_BLE_SDK/GD32VW55x_RELEASE_V1.0.2/MSDK/rtos/FreeRTOS/Source/portable/MemMang\heap_4.c **** 					pvReturn = ( void * ) ( ( ( uint8_t * ) pxPreviousBlock->pxNextFreeBlock ) + xHeapStructSize )
 188:C:/Users/stapi/OneDrive/Desktop/GD32VW553/V1_MQTT_OK/GD32VW55X_Wifi_BLE_SDK/GD32VW55x_RELEASE_V1.0.2/MSDK/rtos/FreeRTOS/Source/portable/MemMang\heap_4.c **** 
 189:C:/Users/stapi/OneDrive/Desktop/GD32VW553/V1_MQTT_OK/GD32VW55X_Wifi_BLE_SDK/GD32VW55x_RELEASE_V1.0.2/MSDK/rtos/FreeRTOS/Source/portable/MemMang\heap_4.c **** 					/* This block is being returned for use so must be taken out
 190:C:/Users/stapi/OneDrive/Desktop/GD32VW553/V1_MQTT_OK/GD32VW55X_Wifi_BLE_SDK/GD32VW55x_RELEASE_V1.0.2/MSDK/rtos/FreeRTOS/Source/portable/MemMang\heap_4.c **** 					of the list of free blocks. */
 191:C:/Users/stapi/OneDrive/Desktop/GD32VW553/V1_MQTT_OK/GD32VW55X_Wifi_BLE_SDK/GD32VW55x_RELEASE_V1.0.2/MSDK/rtos/FreeRTOS/Source/portable/MemMang\heap_4.c **** 					pxPreviousBlock->pxNextFreeBlock = pxBlock->pxNextFreeBlock;
 192:C:/Users/stapi/OneDrive/Desktop/GD32VW553/V1_MQTT_OK/GD32VW55X_Wifi_BLE_SDK/GD32VW55x_RELEASE_V1.0.2/MSDK/rtos/FreeRTOS/Source/portable/MemMang\heap_4.c **** 
 193:C:/Users/stapi/OneDrive/Desktop/GD32VW553/V1_MQTT_OK/GD32VW55X_Wifi_BLE_SDK/GD32VW55x_RELEASE_V1.0.2/MSDK/rtos/FreeRTOS/Source/portable/MemMang\heap_4.c **** 					/* If the block is larger than required it can be split into
 194:C:/Users/stapi/OneDrive/Desktop/GD32VW553/V1_MQTT_OK/GD32VW55X_Wifi_BLE_SDK/GD32VW55x_RELEASE_V1.0.2/MSDK/rtos/FreeRTOS/Source/portable/MemMang\heap_4.c **** 					two. */
 195:C:/Users/stapi/OneDrive/Desktop/GD32VW553/V1_MQTT_OK/GD32VW55X_Wifi_BLE_SDK/GD32VW55x_RELEASE_V1.0.2/MSDK/rtos/FreeRTOS/Source/portable/MemMang\heap_4.c **** 					if( ( pxBlock->xBlockSize - xWantedSize ) > heapMINIMUM_BLOCK_SIZE )
 196:C:/Users/stapi/OneDrive/Desktop/GD32VW553/V1_MQTT_OK/GD32VW55X_Wifi_BLE_SDK/GD32VW55x_RELEASE_V1.0.2/MSDK/rtos/FreeRTOS/Source/portable/MemMang\heap_4.c **** 					{
 197:C:/Users/stapi/OneDrive/Desktop/GD32VW553/V1_MQTT_OK/GD32VW55X_Wifi_BLE_SDK/GD32VW55x_RELEASE_V1.0.2/MSDK/rtos/FreeRTOS/Source/portable/MemMang\heap_4.c **** 						/* This block is to be split into two.  Create a new
 198:C:/Users/stapi/OneDrive/Desktop/GD32VW553/V1_MQTT_OK/GD32VW55X_Wifi_BLE_SDK/GD32VW55x_RELEASE_V1.0.2/MSDK/rtos/FreeRTOS/Source/portable/MemMang\heap_4.c **** 						block following the number of bytes requested. The void
 199:C:/Users/stapi/OneDrive/Desktop/GD32VW553/V1_MQTT_OK/GD32VW55X_Wifi_BLE_SDK/GD32VW55x_RELEASE_V1.0.2/MSDK/rtos/FreeRTOS/Source/portable/MemMang\heap_4.c **** 						cast is used to prevent byte alignment warnings from the
 200:C:/Users/stapi/OneDrive/Desktop/GD32VW553/V1_MQTT_OK/GD32VW55X_Wifi_BLE_SDK/GD32VW55x_RELEASE_V1.0.2/MSDK/rtos/FreeRTOS/Source/portable/MemMang\heap_4.c **** 						compiler. */
 201:C:/Users/stapi/OneDrive/Desktop/GD32VW553/V1_MQTT_OK/GD32VW55X_Wifi_BLE_SDK/GD32VW55x_RELEASE_V1.0.2/MSDK/rtos/FreeRTOS/Source/portable/MemMang\heap_4.c **** 						pxNewBlockLink = ( void * ) ( ( ( uint8_t * ) pxBlock ) + xWantedSize );
 202:C:/Users/stapi/OneDrive/Desktop/GD32VW553/V1_MQTT_OK/GD32VW55X_Wifi_BLE_SDK/GD32VW55x_RELEASE_V1.0.2/MSDK/rtos/FreeRTOS/Source/portable/MemMang\heap_4.c **** 						configASSERT( ( ( ( size_t ) pxNewBlockLink ) & portBYTE_ALIGNMENT_MASK ) == 0 );
 203:C:/Users/stapi/OneDrive/Desktop/GD32VW553/V1_MQTT_OK/GD32VW55X_Wifi_BLE_SDK/GD32VW55x_RELEASE_V1.0.2/MSDK/rtos/FreeRTOS/Source/portable/MemMang\heap_4.c **** 
 204:C:/Users/stapi/OneDrive/Desktop/GD32VW553/V1_MQTT_OK/GD32VW55X_Wifi_BLE_SDK/GD32VW55x_RELEASE_V1.0.2/MSDK/rtos/FreeRTOS/Source/portable/MemMang\heap_4.c **** 						/* Calculate the sizes of two blocks split from the
 205:C:/Users/stapi/OneDrive/Desktop/GD32VW553/V1_MQTT_OK/GD32VW55X_Wifi_BLE_SDK/GD32VW55x_RELEASE_V1.0.2/MSDK/rtos/FreeRTOS/Source/portable/MemMang\heap_4.c **** 						single block. */
 206:C:/Users/stapi/OneDrive/Desktop/GD32VW553/V1_MQTT_OK/GD32VW55X_Wifi_BLE_SDK/GD32VW55x_RELEASE_V1.0.2/MSDK/rtos/FreeRTOS/Source/portable/MemMang\heap_4.c **** 						pxNewBlockLink->xBlockSize = pxBlock->xBlockSize - xWantedSize;
 207:C:/Users/stapi/OneDrive/Desktop/GD32VW553/V1_MQTT_OK/GD32VW55X_Wifi_BLE_SDK/GD32VW55x_RELEASE_V1.0.2/MSDK/rtos/FreeRTOS/Source/portable/MemMang\heap_4.c **** 						pxBlock->xBlockSize = xWantedSize;
 208:C:/Users/stapi/OneDrive/Desktop/GD32VW553/V1_MQTT_OK/GD32VW55X_Wifi_BLE_SDK/GD32VW55x_RELEASE_V1.0.2/MSDK/rtos/FreeRTOS/Source/portable/MemMang\heap_4.c **** 
 209:C:/Users/stapi/OneDrive/Desktop/GD32VW553/V1_MQTT_OK/GD32VW55X_Wifi_BLE_SDK/GD32VW55x_RELEASE_V1.0.2/MSDK/rtos/FreeRTOS/Source/portable/MemMang\heap_4.c **** 						/* Insert the new block into the list of free blocks. */
 210:C:/Users/stapi/OneDrive/Desktop/GD32VW553/V1_MQTT_OK/GD32VW55X_Wifi_BLE_SDK/GD32VW55x_RELEASE_V1.0.2/MSDK/rtos/FreeRTOS/Source/portable/MemMang\heap_4.c **** 						prvInsertBlockIntoFreeList( pxNewBlockLink );
 211:C:/Users/stapi/OneDrive/Desktop/GD32VW553/V1_MQTT_OK/GD32VW55X_Wifi_BLE_SDK/GD32VW55x_RELEASE_V1.0.2/MSDK/rtos/FreeRTOS/Source/portable/MemMang\heap_4.c **** 					}
 212:C:/Users/stapi/OneDrive/Desktop/GD32VW553/V1_MQTT_OK/GD32VW55X_Wifi_BLE_SDK/GD32VW55x_RELEASE_V1.0.2/MSDK/rtos/FreeRTOS/Source/portable/MemMang\heap_4.c **** 					else
 213:C:/Users/stapi/OneDrive/Desktop/GD32VW553/V1_MQTT_OK/GD32VW55X_Wifi_BLE_SDK/GD32VW55x_RELEASE_V1.0.2/MSDK/rtos/FreeRTOS/Source/portable/MemMang\heap_4.c **** 					{
 214:C:/Users/stapi/OneDrive/Desktop/GD32VW553/V1_MQTT_OK/GD32VW55X_Wifi_BLE_SDK/GD32VW55x_RELEASE_V1.0.2/MSDK/rtos/FreeRTOS/Source/portable/MemMang\heap_4.c **** 						mtCOVERAGE_TEST_MARKER();
 215:C:/Users/stapi/OneDrive/Desktop/GD32VW553/V1_MQTT_OK/GD32VW55X_Wifi_BLE_SDK/GD32VW55x_RELEASE_V1.0.2/MSDK/rtos/FreeRTOS/Source/portable/MemMang\heap_4.c **** 					}
 216:C:/Users/stapi/OneDrive/Desktop/GD32VW553/V1_MQTT_OK/GD32VW55X_Wifi_BLE_SDK/GD32VW55x_RELEASE_V1.0.2/MSDK/rtos/FreeRTOS/Source/portable/MemMang\heap_4.c **** 
 217:C:/Users/stapi/OneDrive/Desktop/GD32VW553/V1_MQTT_OK/GD32VW55X_Wifi_BLE_SDK/GD32VW55x_RELEASE_V1.0.2/MSDK/rtos/FreeRTOS/Source/portable/MemMang\heap_4.c **** 					xFreeBytesRemaining -= pxBlock->xBlockSize;
 218:C:/Users/stapi/OneDrive/Desktop/GD32VW553/V1_MQTT_OK/GD32VW55X_Wifi_BLE_SDK/GD32VW55x_RELEASE_V1.0.2/MSDK/rtos/FreeRTOS/Source/portable/MemMang\heap_4.c **** 
 219:C:/Users/stapi/OneDrive/Desktop/GD32VW553/V1_MQTT_OK/GD32VW55X_Wifi_BLE_SDK/GD32VW55x_RELEASE_V1.0.2/MSDK/rtos/FreeRTOS/Source/portable/MemMang\heap_4.c **** 					if( xFreeBytesRemaining < xMinimumEverFreeBytesRemaining )
 220:C:/Users/stapi/OneDrive/Desktop/GD32VW553/V1_MQTT_OK/GD32VW55X_Wifi_BLE_SDK/GD32VW55x_RELEASE_V1.0.2/MSDK/rtos/FreeRTOS/Source/portable/MemMang\heap_4.c **** 					{
 221:C:/Users/stapi/OneDrive/Desktop/GD32VW553/V1_MQTT_OK/GD32VW55X_Wifi_BLE_SDK/GD32VW55x_RELEASE_V1.0.2/MSDK/rtos/FreeRTOS/Source/portable/MemMang\heap_4.c **** 						xMinimumEverFreeBytesRemaining = xFreeBytesRemaining;
 222:C:/Users/stapi/OneDrive/Desktop/GD32VW553/V1_MQTT_OK/GD32VW55X_Wifi_BLE_SDK/GD32VW55x_RELEASE_V1.0.2/MSDK/rtos/FreeRTOS/Source/portable/MemMang\heap_4.c **** 					}
 223:C:/Users/stapi/OneDrive/Desktop/GD32VW553/V1_MQTT_OK/GD32VW55X_Wifi_BLE_SDK/GD32VW55x_RELEASE_V1.0.2/MSDK/rtos/FreeRTOS/Source/portable/MemMang\heap_4.c **** 					else
 224:C:/Users/stapi/OneDrive/Desktop/GD32VW553/V1_MQTT_OK/GD32VW55X_Wifi_BLE_SDK/GD32VW55x_RELEASE_V1.0.2/MSDK/rtos/FreeRTOS/Source/portable/MemMang\heap_4.c **** 					{
 225:C:/Users/stapi/OneDrive/Desktop/GD32VW553/V1_MQTT_OK/GD32VW55X_Wifi_BLE_SDK/GD32VW55x_RELEASE_V1.0.2/MSDK/rtos/FreeRTOS/Source/portable/MemMang\heap_4.c **** 						mtCOVERAGE_TEST_MARKER();
 226:C:/Users/stapi/OneDrive/Desktop/GD32VW553/V1_MQTT_OK/GD32VW55X_Wifi_BLE_SDK/GD32VW55x_RELEASE_V1.0.2/MSDK/rtos/FreeRTOS/Source/portable/MemMang\heap_4.c **** 					}
 227:C:/Users/stapi/OneDrive/Desktop/GD32VW553/V1_MQTT_OK/GD32VW55X_Wifi_BLE_SDK/GD32VW55x_RELEASE_V1.0.2/MSDK/rtos/FreeRTOS/Source/portable/MemMang\heap_4.c **** 
 228:C:/Users/stapi/OneDrive/Desktop/GD32VW553/V1_MQTT_OK/GD32VW55X_Wifi_BLE_SDK/GD32VW55x_RELEASE_V1.0.2/MSDK/rtos/FreeRTOS/Source/portable/MemMang\heap_4.c **** 					/* The block is being returned - it is allocated and owned
 229:C:/Users/stapi/OneDrive/Desktop/GD32VW553/V1_MQTT_OK/GD32VW55X_Wifi_BLE_SDK/GD32VW55x_RELEASE_V1.0.2/MSDK/rtos/FreeRTOS/Source/portable/MemMang\heap_4.c **** 					by the application and has no "next" block. */
 230:C:/Users/stapi/OneDrive/Desktop/GD32VW553/V1_MQTT_OK/GD32VW55X_Wifi_BLE_SDK/GD32VW55x_RELEASE_V1.0.2/MSDK/rtos/FreeRTOS/Source/portable/MemMang\heap_4.c **** 					pxBlock->xBlockSize |= xBlockAllocatedBit;
 231:C:/Users/stapi/OneDrive/Desktop/GD32VW553/V1_MQTT_OK/GD32VW55X_Wifi_BLE_SDK/GD32VW55x_RELEASE_V1.0.2/MSDK/rtos/FreeRTOS/Source/portable/MemMang\heap_4.c **** 					pxBlock->pxNextFreeBlock = NULL;
 232:C:/Users/stapi/OneDrive/Desktop/GD32VW553/V1_MQTT_OK/GD32VW55X_Wifi_BLE_SDK/GD32VW55x_RELEASE_V1.0.2/MSDK/rtos/FreeRTOS/Source/portable/MemMang\heap_4.c **** 					xNumberOfSuccessfulAllocations++;
 233:C:/Users/stapi/OneDrive/Desktop/GD32VW553/V1_MQTT_OK/GD32VW55X_Wifi_BLE_SDK/GD32VW55x_RELEASE_V1.0.2/MSDK/rtos/FreeRTOS/Source/portable/MemMang\heap_4.c **** 				}
 234:C:/Users/stapi/OneDrive/Desktop/GD32VW553/V1_MQTT_OK/GD32VW55X_Wifi_BLE_SDK/GD32VW55x_RELEASE_V1.0.2/MSDK/rtos/FreeRTOS/Source/portable/MemMang\heap_4.c **** 				else
 235:C:/Users/stapi/OneDrive/Desktop/GD32VW553/V1_MQTT_OK/GD32VW55X_Wifi_BLE_SDK/GD32VW55x_RELEASE_V1.0.2/MSDK/rtos/FreeRTOS/Source/portable/MemMang\heap_4.c **** 				{
 236:C:/Users/stapi/OneDrive/Desktop/GD32VW553/V1_MQTT_OK/GD32VW55X_Wifi_BLE_SDK/GD32VW55x_RELEASE_V1.0.2/MSDK/rtos/FreeRTOS/Source/portable/MemMang\heap_4.c **** 					mtCOVERAGE_TEST_MARKER();
 237:C:/Users/stapi/OneDrive/Desktop/GD32VW553/V1_MQTT_OK/GD32VW55X_Wifi_BLE_SDK/GD32VW55x_RELEASE_V1.0.2/MSDK/rtos/FreeRTOS/Source/portable/MemMang\heap_4.c **** 				}
 238:C:/Users/stapi/OneDrive/Desktop/GD32VW553/V1_MQTT_OK/GD32VW55X_Wifi_BLE_SDK/GD32VW55x_RELEASE_V1.0.2/MSDK/rtos/FreeRTOS/Source/portable/MemMang\heap_4.c **** 			}
 239:C:/Users/stapi/OneDrive/Desktop/GD32VW553/V1_MQTT_OK/GD32VW55X_Wifi_BLE_SDK/GD32VW55x_RELEASE_V1.0.2/MSDK/rtos/FreeRTOS/Source/portable/MemMang\heap_4.c **** 			else
 240:C:/Users/stapi/OneDrive/Desktop/GD32VW553/V1_MQTT_OK/GD32VW55X_Wifi_BLE_SDK/GD32VW55x_RELEASE_V1.0.2/MSDK/rtos/FreeRTOS/Source/portable/MemMang\heap_4.c **** 			{
 241:C:/Users/stapi/OneDrive/Desktop/GD32VW553/V1_MQTT_OK/GD32VW55X_Wifi_BLE_SDK/GD32VW55x_RELEASE_V1.0.2/MSDK/rtos/FreeRTOS/Source/portable/MemMang\heap_4.c **** 				mtCOVERAGE_TEST_MARKER();
 242:C:/Users/stapi/OneDrive/Desktop/GD32VW553/V1_MQTT_OK/GD32VW55X_Wifi_BLE_SDK/GD32VW55x_RELEASE_V1.0.2/MSDK/rtos/FreeRTOS/Source/portable/MemMang\heap_4.c **** 			}
 243:C:/Users/stapi/OneDrive/Desktop/GD32VW553/V1_MQTT_OK/GD32VW55X_Wifi_BLE_SDK/GD32VW55x_RELEASE_V1.0.2/MSDK/rtos/FreeRTOS/Source/portable/MemMang\heap_4.c **** 		}
 244:C:/Users/stapi/OneDrive/Desktop/GD32VW553/V1_MQTT_OK/GD32VW55X_Wifi_BLE_SDK/GD32VW55x_RELEASE_V1.0.2/MSDK/rtos/FreeRTOS/Source/portable/MemMang\heap_4.c **** 		else
 245:C:/Users/stapi/OneDrive/Desktop/GD32VW553/V1_MQTT_OK/GD32VW55X_Wifi_BLE_SDK/GD32VW55x_RELEASE_V1.0.2/MSDK/rtos/FreeRTOS/Source/portable/MemMang\heap_4.c **** 		{
 246:C:/Users/stapi/OneDrive/Desktop/GD32VW553/V1_MQTT_OK/GD32VW55X_Wifi_BLE_SDK/GD32VW55x_RELEASE_V1.0.2/MSDK/rtos/FreeRTOS/Source/portable/MemMang\heap_4.c **** 			mtCOVERAGE_TEST_MARKER();
 247:C:/Users/stapi/OneDrive/Desktop/GD32VW553/V1_MQTT_OK/GD32VW55X_Wifi_BLE_SDK/GD32VW55x_RELEASE_V1.0.2/MSDK/rtos/FreeRTOS/Source/portable/MemMang\heap_4.c **** 		}
 248:C:/Users/stapi/OneDrive/Desktop/GD32VW553/V1_MQTT_OK/GD32VW55X_Wifi_BLE_SDK/GD32VW55x_RELEASE_V1.0.2/MSDK/rtos/FreeRTOS/Source/portable/MemMang\heap_4.c **** 
 249:C:/Users/stapi/OneDrive/Desktop/GD32VW553/V1_MQTT_OK/GD32VW55X_Wifi_BLE_SDK/GD32VW55x_RELEASE_V1.0.2/MSDK/rtos/FreeRTOS/Source/portable/MemMang\heap_4.c **** 		traceMALLOC( pvReturn, xWantedSize );
 250:C:/Users/stapi/OneDrive/Desktop/GD32VW553/V1_MQTT_OK/GD32VW55X_Wifi_BLE_SDK/GD32VW55x_RELEASE_V1.0.2/MSDK/rtos/FreeRTOS/Source/portable/MemMang\heap_4.c **** 	}
 251:C:/Users/stapi/OneDrive/Desktop/GD32VW553/V1_MQTT_OK/GD32VW55X_Wifi_BLE_SDK/GD32VW55x_RELEASE_V1.0.2/MSDK/rtos/FreeRTOS/Source/portable/MemMang\heap_4.c **** 	( void ) xTaskResumeAll();
 252:C:/Users/stapi/OneDrive/Desktop/GD32VW553/V1_MQTT_OK/GD32VW55X_Wifi_BLE_SDK/GD32VW55x_RELEASE_V1.0.2/MSDK/rtos/FreeRTOS/Source/portable/MemMang\heap_4.c **** 
 253:C:/Users/stapi/OneDrive/Desktop/GD32VW553/V1_MQTT_OK/GD32VW55X_Wifi_BLE_SDK/GD32VW55x_RELEASE_V1.0.2/MSDK/rtos/FreeRTOS/Source/portable/MemMang\heap_4.c **** 	#if( configUSE_MALLOC_FAILED_HOOK == 1 )
 254:C:/Users/stapi/OneDrive/Desktop/GD32VW553/V1_MQTT_OK/GD32VW55X_Wifi_BLE_SDK/GD32VW55x_RELEASE_V1.0.2/MSDK/rtos/FreeRTOS/Source/portable/MemMang\heap_4.c **** 	{
 255:C:/Users/stapi/OneDrive/Desktop/GD32VW553/V1_MQTT_OK/GD32VW55X_Wifi_BLE_SDK/GD32VW55x_RELEASE_V1.0.2/MSDK/rtos/FreeRTOS/Source/portable/MemMang\heap_4.c **** 		if( pvReturn == NULL )
 256:C:/Users/stapi/OneDrive/Desktop/GD32VW553/V1_MQTT_OK/GD32VW55X_Wifi_BLE_SDK/GD32VW55x_RELEASE_V1.0.2/MSDK/rtos/FreeRTOS/Source/portable/MemMang\heap_4.c **** 		{
 257:C:/Users/stapi/OneDrive/Desktop/GD32VW553/V1_MQTT_OK/GD32VW55X_Wifi_BLE_SDK/GD32VW55x_RELEASE_V1.0.2/MSDK/rtos/FreeRTOS/Source/portable/MemMang\heap_4.c **** 			extern void vApplicationMallocFailedHook( void );
 258:C:/Users/stapi/OneDrive/Desktop/GD32VW553/V1_MQTT_OK/GD32VW55X_Wifi_BLE_SDK/GD32VW55x_RELEASE_V1.0.2/MSDK/rtos/FreeRTOS/Source/portable/MemMang\heap_4.c **** 			vApplicationMallocFailedHook();
 259:C:/Users/stapi/OneDrive/Desktop/GD32VW553/V1_MQTT_OK/GD32VW55X_Wifi_BLE_SDK/GD32VW55x_RELEASE_V1.0.2/MSDK/rtos/FreeRTOS/Source/portable/MemMang\heap_4.c **** 		}
 260:C:/Users/stapi/OneDrive/Desktop/GD32VW553/V1_MQTT_OK/GD32VW55X_Wifi_BLE_SDK/GD32VW55x_RELEASE_V1.0.2/MSDK/rtos/FreeRTOS/Source/portable/MemMang\heap_4.c **** 		else
 261:C:/Users/stapi/OneDrive/Desktop/GD32VW553/V1_MQTT_OK/GD32VW55X_Wifi_BLE_SDK/GD32VW55x_RELEASE_V1.0.2/MSDK/rtos/FreeRTOS/Source/portable/MemMang\heap_4.c **** 		{
 262:C:/Users/stapi/OneDrive/Desktop/GD32VW553/V1_MQTT_OK/GD32VW55X_Wifi_BLE_SDK/GD32VW55x_RELEASE_V1.0.2/MSDK/rtos/FreeRTOS/Source/portable/MemMang\heap_4.c **** 			mtCOVERAGE_TEST_MARKER();
 263:C:/Users/stapi/OneDrive/Desktop/GD32VW553/V1_MQTT_OK/GD32VW55X_Wifi_BLE_SDK/GD32VW55x_RELEASE_V1.0.2/MSDK/rtos/FreeRTOS/Source/portable/MemMang\heap_4.c **** 		}
 264:C:/Users/stapi/OneDrive/Desktop/GD32VW553/V1_MQTT_OK/GD32VW55X_Wifi_BLE_SDK/GD32VW55x_RELEASE_V1.0.2/MSDK/rtos/FreeRTOS/Source/portable/MemMang\heap_4.c **** 	}
 265:C:/Users/stapi/OneDrive/Desktop/GD32VW553/V1_MQTT_OK/GD32VW55X_Wifi_BLE_SDK/GD32VW55x_RELEASE_V1.0.2/MSDK/rtos/FreeRTOS/Source/portable/MemMang\heap_4.c **** 	#endif
 266:C:/Users/stapi/OneDrive/Desktop/GD32VW553/V1_MQTT_OK/GD32VW55X_Wifi_BLE_SDK/GD32VW55x_RELEASE_V1.0.2/MSDK/rtos/FreeRTOS/Source/portable/MemMang\heap_4.c **** 
 267:C:/Users/stapi/OneDrive/Desktop/GD32VW553/V1_MQTT_OK/GD32VW55X_Wifi_BLE_SDK/GD32VW55x_RELEASE_V1.0.2/MSDK/rtos/FreeRTOS/Source/portable/MemMang\heap_4.c **** 	configASSERT( ( ( ( size_t ) pvReturn ) & ( size_t ) portBYTE_ALIGNMENT_MASK ) == 0 );
 268:C:/Users/stapi/OneDrive/Desktop/GD32VW553/V1_MQTT_OK/GD32VW55X_Wifi_BLE_SDK/GD32VW55x_RELEASE_V1.0.2/MSDK/rtos/FreeRTOS/Source/portable/MemMang\heap_4.c **** 	return pvReturn;
 269:C:/Users/stapi/OneDrive/Desktop/GD32VW553/V1_MQTT_OK/GD32VW55X_Wifi_BLE_SDK/GD32VW55x_RELEASE_V1.0.2/MSDK/rtos/FreeRTOS/Source/portable/MemMang\heap_4.c **** }
 270:C:/Users/stapi/OneDrive/Desktop/GD32VW553/V1_MQTT_OK/GD32VW55X_Wifi_BLE_SDK/GD32VW55x_RELEASE_V1.0.2/MSDK/rtos/FreeRTOS/Source/portable/MemMang\heap_4.c **** /*-----------------------------------------------------------*/
 271:C:/Users/stapi/OneDrive/Desktop/GD32VW553/V1_MQTT_OK/GD32VW55X_Wifi_BLE_SDK/GD32VW55x_RELEASE_V1.0.2/MSDK/rtos/FreeRTOS/Source/portable/MemMang\heap_4.c **** 
 272:C:/Users/stapi/OneDrive/Desktop/GD32VW553/V1_MQTT_OK/GD32VW55X_Wifi_BLE_SDK/GD32VW55x_RELEASE_V1.0.2/MSDK/rtos/FreeRTOS/Source/portable/MemMang\heap_4.c **** void vPortFree( void *pv )
 273:C:/Users/stapi/OneDrive/Desktop/GD32VW553/V1_MQTT_OK/GD32VW55X_Wifi_BLE_SDK/GD32VW55x_RELEASE_V1.0.2/MSDK/rtos/FreeRTOS/Source/portable/MemMang\heap_4.c **** {
 274:C:/Users/stapi/OneDrive/Desktop/GD32VW553/V1_MQTT_OK/GD32VW55X_Wifi_BLE_SDK/GD32VW55x_RELEASE_V1.0.2/MSDK/rtos/FreeRTOS/Source/portable/MemMang\heap_4.c **** uint8_t *puc = ( uint8_t * ) pv;
 275:C:/Users/stapi/OneDrive/Desktop/GD32VW553/V1_MQTT_OK/GD32VW55X_Wifi_BLE_SDK/GD32VW55x_RELEASE_V1.0.2/MSDK/rtos/FreeRTOS/Source/portable/MemMang\heap_4.c **** BlockLink_t *pxLink;
 276:C:/Users/stapi/OneDrive/Desktop/GD32VW553/V1_MQTT_OK/GD32VW55X_Wifi_BLE_SDK/GD32VW55x_RELEASE_V1.0.2/MSDK/rtos/FreeRTOS/Source/portable/MemMang\heap_4.c **** 
 277:C:/Users/stapi/OneDrive/Desktop/GD32VW553/V1_MQTT_OK/GD32VW55X_Wifi_BLE_SDK/GD32VW55x_RELEASE_V1.0.2/MSDK/rtos/FreeRTOS/Source/portable/MemMang\heap_4.c **** 	if( pv != NULL )
 278:C:/Users/stapi/OneDrive/Desktop/GD32VW553/V1_MQTT_OK/GD32VW55X_Wifi_BLE_SDK/GD32VW55x_RELEASE_V1.0.2/MSDK/rtos/FreeRTOS/Source/portable/MemMang\heap_4.c **** 	{
 279:C:/Users/stapi/OneDrive/Desktop/GD32VW553/V1_MQTT_OK/GD32VW55X_Wifi_BLE_SDK/GD32VW55x_RELEASE_V1.0.2/MSDK/rtos/FreeRTOS/Source/portable/MemMang\heap_4.c **** 		/* The memory being freed will have an BlockLink_t structure immediately
 280:C:/Users/stapi/OneDrive/Desktop/GD32VW553/V1_MQTT_OK/GD32VW55X_Wifi_BLE_SDK/GD32VW55x_RELEASE_V1.0.2/MSDK/rtos/FreeRTOS/Source/portable/MemMang\heap_4.c **** 		before it. */
 281:C:/Users/stapi/OneDrive/Desktop/GD32VW553/V1_MQTT_OK/GD32VW55X_Wifi_BLE_SDK/GD32VW55x_RELEASE_V1.0.2/MSDK/rtos/FreeRTOS/Source/portable/MemMang\heap_4.c **** 		puc -= xHeapStructSize;
 282:C:/Users/stapi/OneDrive/Desktop/GD32VW553/V1_MQTT_OK/GD32VW55X_Wifi_BLE_SDK/GD32VW55x_RELEASE_V1.0.2/MSDK/rtos/FreeRTOS/Source/portable/MemMang\heap_4.c **** 
 283:C:/Users/stapi/OneDrive/Desktop/GD32VW553/V1_MQTT_OK/GD32VW55X_Wifi_BLE_SDK/GD32VW55x_RELEASE_V1.0.2/MSDK/rtos/FreeRTOS/Source/portable/MemMang\heap_4.c **** 		/* This casting is to keep the compiler from issuing warnings. */
 284:C:/Users/stapi/OneDrive/Desktop/GD32VW553/V1_MQTT_OK/GD32VW55X_Wifi_BLE_SDK/GD32VW55x_RELEASE_V1.0.2/MSDK/rtos/FreeRTOS/Source/portable/MemMang\heap_4.c **** 		pxLink = ( void * ) puc;
 285:C:/Users/stapi/OneDrive/Desktop/GD32VW553/V1_MQTT_OK/GD32VW55X_Wifi_BLE_SDK/GD32VW55x_RELEASE_V1.0.2/MSDK/rtos/FreeRTOS/Source/portable/MemMang\heap_4.c **** 
 286:C:/Users/stapi/OneDrive/Desktop/GD32VW553/V1_MQTT_OK/GD32VW55X_Wifi_BLE_SDK/GD32VW55x_RELEASE_V1.0.2/MSDK/rtos/FreeRTOS/Source/portable/MemMang\heap_4.c **** 		/* Check the block is actually allocated. */
 287:C:/Users/stapi/OneDrive/Desktop/GD32VW553/V1_MQTT_OK/GD32VW55X_Wifi_BLE_SDK/GD32VW55x_RELEASE_V1.0.2/MSDK/rtos/FreeRTOS/Source/portable/MemMang\heap_4.c **** 		configASSERT( ( pxLink->xBlockSize & xBlockAllocatedBit ) != 0 );
 288:C:/Users/stapi/OneDrive/Desktop/GD32VW553/V1_MQTT_OK/GD32VW55X_Wifi_BLE_SDK/GD32VW55x_RELEASE_V1.0.2/MSDK/rtos/FreeRTOS/Source/portable/MemMang\heap_4.c **** 		configASSERT( pxLink->pxNextFreeBlock == NULL );
 289:C:/Users/stapi/OneDrive/Desktop/GD32VW553/V1_MQTT_OK/GD32VW55X_Wifi_BLE_SDK/GD32VW55x_RELEASE_V1.0.2/MSDK/rtos/FreeRTOS/Source/portable/MemMang\heap_4.c **** 
 290:C:/Users/stapi/OneDrive/Desktop/GD32VW553/V1_MQTT_OK/GD32VW55X_Wifi_BLE_SDK/GD32VW55x_RELEASE_V1.0.2/MSDK/rtos/FreeRTOS/Source/portable/MemMang\heap_4.c **** 		if( ( pxLink->xBlockSize & xBlockAllocatedBit ) != 0 )
 291:C:/Users/stapi/OneDrive/Desktop/GD32VW553/V1_MQTT_OK/GD32VW55X_Wifi_BLE_SDK/GD32VW55x_RELEASE_V1.0.2/MSDK/rtos/FreeRTOS/Source/portable/MemMang\heap_4.c **** 		{
 292:C:/Users/stapi/OneDrive/Desktop/GD32VW553/V1_MQTT_OK/GD32VW55X_Wifi_BLE_SDK/GD32VW55x_RELEASE_V1.0.2/MSDK/rtos/FreeRTOS/Source/portable/MemMang\heap_4.c **** 			if( pxLink->pxNextFreeBlock == NULL )
 293:C:/Users/stapi/OneDrive/Desktop/GD32VW553/V1_MQTT_OK/GD32VW55X_Wifi_BLE_SDK/GD32VW55x_RELEASE_V1.0.2/MSDK/rtos/FreeRTOS/Source/portable/MemMang\heap_4.c **** 			{
 294:C:/Users/stapi/OneDrive/Desktop/GD32VW553/V1_MQTT_OK/GD32VW55X_Wifi_BLE_SDK/GD32VW55x_RELEASE_V1.0.2/MSDK/rtos/FreeRTOS/Source/portable/MemMang\heap_4.c **** 				/* The block is being returned to the heap - it is no longer
 295:C:/Users/stapi/OneDrive/Desktop/GD32VW553/V1_MQTT_OK/GD32VW55X_Wifi_BLE_SDK/GD32VW55x_RELEASE_V1.0.2/MSDK/rtos/FreeRTOS/Source/portable/MemMang\heap_4.c **** 				allocated. */
 296:C:/Users/stapi/OneDrive/Desktop/GD32VW553/V1_MQTT_OK/GD32VW55X_Wifi_BLE_SDK/GD32VW55x_RELEASE_V1.0.2/MSDK/rtos/FreeRTOS/Source/portable/MemMang\heap_4.c **** 				pxLink->xBlockSize &= ~xBlockAllocatedBit;
 297:C:/Users/stapi/OneDrive/Desktop/GD32VW553/V1_MQTT_OK/GD32VW55X_Wifi_BLE_SDK/GD32VW55x_RELEASE_V1.0.2/MSDK/rtos/FreeRTOS/Source/portable/MemMang\heap_4.c **** 
 298:C:/Users/stapi/OneDrive/Desktop/GD32VW553/V1_MQTT_OK/GD32VW55X_Wifi_BLE_SDK/GD32VW55x_RELEASE_V1.0.2/MSDK/rtos/FreeRTOS/Source/portable/MemMang\heap_4.c **** 				vTaskSuspendAll();
 299:C:/Users/stapi/OneDrive/Desktop/GD32VW553/V1_MQTT_OK/GD32VW55X_Wifi_BLE_SDK/GD32VW55x_RELEASE_V1.0.2/MSDK/rtos/FreeRTOS/Source/portable/MemMang\heap_4.c **** 				{
 300:C:/Users/stapi/OneDrive/Desktop/GD32VW553/V1_MQTT_OK/GD32VW55X_Wifi_BLE_SDK/GD32VW55x_RELEASE_V1.0.2/MSDK/rtos/FreeRTOS/Source/portable/MemMang\heap_4.c **** 					/* Add this block to the list of free blocks. */
 301:C:/Users/stapi/OneDrive/Desktop/GD32VW553/V1_MQTT_OK/GD32VW55X_Wifi_BLE_SDK/GD32VW55x_RELEASE_V1.0.2/MSDK/rtos/FreeRTOS/Source/portable/MemMang\heap_4.c **** 					xFreeBytesRemaining += pxLink->xBlockSize;
 302:C:/Users/stapi/OneDrive/Desktop/GD32VW553/V1_MQTT_OK/GD32VW55X_Wifi_BLE_SDK/GD32VW55x_RELEASE_V1.0.2/MSDK/rtos/FreeRTOS/Source/portable/MemMang\heap_4.c **** 					traceFREE( pv, pxLink->xBlockSize );
 303:C:/Users/stapi/OneDrive/Desktop/GD32VW553/V1_MQTT_OK/GD32VW55X_Wifi_BLE_SDK/GD32VW55x_RELEASE_V1.0.2/MSDK/rtos/FreeRTOS/Source/portable/MemMang\heap_4.c **** 					prvInsertBlockIntoFreeList( ( ( BlockLink_t * ) pxLink ) );
 304:C:/Users/stapi/OneDrive/Desktop/GD32VW553/V1_MQTT_OK/GD32VW55X_Wifi_BLE_SDK/GD32VW55x_RELEASE_V1.0.2/MSDK/rtos/FreeRTOS/Source/portable/MemMang\heap_4.c **** 					xNumberOfSuccessfulFrees++;
 305:C:/Users/stapi/OneDrive/Desktop/GD32VW553/V1_MQTT_OK/GD32VW55X_Wifi_BLE_SDK/GD32VW55x_RELEASE_V1.0.2/MSDK/rtos/FreeRTOS/Source/portable/MemMang\heap_4.c **** 				}
 306:C:/Users/stapi/OneDrive/Desktop/GD32VW553/V1_MQTT_OK/GD32VW55X_Wifi_BLE_SDK/GD32VW55x_RELEASE_V1.0.2/MSDK/rtos/FreeRTOS/Source/portable/MemMang\heap_4.c **** 				( void ) xTaskResumeAll();
 307:C:/Users/stapi/OneDrive/Desktop/GD32VW553/V1_MQTT_OK/GD32VW55X_Wifi_BLE_SDK/GD32VW55x_RELEASE_V1.0.2/MSDK/rtos/FreeRTOS/Source/portable/MemMang\heap_4.c **** 			}
 308:C:/Users/stapi/OneDrive/Desktop/GD32VW553/V1_MQTT_OK/GD32VW55X_Wifi_BLE_SDK/GD32VW55x_RELEASE_V1.0.2/MSDK/rtos/FreeRTOS/Source/portable/MemMang\heap_4.c **** 			else
 309:C:/Users/stapi/OneDrive/Desktop/GD32VW553/V1_MQTT_OK/GD32VW55X_Wifi_BLE_SDK/GD32VW55x_RELEASE_V1.0.2/MSDK/rtos/FreeRTOS/Source/portable/MemMang\heap_4.c **** 			{
 310:C:/Users/stapi/OneDrive/Desktop/GD32VW553/V1_MQTT_OK/GD32VW55X_Wifi_BLE_SDK/GD32VW55x_RELEASE_V1.0.2/MSDK/rtos/FreeRTOS/Source/portable/MemMang\heap_4.c **** 				mtCOVERAGE_TEST_MARKER();
 311:C:/Users/stapi/OneDrive/Desktop/GD32VW553/V1_MQTT_OK/GD32VW55X_Wifi_BLE_SDK/GD32VW55x_RELEASE_V1.0.2/MSDK/rtos/FreeRTOS/Source/portable/MemMang\heap_4.c **** 			}
 312:C:/Users/stapi/OneDrive/Desktop/GD32VW553/V1_MQTT_OK/GD32VW55X_Wifi_BLE_SDK/GD32VW55x_RELEASE_V1.0.2/MSDK/rtos/FreeRTOS/Source/portable/MemMang\heap_4.c **** 		}
 313:C:/Users/stapi/OneDrive/Desktop/GD32VW553/V1_MQTT_OK/GD32VW55X_Wifi_BLE_SDK/GD32VW55x_RELEASE_V1.0.2/MSDK/rtos/FreeRTOS/Source/portable/MemMang\heap_4.c **** 		else
 314:C:/Users/stapi/OneDrive/Desktop/GD32VW553/V1_MQTT_OK/GD32VW55X_Wifi_BLE_SDK/GD32VW55x_RELEASE_V1.0.2/MSDK/rtos/FreeRTOS/Source/portable/MemMang\heap_4.c **** 		{
 315:C:/Users/stapi/OneDrive/Desktop/GD32VW553/V1_MQTT_OK/GD32VW55X_Wifi_BLE_SDK/GD32VW55x_RELEASE_V1.0.2/MSDK/rtos/FreeRTOS/Source/portable/MemMang\heap_4.c **** 			mtCOVERAGE_TEST_MARKER();
 316:C:/Users/stapi/OneDrive/Desktop/GD32VW553/V1_MQTT_OK/GD32VW55X_Wifi_BLE_SDK/GD32VW55x_RELEASE_V1.0.2/MSDK/rtos/FreeRTOS/Source/portable/MemMang\heap_4.c **** 		}
 317:C:/Users/stapi/OneDrive/Desktop/GD32VW553/V1_MQTT_OK/GD32VW55X_Wifi_BLE_SDK/GD32VW55x_RELEASE_V1.0.2/MSDK/rtos/FreeRTOS/Source/portable/MemMang\heap_4.c **** 	}
 318:C:/Users/stapi/OneDrive/Desktop/GD32VW553/V1_MQTT_OK/GD32VW55X_Wifi_BLE_SDK/GD32VW55x_RELEASE_V1.0.2/MSDK/rtos/FreeRTOS/Source/portable/MemMang\heap_4.c **** }
 319:C:/Users/stapi/OneDrive/Desktop/GD32VW553/V1_MQTT_OK/GD32VW55X_Wifi_BLE_SDK/GD32VW55x_RELEASE_V1.0.2/MSDK/rtos/FreeRTOS/Source/portable/MemMang\heap_4.c **** /*-----------------------------------------------------------*/
 320:C:/Users/stapi/OneDrive/Desktop/GD32VW553/V1_MQTT_OK/GD32VW55X_Wifi_BLE_SDK/GD32VW55x_RELEASE_V1.0.2/MSDK/rtos/FreeRTOS/Source/portable/MemMang\heap_4.c **** 
 321:C:/Users/stapi/OneDrive/Desktop/GD32VW553/V1_MQTT_OK/GD32VW55X_Wifi_BLE_SDK/GD32VW55x_RELEASE_V1.0.2/MSDK/rtos/FreeRTOS/Source/portable/MemMang\heap_4.c **** size_t xPortGetTotalHeapSize( void )
 322:C:/Users/stapi/OneDrive/Desktop/GD32VW553/V1_MQTT_OK/GD32VW55X_Wifi_BLE_SDK/GD32VW55x_RELEASE_V1.0.2/MSDK/rtos/FreeRTOS/Source/portable/MemMang\heap_4.c **** {
 323:C:/Users/stapi/OneDrive/Desktop/GD32VW553/V1_MQTT_OK/GD32VW55X_Wifi_BLE_SDK/GD32VW55x_RELEASE_V1.0.2/MSDK/rtos/FreeRTOS/Source/portable/MemMang\heap_4.c **** 	return xTotalHeapSize;
 324:C:/Users/stapi/OneDrive/Desktop/GD32VW553/V1_MQTT_OK/GD32VW55X_Wifi_BLE_SDK/GD32VW55x_RELEASE_V1.0.2/MSDK/rtos/FreeRTOS/Source/portable/MemMang\heap_4.c **** }
 325:C:/Users/stapi/OneDrive/Desktop/GD32VW553/V1_MQTT_OK/GD32VW55X_Wifi_BLE_SDK/GD32VW55x_RELEASE_V1.0.2/MSDK/rtos/FreeRTOS/Source/portable/MemMang\heap_4.c **** 
 326:C:/Users/stapi/OneDrive/Desktop/GD32VW553/V1_MQTT_OK/GD32VW55X_Wifi_BLE_SDK/GD32VW55x_RELEASE_V1.0.2/MSDK/rtos/FreeRTOS/Source/portable/MemMang\heap_4.c **** size_t xPortGetFreeHeapSize( void )
 327:C:/Users/stapi/OneDrive/Desktop/GD32VW553/V1_MQTT_OK/GD32VW55X_Wifi_BLE_SDK/GD32VW55x_RELEASE_V1.0.2/MSDK/rtos/FreeRTOS/Source/portable/MemMang\heap_4.c **** {
 328:C:/Users/stapi/OneDrive/Desktop/GD32VW553/V1_MQTT_OK/GD32VW55X_Wifi_BLE_SDK/GD32VW55x_RELEASE_V1.0.2/MSDK/rtos/FreeRTOS/Source/portable/MemMang\heap_4.c **** 	return xFreeBytesRemaining;
 329:C:/Users/stapi/OneDrive/Desktop/GD32VW553/V1_MQTT_OK/GD32VW55X_Wifi_BLE_SDK/GD32VW55x_RELEASE_V1.0.2/MSDK/rtos/FreeRTOS/Source/portable/MemMang\heap_4.c **** }
 330:C:/Users/stapi/OneDrive/Desktop/GD32VW553/V1_MQTT_OK/GD32VW55X_Wifi_BLE_SDK/GD32VW55x_RELEASE_V1.0.2/MSDK/rtos/FreeRTOS/Source/portable/MemMang\heap_4.c **** /*-----------------------------------------------------------*/
 331:C:/Users/stapi/OneDrive/Desktop/GD32VW553/V1_MQTT_OK/GD32VW55X_Wifi_BLE_SDK/GD32VW55x_RELEASE_V1.0.2/MSDK/rtos/FreeRTOS/Source/portable/MemMang\heap_4.c **** 
 332:C:/Users/stapi/OneDrive/Desktop/GD32VW553/V1_MQTT_OK/GD32VW55X_Wifi_BLE_SDK/GD32VW55x_RELEASE_V1.0.2/MSDK/rtos/FreeRTOS/Source/portable/MemMang\heap_4.c **** size_t xPortGetMinimumEverFreeHeapSize( void )
 333:C:/Users/stapi/OneDrive/Desktop/GD32VW553/V1_MQTT_OK/GD32VW55X_Wifi_BLE_SDK/GD32VW55x_RELEASE_V1.0.2/MSDK/rtos/FreeRTOS/Source/portable/MemMang\heap_4.c **** {
 334:C:/Users/stapi/OneDrive/Desktop/GD32VW553/V1_MQTT_OK/GD32VW55X_Wifi_BLE_SDK/GD32VW55x_RELEASE_V1.0.2/MSDK/rtos/FreeRTOS/Source/portable/MemMang\heap_4.c **** 	return xMinimumEverFreeBytesRemaining;
 335:C:/Users/stapi/OneDrive/Desktop/GD32VW553/V1_MQTT_OK/GD32VW55X_Wifi_BLE_SDK/GD32VW55x_RELEASE_V1.0.2/MSDK/rtos/FreeRTOS/Source/portable/MemMang\heap_4.c **** }
 336:C:/Users/stapi/OneDrive/Desktop/GD32VW553/V1_MQTT_OK/GD32VW55X_Wifi_BLE_SDK/GD32VW55x_RELEASE_V1.0.2/MSDK/rtos/FreeRTOS/Source/portable/MemMang\heap_4.c **** 
 337:C:/Users/stapi/OneDrive/Desktop/GD32VW553/V1_MQTT_OK/GD32VW55X_Wifi_BLE_SDK/GD32VW55x_RELEASE_V1.0.2/MSDK/rtos/FreeRTOS/Source/portable/MemMang\heap_4.c **** size_t xPortGetHeapMinimumBlockSize( void )
 338:C:/Users/stapi/OneDrive/Desktop/GD32VW553/V1_MQTT_OK/GD32VW55X_Wifi_BLE_SDK/GD32VW55x_RELEASE_V1.0.2/MSDK/rtos/FreeRTOS/Source/portable/MemMang\heap_4.c **** {
 339:C:/Users/stapi/OneDrive/Desktop/GD32VW553/V1_MQTT_OK/GD32VW55X_Wifi_BLE_SDK/GD32VW55x_RELEASE_V1.0.2/MSDK/rtos/FreeRTOS/Source/portable/MemMang\heap_4.c **** 	return heapMINIMUM_BLOCK_SIZE;
 340:C:/Users/stapi/OneDrive/Desktop/GD32VW553/V1_MQTT_OK/GD32VW55X_Wifi_BLE_SDK/GD32VW55x_RELEASE_V1.0.2/MSDK/rtos/FreeRTOS/Source/portable/MemMang\heap_4.c **** }
 341:C:/Users/stapi/OneDrive/Desktop/GD32VW553/V1_MQTT_OK/GD32VW55X_Wifi_BLE_SDK/GD32VW55x_RELEASE_V1.0.2/MSDK/rtos/FreeRTOS/Source/portable/MemMang\heap_4.c **** 
 342:C:/Users/stapi/OneDrive/Desktop/GD32VW553/V1_MQTT_OK/GD32VW55X_Wifi_BLE_SDK/GD32VW55x_RELEASE_V1.0.2/MSDK/rtos/FreeRTOS/Source/portable/MemMang\heap_4.c **** /*-----------------------------------------------------------*/
 343:C:/Users/stapi/OneDrive/Desktop/GD32VW553/V1_MQTT_OK/GD32VW55X_Wifi_BLE_SDK/GD32VW55x_RELEASE_V1.0.2/MSDK/rtos/FreeRTOS/Source/portable/MemMang\heap_4.c **** 
 344:C:/Users/stapi/OneDrive/Desktop/GD32VW553/V1_MQTT_OK/GD32VW55X_Wifi_BLE_SDK/GD32VW55x_RELEASE_V1.0.2/MSDK/rtos/FreeRTOS/Source/portable/MemMang\heap_4.c **** void vPortInitialiseBlocks( void )
 345:C:/Users/stapi/OneDrive/Desktop/GD32VW553/V1_MQTT_OK/GD32VW55X_Wifi_BLE_SDK/GD32VW55x_RELEASE_V1.0.2/MSDK/rtos/FreeRTOS/Source/portable/MemMang\heap_4.c **** {
 346:C:/Users/stapi/OneDrive/Desktop/GD32VW553/V1_MQTT_OK/GD32VW55X_Wifi_BLE_SDK/GD32VW55x_RELEASE_V1.0.2/MSDK/rtos/FreeRTOS/Source/portable/MemMang\heap_4.c **** 	/* This just exists to keep the linker quiet. */
 347:C:/Users/stapi/OneDrive/Desktop/GD32VW553/V1_MQTT_OK/GD32VW55X_Wifi_BLE_SDK/GD32VW55x_RELEASE_V1.0.2/MSDK/rtos/FreeRTOS/Source/portable/MemMang\heap_4.c **** }
 348:C:/Users/stapi/OneDrive/Desktop/GD32VW553/V1_MQTT_OK/GD32VW55X_Wifi_BLE_SDK/GD32VW55x_RELEASE_V1.0.2/MSDK/rtos/FreeRTOS/Source/portable/MemMang\heap_4.c **** /*-----------------------------------------------------------*/
 349:C:/Users/stapi/OneDrive/Desktop/GD32VW553/V1_MQTT_OK/GD32VW55X_Wifi_BLE_SDK/GD32VW55x_RELEASE_V1.0.2/MSDK/rtos/FreeRTOS/Source/portable/MemMang\heap_4.c **** 
 350:C:/Users/stapi/OneDrive/Desktop/GD32VW553/V1_MQTT_OK/GD32VW55X_Wifi_BLE_SDK/GD32VW55x_RELEASE_V1.0.2/MSDK/rtos/FreeRTOS/Source/portable/MemMang\heap_4.c **** static void prvHeapInit( void )
 351:C:/Users/stapi/OneDrive/Desktop/GD32VW553/V1_MQTT_OK/GD32VW55X_Wifi_BLE_SDK/GD32VW55x_RELEASE_V1.0.2/MSDK/rtos/FreeRTOS/Source/portable/MemMang\heap_4.c **** {
 352:C:/Users/stapi/OneDrive/Desktop/GD32VW553/V1_MQTT_OK/GD32VW55X_Wifi_BLE_SDK/GD32VW55x_RELEASE_V1.0.2/MSDK/rtos/FreeRTOS/Source/portable/MemMang\heap_4.c **** BlockLink_t *pxFirstFreeBlock;
 353:C:/Users/stapi/OneDrive/Desktop/GD32VW553/V1_MQTT_OK/GD32VW55X_Wifi_BLE_SDK/GD32VW55x_RELEASE_V1.0.2/MSDK/rtos/FreeRTOS/Source/portable/MemMang\heap_4.c **** uint8_t *pucAlignedHeap;
 354:C:/Users/stapi/OneDrive/Desktop/GD32VW553/V1_MQTT_OK/GD32VW55X_Wifi_BLE_SDK/GD32VW55x_RELEASE_V1.0.2/MSDK/rtos/FreeRTOS/Source/portable/MemMang\heap_4.c **** size_t uxAddress;
 355:C:/Users/stapi/OneDrive/Desktop/GD32VW553/V1_MQTT_OK/GD32VW55X_Wifi_BLE_SDK/GD32VW55x_RELEASE_V1.0.2/MSDK/rtos/FreeRTOS/Source/portable/MemMang\heap_4.c **** 
 356:C:/Users/stapi/OneDrive/Desktop/GD32VW553/V1_MQTT_OK/GD32VW55X_Wifi_BLE_SDK/GD32VW55x_RELEASE_V1.0.2/MSDK/rtos/FreeRTOS/Source/portable/MemMang\heap_4.c **** 	/* Ensure the heap starts on a correctly aligned boundary. */
 357:C:/Users/stapi/OneDrive/Desktop/GD32VW553/V1_MQTT_OK/GD32VW55X_Wifi_BLE_SDK/GD32VW55x_RELEASE_V1.0.2/MSDK/rtos/FreeRTOS/Source/portable/MemMang\heap_4.c **** 	uxAddress = ( size_t ) ucHeap;
 358:C:/Users/stapi/OneDrive/Desktop/GD32VW553/V1_MQTT_OK/GD32VW55X_Wifi_BLE_SDK/GD32VW55x_RELEASE_V1.0.2/MSDK/rtos/FreeRTOS/Source/portable/MemMang\heap_4.c **** 	xTotalHeapSize = configTOTAL_HEAP_SIZE;
 359:C:/Users/stapi/OneDrive/Desktop/GD32VW553/V1_MQTT_OK/GD32VW55X_Wifi_BLE_SDK/GD32VW55x_RELEASE_V1.0.2/MSDK/rtos/FreeRTOS/Source/portable/MemMang\heap_4.c **** 
 360:C:/Users/stapi/OneDrive/Desktop/GD32VW553/V1_MQTT_OK/GD32VW55X_Wifi_BLE_SDK/GD32VW55x_RELEASE_V1.0.2/MSDK/rtos/FreeRTOS/Source/portable/MemMang\heap_4.c **** 	if( ( uxAddress & portBYTE_ALIGNMENT_MASK ) != 0 )
 361:C:/Users/stapi/OneDrive/Desktop/GD32VW553/V1_MQTT_OK/GD32VW55X_Wifi_BLE_SDK/GD32VW55x_RELEASE_V1.0.2/MSDK/rtos/FreeRTOS/Source/portable/MemMang\heap_4.c **** 	{
 362:C:/Users/stapi/OneDrive/Desktop/GD32VW553/V1_MQTT_OK/GD32VW55X_Wifi_BLE_SDK/GD32VW55x_RELEASE_V1.0.2/MSDK/rtos/FreeRTOS/Source/portable/MemMang\heap_4.c **** 		uxAddress += ( portBYTE_ALIGNMENT - 1 );
 363:C:/Users/stapi/OneDrive/Desktop/GD32VW553/V1_MQTT_OK/GD32VW55X_Wifi_BLE_SDK/GD32VW55x_RELEASE_V1.0.2/MSDK/rtos/FreeRTOS/Source/portable/MemMang\heap_4.c **** 		uxAddress &= ~( ( size_t ) portBYTE_ALIGNMENT_MASK );
 364:C:/Users/stapi/OneDrive/Desktop/GD32VW553/V1_MQTT_OK/GD32VW55X_Wifi_BLE_SDK/GD32VW55x_RELEASE_V1.0.2/MSDK/rtos/FreeRTOS/Source/portable/MemMang\heap_4.c **** 		xTotalHeapSize -= uxAddress - ( size_t ) ucHeap;
 365:C:/Users/stapi/OneDrive/Desktop/GD32VW553/V1_MQTT_OK/GD32VW55X_Wifi_BLE_SDK/GD32VW55x_RELEASE_V1.0.2/MSDK/rtos/FreeRTOS/Source/portable/MemMang\heap_4.c **** 	}
 366:C:/Users/stapi/OneDrive/Desktop/GD32VW553/V1_MQTT_OK/GD32VW55X_Wifi_BLE_SDK/GD32VW55x_RELEASE_V1.0.2/MSDK/rtos/FreeRTOS/Source/portable/MemMang\heap_4.c **** 
 367:C:/Users/stapi/OneDrive/Desktop/GD32VW553/V1_MQTT_OK/GD32VW55X_Wifi_BLE_SDK/GD32VW55x_RELEASE_V1.0.2/MSDK/rtos/FreeRTOS/Source/portable/MemMang\heap_4.c **** 	pucAlignedHeap = ( uint8_t * ) uxAddress;
 368:C:/Users/stapi/OneDrive/Desktop/GD32VW553/V1_MQTT_OK/GD32VW55X_Wifi_BLE_SDK/GD32VW55x_RELEASE_V1.0.2/MSDK/rtos/FreeRTOS/Source/portable/MemMang\heap_4.c **** 
 369:C:/Users/stapi/OneDrive/Desktop/GD32VW553/V1_MQTT_OK/GD32VW55X_Wifi_BLE_SDK/GD32VW55x_RELEASE_V1.0.2/MSDK/rtos/FreeRTOS/Source/portable/MemMang\heap_4.c **** 	/* xStart is used to hold a pointer to the first item in the list of free
 370:C:/Users/stapi/OneDrive/Desktop/GD32VW553/V1_MQTT_OK/GD32VW55X_Wifi_BLE_SDK/GD32VW55x_RELEASE_V1.0.2/MSDK/rtos/FreeRTOS/Source/portable/MemMang\heap_4.c **** 	blocks.  The void cast is used to prevent compiler warnings. */
 371:C:/Users/stapi/OneDrive/Desktop/GD32VW553/V1_MQTT_OK/GD32VW55X_Wifi_BLE_SDK/GD32VW55x_RELEASE_V1.0.2/MSDK/rtos/FreeRTOS/Source/portable/MemMang\heap_4.c **** 	xStart.pxNextFreeBlock = ( void * ) pucAlignedHeap;
 372:C:/Users/stapi/OneDrive/Desktop/GD32VW553/V1_MQTT_OK/GD32VW55X_Wifi_BLE_SDK/GD32VW55x_RELEASE_V1.0.2/MSDK/rtos/FreeRTOS/Source/portable/MemMang\heap_4.c **** 	xStart.xBlockSize = ( size_t ) 0;
 373:C:/Users/stapi/OneDrive/Desktop/GD32VW553/V1_MQTT_OK/GD32VW55X_Wifi_BLE_SDK/GD32VW55x_RELEASE_V1.0.2/MSDK/rtos/FreeRTOS/Source/portable/MemMang\heap_4.c **** 
 374:C:/Users/stapi/OneDrive/Desktop/GD32VW553/V1_MQTT_OK/GD32VW55X_Wifi_BLE_SDK/GD32VW55x_RELEASE_V1.0.2/MSDK/rtos/FreeRTOS/Source/portable/MemMang\heap_4.c **** 	/* pxEnd is used to mark the end of the list of free blocks and is inserted
 375:C:/Users/stapi/OneDrive/Desktop/GD32VW553/V1_MQTT_OK/GD32VW55X_Wifi_BLE_SDK/GD32VW55x_RELEASE_V1.0.2/MSDK/rtos/FreeRTOS/Source/portable/MemMang\heap_4.c **** 	at the end of the heap space. */
 376:C:/Users/stapi/OneDrive/Desktop/GD32VW553/V1_MQTT_OK/GD32VW55X_Wifi_BLE_SDK/GD32VW55x_RELEASE_V1.0.2/MSDK/rtos/FreeRTOS/Source/portable/MemMang\heap_4.c **** 	uxAddress = ( ( size_t ) pucAlignedHeap ) + xTotalHeapSize;
 377:C:/Users/stapi/OneDrive/Desktop/GD32VW553/V1_MQTT_OK/GD32VW55X_Wifi_BLE_SDK/GD32VW55x_RELEASE_V1.0.2/MSDK/rtos/FreeRTOS/Source/portable/MemMang\heap_4.c **** 	uxAddress -= xHeapStructSize;
 378:C:/Users/stapi/OneDrive/Desktop/GD32VW553/V1_MQTT_OK/GD32VW55X_Wifi_BLE_SDK/GD32VW55x_RELEASE_V1.0.2/MSDK/rtos/FreeRTOS/Source/portable/MemMang\heap_4.c **** 	uxAddress &= ~( ( size_t ) portBYTE_ALIGNMENT_MASK );
 379:C:/Users/stapi/OneDrive/Desktop/GD32VW553/V1_MQTT_OK/GD32VW55X_Wifi_BLE_SDK/GD32VW55x_RELEASE_V1.0.2/MSDK/rtos/FreeRTOS/Source/portable/MemMang\heap_4.c **** 	pxEnd = ( void * ) uxAddress;
 380:C:/Users/stapi/OneDrive/Desktop/GD32VW553/V1_MQTT_OK/GD32VW55X_Wifi_BLE_SDK/GD32VW55x_RELEASE_V1.0.2/MSDK/rtos/FreeRTOS/Source/portable/MemMang\heap_4.c **** 	pxEnd->xBlockSize = 0;
 381:C:/Users/stapi/OneDrive/Desktop/GD32VW553/V1_MQTT_OK/GD32VW55X_Wifi_BLE_SDK/GD32VW55x_RELEASE_V1.0.2/MSDK/rtos/FreeRTOS/Source/portable/MemMang\heap_4.c **** 	pxEnd->pxNextFreeBlock = NULL;
 382:C:/Users/stapi/OneDrive/Desktop/GD32VW553/V1_MQTT_OK/GD32VW55X_Wifi_BLE_SDK/GD32VW55x_RELEASE_V1.0.2/MSDK/rtos/FreeRTOS/Source/portable/MemMang\heap_4.c **** 
 383:C:/Users/stapi/OneDrive/Desktop/GD32VW553/V1_MQTT_OK/GD32VW55X_Wifi_BLE_SDK/GD32VW55x_RELEASE_V1.0.2/MSDK/rtos/FreeRTOS/Source/portable/MemMang\heap_4.c **** 	/* To start with there is a single free block that is sized to take up the
 384:C:/Users/stapi/OneDrive/Desktop/GD32VW553/V1_MQTT_OK/GD32VW55X_Wifi_BLE_SDK/GD32VW55x_RELEASE_V1.0.2/MSDK/rtos/FreeRTOS/Source/portable/MemMang\heap_4.c **** 	entire heap space, minus the space taken by pxEnd. */
 385:C:/Users/stapi/OneDrive/Desktop/GD32VW553/V1_MQTT_OK/GD32VW55X_Wifi_BLE_SDK/GD32VW55x_RELEASE_V1.0.2/MSDK/rtos/FreeRTOS/Source/portable/MemMang\heap_4.c **** 	pxFirstFreeBlock = ( void * ) pucAlignedHeap;
 386:C:/Users/stapi/OneDrive/Desktop/GD32VW553/V1_MQTT_OK/GD32VW55X_Wifi_BLE_SDK/GD32VW55x_RELEASE_V1.0.2/MSDK/rtos/FreeRTOS/Source/portable/MemMang\heap_4.c **** 	pxFirstFreeBlock->xBlockSize = uxAddress - ( size_t ) pxFirstFreeBlock;
 387:C:/Users/stapi/OneDrive/Desktop/GD32VW553/V1_MQTT_OK/GD32VW55X_Wifi_BLE_SDK/GD32VW55x_RELEASE_V1.0.2/MSDK/rtos/FreeRTOS/Source/portable/MemMang\heap_4.c **** 	pxFirstFreeBlock->pxNextFreeBlock = pxEnd;
 388:C:/Users/stapi/OneDrive/Desktop/GD32VW553/V1_MQTT_OK/GD32VW55X_Wifi_BLE_SDK/GD32VW55x_RELEASE_V1.0.2/MSDK/rtos/FreeRTOS/Source/portable/MemMang\heap_4.c **** 
 389:C:/Users/stapi/OneDrive/Desktop/GD32VW553/V1_MQTT_OK/GD32VW55X_Wifi_BLE_SDK/GD32VW55x_RELEASE_V1.0.2/MSDK/rtos/FreeRTOS/Source/portable/MemMang\heap_4.c **** 	/* Only one block exists - and it covers the entire usable heap space. */
 390:C:/Users/stapi/OneDrive/Desktop/GD32VW553/V1_MQTT_OK/GD32VW55X_Wifi_BLE_SDK/GD32VW55x_RELEASE_V1.0.2/MSDK/rtos/FreeRTOS/Source/portable/MemMang\heap_4.c **** 	xMinimumEverFreeBytesRemaining = pxFirstFreeBlock->xBlockSize;
 391:C:/Users/stapi/OneDrive/Desktop/GD32VW553/V1_MQTT_OK/GD32VW55X_Wifi_BLE_SDK/GD32VW55x_RELEASE_V1.0.2/MSDK/rtos/FreeRTOS/Source/portable/MemMang\heap_4.c **** 	xFreeBytesRemaining = pxFirstFreeBlock->xBlockSize;
 392:C:/Users/stapi/OneDrive/Desktop/GD32VW553/V1_MQTT_OK/GD32VW55X_Wifi_BLE_SDK/GD32VW55x_RELEASE_V1.0.2/MSDK/rtos/FreeRTOS/Source/portable/MemMang\heap_4.c **** 
 393:C:/Users/stapi/OneDrive/Desktop/GD32VW553/V1_MQTT_OK/GD32VW55X_Wifi_BLE_SDK/GD32VW55x_RELEASE_V1.0.2/MSDK/rtos/FreeRTOS/Source/portable/MemMang\heap_4.c **** 	/* Work out the position of the top bit in a size_t variable. */
 394:C:/Users/stapi/OneDrive/Desktop/GD32VW553/V1_MQTT_OK/GD32VW55X_Wifi_BLE_SDK/GD32VW55x_RELEASE_V1.0.2/MSDK/rtos/FreeRTOS/Source/portable/MemMang\heap_4.c **** 	xBlockAllocatedBit = ( ( size_t ) 1 ) << ( ( sizeof( size_t ) * heapBITS_PER_BYTE ) - 1 );
 395:C:/Users/stapi/OneDrive/Desktop/GD32VW553/V1_MQTT_OK/GD32VW55X_Wifi_BLE_SDK/GD32VW55x_RELEASE_V1.0.2/MSDK/rtos/FreeRTOS/Source/portable/MemMang\heap_4.c **** }
 396:C:/Users/stapi/OneDrive/Desktop/GD32VW553/V1_MQTT_OK/GD32VW55X_Wifi_BLE_SDK/GD32VW55x_RELEASE_V1.0.2/MSDK/rtos/FreeRTOS/Source/portable/MemMang\heap_4.c **** /*-----------------------------------------------------------*/
 397:C:/Users/stapi/OneDrive/Desktop/GD32VW553/V1_MQTT_OK/GD32VW55X_Wifi_BLE_SDK/GD32VW55x_RELEASE_V1.0.2/MSDK/rtos/FreeRTOS/Source/portable/MemMang\heap_4.c **** 
 398:C:/Users/stapi/OneDrive/Desktop/GD32VW553/V1_MQTT_OK/GD32VW55X_Wifi_BLE_SDK/GD32VW55x_RELEASE_V1.0.2/MSDK/rtos/FreeRTOS/Source/portable/MemMang\heap_4.c **** static void prvInsertBlockIntoFreeList( BlockLink_t *pxBlockToInsert )
 399:C:/Users/stapi/OneDrive/Desktop/GD32VW553/V1_MQTT_OK/GD32VW55X_Wifi_BLE_SDK/GD32VW55x_RELEASE_V1.0.2/MSDK/rtos/FreeRTOS/Source/portable/MemMang\heap_4.c **** {
  15              		.loc 1 399 1
  16              		.cfi_startproc
  17              	.LVL0:
 400:C:/Users/stapi/OneDrive/Desktop/GD32VW553/V1_MQTT_OK/GD32VW55X_Wifi_BLE_SDK/GD32VW55x_RELEASE_V1.0.2/MSDK/rtos/FreeRTOS/Source/portable/MemMang\heap_4.c **** BlockLink_t *pxIterator;
  18              		.loc 1 400 1
 401:C:/Users/stapi/OneDrive/Desktop/GD32VW553/V1_MQTT_OK/GD32VW55X_Wifi_BLE_SDK/GD32VW55x_RELEASE_V1.0.2/MSDK/rtos/FreeRTOS/Source/portable/MemMang\heap_4.c **** uint8_t *puc;
  19              		.loc 1 401 1
 402:C:/Users/stapi/OneDrive/Desktop/GD32VW553/V1_MQTT_OK/GD32VW55X_Wifi_BLE_SDK/GD32VW55x_RELEASE_V1.0.2/MSDK/rtos/FreeRTOS/Source/portable/MemMang\heap_4.c **** 
 403:C:/Users/stapi/OneDrive/Desktop/GD32VW553/V1_MQTT_OK/GD32VW55X_Wifi_BLE_SDK/GD32VW55x_RELEASE_V1.0.2/MSDK/rtos/FreeRTOS/Source/portable/MemMang\heap_4.c **** 	/* Iterate through the list until a block is found that has a higher address
 404:C:/Users/stapi/OneDrive/Desktop/GD32VW553/V1_MQTT_OK/GD32VW55X_Wifi_BLE_SDK/GD32VW55x_RELEASE_V1.0.2/MSDK/rtos/FreeRTOS/Source/portable/MemMang\heap_4.c **** 	than the block being inserted. */
 405:C:/Users/stapi/OneDrive/Desktop/GD32VW553/V1_MQTT_OK/GD32VW55X_Wifi_BLE_SDK/GD32VW55x_RELEASE_V1.0.2/MSDK/rtos/FreeRTOS/Source/portable/MemMang\heap_4.c **** 	for( pxIterator = &xStart; pxIterator->pxNextFreeBlock < pxBlockToInsert; pxIterator = pxIterator-
  20              		.loc 1 405 2
  21              		.loc 1 405 18 is_stmt 0
  22 0000 B7070000 		lui	a5,%hi(.LANCHOR0)
  23 0004 93870700 		addi	a5,a5,%lo(.LANCHOR0)
  24              	.LVL1:
  25              	.L2:
  26              		.loc 1 405 29 is_stmt 1 discriminator 1
  27 0008 3E87     		mv	a4,a5
  28              		.loc 1 405 39 is_stmt 0 discriminator 1
  29 000a 9C43     		lw	a5,0(a5)
  30              	.LVL2:
  31              		.loc 1 405 2 discriminator 1
  32 000c E3EEA7FE 		bltu	a5,a0,.L2
 406:C:/Users/stapi/OneDrive/Desktop/GD32VW553/V1_MQTT_OK/GD32VW55X_Wifi_BLE_SDK/GD32VW55x_RELEASE_V1.0.2/MSDK/rtos/FreeRTOS/Source/portable/MemMang\heap_4.c **** 	{
 407:C:/Users/stapi/OneDrive/Desktop/GD32VW553/V1_MQTT_OK/GD32VW55X_Wifi_BLE_SDK/GD32VW55x_RELEASE_V1.0.2/MSDK/rtos/FreeRTOS/Source/portable/MemMang\heap_4.c **** 		/* Nothing to do here, just iterate to the right position. */
 408:C:/Users/stapi/OneDrive/Desktop/GD32VW553/V1_MQTT_OK/GD32VW55X_Wifi_BLE_SDK/GD32VW55x_RELEASE_V1.0.2/MSDK/rtos/FreeRTOS/Source/portable/MemMang\heap_4.c **** 	}
 409:C:/Users/stapi/OneDrive/Desktop/GD32VW553/V1_MQTT_OK/GD32VW55X_Wifi_BLE_SDK/GD32VW55x_RELEASE_V1.0.2/MSDK/rtos/FreeRTOS/Source/portable/MemMang\heap_4.c **** 
 410:C:/Users/stapi/OneDrive/Desktop/GD32VW553/V1_MQTT_OK/GD32VW55X_Wifi_BLE_SDK/GD32VW55x_RELEASE_V1.0.2/MSDK/rtos/FreeRTOS/Source/portable/MemMang\heap_4.c **** 	/* Do the block being inserted, and the block it is being inserted after
 411:C:/Users/stapi/OneDrive/Desktop/GD32VW553/V1_MQTT_OK/GD32VW55X_Wifi_BLE_SDK/GD32VW55x_RELEASE_V1.0.2/MSDK/rtos/FreeRTOS/Source/portable/MemMang\heap_4.c **** 	make a contiguous block of memory? */
 412:C:/Users/stapi/OneDrive/Desktop/GD32VW553/V1_MQTT_OK/GD32VW55X_Wifi_BLE_SDK/GD32VW55x_RELEASE_V1.0.2/MSDK/rtos/FreeRTOS/Source/portable/MemMang\heap_4.c **** 	puc = ( uint8_t * ) pxIterator;
  33              		.loc 1 412 2 is_stmt 1
  34              	.LVL3:
 413:C:/Users/stapi/OneDrive/Desktop/GD32VW553/V1_MQTT_OK/GD32VW55X_Wifi_BLE_SDK/GD32VW55x_RELEASE_V1.0.2/MSDK/rtos/FreeRTOS/Source/portable/MemMang\heap_4.c **** 	if( ( puc + pxIterator->xBlockSize ) == ( uint8_t * ) pxBlockToInsert )
  35              		.loc 1 413 2
  36              		.loc 1 413 24 is_stmt 0
  37 0010 5043     		lw	a2,4(a4)
  38              		.loc 1 413 12
  39 0012 B306C700 		add	a3,a4,a2
  40              		.loc 1 413 4
  41 0016 6316D500 		bne	a0,a3,.L3
 414:C:/Users/stapi/OneDrive/Desktop/GD32VW553/V1_MQTT_OK/GD32VW55X_Wifi_BLE_SDK/GD32VW55x_RELEASE_V1.0.2/MSDK/rtos/FreeRTOS/Source/portable/MemMang\heap_4.c **** 	{
 415:C:/Users/stapi/OneDrive/Desktop/GD32VW553/V1_MQTT_OK/GD32VW55X_Wifi_BLE_SDK/GD32VW55x_RELEASE_V1.0.2/MSDK/rtos/FreeRTOS/Source/portable/MemMang\heap_4.c **** 		pxIterator->xBlockSize += pxBlockToInsert->xBlockSize;
  42              		.loc 1 415 3 is_stmt 1
  43              		.loc 1 415 26 is_stmt 0
  44 001a 5441     		lw	a3,4(a0)
  45 001c 3A85     		mv	a0,a4
  46              	.LVL4:
  47 001e B296     		add	a3,a3,a2
  48 0020 54C3     		sw	a3,4(a4)
 416:C:/Users/stapi/OneDrive/Desktop/GD32VW553/V1_MQTT_OK/GD32VW55X_Wifi_BLE_SDK/GD32VW55x_RELEASE_V1.0.2/MSDK/rtos/FreeRTOS/Source/portable/MemMang\heap_4.c **** 		pxBlockToInsert = pxIterator;
  49              		.loc 1 416 3 is_stmt 1
  50              	.LVL5:
  51              	.L3:
 417:C:/Users/stapi/OneDrive/Desktop/GD32VW553/V1_MQTT_OK/GD32VW55X_Wifi_BLE_SDK/GD32VW55x_RELEASE_V1.0.2/MSDK/rtos/FreeRTOS/Source/portable/MemMang\heap_4.c **** 	}
 418:C:/Users/stapi/OneDrive/Desktop/GD32VW553/V1_MQTT_OK/GD32VW55X_Wifi_BLE_SDK/GD32VW55x_RELEASE_V1.0.2/MSDK/rtos/FreeRTOS/Source/portable/MemMang\heap_4.c **** 	else
 419:C:/Users/stapi/OneDrive/Desktop/GD32VW553/V1_MQTT_OK/GD32VW55X_Wifi_BLE_SDK/GD32VW55x_RELEASE_V1.0.2/MSDK/rtos/FreeRTOS/Source/portable/MemMang\heap_4.c **** 	{
 420:C:/Users/stapi/OneDrive/Desktop/GD32VW553/V1_MQTT_OK/GD32VW55X_Wifi_BLE_SDK/GD32VW55x_RELEASE_V1.0.2/MSDK/rtos/FreeRTOS/Source/portable/MemMang\heap_4.c **** 		mtCOVERAGE_TEST_MARKER();
  52              		.loc 1 420 27
 421:C:/Users/stapi/OneDrive/Desktop/GD32VW553/V1_MQTT_OK/GD32VW55X_Wifi_BLE_SDK/GD32VW55x_RELEASE_V1.0.2/MSDK/rtos/FreeRTOS/Source/portable/MemMang\heap_4.c **** 	}
 422:C:/Users/stapi/OneDrive/Desktop/GD32VW553/V1_MQTT_OK/GD32VW55X_Wifi_BLE_SDK/GD32VW55x_RELEASE_V1.0.2/MSDK/rtos/FreeRTOS/Source/portable/MemMang\heap_4.c **** 
 423:C:/Users/stapi/OneDrive/Desktop/GD32VW553/V1_MQTT_OK/GD32VW55X_Wifi_BLE_SDK/GD32VW55x_RELEASE_V1.0.2/MSDK/rtos/FreeRTOS/Source/portable/MemMang\heap_4.c **** 	/* Do the block being inserted, and the block it is being inserted before
 424:C:/Users/stapi/OneDrive/Desktop/GD32VW553/V1_MQTT_OK/GD32VW55X_Wifi_BLE_SDK/GD32VW55x_RELEASE_V1.0.2/MSDK/rtos/FreeRTOS/Source/portable/MemMang\heap_4.c **** 	make a contiguous block of memory? */
 425:C:/Users/stapi/OneDrive/Desktop/GD32VW553/V1_MQTT_OK/GD32VW55X_Wifi_BLE_SDK/GD32VW55x_RELEASE_V1.0.2/MSDK/rtos/FreeRTOS/Source/portable/MemMang\heap_4.c **** 	puc = ( uint8_t * ) pxBlockToInsert;
  53              		.loc 1 425 2
 426:C:/Users/stapi/OneDrive/Desktop/GD32VW553/V1_MQTT_OK/GD32VW55X_Wifi_BLE_SDK/GD32VW55x_RELEASE_V1.0.2/MSDK/rtos/FreeRTOS/Source/portable/MemMang\heap_4.c **** 	if( ( puc + pxBlockToInsert->xBlockSize ) == ( uint8_t * ) pxIterator->pxNextFreeBlock )
  54              		.loc 1 426 2
  55              		.loc 1 426 29 is_stmt 0
  56 0022 5041     		lw	a2,4(a0)
  57              		.loc 1 426 12
  58 0024 B306C500 		add	a3,a0,a2
  59              		.loc 1 426 4
  60 0028 639CD700 		bne	a5,a3,.L4
 427:C:/Users/stapi/OneDrive/Desktop/GD32VW553/V1_MQTT_OK/GD32VW55X_Wifi_BLE_SDK/GD32VW55x_RELEASE_V1.0.2/MSDK/rtos/FreeRTOS/Source/portable/MemMang\heap_4.c **** 	{
 428:C:/Users/stapi/OneDrive/Desktop/GD32VW553/V1_MQTT_OK/GD32VW55X_Wifi_BLE_SDK/GD32VW55x_RELEASE_V1.0.2/MSDK/rtos/FreeRTOS/Source/portable/MemMang\heap_4.c **** 		if( pxIterator->pxNextFreeBlock != pxEnd )
  61              		.loc 1 428 3 is_stmt 1
  62              		.loc 1 428 35 is_stmt 0
  63 002c B7060000 		lui	a3,%hi(.LANCHOR1)
  64 0030 83A60600 		lw	a3,%lo(.LANCHOR1)(a3)
  65              		.loc 1 428 5
  66 0034 6386D700 		beq	a5,a3,.L4
 429:C:/Users/stapi/OneDrive/Desktop/GD32VW553/V1_MQTT_OK/GD32VW55X_Wifi_BLE_SDK/GD32VW55x_RELEASE_V1.0.2/MSDK/rtos/FreeRTOS/Source/portable/MemMang\heap_4.c **** 		{
 430:C:/Users/stapi/OneDrive/Desktop/GD32VW553/V1_MQTT_OK/GD32VW55X_Wifi_BLE_SDK/GD32VW55x_RELEASE_V1.0.2/MSDK/rtos/FreeRTOS/Source/portable/MemMang\heap_4.c **** 			/* Form one big block from the two blocks. */
 431:C:/Users/stapi/OneDrive/Desktop/GD32VW553/V1_MQTT_OK/GD32VW55X_Wifi_BLE_SDK/GD32VW55x_RELEASE_V1.0.2/MSDK/rtos/FreeRTOS/Source/portable/MemMang\heap_4.c **** 			pxBlockToInsert->xBlockSize += pxIterator->pxNextFreeBlock->xBlockSize;
  67              		.loc 1 431 4 is_stmt 1
  68              		.loc 1 431 32 is_stmt 0
  69 0038 D443     		lw	a3,4(a5)
 432:C:/Users/stapi/OneDrive/Desktop/GD32VW553/V1_MQTT_OK/GD32VW55X_Wifi_BLE_SDK/GD32VW55x_RELEASE_V1.0.2/MSDK/rtos/FreeRTOS/Source/portable/MemMang\heap_4.c **** 			pxBlockToInsert->pxNextFreeBlock = pxIterator->pxNextFreeBlock->pxNextFreeBlock;
  70              		.loc 1 432 66
  71 003a 9C43     		lw	a5,0(a5)
 431:C:/Users/stapi/OneDrive/Desktop/GD32VW553/V1_MQTT_OK/GD32VW55X_Wifi_BLE_SDK/GD32VW55x_RELEASE_V1.0.2/MSDK/rtos/FreeRTOS/Source/portable/MemMang\heap_4.c **** 			pxBlockToInsert->pxNextFreeBlock = pxIterator->pxNextFreeBlock->pxNextFreeBlock;
  72              		.loc 1 431 32
  73 003c B296     		add	a3,a3,a2
  74 003e 54C1     		sw	a3,4(a0)
  75              		.loc 1 432 4 is_stmt 1
  76              	.L4:
 433:C:/Users/stapi/OneDrive/Desktop/GD32VW553/V1_MQTT_OK/GD32VW55X_Wifi_BLE_SDK/GD32VW55x_RELEASE_V1.0.2/MSDK/rtos/FreeRTOS/Source/portable/MemMang\heap_4.c **** 		}
 434:C:/Users/stapi/OneDrive/Desktop/GD32VW553/V1_MQTT_OK/GD32VW55X_Wifi_BLE_SDK/GD32VW55x_RELEASE_V1.0.2/MSDK/rtos/FreeRTOS/Source/portable/MemMang\heap_4.c **** 		else
 435:C:/Users/stapi/OneDrive/Desktop/GD32VW553/V1_MQTT_OK/GD32VW55X_Wifi_BLE_SDK/GD32VW55x_RELEASE_V1.0.2/MSDK/rtos/FreeRTOS/Source/portable/MemMang\heap_4.c **** 		{
 436:C:/Users/stapi/OneDrive/Desktop/GD32VW553/V1_MQTT_OK/GD32VW55X_Wifi_BLE_SDK/GD32VW55x_RELEASE_V1.0.2/MSDK/rtos/FreeRTOS/Source/portable/MemMang\heap_4.c **** 			pxBlockToInsert->pxNextFreeBlock = pxEnd;
 437:C:/Users/stapi/OneDrive/Desktop/GD32VW553/V1_MQTT_OK/GD32VW55X_Wifi_BLE_SDK/GD32VW55x_RELEASE_V1.0.2/MSDK/rtos/FreeRTOS/Source/portable/MemMang\heap_4.c **** 		}
 438:C:/Users/stapi/OneDrive/Desktop/GD32VW553/V1_MQTT_OK/GD32VW55X_Wifi_BLE_SDK/GD32VW55x_RELEASE_V1.0.2/MSDK/rtos/FreeRTOS/Source/portable/MemMang\heap_4.c **** 	}
 439:C:/Users/stapi/OneDrive/Desktop/GD32VW553/V1_MQTT_OK/GD32VW55X_Wifi_BLE_SDK/GD32VW55x_RELEASE_V1.0.2/MSDK/rtos/FreeRTOS/Source/portable/MemMang\heap_4.c **** 	else
 440:C:/Users/stapi/OneDrive/Desktop/GD32VW553/V1_MQTT_OK/GD32VW55X_Wifi_BLE_SDK/GD32VW55x_RELEASE_V1.0.2/MSDK/rtos/FreeRTOS/Source/portable/MemMang\heap_4.c **** 	{
 441:C:/Users/stapi/OneDrive/Desktop/GD32VW553/V1_MQTT_OK/GD32VW55X_Wifi_BLE_SDK/GD32VW55x_RELEASE_V1.0.2/MSDK/rtos/FreeRTOS/Source/portable/MemMang\heap_4.c **** 		pxBlockToInsert->pxNextFreeBlock = pxIterator->pxNextFreeBlock;
  77              		.loc 1 441 3
  78              		.loc 1 441 36 is_stmt 0
  79 0040 1CC1     		sw	a5,0(a0)
 442:C:/Users/stapi/OneDrive/Desktop/GD32VW553/V1_MQTT_OK/GD32VW55X_Wifi_BLE_SDK/GD32VW55x_RELEASE_V1.0.2/MSDK/rtos/FreeRTOS/Source/portable/MemMang\heap_4.c **** 	}
 443:C:/Users/stapi/OneDrive/Desktop/GD32VW553/V1_MQTT_OK/GD32VW55X_Wifi_BLE_SDK/GD32VW55x_RELEASE_V1.0.2/MSDK/rtos/FreeRTOS/Source/portable/MemMang\heap_4.c **** 
 444:C:/Users/stapi/OneDrive/Desktop/GD32VW553/V1_MQTT_OK/GD32VW55X_Wifi_BLE_SDK/GD32VW55x_RELEASE_V1.0.2/MSDK/rtos/FreeRTOS/Source/portable/MemMang\heap_4.c **** 	/* If the block being inserted plugged a gab, so was merged with the block
 445:C:/Users/stapi/OneDrive/Desktop/GD32VW553/V1_MQTT_OK/GD32VW55X_Wifi_BLE_SDK/GD32VW55x_RELEASE_V1.0.2/MSDK/rtos/FreeRTOS/Source/portable/MemMang\heap_4.c **** 	before and the block after, then it's pxNextFreeBlock pointer will have
 446:C:/Users/stapi/OneDrive/Desktop/GD32VW553/V1_MQTT_OK/GD32VW55X_Wifi_BLE_SDK/GD32VW55x_RELEASE_V1.0.2/MSDK/rtos/FreeRTOS/Source/portable/MemMang\heap_4.c **** 	already been set, and should not be set here as that would make it point
 447:C:/Users/stapi/OneDrive/Desktop/GD32VW553/V1_MQTT_OK/GD32VW55X_Wifi_BLE_SDK/GD32VW55x_RELEASE_V1.0.2/MSDK/rtos/FreeRTOS/Source/portable/MemMang\heap_4.c **** 	to itself. */
 448:C:/Users/stapi/OneDrive/Desktop/GD32VW553/V1_MQTT_OK/GD32VW55X_Wifi_BLE_SDK/GD32VW55x_RELEASE_V1.0.2/MSDK/rtos/FreeRTOS/Source/portable/MemMang\heap_4.c **** 	if( pxIterator != pxBlockToInsert )
  80              		.loc 1 448 2 is_stmt 1
  81              		.loc 1 448 4 is_stmt 0
  82 0042 6303E500 		beq	a0,a4,.L1
 449:C:/Users/stapi/OneDrive/Desktop/GD32VW553/V1_MQTT_OK/GD32VW55X_Wifi_BLE_SDK/GD32VW55x_RELEASE_V1.0.2/MSDK/rtos/FreeRTOS/Source/portable/MemMang\heap_4.c **** 	{
 450:C:/Users/stapi/OneDrive/Desktop/GD32VW553/V1_MQTT_OK/GD32VW55X_Wifi_BLE_SDK/GD32VW55x_RELEASE_V1.0.2/MSDK/rtos/FreeRTOS/Source/portable/MemMang\heap_4.c **** 		pxIterator->pxNextFreeBlock = pxBlockToInsert;
  83              		.loc 1 450 3 is_stmt 1
  84              		.loc 1 450 31 is_stmt 0
  85 0046 08C3     		sw	a0,0(a4)
 451:C:/Users/stapi/OneDrive/Desktop/GD32VW553/V1_MQTT_OK/GD32VW55X_Wifi_BLE_SDK/GD32VW55x_RELEASE_V1.0.2/MSDK/rtos/FreeRTOS/Source/portable/MemMang\heap_4.c **** 	}
 452:C:/Users/stapi/OneDrive/Desktop/GD32VW553/V1_MQTT_OK/GD32VW55X_Wifi_BLE_SDK/GD32VW55x_RELEASE_V1.0.2/MSDK/rtos/FreeRTOS/Source/portable/MemMang\heap_4.c **** 	else
 453:C:/Users/stapi/OneDrive/Desktop/GD32VW553/V1_MQTT_OK/GD32VW55X_Wifi_BLE_SDK/GD32VW55x_RELEASE_V1.0.2/MSDK/rtos/FreeRTOS/Source/portable/MemMang\heap_4.c **** 	{
 454:C:/Users/stapi/OneDrive/Desktop/GD32VW553/V1_MQTT_OK/GD32VW55X_Wifi_BLE_SDK/GD32VW55x_RELEASE_V1.0.2/MSDK/rtos/FreeRTOS/Source/portable/MemMang\heap_4.c **** 		mtCOVERAGE_TEST_MARKER();
  86              		.loc 1 454 27 is_stmt 1
  87              	.L1:
 455:C:/Users/stapi/OneDrive/Desktop/GD32VW553/V1_MQTT_OK/GD32VW55X_Wifi_BLE_SDK/GD32VW55x_RELEASE_V1.0.2/MSDK/rtos/FreeRTOS/Source/portable/MemMang\heap_4.c **** 	}
 456:C:/Users/stapi/OneDrive/Desktop/GD32VW553/V1_MQTT_OK/GD32VW55X_Wifi_BLE_SDK/GD32VW55x_RELEASE_V1.0.2/MSDK/rtos/FreeRTOS/Source/portable/MemMang\heap_4.c **** }
  88              		.loc 1 456 1 is_stmt 0
  89 0048 8280     		ret
  90              		.cfi_endproc
  91              	.LFE12:
  93              		.section	.text.pvPortMalloc,"ax",@progbits
  94              		.align	1
  95              		.globl	pvPortMalloc
  97              	pvPortMalloc:
  98              	.LFB4:
 122:C:/Users/stapi/OneDrive/Desktop/GD32VW553/V1_MQTT_OK/GD32VW55X_Wifi_BLE_SDK/GD32VW55x_RELEASE_V1.0.2/MSDK/rtos/FreeRTOS/Source/portable/MemMang\heap_4.c **** BlockLink_t *pxBlock, *pxPreviousBlock, *pxNewBlockLink;
  99              		.loc 1 122 1 is_stmt 1
 100              		.cfi_startproc
 101              	.LVL6:
 102 0000 17030000 		call	t0,__riscv_save_5
 102      E7020300 
 103              		.cfi_offset 20, -24
 104              		.cfi_offset 19, -20
 105              		.cfi_offset 18, -16
 106              		.cfi_offset 9, -12
 107              		.cfi_offset 8, -8
 108              		.cfi_offset 1, -4
 109              		.cfi_def_cfa_offset 32
 123:C:/Users/stapi/OneDrive/Desktop/GD32VW553/V1_MQTT_OK/GD32VW55X_Wifi_BLE_SDK/GD32VW55x_RELEASE_V1.0.2/MSDK/rtos/FreeRTOS/Source/portable/MemMang\heap_4.c **** void *pvReturn = NULL;
 110              		.loc 1 123 1
 124:C:/Users/stapi/OneDrive/Desktop/GD32VW553/V1_MQTT_OK/GD32VW55X_Wifi_BLE_SDK/GD32VW55x_RELEASE_V1.0.2/MSDK/rtos/FreeRTOS/Source/portable/MemMang\heap_4.c **** 
 111              		.loc 1 124 1
 112              	.LVL7:
 126:C:/Users/stapi/OneDrive/Desktop/GD32VW553/V1_MQTT_OK/GD32VW55X_Wifi_BLE_SDK/GD32VW55x_RELEASE_V1.0.2/MSDK/rtos/FreeRTOS/Source/portable/MemMang\heap_4.c **** 	{
 113              		.loc 1 126 2
 122:C:/Users/stapi/OneDrive/Desktop/GD32VW553/V1_MQTT_OK/GD32VW55X_Wifi_BLE_SDK/GD32VW55x_RELEASE_V1.0.2/MSDK/rtos/FreeRTOS/Source/portable/MemMang\heap_4.c **** BlockLink_t *pxBlock, *pxPreviousBlock, *pxNewBlockLink;
 114              		.loc 1 122 1 is_stmt 0
 115 0008 2A84     		mv	s0,a0
 126:C:/Users/stapi/OneDrive/Desktop/GD32VW553/V1_MQTT_OK/GD32VW55X_Wifi_BLE_SDK/GD32VW55x_RELEASE_V1.0.2/MSDK/rtos/FreeRTOS/Source/portable/MemMang\heap_4.c **** 	{
 116              		.loc 1 126 2
 117 000a 97000000 		call	vTaskSuspendAll
 117      E7800000 
 118              	.LVL8:
 130:C:/Users/stapi/OneDrive/Desktop/GD32VW553/V1_MQTT_OK/GD32VW55X_Wifi_BLE_SDK/GD32VW55x_RELEASE_V1.0.2/MSDK/rtos/FreeRTOS/Source/portable/MemMang\heap_4.c **** 		{
 119              		.loc 1 130 3 is_stmt 1
 130:C:/Users/stapi/OneDrive/Desktop/GD32VW553/V1_MQTT_OK/GD32VW55X_Wifi_BLE_SDK/GD32VW55x_RELEASE_V1.0.2/MSDK/rtos/FreeRTOS/Source/portable/MemMang\heap_4.c **** 		{
 120              		.loc 1 130 13 is_stmt 0
 121 0012 37060000 		lui	a2,%hi(.LANCHOR1)
 130:C:/Users/stapi/OneDrive/Desktop/GD32VW553/V1_MQTT_OK/GD32VW55X_Wifi_BLE_SDK/GD32VW55x_RELEASE_V1.0.2/MSDK/rtos/FreeRTOS/Source/portable/MemMang\heap_4.c **** 		{
 122              		.loc 1 130 5
 123 0016 83270600 		lw	a5,%lo(.LANCHOR1)(a2)
 124 001a 37050000 		lui	a0,%hi(.LANCHOR5)
 125 001e 13060600 		addi	a2,a2,%lo(.LANCHOR1)
 126 0022 13050500 		addi	a0,a0,%lo(.LANCHOR5)
 127 0026 B5E7     		bne	a5,zero,.L10
 132:C:/Users/stapi/OneDrive/Desktop/GD32VW553/V1_MQTT_OK/GD32VW55X_Wifi_BLE_SDK/GD32VW55x_RELEASE_V1.0.2/MSDK/rtos/FreeRTOS/Source/portable/MemMang\heap_4.c **** 		}
 128              		.loc 1 132 4 is_stmt 1
 129              	.LBB4:
 130              	.LBB5:
 352:C:/Users/stapi/OneDrive/Desktop/GD32VW553/V1_MQTT_OK/GD32VW55X_Wifi_BLE_SDK/GD32VW55x_RELEASE_V1.0.2/MSDK/rtos/FreeRTOS/Source/portable/MemMang\heap_4.c **** uint8_t *pucAlignedHeap;
 131              		.loc 1 352 1
 353:C:/Users/stapi/OneDrive/Desktop/GD32VW553/V1_MQTT_OK/GD32VW55X_Wifi_BLE_SDK/GD32VW55x_RELEASE_V1.0.2/MSDK/rtos/FreeRTOS/Source/portable/MemMang\heap_4.c **** size_t uxAddress;
 132              		.loc 1 353 1
 354:C:/Users/stapi/OneDrive/Desktop/GD32VW553/V1_MQTT_OK/GD32VW55X_Wifi_BLE_SDK/GD32VW55x_RELEASE_V1.0.2/MSDK/rtos/FreeRTOS/Source/portable/MemMang\heap_4.c **** 
 133              		.loc 1 354 1
 357:C:/Users/stapi/OneDrive/Desktop/GD32VW553/V1_MQTT_OK/GD32VW55X_Wifi_BLE_SDK/GD32VW55x_RELEASE_V1.0.2/MSDK/rtos/FreeRTOS/Source/portable/MemMang\heap_4.c **** 	xTotalHeapSize = configTOTAL_HEAP_SIZE;
 134              		.loc 1 357 2
 357:C:/Users/stapi/OneDrive/Desktop/GD32VW553/V1_MQTT_OK/GD32VW55X_Wifi_BLE_SDK/GD32VW55x_RELEASE_V1.0.2/MSDK/rtos/FreeRTOS/Source/portable/MemMang\heap_4.c **** 	xTotalHeapSize = configTOTAL_HEAP_SIZE;
 135              		.loc 1 357 14 is_stmt 0
 136 0028 B7070000 		lui	a5,%hi(ucHeap)
 357:C:/Users/stapi/OneDrive/Desktop/GD32VW553/V1_MQTT_OK/GD32VW55X_Wifi_BLE_SDK/GD32VW55x_RELEASE_V1.0.2/MSDK/rtos/FreeRTOS/Source/portable/MemMang\heap_4.c **** 	xTotalHeapSize = configTOTAL_HEAP_SIZE;
 137              		.loc 1 357 12
 138 002c 83A70700 		lw	a5,%lo(ucHeap)(a5)
 139              	.LVL9:
 358:C:/Users/stapi/OneDrive/Desktop/GD32VW553/V1_MQTT_OK/GD32VW55X_Wifi_BLE_SDK/GD32VW55x_RELEASE_V1.0.2/MSDK/rtos/FreeRTOS/Source/portable/MemMang\heap_4.c **** 
 140              		.loc 1 358 2 is_stmt 1
 358:C:/Users/stapi/OneDrive/Desktop/GD32VW553/V1_MQTT_OK/GD32VW55X_Wifi_BLE_SDK/GD32VW55x_RELEASE_V1.0.2/MSDK/rtos/FreeRTOS/Source/portable/MemMang\heap_4.c **** 
 141              		.loc 1 358 19 is_stmt 0
 142 0030 B7060000 		lui	a3,%hi(_ertos)
 143 0034 37070000 		lui	a4,%hi(_rtos)
 144 0038 13070700 		addi	a4,a4,%lo(_rtos)
 145 003c 93860600 		addi	a3,a3,%lo(_ertos)
 146 0040 998E     		sub	a3,a3,a4
 360:C:/Users/stapi/OneDrive/Desktop/GD32VW553/V1_MQTT_OK/GD32VW55X_Wifi_BLE_SDK/GD32VW55x_RELEASE_V1.0.2/MSDK/rtos/FreeRTOS/Source/portable/MemMang\heap_4.c **** 	{
 147              		.loc 1 360 2 is_stmt 1
 148 0042 B7050000 		lui	a1,%hi(.LANCHOR2)
 360:C:/Users/stapi/OneDrive/Desktop/GD32VW553/V1_MQTT_OK/GD32VW55X_Wifi_BLE_SDK/GD32VW55x_RELEASE_V1.0.2/MSDK/rtos/FreeRTOS/Source/portable/MemMang\heap_4.c **** 	{
 149              		.loc 1 360 18 is_stmt 0
 150 0046 13F77700 		andi	a4,a5,7
 151 004a 93850500 		addi	a1,a1,%lo(.LANCHOR2)
 360:C:/Users/stapi/OneDrive/Desktop/GD32VW553/V1_MQTT_OK/GD32VW55X_Wifi_BLE_SDK/GD32VW55x_RELEASE_V1.0.2/MSDK/rtos/FreeRTOS/Source/portable/MemMang\heap_4.c **** 	{
 152              		.loc 1 360 4
 153 004e 65EF     		bne	a4,zero,.L11
 358:C:/Users/stapi/OneDrive/Desktop/GD32VW553/V1_MQTT_OK/GD32VW55X_Wifi_BLE_SDK/GD32VW55x_RELEASE_V1.0.2/MSDK/rtos/FreeRTOS/Source/portable/MemMang\heap_4.c **** 
 154              		.loc 1 358 17
 155 0050 94C1     		sw	a3,0(a1)
 156 0052 3E87     		mv	a4,a5
 157              	.LVL10:
 158              	.L12:
 367:C:/Users/stapi/OneDrive/Desktop/GD32VW553/V1_MQTT_OK/GD32VW55X_Wifi_BLE_SDK/GD32VW55x_RELEASE_V1.0.2/MSDK/rtos/FreeRTOS/Source/portable/MemMang\heap_4.c **** 
 159              		.loc 1 367 2 is_stmt 1
 371:C:/Users/stapi/OneDrive/Desktop/GD32VW553/V1_MQTT_OK/GD32VW55X_Wifi_BLE_SDK/GD32VW55x_RELEASE_V1.0.2/MSDK/rtos/FreeRTOS/Source/portable/MemMang\heap_4.c **** 	xStart.xBlockSize = ( size_t ) 0;
 160              		.loc 1 371 2
 371:C:/Users/stapi/OneDrive/Desktop/GD32VW553/V1_MQTT_OK/GD32VW55X_Wifi_BLE_SDK/GD32VW55x_RELEASE_V1.0.2/MSDK/rtos/FreeRTOS/Source/portable/MemMang\heap_4.c **** 	xStart.xBlockSize = ( size_t ) 0;
 161              		.loc 1 371 25 is_stmt 0
 162 0054 B7070000 		lui	a5,%hi(.LANCHOR0)
 163 0058 93870700 		addi	a5,a5,%lo(.LANCHOR0)
 372:C:/Users/stapi/OneDrive/Desktop/GD32VW553/V1_MQTT_OK/GD32VW55X_Wifi_BLE_SDK/GD32VW55x_RELEASE_V1.0.2/MSDK/rtos/FreeRTOS/Source/portable/MemMang\heap_4.c **** 
 164              		.loc 1 372 20
 165 005c 23A20700 		sw	zero,4(a5)
 371:C:/Users/stapi/OneDrive/Desktop/GD32VW553/V1_MQTT_OK/GD32VW55X_Wifi_BLE_SDK/GD32VW55x_RELEASE_V1.0.2/MSDK/rtos/FreeRTOS/Source/portable/MemMang\heap_4.c **** 	xStart.xBlockSize = ( size_t ) 0;
 166              		.loc 1 371 25
 167 0060 98C3     		sw	a4,0(a5)
 372:C:/Users/stapi/OneDrive/Desktop/GD32VW553/V1_MQTT_OK/GD32VW55X_Wifi_BLE_SDK/GD32VW55x_RELEASE_V1.0.2/MSDK/rtos/FreeRTOS/Source/portable/MemMang\heap_4.c **** 
 168              		.loc 1 372 2 is_stmt 1
 376:C:/Users/stapi/OneDrive/Desktop/GD32VW553/V1_MQTT_OK/GD32VW55X_Wifi_BLE_SDK/GD32VW55x_RELEASE_V1.0.2/MSDK/rtos/FreeRTOS/Source/portable/MemMang\heap_4.c **** 	uxAddress -= xHeapStructSize;
 169              		.loc 1 376 2
 170              	.LVL11:
 377:C:/Users/stapi/OneDrive/Desktop/GD32VW553/V1_MQTT_OK/GD32VW55X_Wifi_BLE_SDK/GD32VW55x_RELEASE_V1.0.2/MSDK/rtos/FreeRTOS/Source/portable/MemMang\heap_4.c **** 	uxAddress &= ~( ( size_t ) portBYTE_ALIGNMENT_MASK );
 171              		.loc 1 377 2
 377:C:/Users/stapi/OneDrive/Desktop/GD32VW553/V1_MQTT_OK/GD32VW55X_Wifi_BLE_SDK/GD32VW55x_RELEASE_V1.0.2/MSDK/rtos/FreeRTOS/Source/portable/MemMang\heap_4.c **** 	uxAddress &= ~( ( size_t ) portBYTE_ALIGNMENT_MASK );
 172              		.loc 1 377 12 is_stmt 0
 173 0062 9C41     		lw	a5,0(a1)
 174 0064 E117     		addi	a5,a5,-8
 175 0066 BA97     		add	a5,a5,a4
 176              	.LVL12:
 378:C:/Users/stapi/OneDrive/Desktop/GD32VW553/V1_MQTT_OK/GD32VW55X_Wifi_BLE_SDK/GD32VW55x_RELEASE_V1.0.2/MSDK/rtos/FreeRTOS/Source/portable/MemMang\heap_4.c **** 	pxEnd = ( void * ) uxAddress;
 177              		.loc 1 378 2 is_stmt 1
 378:C:/Users/stapi/OneDrive/Desktop/GD32VW553/V1_MQTT_OK/GD32VW55X_Wifi_BLE_SDK/GD32VW55x_RELEASE_V1.0.2/MSDK/rtos/FreeRTOS/Source/portable/MemMang\heap_4.c **** 	pxEnd = ( void * ) uxAddress;
 178              		.loc 1 378 12 is_stmt 0
 179 0068 E19B     		andi	a5,a5,-8
 180              	.LVL13:
 379:C:/Users/stapi/OneDrive/Desktop/GD32VW553/V1_MQTT_OK/GD32VW55X_Wifi_BLE_SDK/GD32VW55x_RELEASE_V1.0.2/MSDK/rtos/FreeRTOS/Source/portable/MemMang\heap_4.c **** 	pxEnd->xBlockSize = 0;
 181              		.loc 1 379 2 is_stmt 1
 380:C:/Users/stapi/OneDrive/Desktop/GD32VW553/V1_MQTT_OK/GD32VW55X_Wifi_BLE_SDK/GD32VW55x_RELEASE_V1.0.2/MSDK/rtos/FreeRTOS/Source/portable/MemMang\heap_4.c **** 	pxEnd->pxNextFreeBlock = NULL;
 182              		.loc 1 380 20 is_stmt 0
 183 006a 23A20700 		sw	zero,4(a5)
 381:C:/Users/stapi/OneDrive/Desktop/GD32VW553/V1_MQTT_OK/GD32VW55X_Wifi_BLE_SDK/GD32VW55x_RELEASE_V1.0.2/MSDK/rtos/FreeRTOS/Source/portable/MemMang\heap_4.c **** 
 184              		.loc 1 381 25
 185 006e 23A00700 		sw	zero,0(a5)
 386:C:/Users/stapi/OneDrive/Desktop/GD32VW553/V1_MQTT_OK/GD32VW55X_Wifi_BLE_SDK/GD32VW55x_RELEASE_V1.0.2/MSDK/rtos/FreeRTOS/Source/portable/MemMang\heap_4.c **** 	pxFirstFreeBlock->pxNextFreeBlock = pxEnd;
 186              		.loc 1 386 43
 187 0072 B386E740 		sub	a3,a5,a4
 379:C:/Users/stapi/OneDrive/Desktop/GD32VW553/V1_MQTT_OK/GD32VW55X_Wifi_BLE_SDK/GD32VW55x_RELEASE_V1.0.2/MSDK/rtos/FreeRTOS/Source/portable/MemMang\heap_4.c **** 	pxEnd->xBlockSize = 0;
 188              		.loc 1 379 8
 189 0076 1CC2     		sw	a5,0(a2)
 380:C:/Users/stapi/OneDrive/Desktop/GD32VW553/V1_MQTT_OK/GD32VW55X_Wifi_BLE_SDK/GD32VW55x_RELEASE_V1.0.2/MSDK/rtos/FreeRTOS/Source/portable/MemMang\heap_4.c **** 	pxEnd->pxNextFreeBlock = NULL;
 190              		.loc 1 380 2 is_stmt 1
 381:C:/Users/stapi/OneDrive/Desktop/GD32VW553/V1_MQTT_OK/GD32VW55X_Wifi_BLE_SDK/GD32VW55x_RELEASE_V1.0.2/MSDK/rtos/FreeRTOS/Source/portable/MemMang\heap_4.c **** 
 191              		.loc 1 381 2
 385:C:/Users/stapi/OneDrive/Desktop/GD32VW553/V1_MQTT_OK/GD32VW55X_Wifi_BLE_SDK/GD32VW55x_RELEASE_V1.0.2/MSDK/rtos/FreeRTOS/Source/portable/MemMang\heap_4.c **** 	pxFirstFreeBlock->xBlockSize = uxAddress - ( size_t ) pxFirstFreeBlock;
 192              		.loc 1 385 2
 193              	.LVL14:
 386:C:/Users/stapi/OneDrive/Desktop/GD32VW553/V1_MQTT_OK/GD32VW55X_Wifi_BLE_SDK/GD32VW55x_RELEASE_V1.0.2/MSDK/rtos/FreeRTOS/Source/portable/MemMang\heap_4.c **** 	pxFirstFreeBlock->pxNextFreeBlock = pxEnd;
 194              		.loc 1 386 2
 387:C:/Users/stapi/OneDrive/Desktop/GD32VW553/V1_MQTT_OK/GD32VW55X_Wifi_BLE_SDK/GD32VW55x_RELEASE_V1.0.2/MSDK/rtos/FreeRTOS/Source/portable/MemMang\heap_4.c **** 
 195              		.loc 1 387 36 is_stmt 0
 196 0078 1CC3     		sw	a5,0(a4)
 390:C:/Users/stapi/OneDrive/Desktop/GD32VW553/V1_MQTT_OK/GD32VW55X_Wifi_BLE_SDK/GD32VW55x_RELEASE_V1.0.2/MSDK/rtos/FreeRTOS/Source/portable/MemMang\heap_4.c **** 	xFreeBytesRemaining = pxFirstFreeBlock->xBlockSize;
 197              		.loc 1 390 33
 198 007a B7070000 		lui	a5,%hi(.LANCHOR3)
 199              	.LVL15:
 200 007e 23A0D700 		sw	a3,%lo(.LANCHOR3)(a5)
 391:C:/Users/stapi/OneDrive/Desktop/GD32VW553/V1_MQTT_OK/GD32VW55X_Wifi_BLE_SDK/GD32VW55x_RELEASE_V1.0.2/MSDK/rtos/FreeRTOS/Source/portable/MemMang\heap_4.c **** 
 201              		.loc 1 391 22
 202 0082 B7070000 		lui	a5,%hi(.LANCHOR4)
 203 0086 23A0D700 		sw	a3,%lo(.LANCHOR4)(a5)
 394:C:/Users/stapi/OneDrive/Desktop/GD32VW553/V1_MQTT_OK/GD32VW55X_Wifi_BLE_SDK/GD32VW55x_RELEASE_V1.0.2/MSDK/rtos/FreeRTOS/Source/portable/MemMang\heap_4.c **** }
 204              		.loc 1 394 21
 205 008a B7070080 		li	a5,-2147483648
 386:C:/Users/stapi/OneDrive/Desktop/GD32VW553/V1_MQTT_OK/GD32VW55X_Wifi_BLE_SDK/GD32VW55x_RELEASE_V1.0.2/MSDK/rtos/FreeRTOS/Source/portable/MemMang\heap_4.c **** 	pxFirstFreeBlock->pxNextFreeBlock = pxEnd;
 206              		.loc 1 386 31
 207 008e 54C3     		sw	a3,4(a4)
 387:C:/Users/stapi/OneDrive/Desktop/GD32VW553/V1_MQTT_OK/GD32VW55X_Wifi_BLE_SDK/GD32VW55x_RELEASE_V1.0.2/MSDK/rtos/FreeRTOS/Source/portable/MemMang\heap_4.c **** 
 208              		.loc 1 387 2 is_stmt 1
 390:C:/Users/stapi/OneDrive/Desktop/GD32VW553/V1_MQTT_OK/GD32VW55X_Wifi_BLE_SDK/GD32VW55x_RELEASE_V1.0.2/MSDK/rtos/FreeRTOS/Source/portable/MemMang\heap_4.c **** 	xFreeBytesRemaining = pxFirstFreeBlock->xBlockSize;
 209              		.loc 1 390 2
 391:C:/Users/stapi/OneDrive/Desktop/GD32VW553/V1_MQTT_OK/GD32VW55X_Wifi_BLE_SDK/GD32VW55x_RELEASE_V1.0.2/MSDK/rtos/FreeRTOS/Source/portable/MemMang\heap_4.c **** 
 210              		.loc 1 391 2
 394:C:/Users/stapi/OneDrive/Desktop/GD32VW553/V1_MQTT_OK/GD32VW55X_Wifi_BLE_SDK/GD32VW55x_RELEASE_V1.0.2/MSDK/rtos/FreeRTOS/Source/portable/MemMang\heap_4.c **** }
 211              		.loc 1 394 2
 394:C:/Users/stapi/OneDrive/Desktop/GD32VW553/V1_MQTT_OK/GD32VW55X_Wifi_BLE_SDK/GD32VW55x_RELEASE_V1.0.2/MSDK/rtos/FreeRTOS/Source/portable/MemMang\heap_4.c **** }
 212              		.loc 1 394 21 is_stmt 0
 213 0090 1CC1     		sw	a5,0(a0)
 214              	.LVL16:
 215              	.L10:
 216              	.LBE5:
 217              	.LBE4:
 136:C:/Users/stapi/OneDrive/Desktop/GD32VW553/V1_MQTT_OK/GD32VW55X_Wifi_BLE_SDK/GD32VW55x_RELEASE_V1.0.2/MSDK/rtos/FreeRTOS/Source/portable/MemMang\heap_4.c **** 		}
 218              		.loc 1 136 28 is_stmt 1
 143:C:/Users/stapi/OneDrive/Desktop/GD32VW553/V1_MQTT_OK/GD32VW55X_Wifi_BLE_SDK/GD32VW55x_RELEASE_V1.0.2/MSDK/rtos/FreeRTOS/Source/portable/MemMang\heap_4.c **** 		{
 219              		.loc 1 143 3
 143:C:/Users/stapi/OneDrive/Desktop/GD32VW553/V1_MQTT_OK/GD32VW55X_Wifi_BLE_SDK/GD32VW55x_RELEASE_V1.0.2/MSDK/rtos/FreeRTOS/Source/portable/MemMang\heap_4.c **** 		{
 220              		.loc 1 143 21 is_stmt 0
 221 0092 83290500 		lw	s3,0(a0)
 124:C:/Users/stapi/OneDrive/Desktop/GD32VW553/V1_MQTT_OK/GD32VW55X_Wifi_BLE_SDK/GD32VW55x_RELEASE_V1.0.2/MSDK/rtos/FreeRTOS/Source/portable/MemMang\heap_4.c **** 
 222              		.loc 1 124 7
 223 0096 8144     		li	s1,0
 143:C:/Users/stapi/OneDrive/Desktop/GD32VW553/V1_MQTT_OK/GD32VW55X_Wifi_BLE_SDK/GD32VW55x_RELEASE_V1.0.2/MSDK/rtos/FreeRTOS/Source/portable/MemMang\heap_4.c **** 		{
 224              		.loc 1 143 21
 225 0098 B3F78900 		and	a5,s3,s0
 143:C:/Users/stapi/OneDrive/Desktop/GD32VW553/V1_MQTT_OK/GD32VW55X_Wifi_BLE_SDK/GD32VW55x_RELEASE_V1.0.2/MSDK/rtos/FreeRTOS/Source/portable/MemMang\heap_4.c **** 		{
 226              		.loc 1 143 5
 227 009c C1EF     		bne	a5,zero,.L13
 147:C:/Users/stapi/OneDrive/Desktop/GD32VW553/V1_MQTT_OK/GD32VW55X_Wifi_BLE_SDK/GD32VW55x_RELEASE_V1.0.2/MSDK/rtos/FreeRTOS/Source/portable/MemMang\heap_4.c **** 			{
 228              		.loc 1 147 4 is_stmt 1
 147:C:/Users/stapi/OneDrive/Desktop/GD32VW553/V1_MQTT_OK/GD32VW55X_Wifi_BLE_SDK/GD32VW55x_RELEASE_V1.0.2/MSDK/rtos/FreeRTOS/Source/portable/MemMang\heap_4.c **** 			{
 229              		.loc 1 147 6 is_stmt 0
 230 009e 59C8     		beq	s0,zero,.L13
 149:C:/Users/stapi/OneDrive/Desktop/GD32VW553/V1_MQTT_OK/GD32VW55X_Wifi_BLE_SDK/GD32VW55x_RELEASE_V1.0.2/MSDK/rtos/FreeRTOS/Source/portable/MemMang\heap_4.c **** 
 231              		.loc 1 149 5 is_stmt 1
 149:C:/Users/stapi/OneDrive/Desktop/GD32VW553/V1_MQTT_OK/GD32VW55X_Wifi_BLE_SDK/GD32VW55x_RELEASE_V1.0.2/MSDK/rtos/FreeRTOS/Source/portable/MemMang\heap_4.c **** 
 232              		.loc 1 149 17 is_stmt 0
 233 00a0 93078400 		addi	a5,s0,8
 234              	.LVL17:
 153:C:/Users/stapi/OneDrive/Desktop/GD32VW553/V1_MQTT_OK/GD32VW55X_Wifi_BLE_SDK/GD32VW55x_RELEASE_V1.0.2/MSDK/rtos/FreeRTOS/Source/portable/MemMang\heap_4.c **** 				{
 235              		.loc 1 153 5 is_stmt 1
 153:C:/Users/stapi/OneDrive/Desktop/GD32VW553/V1_MQTT_OK/GD32VW55X_Wifi_BLE_SDK/GD32VW55x_RELEASE_V1.0.2/MSDK/rtos/FreeRTOS/Source/portable/MemMang\heap_4.c **** 				{
 236              		.loc 1 153 23 is_stmt 0
 237 00a4 1D88     		andi	s0,s0,7
 153:C:/Users/stapi/OneDrive/Desktop/GD32VW553/V1_MQTT_OK/GD32VW55X_Wifi_BLE_SDK/GD32VW55x_RELEASE_V1.0.2/MSDK/rtos/FreeRTOS/Source/portable/MemMang\heap_4.c **** 				{
 238              		.loc 1 153 7
 239 00a6 19C0     		beq	s0,zero,.L14
 156:C:/Users/stapi/OneDrive/Desktop/GD32VW553/V1_MQTT_OK/GD32VW55X_Wifi_BLE_SDK/GD32VW55x_RELEASE_V1.0.2/MSDK/rtos/FreeRTOS/Source/portable/MemMang\heap_4.c **** 					configASSERT( ( xWantedSize & portBYTE_ALIGNMENT_MASK ) == 0 );
 240              		.loc 1 156 6 is_stmt 1
 156:C:/Users/stapi/OneDrive/Desktop/GD32VW553/V1_MQTT_OK/GD32VW55X_Wifi_BLE_SDK/GD32VW55x_RELEASE_V1.0.2/MSDK/rtos/FreeRTOS/Source/portable/MemMang\heap_4.c **** 					configASSERT( ( xWantedSize & portBYTE_ALIGNMENT_MASK ) == 0 );
 241              		.loc 1 156 18 is_stmt 0
 242 00a8 E19B     		andi	a5,a5,-8
 243              	.LVL18:
 244 00aa A107     		addi	a5,a5,8
 245              	.LVL19:
 157:C:/Users/stapi/OneDrive/Desktop/GD32VW553/V1_MQTT_OK/GD32VW55X_Wifi_BLE_SDK/GD32VW55x_RELEASE_V1.0.2/MSDK/rtos/FreeRTOS/Source/portable/MemMang\heap_4.c **** 				}
 246              		.loc 1 157 68 is_stmt 1
 247              	.L14:
 166:C:/Users/stapi/OneDrive/Desktop/GD32VW553/V1_MQTT_OK/GD32VW55X_Wifi_BLE_SDK/GD32VW55x_RELEASE_V1.0.2/MSDK/rtos/FreeRTOS/Source/portable/MemMang\heap_4.c **** 			}
 248              		.loc 1 166 29
 169:C:/Users/stapi/OneDrive/Desktop/GD32VW553/V1_MQTT_OK/GD32VW55X_Wifi_BLE_SDK/GD32VW55x_RELEASE_V1.0.2/MSDK/rtos/FreeRTOS/Source/portable/MemMang\heap_4.c **** 			{
 249              		.loc 1 169 4
 124:C:/Users/stapi/OneDrive/Desktop/GD32VW553/V1_MQTT_OK/GD32VW55X_Wifi_BLE_SDK/GD32VW55x_RELEASE_V1.0.2/MSDK/rtos/FreeRTOS/Source/portable/MemMang\heap_4.c **** 
 250              		.loc 1 124 7 is_stmt 0
 251 00ac 8144     		li	s1,0
 169:C:/Users/stapi/OneDrive/Desktop/GD32VW553/V1_MQTT_OK/GD32VW55X_Wifi_BLE_SDK/GD32VW55x_RELEASE_V1.0.2/MSDK/rtos/FreeRTOS/Source/portable/MemMang\heap_4.c **** 			{
 252              		.loc 1 169 6
 253 00ae D9C3     		beq	a5,zero,.L13
 169:C:/Users/stapi/OneDrive/Desktop/GD32VW553/V1_MQTT_OK/GD32VW55X_Wifi_BLE_SDK/GD32VW55x_RELEASE_V1.0.2/MSDK/rtos/FreeRTOS/Source/portable/MemMang\heap_4.c **** 			{
 254              		.loc 1 169 45 discriminator 1
 255 00b0 37070000 		lui	a4,%hi(.LANCHOR4)
 256 00b4 03290700 		lw	s2,%lo(.LANCHOR4)(a4)
 257 00b8 130A0700 		addi	s4,a4,%lo(.LANCHOR4)
 169:C:/Users/stapi/OneDrive/Desktop/GD32VW553/V1_MQTT_OK/GD32VW55X_Wifi_BLE_SDK/GD32VW55x_RELEASE_V1.0.2/MSDK/rtos/FreeRTOS/Source/portable/MemMang\heap_4.c **** 			{
 258              		.loc 1 169 28 discriminator 1
 259 00bc 636CF906 		bltu	s2,a5,.L13
 173:C:/Users/stapi/OneDrive/Desktop/GD32VW553/V1_MQTT_OK/GD32VW55X_Wifi_BLE_SDK/GD32VW55x_RELEASE_V1.0.2/MSDK/rtos/FreeRTOS/Source/portable/MemMang\heap_4.c **** 				pxBlock = xStart.pxNextFreeBlock;
 260              		.loc 1 173 5 is_stmt 1
 261              	.LVL20:
 174:C:/Users/stapi/OneDrive/Desktop/GD32VW553/V1_MQTT_OK/GD32VW55X_Wifi_BLE_SDK/GD32VW55x_RELEASE_V1.0.2/MSDK/rtos/FreeRTOS/Source/portable/MemMang\heap_4.c **** 				while( ( pxBlock->xBlockSize < xWantedSize ) && ( pxBlock->pxNextFreeBlock != NULL ) )
 262              		.loc 1 174 5
 174:C:/Users/stapi/OneDrive/Desktop/GD32VW553/V1_MQTT_OK/GD32VW55X_Wifi_BLE_SDK/GD32VW55x_RELEASE_V1.0.2/MSDK/rtos/FreeRTOS/Source/portable/MemMang\heap_4.c **** 				while( ( pxBlock->xBlockSize < xWantedSize ) && ( pxBlock->pxNextFreeBlock != NULL ) )
 263              		.loc 1 174 13 is_stmt 0
 264 00c0 37070000 		lui	a4,%hi(.LANCHOR0)
 265 00c4 03240700 		lw	s0,%lo(.LANCHOR0)(a4)
 266              	.LVL21:
 175:C:/Users/stapi/OneDrive/Desktop/GD32VW553/V1_MQTT_OK/GD32VW55X_Wifi_BLE_SDK/GD32VW55x_RELEASE_V1.0.2/MSDK/rtos/FreeRTOS/Source/portable/MemMang\heap_4.c **** 				{
 267              		.loc 1 175 5 is_stmt 1
 173:C:/Users/stapi/OneDrive/Desktop/GD32VW553/V1_MQTT_OK/GD32VW55X_Wifi_BLE_SDK/GD32VW55x_RELEASE_V1.0.2/MSDK/rtos/FreeRTOS/Source/portable/MemMang\heap_4.c **** 				pxBlock = xStart.pxNextFreeBlock;
 268              		.loc 1 173 21 is_stmt 0
 269 00c8 13070700 		addi	a4,a4,%lo(.LANCHOR0)
 270              	.LVL22:
 271              	.L16:
 175:C:/Users/stapi/OneDrive/Desktop/GD32VW553/V1_MQTT_OK/GD32VW55X_Wifi_BLE_SDK/GD32VW55x_RELEASE_V1.0.2/MSDK/rtos/FreeRTOS/Source/portable/MemMang\heap_4.c **** 				{
 272              		.loc 1 175 10 is_stmt 1
 175:C:/Users/stapi/OneDrive/Desktop/GD32VW553/V1_MQTT_OK/GD32VW55X_Wifi_BLE_SDK/GD32VW55x_RELEASE_V1.0.2/MSDK/rtos/FreeRTOS/Source/portable/MemMang\heap_4.c **** 				{
 273              		.loc 1 175 21 is_stmt 0
 274 00cc 5440     		lw	a3,4(s0)
 175:C:/Users/stapi/OneDrive/Desktop/GD32VW553/V1_MQTT_OK/GD32VW55X_Wifi_BLE_SDK/GD32VW55x_RELEASE_V1.0.2/MSDK/rtos/FreeRTOS/Source/portable/MemMang\heap_4.c **** 				{
 275              		.loc 1 175 10
 276 00ce 63F4F600 		bgeu	a3,a5,.L15
 175:C:/Users/stapi/OneDrive/Desktop/GD32VW553/V1_MQTT_OK/GD32VW55X_Wifi_BLE_SDK/GD32VW55x_RELEASE_V1.0.2/MSDK/rtos/FreeRTOS/Source/portable/MemMang\heap_4.c **** 				{
 277              		.loc 1 175 62 discriminator 1
 278 00d2 0C40     		lw	a1,0(s0)
 175:C:/Users/stapi/OneDrive/Desktop/GD32VW553/V1_MQTT_OK/GD32VW55X_Wifi_BLE_SDK/GD32VW55x_RELEASE_V1.0.2/MSDK/rtos/FreeRTOS/Source/portable/MemMang\heap_4.c **** 				{
 279              		.loc 1 175 50 discriminator 1
 280 00d4 C1E1     		bne	a1,zero,.L23
 281              	.L15:
 183:C:/Users/stapi/OneDrive/Desktop/GD32VW553/V1_MQTT_OK/GD32VW55X_Wifi_BLE_SDK/GD32VW55x_RELEASE_V1.0.2/MSDK/rtos/FreeRTOS/Source/portable/MemMang\heap_4.c **** 				{
 282              		.loc 1 183 5 is_stmt 1
 183:C:/Users/stapi/OneDrive/Desktop/GD32VW553/V1_MQTT_OK/GD32VW55X_Wifi_BLE_SDK/GD32VW55x_RELEASE_V1.0.2/MSDK/rtos/FreeRTOS/Source/portable/MemMang\heap_4.c **** 				{
 283              		.loc 1 183 7 is_stmt 0
 284 00d6 1042     		lw	a2,0(a2)
 124:C:/Users/stapi/OneDrive/Desktop/GD32VW553/V1_MQTT_OK/GD32VW55X_Wifi_BLE_SDK/GD32VW55x_RELEASE_V1.0.2/MSDK/rtos/FreeRTOS/Source/portable/MemMang\heap_4.c **** 
 285              		.loc 1 124 7
 286 00d8 8144     		li	s1,0
 183:C:/Users/stapi/OneDrive/Desktop/GD32VW553/V1_MQTT_OK/GD32VW55X_Wifi_BLE_SDK/GD32VW55x_RELEASE_V1.0.2/MSDK/rtos/FreeRTOS/Source/portable/MemMang\heap_4.c **** 				{
 287              		.loc 1 183 7
 288 00da 630D8604 		beq	a2,s0,.L13
 187:C:/Users/stapi/OneDrive/Desktop/GD32VW553/V1_MQTT_OK/GD32VW55X_Wifi_BLE_SDK/GD32VW55x_RELEASE_V1.0.2/MSDK/rtos/FreeRTOS/Source/portable/MemMang\heap_4.c **** 
 289              		.loc 1 187 6 is_stmt 1
 191:C:/Users/stapi/OneDrive/Desktop/GD32VW553/V1_MQTT_OK/GD32VW55X_Wifi_BLE_SDK/GD32VW55x_RELEASE_V1.0.2/MSDK/rtos/FreeRTOS/Source/portable/MemMang\heap_4.c **** 
 290              		.loc 1 191 48 is_stmt 0
 291 00de 1040     		lw	a2,0(s0)
 187:C:/Users/stapi/OneDrive/Desktop/GD32VW553/V1_MQTT_OK/GD32VW55X_Wifi_BLE_SDK/GD32VW55x_RELEASE_V1.0.2/MSDK/rtos/FreeRTOS/Source/portable/MemMang\heap_4.c **** 
 292              		.loc 1 187 15
 293 00e0 0443     		lw	s1,0(a4)
 191:C:/Users/stapi/OneDrive/Desktop/GD32VW553/V1_MQTT_OK/GD32VW55X_Wifi_BLE_SDK/GD32VW55x_RELEASE_V1.0.2/MSDK/rtos/FreeRTOS/Source/portable/MemMang\heap_4.c **** 
 294              		.loc 1 191 39
 295 00e2 10C3     		sw	a2,0(a4)
 195:C:/Users/stapi/OneDrive/Desktop/GD32VW553/V1_MQTT_OK/GD32VW55X_Wifi_BLE_SDK/GD32VW55x_RELEASE_V1.0.2/MSDK/rtos/FreeRTOS/Source/portable/MemMang\heap_4.c **** 					{
 296              		.loc 1 195 32
 297 00e4 3387F640 		sub	a4,a3,a5
 298              	.LVL23:
 195:C:/Users/stapi/OneDrive/Desktop/GD32VW553/V1_MQTT_OK/GD32VW55X_Wifi_BLE_SDK/GD32VW55x_RELEASE_V1.0.2/MSDK/rtos/FreeRTOS/Source/portable/MemMang\heap_4.c **** 					{
 299              		.loc 1 195 8
 300 00e8 C146     		li	a3,16
 187:C:/Users/stapi/OneDrive/Desktop/GD32VW553/V1_MQTT_OK/GD32VW55X_Wifi_BLE_SDK/GD32VW55x_RELEASE_V1.0.2/MSDK/rtos/FreeRTOS/Source/portable/MemMang\heap_4.c **** 
 301              		.loc 1 187 15
 302 00ea A104     		addi	s1,s1,8
 303              	.LVL24:
 191:C:/Users/stapi/OneDrive/Desktop/GD32VW553/V1_MQTT_OK/GD32VW55X_Wifi_BLE_SDK/GD32VW55x_RELEASE_V1.0.2/MSDK/rtos/FreeRTOS/Source/portable/MemMang\heap_4.c **** 
 304              		.loc 1 191 6 is_stmt 1
 195:C:/Users/stapi/OneDrive/Desktop/GD32VW553/V1_MQTT_OK/GD32VW55X_Wifi_BLE_SDK/GD32VW55x_RELEASE_V1.0.2/MSDK/rtos/FreeRTOS/Source/portable/MemMang\heap_4.c **** 					{
 305              		.loc 1 195 6
 195:C:/Users/stapi/OneDrive/Desktop/GD32VW553/V1_MQTT_OK/GD32VW55X_Wifi_BLE_SDK/GD32VW55x_RELEASE_V1.0.2/MSDK/rtos/FreeRTOS/Source/portable/MemMang\heap_4.c **** 					{
 306              		.loc 1 195 8 is_stmt 0
 307 00ec 63FAE600 		bleu	a4,a3,.L17
 201:C:/Users/stapi/OneDrive/Desktop/GD32VW553/V1_MQTT_OK/GD32VW55X_Wifi_BLE_SDK/GD32VW55x_RELEASE_V1.0.2/MSDK/rtos/FreeRTOS/Source/portable/MemMang\heap_4.c **** 						configASSERT( ( ( ( size_t ) pxNewBlockLink ) & portBYTE_ALIGNMENT_MASK ) == 0 );
 308              		.loc 1 201 7 is_stmt 1
 201:C:/Users/stapi/OneDrive/Desktop/GD32VW553/V1_MQTT_OK/GD32VW55X_Wifi_BLE_SDK/GD32VW55x_RELEASE_V1.0.2/MSDK/rtos/FreeRTOS/Source/portable/MemMang\heap_4.c **** 						configASSERT( ( ( ( size_t ) pxNewBlockLink ) & portBYTE_ALIGNMENT_MASK ) == 0 );
 309              		.loc 1 201 22 is_stmt 0
 310 00f0 3305F400 		add	a0,s0,a5
 311              	.LVL25:
 202:C:/Users/stapi/OneDrive/Desktop/GD32VW553/V1_MQTT_OK/GD32VW55X_Wifi_BLE_SDK/GD32VW55x_RELEASE_V1.0.2/MSDK/rtos/FreeRTOS/Source/portable/MemMang\heap_4.c **** 
 312              		.loc 1 202 87 is_stmt 1
 206:C:/Users/stapi/OneDrive/Desktop/GD32VW553/V1_MQTT_OK/GD32VW55X_Wifi_BLE_SDK/GD32VW55x_RELEASE_V1.0.2/MSDK/rtos/FreeRTOS/Source/portable/MemMang\heap_4.c **** 						pxBlock->xBlockSize = xWantedSize;
 313              		.loc 1 206 7
 206:C:/Users/stapi/OneDrive/Desktop/GD32VW553/V1_MQTT_OK/GD32VW55X_Wifi_BLE_SDK/GD32VW55x_RELEASE_V1.0.2/MSDK/rtos/FreeRTOS/Source/portable/MemMang\heap_4.c **** 						pxBlock->xBlockSize = xWantedSize;
 314              		.loc 1 206 34 is_stmt 0
 315 00f4 58C1     		sw	a4,4(a0)
 207:C:/Users/stapi/OneDrive/Desktop/GD32VW553/V1_MQTT_OK/GD32VW55X_Wifi_BLE_SDK/GD32VW55x_RELEASE_V1.0.2/MSDK/rtos/FreeRTOS/Source/portable/MemMang\heap_4.c **** 
 316              		.loc 1 207 7 is_stmt 1
 207:C:/Users/stapi/OneDrive/Desktop/GD32VW553/V1_MQTT_OK/GD32VW55X_Wifi_BLE_SDK/GD32VW55x_RELEASE_V1.0.2/MSDK/rtos/FreeRTOS/Source/portable/MemMang\heap_4.c **** 
 317              		.loc 1 207 27 is_stmt 0
 318 00f6 5CC0     		sw	a5,4(s0)
 210:C:/Users/stapi/OneDrive/Desktop/GD32VW553/V1_MQTT_OK/GD32VW55X_Wifi_BLE_SDK/GD32VW55x_RELEASE_V1.0.2/MSDK/rtos/FreeRTOS/Source/portable/MemMang\heap_4.c **** 					}
 319              		.loc 1 210 7 is_stmt 1
 320 00f8 97000000 		call	prvInsertBlockIntoFreeList
 320      E7800000 
 321              	.LVL26:
 322              	.L17:
 214:C:/Users/stapi/OneDrive/Desktop/GD32VW553/V1_MQTT_OK/GD32VW55X_Wifi_BLE_SDK/GD32VW55x_RELEASE_V1.0.2/MSDK/rtos/FreeRTOS/Source/portable/MemMang\heap_4.c **** 					}
 323              		.loc 1 214 31
 217:C:/Users/stapi/OneDrive/Desktop/GD32VW553/V1_MQTT_OK/GD32VW55X_Wifi_BLE_SDK/GD32VW55x_RELEASE_V1.0.2/MSDK/rtos/FreeRTOS/Source/portable/MemMang\heap_4.c **** 
 324              		.loc 1 217 6
 217:C:/Users/stapi/OneDrive/Desktop/GD32VW553/V1_MQTT_OK/GD32VW55X_Wifi_BLE_SDK/GD32VW55x_RELEASE_V1.0.2/MSDK/rtos/FreeRTOS/Source/portable/MemMang\heap_4.c **** 
 325              		.loc 1 217 36 is_stmt 0
 326 0100 5440     		lw	a3,4(s0)
 219:C:/Users/stapi/OneDrive/Desktop/GD32VW553/V1_MQTT_OK/GD32VW55X_Wifi_BLE_SDK/GD32VW55x_RELEASE_V1.0.2/MSDK/rtos/FreeRTOS/Source/portable/MemMang\heap_4.c **** 					{
 327              		.loc 1 219 30
 328 0102 37070000 		lui	a4,%hi(.LANCHOR3)
 329 0106 13070700 		addi	a4,a4,%lo(.LANCHOR3)
 219:C:/Users/stapi/OneDrive/Desktop/GD32VW553/V1_MQTT_OK/GD32VW55X_Wifi_BLE_SDK/GD32VW55x_RELEASE_V1.0.2/MSDK/rtos/FreeRTOS/Source/portable/MemMang\heap_4.c **** 					{
 330              		.loc 1 219 8
 331 010a 1043     		lw	a2,0(a4)
 217:C:/Users/stapi/OneDrive/Desktop/GD32VW553/V1_MQTT_OK/GD32VW55X_Wifi_BLE_SDK/GD32VW55x_RELEASE_V1.0.2/MSDK/rtos/FreeRTOS/Source/portable/MemMang\heap_4.c **** 
 332              		.loc 1 217 26
 333 010c B307D940 		sub	a5,s2,a3
 334 0110 2320FA00 		sw	a5,0(s4)
 219:C:/Users/stapi/OneDrive/Desktop/GD32VW553/V1_MQTT_OK/GD32VW55X_Wifi_BLE_SDK/GD32VW55x_RELEASE_V1.0.2/MSDK/rtos/FreeRTOS/Source/portable/MemMang\heap_4.c **** 					{
 335              		.loc 1 219 6 is_stmt 1
 219:C:/Users/stapi/OneDrive/Desktop/GD32VW553/V1_MQTT_OK/GD32VW55X_Wifi_BLE_SDK/GD32VW55x_RELEASE_V1.0.2/MSDK/rtos/FreeRTOS/Source/portable/MemMang\heap_4.c **** 					{
 336              		.loc 1 219 8 is_stmt 0
 337 0114 63F3C700 		bgeu	a5,a2,.L18
 221:C:/Users/stapi/OneDrive/Desktop/GD32VW553/V1_MQTT_OK/GD32VW55X_Wifi_BLE_SDK/GD32VW55x_RELEASE_V1.0.2/MSDK/rtos/FreeRTOS/Source/portable/MemMang\heap_4.c **** 					}
 338              		.loc 1 221 7 is_stmt 1
 221:C:/Users/stapi/OneDrive/Desktop/GD32VW553/V1_MQTT_OK/GD32VW55X_Wifi_BLE_SDK/GD32VW55x_RELEASE_V1.0.2/MSDK/rtos/FreeRTOS/Source/portable/MemMang\heap_4.c **** 					}
 339              		.loc 1 221 38 is_stmt 0
 340 0118 1CC3     		sw	a5,0(a4)
 341              	.L18:
 225:C:/Users/stapi/OneDrive/Desktop/GD32VW553/V1_MQTT_OK/GD32VW55X_Wifi_BLE_SDK/GD32VW55x_RELEASE_V1.0.2/MSDK/rtos/FreeRTOS/Source/portable/MemMang\heap_4.c **** 					}
 342              		.loc 1 225 31 is_stmt 1
 230:C:/Users/stapi/OneDrive/Desktop/GD32VW553/V1_MQTT_OK/GD32VW55X_Wifi_BLE_SDK/GD32VW55x_RELEASE_V1.0.2/MSDK/rtos/FreeRTOS/Source/portable/MemMang\heap_4.c **** 					pxBlock->pxNextFreeBlock = NULL;
 343              		.loc 1 230 6
 232:C:/Users/stapi/OneDrive/Desktop/GD32VW553/V1_MQTT_OK/GD32VW55X_Wifi_BLE_SDK/GD32VW55x_RELEASE_V1.0.2/MSDK/rtos/FreeRTOS/Source/portable/MemMang\heap_4.c **** 				}
 344              		.loc 1 232 36 is_stmt 0
 345 011a B7070000 		lui	a5,%hi(.LANCHOR6)
 346 011e 93870700 		addi	a5,a5,%lo(.LANCHOR6)
 347 0122 9843     		lw	a4,0(a5)
 230:C:/Users/stapi/OneDrive/Desktop/GD32VW553/V1_MQTT_OK/GD32VW55X_Wifi_BLE_SDK/GD32VW55x_RELEASE_V1.0.2/MSDK/rtos/FreeRTOS/Source/portable/MemMang\heap_4.c **** 					pxBlock->pxNextFreeBlock = NULL;
 348              		.loc 1 230 26
 349 0124 B3E9D900 		or	s3,s3,a3
 350 0128 23223401 		sw	s3,4(s0)
 231:C:/Users/stapi/OneDrive/Desktop/GD32VW553/V1_MQTT_OK/GD32VW55X_Wifi_BLE_SDK/GD32VW55x_RELEASE_V1.0.2/MSDK/rtos/FreeRTOS/Source/portable/MemMang\heap_4.c **** 					xNumberOfSuccessfulAllocations++;
 351              		.loc 1 231 6 is_stmt 1
 232:C:/Users/stapi/OneDrive/Desktop/GD32VW553/V1_MQTT_OK/GD32VW55X_Wifi_BLE_SDK/GD32VW55x_RELEASE_V1.0.2/MSDK/rtos/FreeRTOS/Source/portable/MemMang\heap_4.c **** 				}
 352              		.loc 1 232 36 is_stmt 0
 353 012c 0507     		addi	a4,a4,1
 231:C:/Users/stapi/OneDrive/Desktop/GD32VW553/V1_MQTT_OK/GD32VW55X_Wifi_BLE_SDK/GD32VW55x_RELEASE_V1.0.2/MSDK/rtos/FreeRTOS/Source/portable/MemMang\heap_4.c **** 					xNumberOfSuccessfulAllocations++;
 354              		.loc 1 231 31
 355 012e 23200400 		sw	zero,0(s0)
 232:C:/Users/stapi/OneDrive/Desktop/GD32VW553/V1_MQTT_OK/GD32VW55X_Wifi_BLE_SDK/GD32VW55x_RELEASE_V1.0.2/MSDK/rtos/FreeRTOS/Source/portable/MemMang\heap_4.c **** 				}
 356              		.loc 1 232 6 is_stmt 1
 232:C:/Users/stapi/OneDrive/Desktop/GD32VW553/V1_MQTT_OK/GD32VW55X_Wifi_BLE_SDK/GD32VW55x_RELEASE_V1.0.2/MSDK/rtos/FreeRTOS/Source/portable/MemMang\heap_4.c **** 				}
 357              		.loc 1 232 36 is_stmt 0
 358 0132 98C3     		sw	a4,0(a5)
 359              	.LVL27:
 360              	.L13:
 246:C:/Users/stapi/OneDrive/Desktop/GD32VW553/V1_MQTT_OK/GD32VW55X_Wifi_BLE_SDK/GD32VW55x_RELEASE_V1.0.2/MSDK/rtos/FreeRTOS/Source/portable/MemMang\heap_4.c **** 		}
 361              		.loc 1 246 28 is_stmt 1
 249:C:/Users/stapi/OneDrive/Desktop/GD32VW553/V1_MQTT_OK/GD32VW55X_Wifi_BLE_SDK/GD32VW55x_RELEASE_V1.0.2/MSDK/rtos/FreeRTOS/Source/portable/MemMang\heap_4.c **** 	}
 362              		.loc 1 249 39
 251:C:/Users/stapi/OneDrive/Desktop/GD32VW553/V1_MQTT_OK/GD32VW55X_Wifi_BLE_SDK/GD32VW55x_RELEASE_V1.0.2/MSDK/rtos/FreeRTOS/Source/portable/MemMang\heap_4.c **** 
 363              		.loc 1 251 2
 251:C:/Users/stapi/OneDrive/Desktop/GD32VW553/V1_MQTT_OK/GD32VW55X_Wifi_BLE_SDK/GD32VW55x_RELEASE_V1.0.2/MSDK/rtos/FreeRTOS/Source/portable/MemMang\heap_4.c **** 
 364              		.loc 1 251 11 is_stmt 0
 365 0134 97000000 		call	xTaskResumeAll
 365      E7800000 
 366              	.LVL28:
 267:C:/Users/stapi/OneDrive/Desktop/GD32VW553/V1_MQTT_OK/GD32VW55X_Wifi_BLE_SDK/GD32VW55x_RELEASE_V1.0.2/MSDK/rtos/FreeRTOS/Source/portable/MemMang\heap_4.c **** 	return pvReturn;
 367              		.loc 1 267 87 is_stmt 1
 268:C:/Users/stapi/OneDrive/Desktop/GD32VW553/V1_MQTT_OK/GD32VW55X_Wifi_BLE_SDK/GD32VW55x_RELEASE_V1.0.2/MSDK/rtos/FreeRTOS/Source/portable/MemMang\heap_4.c **** }
 368              		.loc 1 268 2
 269:C:/Users/stapi/OneDrive/Desktop/GD32VW553/V1_MQTT_OK/GD32VW55X_Wifi_BLE_SDK/GD32VW55x_RELEASE_V1.0.2/MSDK/rtos/FreeRTOS/Source/portable/MemMang\heap_4.c **** /*-----------------------------------------------------------*/
 369              		.loc 1 269 1 is_stmt 0
 370 013c 2685     		mv	a0,s1
 371 013e 17030000 		tail	__riscv_restore_5
 371      67000300 
 372              		.cfi_remember_state
 373              		.cfi_restore 20
 374              		.cfi_restore 19
 375              		.cfi_restore 18
 376              		.cfi_restore 9
 377              		.cfi_restore 8
 378              		.cfi_restore 1
 379              		.cfi_def_cfa_offset 0
 380              	.LVL29:
 381              	.L11:
 382              		.cfi_restore_state
 383              	.LBB7:
 384              	.LBB6:
 362:C:/Users/stapi/OneDrive/Desktop/GD32VW553/V1_MQTT_OK/GD32VW55X_Wifi_BLE_SDK/GD32VW55x_RELEASE_V1.0.2/MSDK/rtos/FreeRTOS/Source/portable/MemMang\heap_4.c **** 		uxAddress &= ~( ( size_t ) portBYTE_ALIGNMENT_MASK );
 385              		.loc 1 362 3 is_stmt 1
 362:C:/Users/stapi/OneDrive/Desktop/GD32VW553/V1_MQTT_OK/GD32VW55X_Wifi_BLE_SDK/GD32VW55x_RELEASE_V1.0.2/MSDK/rtos/FreeRTOS/Source/portable/MemMang\heap_4.c **** 		uxAddress &= ~( ( size_t ) portBYTE_ALIGNMENT_MASK );
 386              		.loc 1 362 13 is_stmt 0
 387 0146 13877700 		addi	a4,a5,7
 388              	.LVL30:
 363:C:/Users/stapi/OneDrive/Desktop/GD32VW553/V1_MQTT_OK/GD32VW55X_Wifi_BLE_SDK/GD32VW55x_RELEASE_V1.0.2/MSDK/rtos/FreeRTOS/Source/portable/MemMang\heap_4.c **** 		xTotalHeapSize -= uxAddress - ( size_t ) ucHeap;
 389              		.loc 1 363 3 is_stmt 1
 363:C:/Users/stapi/OneDrive/Desktop/GD32VW553/V1_MQTT_OK/GD32VW55X_Wifi_BLE_SDK/GD32VW55x_RELEASE_V1.0.2/MSDK/rtos/FreeRTOS/Source/portable/MemMang\heap_4.c **** 		xTotalHeapSize -= uxAddress - ( size_t ) ucHeap;
 390              		.loc 1 363 13 is_stmt 0
 391 014a 619B     		andi	a4,a4,-8
 392              	.LVL31:
 364:C:/Users/stapi/OneDrive/Desktop/GD32VW553/V1_MQTT_OK/GD32VW55X_Wifi_BLE_SDK/GD32VW55x_RELEASE_V1.0.2/MSDK/rtos/FreeRTOS/Source/portable/MemMang\heap_4.c **** 	}
 393              		.loc 1 364 3 is_stmt 1
 364:C:/Users/stapi/OneDrive/Desktop/GD32VW553/V1_MQTT_OK/GD32VW55X_Wifi_BLE_SDK/GD32VW55x_RELEASE_V1.0.2/MSDK/rtos/FreeRTOS/Source/portable/MemMang\heap_4.c **** 	}
 394              		.loc 1 364 18 is_stmt 0
 395 014c B697     		add	a5,a5,a3
 396 014e 998F     		sub	a5,a5,a4
 397 0150 9CC1     		sw	a5,0(a1)
 398 0152 09B7     		j	.L12
 399              	.LVL32:
 400              	.L23:
 401              	.LBE6:
 402              	.LBE7:
 403 0154 2287     		mv	a4,s0
 404              	.LVL33:
 405 0156 2E84     		mv	s0,a1
 406              	.LVL34:
 407 0158 95BF     		j	.L16
 408              		.cfi_endproc
 409              	.LFE4:
 411              		.section	.text.vPortFree,"ax",@progbits
 412              		.align	1
 413              		.globl	vPortFree
 415              	vPortFree:
 416              	.LFB5:
 273:C:/Users/stapi/OneDrive/Desktop/GD32VW553/V1_MQTT_OK/GD32VW55X_Wifi_BLE_SDK/GD32VW55x_RELEASE_V1.0.2/MSDK/rtos/FreeRTOS/Source/portable/MemMang\heap_4.c **** uint8_t *puc = ( uint8_t * ) pv;
 417              		.loc 1 273 1 is_stmt 1
 418              		.cfi_startproc
 419              	.LVL35:
 274:C:/Users/stapi/OneDrive/Desktop/GD32VW553/V1_MQTT_OK/GD32VW55X_Wifi_BLE_SDK/GD32VW55x_RELEASE_V1.0.2/MSDK/rtos/FreeRTOS/Source/portable/MemMang\heap_4.c **** BlockLink_t *pxLink;
 420              		.loc 1 274 1
 275:C:/Users/stapi/OneDrive/Desktop/GD32VW553/V1_MQTT_OK/GD32VW55X_Wifi_BLE_SDK/GD32VW55x_RELEASE_V1.0.2/MSDK/rtos/FreeRTOS/Source/portable/MemMang\heap_4.c **** 
 421              		.loc 1 275 1
 277:C:/Users/stapi/OneDrive/Desktop/GD32VW553/V1_MQTT_OK/GD32VW55X_Wifi_BLE_SDK/GD32VW55x_RELEASE_V1.0.2/MSDK/rtos/FreeRTOS/Source/portable/MemMang\heap_4.c **** 	{
 422              		.loc 1 277 2
 277:C:/Users/stapi/OneDrive/Desktop/GD32VW553/V1_MQTT_OK/GD32VW55X_Wifi_BLE_SDK/GD32VW55x_RELEASE_V1.0.2/MSDK/rtos/FreeRTOS/Source/portable/MemMang\heap_4.c **** 	{
 423              		.loc 1 277 4 is_stmt 0
 424 0000 25C9     		beq	a0,zero,.L39
 273:C:/Users/stapi/OneDrive/Desktop/GD32VW553/V1_MQTT_OK/GD32VW55X_Wifi_BLE_SDK/GD32VW55x_RELEASE_V1.0.2/MSDK/rtos/FreeRTOS/Source/portable/MemMang\heap_4.c **** uint8_t *puc = ( uint8_t * ) pv;
 425              		.loc 1 273 1
 426 0002 17030000 		call	t0,__riscv_save_1
 426      E7020300 
 427              		.cfi_offset 8, -8
 428              		.cfi_offset 1, -4
 429              		.cfi_def_cfa_offset 16
 290:C:/Users/stapi/OneDrive/Desktop/GD32VW553/V1_MQTT_OK/GD32VW55X_Wifi_BLE_SDK/GD32VW55x_RELEASE_V1.0.2/MSDK/rtos/FreeRTOS/Source/portable/MemMang\heap_4.c **** 		{
 430              		.loc 1 290 28
 431 000a B7070000 		lui	a5,%hi(.LANCHOR5)
 290:C:/Users/stapi/OneDrive/Desktop/GD32VW553/V1_MQTT_OK/GD32VW55X_Wifi_BLE_SDK/GD32VW55x_RELEASE_V1.0.2/MSDK/rtos/FreeRTOS/Source/portable/MemMang\heap_4.c **** 		{
 432              		.loc 1 290 15
 433 000e 0327C5FF 		lw	a4,-4(a0)
 290:C:/Users/stapi/OneDrive/Desktop/GD32VW553/V1_MQTT_OK/GD32VW55X_Wifi_BLE_SDK/GD32VW55x_RELEASE_V1.0.2/MSDK/rtos/FreeRTOS/Source/portable/MemMang\heap_4.c **** 		{
 434              		.loc 1 290 28
 435 0012 83A70700 		lw	a5,%lo(.LANCHOR5)(a5)
 436 0016 2A84     		mv	s0,a0
 281:C:/Users/stapi/OneDrive/Desktop/GD32VW553/V1_MQTT_OK/GD32VW55X_Wifi_BLE_SDK/GD32VW55x_RELEASE_V1.0.2/MSDK/rtos/FreeRTOS/Source/portable/MemMang\heap_4.c **** 
 437              		.loc 1 281 3 is_stmt 1
 438              	.LVL36:
 284:C:/Users/stapi/OneDrive/Desktop/GD32VW553/V1_MQTT_OK/GD32VW55X_Wifi_BLE_SDK/GD32VW55x_RELEASE_V1.0.2/MSDK/rtos/FreeRTOS/Source/portable/MemMang\heap_4.c **** 
 439              		.loc 1 284 3
 287:C:/Users/stapi/OneDrive/Desktop/GD32VW553/V1_MQTT_OK/GD32VW55X_Wifi_BLE_SDK/GD32VW55x_RELEASE_V1.0.2/MSDK/rtos/FreeRTOS/Source/portable/MemMang\heap_4.c **** 		configASSERT( pxLink->pxNextFreeBlock == NULL );
 440              		.loc 1 287 67
 288:C:/Users/stapi/OneDrive/Desktop/GD32VW553/V1_MQTT_OK/GD32VW55X_Wifi_BLE_SDK/GD32VW55x_RELEASE_V1.0.2/MSDK/rtos/FreeRTOS/Source/portable/MemMang\heap_4.c **** 
 441              		.loc 1 288 50
 290:C:/Users/stapi/OneDrive/Desktop/GD32VW553/V1_MQTT_OK/GD32VW55X_Wifi_BLE_SDK/GD32VW55x_RELEASE_V1.0.2/MSDK/rtos/FreeRTOS/Source/portable/MemMang\heap_4.c **** 		{
 442              		.loc 1 290 3
 290:C:/Users/stapi/OneDrive/Desktop/GD32VW553/V1_MQTT_OK/GD32VW55X_Wifi_BLE_SDK/GD32VW55x_RELEASE_V1.0.2/MSDK/rtos/FreeRTOS/Source/portable/MemMang\heap_4.c **** 		{
 443              		.loc 1 290 28 is_stmt 0
 444 0018 B376F700 		and	a3,a4,a5
 290:C:/Users/stapi/OneDrive/Desktop/GD32VW553/V1_MQTT_OK/GD32VW55X_Wifi_BLE_SDK/GD32VW55x_RELEASE_V1.0.2/MSDK/rtos/FreeRTOS/Source/portable/MemMang\heap_4.c **** 		{
 445              		.loc 1 290 5
 446 001c B1C6     		beq	a3,zero,.L30
 292:C:/Users/stapi/OneDrive/Desktop/GD32VW553/V1_MQTT_OK/GD32VW55X_Wifi_BLE_SDK/GD32VW55x_RELEASE_V1.0.2/MSDK/rtos/FreeRTOS/Source/portable/MemMang\heap_4.c **** 			{
 447              		.loc 1 292 4 is_stmt 1
 292:C:/Users/stapi/OneDrive/Desktop/GD32VW553/V1_MQTT_OK/GD32VW55X_Wifi_BLE_SDK/GD32VW55x_RELEASE_V1.0.2/MSDK/rtos/FreeRTOS/Source/portable/MemMang\heap_4.c **** 			{
 448              		.loc 1 292 6 is_stmt 0
 449 001e 832685FF 		lw	a3,-8(a0)
 450 0022 B9E2     		bne	a3,zero,.L30
 296:C:/Users/stapi/OneDrive/Desktop/GD32VW553/V1_MQTT_OK/GD32VW55X_Wifi_BLE_SDK/GD32VW55x_RELEASE_V1.0.2/MSDK/rtos/FreeRTOS/Source/portable/MemMang\heap_4.c **** 
 451              		.loc 1 296 5 is_stmt 1
 296:C:/Users/stapi/OneDrive/Desktop/GD32VW553/V1_MQTT_OK/GD32VW55X_Wifi_BLE_SDK/GD32VW55x_RELEASE_V1.0.2/MSDK/rtos/FreeRTOS/Source/portable/MemMang\heap_4.c **** 
 452              		.loc 1 296 24 is_stmt 0
 453 0024 B377F740 		andn	a5,a4,a5
 454 0028 232EF5FE 		sw	a5,-4(a0)
 298:C:/Users/stapi/OneDrive/Desktop/GD32VW553/V1_MQTT_OK/GD32VW55X_Wifi_BLE_SDK/GD32VW55x_RELEASE_V1.0.2/MSDK/rtos/FreeRTOS/Source/portable/MemMang\heap_4.c **** 				{
 455              		.loc 1 298 5 is_stmt 1
 456 002c 97000000 		call	vTaskSuspendAll
 456      E7800000 
 457              	.LVL37:
 301:C:/Users/stapi/OneDrive/Desktop/GD32VW553/V1_MQTT_OK/GD32VW55X_Wifi_BLE_SDK/GD32VW55x_RELEASE_V1.0.2/MSDK/rtos/FreeRTOS/Source/portable/MemMang\heap_4.c **** 					traceFREE( pv, pxLink->xBlockSize );
 458              		.loc 1 301 6
 301:C:/Users/stapi/OneDrive/Desktop/GD32VW553/V1_MQTT_OK/GD32VW55X_Wifi_BLE_SDK/GD32VW55x_RELEASE_V1.0.2/MSDK/rtos/FreeRTOS/Source/portable/MemMang\heap_4.c **** 					traceFREE( pv, pxLink->xBlockSize );
 459              		.loc 1 301 26 is_stmt 0
 460 0034 B7070000 		lui	a5,%hi(.LANCHOR4)
 461 0038 93870700 		addi	a5,a5,%lo(.LANCHOR4)
 462 003c 9443     		lw	a3,0(a5)
 463 003e 0327C4FF 		lw	a4,-4(s0)
 303:C:/Users/stapi/OneDrive/Desktop/GD32VW553/V1_MQTT_OK/GD32VW55X_Wifi_BLE_SDK/GD32VW55x_RELEASE_V1.0.2/MSDK/rtos/FreeRTOS/Source/portable/MemMang\heap_4.c **** 					xNumberOfSuccessfulFrees++;
 464              		.loc 1 303 6
 465 0042 130584FF 		addi	a0,s0,-8
 466              	.LVL38:
 301:C:/Users/stapi/OneDrive/Desktop/GD32VW553/V1_MQTT_OK/GD32VW55X_Wifi_BLE_SDK/GD32VW55x_RELEASE_V1.0.2/MSDK/rtos/FreeRTOS/Source/portable/MemMang\heap_4.c **** 					traceFREE( pv, pxLink->xBlockSize );
 467              		.loc 1 301 26
 468 0046 3697     		add	a4,a4,a3
 469 0048 98C3     		sw	a4,0(a5)
 302:C:/Users/stapi/OneDrive/Desktop/GD32VW553/V1_MQTT_OK/GD32VW55X_Wifi_BLE_SDK/GD32VW55x_RELEASE_V1.0.2/MSDK/rtos/FreeRTOS/Source/portable/MemMang\heap_4.c **** 					prvInsertBlockIntoFreeList( ( ( BlockLink_t * ) pxLink ) );
 470              		.loc 1 302 41 is_stmt 1
 303:C:/Users/stapi/OneDrive/Desktop/GD32VW553/V1_MQTT_OK/GD32VW55X_Wifi_BLE_SDK/GD32VW55x_RELEASE_V1.0.2/MSDK/rtos/FreeRTOS/Source/portable/MemMang\heap_4.c **** 					xNumberOfSuccessfulFrees++;
 471              		.loc 1 303 6
 472 004a 97000000 		call	prvInsertBlockIntoFreeList
 472      E7800000 
 473              	.LVL39:
 304:C:/Users/stapi/OneDrive/Desktop/GD32VW553/V1_MQTT_OK/GD32VW55X_Wifi_BLE_SDK/GD32VW55x_RELEASE_V1.0.2/MSDK/rtos/FreeRTOS/Source/portable/MemMang\heap_4.c **** 				}
 474              		.loc 1 304 6
 304:C:/Users/stapi/OneDrive/Desktop/GD32VW553/V1_MQTT_OK/GD32VW55X_Wifi_BLE_SDK/GD32VW55x_RELEASE_V1.0.2/MSDK/rtos/FreeRTOS/Source/portable/MemMang\heap_4.c **** 				}
 475              		.loc 1 304 30 is_stmt 0
 476 0052 B7070000 		lui	a5,%hi(.LANCHOR7)
 477 0056 93870700 		addi	a5,a5,%lo(.LANCHOR7)
 478 005a 9843     		lw	a4,0(a5)
 479 005c 0507     		addi	a4,a4,1
 480 005e 98C3     		sw	a4,0(a5)
 306:C:/Users/stapi/OneDrive/Desktop/GD32VW553/V1_MQTT_OK/GD32VW55X_Wifi_BLE_SDK/GD32VW55x_RELEASE_V1.0.2/MSDK/rtos/FreeRTOS/Source/portable/MemMang\heap_4.c **** 			}
 481              		.loc 1 306 5 is_stmt 1
 306:C:/Users/stapi/OneDrive/Desktop/GD32VW553/V1_MQTT_OK/GD32VW55X_Wifi_BLE_SDK/GD32VW55x_RELEASE_V1.0.2/MSDK/rtos/FreeRTOS/Source/portable/MemMang\heap_4.c **** 			}
 482              		.loc 1 306 14 is_stmt 0
 483 0060 97000000 		call	xTaskResumeAll
 483      E7800000 
 484              	.LVL40:
 315:C:/Users/stapi/OneDrive/Desktop/GD32VW553/V1_MQTT_OK/GD32VW55X_Wifi_BLE_SDK/GD32VW55x_RELEASE_V1.0.2/MSDK/rtos/FreeRTOS/Source/portable/MemMang\heap_4.c **** 		}
 485              		.loc 1 315 28 is_stmt 1
 486              	.L30:
 318:C:/Users/stapi/OneDrive/Desktop/GD32VW553/V1_MQTT_OK/GD32VW55X_Wifi_BLE_SDK/GD32VW55x_RELEASE_V1.0.2/MSDK/rtos/FreeRTOS/Source/portable/MemMang\heap_4.c **** /*-----------------------------------------------------------*/
 487              		.loc 1 318 1 is_stmt 0
 488 0068 17030000 		tail	__riscv_restore_1
 488      67000300 
 489              		.cfi_restore 8
 490              		.cfi_restore 1
 491              		.cfi_def_cfa_offset 0
 492              	.LVL41:
 493              	.L39:
 494 0070 8280     		ret
 495              		.cfi_endproc
 496              	.LFE5:
 498              		.section	.text.xPortGetTotalHeapSize,"ax",@progbits
 499              		.align	1
 500              		.globl	xPortGetTotalHeapSize
 502              	xPortGetTotalHeapSize:
 503              	.LFB6:
 322:C:/Users/stapi/OneDrive/Desktop/GD32VW553/V1_MQTT_OK/GD32VW55X_Wifi_BLE_SDK/GD32VW55x_RELEASE_V1.0.2/MSDK/rtos/FreeRTOS/Source/portable/MemMang\heap_4.c **** 	return xTotalHeapSize;
 504              		.loc 1 322 1 is_stmt 1
 505              		.cfi_startproc
 323:C:/Users/stapi/OneDrive/Desktop/GD32VW553/V1_MQTT_OK/GD32VW55X_Wifi_BLE_SDK/GD32VW55x_RELEASE_V1.0.2/MSDK/rtos/FreeRTOS/Source/portable/MemMang\heap_4.c **** }
 506              		.loc 1 323 2
 324:C:/Users/stapi/OneDrive/Desktop/GD32VW553/V1_MQTT_OK/GD32VW55X_Wifi_BLE_SDK/GD32VW55x_RELEASE_V1.0.2/MSDK/rtos/FreeRTOS/Source/portable/MemMang\heap_4.c **** 
 507              		.loc 1 324 1 is_stmt 0
 508 0000 B7070000 		lui	a5,%hi(.LANCHOR2)
 509 0004 03A50700 		lw	a0,%lo(.LANCHOR2)(a5)
 510 0008 8280     		ret
 511              		.cfi_endproc
 512              	.LFE6:
 514              		.section	.text.xPortGetFreeHeapSize,"ax",@progbits
 515              		.align	1
 516              		.globl	xPortGetFreeHeapSize
 518              	xPortGetFreeHeapSize:
 519              	.LFB7:
 327:C:/Users/stapi/OneDrive/Desktop/GD32VW553/V1_MQTT_OK/GD32VW55X_Wifi_BLE_SDK/GD32VW55x_RELEASE_V1.0.2/MSDK/rtos/FreeRTOS/Source/portable/MemMang\heap_4.c **** 	return xFreeBytesRemaining;
 520              		.loc 1 327 1 is_stmt 1
 521              		.cfi_startproc
 328:C:/Users/stapi/OneDrive/Desktop/GD32VW553/V1_MQTT_OK/GD32VW55X_Wifi_BLE_SDK/GD32VW55x_RELEASE_V1.0.2/MSDK/rtos/FreeRTOS/Source/portable/MemMang\heap_4.c **** }
 522              		.loc 1 328 2
 329:C:/Users/stapi/OneDrive/Desktop/GD32VW553/V1_MQTT_OK/GD32VW55X_Wifi_BLE_SDK/GD32VW55x_RELEASE_V1.0.2/MSDK/rtos/FreeRTOS/Source/portable/MemMang\heap_4.c **** /*-----------------------------------------------------------*/
 523              		.loc 1 329 1 is_stmt 0
 524 0000 B7070000 		lui	a5,%hi(.LANCHOR4)
 525 0004 03A50700 		lw	a0,%lo(.LANCHOR4)(a5)
 526 0008 8280     		ret
 527              		.cfi_endproc
 528              	.LFE7:
 530              		.section	.text.xPortGetMinimumEverFreeHeapSize,"ax",@progbits
 531              		.align	1
 532              		.globl	xPortGetMinimumEverFreeHeapSize
 534              	xPortGetMinimumEverFreeHeapSize:
 535              	.LFB8:
 333:C:/Users/stapi/OneDrive/Desktop/GD32VW553/V1_MQTT_OK/GD32VW55X_Wifi_BLE_SDK/GD32VW55x_RELEASE_V1.0.2/MSDK/rtos/FreeRTOS/Source/portable/MemMang\heap_4.c **** 	return xMinimumEverFreeBytesRemaining;
 536              		.loc 1 333 1 is_stmt 1
 537              		.cfi_startproc
 334:C:/Users/stapi/OneDrive/Desktop/GD32VW553/V1_MQTT_OK/GD32VW55X_Wifi_BLE_SDK/GD32VW55x_RELEASE_V1.0.2/MSDK/rtos/FreeRTOS/Source/portable/MemMang\heap_4.c **** }
 538              		.loc 1 334 2
 335:C:/Users/stapi/OneDrive/Desktop/GD32VW553/V1_MQTT_OK/GD32VW55X_Wifi_BLE_SDK/GD32VW55x_RELEASE_V1.0.2/MSDK/rtos/FreeRTOS/Source/portable/MemMang\heap_4.c **** 
 539              		.loc 1 335 1 is_stmt 0
 540 0000 B7070000 		lui	a5,%hi(.LANCHOR3)
 541 0004 03A50700 		lw	a0,%lo(.LANCHOR3)(a5)
 542 0008 8280     		ret
 543              		.cfi_endproc
 544              	.LFE8:
 546              		.section	.text.xPortGetHeapMinimumBlockSize,"ax",@progbits
 547              		.align	1
 548              		.globl	xPortGetHeapMinimumBlockSize
 550              	xPortGetHeapMinimumBlockSize:
 551              	.LFB9:
 338:C:/Users/stapi/OneDrive/Desktop/GD32VW553/V1_MQTT_OK/GD32VW55X_Wifi_BLE_SDK/GD32VW55x_RELEASE_V1.0.2/MSDK/rtos/FreeRTOS/Source/portable/MemMang\heap_4.c **** 	return heapMINIMUM_BLOCK_SIZE;
 552              		.loc 1 338 1 is_stmt 1
 553              		.cfi_startproc
 339:C:/Users/stapi/OneDrive/Desktop/GD32VW553/V1_MQTT_OK/GD32VW55X_Wifi_BLE_SDK/GD32VW55x_RELEASE_V1.0.2/MSDK/rtos/FreeRTOS/Source/portable/MemMang\heap_4.c **** }
 554              		.loc 1 339 2
 340:C:/Users/stapi/OneDrive/Desktop/GD32VW553/V1_MQTT_OK/GD32VW55X_Wifi_BLE_SDK/GD32VW55x_RELEASE_V1.0.2/MSDK/rtos/FreeRTOS/Source/portable/MemMang\heap_4.c **** 
 555              		.loc 1 340 1 is_stmt 0
 556 0000 4145     		li	a0,16
 557 0002 8280     		ret
 558              		.cfi_endproc
 559              	.LFE9:
 561              		.section	.text.vPortInitialiseBlocks,"ax",@progbits
 562              		.align	1
 563              		.globl	vPortInitialiseBlocks
 565              	vPortInitialiseBlocks:
 566              	.LFB10:
 345:C:/Users/stapi/OneDrive/Desktop/GD32VW553/V1_MQTT_OK/GD32VW55X_Wifi_BLE_SDK/GD32VW55x_RELEASE_V1.0.2/MSDK/rtos/FreeRTOS/Source/portable/MemMang\heap_4.c **** 	/* This just exists to keep the linker quiet. */
 567              		.loc 1 345 1 is_stmt 1
 568              		.cfi_startproc
 347:C:/Users/stapi/OneDrive/Desktop/GD32VW553/V1_MQTT_OK/GD32VW55X_Wifi_BLE_SDK/GD32VW55x_RELEASE_V1.0.2/MSDK/rtos/FreeRTOS/Source/portable/MemMang\heap_4.c **** /*-----------------------------------------------------------*/
 569              		.loc 1 347 1
 570 0000 8280     		ret
 571              		.cfi_endproc
 572              	.LFE10:
 574              		.section	.rodata.dump_mem_block_list.str1.4,"aMS",@progbits,1
 575              		.align	2
 576              	.LC0:
 577 0000 5B25645D 		.string	"[%d]=%p, %d\r\n"
 577      3D25702C 
 577      2025640D 
 577      0A00
 578              		.section	.text.dump_mem_block_list,"ax",@progbits
 579              		.align	1
 580              		.globl	dump_mem_block_list
 582              	dump_mem_block_list:
 583              	.LFB13:
 457:C:/Users/stapi/OneDrive/Desktop/GD32VW553/V1_MQTT_OK/GD32VW55X_Wifi_BLE_SDK/GD32VW55x_RELEASE_V1.0.2/MSDK/rtos/FreeRTOS/Source/portable/MemMang\heap_4.c **** 
 458:C:/Users/stapi/OneDrive/Desktop/GD32VW553/V1_MQTT_OK/GD32VW55X_Wifi_BLE_SDK/GD32VW55x_RELEASE_V1.0.2/MSDK/rtos/FreeRTOS/Source/portable/MemMang\heap_4.c **** void dump_mem_block_list(void)
 459:C:/Users/stapi/OneDrive/Desktop/GD32VW553/V1_MQTT_OK/GD32VW55X_Wifi_BLE_SDK/GD32VW55x_RELEASE_V1.0.2/MSDK/rtos/FreeRTOS/Source/portable/MemMang\heap_4.c **** {
 584              		.loc 1 459 1
 585              		.cfi_startproc
 586 0000 17030000 		call	t0,__riscv_save_3
 586      E7020300 
 587              		.cfi_offset 18, -16
 588              		.cfi_offset 9, -12
 589              		.cfi_offset 8, -8
 590              		.cfi_offset 1, -4
 591              		.cfi_def_cfa_offset 16
 460:C:/Users/stapi/OneDrive/Desktop/GD32VW553/V1_MQTT_OK/GD32VW55X_Wifi_BLE_SDK/GD32VW55x_RELEASE_V1.0.2/MSDK/rtos/FreeRTOS/Source/portable/MemMang\heap_4.c **** 	BlockLink_t *pxBlock = xStart.pxNextFreeBlock;
 592              		.loc 1 460 2
 593              		.loc 1 460 15 is_stmt 0
 594 0008 B7070000 		lui	a5,%hi(.LANCHOR0)
 595 000c 03A40700 		lw	s0,%lo(.LANCHOR0)(a5)
 596              	.LVL42:
 461:C:/Users/stapi/OneDrive/Desktop/GD32VW553/V1_MQTT_OK/GD32VW55X_Wifi_BLE_SDK/GD32VW55x_RELEASE_V1.0.2/MSDK/rtos/FreeRTOS/Source/portable/MemMang\heap_4.c **** 	int count = 0;
 597              		.loc 1 461 2 is_stmt 1
 462:C:/Users/stapi/OneDrive/Desktop/GD32VW553/V1_MQTT_OK/GD32VW55X_Wifi_BLE_SDK/GD32VW55x_RELEASE_V1.0.2/MSDK/rtos/FreeRTOS/Source/portable/MemMang\heap_4.c **** 
 463:C:/Users/stapi/OneDrive/Desktop/GD32VW553/V1_MQTT_OK/GD32VW55X_Wifi_BLE_SDK/GD32VW55x_RELEASE_V1.0.2/MSDK/rtos/FreeRTOS/Source/portable/MemMang\heap_4.c **** 	while (pxBlock != NULL)
 598              		.loc 1 463 2
 461:C:/Users/stapi/OneDrive/Desktop/GD32VW553/V1_MQTT_OK/GD32VW55X_Wifi_BLE_SDK/GD32VW55x_RELEASE_V1.0.2/MSDK/rtos/FreeRTOS/Source/portable/MemMang\heap_4.c **** 	int count = 0;
 599              		.loc 1 461 6 is_stmt 0
 600 0010 8145     		li	a1,0
 464:C:/Users/stapi/OneDrive/Desktop/GD32VW553/V1_MQTT_OK/GD32VW55X_Wifi_BLE_SDK/GD32VW55x_RELEASE_V1.0.2/MSDK/rtos/FreeRTOS/Source/portable/MemMang\heap_4.c **** 	{
 465:C:/Users/stapi/OneDrive/Desktop/GD32VW553/V1_MQTT_OK/GD32VW55X_Wifi_BLE_SDK/GD32VW55x_RELEASE_V1.0.2/MSDK/rtos/FreeRTOS/Source/portable/MemMang\heap_4.c **** 		printf("[%d]=%p, %d\r\n", count++, pxBlock, pxBlock->xBlockSize);
 601              		.loc 1 465 3
 602 0012 B7040000 		lui	s1,%hi(.LC0)
 603              	.LVL43:
 604              	.L48:
 463:C:/Users/stapi/OneDrive/Desktop/GD32VW553/V1_MQTT_OK/GD32VW55X_Wifi_BLE_SDK/GD32VW55x_RELEASE_V1.0.2/MSDK/rtos/FreeRTOS/Source/portable/MemMang\heap_4.c **** 	{
 605              		.loc 1 463 8 is_stmt 1
 606 0016 09E4     		bne	s0,zero,.L49
 466:C:/Users/stapi/OneDrive/Desktop/GD32VW553/V1_MQTT_OK/GD32VW55X_Wifi_BLE_SDK/GD32VW55x_RELEASE_V1.0.2/MSDK/rtos/FreeRTOS/Source/portable/MemMang\heap_4.c **** 		pxBlock = pxBlock->pxNextFreeBlock;
 467:C:/Users/stapi/OneDrive/Desktop/GD32VW553/V1_MQTT_OK/GD32VW55X_Wifi_BLE_SDK/GD32VW55x_RELEASE_V1.0.2/MSDK/rtos/FreeRTOS/Source/portable/MemMang\heap_4.c **** 	}
 468:C:/Users/stapi/OneDrive/Desktop/GD32VW553/V1_MQTT_OK/GD32VW55X_Wifi_BLE_SDK/GD32VW55x_RELEASE_V1.0.2/MSDK/rtos/FreeRTOS/Source/portable/MemMang\heap_4.c **** }
 607              		.loc 1 468 1 is_stmt 0
 608 0018 17030000 		tail	__riscv_restore_3
 608      67000300 
 609              		.cfi_remember_state
 610              		.cfi_restore 18
 611              		.cfi_restore 9
 612              		.cfi_restore 8
 613              		.cfi_restore 1
 614              		.cfi_def_cfa_offset 0
 615              	.L49:
 616              		.cfi_restore_state
 465:C:/Users/stapi/OneDrive/Desktop/GD32VW553/V1_MQTT_OK/GD32VW55X_Wifi_BLE_SDK/GD32VW55x_RELEASE_V1.0.2/MSDK/rtos/FreeRTOS/Source/portable/MemMang\heap_4.c **** 		pxBlock = pxBlock->pxNextFreeBlock;
 617              		.loc 1 465 3 is_stmt 1
 618 0020 5440     		lw	a3,4(s0)
 619 0022 2286     		mv	a2,s0
 620 0024 13850400 		addi	a0,s1,%lo(.LC0)
 621 0028 13891500 		addi	s2,a1,1
 622              	.LVL44:
 623 002c 97000000 		call	printf
 623      E7800000 
 624              	.LVL45:
 466:C:/Users/stapi/OneDrive/Desktop/GD32VW553/V1_MQTT_OK/GD32VW55X_Wifi_BLE_SDK/GD32VW55x_RELEASE_V1.0.2/MSDK/rtos/FreeRTOS/Source/portable/MemMang\heap_4.c **** 		pxBlock = pxBlock->pxNextFreeBlock;
 625              		.loc 1 466 3
 465:C:/Users/stapi/OneDrive/Desktop/GD32VW553/V1_MQTT_OK/GD32VW55X_Wifi_BLE_SDK/GD32VW55x_RELEASE_V1.0.2/MSDK/rtos/FreeRTOS/Source/portable/MemMang\heap_4.c **** 		pxBlock = pxBlock->pxNextFreeBlock;
 626              		.loc 1 465 3 is_stmt 0
 627 0034 CA85     		mv	a1,s2
 466:C:/Users/stapi/OneDrive/Desktop/GD32VW553/V1_MQTT_OK/GD32VW55X_Wifi_BLE_SDK/GD32VW55x_RELEASE_V1.0.2/MSDK/rtos/FreeRTOS/Source/portable/MemMang\heap_4.c **** 		pxBlock = pxBlock->pxNextFreeBlock;
 628              		.loc 1 466 11
 629 0036 0040     		lw	s0,0(s0)
 630              	.LVL46:
 631 0038 F9BF     		j	.L48
 632              		.cfi_endproc
 633              	.LFE13:
 635              		.section	.text.vPortAddHeapRegion,"ax",@progbits
 636              		.align	1
 637              		.globl	vPortAddHeapRegion
 639              	vPortAddHeapRegion:
 640              	.LFB14:
 469:C:/Users/stapi/OneDrive/Desktop/GD32VW553/V1_MQTT_OK/GD32VW55X_Wifi_BLE_SDK/GD32VW55x_RELEASE_V1.0.2/MSDK/rtos/FreeRTOS/Source/portable/MemMang\heap_4.c **** 
 470:C:/Users/stapi/OneDrive/Desktop/GD32VW553/V1_MQTT_OK/GD32VW55X_Wifi_BLE_SDK/GD32VW55x_RELEASE_V1.0.2/MSDK/rtos/FreeRTOS/Source/portable/MemMang\heap_4.c **** void vPortAddHeapRegion( uint8_t *pucStartAddress, size_t xSizeInBytes )
 471:C:/Users/stapi/OneDrive/Desktop/GD32VW553/V1_MQTT_OK/GD32VW55X_Wifi_BLE_SDK/GD32VW55x_RELEASE_V1.0.2/MSDK/rtos/FreeRTOS/Source/portable/MemMang\heap_4.c **** {
 641              		.loc 1 471 1 is_stmt 1
 642              		.cfi_startproc
 643              	.LVL47:
 644 0000 17030000 		call	t0,__riscv_save_4
 644      E7020300 
 645              		.cfi_offset 19, -20
 646              		.cfi_offset 18, -16
 647              		.cfi_offset 9, -12
 648              		.cfi_offset 8, -8
 649              		.cfi_offset 1, -4
 650              		.cfi_def_cfa_offset 32
 472:C:/Users/stapi/OneDrive/Desktop/GD32VW553/V1_MQTT_OK/GD32VW55X_Wifi_BLE_SDK/GD32VW55x_RELEASE_V1.0.2/MSDK/rtos/FreeRTOS/Source/portable/MemMang\heap_4.c ****     BlockLink_t *pxFirstFreeBlockInRegion = NULL, *pxPreviousFreeBlock;
 651              		.loc 1 472 5
 652              	.LVL48:
 473:C:/Users/stapi/OneDrive/Desktop/GD32VW553/V1_MQTT_OK/GD32VW55X_Wifi_BLE_SDK/GD32VW55x_RELEASE_V1.0.2/MSDK/rtos/FreeRTOS/Source/portable/MemMang\heap_4.c ****     size_t xAlignedHeap;
 653              		.loc 1 473 5
 474:C:/Users/stapi/OneDrive/Desktop/GD32VW553/V1_MQTT_OK/GD32VW55X_Wifi_BLE_SDK/GD32VW55x_RELEASE_V1.0.2/MSDK/rtos/FreeRTOS/Source/portable/MemMang\heap_4.c ****     size_t xTotalRegionSize;
 654              		.loc 1 474 5
 475:C:/Users/stapi/OneDrive/Desktop/GD32VW553/V1_MQTT_OK/GD32VW55X_Wifi_BLE_SDK/GD32VW55x_RELEASE_V1.0.2/MSDK/rtos/FreeRTOS/Source/portable/MemMang\heap_4.c ****     size_t xAddress;
 655              		.loc 1 475 5
 476:C:/Users/stapi/OneDrive/Desktop/GD32VW553/V1_MQTT_OK/GD32VW55X_Wifi_BLE_SDK/GD32VW55x_RELEASE_V1.0.2/MSDK/rtos/FreeRTOS/Source/portable/MemMang\heap_4.c **** 
 477:C:/Users/stapi/OneDrive/Desktop/GD32VW553/V1_MQTT_OK/GD32VW55X_Wifi_BLE_SDK/GD32VW55x_RELEASE_V1.0.2/MSDK/rtos/FreeRTOS/Source/portable/MemMang\heap_4.c ****     xTotalRegionSize = xSizeInBytes;
 656              		.loc 1 477 5
 478:C:/Users/stapi/OneDrive/Desktop/GD32VW553/V1_MQTT_OK/GD32VW55X_Wifi_BLE_SDK/GD32VW55x_RELEASE_V1.0.2/MSDK/rtos/FreeRTOS/Source/portable/MemMang\heap_4.c **** 
 479:C:/Users/stapi/OneDrive/Desktop/GD32VW553/V1_MQTT_OK/GD32VW55X_Wifi_BLE_SDK/GD32VW55x_RELEASE_V1.0.2/MSDK/rtos/FreeRTOS/Source/portable/MemMang\heap_4.c ****     /* Ensure the heap region starts on a correctly aligned boundary. */
 480:C:/Users/stapi/OneDrive/Desktop/GD32VW553/V1_MQTT_OK/GD32VW55X_Wifi_BLE_SDK/GD32VW55x_RELEASE_V1.0.2/MSDK/rtos/FreeRTOS/Source/portable/MemMang\heap_4.c ****     xAddress = ( size_t ) pucStartAddress;
 657              		.loc 1 480 5
 481:C:/Users/stapi/OneDrive/Desktop/GD32VW553/V1_MQTT_OK/GD32VW55X_Wifi_BLE_SDK/GD32VW55x_RELEASE_V1.0.2/MSDK/rtos/FreeRTOS/Source/portable/MemMang\heap_4.c ****     if( ( xAddress & portBYTE_ALIGNMENT_MASK ) != 0 )
 658              		.loc 1 481 20 is_stmt 0
 659 0008 93777500 		andi	a5,a0,7
 480:C:/Users/stapi/OneDrive/Desktop/GD32VW553/V1_MQTT_OK/GD32VW55X_Wifi_BLE_SDK/GD32VW55x_RELEASE_V1.0.2/MSDK/rtos/FreeRTOS/Source/portable/MemMang\heap_4.c ****     if( ( xAddress & portBYTE_ALIGNMENT_MASK ) != 0 )
 660              		.loc 1 480 14
 661 000c 2A84     		mv	s0,a0
 662              	.LVL49:
 663              		.loc 1 481 5 is_stmt 1
 664 000e AA95     		add	a1,a0,a1
 665              	.LVL50:
 666              		.loc 1 481 7 is_stmt 0
 667 0010 81C7     		beq	a5,zero,.L52
 482:C:/Users/stapi/OneDrive/Desktop/GD32VW553/V1_MQTT_OK/GD32VW55X_Wifi_BLE_SDK/GD32VW55x_RELEASE_V1.0.2/MSDK/rtos/FreeRTOS/Source/portable/MemMang\heap_4.c ****     {
 483:C:/Users/stapi/OneDrive/Desktop/GD32VW553/V1_MQTT_OK/GD32VW55X_Wifi_BLE_SDK/GD32VW55x_RELEASE_V1.0.2/MSDK/rtos/FreeRTOS/Source/portable/MemMang\heap_4.c ****         xAddress += ( portBYTE_ALIGNMENT - 1 );
 668              		.loc 1 483 9 is_stmt 1
 669              		.loc 1 483 18 is_stmt 0
 670 0012 13047500 		addi	s0,a0,7
 671              	.LVL51:
 484:C:/Users/stapi/OneDrive/Desktop/GD32VW553/V1_MQTT_OK/GD32VW55X_Wifi_BLE_SDK/GD32VW55x_RELEASE_V1.0.2/MSDK/rtos/FreeRTOS/Source/portable/MemMang\heap_4.c ****         xAddress &= ~portBYTE_ALIGNMENT_MASK;
 672              		.loc 1 484 9 is_stmt 1
 673              		.loc 1 484 18 is_stmt 0
 674 0016 6198     		andi	s0,s0,-8
 675              	.LVL52:
 485:C:/Users/stapi/OneDrive/Desktop/GD32VW553/V1_MQTT_OK/GD32VW55X_Wifi_BLE_SDK/GD32VW55x_RELEASE_V1.0.2/MSDK/rtos/FreeRTOS/Source/portable/MemMang\heap_4.c **** 
 486:C:/Users/stapi/OneDrive/Desktop/GD32VW553/V1_MQTT_OK/GD32VW55X_Wifi_BLE_SDK/GD32VW55x_RELEASE_V1.0.2/MSDK/rtos/FreeRTOS/Source/portable/MemMang\heap_4.c ****         /* Adjust the size for the bytes lost to alignment. */
 487:C:/Users/stapi/OneDrive/Desktop/GD32VW553/V1_MQTT_OK/GD32VW55X_Wifi_BLE_SDK/GD32VW55x_RELEASE_V1.0.2/MSDK/rtos/FreeRTOS/Source/portable/MemMang\heap_4.c ****         xTotalRegionSize -= xAddress - ( size_t ) pucStartAddress;
 676              		.loc 1 487 9 is_stmt 1
 677              	.L52:
 488:C:/Users/stapi/OneDrive/Desktop/GD32VW553/V1_MQTT_OK/GD32VW55X_Wifi_BLE_SDK/GD32VW55x_RELEASE_V1.0.2/MSDK/rtos/FreeRTOS/Source/portable/MemMang\heap_4.c ****     }
 489:C:/Users/stapi/OneDrive/Desktop/GD32VW553/V1_MQTT_OK/GD32VW55X_Wifi_BLE_SDK/GD32VW55x_RELEASE_V1.0.2/MSDK/rtos/FreeRTOS/Source/portable/MemMang\heap_4.c **** 
 490:C:/Users/stapi/OneDrive/Desktop/GD32VW553/V1_MQTT_OK/GD32VW55X_Wifi_BLE_SDK/GD32VW55x_RELEASE_V1.0.2/MSDK/rtos/FreeRTOS/Source/portable/MemMang\heap_4.c ****     xAlignedHeap = xAddress;
 678              		.loc 1 490 5
 491:C:/Users/stapi/OneDrive/Desktop/GD32VW553/V1_MQTT_OK/GD32VW55X_Wifi_BLE_SDK/GD32VW55x_RELEASE_V1.0.2/MSDK/rtos/FreeRTOS/Source/portable/MemMang\heap_4.c **** 
 492:C:/Users/stapi/OneDrive/Desktop/GD32VW553/V1_MQTT_OK/GD32VW55X_Wifi_BLE_SDK/GD32VW55x_RELEASE_V1.0.2/MSDK/rtos/FreeRTOS/Source/portable/MemMang\heap_4.c ****     if (xAlignedHeap + xTotalRegionSize - xHeapStructSize == (uint32_t)pxEnd) {
 679              		.loc 1 492 5
 680              		.loc 1 492 59 is_stmt 0
 681 0018 37090000 		lui	s2,%hi(.LANCHOR1)
 682 001c 13090900 		addi	s2,s2,%lo(.LANCHOR1)
 683 0020 83290900 		lw	s3,0(s2)
 684              		.loc 1 492 41
 685 0024 938485FF 		addi	s1,a1,-8
 686              		.loc 1 492 8
 687 0028 63859906 		beq	s3,s1,.L51
 493:C:/Users/stapi/OneDrive/Desktop/GD32VW553/V1_MQTT_OK/GD32VW55X_Wifi_BLE_SDK/GD32VW55x_RELEASE_V1.0.2/MSDK/rtos/FreeRTOS/Source/portable/MemMang\heap_4.c ****         return;
 494:C:/Users/stapi/OneDrive/Desktop/GD32VW553/V1_MQTT_OK/GD32VW55X_Wifi_BLE_SDK/GD32VW55x_RELEASE_V1.0.2/MSDK/rtos/FreeRTOS/Source/portable/MemMang\heap_4.c ****     }
 495:C:/Users/stapi/OneDrive/Desktop/GD32VW553/V1_MQTT_OK/GD32VW55X_Wifi_BLE_SDK/GD32VW55x_RELEASE_V1.0.2/MSDK/rtos/FreeRTOS/Source/portable/MemMang\heap_4.c **** 
 496:C:/Users/stapi/OneDrive/Desktop/GD32VW553/V1_MQTT_OK/GD32VW55X_Wifi_BLE_SDK/GD32VW55x_RELEASE_V1.0.2/MSDK/rtos/FreeRTOS/Source/portable/MemMang\heap_4.c ****     // printf("Add: xAlignedHeap = %x, xTotalRegionSize = %x, pxEnd = %p\r\n", xAlignedHeap, xTotal
 497:C:/Users/stapi/OneDrive/Desktop/GD32VW553/V1_MQTT_OK/GD32VW55X_Wifi_BLE_SDK/GD32VW55x_RELEASE_V1.0.2/MSDK/rtos/FreeRTOS/Source/portable/MemMang\heap_4.c ****     pxPreviousFreeBlock = pxEnd;
 688              		.loc 1 497 5 is_stmt 1
 689              	.LVL53:
 498:C:/Users/stapi/OneDrive/Desktop/GD32VW553/V1_MQTT_OK/GD32VW55X_Wifi_BLE_SDK/GD32VW55x_RELEASE_V1.0.2/MSDK/rtos/FreeRTOS/Source/portable/MemMang\heap_4.c **** 
 499:C:/Users/stapi/OneDrive/Desktop/GD32VW553/V1_MQTT_OK/GD32VW55X_Wifi_BLE_SDK/GD32VW55x_RELEASE_V1.0.2/MSDK/rtos/FreeRTOS/Source/portable/MemMang\heap_4.c ****     vPortEnterCritical();
 690              		.loc 1 499 5
 691 002c 97000000 		call	vPortEnterCritical
 691      E7800000 
 692              	.LVL54:
 500:C:/Users/stapi/OneDrive/Desktop/GD32VW553/V1_MQTT_OK/GD32VW55X_Wifi_BLE_SDK/GD32VW55x_RELEASE_V1.0.2/MSDK/rtos/FreeRTOS/Source/portable/MemMang\heap_4.c **** 
 501:C:/Users/stapi/OneDrive/Desktop/GD32VW553/V1_MQTT_OK/GD32VW55X_Wifi_BLE_SDK/GD32VW55x_RELEASE_V1.0.2/MSDK/rtos/FreeRTOS/Source/portable/MemMang\heap_4.c ****     /* Backup the pxEnd for later removing */
 502:C:/Users/stapi/OneDrive/Desktop/GD32VW553/V1_MQTT_OK/GD32VW55X_Wifi_BLE_SDK/GD32VW55x_RELEASE_V1.0.2/MSDK/rtos/FreeRTOS/Source/portable/MemMang\heap_4.c ****     pxEndPrevious = pxEnd;
 693              		.loc 1 502 5
 694              		.loc 1 502 19 is_stmt 0
 695 0034 03270900 		lw	a4,0(s2)
 503:C:/Users/stapi/OneDrive/Desktop/GD32VW553/V1_MQTT_OK/GD32VW55X_Wifi_BLE_SDK/GD32VW55x_RELEASE_V1.0.2/MSDK/rtos/FreeRTOS/Source/portable/MemMang\heap_4.c **** 
 504:C:/Users/stapi/OneDrive/Desktop/GD32VW553/V1_MQTT_OK/GD32VW55X_Wifi_BLE_SDK/GD32VW55x_RELEASE_V1.0.2/MSDK/rtos/FreeRTOS/Source/portable/MemMang\heap_4.c ****     /* pxEnd is used to mark the end of the list of free blocks and is
 505:C:/Users/stapi/OneDrive/Desktop/GD32VW553/V1_MQTT_OK/GD32VW55X_Wifi_BLE_SDK/GD32VW55x_RELEASE_V1.0.2/MSDK/rtos/FreeRTOS/Source/portable/MemMang\heap_4.c ****     inserted at the end of the region space. */
 506:C:/Users/stapi/OneDrive/Desktop/GD32VW553/V1_MQTT_OK/GD32VW55X_Wifi_BLE_SDK/GD32VW55x_RELEASE_V1.0.2/MSDK/rtos/FreeRTOS/Source/portable/MemMang\heap_4.c ****     xAddress = xAlignedHeap + xTotalRegionSize;
 507:C:/Users/stapi/OneDrive/Desktop/GD32VW553/V1_MQTT_OK/GD32VW55X_Wifi_BLE_SDK/GD32VW55x_RELEASE_V1.0.2/MSDK/rtos/FreeRTOS/Source/portable/MemMang\heap_4.c ****     xAddress -= xHeapStructSize;
 508:C:/Users/stapi/OneDrive/Desktop/GD32VW553/V1_MQTT_OK/GD32VW55X_Wifi_BLE_SDK/GD32VW55x_RELEASE_V1.0.2/MSDK/rtos/FreeRTOS/Source/portable/MemMang\heap_4.c ****     xAddress &= ~portBYTE_ALIGNMENT_MASK;
 696              		.loc 1 508 14
 697 0038 93F584FF 		andi	a1,s1,-8
 502:C:/Users/stapi/OneDrive/Desktop/GD32VW553/V1_MQTT_OK/GD32VW55X_Wifi_BLE_SDK/GD32VW55x_RELEASE_V1.0.2/MSDK/rtos/FreeRTOS/Source/portable/MemMang\heap_4.c **** 
 698              		.loc 1 502 19
 699 003c B7070000 		lui	a5,%hi(.LANCHOR8)
 509:C:/Users/stapi/OneDrive/Desktop/GD32VW553/V1_MQTT_OK/GD32VW55X_Wifi_BLE_SDK/GD32VW55x_RELEASE_V1.0.2/MSDK/rtos/FreeRTOS/Source/portable/MemMang\heap_4.c ****     pxEnd = ( BlockLink_t * ) xAddress;
 510:C:/Users/stapi/OneDrive/Desktop/GD32VW553/V1_MQTT_OK/GD32VW55X_Wifi_BLE_SDK/GD32VW55x_RELEASE_V1.0.2/MSDK/rtos/FreeRTOS/Source/portable/MemMang\heap_4.c ****     pxEnd->xBlockSize = 0;
 700              		.loc 1 510 23
 701 0040 23A20500 		sw	zero,4(a1)
 511:C:/Users/stapi/OneDrive/Desktop/GD32VW553/V1_MQTT_OK/GD32VW55X_Wifi_BLE_SDK/GD32VW55x_RELEASE_V1.0.2/MSDK/rtos/FreeRTOS/Source/portable/MemMang\heap_4.c ****     pxEnd->pxNextFreeBlock = NULL;
 702              		.loc 1 511 28
 703 0044 23A00500 		sw	zero,0(a1)
 502:C:/Users/stapi/OneDrive/Desktop/GD32VW553/V1_MQTT_OK/GD32VW55X_Wifi_BLE_SDK/GD32VW55x_RELEASE_V1.0.2/MSDK/rtos/FreeRTOS/Source/portable/MemMang\heap_4.c **** 
 704              		.loc 1 502 19
 705 0048 23A0E700 		sw	a4,%lo(.LANCHOR8)(a5)
 506:C:/Users/stapi/OneDrive/Desktop/GD32VW553/V1_MQTT_OK/GD32VW55X_Wifi_BLE_SDK/GD32VW55x_RELEASE_V1.0.2/MSDK/rtos/FreeRTOS/Source/portable/MemMang\heap_4.c ****     xAddress -= xHeapStructSize;
 706              		.loc 1 506 5 is_stmt 1
 707              	.LVL55:
 507:C:/Users/stapi/OneDrive/Desktop/GD32VW553/V1_MQTT_OK/GD32VW55X_Wifi_BLE_SDK/GD32VW55x_RELEASE_V1.0.2/MSDK/rtos/FreeRTOS/Source/portable/MemMang\heap_4.c ****     xAddress &= ~portBYTE_ALIGNMENT_MASK;
 708              		.loc 1 507 5
 508:C:/Users/stapi/OneDrive/Desktop/GD32VW553/V1_MQTT_OK/GD32VW55X_Wifi_BLE_SDK/GD32VW55x_RELEASE_V1.0.2/MSDK/rtos/FreeRTOS/Source/portable/MemMang\heap_4.c ****     pxEnd = ( BlockLink_t * ) xAddress;
 709              		.loc 1 508 5
 509:C:/Users/stapi/OneDrive/Desktop/GD32VW553/V1_MQTT_OK/GD32VW55X_Wifi_BLE_SDK/GD32VW55x_RELEASE_V1.0.2/MSDK/rtos/FreeRTOS/Source/portable/MemMang\heap_4.c ****     pxEnd->xBlockSize = 0;
 710              		.loc 1 509 5
 512:C:/Users/stapi/OneDrive/Desktop/GD32VW553/V1_MQTT_OK/GD32VW55X_Wifi_BLE_SDK/GD32VW55x_RELEASE_V1.0.2/MSDK/rtos/FreeRTOS/Source/portable/MemMang\heap_4.c **** 
 513:C:/Users/stapi/OneDrive/Desktop/GD32VW553/V1_MQTT_OK/GD32VW55X_Wifi_BLE_SDK/GD32VW55x_RELEASE_V1.0.2/MSDK/rtos/FreeRTOS/Source/portable/MemMang\heap_4.c ****     /* To start with there is a single free block in this region that is
 514:C:/Users/stapi/OneDrive/Desktop/GD32VW553/V1_MQTT_OK/GD32VW55X_Wifi_BLE_SDK/GD32VW55x_RELEASE_V1.0.2/MSDK/rtos/FreeRTOS/Source/portable/MemMang\heap_4.c ****     sized to take up the entire heap region minus the space taken by the
 515:C:/Users/stapi/OneDrive/Desktop/GD32VW553/V1_MQTT_OK/GD32VW55X_Wifi_BLE_SDK/GD32VW55x_RELEASE_V1.0.2/MSDK/rtos/FreeRTOS/Source/portable/MemMang\heap_4.c ****     free block structure. */
 516:C:/Users/stapi/OneDrive/Desktop/GD32VW553/V1_MQTT_OK/GD32VW55X_Wifi_BLE_SDK/GD32VW55x_RELEASE_V1.0.2/MSDK/rtos/FreeRTOS/Source/portable/MemMang\heap_4.c ****     pxFirstFreeBlockInRegion = ( BlockLink_t * ) xAlignedHeap;
 517:C:/Users/stapi/OneDrive/Desktop/GD32VW553/V1_MQTT_OK/GD32VW55X_Wifi_BLE_SDK/GD32VW55x_RELEASE_V1.0.2/MSDK/rtos/FreeRTOS/Source/portable/MemMang\heap_4.c ****     pxFirstFreeBlockInRegion->xBlockSize = xAddress - ( size_t ) pxFirstFreeBlockInRegion;
 711              		.loc 1 517 53 is_stmt 0
 712 004c 33878540 		sub	a4,a1,s0
 509:C:/Users/stapi/OneDrive/Desktop/GD32VW553/V1_MQTT_OK/GD32VW55X_Wifi_BLE_SDK/GD32VW55x_RELEASE_V1.0.2/MSDK/rtos/FreeRTOS/Source/portable/MemMang\heap_4.c ****     pxEnd->xBlockSize = 0;
 713              		.loc 1 509 11
 714 0050 2320B900 		sw	a1,0(s2)
 510:C:/Users/stapi/OneDrive/Desktop/GD32VW553/V1_MQTT_OK/GD32VW55X_Wifi_BLE_SDK/GD32VW55x_RELEASE_V1.0.2/MSDK/rtos/FreeRTOS/Source/portable/MemMang\heap_4.c ****     pxEnd->pxNextFreeBlock = NULL;
 715              		.loc 1 510 5 is_stmt 1
 511:C:/Users/stapi/OneDrive/Desktop/GD32VW553/V1_MQTT_OK/GD32VW55X_Wifi_BLE_SDK/GD32VW55x_RELEASE_V1.0.2/MSDK/rtos/FreeRTOS/Source/portable/MemMang\heap_4.c **** 
 716              		.loc 1 511 5
 516:C:/Users/stapi/OneDrive/Desktop/GD32VW553/V1_MQTT_OK/GD32VW55X_Wifi_BLE_SDK/GD32VW55x_RELEASE_V1.0.2/MSDK/rtos/FreeRTOS/Source/portable/MemMang\heap_4.c ****     pxFirstFreeBlockInRegion->xBlockSize = xAddress - ( size_t ) pxFirstFreeBlockInRegion;
 717              		.loc 1 516 5
 718              	.LVL56:
 719              		.loc 1 517 5
 720              		.loc 1 517 42 is_stmt 0
 721 0054 58C0     		sw	a4,4(s0)
 518:C:/Users/stapi/OneDrive/Desktop/GD32VW553/V1_MQTT_OK/GD32VW55X_Wifi_BLE_SDK/GD32VW55x_RELEASE_V1.0.2/MSDK/rtos/FreeRTOS/Source/portable/MemMang\heap_4.c ****     pxFirstFreeBlockInRegion->pxNextFreeBlock = pxEnd;
 722              		.loc 1 518 5 is_stmt 1
 723              		.loc 1 518 47 is_stmt 0
 724 0056 0CC0     		sw	a1,0(s0)
 519:C:/Users/stapi/OneDrive/Desktop/GD32VW553/V1_MQTT_OK/GD32VW55X_Wifi_BLE_SDK/GD32VW55x_RELEASE_V1.0.2/MSDK/rtos/FreeRTOS/Source/portable/MemMang\heap_4.c **** 
 520:C:/Users/stapi/OneDrive/Desktop/GD32VW553/V1_MQTT_OK/GD32VW55X_Wifi_BLE_SDK/GD32VW55x_RELEASE_V1.0.2/MSDK/rtos/FreeRTOS/Source/portable/MemMang\heap_4.c ****     /* If this is not the first region that makes up the entire heap space
 521:C:/Users/stapi/OneDrive/Desktop/GD32VW553/V1_MQTT_OK/GD32VW55X_Wifi_BLE_SDK/GD32VW55x_RELEASE_V1.0.2/MSDK/rtos/FreeRTOS/Source/portable/MemMang\heap_4.c ****     then link the previous region to this region. */
 522:C:/Users/stapi/OneDrive/Desktop/GD32VW553/V1_MQTT_OK/GD32VW55X_Wifi_BLE_SDK/GD32VW55x_RELEASE_V1.0.2/MSDK/rtos/FreeRTOS/Source/portable/MemMang\heap_4.c ****     if( pxPreviousFreeBlock != NULL )
 725              		.loc 1 522 5 is_stmt 1
 726              		.loc 1 522 7 is_stmt 0
 727 0058 63840900 		beq	s3,zero,.L54
 523:C:/Users/stapi/OneDrive/Desktop/GD32VW553/V1_MQTT_OK/GD32VW55X_Wifi_BLE_SDK/GD32VW55x_RELEASE_V1.0.2/MSDK/rtos/FreeRTOS/Source/portable/MemMang\heap_4.c ****     {
 524:C:/Users/stapi/OneDrive/Desktop/GD32VW553/V1_MQTT_OK/GD32VW55X_Wifi_BLE_SDK/GD32VW55x_RELEASE_V1.0.2/MSDK/rtos/FreeRTOS/Source/portable/MemMang\heap_4.c ****         pxPreviousFreeBlock->pxNextFreeBlock = pxFirstFreeBlockInRegion;
 728              		.loc 1 524 9 is_stmt 1
 729              		.loc 1 524 46 is_stmt 0
 730 005c 23A08900 		sw	s0,0(s3)
 731              	.L54:
 525:C:/Users/stapi/OneDrive/Desktop/GD32VW553/V1_MQTT_OK/GD32VW55X_Wifi_BLE_SDK/GD32VW55x_RELEASE_V1.0.2/MSDK/rtos/FreeRTOS/Source/portable/MemMang\heap_4.c ****     }
 526:C:/Users/stapi/OneDrive/Desktop/GD32VW553/V1_MQTT_OK/GD32VW55X_Wifi_BLE_SDK/GD32VW55x_RELEASE_V1.0.2/MSDK/rtos/FreeRTOS/Source/portable/MemMang\heap_4.c **** 
 527:C:/Users/stapi/OneDrive/Desktop/GD32VW553/V1_MQTT_OK/GD32VW55X_Wifi_BLE_SDK/GD32VW55x_RELEASE_V1.0.2/MSDK/rtos/FreeRTOS/Source/portable/MemMang\heap_4.c ****     xTotalHeapSize += pxFirstFreeBlockInRegion->xBlockSize;
 732              		.loc 1 527 5 is_stmt 1
 733              		.loc 1 527 20 is_stmt 0
 734 0060 B7070000 		lui	a5,%hi(.LANCHOR2)
 735 0064 93870700 		addi	a5,a5,%lo(.LANCHOR2)
 736 0068 9443     		lw	a3,0(a5)
 737 006a BA96     		add	a3,a3,a4
 738 006c 94C3     		sw	a3,0(a5)
 528:C:/Users/stapi/OneDrive/Desktop/GD32VW553/V1_MQTT_OK/GD32VW55X_Wifi_BLE_SDK/GD32VW55x_RELEASE_V1.0.2/MSDK/rtos/FreeRTOS/Source/portable/MemMang\heap_4.c ****     xMinimumEverFreeBytesRemaining += pxFirstFreeBlockInRegion->xBlockSize;
 739              		.loc 1 528 5 is_stmt 1
 740              		.loc 1 528 36 is_stmt 0
 741 006e B7070000 		lui	a5,%hi(.LANCHOR3)
 742 0072 93870700 		addi	a5,a5,%lo(.LANCHOR3)
 743 0076 9443     		lw	a3,0(a5)
 744 0078 BA96     		add	a3,a3,a4
 745 007a 94C3     		sw	a3,0(a5)
 529:C:/Users/stapi/OneDrive/Desktop/GD32VW553/V1_MQTT_OK/GD32VW55X_Wifi_BLE_SDK/GD32VW55x_RELEASE_V1.0.2/MSDK/rtos/FreeRTOS/Source/portable/MemMang\heap_4.c ****     xFreeBytesRemaining += pxFirstFreeBlockInRegion->xBlockSize;
 746              		.loc 1 529 5 is_stmt 1
 747              		.loc 1 529 25 is_stmt 0
 748 007c B7070000 		lui	a5,%hi(.LANCHOR4)
 749 0080 93870700 		addi	a5,a5,%lo(.LANCHOR4)
 750 0084 9443     		lw	a3,0(a5)
 751 0086 3697     		add	a4,a3,a4
 752 0088 98C3     		sw	a4,0(a5)
 530:C:/Users/stapi/OneDrive/Desktop/GD32VW553/V1_MQTT_OK/GD32VW55X_Wifi_BLE_SDK/GD32VW55x_RELEASE_V1.0.2/MSDK/rtos/FreeRTOS/Source/portable/MemMang\heap_4.c **** 
 531:C:/Users/stapi/OneDrive/Desktop/GD32VW553/V1_MQTT_OK/GD32VW55X_Wifi_BLE_SDK/GD32VW55x_RELEASE_V1.0.2/MSDK/rtos/FreeRTOS/Source/portable/MemMang\heap_4.c ****     vPortExitCritical();
 753              		.loc 1 531 5 is_stmt 1
 754 008a 97000000 		call	vPortExitCritical
 754      E7800000 
 755              	.LVL57:
 756              	.L51:
 532:C:/Users/stapi/OneDrive/Desktop/GD32VW553/V1_MQTT_OK/GD32VW55X_Wifi_BLE_SDK/GD32VW55x_RELEASE_V1.0.2/MSDK/rtos/FreeRTOS/Source/portable/MemMang\heap_4.c **** }
 757              		.loc 1 532 1 is_stmt 0
 758 0092 17030000 		tail	__riscv_restore_4
 758      67000300 
 759              		.cfi_restore 19
 760              		.cfi_restore 18
 761              		.cfi_restore 9
 762              		.cfi_restore 8
 763              		.cfi_restore 1
 764              		.cfi_def_cfa_offset 0
 765              		.cfi_endproc
 766              	.LFE14:
 768              		.section	.rodata.vPortRemoveLastHeapRegion.str1.4,"aMS",@progbits,1
 769              		.align	2
 770              	.LC1:
 771 0000 506C6561 		.string	"Please free allocated memory from region %x before removing region.\r\n"
 771      73652066 
 771      72656520 
 771      616C6C6F 
 771      63617465 
 772              		.section	.text.vPortRemoveLastHeapRegion,"ax",@progbits
 773              		.align	1
 774              		.globl	vPortRemoveLastHeapRegion
 776              	vPortRemoveLastHeapRegion:
 777              	.LFB15:
 533:C:/Users/stapi/OneDrive/Desktop/GD32VW553/V1_MQTT_OK/GD32VW55X_Wifi_BLE_SDK/GD32VW55x_RELEASE_V1.0.2/MSDK/rtos/FreeRTOS/Source/portable/MemMang\heap_4.c **** 
 534:C:/Users/stapi/OneDrive/Desktop/GD32VW553/V1_MQTT_OK/GD32VW55X_Wifi_BLE_SDK/GD32VW55x_RELEASE_V1.0.2/MSDK/rtos/FreeRTOS/Source/portable/MemMang\heap_4.c **** void vPortRemoveLastHeapRegion( uint8_t *pucStartAddress, size_t xSizeInBytes )
 535:C:/Users/stapi/OneDrive/Desktop/GD32VW553/V1_MQTT_OK/GD32VW55X_Wifi_BLE_SDK/GD32VW55x_RELEASE_V1.0.2/MSDK/rtos/FreeRTOS/Source/portable/MemMang\heap_4.c **** {
 778              		.loc 1 535 1 is_stmt 1
 779              		.cfi_startproc
 780              	.LVL58:
 781 0000 17030000 		call	t0,__riscv_save_5
 781      E7020300 
 782              		.cfi_offset 20, -24
 783              		.cfi_offset 19, -20
 784              		.cfi_offset 18, -16
 785              		.cfi_offset 9, -12
 786              		.cfi_offset 8, -8
 787              		.cfi_offset 1, -4
 788              		.cfi_def_cfa_offset 32
 536:C:/Users/stapi/OneDrive/Desktop/GD32VW553/V1_MQTT_OK/GD32VW55X_Wifi_BLE_SDK/GD32VW55x_RELEASE_V1.0.2/MSDK/rtos/FreeRTOS/Source/portable/MemMang\heap_4.c ****     BlockLink_t *pxPreviousBlock, *pxBlock;
 537:C:/Users/stapi/OneDrive/Desktop/GD32VW553/V1_MQTT_OK/GD32VW55X_Wifi_BLE_SDK/GD32VW55x_RELEASE_V1.0.2/MSDK/rtos/FreeRTOS/Source/portable/MemMang\heap_4.c ****     size_t xAddress;
 538:C:/Users/stapi/OneDrive/Desktop/GD32VW553/V1_MQTT_OK/GD32VW55X_Wifi_BLE_SDK/GD32VW55x_RELEASE_V1.0.2/MSDK/rtos/FreeRTOS/Source/portable/MemMang\heap_4.c ****     size_t xTotalRegionSize;
 539:C:/Users/stapi/OneDrive/Desktop/GD32VW553/V1_MQTT_OK/GD32VW55X_Wifi_BLE_SDK/GD32VW55x_RELEASE_V1.0.2/MSDK/rtos/FreeRTOS/Source/portable/MemMang\heap_4.c ****     size_t xAlignedHeap;
 540:C:/Users/stapi/OneDrive/Desktop/GD32VW553/V1_MQTT_OK/GD32VW55X_Wifi_BLE_SDK/GD32VW55x_RELEASE_V1.0.2/MSDK/rtos/FreeRTOS/Source/portable/MemMang\heap_4.c **** 
 541:C:/Users/stapi/OneDrive/Desktop/GD32VW553/V1_MQTT_OK/GD32VW55X_Wifi_BLE_SDK/GD32VW55x_RELEASE_V1.0.2/MSDK/rtos/FreeRTOS/Source/portable/MemMang\heap_4.c ****     xTotalRegionSize = xSizeInBytes;
 542:C:/Users/stapi/OneDrive/Desktop/GD32VW553/V1_MQTT_OK/GD32VW55X_Wifi_BLE_SDK/GD32VW55x_RELEASE_V1.0.2/MSDK/rtos/FreeRTOS/Source/portable/MemMang\heap_4.c **** 
 543:C:/Users/stapi/OneDrive/Desktop/GD32VW553/V1_MQTT_OK/GD32VW55X_Wifi_BLE_SDK/GD32VW55x_RELEASE_V1.0.2/MSDK/rtos/FreeRTOS/Source/portable/MemMang\heap_4.c ****     /* Ensure the heap region starts on a correctly aligned boundary. */
 544:C:/Users/stapi/OneDrive/Desktop/GD32VW553/V1_MQTT_OK/GD32VW55X_Wifi_BLE_SDK/GD32VW55x_RELEASE_V1.0.2/MSDK/rtos/FreeRTOS/Source/portable/MemMang\heap_4.c ****     xAddress = ( size_t ) pucStartAddress;
 545:C:/Users/stapi/OneDrive/Desktop/GD32VW553/V1_MQTT_OK/GD32VW55X_Wifi_BLE_SDK/GD32VW55x_RELEASE_V1.0.2/MSDK/rtos/FreeRTOS/Source/portable/MemMang\heap_4.c ****     if( ( xAddress & portBYTE_ALIGNMENT_MASK ) != 0 )
 789              		.loc 1 545 20 is_stmt 0
 790 0008 13777500 		andi	a4,a0,7
 535:C:/Users/stapi/OneDrive/Desktop/GD32VW553/V1_MQTT_OK/GD32VW55X_Wifi_BLE_SDK/GD32VW55x_RELEASE_V1.0.2/MSDK/rtos/FreeRTOS/Source/portable/MemMang\heap_4.c ****     BlockLink_t *pxPreviousBlock, *pxBlock;
 791              		.loc 1 535 1
 792 000c AA84     		mv	s1,a0
 536:C:/Users/stapi/OneDrive/Desktop/GD32VW553/V1_MQTT_OK/GD32VW55X_Wifi_BLE_SDK/GD32VW55x_RELEASE_V1.0.2/MSDK/rtos/FreeRTOS/Source/portable/MemMang\heap_4.c ****     BlockLink_t *pxPreviousBlock, *pxBlock;
 793              		.loc 1 536 5 is_stmt 1
 537:C:/Users/stapi/OneDrive/Desktop/GD32VW553/V1_MQTT_OK/GD32VW55X_Wifi_BLE_SDK/GD32VW55x_RELEASE_V1.0.2/MSDK/rtos/FreeRTOS/Source/portable/MemMang\heap_4.c ****     size_t xTotalRegionSize;
 794              		.loc 1 537 5
 538:C:/Users/stapi/OneDrive/Desktop/GD32VW553/V1_MQTT_OK/GD32VW55X_Wifi_BLE_SDK/GD32VW55x_RELEASE_V1.0.2/MSDK/rtos/FreeRTOS/Source/portable/MemMang\heap_4.c ****     size_t xAlignedHeap;
 795              		.loc 1 538 5
 539:C:/Users/stapi/OneDrive/Desktop/GD32VW553/V1_MQTT_OK/GD32VW55X_Wifi_BLE_SDK/GD32VW55x_RELEASE_V1.0.2/MSDK/rtos/FreeRTOS/Source/portable/MemMang\heap_4.c **** 
 796              		.loc 1 539 5
 541:C:/Users/stapi/OneDrive/Desktop/GD32VW553/V1_MQTT_OK/GD32VW55X_Wifi_BLE_SDK/GD32VW55x_RELEASE_V1.0.2/MSDK/rtos/FreeRTOS/Source/portable/MemMang\heap_4.c **** 
 797              		.loc 1 541 5
 798              	.LVL59:
 544:C:/Users/stapi/OneDrive/Desktop/GD32VW553/V1_MQTT_OK/GD32VW55X_Wifi_BLE_SDK/GD32VW55x_RELEASE_V1.0.2/MSDK/rtos/FreeRTOS/Source/portable/MemMang\heap_4.c ****     if( ( xAddress & portBYTE_ALIGNMENT_MASK ) != 0 )
 799              		.loc 1 544 5
 800              		.loc 1 545 5
 801 000e B387A500 		add	a5,a1,a0
 802              		.loc 1 545 7 is_stmt 0
 803 0012 59C7     		beq	a4,zero,.L81
 546:C:/Users/stapi/OneDrive/Desktop/GD32VW553/V1_MQTT_OK/GD32VW55X_Wifi_BLE_SDK/GD32VW55x_RELEASE_V1.0.2/MSDK/rtos/FreeRTOS/Source/portable/MemMang\heap_4.c ****     {
 547:C:/Users/stapi/OneDrive/Desktop/GD32VW553/V1_MQTT_OK/GD32VW55X_Wifi_BLE_SDK/GD32VW55x_RELEASE_V1.0.2/MSDK/rtos/FreeRTOS/Source/portable/MemMang\heap_4.c ****         xAddress += ( portBYTE_ALIGNMENT - 1 );
 804              		.loc 1 547 9 is_stmt 1
 805              		.loc 1 547 18 is_stmt 0
 806 0014 13097500 		addi	s2,a0,7
 807              	.LVL60:
 548:C:/Users/stapi/OneDrive/Desktop/GD32VW553/V1_MQTT_OK/GD32VW55X_Wifi_BLE_SDK/GD32VW55x_RELEASE_V1.0.2/MSDK/rtos/FreeRTOS/Source/portable/MemMang\heap_4.c ****         xAddress &= ~portBYTE_ALIGNMENT_MASK;
 808              		.loc 1 548 9 is_stmt 1
 809              		.loc 1 548 18 is_stmt 0
 810 0018 137989FF 		andi	s2,s2,-8
 811              	.LVL61:
 549:C:/Users/stapi/OneDrive/Desktop/GD32VW553/V1_MQTT_OK/GD32VW55X_Wifi_BLE_SDK/GD32VW55x_RELEASE_V1.0.2/MSDK/rtos/FreeRTOS/Source/portable/MemMang\heap_4.c **** 
 550:C:/Users/stapi/OneDrive/Desktop/GD32VW553/V1_MQTT_OK/GD32VW55X_Wifi_BLE_SDK/GD32VW55x_RELEASE_V1.0.2/MSDK/rtos/FreeRTOS/Source/portable/MemMang\heap_4.c ****         /* Adjust the size for the bytes lost to alignment. */
 551:C:/Users/stapi/OneDrive/Desktop/GD32VW553/V1_MQTT_OK/GD32VW55X_Wifi_BLE_SDK/GD32VW55x_RELEASE_V1.0.2/MSDK/rtos/FreeRTOS/Source/portable/MemMang\heap_4.c ****         xTotalRegionSize -= xAddress - ( size_t ) pucStartAddress;
 812              		.loc 1 551 9 is_stmt 1
 813              		.loc 1 551 26 is_stmt 0
 814 001c 33842741 		sub	s0,a5,s2
 815              	.LVL62:
 816              	.L63:
 552:C:/Users/stapi/OneDrive/Desktop/GD32VW553/V1_MQTT_OK/GD32VW55X_Wifi_BLE_SDK/GD32VW55x_RELEASE_V1.0.2/MSDK/rtos/FreeRTOS/Source/portable/MemMang\heap_4.c ****     }
 553:C:/Users/stapi/OneDrive/Desktop/GD32VW553/V1_MQTT_OK/GD32VW55X_Wifi_BLE_SDK/GD32VW55x_RELEASE_V1.0.2/MSDK/rtos/FreeRTOS/Source/portable/MemMang\heap_4.c **** 
 554:C:/Users/stapi/OneDrive/Desktop/GD32VW553/V1_MQTT_OK/GD32VW55X_Wifi_BLE_SDK/GD32VW55x_RELEASE_V1.0.2/MSDK/rtos/FreeRTOS/Source/portable/MemMang\heap_4.c ****     xAlignedHeap = xAddress;
 817              		.loc 1 554 5 is_stmt 1
 555:C:/Users/stapi/OneDrive/Desktop/GD32VW553/V1_MQTT_OK/GD32VW55X_Wifi_BLE_SDK/GD32VW55x_RELEASE_V1.0.2/MSDK/rtos/FreeRTOS/Source/portable/MemMang\heap_4.c **** 
 556:C:/Users/stapi/OneDrive/Desktop/GD32VW553/V1_MQTT_OK/GD32VW55X_Wifi_BLE_SDK/GD32VW55x_RELEASE_V1.0.2/MSDK/rtos/FreeRTOS/Source/portable/MemMang\heap_4.c ****     if (xAlignedHeap + xTotalRegionSize - xHeapStructSize != (uint32_t)pxEnd) {
 818              		.loc 1 556 5
 819              		.loc 1 556 41 is_stmt 0
 820 0020 138787FF 		addi	a4,a5,-8
 821              		.loc 1 556 59
 822 0024 B7070000 		lui	a5,%hi(.LANCHOR1)
 823              		.loc 1 556 8
 824 0028 83A60700 		lw	a3,%lo(.LANCHOR1)(a5)
 825 002c 93890700 		addi	s3,a5,%lo(.LANCHOR1)
 826 0030 639BE608 		bne	a3,a4,.L62
 557:C:/Users/stapi/OneDrive/Desktop/GD32VW553/V1_MQTT_OK/GD32VW55X_Wifi_BLE_SDK/GD32VW55x_RELEASE_V1.0.2/MSDK/rtos/FreeRTOS/Source/portable/MemMang\heap_4.c ****         return;
 558:C:/Users/stapi/OneDrive/Desktop/GD32VW553/V1_MQTT_OK/GD32VW55X_Wifi_BLE_SDK/GD32VW55x_RELEASE_V1.0.2/MSDK/rtos/FreeRTOS/Source/portable/MemMang\heap_4.c ****     }
 559:C:/Users/stapi/OneDrive/Desktop/GD32VW553/V1_MQTT_OK/GD32VW55X_Wifi_BLE_SDK/GD32VW55x_RELEASE_V1.0.2/MSDK/rtos/FreeRTOS/Source/portable/MemMang\heap_4.c **** 
 560:C:/Users/stapi/OneDrive/Desktop/GD32VW553/V1_MQTT_OK/GD32VW55X_Wifi_BLE_SDK/GD32VW55x_RELEASE_V1.0.2/MSDK/rtos/FreeRTOS/Source/portable/MemMang\heap_4.c ****     if (pxEndPrevious == NULL) {
 827              		.loc 1 560 5 is_stmt 1
 828              		.loc 1 560 23 is_stmt 0
 829 0034 B7070000 		lui	a5,%hi(.LANCHOR8)
 830              		.loc 1 560 8
 831 0038 03A70700 		lw	a4,%lo(.LANCHOR8)(a5)
 832 003c 138A0700 		addi	s4,a5,%lo(.LANCHOR8)
 833 0040 59C3     		beq	a4,zero,.L62
 561:C:/Users/stapi/OneDrive/Desktop/GD32VW553/V1_MQTT_OK/GD32VW55X_Wifi_BLE_SDK/GD32VW55x_RELEASE_V1.0.2/MSDK/rtos/FreeRTOS/Source/portable/MemMang\heap_4.c ****         return;
 562:C:/Users/stapi/OneDrive/Desktop/GD32VW553/V1_MQTT_OK/GD32VW55X_Wifi_BLE_SDK/GD32VW55x_RELEASE_V1.0.2/MSDK/rtos/FreeRTOS/Source/portable/MemMang\heap_4.c ****     }
 563:C:/Users/stapi/OneDrive/Desktop/GD32VW553/V1_MQTT_OK/GD32VW55X_Wifi_BLE_SDK/GD32VW55x_RELEASE_V1.0.2/MSDK/rtos/FreeRTOS/Source/portable/MemMang\heap_4.c **** 
 564:C:/Users/stapi/OneDrive/Desktop/GD32VW553/V1_MQTT_OK/GD32VW55X_Wifi_BLE_SDK/GD32VW55x_RELEASE_V1.0.2/MSDK/rtos/FreeRTOS/Source/portable/MemMang\heap_4.c ****     vPortEnterCritical();
 834              		.loc 1 564 5 is_stmt 1
 835 0042 97000000 		call	vPortEnterCritical
 835      E7800000 
 836              	.LVL63:
 565:C:/Users/stapi/OneDrive/Desktop/GD32VW553/V1_MQTT_OK/GD32VW55X_Wifi_BLE_SDK/GD32VW55x_RELEASE_V1.0.2/MSDK/rtos/FreeRTOS/Source/portable/MemMang\heap_4.c ****     pxPreviousBlock = &xStart;
 837              		.loc 1 565 5
 566:C:/Users/stapi/OneDrive/Desktop/GD32VW553/V1_MQTT_OK/GD32VW55X_Wifi_BLE_SDK/GD32VW55x_RELEASE_V1.0.2/MSDK/rtos/FreeRTOS/Source/portable/MemMang\heap_4.c ****     pxBlock = xStart.pxNextFreeBlock;
 838              		.loc 1 566 5
 839              		.loc 1 566 13 is_stmt 0
 840 004a 37070000 		lui	a4,%hi(.LANCHOR0)
 841 004e 83270700 		lw	a5,%lo(.LANCHOR0)(a4)
 842              	.LVL64:
 567:C:/Users/stapi/OneDrive/Desktop/GD32VW553/V1_MQTT_OK/GD32VW55X_Wifi_BLE_SDK/GD32VW55x_RELEASE_V1.0.2/MSDK/rtos/FreeRTOS/Source/portable/MemMang\heap_4.c ****     while ( pxBlock && ( size_t )pxBlock != xAlignedHeap ) {
 843              		.loc 1 567 5 is_stmt 1
 565:C:/Users/stapi/OneDrive/Desktop/GD32VW553/V1_MQTT_OK/GD32VW55X_Wifi_BLE_SDK/GD32VW55x_RELEASE_V1.0.2/MSDK/rtos/FreeRTOS/Source/portable/MemMang\heap_4.c ****     pxPreviousBlock = &xStart;
 844              		.loc 1 565 21 is_stmt 0
 845 0052 13070700 		addi	a4,a4,%lo(.LANCHOR0)
 846              	.LVL65:
 847              	.L65:
 848              		.loc 1 567 11 is_stmt 1
 849 0056 B9CB     		beq	a5,zero,.L66
 850              		.loc 1 567 21 is_stmt 0 discriminator 1
 851 0058 63972705 		bne	a5,s2,.L67
 568:C:/Users/stapi/OneDrive/Desktop/GD32VW553/V1_MQTT_OK/GD32VW55X_Wifi_BLE_SDK/GD32VW55x_RELEASE_V1.0.2/MSDK/rtos/FreeRTOS/Source/portable/MemMang\heap_4.c ****         pxPreviousBlock = pxBlock;
 569:C:/Users/stapi/OneDrive/Desktop/GD32VW553/V1_MQTT_OK/GD32VW55X_Wifi_BLE_SDK/GD32VW55x_RELEASE_V1.0.2/MSDK/rtos/FreeRTOS/Source/portable/MemMang\heap_4.c ****         pxBlock = pxBlock->pxNextFreeBlock;
 570:C:/Users/stapi/OneDrive/Desktop/GD32VW553/V1_MQTT_OK/GD32VW55X_Wifi_BLE_SDK/GD32VW55x_RELEASE_V1.0.2/MSDK/rtos/FreeRTOS/Source/portable/MemMang\heap_4.c ****     }
 571:C:/Users/stapi/OneDrive/Desktop/GD32VW553/V1_MQTT_OK/GD32VW55X_Wifi_BLE_SDK/GD32VW55x_RELEASE_V1.0.2/MSDK/rtos/FreeRTOS/Source/portable/MemMang\heap_4.c **** 
 572:C:/Users/stapi/OneDrive/Desktop/GD32VW553/V1_MQTT_OK/GD32VW55X_Wifi_BLE_SDK/GD32VW55x_RELEASE_V1.0.2/MSDK/rtos/FreeRTOS/Source/portable/MemMang\heap_4.c ****     configASSERT(pxBlock != NULL);
 852              		.loc 1 572 34 is_stmt 1
 573:C:/Users/stapi/OneDrive/Desktop/GD32VW553/V1_MQTT_OK/GD32VW55X_Wifi_BLE_SDK/GD32VW55x_RELEASE_V1.0.2/MSDK/rtos/FreeRTOS/Source/portable/MemMang\heap_4.c ****     configASSERT(pxBlock->xBlockSize == xTotalRegionSize - xHeapStructSize);
 853              		.loc 1 573 76
 574:C:/Users/stapi/OneDrive/Desktop/GD32VW553/V1_MQTT_OK/GD32VW55X_Wifi_BLE_SDK/GD32VW55x_RELEASE_V1.0.2/MSDK/rtos/FreeRTOS/Source/portable/MemMang\heap_4.c ****     if (pxBlock == NULL || (pxBlock->xBlockSize != xTotalRegionSize - xHeapStructSize)) {
 854              		.loc 1 574 5
 855              		.loc 1 574 36 is_stmt 0
 856 005c DC43     		lw	a5,4(a5)
 857              	.LVL66:
 858              		.loc 1 574 69
 859 005e 6114     		addi	s0,s0,-8
 860              	.LVL67:
 861              		.loc 1 574 25
 862 0060 63968704 		bne	a5,s0,.L66
 575:C:/Users/stapi/OneDrive/Desktop/GD32VW553/V1_MQTT_OK/GD32VW55X_Wifi_BLE_SDK/GD32VW55x_RELEASE_V1.0.2/MSDK/rtos/FreeRTOS/Source/portable/MemMang\heap_4.c ****         printf("Please free allocated memory from region %x before removing region.\r\n", pucStartA
 576:C:/Users/stapi/OneDrive/Desktop/GD32VW553/V1_MQTT_OK/GD32VW55X_Wifi_BLE_SDK/GD32VW55x_RELEASE_V1.0.2/MSDK/rtos/FreeRTOS/Source/portable/MemMang\heap_4.c ****         vPortExitCritical();
 577:C:/Users/stapi/OneDrive/Desktop/GD32VW553/V1_MQTT_OK/GD32VW55X_Wifi_BLE_SDK/GD32VW55x_RELEASE_V1.0.2/MSDK/rtos/FreeRTOS/Source/portable/MemMang\heap_4.c ****         return;
 578:C:/Users/stapi/OneDrive/Desktop/GD32VW553/V1_MQTT_OK/GD32VW55X_Wifi_BLE_SDK/GD32VW55x_RELEASE_V1.0.2/MSDK/rtos/FreeRTOS/Source/portable/MemMang\heap_4.c ****     }
 579:C:/Users/stapi/OneDrive/Desktop/GD32VW553/V1_MQTT_OK/GD32VW55X_Wifi_BLE_SDK/GD32VW55x_RELEASE_V1.0.2/MSDK/rtos/FreeRTOS/Source/portable/MemMang\heap_4.c **** 
 580:C:/Users/stapi/OneDrive/Desktop/GD32VW553/V1_MQTT_OK/GD32VW55X_Wifi_BLE_SDK/GD32VW55x_RELEASE_V1.0.2/MSDK/rtos/FreeRTOS/Source/portable/MemMang\heap_4.c ****     // printf("Remove: xAlignedHeap = %x, xTotalRegionSize = %x, pxEnd = %p, pxEndPrevious = %p\r\n
 581:C:/Users/stapi/OneDrive/Desktop/GD32VW553/V1_MQTT_OK/GD32VW55X_Wifi_BLE_SDK/GD32VW55x_RELEASE_V1.0.2/MSDK/rtos/FreeRTOS/Source/portable/MemMang\heap_4.c ****     //       xAlignedHeap, xTotalRegionSize, pxEnd, pxEndPrevious);
 582:C:/Users/stapi/OneDrive/Desktop/GD32VW553/V1_MQTT_OK/GD32VW55X_Wifi_BLE_SDK/GD32VW55x_RELEASE_V1.0.2/MSDK/rtos/FreeRTOS/Source/portable/MemMang\heap_4.c ****     pxPreviousBlock->pxNextFreeBlock = pxEndPrevious;
 863              		.loc 1 582 5 is_stmt 1
 864              		.loc 1 582 38 is_stmt 0
 865 0064 83260A00 		lw	a3,0(s4)
 866 0068 14C3     		sw	a3,0(a4)
 583:C:/Users/stapi/OneDrive/Desktop/GD32VW553/V1_MQTT_OK/GD32VW55X_Wifi_BLE_SDK/GD32VW55x_RELEASE_V1.0.2/MSDK/rtos/FreeRTOS/Source/portable/MemMang\heap_4.c ****     pxEnd = pxEndPrevious;
 867              		.loc 1 583 5 is_stmt 1
 584:C:/Users/stapi/OneDrive/Desktop/GD32VW553/V1_MQTT_OK/GD32VW55X_Wifi_BLE_SDK/GD32VW55x_RELEASE_V1.0.2/MSDK/rtos/FreeRTOS/Source/portable/MemMang\heap_4.c ****     pxEnd->pxNextFreeBlock = NULL;
 585:C:/Users/stapi/OneDrive/Desktop/GD32VW553/V1_MQTT_OK/GD32VW55X_Wifi_BLE_SDK/GD32VW55x_RELEASE_V1.0.2/MSDK/rtos/FreeRTOS/Source/portable/MemMang\heap_4.c **** 
 586:C:/Users/stapi/OneDrive/Desktop/GD32VW553/V1_MQTT_OK/GD32VW55X_Wifi_BLE_SDK/GD32VW55x_RELEASE_V1.0.2/MSDK/rtos/FreeRTOS/Source/portable/MemMang\heap_4.c ****     xTotalHeapSize -= pxBlock->xBlockSize;
 868              		.loc 1 586 20 is_stmt 0
 869 006a 37070000 		lui	a4,%hi(.LANCHOR2)
 870              	.LVL68:
 871 006e 13070700 		addi	a4,a4,%lo(.LANCHOR2)
 583:C:/Users/stapi/OneDrive/Desktop/GD32VW553/V1_MQTT_OK/GD32VW55X_Wifi_BLE_SDK/GD32VW55x_RELEASE_V1.0.2/MSDK/rtos/FreeRTOS/Source/portable/MemMang\heap_4.c ****     pxEnd = pxEndPrevious;
 872              		.loc 1 583 11
 873 0072 23A0D900 		sw	a3,0(s3)
 584:C:/Users/stapi/OneDrive/Desktop/GD32VW553/V1_MQTT_OK/GD32VW55X_Wifi_BLE_SDK/GD32VW55x_RELEASE_V1.0.2/MSDK/rtos/FreeRTOS/Source/portable/MemMang\heap_4.c ****     pxEnd->pxNextFreeBlock = NULL;
 874              		.loc 1 584 5 is_stmt 1
 584:C:/Users/stapi/OneDrive/Desktop/GD32VW553/V1_MQTT_OK/GD32VW55X_Wifi_BLE_SDK/GD32VW55x_RELEASE_V1.0.2/MSDK/rtos/FreeRTOS/Source/portable/MemMang\heap_4.c ****     pxEnd->pxNextFreeBlock = NULL;
 875              		.loc 1 584 28 is_stmt 0
 876 0076 23A00600 		sw	zero,0(a3)
 877              		.loc 1 586 5 is_stmt 1
 878              		.loc 1 586 20 is_stmt 0
 879 007a 1443     		lw	a3,0(a4)
 880 007c 9D8E     		sub	a3,a3,a5
 881 007e 14C3     		sw	a3,0(a4)
 587:C:/Users/stapi/OneDrive/Desktop/GD32VW553/V1_MQTT_OK/GD32VW55X_Wifi_BLE_SDK/GD32VW55x_RELEASE_V1.0.2/MSDK/rtos/FreeRTOS/Source/portable/MemMang\heap_4.c ****     xMinimumEverFreeBytesRemaining -= pxBlock->xBlockSize;
 882              		.loc 1 587 5 is_stmt 1
 883              		.loc 1 587 36 is_stmt 0
 884 0080 37070000 		lui	a4,%hi(.LANCHOR3)
 885 0084 13070700 		addi	a4,a4,%lo(.LANCHOR3)
 886 0088 1443     		lw	a3,0(a4)
 887 008a 9D8E     		sub	a3,a3,a5
 888 008c 14C3     		sw	a3,0(a4)
 588:C:/Users/stapi/OneDrive/Desktop/GD32VW553/V1_MQTT_OK/GD32VW55X_Wifi_BLE_SDK/GD32VW55x_RELEASE_V1.0.2/MSDK/rtos/FreeRTOS/Source/portable/MemMang\heap_4.c ****     xFreeBytesRemaining -= pxBlock->xBlockSize;
 889              		.loc 1 588 5 is_stmt 1
 890              		.loc 1 588 25 is_stmt 0
 891 008e 37070000 		lui	a4,%hi(.LANCHOR4)
 892 0092 13070700 		addi	a4,a4,%lo(.LANCHOR4)
 893 0096 1443     		lw	a3,0(a4)
 894 0098 B387F640 		sub	a5,a3,a5
 895 009c 1CC3     		sw	a5,0(a4)
 896 009e 05A0     		j	.L83
 897              	.LVL69:
 898              	.L81:
 899 00a0 2E84     		mv	s0,a1
 900 00a2 2A89     		mv	s2,a0
 901 00a4 B5BF     		j	.L63
 902              	.LVL70:
 903              	.L67:
 568:C:/Users/stapi/OneDrive/Desktop/GD32VW553/V1_MQTT_OK/GD32VW55X_Wifi_BLE_SDK/GD32VW55x_RELEASE_V1.0.2/MSDK/rtos/FreeRTOS/Source/portable/MemMang\heap_4.c ****         pxBlock = pxBlock->pxNextFreeBlock;
 904              		.loc 1 568 9 is_stmt 1
 569:C:/Users/stapi/OneDrive/Desktop/GD32VW553/V1_MQTT_OK/GD32VW55X_Wifi_BLE_SDK/GD32VW55x_RELEASE_V1.0.2/MSDK/rtos/FreeRTOS/Source/portable/MemMang\heap_4.c ****     }
 905              		.loc 1 569 9
 569:C:/Users/stapi/OneDrive/Desktop/GD32VW553/V1_MQTT_OK/GD32VW55X_Wifi_BLE_SDK/GD32VW55x_RELEASE_V1.0.2/MSDK/rtos/FreeRTOS/Source/portable/MemMang\heap_4.c ****     }
 906              		.loc 1 569 17 is_stmt 0
 907 00a6 3E87     		mv	a4,a5
 908 00a8 9C43     		lw	a5,0(a5)
 909              	.LVL71:
 910 00aa 75B7     		j	.L65
 911              	.LVL72:
 912              	.L66:
 575:C:/Users/stapi/OneDrive/Desktop/GD32VW553/V1_MQTT_OK/GD32VW55X_Wifi_BLE_SDK/GD32VW55x_RELEASE_V1.0.2/MSDK/rtos/FreeRTOS/Source/portable/MemMang\heap_4.c ****         vPortExitCritical();
 913              		.loc 1 575 9 is_stmt 1
 914 00ac 37050000 		lui	a0,%hi(.LC1)
 915 00b0 A685     		mv	a1,s1
 916 00b2 13050500 		addi	a0,a0,%lo(.LC1)
 917 00b6 97000000 		call	printf
 917      E7800000 
 918              	.LVL73:
 576:C:/Users/stapi/OneDrive/Desktop/GD32VW553/V1_MQTT_OK/GD32VW55X_Wifi_BLE_SDK/GD32VW55x_RELEASE_V1.0.2/MSDK/rtos/FreeRTOS/Source/portable/MemMang\heap_4.c ****         return;
 919              		.loc 1 576 9
 920              	.L83:
 589:C:/Users/stapi/OneDrive/Desktop/GD32VW553/V1_MQTT_OK/GD32VW55X_Wifi_BLE_SDK/GD32VW55x_RELEASE_V1.0.2/MSDK/rtos/FreeRTOS/Source/portable/MemMang\heap_4.c **** 
 590:C:/Users/stapi/OneDrive/Desktop/GD32VW553/V1_MQTT_OK/GD32VW55X_Wifi_BLE_SDK/GD32VW55x_RELEASE_V1.0.2/MSDK/rtos/FreeRTOS/Source/portable/MemMang\heap_4.c ****     vPortExitCritical();
 921              		.loc 1 590 5
 922 00be 97000000 		call	vPortExitCritical
 922      E7800000 
 923              	.LVL74:
 924              	.L62:
 591:C:/Users/stapi/OneDrive/Desktop/GD32VW553/V1_MQTT_OK/GD32VW55X_Wifi_BLE_SDK/GD32VW55x_RELEASE_V1.0.2/MSDK/rtos/FreeRTOS/Source/portable/MemMang\heap_4.c **** }
 925              		.loc 1 591 1 is_stmt 0
 926 00c6 17030000 		tail	__riscv_restore_5
 926      67000300 
 927              		.cfi_restore 20
 928              		.cfi_restore 19
 929              		.cfi_restore 18
 930              		.cfi_restore 9
 931              		.cfi_restore 8
 932              		.cfi_restore 1
 933              		.cfi_def_cfa_offset 0
 934              		.cfi_endproc
 935              	.LFE15:
 937              		.section	.text.pvPortReAlloc,"ax",@progbits
 938              		.align	1
 939              		.globl	pvPortReAlloc
 941              	pvPortReAlloc:
 942              	.LFB16:
 592:C:/Users/stapi/OneDrive/Desktop/GD32VW553/V1_MQTT_OK/GD32VW55X_Wifi_BLE_SDK/GD32VW55x_RELEASE_V1.0.2/MSDK/rtos/FreeRTOS/Source/portable/MemMang\heap_4.c **** 
 593:C:/Users/stapi/OneDrive/Desktop/GD32VW553/V1_MQTT_OK/GD32VW55X_Wifi_BLE_SDK/GD32VW55x_RELEASE_V1.0.2/MSDK/rtos/FreeRTOS/Source/portable/MemMang\heap_4.c **** /*!
 594:C:/Users/stapi/OneDrive/Desktop/GD32VW553/V1_MQTT_OK/GD32VW55X_Wifi_BLE_SDK/GD32VW55x_RELEASE_V1.0.2/MSDK/rtos/FreeRTOS/Source/portable/MemMang\heap_4.c ****     \brief      reallocate the specified size of memory
 595:C:/Users/stapi/OneDrive/Desktop/GD32VW553/V1_MQTT_OK/GD32VW55X_Wifi_BLE_SDK/GD32VW55x_RELEASE_V1.0.2/MSDK/rtos/FreeRTOS/Source/portable/MemMang\heap_4.c ****     \param[in]  pv: the pointer of the memory address that has been acquired
 596:C:/Users/stapi/OneDrive/Desktop/GD32VW553/V1_MQTT_OK/GD32VW55X_Wifi_BLE_SDK/GD32VW55x_RELEASE_V1.0.2/MSDK/rtos/FreeRTOS/Source/portable/MemMang\heap_4.c ****     \param[in]  xWantedSize: size of memory required
 597:C:/Users/stapi/OneDrive/Desktop/GD32VW553/V1_MQTT_OK/GD32VW55X_Wifi_BLE_SDK/GD32VW55x_RELEASE_V1.0.2/MSDK/rtos/FreeRTOS/Source/portable/MemMang\heap_4.c ****     \param[out] none
 598:C:/Users/stapi/OneDrive/Desktop/GD32VW553/V1_MQTT_OK/GD32VW55X_Wifi_BLE_SDK/GD32VW55x_RELEASE_V1.0.2/MSDK/rtos/FreeRTOS/Source/portable/MemMang\heap_4.c ****     \retval     none
 599:C:/Users/stapi/OneDrive/Desktop/GD32VW553/V1_MQTT_OK/GD32VW55X_Wifi_BLE_SDK/GD32VW55x_RELEASE_V1.0.2/MSDK/rtos/FreeRTOS/Source/portable/MemMang\heap_4.c **** */
 600:C:/Users/stapi/OneDrive/Desktop/GD32VW553/V1_MQTT_OK/GD32VW55X_Wifi_BLE_SDK/GD32VW55x_RELEASE_V1.0.2/MSDK/rtos/FreeRTOS/Source/portable/MemMang\heap_4.c **** void *pvPortReAlloc( void *pv,  size_t xWantedSize )
 601:C:/Users/stapi/OneDrive/Desktop/GD32VW553/V1_MQTT_OK/GD32VW55X_Wifi_BLE_SDK/GD32VW55x_RELEASE_V1.0.2/MSDK/rtos/FreeRTOS/Source/portable/MemMang\heap_4.c **** {
 943              		.loc 1 601 1 is_stmt 1
 944              		.cfi_startproc
 945              	.LVL75:
 946 0000 17030000 		call	t0,__riscv_save_4
 946      E7020300 
 947              		.cfi_offset 19, -20
 948              		.cfi_offset 18, -16
 949              		.cfi_offset 9, -12
 950              		.cfi_offset 8, -8
 951              		.cfi_offset 1, -4
 952              		.cfi_def_cfa_offset 32
 602:C:/Users/stapi/OneDrive/Desktop/GD32VW553/V1_MQTT_OK/GD32VW55X_Wifi_BLE_SDK/GD32VW55x_RELEASE_V1.0.2/MSDK/rtos/FreeRTOS/Source/portable/MemMang\heap_4.c ****     BlockLink_t *pxLink;
 953              		.loc 1 602 5
 603:C:/Users/stapi/OneDrive/Desktop/GD32VW553/V1_MQTT_OK/GD32VW55X_Wifi_BLE_SDK/GD32VW55x_RELEASE_V1.0.2/MSDK/rtos/FreeRTOS/Source/portable/MemMang\heap_4.c ****     unsigned char *puc = ( unsigned char * ) pv;
 954              		.loc 1 603 5
 955              	.LVL76:
 604:C:/Users/stapi/OneDrive/Desktop/GD32VW553/V1_MQTT_OK/GD32VW55X_Wifi_BLE_SDK/GD32VW55x_RELEASE_V1.0.2/MSDK/rtos/FreeRTOS/Source/portable/MemMang\heap_4.c ****     void *newArea = NULL;
 956              		.loc 1 604 5
 605:C:/Users/stapi/OneDrive/Desktop/GD32VW553/V1_MQTT_OK/GD32VW55X_Wifi_BLE_SDK/GD32VW55x_RELEASE_V1.0.2/MSDK/rtos/FreeRTOS/Source/portable/MemMang\heap_4.c **** 
 606:C:/Users/stapi/OneDrive/Desktop/GD32VW553/V1_MQTT_OK/GD32VW55X_Wifi_BLE_SDK/GD32VW55x_RELEASE_V1.0.2/MSDK/rtos/FreeRTOS/Source/portable/MemMang\heap_4.c ****     if( pv )
 957              		.loc 1 606 5
 601:C:/Users/stapi/OneDrive/Desktop/GD32VW553/V1_MQTT_OK/GD32VW55X_Wifi_BLE_SDK/GD32VW55x_RELEASE_V1.0.2/MSDK/rtos/FreeRTOS/Source/portable/MemMang\heap_4.c ****     BlockLink_t *pxLink;
 958              		.loc 1 601 1 is_stmt 0
 959 0008 2E89     		mv	s2,a1
 960              		.loc 1 606 7
 961 000a 41C5     		beq	a0,zero,.L85
 607:C:/Users/stapi/OneDrive/Desktop/GD32VW553/V1_MQTT_OK/GD32VW55X_Wifi_BLE_SDK/GD32VW55x_RELEASE_V1.0.2/MSDK/rtos/FreeRTOS/Source/portable/MemMang\heap_4.c ****     {
 608:C:/Users/stapi/OneDrive/Desktop/GD32VW553/V1_MQTT_OK/GD32VW55X_Wifi_BLE_SDK/GD32VW55x_RELEASE_V1.0.2/MSDK/rtos/FreeRTOS/Source/portable/MemMang\heap_4.c ****         if( !xWantedSize )
 962              		.loc 1 608 9 is_stmt 1
 963              		.loc 1 608 11 is_stmt 0
 964 000c 99E9     		bne	a1,zero,.L86
 609:C:/Users/stapi/OneDrive/Desktop/GD32VW553/V1_MQTT_OK/GD32VW55X_Wifi_BLE_SDK/GD32VW55x_RELEASE_V1.0.2/MSDK/rtos/FreeRTOS/Source/portable/MemMang\heap_4.c ****         {
 610:C:/Users/stapi/OneDrive/Desktop/GD32VW553/V1_MQTT_OK/GD32VW55X_Wifi_BLE_SDK/GD32VW55x_RELEASE_V1.0.2/MSDK/rtos/FreeRTOS/Source/portable/MemMang\heap_4.c ****             vPortFree( pv );
 965              		.loc 1 610 13 is_stmt 1
 966 000e 97000000 		call	vPortFree
 966      E7800000 
 967              	.LVL77:
 611:C:/Users/stapi/OneDrive/Desktop/GD32VW553/V1_MQTT_OK/GD32VW55X_Wifi_BLE_SDK/GD32VW55x_RELEASE_V1.0.2/MSDK/rtos/FreeRTOS/Source/portable/MemMang\heap_4.c ****             goto exit;
 968              		.loc 1 611 13
 604:C:/Users/stapi/OneDrive/Desktop/GD32VW553/V1_MQTT_OK/GD32VW55X_Wifi_BLE_SDK/GD32VW55x_RELEASE_V1.0.2/MSDK/rtos/FreeRTOS/Source/portable/MemMang\heap_4.c **** 
 969              		.loc 1 604 11 is_stmt 0
 970 0016 0144     		li	s0,0
 971              	.LVL78:
 972              	.L84:
 612:C:/Users/stapi/OneDrive/Desktop/GD32VW553/V1_MQTT_OK/GD32VW55X_Wifi_BLE_SDK/GD32VW55x_RELEASE_V1.0.2/MSDK/rtos/FreeRTOS/Source/portable/MemMang\heap_4.c ****         }
 613:C:/Users/stapi/OneDrive/Desktop/GD32VW553/V1_MQTT_OK/GD32VW55X_Wifi_BLE_SDK/GD32VW55x_RELEASE_V1.0.2/MSDK/rtos/FreeRTOS/Source/portable/MemMang\heap_4.c **** 
 614:C:/Users/stapi/OneDrive/Desktop/GD32VW553/V1_MQTT_OK/GD32VW55X_Wifi_BLE_SDK/GD32VW55x_RELEASE_V1.0.2/MSDK/rtos/FreeRTOS/Source/portable/MemMang\heap_4.c ****         newArea = pvPortMalloc( xWantedSize );
 615:C:/Users/stapi/OneDrive/Desktop/GD32VW553/V1_MQTT_OK/GD32VW55X_Wifi_BLE_SDK/GD32VW55x_RELEASE_V1.0.2/MSDK/rtos/FreeRTOS/Source/portable/MemMang\heap_4.c ****         if( newArea )
 616:C:/Users/stapi/OneDrive/Desktop/GD32VW553/V1_MQTT_OK/GD32VW55X_Wifi_BLE_SDK/GD32VW55x_RELEASE_V1.0.2/MSDK/rtos/FreeRTOS/Source/portable/MemMang\heap_4.c ****         {
 617:C:/Users/stapi/OneDrive/Desktop/GD32VW553/V1_MQTT_OK/GD32VW55X_Wifi_BLE_SDK/GD32VW55x_RELEASE_V1.0.2/MSDK/rtos/FreeRTOS/Source/portable/MemMang\heap_4.c ****             int oldSize, copySize;
 618:C:/Users/stapi/OneDrive/Desktop/GD32VW553/V1_MQTT_OK/GD32VW55X_Wifi_BLE_SDK/GD32VW55x_RELEASE_V1.0.2/MSDK/rtos/FreeRTOS/Source/portable/MemMang\heap_4.c ****             /* The memory being freed will have an xBlockLink structure immediately
 619:C:/Users/stapi/OneDrive/Desktop/GD32VW553/V1_MQTT_OK/GD32VW55X_Wifi_BLE_SDK/GD32VW55x_RELEASE_V1.0.2/MSDK/rtos/FreeRTOS/Source/portable/MemMang\heap_4.c ****             before it. */
 620:C:/Users/stapi/OneDrive/Desktop/GD32VW553/V1_MQTT_OK/GD32VW55X_Wifi_BLE_SDK/GD32VW55x_RELEASE_V1.0.2/MSDK/rtos/FreeRTOS/Source/portable/MemMang\heap_4.c ****             puc -= xHeapStructSize;
 621:C:/Users/stapi/OneDrive/Desktop/GD32VW553/V1_MQTT_OK/GD32VW55X_Wifi_BLE_SDK/GD32VW55x_RELEASE_V1.0.2/MSDK/rtos/FreeRTOS/Source/portable/MemMang\heap_4.c **** 
 622:C:/Users/stapi/OneDrive/Desktop/GD32VW553/V1_MQTT_OK/GD32VW55X_Wifi_BLE_SDK/GD32VW55x_RELEASE_V1.0.2/MSDK/rtos/FreeRTOS/Source/portable/MemMang\heap_4.c ****             /* This casting is to keep the compiler from issuing warnings. */
 623:C:/Users/stapi/OneDrive/Desktop/GD32VW553/V1_MQTT_OK/GD32VW55X_Wifi_BLE_SDK/GD32VW55x_RELEASE_V1.0.2/MSDK/rtos/FreeRTOS/Source/portable/MemMang\heap_4.c ****             pxLink = ( void *) puc;
 624:C:/Users/stapi/OneDrive/Desktop/GD32VW553/V1_MQTT_OK/GD32VW55X_Wifi_BLE_SDK/GD32VW55x_RELEASE_V1.0.2/MSDK/rtos/FreeRTOS/Source/portable/MemMang\heap_4.c **** 
 625:C:/Users/stapi/OneDrive/Desktop/GD32VW553/V1_MQTT_OK/GD32VW55X_Wifi_BLE_SDK/GD32VW55x_RELEASE_V1.0.2/MSDK/rtos/FreeRTOS/Source/portable/MemMang\heap_4.c ****             oldSize =  (pxLink->xBlockSize & ~xBlockAllocatedBit) - xHeapStructSize;
 626:C:/Users/stapi/OneDrive/Desktop/GD32VW553/V1_MQTT_OK/GD32VW55X_Wifi_BLE_SDK/GD32VW55x_RELEASE_V1.0.2/MSDK/rtos/FreeRTOS/Source/portable/MemMang\heap_4.c ****             copySize = ( oldSize < xWantedSize ) ? oldSize : xWantedSize;
 627:C:/Users/stapi/OneDrive/Desktop/GD32VW553/V1_MQTT_OK/GD32VW55X_Wifi_BLE_SDK/GD32VW55x_RELEASE_V1.0.2/MSDK/rtos/FreeRTOS/Source/portable/MemMang\heap_4.c ****             memcpy( newArea, pv, copySize );
 628:C:/Users/stapi/OneDrive/Desktop/GD32VW553/V1_MQTT_OK/GD32VW55X_Wifi_BLE_SDK/GD32VW55x_RELEASE_V1.0.2/MSDK/rtos/FreeRTOS/Source/portable/MemMang\heap_4.c **** 
 629:C:/Users/stapi/OneDrive/Desktop/GD32VW553/V1_MQTT_OK/GD32VW55X_Wifi_BLE_SDK/GD32VW55x_RELEASE_V1.0.2/MSDK/rtos/FreeRTOS/Source/portable/MemMang\heap_4.c ****             vTaskSuspendAll();
 630:C:/Users/stapi/OneDrive/Desktop/GD32VW553/V1_MQTT_OK/GD32VW55X_Wifi_BLE_SDK/GD32VW55x_RELEASE_V1.0.2/MSDK/rtos/FreeRTOS/Source/portable/MemMang\heap_4.c ****             {
 631:C:/Users/stapi/OneDrive/Desktop/GD32VW553/V1_MQTT_OK/GD32VW55X_Wifi_BLE_SDK/GD32VW55x_RELEASE_V1.0.2/MSDK/rtos/FreeRTOS/Source/portable/MemMang\heap_4.c ****                 /* Add this block to the list of free blocks. */
 632:C:/Users/stapi/OneDrive/Desktop/GD32VW553/V1_MQTT_OK/GD32VW55X_Wifi_BLE_SDK/GD32VW55x_RELEASE_V1.0.2/MSDK/rtos/FreeRTOS/Source/portable/MemMang\heap_4.c ****                 pxLink->xBlockSize &= ~xBlockAllocatedBit;
 633:C:/Users/stapi/OneDrive/Desktop/GD32VW553/V1_MQTT_OK/GD32VW55X_Wifi_BLE_SDK/GD32VW55x_RELEASE_V1.0.2/MSDK/rtos/FreeRTOS/Source/portable/MemMang\heap_4.c ****                 xFreeBytesRemaining += pxLink->xBlockSize;
 634:C:/Users/stapi/OneDrive/Desktop/GD32VW553/V1_MQTT_OK/GD32VW55X_Wifi_BLE_SDK/GD32VW55x_RELEASE_V1.0.2/MSDK/rtos/FreeRTOS/Source/portable/MemMang\heap_4.c ****                 prvInsertBlockIntoFreeList( ( ( BlockLink_t * ) pxLink ) );
 635:C:/Users/stapi/OneDrive/Desktop/GD32VW553/V1_MQTT_OK/GD32VW55X_Wifi_BLE_SDK/GD32VW55x_RELEASE_V1.0.2/MSDK/rtos/FreeRTOS/Source/portable/MemMang\heap_4.c ****             }
 636:C:/Users/stapi/OneDrive/Desktop/GD32VW553/V1_MQTT_OK/GD32VW55X_Wifi_BLE_SDK/GD32VW55x_RELEASE_V1.0.2/MSDK/rtos/FreeRTOS/Source/portable/MemMang\heap_4.c ****             ( void ) xTaskResumeAll();
 637:C:/Users/stapi/OneDrive/Desktop/GD32VW553/V1_MQTT_OK/GD32VW55X_Wifi_BLE_SDK/GD32VW55x_RELEASE_V1.0.2/MSDK/rtos/FreeRTOS/Source/portable/MemMang\heap_4.c ****         }
 638:C:/Users/stapi/OneDrive/Desktop/GD32VW553/V1_MQTT_OK/GD32VW55X_Wifi_BLE_SDK/GD32VW55x_RELEASE_V1.0.2/MSDK/rtos/FreeRTOS/Source/portable/MemMang\heap_4.c ****     }
 639:C:/Users/stapi/OneDrive/Desktop/GD32VW553/V1_MQTT_OK/GD32VW55X_Wifi_BLE_SDK/GD32VW55x_RELEASE_V1.0.2/MSDK/rtos/FreeRTOS/Source/portable/MemMang\heap_4.c ****     else if( xWantedSize )
 640:C:/Users/stapi/OneDrive/Desktop/GD32VW553/V1_MQTT_OK/GD32VW55X_Wifi_BLE_SDK/GD32VW55x_RELEASE_V1.0.2/MSDK/rtos/FreeRTOS/Source/portable/MemMang\heap_4.c ****         newArea = pvPortMalloc( xWantedSize );
 641:C:/Users/stapi/OneDrive/Desktop/GD32VW553/V1_MQTT_OK/GD32VW55X_Wifi_BLE_SDK/GD32VW55x_RELEASE_V1.0.2/MSDK/rtos/FreeRTOS/Source/portable/MemMang\heap_4.c **** 
 642:C:/Users/stapi/OneDrive/Desktop/GD32VW553/V1_MQTT_OK/GD32VW55X_Wifi_BLE_SDK/GD32VW55x_RELEASE_V1.0.2/MSDK/rtos/FreeRTOS/Source/portable/MemMang\heap_4.c **** exit:
 643:C:/Users/stapi/OneDrive/Desktop/GD32VW553/V1_MQTT_OK/GD32VW55X_Wifi_BLE_SDK/GD32VW55x_RELEASE_V1.0.2/MSDK/rtos/FreeRTOS/Source/portable/MemMang\heap_4.c ****     return newArea;
 644:C:/Users/stapi/OneDrive/Desktop/GD32VW553/V1_MQTT_OK/GD32VW55X_Wifi_BLE_SDK/GD32VW55x_RELEASE_V1.0.2/MSDK/rtos/FreeRTOS/Source/portable/MemMang\heap_4.c **** }
 973              		.loc 1 644 1
 974 0018 2285     		mv	a0,s0
 975 001a 17030000 		tail	__riscv_restore_4
 975      67000300 
 976              		.cfi_remember_state
 977              		.cfi_restore 19
 978              		.cfi_restore 18
 979              		.cfi_restore 9
 980              		.cfi_restore 8
 981              		.cfi_restore 1
 982              		.cfi_def_cfa_offset 0
 983              	.LVL79:
 984              	.L86:
 985              		.cfi_restore_state
 986 0022 AA84     		mv	s1,a0
 614:C:/Users/stapi/OneDrive/Desktop/GD32VW553/V1_MQTT_OK/GD32VW55X_Wifi_BLE_SDK/GD32VW55x_RELEASE_V1.0.2/MSDK/rtos/FreeRTOS/Source/portable/MemMang\heap_4.c ****         if( newArea )
 987              		.loc 1 614 9 is_stmt 1
 614:C:/Users/stapi/OneDrive/Desktop/GD32VW553/V1_MQTT_OK/GD32VW55X_Wifi_BLE_SDK/GD32VW55x_RELEASE_V1.0.2/MSDK/rtos/FreeRTOS/Source/portable/MemMang\heap_4.c ****         if( newArea )
 988              		.loc 1 614 19 is_stmt 0
 989 0024 2E85     		mv	a0,a1
 990              	.LVL80:
 991 0026 97000000 		call	pvPortMalloc
 991      E7800000 
 992              	.LVL81:
 993 002e 2A84     		mv	s0,a0
 994              	.LVL82:
 615:C:/Users/stapi/OneDrive/Desktop/GD32VW553/V1_MQTT_OK/GD32VW55X_Wifi_BLE_SDK/GD32VW55x_RELEASE_V1.0.2/MSDK/rtos/FreeRTOS/Source/portable/MemMang\heap_4.c ****         {
 995              		.loc 1 615 9 is_stmt 1
 615:C:/Users/stapi/OneDrive/Desktop/GD32VW553/V1_MQTT_OK/GD32VW55X_Wifi_BLE_SDK/GD32VW55x_RELEASE_V1.0.2/MSDK/rtos/FreeRTOS/Source/portable/MemMang\heap_4.c ****         {
 996              		.loc 1 615 11 is_stmt 0
 997 0030 65D5     		beq	a0,zero,.L84
 998              	.LBB8:
 617:C:/Users/stapi/OneDrive/Desktop/GD32VW553/V1_MQTT_OK/GD32VW55X_Wifi_BLE_SDK/GD32VW55x_RELEASE_V1.0.2/MSDK/rtos/FreeRTOS/Source/portable/MemMang\heap_4.c ****             /* The memory being freed will have an xBlockLink structure immediately
 999              		.loc 1 617 13 is_stmt 1
 620:C:/Users/stapi/OneDrive/Desktop/GD32VW553/V1_MQTT_OK/GD32VW55X_Wifi_BLE_SDK/GD32VW55x_RELEASE_V1.0.2/MSDK/rtos/FreeRTOS/Source/portable/MemMang\heap_4.c **** 
 1000              		.loc 1 620 13
 1001              	.LVL83:
 623:C:/Users/stapi/OneDrive/Desktop/GD32VW553/V1_MQTT_OK/GD32VW55X_Wifi_BLE_SDK/GD32VW55x_RELEASE_V1.0.2/MSDK/rtos/FreeRTOS/Source/portable/MemMang\heap_4.c **** 
 1002              		.loc 1 623 13
 625:C:/Users/stapi/OneDrive/Desktop/GD32VW553/V1_MQTT_OK/GD32VW55X_Wifi_BLE_SDK/GD32VW55x_RELEASE_V1.0.2/MSDK/rtos/FreeRTOS/Source/portable/MemMang\heap_4.c ****             copySize = ( oldSize < xWantedSize ) ? oldSize : xWantedSize;
 1003              		.loc 1 625 13
 626:C:/Users/stapi/OneDrive/Desktop/GD32VW553/V1_MQTT_OK/GD32VW55X_Wifi_BLE_SDK/GD32VW55x_RELEASE_V1.0.2/MSDK/rtos/FreeRTOS/Source/portable/MemMang\heap_4.c ****             memcpy( newArea, pv, copySize );
 1004              		.loc 1 626 13
 627:C:/Users/stapi/OneDrive/Desktop/GD32VW553/V1_MQTT_OK/GD32VW55X_Wifi_BLE_SDK/GD32VW55x_RELEASE_V1.0.2/MSDK/rtos/FreeRTOS/Source/portable/MemMang\heap_4.c **** 
 1005              		.loc 1 627 13
 625:C:/Users/stapi/OneDrive/Desktop/GD32VW553/V1_MQTT_OK/GD32VW55X_Wifi_BLE_SDK/GD32VW55x_RELEASE_V1.0.2/MSDK/rtos/FreeRTOS/Source/portable/MemMang\heap_4.c ****             copySize = ( oldSize < xWantedSize ) ? oldSize : xWantedSize;
 1006              		.loc 1 625 46 is_stmt 0
 1007 0032 B7090000 		lui	s3,%hi(.LANCHOR5)
 1008 0036 93890900 		addi	s3,s3,%lo(.LANCHOR5)
 625:C:/Users/stapi/OneDrive/Desktop/GD32VW553/V1_MQTT_OK/GD32VW55X_Wifi_BLE_SDK/GD32VW55x_RELEASE_V1.0.2/MSDK/rtos/FreeRTOS/Source/portable/MemMang\heap_4.c ****             copySize = ( oldSize < xWantedSize ) ? oldSize : xWantedSize;
 1009              		.loc 1 625 44
 1010 003a 83A7C4FF 		lw	a5,-4(s1)
 625:C:/Users/stapi/OneDrive/Desktop/GD32VW553/V1_MQTT_OK/GD32VW55X_Wifi_BLE_SDK/GD32VW55x_RELEASE_V1.0.2/MSDK/rtos/FreeRTOS/Source/portable/MemMang\heap_4.c ****             copySize = ( oldSize < xWantedSize ) ? oldSize : xWantedSize;
 1011              		.loc 1 625 46
 1012 003e 03A60900 		lw	a2,0(s3)
 627:C:/Users/stapi/OneDrive/Desktop/GD32VW553/V1_MQTT_OK/GD32VW55X_Wifi_BLE_SDK/GD32VW55x_RELEASE_V1.0.2/MSDK/rtos/FreeRTOS/Source/portable/MemMang\heap_4.c **** 
 1013              		.loc 1 627 13
 1014 0042 A685     		mv	a1,s1
 625:C:/Users/stapi/OneDrive/Desktop/GD32VW553/V1_MQTT_OK/GD32VW55X_Wifi_BLE_SDK/GD32VW55x_RELEASE_V1.0.2/MSDK/rtos/FreeRTOS/Source/portable/MemMang\heap_4.c ****             copySize = ( oldSize < xWantedSize ) ? oldSize : xWantedSize;
 1015              		.loc 1 625 44
 1016 0044 33F6C740 		andn	a2,a5,a2
 625:C:/Users/stapi/OneDrive/Desktop/GD32VW553/V1_MQTT_OK/GD32VW55X_Wifi_BLE_SDK/GD32VW55x_RELEASE_V1.0.2/MSDK/rtos/FreeRTOS/Source/portable/MemMang\heap_4.c ****             copySize = ( oldSize < xWantedSize ) ? oldSize : xWantedSize;
 1017              		.loc 1 625 67
 1018 0048 6116     		addi	a2,a2,-8
 1019              	.LVL84:
 627:C:/Users/stapi/OneDrive/Desktop/GD32VW553/V1_MQTT_OK/GD32VW55X_Wifi_BLE_SDK/GD32VW55x_RELEASE_V1.0.2/MSDK/rtos/FreeRTOS/Source/portable/MemMang\heap_4.c **** 
 1020              		.loc 1 627 13
 1021 004a 3356260B 		minu	a2,a2,s2
 1022              	.LVL85:
 1023 004e 97000000 		call	memcpy
 1023      E7800000 
 1024              	.LVL86:
 629:C:/Users/stapi/OneDrive/Desktop/GD32VW553/V1_MQTT_OK/GD32VW55X_Wifi_BLE_SDK/GD32VW55x_RELEASE_V1.0.2/MSDK/rtos/FreeRTOS/Source/portable/MemMang\heap_4.c ****             {
 1025              		.loc 1 629 13 is_stmt 1
 1026 0056 97000000 		call	vTaskSuspendAll
 1026      E7800000 
 1027              	.LVL87:
 632:C:/Users/stapi/OneDrive/Desktop/GD32VW553/V1_MQTT_OK/GD32VW55X_Wifi_BLE_SDK/GD32VW55x_RELEASE_V1.0.2/MSDK/rtos/FreeRTOS/Source/portable/MemMang\heap_4.c ****                 xFreeBytesRemaining += pxLink->xBlockSize;
 1028              		.loc 1 632 17
 632:C:/Users/stapi/OneDrive/Desktop/GD32VW553/V1_MQTT_OK/GD32VW55X_Wifi_BLE_SDK/GD32VW55x_RELEASE_V1.0.2/MSDK/rtos/FreeRTOS/Source/portable/MemMang\heap_4.c ****                 xFreeBytesRemaining += pxLink->xBlockSize;
 1029              		.loc 1 632 36 is_stmt 0
 1030 005e 83A7C4FF 		lw	a5,-4(s1)
 632:C:/Users/stapi/OneDrive/Desktop/GD32VW553/V1_MQTT_OK/GD32VW55X_Wifi_BLE_SDK/GD32VW55x_RELEASE_V1.0.2/MSDK/rtos/FreeRTOS/Source/portable/MemMang\heap_4.c ****                 xFreeBytesRemaining += pxLink->xBlockSize;
 1031              		.loc 1 632 39
 1032 0062 03A70900 		lw	a4,0(s3)
 634:C:/Users/stapi/OneDrive/Desktop/GD32VW553/V1_MQTT_OK/GD32VW55X_Wifi_BLE_SDK/GD32VW55x_RELEASE_V1.0.2/MSDK/rtos/FreeRTOS/Source/portable/MemMang\heap_4.c ****             }
 1033              		.loc 1 634 17
 1034 0066 138584FF 		addi	a0,s1,-8
 1035              	.LVL88:
 632:C:/Users/stapi/OneDrive/Desktop/GD32VW553/V1_MQTT_OK/GD32VW55X_Wifi_BLE_SDK/GD32VW55x_RELEASE_V1.0.2/MSDK/rtos/FreeRTOS/Source/portable/MemMang\heap_4.c ****                 xFreeBytesRemaining += pxLink->xBlockSize;
 1036              		.loc 1 632 36
 1037 006a 33F7E740 		andn	a4,a5,a4
 633:C:/Users/stapi/OneDrive/Desktop/GD32VW553/V1_MQTT_OK/GD32VW55X_Wifi_BLE_SDK/GD32VW55x_RELEASE_V1.0.2/MSDK/rtos/FreeRTOS/Source/portable/MemMang\heap_4.c ****                 prvInsertBlockIntoFreeList( ( ( BlockLink_t * ) pxLink ) );
 1038              		.loc 1 633 37
 1039 006e B7070000 		lui	a5,%hi(.LANCHOR4)
 1040 0072 93870700 		addi	a5,a5,%lo(.LANCHOR4)
 1041 0076 9443     		lw	a3,0(a5)
 632:C:/Users/stapi/OneDrive/Desktop/GD32VW553/V1_MQTT_OK/GD32VW55X_Wifi_BLE_SDK/GD32VW55x_RELEASE_V1.0.2/MSDK/rtos/FreeRTOS/Source/portable/MemMang\heap_4.c ****                 xFreeBytesRemaining += pxLink->xBlockSize;
 1042              		.loc 1 632 36
 1043 0078 23AEE4FE 		sw	a4,-4(s1)
 633:C:/Users/stapi/OneDrive/Desktop/GD32VW553/V1_MQTT_OK/GD32VW55X_Wifi_BLE_SDK/GD32VW55x_RELEASE_V1.0.2/MSDK/rtos/FreeRTOS/Source/portable/MemMang\heap_4.c ****                 prvInsertBlockIntoFreeList( ( ( BlockLink_t * ) pxLink ) );
 1044              		.loc 1 633 17 is_stmt 1
 633:C:/Users/stapi/OneDrive/Desktop/GD32VW553/V1_MQTT_OK/GD32VW55X_Wifi_BLE_SDK/GD32VW55x_RELEASE_V1.0.2/MSDK/rtos/FreeRTOS/Source/portable/MemMang\heap_4.c ****                 prvInsertBlockIntoFreeList( ( ( BlockLink_t * ) pxLink ) );
 1045              		.loc 1 633 37 is_stmt 0
 1046 007c 3697     		add	a4,a3,a4
 1047 007e 98C3     		sw	a4,0(a5)
 634:C:/Users/stapi/OneDrive/Desktop/GD32VW553/V1_MQTT_OK/GD32VW55X_Wifi_BLE_SDK/GD32VW55x_RELEASE_V1.0.2/MSDK/rtos/FreeRTOS/Source/portable/MemMang\heap_4.c ****             }
 1048              		.loc 1 634 17 is_stmt 1
 1049 0080 97000000 		call	prvInsertBlockIntoFreeList
 1049      E7800000 
 1050              	.LVL89:
 636:C:/Users/stapi/OneDrive/Desktop/GD32VW553/V1_MQTT_OK/GD32VW55X_Wifi_BLE_SDK/GD32VW55x_RELEASE_V1.0.2/MSDK/rtos/FreeRTOS/Source/portable/MemMang\heap_4.c ****         }
 1051              		.loc 1 636 13
 636:C:/Users/stapi/OneDrive/Desktop/GD32VW553/V1_MQTT_OK/GD32VW55X_Wifi_BLE_SDK/GD32VW55x_RELEASE_V1.0.2/MSDK/rtos/FreeRTOS/Source/portable/MemMang\heap_4.c ****         }
 1052              		.loc 1 636 22 is_stmt 0
 1053 0088 97000000 		call	xTaskResumeAll
 1053      E7800000 
 1054              	.LVL90:
 1055 0090 61B7     		j	.L84
 1056              	.LVL91:
 1057              	.L85:
 1058              	.L87:
 1059              	.LBE8:
 639:C:/Users/stapi/OneDrive/Desktop/GD32VW553/V1_MQTT_OK/GD32VW55X_Wifi_BLE_SDK/GD32VW55x_RELEASE_V1.0.2/MSDK/rtos/FreeRTOS/Source/portable/MemMang\heap_4.c ****         newArea = pvPortMalloc( xWantedSize );
 1060              		.loc 1 639 10 is_stmt 1
 604:C:/Users/stapi/OneDrive/Desktop/GD32VW553/V1_MQTT_OK/GD32VW55X_Wifi_BLE_SDK/GD32VW55x_RELEASE_V1.0.2/MSDK/rtos/FreeRTOS/Source/portable/MemMang\heap_4.c **** 
 1061              		.loc 1 604 11 is_stmt 0
 1062 0092 0144     		li	s0,0
 639:C:/Users/stapi/OneDrive/Desktop/GD32VW553/V1_MQTT_OK/GD32VW55X_Wifi_BLE_SDK/GD32VW55x_RELEASE_V1.0.2/MSDK/rtos/FreeRTOS/Source/portable/MemMang\heap_4.c ****         newArea = pvPortMalloc( xWantedSize );
 1063              		.loc 1 639 12
 1064 0094 D1D1     		beq	a1,zero,.L84
 640:C:/Users/stapi/OneDrive/Desktop/GD32VW553/V1_MQTT_OK/GD32VW55X_Wifi_BLE_SDK/GD32VW55x_RELEASE_V1.0.2/MSDK/rtos/FreeRTOS/Source/portable/MemMang\heap_4.c **** 
 1065              		.loc 1 640 9 is_stmt 1
 640:C:/Users/stapi/OneDrive/Desktop/GD32VW553/V1_MQTT_OK/GD32VW55X_Wifi_BLE_SDK/GD32VW55x_RELEASE_V1.0.2/MSDK/rtos/FreeRTOS/Source/portable/MemMang\heap_4.c **** 
 1066              		.loc 1 640 19 is_stmt 0
 1067 0096 2E85     		mv	a0,a1
 1068              	.LVL92:
 1069 0098 97000000 		call	pvPortMalloc
 1069      E7800000 
 1070              	.LVL93:
 1071 00a0 2A84     		mv	s0,a0
 1072              	.LVL94:
 1073 00a2 9DBF     		j	.L84
 1074              		.cfi_endproc
 1075              	.LFE16:
 1077              		.section	.text.vPortGetHeapStats,"ax",@progbits
 1078              		.align	1
 1079              		.globl	vPortGetHeapStats
 1081              	vPortGetHeapStats:
 1082              	.LFB17:
 645:C:/Users/stapi/OneDrive/Desktop/GD32VW553/V1_MQTT_OK/GD32VW55X_Wifi_BLE_SDK/GD32VW55x_RELEASE_V1.0.2/MSDK/rtos/FreeRTOS/Source/portable/MemMang\heap_4.c **** 
 646:C:/Users/stapi/OneDrive/Desktop/GD32VW553/V1_MQTT_OK/GD32VW55X_Wifi_BLE_SDK/GD32VW55x_RELEASE_V1.0.2/MSDK/rtos/FreeRTOS/Source/portable/MemMang\heap_4.c **** /*-----------------------------------------------------------*/
 647:C:/Users/stapi/OneDrive/Desktop/GD32VW553/V1_MQTT_OK/GD32VW55X_Wifi_BLE_SDK/GD32VW55x_RELEASE_V1.0.2/MSDK/rtos/FreeRTOS/Source/portable/MemMang\heap_4.c **** 
 648:C:/Users/stapi/OneDrive/Desktop/GD32VW553/V1_MQTT_OK/GD32VW55X_Wifi_BLE_SDK/GD32VW55x_RELEASE_V1.0.2/MSDK/rtos/FreeRTOS/Source/portable/MemMang\heap_4.c **** void vPortGetHeapStats( HeapStats_t *pxHeapStats )
 649:C:/Users/stapi/OneDrive/Desktop/GD32VW553/V1_MQTT_OK/GD32VW55X_Wifi_BLE_SDK/GD32VW55x_RELEASE_V1.0.2/MSDK/rtos/FreeRTOS/Source/portable/MemMang\heap_4.c **** {
 1083              		.loc 1 649 1 is_stmt 1
 1084              		.cfi_startproc
 1085              	.LVL95:
 1086 0000 17030000 		call	t0,__riscv_save_4
 1086      E7020300 
 1087              		.cfi_offset 19, -20
 1088              		.cfi_offset 18, -16
 1089              		.cfi_offset 9, -12
 1090              		.cfi_offset 8, -8
 1091              		.cfi_offset 1, -4
 1092              		.cfi_def_cfa_offset 32
 650:C:/Users/stapi/OneDrive/Desktop/GD32VW553/V1_MQTT_OK/GD32VW55X_Wifi_BLE_SDK/GD32VW55x_RELEASE_V1.0.2/MSDK/rtos/FreeRTOS/Source/portable/MemMang\heap_4.c **** BlockLink_t *pxBlock;
 1093              		.loc 1 650 1
 651:C:/Users/stapi/OneDrive/Desktop/GD32VW553/V1_MQTT_OK/GD32VW55X_Wifi_BLE_SDK/GD32VW55x_RELEASE_V1.0.2/MSDK/rtos/FreeRTOS/Source/portable/MemMang\heap_4.c **** size_t xBlocks = 0, xMaxSize = 0, xMinSize = (size_t)portMAX_DELAY; /* portMAX_DELAY used as a port
 1094              		.loc 1 651 1
 1095              	.LVL96:
 652:C:/Users/stapi/OneDrive/Desktop/GD32VW553/V1_MQTT_OK/GD32VW55X_Wifi_BLE_SDK/GD32VW55x_RELEASE_V1.0.2/MSDK/rtos/FreeRTOS/Source/portable/MemMang\heap_4.c **** 
 653:C:/Users/stapi/OneDrive/Desktop/GD32VW553/V1_MQTT_OK/GD32VW55X_Wifi_BLE_SDK/GD32VW55x_RELEASE_V1.0.2/MSDK/rtos/FreeRTOS/Source/portable/MemMang\heap_4.c **** 	vTaskSuspendAll();
 1096              		.loc 1 653 2
 649:C:/Users/stapi/OneDrive/Desktop/GD32VW553/V1_MQTT_OK/GD32VW55X_Wifi_BLE_SDK/GD32VW55x_RELEASE_V1.0.2/MSDK/rtos/FreeRTOS/Source/portable/MemMang\heap_4.c **** BlockLink_t *pxBlock;
 1097              		.loc 1 649 1 is_stmt 0
 1098 0008 2A84     		mv	s0,a0
 1099              		.loc 1 653 2
 1100 000a 97000000 		call	vTaskSuspendAll
 1100      E7800000 
 1101              	.LVL97:
 654:C:/Users/stapi/OneDrive/Desktop/GD32VW553/V1_MQTT_OK/GD32VW55X_Wifi_BLE_SDK/GD32VW55x_RELEASE_V1.0.2/MSDK/rtos/FreeRTOS/Source/portable/MemMang\heap_4.c **** 	{
 655:C:/Users/stapi/OneDrive/Desktop/GD32VW553/V1_MQTT_OK/GD32VW55X_Wifi_BLE_SDK/GD32VW55x_RELEASE_V1.0.2/MSDK/rtos/FreeRTOS/Source/portable/MemMang\heap_4.c **** 		pxBlock = xStart.pxNextFreeBlock;
 1102              		.loc 1 655 3 is_stmt 1
 1103              		.loc 1 655 11 is_stmt 0
 1104 0012 B7070000 		lui	a5,%hi(.LANCHOR0)
 1105 0016 83A70700 		lw	a5,%lo(.LANCHOR0)(a5)
 1106              	.LVL98:
 656:C:/Users/stapi/OneDrive/Desktop/GD32VW553/V1_MQTT_OK/GD32VW55X_Wifi_BLE_SDK/GD32VW55x_RELEASE_V1.0.2/MSDK/rtos/FreeRTOS/Source/portable/MemMang\heap_4.c **** 
 657:C:/Users/stapi/OneDrive/Desktop/GD32VW553/V1_MQTT_OK/GD32VW55X_Wifi_BLE_SDK/GD32VW55x_RELEASE_V1.0.2/MSDK/rtos/FreeRTOS/Source/portable/MemMang\heap_4.c **** 		/* pxBlock will be NULL if the heap has not been initialised.  The heap
 658:C:/Users/stapi/OneDrive/Desktop/GD32VW553/V1_MQTT_OK/GD32VW55X_Wifi_BLE_SDK/GD32VW55x_RELEASE_V1.0.2/MSDK/rtos/FreeRTOS/Source/portable/MemMang\heap_4.c **** 		is initialised automatically when the first allocation is made. */
 659:C:/Users/stapi/OneDrive/Desktop/GD32VW553/V1_MQTT_OK/GD32VW55X_Wifi_BLE_SDK/GD32VW55x_RELEASE_V1.0.2/MSDK/rtos/FreeRTOS/Source/portable/MemMang\heap_4.c **** 		if( pxBlock != NULL )
 1107              		.loc 1 659 3 is_stmt 1
 1108              		.loc 1 659 5 is_stmt 0
 1109 001a B5CB     		beq	a5,zero,.L97
 660:C:/Users/stapi/OneDrive/Desktop/GD32VW553/V1_MQTT_OK/GD32VW55X_Wifi_BLE_SDK/GD32VW55x_RELEASE_V1.0.2/MSDK/rtos/FreeRTOS/Source/portable/MemMang\heap_4.c **** 		{
 661:C:/Users/stapi/OneDrive/Desktop/GD32VW553/V1_MQTT_OK/GD32VW55X_Wifi_BLE_SDK/GD32VW55x_RELEASE_V1.0.2/MSDK/rtos/FreeRTOS/Source/portable/MemMang\heap_4.c **** 			do
 662:C:/Users/stapi/OneDrive/Desktop/GD32VW553/V1_MQTT_OK/GD32VW55X_Wifi_BLE_SDK/GD32VW55x_RELEASE_V1.0.2/MSDK/rtos/FreeRTOS/Source/portable/MemMang\heap_4.c **** 			{
 663:C:/Users/stapi/OneDrive/Desktop/GD32VW553/V1_MQTT_OK/GD32VW55X_Wifi_BLE_SDK/GD32VW55x_RELEASE_V1.0.2/MSDK/rtos/FreeRTOS/Source/portable/MemMang\heap_4.c **** 				/* Increment the number of blocks and record the largest block seen
 664:C:/Users/stapi/OneDrive/Desktop/GD32VW553/V1_MQTT_OK/GD32VW55X_Wifi_BLE_SDK/GD32VW55x_RELEASE_V1.0.2/MSDK/rtos/FreeRTOS/Source/portable/MemMang\heap_4.c **** 				so far. */
 665:C:/Users/stapi/OneDrive/Desktop/GD32VW553/V1_MQTT_OK/GD32VW55X_Wifi_BLE_SDK/GD32VW55x_RELEASE_V1.0.2/MSDK/rtos/FreeRTOS/Source/portable/MemMang\heap_4.c **** 				xBlocks++;
 666:C:/Users/stapi/OneDrive/Desktop/GD32VW553/V1_MQTT_OK/GD32VW55X_Wifi_BLE_SDK/GD32VW55x_RELEASE_V1.0.2/MSDK/rtos/FreeRTOS/Source/portable/MemMang\heap_4.c **** 
 667:C:/Users/stapi/OneDrive/Desktop/GD32VW553/V1_MQTT_OK/GD32VW55X_Wifi_BLE_SDK/GD32VW55x_RELEASE_V1.0.2/MSDK/rtos/FreeRTOS/Source/portable/MemMang\heap_4.c **** 				if( pxBlock->xBlockSize > xMaxSize )
 668:C:/Users/stapi/OneDrive/Desktop/GD32VW553/V1_MQTT_OK/GD32VW55X_Wifi_BLE_SDK/GD32VW55x_RELEASE_V1.0.2/MSDK/rtos/FreeRTOS/Source/portable/MemMang\heap_4.c **** 				{
 669:C:/Users/stapi/OneDrive/Desktop/GD32VW553/V1_MQTT_OK/GD32VW55X_Wifi_BLE_SDK/GD32VW55x_RELEASE_V1.0.2/MSDK/rtos/FreeRTOS/Source/portable/MemMang\heap_4.c **** 					xMaxSize = pxBlock->xBlockSize;
 670:C:/Users/stapi/OneDrive/Desktop/GD32VW553/V1_MQTT_OK/GD32VW55X_Wifi_BLE_SDK/GD32VW55x_RELEASE_V1.0.2/MSDK/rtos/FreeRTOS/Source/portable/MemMang\heap_4.c **** 				}
 671:C:/Users/stapi/OneDrive/Desktop/GD32VW553/V1_MQTT_OK/GD32VW55X_Wifi_BLE_SDK/GD32VW55x_RELEASE_V1.0.2/MSDK/rtos/FreeRTOS/Source/portable/MemMang\heap_4.c **** 
 672:C:/Users/stapi/OneDrive/Desktop/GD32VW553/V1_MQTT_OK/GD32VW55X_Wifi_BLE_SDK/GD32VW55x_RELEASE_V1.0.2/MSDK/rtos/FreeRTOS/Source/portable/MemMang\heap_4.c **** 				if( pxBlock->xBlockSize < xMinSize )
 673:C:/Users/stapi/OneDrive/Desktop/GD32VW553/V1_MQTT_OK/GD32VW55X_Wifi_BLE_SDK/GD32VW55x_RELEASE_V1.0.2/MSDK/rtos/FreeRTOS/Source/portable/MemMang\heap_4.c **** 				{
 674:C:/Users/stapi/OneDrive/Desktop/GD32VW553/V1_MQTT_OK/GD32VW55X_Wifi_BLE_SDK/GD32VW55x_RELEASE_V1.0.2/MSDK/rtos/FreeRTOS/Source/portable/MemMang\heap_4.c **** 					xMinSize = pxBlock->xBlockSize;
 675:C:/Users/stapi/OneDrive/Desktop/GD32VW553/V1_MQTT_OK/GD32VW55X_Wifi_BLE_SDK/GD32VW55x_RELEASE_V1.0.2/MSDK/rtos/FreeRTOS/Source/portable/MemMang\heap_4.c **** 				}
 676:C:/Users/stapi/OneDrive/Desktop/GD32VW553/V1_MQTT_OK/GD32VW55X_Wifi_BLE_SDK/GD32VW55x_RELEASE_V1.0.2/MSDK/rtos/FreeRTOS/Source/portable/MemMang\heap_4.c **** 
 677:C:/Users/stapi/OneDrive/Desktop/GD32VW553/V1_MQTT_OK/GD32VW55X_Wifi_BLE_SDK/GD32VW55x_RELEASE_V1.0.2/MSDK/rtos/FreeRTOS/Source/portable/MemMang\heap_4.c **** 				/* Move to the next block in the chain until the last block is
 678:C:/Users/stapi/OneDrive/Desktop/GD32VW553/V1_MQTT_OK/GD32VW55X_Wifi_BLE_SDK/GD32VW55x_RELEASE_V1.0.2/MSDK/rtos/FreeRTOS/Source/portable/MemMang\heap_4.c **** 				reached. */
 679:C:/Users/stapi/OneDrive/Desktop/GD32VW553/V1_MQTT_OK/GD32VW55X_Wifi_BLE_SDK/GD32VW55x_RELEASE_V1.0.2/MSDK/rtos/FreeRTOS/Source/portable/MemMang\heap_4.c **** 				pxBlock = pxBlock->pxNextFreeBlock;
 680:C:/Users/stapi/OneDrive/Desktop/GD32VW553/V1_MQTT_OK/GD32VW55X_Wifi_BLE_SDK/GD32VW55x_RELEASE_V1.0.2/MSDK/rtos/FreeRTOS/Source/portable/MemMang\heap_4.c **** 			} while( pxBlock != pxEnd );
 1110              		.loc 1 680 21
 1111 001c 37070000 		lui	a4,%hi(.LANCHOR1)
 1112 0020 83260700 		lw	a3,%lo(.LANCHOR1)(a4)
 651:C:/Users/stapi/OneDrive/Desktop/GD32VW553/V1_MQTT_OK/GD32VW55X_Wifi_BLE_SDK/GD32VW55x_RELEASE_V1.0.2/MSDK/rtos/FreeRTOS/Source/portable/MemMang\heap_4.c **** 
 1113              		.loc 1 651 35
 1114 0024 7D59     		li	s2,-1
 651:C:/Users/stapi/OneDrive/Desktop/GD32VW553/V1_MQTT_OK/GD32VW55X_Wifi_BLE_SDK/GD32VW55x_RELEASE_V1.0.2/MSDK/rtos/FreeRTOS/Source/portable/MemMang\heap_4.c **** 
 1115              		.loc 1 651 21
 1116 0026 8149     		li	s3,0
 651:C:/Users/stapi/OneDrive/Desktop/GD32VW553/V1_MQTT_OK/GD32VW55X_Wifi_BLE_SDK/GD32VW55x_RELEASE_V1.0.2/MSDK/rtos/FreeRTOS/Source/portable/MemMang\heap_4.c **** 
 1117              		.loc 1 651 8
 1118 0028 8144     		li	s1,0
 1119              	.LVL99:
 1120              	.L96:
 661:C:/Users/stapi/OneDrive/Desktop/GD32VW553/V1_MQTT_OK/GD32VW55X_Wifi_BLE_SDK/GD32VW55x_RELEASE_V1.0.2/MSDK/rtos/FreeRTOS/Source/portable/MemMang\heap_4.c **** 			{
 1121              		.loc 1 661 4 is_stmt 1
 665:C:/Users/stapi/OneDrive/Desktop/GD32VW553/V1_MQTT_OK/GD32VW55X_Wifi_BLE_SDK/GD32VW55x_RELEASE_V1.0.2/MSDK/rtos/FreeRTOS/Source/portable/MemMang\heap_4.c **** 
 1122              		.loc 1 665 5
 667:C:/Users/stapi/OneDrive/Desktop/GD32VW553/V1_MQTT_OK/GD32VW55X_Wifi_BLE_SDK/GD32VW55x_RELEASE_V1.0.2/MSDK/rtos/FreeRTOS/Source/portable/MemMang\heap_4.c **** 				{
 1123              		.loc 1 667 16 is_stmt 0
 1124 002a D843     		lw	a4,4(a5)
 679:C:/Users/stapi/OneDrive/Desktop/GD32VW553/V1_MQTT_OK/GD32VW55X_Wifi_BLE_SDK/GD32VW55x_RELEASE_V1.0.2/MSDK/rtos/FreeRTOS/Source/portable/MemMang\heap_4.c **** 			} while( pxBlock != pxEnd );
 1125              		.loc 1 679 13
 1126 002c 9C43     		lw	a5,0(a5)
 1127              	.LVL100:
 665:C:/Users/stapi/OneDrive/Desktop/GD32VW553/V1_MQTT_OK/GD32VW55X_Wifi_BLE_SDK/GD32VW55x_RELEASE_V1.0.2/MSDK/rtos/FreeRTOS/Source/portable/MemMang\heap_4.c **** 
 1128              		.loc 1 665 12
 1129 002e 8504     		addi	s1,s1,1
 1130              	.LVL101:
 667:C:/Users/stapi/OneDrive/Desktop/GD32VW553/V1_MQTT_OK/GD32VW55X_Wifi_BLE_SDK/GD32VW55x_RELEASE_V1.0.2/MSDK/rtos/FreeRTOS/Source/portable/MemMang\heap_4.c **** 				{
 1131              		.loc 1 667 5 is_stmt 1
 1132 0030 B3F9E90A 		maxu	s3,s3,a4
 1133              	.LVL102:
 672:C:/Users/stapi/OneDrive/Desktop/GD32VW553/V1_MQTT_OK/GD32VW55X_Wifi_BLE_SDK/GD32VW55x_RELEASE_V1.0.2/MSDK/rtos/FreeRTOS/Source/portable/MemMang\heap_4.c **** 				{
 1134              		.loc 1 672 5
 1135 0034 3359E90A 		minu	s2,s2,a4
 1136              	.LVL103:
 679:C:/Users/stapi/OneDrive/Desktop/GD32VW553/V1_MQTT_OK/GD32VW55X_Wifi_BLE_SDK/GD32VW55x_RELEASE_V1.0.2/MSDK/rtos/FreeRTOS/Source/portable/MemMang\heap_4.c **** 			} while( pxBlock != pxEnd );
 1137              		.loc 1 679 5
 1138              		.loc 1 680 11
 1139              		.loc 1 680 4 is_stmt 0
 1140 0038 E399F6FE 		bne	a3,a5,.L96
 1141              	.LVL104:
 1142              	.L95:
 681:C:/Users/stapi/OneDrive/Desktop/GD32VW553/V1_MQTT_OK/GD32VW55X_Wifi_BLE_SDK/GD32VW55x_RELEASE_V1.0.2/MSDK/rtos/FreeRTOS/Source/portable/MemMang\heap_4.c **** 		}
 682:C:/Users/stapi/OneDrive/Desktop/GD32VW553/V1_MQTT_OK/GD32VW55X_Wifi_BLE_SDK/GD32VW55x_RELEASE_V1.0.2/MSDK/rtos/FreeRTOS/Source/portable/MemMang\heap_4.c **** 	}
 683:C:/Users/stapi/OneDrive/Desktop/GD32VW553/V1_MQTT_OK/GD32VW55X_Wifi_BLE_SDK/GD32VW55x_RELEASE_V1.0.2/MSDK/rtos/FreeRTOS/Source/portable/MemMang\heap_4.c **** 	xTaskResumeAll();
 1143              		.loc 1 683 2 is_stmt 1
 1144 003c 97000000 		call	xTaskResumeAll
 1144      E7800000 
 1145              	.LVL105:
 684:C:/Users/stapi/OneDrive/Desktop/GD32VW553/V1_MQTT_OK/GD32VW55X_Wifi_BLE_SDK/GD32VW55x_RELEASE_V1.0.2/MSDK/rtos/FreeRTOS/Source/portable/MemMang\heap_4.c **** 
 685:C:/Users/stapi/OneDrive/Desktop/GD32VW553/V1_MQTT_OK/GD32VW55X_Wifi_BLE_SDK/GD32VW55x_RELEASE_V1.0.2/MSDK/rtos/FreeRTOS/Source/portable/MemMang\heap_4.c **** 	pxHeapStats->xSizeOfLargestFreeBlockInBytes = xMaxSize;
 1146              		.loc 1 685 2
 1147              		.loc 1 685 46 is_stmt 0
 1148 0044 23223401 		sw	s3,4(s0)
 686:C:/Users/stapi/OneDrive/Desktop/GD32VW553/V1_MQTT_OK/GD32VW55X_Wifi_BLE_SDK/GD32VW55x_RELEASE_V1.0.2/MSDK/rtos/FreeRTOS/Source/portable/MemMang\heap_4.c **** 	pxHeapStats->xSizeOfSmallestFreeBlockInBytes = xMinSize;
 1149              		.loc 1 686 2 is_stmt 1
 1150              		.loc 1 686 47 is_stmt 0
 1151 0048 23242401 		sw	s2,8(s0)
 687:C:/Users/stapi/OneDrive/Desktop/GD32VW553/V1_MQTT_OK/GD32VW55X_Wifi_BLE_SDK/GD32VW55x_RELEASE_V1.0.2/MSDK/rtos/FreeRTOS/Source/portable/MemMang\heap_4.c **** 	pxHeapStats->xNumberOfFreeBlocks = xBlocks;
 1152              		.loc 1 687 2 is_stmt 1
 1153              		.loc 1 687 35 is_stmt 0
 1154 004c 44C4     		sw	s1,12(s0)
 688:C:/Users/stapi/OneDrive/Desktop/GD32VW553/V1_MQTT_OK/GD32VW55X_Wifi_BLE_SDK/GD32VW55x_RELEASE_V1.0.2/MSDK/rtos/FreeRTOS/Source/portable/MemMang\heap_4.c **** 
 689:C:/Users/stapi/OneDrive/Desktop/GD32VW553/V1_MQTT_OK/GD32VW55X_Wifi_BLE_SDK/GD32VW55x_RELEASE_V1.0.2/MSDK/rtos/FreeRTOS/Source/portable/MemMang\heap_4.c **** 	taskENTER_CRITICAL();
 1155              		.loc 1 689 2 is_stmt 1
 1156 004e 97000000 		call	vPortEnterCritical
 1156      E7800000 
 1157              	.LVL106:
 690:C:/Users/stapi/OneDrive/Desktop/GD32VW553/V1_MQTT_OK/GD32VW55X_Wifi_BLE_SDK/GD32VW55x_RELEASE_V1.0.2/MSDK/rtos/FreeRTOS/Source/portable/MemMang\heap_4.c **** 	{
 691:C:/Users/stapi/OneDrive/Desktop/GD32VW553/V1_MQTT_OK/GD32VW55X_Wifi_BLE_SDK/GD32VW55x_RELEASE_V1.0.2/MSDK/rtos/FreeRTOS/Source/portable/MemMang\heap_4.c **** 		pxHeapStats->xAvailableHeapSpaceInBytes = xFreeBytesRemaining;
 1158              		.loc 1 691 3
 1159              		.loc 1 691 43 is_stmt 0
 1160 0056 B7070000 		lui	a5,%hi(.LANCHOR4)
 1161 005a 83A70700 		lw	a5,%lo(.LANCHOR4)(a5)
 1162 005e 1CC0     		sw	a5,0(s0)
 692:C:/Users/stapi/OneDrive/Desktop/GD32VW553/V1_MQTT_OK/GD32VW55X_Wifi_BLE_SDK/GD32VW55x_RELEASE_V1.0.2/MSDK/rtos/FreeRTOS/Source/portable/MemMang\heap_4.c **** 		pxHeapStats->xNumberOfSuccessfulAllocations = xNumberOfSuccessfulAllocations;
 1163              		.loc 1 692 3 is_stmt 1
 1164              		.loc 1 692 47 is_stmt 0
 1165 0060 B7070000 		lui	a5,%hi(.LANCHOR6)
 1166 0064 83A70700 		lw	a5,%lo(.LANCHOR6)(a5)
 1167 0068 5CC8     		sw	a5,20(s0)
 693:C:/Users/stapi/OneDrive/Desktop/GD32VW553/V1_MQTT_OK/GD32VW55X_Wifi_BLE_SDK/GD32VW55x_RELEASE_V1.0.2/MSDK/rtos/FreeRTOS/Source/portable/MemMang\heap_4.c **** 		pxHeapStats->xNumberOfSuccessfulFrees = xNumberOfSuccessfulFrees;
 1168              		.loc 1 693 3 is_stmt 1
 1169              		.loc 1 693 41 is_stmt 0
 1170 006a B7070000 		lui	a5,%hi(.LANCHOR7)
 1171 006e 83A70700 		lw	a5,%lo(.LANCHOR7)(a5)
 1172 0072 1CCC     		sw	a5,24(s0)
 694:C:/Users/stapi/OneDrive/Desktop/GD32VW553/V1_MQTT_OK/GD32VW55X_Wifi_BLE_SDK/GD32VW55x_RELEASE_V1.0.2/MSDK/rtos/FreeRTOS/Source/portable/MemMang\heap_4.c **** 		pxHeapStats->xMinimumEverFreeBytesRemaining = xMinimumEverFreeBytesRemaining;
 1173              		.loc 1 694 3 is_stmt 1
 1174              		.loc 1 694 47 is_stmt 0
 1175 0074 B7070000 		lui	a5,%hi(.LANCHOR3)
 1176 0078 83A70700 		lw	a5,%lo(.LANCHOR3)(a5)
 1177 007c 1CC8     		sw	a5,16(s0)
 695:C:/Users/stapi/OneDrive/Desktop/GD32VW553/V1_MQTT_OK/GD32VW55X_Wifi_BLE_SDK/GD32VW55x_RELEASE_V1.0.2/MSDK/rtos/FreeRTOS/Source/portable/MemMang\heap_4.c **** 	}
 696:C:/Users/stapi/OneDrive/Desktop/GD32VW553/V1_MQTT_OK/GD32VW55X_Wifi_BLE_SDK/GD32VW55x_RELEASE_V1.0.2/MSDK/rtos/FreeRTOS/Source/portable/MemMang\heap_4.c **** 	taskEXIT_CRITICAL();
 1178              		.loc 1 696 2 is_stmt 1
 1179 007e 97000000 		call	vPortExitCritical
 1179      E7800000 
 1180              	.LVL107:
 697:C:/Users/stapi/OneDrive/Desktop/GD32VW553/V1_MQTT_OK/GD32VW55X_Wifi_BLE_SDK/GD32VW55x_RELEASE_V1.0.2/MSDK/rtos/FreeRTOS/Source/portable/MemMang\heap_4.c **** }
 1181              		.loc 1 697 1 is_stmt 0
 1182 0086 17030000 		tail	__riscv_restore_4
 1182      67000300 
 1183              		.cfi_remember_state
 1184              		.cfi_restore 19
 1185              		.cfi_restore 18
 1186              		.cfi_restore 9
 1187              		.cfi_restore 8
 1188              		.cfi_restore 1
 1189              		.cfi_def_cfa_offset 0
 1190              	.LVL108:
 1191              	.L97:
 1192              		.cfi_restore_state
 651:C:/Users/stapi/OneDrive/Desktop/GD32VW553/V1_MQTT_OK/GD32VW55X_Wifi_BLE_SDK/GD32VW55x_RELEASE_V1.0.2/MSDK/rtos/FreeRTOS/Source/portable/MemMang\heap_4.c **** 
 1193              		.loc 1 651 35
 1194 008e 7D59     		li	s2,-1
 651:C:/Users/stapi/OneDrive/Desktop/GD32VW553/V1_MQTT_OK/GD32VW55X_Wifi_BLE_SDK/GD32VW55x_RELEASE_V1.0.2/MSDK/rtos/FreeRTOS/Source/portable/MemMang\heap_4.c **** 
 1195              		.loc 1 651 21
 1196 0090 8149     		li	s3,0
 651:C:/Users/stapi/OneDrive/Desktop/GD32VW553/V1_MQTT_OK/GD32VW55X_Wifi_BLE_SDK/GD32VW55x_RELEASE_V1.0.2/MSDK/rtos/FreeRTOS/Source/portable/MemMang\heap_4.c **** 
 1197              		.loc 1 651 8
 1198 0092 8144     		li	s1,0
 1199 0094 65B7     		j	.L95
 1200              		.cfi_endproc
 1201              	.LFE17:
 1203              		.section	.sbss.pxEnd,"aw",@nobits
 1204              		.align	2
 1205              		.set	.LANCHOR1,. + 0
 1208              	pxEnd:
 1209 0000 00000000 		.zero	4
 1210              		.section	.sbss.pxEndPrevious,"aw",@nobits
 1211              		.align	2
 1212              		.set	.LANCHOR8,. + 0
 1215              	pxEndPrevious:
 1216 0000 00000000 		.zero	4
 1217              		.section	.sbss.xBlockAllocatedBit,"aw",@nobits
 1218              		.align	2
 1219              		.set	.LANCHOR5,. + 0
 1222              	xBlockAllocatedBit:
 1223 0000 00000000 		.zero	4
 1224              		.section	.sbss.xFreeBytesRemaining,"aw",@nobits
 1225              		.align	2
 1226              		.set	.LANCHOR4,. + 0
 1229              	xFreeBytesRemaining:
 1230 0000 00000000 		.zero	4
 1231              		.section	.sbss.xMinimumEverFreeBytesRemaining,"aw",@nobits
 1232              		.align	2
 1233              		.set	.LANCHOR3,. + 0
 1236              	xMinimumEverFreeBytesRemaining:
 1237 0000 00000000 		.zero	4
 1238              		.section	.sbss.xNumberOfSuccessfulAllocations,"aw",@nobits
 1239              		.align	2
 1240              		.set	.LANCHOR6,. + 0
 1243              	xNumberOfSuccessfulAllocations:
 1244 0000 00000000 		.zero	4
 1245              		.section	.sbss.xNumberOfSuccessfulFrees,"aw",@nobits
 1246              		.align	2
 1247              		.set	.LANCHOR7,. + 0
 1250              	xNumberOfSuccessfulFrees:
 1251 0000 00000000 		.zero	4
 1252              		.section	.sbss.xStart,"aw",@nobits
 1253              		.align	2
 1254              		.set	.LANCHOR0,. + 0
 1257              	xStart:
 1258 0000 00000000 		.zero	8
 1258      00000000 
 1259              		.section	.sbss.xTotalHeapSize,"aw",@nobits
 1260              		.align	2
 1261              		.set	.LANCHOR2,. + 0
 1264              	xTotalHeapSize:
 1265 0000 00000000 		.zero	4
 1266              		.text
 1267              	.Letext0:
 1268              		.file 2 "c:\\users\\stapi\\onedrive\\desktop\\gd32vw553\\embeddedbuilder_v1.4.7.26843\\tools\\nucl
 1269              		.file 3 "c:\\users\\stapi\\onedrive\\desktop\\gd32vw553\\embeddedbuilder_v1.4.7.26843\\tools\\nucl
 1270              		.file 4 "c:\\users\\stapi\\onedrive\\desktop\\gd32vw553\\embeddedbuilder_v1.4.7.26843\\tools\\nucl
 1271              		.file 5 "..\\..\\..\\..\\plf\\riscv\\arch\\boot/boot.h"
 1272              		.file 6 "..\\..\\..\\..\\rtos\\FreeRTOS\\Source\\portable\\riscv32/portmacro.h"
 1273              		.file 7 "..\\..\\..\\..\\rtos\\FreeRTOS\\Source\\include/portable.h"
 1274              		.file 8 "..\\..\\..\\..\\rtos\\FreeRTOS\\Source\\include/task.h"
 1275              		.file 9 "c:\\users\\stapi\\onedrive\\desktop\\gd32vw553\\embeddedbuilder_v1.4.7.26843\\tools\\nucl
 1276              		.file 10 "<built-in>"