   1              		.file	"list.c"
   2              		.option nopic
   3              		.attribute arch, "rv32i2p0_m2p0_a2p0_f2p0_c2p0_b_p0p94"
   4              		.attribute unaligned_access, 0
   5              		.attribute stack_align, 16
   6              		.text
   7              	.Ltext0:
   8              		.cfi_sections	.debug_frame
   9              		.section	.text.vListInitialise,"ax",@progbits
  10              		.align	1
  11              		.globl	vListInitialise
  13              	vListInitialise:
  14              	.LFB0:
  15              		.file 1 "C:/Users/stapi/OneDrive/Desktop/GD32VW553/V1_MQTT_OK/GD32VW55X_Wifi_BLE_SDK/GD32VW55x_REL
   1:C:/Users/stapi/OneDrive/Desktop/GD32VW553/V1_MQTT_OK/GD32VW55X_Wifi_BLE_SDK/GD32VW55x_RELEASE_V1.0.2/MSDK/rtos/FreeRTOS/Source\list.c **** /*
   2:C:/Users/stapi/OneDrive/Desktop/GD32VW553/V1_MQTT_OK/GD32VW55X_Wifi_BLE_SDK/GD32VW55x_RELEASE_V1.0.2/MSDK/rtos/FreeRTOS/Source\list.c ****  * FreeRTOS Kernel V10.3.1
   3:C:/Users/stapi/OneDrive/Desktop/GD32VW553/V1_MQTT_OK/GD32VW55X_Wifi_BLE_SDK/GD32VW55x_RELEASE_V1.0.2/MSDK/rtos/FreeRTOS/Source\list.c ****  * Copyright (C) 2020 Amazon.com, Inc. or its affiliates.  All Rights Reserved.
   4:C:/Users/stapi/OneDrive/Desktop/GD32VW553/V1_MQTT_OK/GD32VW55X_Wifi_BLE_SDK/GD32VW55x_RELEASE_V1.0.2/MSDK/rtos/FreeRTOS/Source\list.c ****  *
   5:C:/Users/stapi/OneDrive/Desktop/GD32VW553/V1_MQTT_OK/GD32VW55X_Wifi_BLE_SDK/GD32VW55x_RELEASE_V1.0.2/MSDK/rtos/FreeRTOS/Source\list.c ****  * Permission is hereby granted, free of charge, to any person obtaining a copy of
   6:C:/Users/stapi/OneDrive/Desktop/GD32VW553/V1_MQTT_OK/GD32VW55X_Wifi_BLE_SDK/GD32VW55x_RELEASE_V1.0.2/MSDK/rtos/FreeRTOS/Source\list.c ****  * this software and associated documentation files (the "Software"), to deal in
   7:C:/Users/stapi/OneDrive/Desktop/GD32VW553/V1_MQTT_OK/GD32VW55X_Wifi_BLE_SDK/GD32VW55x_RELEASE_V1.0.2/MSDK/rtos/FreeRTOS/Source\list.c ****  * the Software without restriction, including without limitation the rights to
   8:C:/Users/stapi/OneDrive/Desktop/GD32VW553/V1_MQTT_OK/GD32VW55X_Wifi_BLE_SDK/GD32VW55x_RELEASE_V1.0.2/MSDK/rtos/FreeRTOS/Source\list.c ****  * use, copy, modify, merge, publish, distribute, sublicense, and/or sell copies of
   9:C:/Users/stapi/OneDrive/Desktop/GD32VW553/V1_MQTT_OK/GD32VW55X_Wifi_BLE_SDK/GD32VW55x_RELEASE_V1.0.2/MSDK/rtos/FreeRTOS/Source\list.c ****  * the Software, and to permit persons to whom the Software is furnished to do so,
  10:C:/Users/stapi/OneDrive/Desktop/GD32VW553/V1_MQTT_OK/GD32VW55X_Wifi_BLE_SDK/GD32VW55x_RELEASE_V1.0.2/MSDK/rtos/FreeRTOS/Source\list.c ****  * subject to the following conditions:
  11:C:/Users/stapi/OneDrive/Desktop/GD32VW553/V1_MQTT_OK/GD32VW55X_Wifi_BLE_SDK/GD32VW55x_RELEASE_V1.0.2/MSDK/rtos/FreeRTOS/Source\list.c ****  *
  12:C:/Users/stapi/OneDrive/Desktop/GD32VW553/V1_MQTT_OK/GD32VW55X_Wifi_BLE_SDK/GD32VW55x_RELEASE_V1.0.2/MSDK/rtos/FreeRTOS/Source\list.c ****  * The above copyright notice and this permission notice shall be included in all
  13:C:/Users/stapi/OneDrive/Desktop/GD32VW553/V1_MQTT_OK/GD32VW55X_Wifi_BLE_SDK/GD32VW55x_RELEASE_V1.0.2/MSDK/rtos/FreeRTOS/Source\list.c ****  * copies or substantial portions of the Software.
  14:C:/Users/stapi/OneDrive/Desktop/GD32VW553/V1_MQTT_OK/GD32VW55X_Wifi_BLE_SDK/GD32VW55x_RELEASE_V1.0.2/MSDK/rtos/FreeRTOS/Source\list.c ****  *
  15:C:/Users/stapi/OneDrive/Desktop/GD32VW553/V1_MQTT_OK/GD32VW55X_Wifi_BLE_SDK/GD32VW55x_RELEASE_V1.0.2/MSDK/rtos/FreeRTOS/Source\list.c ****  * THE SOFTWARE IS PROVIDED "AS IS", WITHOUT WARRANTY OF ANY KIND, EXPRESS OR
  16:C:/Users/stapi/OneDrive/Desktop/GD32VW553/V1_MQTT_OK/GD32VW55X_Wifi_BLE_SDK/GD32VW55x_RELEASE_V1.0.2/MSDK/rtos/FreeRTOS/Source\list.c ****  * IMPLIED, INCLUDING BUT NOT LIMITED TO THE WARRANTIES OF MERCHANTABILITY, FITNESS
  17:C:/Users/stapi/OneDrive/Desktop/GD32VW553/V1_MQTT_OK/GD32VW55X_Wifi_BLE_SDK/GD32VW55x_RELEASE_V1.0.2/MSDK/rtos/FreeRTOS/Source\list.c ****  * FOR A PARTICULAR PURPOSE AND NONINFRINGEMENT. IN NO EVENT SHALL THE AUTHORS OR
  18:C:/Users/stapi/OneDrive/Desktop/GD32VW553/V1_MQTT_OK/GD32VW55X_Wifi_BLE_SDK/GD32VW55x_RELEASE_V1.0.2/MSDK/rtos/FreeRTOS/Source\list.c ****  * COPYRIGHT HOLDERS BE LIABLE FOR ANY CLAIM, DAMAGES OR OTHER LIABILITY, WHETHER
  19:C:/Users/stapi/OneDrive/Desktop/GD32VW553/V1_MQTT_OK/GD32VW55X_Wifi_BLE_SDK/GD32VW55x_RELEASE_V1.0.2/MSDK/rtos/FreeRTOS/Source\list.c ****  * IN AN ACTION OF CONTRACT, TORT OR OTHERWISE, ARISING FROM, OUT OF OR IN
  20:C:/Users/stapi/OneDrive/Desktop/GD32VW553/V1_MQTT_OK/GD32VW55X_Wifi_BLE_SDK/GD32VW55x_RELEASE_V1.0.2/MSDK/rtos/FreeRTOS/Source\list.c ****  * CONNECTION WITH THE SOFTWARE OR THE USE OR OTHER DEALINGS IN THE SOFTWARE.
  21:C:/Users/stapi/OneDrive/Desktop/GD32VW553/V1_MQTT_OK/GD32VW55X_Wifi_BLE_SDK/GD32VW55x_RELEASE_V1.0.2/MSDK/rtos/FreeRTOS/Source\list.c ****  *
  22:C:/Users/stapi/OneDrive/Desktop/GD32VW553/V1_MQTT_OK/GD32VW55X_Wifi_BLE_SDK/GD32VW55x_RELEASE_V1.0.2/MSDK/rtos/FreeRTOS/Source\list.c ****  * http://www.FreeRTOS.org
  23:C:/Users/stapi/OneDrive/Desktop/GD32VW553/V1_MQTT_OK/GD32VW55X_Wifi_BLE_SDK/GD32VW55x_RELEASE_V1.0.2/MSDK/rtos/FreeRTOS/Source\list.c ****  * http://aws.amazon.com/freertos
  24:C:/Users/stapi/OneDrive/Desktop/GD32VW553/V1_MQTT_OK/GD32VW55X_Wifi_BLE_SDK/GD32VW55x_RELEASE_V1.0.2/MSDK/rtos/FreeRTOS/Source\list.c ****  *
  25:C:/Users/stapi/OneDrive/Desktop/GD32VW553/V1_MQTT_OK/GD32VW55X_Wifi_BLE_SDK/GD32VW55x_RELEASE_V1.0.2/MSDK/rtos/FreeRTOS/Source\list.c ****  * 1 tab == 4 spaces!
  26:C:/Users/stapi/OneDrive/Desktop/GD32VW553/V1_MQTT_OK/GD32VW55X_Wifi_BLE_SDK/GD32VW55x_RELEASE_V1.0.2/MSDK/rtos/FreeRTOS/Source\list.c ****  */
  27:C:/Users/stapi/OneDrive/Desktop/GD32VW553/V1_MQTT_OK/GD32VW55X_Wifi_BLE_SDK/GD32VW55x_RELEASE_V1.0.2/MSDK/rtos/FreeRTOS/Source\list.c **** 
  28:C:/Users/stapi/OneDrive/Desktop/GD32VW553/V1_MQTT_OK/GD32VW55X_Wifi_BLE_SDK/GD32VW55x_RELEASE_V1.0.2/MSDK/rtos/FreeRTOS/Source\list.c **** 
  29:C:/Users/stapi/OneDrive/Desktop/GD32VW553/V1_MQTT_OK/GD32VW55X_Wifi_BLE_SDK/GD32VW55x_RELEASE_V1.0.2/MSDK/rtos/FreeRTOS/Source\list.c **** #include <stdlib.h>
  30:C:/Users/stapi/OneDrive/Desktop/GD32VW553/V1_MQTT_OK/GD32VW55X_Wifi_BLE_SDK/GD32VW55x_RELEASE_V1.0.2/MSDK/rtos/FreeRTOS/Source\list.c **** #include "FreeRTOS.h"
  31:C:/Users/stapi/OneDrive/Desktop/GD32VW553/V1_MQTT_OK/GD32VW55X_Wifi_BLE_SDK/GD32VW55x_RELEASE_V1.0.2/MSDK/rtos/FreeRTOS/Source\list.c **** #include "list.h"
  32:C:/Users/stapi/OneDrive/Desktop/GD32VW553/V1_MQTT_OK/GD32VW55X_Wifi_BLE_SDK/GD32VW55x_RELEASE_V1.0.2/MSDK/rtos/FreeRTOS/Source\list.c **** 
  33:C:/Users/stapi/OneDrive/Desktop/GD32VW553/V1_MQTT_OK/GD32VW55X_Wifi_BLE_SDK/GD32VW55x_RELEASE_V1.0.2/MSDK/rtos/FreeRTOS/Source\list.c **** /*-----------------------------------------------------------
  34:C:/Users/stapi/OneDrive/Desktop/GD32VW553/V1_MQTT_OK/GD32VW55X_Wifi_BLE_SDK/GD32VW55x_RELEASE_V1.0.2/MSDK/rtos/FreeRTOS/Source\list.c ****  * PUBLIC LIST API documented in list.h
  35:C:/Users/stapi/OneDrive/Desktop/GD32VW553/V1_MQTT_OK/GD32VW55X_Wifi_BLE_SDK/GD32VW55x_RELEASE_V1.0.2/MSDK/rtos/FreeRTOS/Source\list.c ****  *----------------------------------------------------------*/
  36:C:/Users/stapi/OneDrive/Desktop/GD32VW553/V1_MQTT_OK/GD32VW55X_Wifi_BLE_SDK/GD32VW55x_RELEASE_V1.0.2/MSDK/rtos/FreeRTOS/Source\list.c **** 
  37:C:/Users/stapi/OneDrive/Desktop/GD32VW553/V1_MQTT_OK/GD32VW55X_Wifi_BLE_SDK/GD32VW55x_RELEASE_V1.0.2/MSDK/rtos/FreeRTOS/Source\list.c **** void vListInitialise( List_t * const pxList )
  38:C:/Users/stapi/OneDrive/Desktop/GD32VW553/V1_MQTT_OK/GD32VW55X_Wifi_BLE_SDK/GD32VW55x_RELEASE_V1.0.2/MSDK/rtos/FreeRTOS/Source\list.c **** {
  16              		.loc 1 38 1
  17              		.cfi_startproc
  18              	.LVL0:
  39:C:/Users/stapi/OneDrive/Desktop/GD32VW553/V1_MQTT_OK/GD32VW55X_Wifi_BLE_SDK/GD32VW55x_RELEASE_V1.0.2/MSDK/rtos/FreeRTOS/Source\list.c **** 	/* The list structure contains a list item which is used to mark the
  40:C:/Users/stapi/OneDrive/Desktop/GD32VW553/V1_MQTT_OK/GD32VW55X_Wifi_BLE_SDK/GD32VW55x_RELEASE_V1.0.2/MSDK/rtos/FreeRTOS/Source\list.c **** 	end of the list.  To initialise the list the list end is inserted
  41:C:/Users/stapi/OneDrive/Desktop/GD32VW553/V1_MQTT_OK/GD32VW55X_Wifi_BLE_SDK/GD32VW55x_RELEASE_V1.0.2/MSDK/rtos/FreeRTOS/Source\list.c **** 	as the only list entry. */
  42:C:/Users/stapi/OneDrive/Desktop/GD32VW553/V1_MQTT_OK/GD32VW55X_Wifi_BLE_SDK/GD32VW55x_RELEASE_V1.0.2/MSDK/rtos/FreeRTOS/Source\list.c **** 	pxList->pxIndex = ( ListItem_t * ) &( pxList->xListEnd );			/*lint !e826 !e740 !e9087 The mini lis
  19              		.loc 1 42 2
  20              		.loc 1 42 37 is_stmt 0
  21 0000 93078500 		addi	a5,a0,8
  43:C:/Users/stapi/OneDrive/Desktop/GD32VW553/V1_MQTT_OK/GD32VW55X_Wifi_BLE_SDK/GD32VW55x_RELEASE_V1.0.2/MSDK/rtos/FreeRTOS/Source\list.c **** 
  44:C:/Users/stapi/OneDrive/Desktop/GD32VW553/V1_MQTT_OK/GD32VW55X_Wifi_BLE_SDK/GD32VW55x_RELEASE_V1.0.2/MSDK/rtos/FreeRTOS/Source\list.c **** 	/* The list end value is the highest possible value in the list to
  45:C:/Users/stapi/OneDrive/Desktop/GD32VW553/V1_MQTT_OK/GD32VW55X_Wifi_BLE_SDK/GD32VW55x_RELEASE_V1.0.2/MSDK/rtos/FreeRTOS/Source\list.c **** 	ensure it remains at the end of the list. */
  46:C:/Users/stapi/OneDrive/Desktop/GD32VW553/V1_MQTT_OK/GD32VW55X_Wifi_BLE_SDK/GD32VW55x_RELEASE_V1.0.2/MSDK/rtos/FreeRTOS/Source\list.c **** 	pxList->xListEnd.xItemValue = portMAX_DELAY;
  22              		.loc 1 46 30
  23 0004 7D56     		li	a2,-1
  24 0006 FD56     		li	a3,-1
  42:C:/Users/stapi/OneDrive/Desktop/GD32VW553/V1_MQTT_OK/GD32VW55X_Wifi_BLE_SDK/GD32VW55x_RELEASE_V1.0.2/MSDK/rtos/FreeRTOS/Source\list.c **** 
  25              		.loc 1 42 18
  26 0008 5CC1     		sw	a5,4(a0)
  27              		.loc 1 46 2 is_stmt 1
  28              		.loc 1 46 30 is_stmt 0
  29 000a 10C5     		sw	a2,8(a0)
  30 000c 54C5     		sw	a3,12(a0)
  47:C:/Users/stapi/OneDrive/Desktop/GD32VW553/V1_MQTT_OK/GD32VW55X_Wifi_BLE_SDK/GD32VW55x_RELEASE_V1.0.2/MSDK/rtos/FreeRTOS/Source\list.c **** 
  48:C:/Users/stapi/OneDrive/Desktop/GD32VW553/V1_MQTT_OK/GD32VW55X_Wifi_BLE_SDK/GD32VW55x_RELEASE_V1.0.2/MSDK/rtos/FreeRTOS/Source\list.c **** 	/* The list end next and previous pointers point to itself so we know
  49:C:/Users/stapi/OneDrive/Desktop/GD32VW553/V1_MQTT_OK/GD32VW55X_Wifi_BLE_SDK/GD32VW55x_RELEASE_V1.0.2/MSDK/rtos/FreeRTOS/Source\list.c **** 	when the list is empty. */
  50:C:/Users/stapi/OneDrive/Desktop/GD32VW553/V1_MQTT_OK/GD32VW55X_Wifi_BLE_SDK/GD32VW55x_RELEASE_V1.0.2/MSDK/rtos/FreeRTOS/Source\list.c **** 	pxList->xListEnd.pxNext = ( ListItem_t * ) &( pxList->xListEnd );	/*lint !e826 !e740 !e9087 The mi
  31              		.loc 1 50 2 is_stmt 1
  32              		.loc 1 50 26 is_stmt 0
  33 000e 1CC9     		sw	a5,16(a0)
  51:C:/Users/stapi/OneDrive/Desktop/GD32VW553/V1_MQTT_OK/GD32VW55X_Wifi_BLE_SDK/GD32VW55x_RELEASE_V1.0.2/MSDK/rtos/FreeRTOS/Source\list.c **** 	pxList->xListEnd.pxPrevious = ( ListItem_t * ) &( pxList->xListEnd );/*lint !e826 !e740 !e9087 The
  34              		.loc 1 51 2 is_stmt 1
  35              		.loc 1 51 30 is_stmt 0
  36 0010 5CC9     		sw	a5,20(a0)
  52:C:/Users/stapi/OneDrive/Desktop/GD32VW553/V1_MQTT_OK/GD32VW55X_Wifi_BLE_SDK/GD32VW55x_RELEASE_V1.0.2/MSDK/rtos/FreeRTOS/Source\list.c **** 
  53:C:/Users/stapi/OneDrive/Desktop/GD32VW553/V1_MQTT_OK/GD32VW55X_Wifi_BLE_SDK/GD32VW55x_RELEASE_V1.0.2/MSDK/rtos/FreeRTOS/Source\list.c **** 	pxList->uxNumberOfItems = ( UBaseType_t ) 0U;
  37              		.loc 1 53 2 is_stmt 1
  38              		.loc 1 53 26 is_stmt 0
  39 0012 23200500 		sw	zero,0(a0)
  54:C:/Users/stapi/OneDrive/Desktop/GD32VW553/V1_MQTT_OK/GD32VW55X_Wifi_BLE_SDK/GD32VW55x_RELEASE_V1.0.2/MSDK/rtos/FreeRTOS/Source\list.c **** 
  55:C:/Users/stapi/OneDrive/Desktop/GD32VW553/V1_MQTT_OK/GD32VW55X_Wifi_BLE_SDK/GD32VW55x_RELEASE_V1.0.2/MSDK/rtos/FreeRTOS/Source\list.c **** 	/* Write known values into the list if
  56:C:/Users/stapi/OneDrive/Desktop/GD32VW553/V1_MQTT_OK/GD32VW55X_Wifi_BLE_SDK/GD32VW55x_RELEASE_V1.0.2/MSDK/rtos/FreeRTOS/Source\list.c **** 	configUSE_LIST_DATA_INTEGRITY_CHECK_BYTES is set to 1. */
  57:C:/Users/stapi/OneDrive/Desktop/GD32VW553/V1_MQTT_OK/GD32VW55X_Wifi_BLE_SDK/GD32VW55x_RELEASE_V1.0.2/MSDK/rtos/FreeRTOS/Source\list.c **** 	listSET_LIST_INTEGRITY_CHECK_1_VALUE( pxList );
  40              		.loc 1 57 48 is_stmt 1
  58:C:/Users/stapi/OneDrive/Desktop/GD32VW553/V1_MQTT_OK/GD32VW55X_Wifi_BLE_SDK/GD32VW55x_RELEASE_V1.0.2/MSDK/rtos/FreeRTOS/Source\list.c **** 	listSET_LIST_INTEGRITY_CHECK_2_VALUE( pxList );
  41              		.loc 1 58 48
  59:C:/Users/stapi/OneDrive/Desktop/GD32VW553/V1_MQTT_OK/GD32VW55X_Wifi_BLE_SDK/GD32VW55x_RELEASE_V1.0.2/MSDK/rtos/FreeRTOS/Source\list.c **** }
  42              		.loc 1 59 1 is_stmt 0
  43 0016 8280     		ret
  44              		.cfi_endproc
  45              	.LFE0:
  47              		.section	.text.vListInitialiseItem,"ax",@progbits
  48              		.align	1
  49              		.globl	vListInitialiseItem
  51              	vListInitialiseItem:
  52              	.LFB1:
  60:C:/Users/stapi/OneDrive/Desktop/GD32VW553/V1_MQTT_OK/GD32VW55X_Wifi_BLE_SDK/GD32VW55x_RELEASE_V1.0.2/MSDK/rtos/FreeRTOS/Source\list.c **** /*-----------------------------------------------------------*/
  61:C:/Users/stapi/OneDrive/Desktop/GD32VW553/V1_MQTT_OK/GD32VW55X_Wifi_BLE_SDK/GD32VW55x_RELEASE_V1.0.2/MSDK/rtos/FreeRTOS/Source\list.c **** 
  62:C:/Users/stapi/OneDrive/Desktop/GD32VW553/V1_MQTT_OK/GD32VW55X_Wifi_BLE_SDK/GD32VW55x_RELEASE_V1.0.2/MSDK/rtos/FreeRTOS/Source\list.c **** void vListInitialiseItem( ListItem_t * const pxItem )
  63:C:/Users/stapi/OneDrive/Desktop/GD32VW553/V1_MQTT_OK/GD32VW55X_Wifi_BLE_SDK/GD32VW55x_RELEASE_V1.0.2/MSDK/rtos/FreeRTOS/Source\list.c **** {
  53              		.loc 1 63 1 is_stmt 1
  54              		.cfi_startproc
  55              	.LVL1:
  64:C:/Users/stapi/OneDrive/Desktop/GD32VW553/V1_MQTT_OK/GD32VW55X_Wifi_BLE_SDK/GD32VW55x_RELEASE_V1.0.2/MSDK/rtos/FreeRTOS/Source\list.c **** 	/* Make sure the list item is not recorded as being on a list. */
  65:C:/Users/stapi/OneDrive/Desktop/GD32VW553/V1_MQTT_OK/GD32VW55X_Wifi_BLE_SDK/GD32VW55x_RELEASE_V1.0.2/MSDK/rtos/FreeRTOS/Source\list.c **** 	pxItem->pxContainer = NULL;
  56              		.loc 1 65 2
  57              		.loc 1 65 22 is_stmt 0
  58 0000 232A0500 		sw	zero,20(a0)
  66:C:/Users/stapi/OneDrive/Desktop/GD32VW553/V1_MQTT_OK/GD32VW55X_Wifi_BLE_SDK/GD32VW55x_RELEASE_V1.0.2/MSDK/rtos/FreeRTOS/Source\list.c **** 
  67:C:/Users/stapi/OneDrive/Desktop/GD32VW553/V1_MQTT_OK/GD32VW55X_Wifi_BLE_SDK/GD32VW55x_RELEASE_V1.0.2/MSDK/rtos/FreeRTOS/Source\list.c **** 	/* Write known values into the list item if
  68:C:/Users/stapi/OneDrive/Desktop/GD32VW553/V1_MQTT_OK/GD32VW55X_Wifi_BLE_SDK/GD32VW55x_RELEASE_V1.0.2/MSDK/rtos/FreeRTOS/Source\list.c **** 	configUSE_LIST_DATA_INTEGRITY_CHECK_BYTES is set to 1. */
  69:C:/Users/stapi/OneDrive/Desktop/GD32VW553/V1_MQTT_OK/GD32VW55X_Wifi_BLE_SDK/GD32VW55x_RELEASE_V1.0.2/MSDK/rtos/FreeRTOS/Source\list.c **** 	listSET_FIRST_LIST_ITEM_INTEGRITY_CHECK_VALUE( pxItem );
  59              		.loc 1 69 57 is_stmt 1
  70:C:/Users/stapi/OneDrive/Desktop/GD32VW553/V1_MQTT_OK/GD32VW55X_Wifi_BLE_SDK/GD32VW55x_RELEASE_V1.0.2/MSDK/rtos/FreeRTOS/Source\list.c **** 	listSET_SECOND_LIST_ITEM_INTEGRITY_CHECK_VALUE( pxItem );
  60              		.loc 1 70 58
  71:C:/Users/stapi/OneDrive/Desktop/GD32VW553/V1_MQTT_OK/GD32VW55X_Wifi_BLE_SDK/GD32VW55x_RELEASE_V1.0.2/MSDK/rtos/FreeRTOS/Source\list.c **** }
  61              		.loc 1 71 1 is_stmt 0
  62 0004 8280     		ret
  63              		.cfi_endproc
  64              	.LFE1:
  66              		.section	.text.vListInsertEnd,"ax",@progbits
  67              		.align	1
  68              		.globl	vListInsertEnd
  70              	vListInsertEnd:
  71              	.LFB2:
  72:C:/Users/stapi/OneDrive/Desktop/GD32VW553/V1_MQTT_OK/GD32VW55X_Wifi_BLE_SDK/GD32VW55x_RELEASE_V1.0.2/MSDK/rtos/FreeRTOS/Source\list.c **** /*-----------------------------------------------------------*/
  73:C:/Users/stapi/OneDrive/Desktop/GD32VW553/V1_MQTT_OK/GD32VW55X_Wifi_BLE_SDK/GD32VW55x_RELEASE_V1.0.2/MSDK/rtos/FreeRTOS/Source\list.c **** 
  74:C:/Users/stapi/OneDrive/Desktop/GD32VW553/V1_MQTT_OK/GD32VW55X_Wifi_BLE_SDK/GD32VW55x_RELEASE_V1.0.2/MSDK/rtos/FreeRTOS/Source\list.c **** void vListInsertEnd( List_t * const pxList, ListItem_t * const pxNewListItem )
  75:C:/Users/stapi/OneDrive/Desktop/GD32VW553/V1_MQTT_OK/GD32VW55X_Wifi_BLE_SDK/GD32VW55x_RELEASE_V1.0.2/MSDK/rtos/FreeRTOS/Source\list.c **** {
  72              		.loc 1 75 1 is_stmt 1
  73              		.cfi_startproc
  74              	.LVL2:
  76:C:/Users/stapi/OneDrive/Desktop/GD32VW553/V1_MQTT_OK/GD32VW55X_Wifi_BLE_SDK/GD32VW55x_RELEASE_V1.0.2/MSDK/rtos/FreeRTOS/Source\list.c **** ListItem_t * const pxIndex = pxList->pxIndex;
  75              		.loc 1 76 1
  76              		.loc 1 76 20 is_stmt 0
  77 0000 5C41     		lw	a5,4(a0)
  78              	.LVL3:
  77:C:/Users/stapi/OneDrive/Desktop/GD32VW553/V1_MQTT_OK/GD32VW55X_Wifi_BLE_SDK/GD32VW55x_RELEASE_V1.0.2/MSDK/rtos/FreeRTOS/Source\list.c **** 
  78:C:/Users/stapi/OneDrive/Desktop/GD32VW553/V1_MQTT_OK/GD32VW55X_Wifi_BLE_SDK/GD32VW55x_RELEASE_V1.0.2/MSDK/rtos/FreeRTOS/Source\list.c **** 	/* Only effective when configASSERT() is also defined, these tests may catch
  79:C:/Users/stapi/OneDrive/Desktop/GD32VW553/V1_MQTT_OK/GD32VW55X_Wifi_BLE_SDK/GD32VW55x_RELEASE_V1.0.2/MSDK/rtos/FreeRTOS/Source\list.c **** 	the list data structures being overwritten in memory.  They will not catch
  80:C:/Users/stapi/OneDrive/Desktop/GD32VW553/V1_MQTT_OK/GD32VW55X_Wifi_BLE_SDK/GD32VW55x_RELEASE_V1.0.2/MSDK/rtos/FreeRTOS/Source\list.c **** 	data errors caused by incorrect configuration or use of FreeRTOS. */
  81:C:/Users/stapi/OneDrive/Desktop/GD32VW553/V1_MQTT_OK/GD32VW55X_Wifi_BLE_SDK/GD32VW55x_RELEASE_V1.0.2/MSDK/rtos/FreeRTOS/Source\list.c **** 	listTEST_LIST_INTEGRITY( pxList );
  79              		.loc 1 81 35 is_stmt 1
  82:C:/Users/stapi/OneDrive/Desktop/GD32VW553/V1_MQTT_OK/GD32VW55X_Wifi_BLE_SDK/GD32VW55x_RELEASE_V1.0.2/MSDK/rtos/FreeRTOS/Source\list.c **** 	listTEST_LIST_ITEM_INTEGRITY( pxNewListItem );
  80              		.loc 1 82 47
  83:C:/Users/stapi/OneDrive/Desktop/GD32VW553/V1_MQTT_OK/GD32VW55X_Wifi_BLE_SDK/GD32VW55x_RELEASE_V1.0.2/MSDK/rtos/FreeRTOS/Source\list.c **** 
  84:C:/Users/stapi/OneDrive/Desktop/GD32VW553/V1_MQTT_OK/GD32VW55X_Wifi_BLE_SDK/GD32VW55x_RELEASE_V1.0.2/MSDK/rtos/FreeRTOS/Source\list.c **** 	/* Insert a new list item into pxList, but rather than sort the list,
  85:C:/Users/stapi/OneDrive/Desktop/GD32VW553/V1_MQTT_OK/GD32VW55X_Wifi_BLE_SDK/GD32VW55x_RELEASE_V1.0.2/MSDK/rtos/FreeRTOS/Source\list.c **** 	makes the new list item the last item to be removed by a call to
  86:C:/Users/stapi/OneDrive/Desktop/GD32VW553/V1_MQTT_OK/GD32VW55X_Wifi_BLE_SDK/GD32VW55x_RELEASE_V1.0.2/MSDK/rtos/FreeRTOS/Source\list.c **** 	listGET_OWNER_OF_NEXT_ENTRY(). */
  87:C:/Users/stapi/OneDrive/Desktop/GD32VW553/V1_MQTT_OK/GD32VW55X_Wifi_BLE_SDK/GD32VW55x_RELEASE_V1.0.2/MSDK/rtos/FreeRTOS/Source\list.c **** 	pxNewListItem->pxNext = pxIndex;
  81              		.loc 1 87 2
  88:C:/Users/stapi/OneDrive/Desktop/GD32VW553/V1_MQTT_OK/GD32VW55X_Wifi_BLE_SDK/GD32VW55x_RELEASE_V1.0.2/MSDK/rtos/FreeRTOS/Source\list.c **** 	pxNewListItem->pxPrevious = pxIndex->pxPrevious;
  82              		.loc 1 88 37 is_stmt 0
  83 0002 D847     		lw	a4,12(a5)
  87:C:/Users/stapi/OneDrive/Desktop/GD32VW553/V1_MQTT_OK/GD32VW55X_Wifi_BLE_SDK/GD32VW55x_RELEASE_V1.0.2/MSDK/rtos/FreeRTOS/Source\list.c **** 	pxNewListItem->pxPrevious = pxIndex->pxPrevious;
  84              		.loc 1 87 24
  85 0004 9CC5     		sw	a5,8(a1)
  86              		.loc 1 88 2 is_stmt 1
  87              		.loc 1 88 28 is_stmt 0
  88 0006 D8C5     		sw	a4,12(a1)
  89:C:/Users/stapi/OneDrive/Desktop/GD32VW553/V1_MQTT_OK/GD32VW55X_Wifi_BLE_SDK/GD32VW55x_RELEASE_V1.0.2/MSDK/rtos/FreeRTOS/Source\list.c **** 
  90:C:/Users/stapi/OneDrive/Desktop/GD32VW553/V1_MQTT_OK/GD32VW55X_Wifi_BLE_SDK/GD32VW55x_RELEASE_V1.0.2/MSDK/rtos/FreeRTOS/Source\list.c **** 	/* Only used during decision coverage testing. */
  91:C:/Users/stapi/OneDrive/Desktop/GD32VW553/V1_MQTT_OK/GD32VW55X_Wifi_BLE_SDK/GD32VW55x_RELEASE_V1.0.2/MSDK/rtos/FreeRTOS/Source\list.c **** 	mtCOVERAGE_TEST_DELAY();
  89              		.loc 1 91 25 is_stmt 1
  92:C:/Users/stapi/OneDrive/Desktop/GD32VW553/V1_MQTT_OK/GD32VW55X_Wifi_BLE_SDK/GD32VW55x_RELEASE_V1.0.2/MSDK/rtos/FreeRTOS/Source\list.c **** 
  93:C:/Users/stapi/OneDrive/Desktop/GD32VW553/V1_MQTT_OK/GD32VW55X_Wifi_BLE_SDK/GD32VW55x_RELEASE_V1.0.2/MSDK/rtos/FreeRTOS/Source\list.c **** 	pxIndex->pxPrevious->pxNext = pxNewListItem;
  90              		.loc 1 93 2
  91              		.loc 1 93 30 is_stmt 0
  92 0008 D847     		lw	a4,12(a5)
  93 000a 0CC7     		sw	a1,8(a4)
  94:C:/Users/stapi/OneDrive/Desktop/GD32VW553/V1_MQTT_OK/GD32VW55X_Wifi_BLE_SDK/GD32VW55x_RELEASE_V1.0.2/MSDK/rtos/FreeRTOS/Source\list.c **** 	pxIndex->pxPrevious = pxNewListItem;
  94              		.loc 1 94 2 is_stmt 1
  95              		.loc 1 94 22 is_stmt 0
  96 000c CCC7     		sw	a1,12(a5)
  95:C:/Users/stapi/OneDrive/Desktop/GD32VW553/V1_MQTT_OK/GD32VW55X_Wifi_BLE_SDK/GD32VW55x_RELEASE_V1.0.2/MSDK/rtos/FreeRTOS/Source\list.c **** 
  96:C:/Users/stapi/OneDrive/Desktop/GD32VW553/V1_MQTT_OK/GD32VW55X_Wifi_BLE_SDK/GD32VW55x_RELEASE_V1.0.2/MSDK/rtos/FreeRTOS/Source\list.c **** 	/* Remember which list the item is in. */
  97:C:/Users/stapi/OneDrive/Desktop/GD32VW553/V1_MQTT_OK/GD32VW55X_Wifi_BLE_SDK/GD32VW55x_RELEASE_V1.0.2/MSDK/rtos/FreeRTOS/Source\list.c **** 	pxNewListItem->pxContainer = pxList;
  97              		.loc 1 97 2 is_stmt 1
  98:C:/Users/stapi/OneDrive/Desktop/GD32VW553/V1_MQTT_OK/GD32VW55X_Wifi_BLE_SDK/GD32VW55x_RELEASE_V1.0.2/MSDK/rtos/FreeRTOS/Source\list.c **** 
  99:C:/Users/stapi/OneDrive/Desktop/GD32VW553/V1_MQTT_OK/GD32VW55X_Wifi_BLE_SDK/GD32VW55x_RELEASE_V1.0.2/MSDK/rtos/FreeRTOS/Source\list.c **** 	( pxList->uxNumberOfItems )++;
  98              		.loc 1 99 10 is_stmt 0
  99 000e 1C41     		lw	a5,0(a0)
 100              	.LVL4:
  97:C:/Users/stapi/OneDrive/Desktop/GD32VW553/V1_MQTT_OK/GD32VW55X_Wifi_BLE_SDK/GD32VW55x_RELEASE_V1.0.2/MSDK/rtos/FreeRTOS/Source\list.c **** 
 101              		.loc 1 97 29
 102 0010 C8C9     		sw	a0,20(a1)
 103              		.loc 1 99 2 is_stmt 1
 104              		.loc 1 99 29 is_stmt 0
 105 0012 8507     		addi	a5,a5,1
 106 0014 1CC1     		sw	a5,0(a0)
 100:C:/Users/stapi/OneDrive/Desktop/GD32VW553/V1_MQTT_OK/GD32VW55X_Wifi_BLE_SDK/GD32VW55x_RELEASE_V1.0.2/MSDK/rtos/FreeRTOS/Source\list.c **** }
 107              		.loc 1 100 1
 108 0016 8280     		ret
 109              		.cfi_endproc
 110              	.LFE2:
 112              		.section	.text.vListInsert,"ax",@progbits
 113              		.align	1
 114              		.globl	vListInsert
 116              	vListInsert:
 117              	.LFB3:
 101:C:/Users/stapi/OneDrive/Desktop/GD32VW553/V1_MQTT_OK/GD32VW55X_Wifi_BLE_SDK/GD32VW55x_RELEASE_V1.0.2/MSDK/rtos/FreeRTOS/Source\list.c **** /*-----------------------------------------------------------*/
 102:C:/Users/stapi/OneDrive/Desktop/GD32VW553/V1_MQTT_OK/GD32VW55X_Wifi_BLE_SDK/GD32VW55x_RELEASE_V1.0.2/MSDK/rtos/FreeRTOS/Source\list.c **** 
 103:C:/Users/stapi/OneDrive/Desktop/GD32VW553/V1_MQTT_OK/GD32VW55X_Wifi_BLE_SDK/GD32VW55x_RELEASE_V1.0.2/MSDK/rtos/FreeRTOS/Source\list.c **** void vListInsert( List_t * const pxList, ListItem_t * const pxNewListItem )
 104:C:/Users/stapi/OneDrive/Desktop/GD32VW553/V1_MQTT_OK/GD32VW55X_Wifi_BLE_SDK/GD32VW55x_RELEASE_V1.0.2/MSDK/rtos/FreeRTOS/Source\list.c **** {
 118              		.loc 1 104 1 is_stmt 1
 119              		.cfi_startproc
 120              	.LVL5:
 105:C:/Users/stapi/OneDrive/Desktop/GD32VW553/V1_MQTT_OK/GD32VW55X_Wifi_BLE_SDK/GD32VW55x_RELEASE_V1.0.2/MSDK/rtos/FreeRTOS/Source\list.c **** ListItem_t *pxIterator;
 121              		.loc 1 105 1
 106:C:/Users/stapi/OneDrive/Desktop/GD32VW553/V1_MQTT_OK/GD32VW55X_Wifi_BLE_SDK/GD32VW55x_RELEASE_V1.0.2/MSDK/rtos/FreeRTOS/Source\list.c **** const TickType_t xValueOfInsertion = pxNewListItem->xItemValue;
 122              		.loc 1 106 1
 123              		.loc 1 106 18 is_stmt 0
 124 0000 9441     		lw	a3,0(a1)
 107:C:/Users/stapi/OneDrive/Desktop/GD32VW553/V1_MQTT_OK/GD32VW55X_Wifi_BLE_SDK/GD32VW55x_RELEASE_V1.0.2/MSDK/rtos/FreeRTOS/Source\list.c **** 
 108:C:/Users/stapi/OneDrive/Desktop/GD32VW553/V1_MQTT_OK/GD32VW55X_Wifi_BLE_SDK/GD32VW55x_RELEASE_V1.0.2/MSDK/rtos/FreeRTOS/Source\list.c **** 	/* Only effective when configASSERT() is also defined, these tests may catch
 109:C:/Users/stapi/OneDrive/Desktop/GD32VW553/V1_MQTT_OK/GD32VW55X_Wifi_BLE_SDK/GD32VW55x_RELEASE_V1.0.2/MSDK/rtos/FreeRTOS/Source\list.c **** 	the list data structures being overwritten in memory.  They will not catch
 110:C:/Users/stapi/OneDrive/Desktop/GD32VW553/V1_MQTT_OK/GD32VW55X_Wifi_BLE_SDK/GD32VW55x_RELEASE_V1.0.2/MSDK/rtos/FreeRTOS/Source\list.c **** 	data errors caused by incorrect configuration or use of FreeRTOS. */
 111:C:/Users/stapi/OneDrive/Desktop/GD32VW553/V1_MQTT_OK/GD32VW55X_Wifi_BLE_SDK/GD32VW55x_RELEASE_V1.0.2/MSDK/rtos/FreeRTOS/Source\list.c **** 	listTEST_LIST_INTEGRITY( pxList );
 112:C:/Users/stapi/OneDrive/Desktop/GD32VW553/V1_MQTT_OK/GD32VW55X_Wifi_BLE_SDK/GD32VW55x_RELEASE_V1.0.2/MSDK/rtos/FreeRTOS/Source\list.c **** 	listTEST_LIST_ITEM_INTEGRITY( pxNewListItem );
 113:C:/Users/stapi/OneDrive/Desktop/GD32VW553/V1_MQTT_OK/GD32VW55X_Wifi_BLE_SDK/GD32VW55x_RELEASE_V1.0.2/MSDK/rtos/FreeRTOS/Source\list.c **** 
 114:C:/Users/stapi/OneDrive/Desktop/GD32VW553/V1_MQTT_OK/GD32VW55X_Wifi_BLE_SDK/GD32VW55x_RELEASE_V1.0.2/MSDK/rtos/FreeRTOS/Source\list.c **** 	/* Insert the new list item into the list, sorted in xItemValue order.
 115:C:/Users/stapi/OneDrive/Desktop/GD32VW553/V1_MQTT_OK/GD32VW55X_Wifi_BLE_SDK/GD32VW55x_RELEASE_V1.0.2/MSDK/rtos/FreeRTOS/Source\list.c **** 
 116:C:/Users/stapi/OneDrive/Desktop/GD32VW553/V1_MQTT_OK/GD32VW55X_Wifi_BLE_SDK/GD32VW55x_RELEASE_V1.0.2/MSDK/rtos/FreeRTOS/Source\list.c **** 	If the list already contains a list item with the same item value then the
 117:C:/Users/stapi/OneDrive/Desktop/GD32VW553/V1_MQTT_OK/GD32VW55X_Wifi_BLE_SDK/GD32VW55x_RELEASE_V1.0.2/MSDK/rtos/FreeRTOS/Source\list.c **** 	new list item should be placed after it.  This ensures that TCBs which are
 118:C:/Users/stapi/OneDrive/Desktop/GD32VW553/V1_MQTT_OK/GD32VW55X_Wifi_BLE_SDK/GD32VW55x_RELEASE_V1.0.2/MSDK/rtos/FreeRTOS/Source\list.c **** 	stored in ready lists (all of which have the same xItemValue value) get a
 119:C:/Users/stapi/OneDrive/Desktop/GD32VW553/V1_MQTT_OK/GD32VW55X_Wifi_BLE_SDK/GD32VW55x_RELEASE_V1.0.2/MSDK/rtos/FreeRTOS/Source\list.c **** 	share of the CPU.  However, if the xItemValue is the same as the back marker
 120:C:/Users/stapi/OneDrive/Desktop/GD32VW553/V1_MQTT_OK/GD32VW55X_Wifi_BLE_SDK/GD32VW55x_RELEASE_V1.0.2/MSDK/rtos/FreeRTOS/Source\list.c **** 	the iteration loop below will not end.  Therefore the value is checked
 121:C:/Users/stapi/OneDrive/Desktop/GD32VW553/V1_MQTT_OK/GD32VW55X_Wifi_BLE_SDK/GD32VW55x_RELEASE_V1.0.2/MSDK/rtos/FreeRTOS/Source\list.c **** 	first, and the algorithm slightly modified if necessary. */
 122:C:/Users/stapi/OneDrive/Desktop/GD32VW553/V1_MQTT_OK/GD32VW55X_Wifi_BLE_SDK/GD32VW55x_RELEASE_V1.0.2/MSDK/rtos/FreeRTOS/Source\list.c **** 	if( xValueOfInsertion == portMAX_DELAY )
 125              		.loc 1 122 4
 126 0002 FD57     		li	a5,-1
 106:C:/Users/stapi/OneDrive/Desktop/GD32VW553/V1_MQTT_OK/GD32VW55X_Wifi_BLE_SDK/GD32VW55x_RELEASE_V1.0.2/MSDK/rtos/FreeRTOS/Source\list.c **** const TickType_t xValueOfInsertion = pxNewListItem->xItemValue;
 127              		.loc 1 106 18
 128 0004 D041     		lw	a2,4(a1)
 129              	.LVL6:
 111:C:/Users/stapi/OneDrive/Desktop/GD32VW553/V1_MQTT_OK/GD32VW55X_Wifi_BLE_SDK/GD32VW55x_RELEASE_V1.0.2/MSDK/rtos/FreeRTOS/Source\list.c **** 	listTEST_LIST_ITEM_INTEGRITY( pxNewListItem );
 130              		.loc 1 111 35 is_stmt 1
 112:C:/Users/stapi/OneDrive/Desktop/GD32VW553/V1_MQTT_OK/GD32VW55X_Wifi_BLE_SDK/GD32VW55x_RELEASE_V1.0.2/MSDK/rtos/FreeRTOS/Source\list.c **** 
 131              		.loc 1 112 47
 132              		.loc 1 122 2
 133              		.loc 1 122 4 is_stmt 0
 134 0006 639FF600 		bne	a3,a5,.L5
 135 000a 631DD600 		bne	a2,a3,.L5
 123:C:/Users/stapi/OneDrive/Desktop/GD32VW553/V1_MQTT_OK/GD32VW55X_Wifi_BLE_SDK/GD32VW55x_RELEASE_V1.0.2/MSDK/rtos/FreeRTOS/Source\list.c **** 	{
 124:C:/Users/stapi/OneDrive/Desktop/GD32VW553/V1_MQTT_OK/GD32VW55X_Wifi_BLE_SDK/GD32VW55x_RELEASE_V1.0.2/MSDK/rtos/FreeRTOS/Source\list.c **** 		pxIterator = pxList->xListEnd.pxPrevious;
 136              		.loc 1 124 3 is_stmt 1
 137              		.loc 1 124 14 is_stmt 0
 138 000e 5849     		lw	a4,20(a0)
 139              	.LVL7:
 140              	.L6:
 125:C:/Users/stapi/OneDrive/Desktop/GD32VW553/V1_MQTT_OK/GD32VW55X_Wifi_BLE_SDK/GD32VW55x_RELEASE_V1.0.2/MSDK/rtos/FreeRTOS/Source\list.c **** 	}
 126:C:/Users/stapi/OneDrive/Desktop/GD32VW553/V1_MQTT_OK/GD32VW55X_Wifi_BLE_SDK/GD32VW55x_RELEASE_V1.0.2/MSDK/rtos/FreeRTOS/Source\list.c **** 	else
 127:C:/Users/stapi/OneDrive/Desktop/GD32VW553/V1_MQTT_OK/GD32VW55X_Wifi_BLE_SDK/GD32VW55x_RELEASE_V1.0.2/MSDK/rtos/FreeRTOS/Source\list.c **** 	{
 128:C:/Users/stapi/OneDrive/Desktop/GD32VW553/V1_MQTT_OK/GD32VW55X_Wifi_BLE_SDK/GD32VW55x_RELEASE_V1.0.2/MSDK/rtos/FreeRTOS/Source\list.c **** 		/* *** NOTE ***********************************************************
 129:C:/Users/stapi/OneDrive/Desktop/GD32VW553/V1_MQTT_OK/GD32VW55X_Wifi_BLE_SDK/GD32VW55x_RELEASE_V1.0.2/MSDK/rtos/FreeRTOS/Source\list.c **** 		If you find your application is crashing here then likely causes are
 130:C:/Users/stapi/OneDrive/Desktop/GD32VW553/V1_MQTT_OK/GD32VW55X_Wifi_BLE_SDK/GD32VW55x_RELEASE_V1.0.2/MSDK/rtos/FreeRTOS/Source\list.c **** 		listed below.  In addition see https://www.freertos.org/FAQHelp.html for
 131:C:/Users/stapi/OneDrive/Desktop/GD32VW553/V1_MQTT_OK/GD32VW55X_Wifi_BLE_SDK/GD32VW55x_RELEASE_V1.0.2/MSDK/rtos/FreeRTOS/Source\list.c **** 		more tips, and ensure configASSERT() is defined!
 132:C:/Users/stapi/OneDrive/Desktop/GD32VW553/V1_MQTT_OK/GD32VW55X_Wifi_BLE_SDK/GD32VW55x_RELEASE_V1.0.2/MSDK/rtos/FreeRTOS/Source\list.c **** 		https://www.freertos.org/a00110.html#configASSERT
 133:C:/Users/stapi/OneDrive/Desktop/GD32VW553/V1_MQTT_OK/GD32VW55X_Wifi_BLE_SDK/GD32VW55x_RELEASE_V1.0.2/MSDK/rtos/FreeRTOS/Source\list.c **** 
 134:C:/Users/stapi/OneDrive/Desktop/GD32VW553/V1_MQTT_OK/GD32VW55X_Wifi_BLE_SDK/GD32VW55x_RELEASE_V1.0.2/MSDK/rtos/FreeRTOS/Source\list.c **** 			1) Stack overflow -
 135:C:/Users/stapi/OneDrive/Desktop/GD32VW553/V1_MQTT_OK/GD32VW55X_Wifi_BLE_SDK/GD32VW55x_RELEASE_V1.0.2/MSDK/rtos/FreeRTOS/Source\list.c **** 			   see https://www.freertos.org/Stacks-and-stack-overflow-checking.html
 136:C:/Users/stapi/OneDrive/Desktop/GD32VW553/V1_MQTT_OK/GD32VW55X_Wifi_BLE_SDK/GD32VW55x_RELEASE_V1.0.2/MSDK/rtos/FreeRTOS/Source\list.c **** 			2) Incorrect interrupt priority assignment, especially on Cortex-M
 137:C:/Users/stapi/OneDrive/Desktop/GD32VW553/V1_MQTT_OK/GD32VW55X_Wifi_BLE_SDK/GD32VW55x_RELEASE_V1.0.2/MSDK/rtos/FreeRTOS/Source\list.c **** 			   parts where numerically high priority values denote low actual
 138:C:/Users/stapi/OneDrive/Desktop/GD32VW553/V1_MQTT_OK/GD32VW55X_Wifi_BLE_SDK/GD32VW55x_RELEASE_V1.0.2/MSDK/rtos/FreeRTOS/Source\list.c **** 			   interrupt priorities, which can seem counter intuitive.  See
 139:C:/Users/stapi/OneDrive/Desktop/GD32VW553/V1_MQTT_OK/GD32VW55X_Wifi_BLE_SDK/GD32VW55x_RELEASE_V1.0.2/MSDK/rtos/FreeRTOS/Source\list.c **** 			   https://www.freertos.org/RTOS-Cortex-M3-M4.html and the definition
 140:C:/Users/stapi/OneDrive/Desktop/GD32VW553/V1_MQTT_OK/GD32VW55X_Wifi_BLE_SDK/GD32VW55x_RELEASE_V1.0.2/MSDK/rtos/FreeRTOS/Source\list.c **** 			   of configMAX_SYSCALL_INTERRUPT_PRIORITY on
 141:C:/Users/stapi/OneDrive/Desktop/GD32VW553/V1_MQTT_OK/GD32VW55X_Wifi_BLE_SDK/GD32VW55x_RELEASE_V1.0.2/MSDK/rtos/FreeRTOS/Source\list.c **** 			   https://www.freertos.org/a00110.html
 142:C:/Users/stapi/OneDrive/Desktop/GD32VW553/V1_MQTT_OK/GD32VW55X_Wifi_BLE_SDK/GD32VW55x_RELEASE_V1.0.2/MSDK/rtos/FreeRTOS/Source\list.c **** 			3) Calling an API function from within a critical section or when
 143:C:/Users/stapi/OneDrive/Desktop/GD32VW553/V1_MQTT_OK/GD32VW55X_Wifi_BLE_SDK/GD32VW55x_RELEASE_V1.0.2/MSDK/rtos/FreeRTOS/Source\list.c **** 			   the scheduler is suspended, or calling an API function that does
 144:C:/Users/stapi/OneDrive/Desktop/GD32VW553/V1_MQTT_OK/GD32VW55X_Wifi_BLE_SDK/GD32VW55x_RELEASE_V1.0.2/MSDK/rtos/FreeRTOS/Source\list.c **** 			   not end in "FromISR" from an interrupt.
 145:C:/Users/stapi/OneDrive/Desktop/GD32VW553/V1_MQTT_OK/GD32VW55X_Wifi_BLE_SDK/GD32VW55x_RELEASE_V1.0.2/MSDK/rtos/FreeRTOS/Source\list.c **** 			4) Using a queue or semaphore before it has been initialised or
 146:C:/Users/stapi/OneDrive/Desktop/GD32VW553/V1_MQTT_OK/GD32VW55X_Wifi_BLE_SDK/GD32VW55x_RELEASE_V1.0.2/MSDK/rtos/FreeRTOS/Source\list.c **** 			   before the scheduler has been started (are interrupts firing
 147:C:/Users/stapi/OneDrive/Desktop/GD32VW553/V1_MQTT_OK/GD32VW55X_Wifi_BLE_SDK/GD32VW55x_RELEASE_V1.0.2/MSDK/rtos/FreeRTOS/Source\list.c **** 			   before vTaskStartScheduler() has been called?).
 148:C:/Users/stapi/OneDrive/Desktop/GD32VW553/V1_MQTT_OK/GD32VW55X_Wifi_BLE_SDK/GD32VW55x_RELEASE_V1.0.2/MSDK/rtos/FreeRTOS/Source\list.c **** 		**********************************************************************/
 149:C:/Users/stapi/OneDrive/Desktop/GD32VW553/V1_MQTT_OK/GD32VW55X_Wifi_BLE_SDK/GD32VW55x_RELEASE_V1.0.2/MSDK/rtos/FreeRTOS/Source\list.c **** 
 150:C:/Users/stapi/OneDrive/Desktop/GD32VW553/V1_MQTT_OK/GD32VW55X_Wifi_BLE_SDK/GD32VW55x_RELEASE_V1.0.2/MSDK/rtos/FreeRTOS/Source\list.c **** 		for( pxIterator = ( ListItem_t * ) &( pxList->xListEnd ); pxIterator->pxNext->xItemValue <= xValu
 151:C:/Users/stapi/OneDrive/Desktop/GD32VW553/V1_MQTT_OK/GD32VW55X_Wifi_BLE_SDK/GD32VW55x_RELEASE_V1.0.2/MSDK/rtos/FreeRTOS/Source\list.c **** 		{
 152:C:/Users/stapi/OneDrive/Desktop/GD32VW553/V1_MQTT_OK/GD32VW55X_Wifi_BLE_SDK/GD32VW55x_RELEASE_V1.0.2/MSDK/rtos/FreeRTOS/Source\list.c **** 			/* There is nothing to do here, just iterating to the wanted
 153:C:/Users/stapi/OneDrive/Desktop/GD32VW553/V1_MQTT_OK/GD32VW55X_Wifi_BLE_SDK/GD32VW55x_RELEASE_V1.0.2/MSDK/rtos/FreeRTOS/Source\list.c **** 			insertion position. */
 154:C:/Users/stapi/OneDrive/Desktop/GD32VW553/V1_MQTT_OK/GD32VW55X_Wifi_BLE_SDK/GD32VW55x_RELEASE_V1.0.2/MSDK/rtos/FreeRTOS/Source\list.c **** 		}
 155:C:/Users/stapi/OneDrive/Desktop/GD32VW553/V1_MQTT_OK/GD32VW55X_Wifi_BLE_SDK/GD32VW55x_RELEASE_V1.0.2/MSDK/rtos/FreeRTOS/Source\list.c **** 	}
 156:C:/Users/stapi/OneDrive/Desktop/GD32VW553/V1_MQTT_OK/GD32VW55X_Wifi_BLE_SDK/GD32VW55x_RELEASE_V1.0.2/MSDK/rtos/FreeRTOS/Source\list.c **** 
 157:C:/Users/stapi/OneDrive/Desktop/GD32VW553/V1_MQTT_OK/GD32VW55X_Wifi_BLE_SDK/GD32VW55x_RELEASE_V1.0.2/MSDK/rtos/FreeRTOS/Source\list.c **** 	pxNewListItem->pxNext = pxIterator->pxNext;
 141              		.loc 1 157 2 is_stmt 1
 142              		.loc 1 157 36 is_stmt 0
 143 0010 1C47     		lw	a5,8(a4)
 144              		.loc 1 157 24
 145 0012 9CC5     		sw	a5,8(a1)
 158:C:/Users/stapi/OneDrive/Desktop/GD32VW553/V1_MQTT_OK/GD32VW55X_Wifi_BLE_SDK/GD32VW55x_RELEASE_V1.0.2/MSDK/rtos/FreeRTOS/Source\list.c **** 	pxNewListItem->pxNext->pxPrevious = pxNewListItem;
 146              		.loc 1 158 2 is_stmt 1
 147              		.loc 1 158 36 is_stmt 0
 148 0014 CCC7     		sw	a1,12(a5)
 159:C:/Users/stapi/OneDrive/Desktop/GD32VW553/V1_MQTT_OK/GD32VW55X_Wifi_BLE_SDK/GD32VW55x_RELEASE_V1.0.2/MSDK/rtos/FreeRTOS/Source\list.c **** 	pxNewListItem->pxPrevious = pxIterator;
 149              		.loc 1 159 2 is_stmt 1
 160:C:/Users/stapi/OneDrive/Desktop/GD32VW553/V1_MQTT_OK/GD32VW55X_Wifi_BLE_SDK/GD32VW55x_RELEASE_V1.0.2/MSDK/rtos/FreeRTOS/Source\list.c **** 	pxIterator->pxNext = pxNewListItem;
 161:C:/Users/stapi/OneDrive/Desktop/GD32VW553/V1_MQTT_OK/GD32VW55X_Wifi_BLE_SDK/GD32VW55x_RELEASE_V1.0.2/MSDK/rtos/FreeRTOS/Source\list.c **** 
 162:C:/Users/stapi/OneDrive/Desktop/GD32VW553/V1_MQTT_OK/GD32VW55X_Wifi_BLE_SDK/GD32VW55x_RELEASE_V1.0.2/MSDK/rtos/FreeRTOS/Source\list.c **** 	/* Remember which list the item is in.  This allows fast removal of the
 163:C:/Users/stapi/OneDrive/Desktop/GD32VW553/V1_MQTT_OK/GD32VW55X_Wifi_BLE_SDK/GD32VW55x_RELEASE_V1.0.2/MSDK/rtos/FreeRTOS/Source\list.c **** 	item later. */
 164:C:/Users/stapi/OneDrive/Desktop/GD32VW553/V1_MQTT_OK/GD32VW55X_Wifi_BLE_SDK/GD32VW55x_RELEASE_V1.0.2/MSDK/rtos/FreeRTOS/Source\list.c **** 	pxNewListItem->pxContainer = pxList;
 165:C:/Users/stapi/OneDrive/Desktop/GD32VW553/V1_MQTT_OK/GD32VW55X_Wifi_BLE_SDK/GD32VW55x_RELEASE_V1.0.2/MSDK/rtos/FreeRTOS/Source\list.c **** 
 166:C:/Users/stapi/OneDrive/Desktop/GD32VW553/V1_MQTT_OK/GD32VW55X_Wifi_BLE_SDK/GD32VW55x_RELEASE_V1.0.2/MSDK/rtos/FreeRTOS/Source\list.c **** 	( pxList->uxNumberOfItems )++;
 150              		.loc 1 166 10 is_stmt 0
 151 0016 1C41     		lw	a5,0(a0)
 159:C:/Users/stapi/OneDrive/Desktop/GD32VW553/V1_MQTT_OK/GD32VW55X_Wifi_BLE_SDK/GD32VW55x_RELEASE_V1.0.2/MSDK/rtos/FreeRTOS/Source\list.c **** 	pxNewListItem->pxPrevious = pxIterator;
 152              		.loc 1 159 28
 153 0018 D8C5     		sw	a4,12(a1)
 160:C:/Users/stapi/OneDrive/Desktop/GD32VW553/V1_MQTT_OK/GD32VW55X_Wifi_BLE_SDK/GD32VW55x_RELEASE_V1.0.2/MSDK/rtos/FreeRTOS/Source\list.c **** 	pxIterator->pxNext = pxNewListItem;
 154              		.loc 1 160 2 is_stmt 1
 160:C:/Users/stapi/OneDrive/Desktop/GD32VW553/V1_MQTT_OK/GD32VW55X_Wifi_BLE_SDK/GD32VW55x_RELEASE_V1.0.2/MSDK/rtos/FreeRTOS/Source\list.c **** 	pxIterator->pxNext = pxNewListItem;
 155              		.loc 1 160 21 is_stmt 0
 156 001a 0CC7     		sw	a1,8(a4)
 164:C:/Users/stapi/OneDrive/Desktop/GD32VW553/V1_MQTT_OK/GD32VW55X_Wifi_BLE_SDK/GD32VW55x_RELEASE_V1.0.2/MSDK/rtos/FreeRTOS/Source\list.c **** 
 157              		.loc 1 164 2 is_stmt 1
 164:C:/Users/stapi/OneDrive/Desktop/GD32VW553/V1_MQTT_OK/GD32VW55X_Wifi_BLE_SDK/GD32VW55x_RELEASE_V1.0.2/MSDK/rtos/FreeRTOS/Source\list.c **** 
 158              		.loc 1 164 29 is_stmt 0
 159 001c C8C9     		sw	a0,20(a1)
 160              		.loc 1 166 2 is_stmt 1
 161              		.loc 1 166 29 is_stmt 0
 162 001e 8507     		addi	a5,a5,1
 163 0020 1CC1     		sw	a5,0(a0)
 167:C:/Users/stapi/OneDrive/Desktop/GD32VW553/V1_MQTT_OK/GD32VW55X_Wifi_BLE_SDK/GD32VW55x_RELEASE_V1.0.2/MSDK/rtos/FreeRTOS/Source\list.c **** }
 164              		.loc 1 167 1
 165 0022 8280     		ret
 166              	.LVL8:
 167              	.L5:
 150:C:/Users/stapi/OneDrive/Desktop/GD32VW553/V1_MQTT_OK/GD32VW55X_Wifi_BLE_SDK/GD32VW55x_RELEASE_V1.0.2/MSDK/rtos/FreeRTOS/Source\list.c **** 		{
 168              		.loc 1 150 3 is_stmt 1
 150:C:/Users/stapi/OneDrive/Desktop/GD32VW553/V1_MQTT_OK/GD32VW55X_Wifi_BLE_SDK/GD32VW55x_RELEASE_V1.0.2/MSDK/rtos/FreeRTOS/Source\list.c **** 		{
 169              		.loc 1 150 19 is_stmt 0
 170 0024 93078500 		addi	a5,a0,8
 171              	.LVL9:
 172              	.L9:
 150:C:/Users/stapi/OneDrive/Desktop/GD32VW553/V1_MQTT_OK/GD32VW55X_Wifi_BLE_SDK/GD32VW55x_RELEASE_V1.0.2/MSDK/rtos/FreeRTOS/Source\list.c **** 		{
 173              		.loc 1 150 61 is_stmt 1 discriminator 1
 174 0028 3E87     		mv	a4,a5
 150:C:/Users/stapi/OneDrive/Desktop/GD32VW553/V1_MQTT_OK/GD32VW55X_Wifi_BLE_SDK/GD32VW55x_RELEASE_V1.0.2/MSDK/rtos/FreeRTOS/Source\list.c **** 		{
 175              		.loc 1 150 71 is_stmt 0 discriminator 1
 176 002a 9C47     		lw	a5,8(a5)
 177              	.LVL10:
 150:C:/Users/stapi/OneDrive/Desktop/GD32VW553/V1_MQTT_OK/GD32VW55X_Wifi_BLE_SDK/GD32VW55x_RELEASE_V1.0.2/MSDK/rtos/FreeRTOS/Source\list.c **** 		{
 178              		.loc 1 150 3 discriminator 1
 179 002c 03A84700 		lw	a6,4(a5)
 180 0030 E36006FF 		bgtu	a6,a2,.L6
 181 0034 E31AC8FE 		bne	a6,a2,.L9
 182 0038 03A80700 		lw	a6,0(a5)
 183 003c E3F606FF 		bleu	a6,a3,.L9
 184 0040 C1BF     		j	.L6
 185              		.cfi_endproc
 186              	.LFE3:
 188              		.section	.text.uxListRemove,"ax",@progbits
 189              		.align	1
 190              		.globl	uxListRemove
 192              	uxListRemove:
 193              	.LFB4:
 168:C:/Users/stapi/OneDrive/Desktop/GD32VW553/V1_MQTT_OK/GD32VW55X_Wifi_BLE_SDK/GD32VW55x_RELEASE_V1.0.2/MSDK/rtos/FreeRTOS/Source\list.c **** /*-----------------------------------------------------------*/
 169:C:/Users/stapi/OneDrive/Desktop/GD32VW553/V1_MQTT_OK/GD32VW55X_Wifi_BLE_SDK/GD32VW55x_RELEASE_V1.0.2/MSDK/rtos/FreeRTOS/Source\list.c **** 
 170:C:/Users/stapi/OneDrive/Desktop/GD32VW553/V1_MQTT_OK/GD32VW55X_Wifi_BLE_SDK/GD32VW55x_RELEASE_V1.0.2/MSDK/rtos/FreeRTOS/Source\list.c **** UBaseType_t uxListRemove( ListItem_t * const pxItemToRemove )
 171:C:/Users/stapi/OneDrive/Desktop/GD32VW553/V1_MQTT_OK/GD32VW55X_Wifi_BLE_SDK/GD32VW55x_RELEASE_V1.0.2/MSDK/rtos/FreeRTOS/Source\list.c **** {
 194              		.loc 1 171 1 is_stmt 1
 195              		.cfi_startproc
 196              	.LVL11:
 172:C:/Users/stapi/OneDrive/Desktop/GD32VW553/V1_MQTT_OK/GD32VW55X_Wifi_BLE_SDK/GD32VW55x_RELEASE_V1.0.2/MSDK/rtos/FreeRTOS/Source\list.c **** /* The list item knows which list it is in.  Obtain the list from the list
 173:C:/Users/stapi/OneDrive/Desktop/GD32VW553/V1_MQTT_OK/GD32VW55X_Wifi_BLE_SDK/GD32VW55x_RELEASE_V1.0.2/MSDK/rtos/FreeRTOS/Source\list.c **** item. */
 174:C:/Users/stapi/OneDrive/Desktop/GD32VW553/V1_MQTT_OK/GD32VW55X_Wifi_BLE_SDK/GD32VW55x_RELEASE_V1.0.2/MSDK/rtos/FreeRTOS/Source\list.c **** List_t * const pxList = pxItemToRemove->pxContainer;
 197              		.loc 1 174 1
 175:C:/Users/stapi/OneDrive/Desktop/GD32VW553/V1_MQTT_OK/GD32VW55X_Wifi_BLE_SDK/GD32VW55x_RELEASE_V1.0.2/MSDK/rtos/FreeRTOS/Source\list.c **** 
 176:C:/Users/stapi/OneDrive/Desktop/GD32VW553/V1_MQTT_OK/GD32VW55X_Wifi_BLE_SDK/GD32VW55x_RELEASE_V1.0.2/MSDK/rtos/FreeRTOS/Source\list.c **** 	pxItemToRemove->pxNext->pxPrevious = pxItemToRemove->pxPrevious;
 198              		.loc 1 176 16 is_stmt 0
 199 0000 1445     		lw	a3,8(a0)
 200              		.loc 1 176 53
 201 0002 5845     		lw	a4,12(a0)
 174:C:/Users/stapi/OneDrive/Desktop/GD32VW553/V1_MQTT_OK/GD32VW55X_Wifi_BLE_SDK/GD32VW55x_RELEASE_V1.0.2/MSDK/rtos/FreeRTOS/Source\list.c **** 
 202              		.loc 1 174 16
 203 0004 5C49     		lw	a5,20(a0)
 204              	.LVL12:
 205              		.loc 1 176 2 is_stmt 1
 206              		.loc 1 176 37 is_stmt 0
 207 0006 D8C6     		sw	a4,12(a3)
 177:C:/Users/stapi/OneDrive/Desktop/GD32VW553/V1_MQTT_OK/GD32VW55X_Wifi_BLE_SDK/GD32VW55x_RELEASE_V1.0.2/MSDK/rtos/FreeRTOS/Source\list.c **** 	pxItemToRemove->pxPrevious->pxNext = pxItemToRemove->pxNext;
 208              		.loc 1 177 2 is_stmt 1
 209              		.loc 1 177 37 is_stmt 0
 210 0008 14C7     		sw	a3,8(a4)
 178:C:/Users/stapi/OneDrive/Desktop/GD32VW553/V1_MQTT_OK/GD32VW55X_Wifi_BLE_SDK/GD32VW55x_RELEASE_V1.0.2/MSDK/rtos/FreeRTOS/Source\list.c **** 
 179:C:/Users/stapi/OneDrive/Desktop/GD32VW553/V1_MQTT_OK/GD32VW55X_Wifi_BLE_SDK/GD32VW55x_RELEASE_V1.0.2/MSDK/rtos/FreeRTOS/Source\list.c **** 	/* Only used during decision coverage testing. */
 180:C:/Users/stapi/OneDrive/Desktop/GD32VW553/V1_MQTT_OK/GD32VW55X_Wifi_BLE_SDK/GD32VW55x_RELEASE_V1.0.2/MSDK/rtos/FreeRTOS/Source\list.c **** 	mtCOVERAGE_TEST_DELAY();
 211              		.loc 1 180 25 is_stmt 1
 181:C:/Users/stapi/OneDrive/Desktop/GD32VW553/V1_MQTT_OK/GD32VW55X_Wifi_BLE_SDK/GD32VW55x_RELEASE_V1.0.2/MSDK/rtos/FreeRTOS/Source\list.c **** 
 182:C:/Users/stapi/OneDrive/Desktop/GD32VW553/V1_MQTT_OK/GD32VW55X_Wifi_BLE_SDK/GD32VW55x_RELEASE_V1.0.2/MSDK/rtos/FreeRTOS/Source\list.c **** 	/* Make sure the index is left pointing to a valid item. */
 183:C:/Users/stapi/OneDrive/Desktop/GD32VW553/V1_MQTT_OK/GD32VW55X_Wifi_BLE_SDK/GD32VW55x_RELEASE_V1.0.2/MSDK/rtos/FreeRTOS/Source\list.c **** 	if( pxList->pxIndex == pxItemToRemove )
 212              		.loc 1 183 2
 213              		.loc 1 183 4 is_stmt 0
 214 000a D443     		lw	a3,4(a5)
 215 000c 6393A600 		bne	a3,a0,.L11
 184:C:/Users/stapi/OneDrive/Desktop/GD32VW553/V1_MQTT_OK/GD32VW55X_Wifi_BLE_SDK/GD32VW55x_RELEASE_V1.0.2/MSDK/rtos/FreeRTOS/Source\list.c **** 	{
 185:C:/Users/stapi/OneDrive/Desktop/GD32VW553/V1_MQTT_OK/GD32VW55X_Wifi_BLE_SDK/GD32VW55x_RELEASE_V1.0.2/MSDK/rtos/FreeRTOS/Source\list.c **** 		pxList->pxIndex = pxItemToRemove->pxPrevious;
 216              		.loc 1 185 3 is_stmt 1
 217              		.loc 1 185 19 is_stmt 0
 218 0010 D8C3     		sw	a4,4(a5)
 219              	.L11:
 186:C:/Users/stapi/OneDrive/Desktop/GD32VW553/V1_MQTT_OK/GD32VW55X_Wifi_BLE_SDK/GD32VW55x_RELEASE_V1.0.2/MSDK/rtos/FreeRTOS/Source\list.c **** 	}
 187:C:/Users/stapi/OneDrive/Desktop/GD32VW553/V1_MQTT_OK/GD32VW55X_Wifi_BLE_SDK/GD32VW55x_RELEASE_V1.0.2/MSDK/rtos/FreeRTOS/Source\list.c **** 	else
 188:C:/Users/stapi/OneDrive/Desktop/GD32VW553/V1_MQTT_OK/GD32VW55X_Wifi_BLE_SDK/GD32VW55x_RELEASE_V1.0.2/MSDK/rtos/FreeRTOS/Source\list.c **** 	{
 189:C:/Users/stapi/OneDrive/Desktop/GD32VW553/V1_MQTT_OK/GD32VW55X_Wifi_BLE_SDK/GD32VW55x_RELEASE_V1.0.2/MSDK/rtos/FreeRTOS/Source\list.c **** 		mtCOVERAGE_TEST_MARKER();
 220              		.loc 1 189 27 is_stmt 1
 190:C:/Users/stapi/OneDrive/Desktop/GD32VW553/V1_MQTT_OK/GD32VW55X_Wifi_BLE_SDK/GD32VW55x_RELEASE_V1.0.2/MSDK/rtos/FreeRTOS/Source\list.c **** 	}
 191:C:/Users/stapi/OneDrive/Desktop/GD32VW553/V1_MQTT_OK/GD32VW55X_Wifi_BLE_SDK/GD32VW55x_RELEASE_V1.0.2/MSDK/rtos/FreeRTOS/Source\list.c **** 
 192:C:/Users/stapi/OneDrive/Desktop/GD32VW553/V1_MQTT_OK/GD32VW55X_Wifi_BLE_SDK/GD32VW55x_RELEASE_V1.0.2/MSDK/rtos/FreeRTOS/Source\list.c **** 	pxItemToRemove->pxContainer = NULL;
 221              		.loc 1 192 2
 193:C:/Users/stapi/OneDrive/Desktop/GD32VW553/V1_MQTT_OK/GD32VW55X_Wifi_BLE_SDK/GD32VW55x_RELEASE_V1.0.2/MSDK/rtos/FreeRTOS/Source\list.c **** 	( pxList->uxNumberOfItems )--;
 222              		.loc 1 193 10 is_stmt 0
 223 0012 9843     		lw	a4,0(a5)
 192:C:/Users/stapi/OneDrive/Desktop/GD32VW553/V1_MQTT_OK/GD32VW55X_Wifi_BLE_SDK/GD32VW55x_RELEASE_V1.0.2/MSDK/rtos/FreeRTOS/Source\list.c **** 	( pxList->uxNumberOfItems )--;
 224              		.loc 1 192 30
 225 0014 232A0500 		sw	zero,20(a0)
 226              		.loc 1 193 2 is_stmt 1
 227              		.loc 1 193 29 is_stmt 0
 228 0018 7D17     		addi	a4,a4,-1
 229 001a 98C3     		sw	a4,0(a5)
 194:C:/Users/stapi/OneDrive/Desktop/GD32VW553/V1_MQTT_OK/GD32VW55X_Wifi_BLE_SDK/GD32VW55x_RELEASE_V1.0.2/MSDK/rtos/FreeRTOS/Source\list.c **** 
 195:C:/Users/stapi/OneDrive/Desktop/GD32VW553/V1_MQTT_OK/GD32VW55X_Wifi_BLE_SDK/GD32VW55x_RELEASE_V1.0.2/MSDK/rtos/FreeRTOS/Source\list.c **** 	return pxList->uxNumberOfItems;
 230              		.loc 1 195 2 is_stmt 1
 231              		.loc 1 195 15 is_stmt 0
 232 001c 8843     		lw	a0,0(a5)
 233              	.LVL13:
 196:C:/Users/stapi/OneDrive/Desktop/GD32VW553/V1_MQTT_OK/GD32VW55X_Wifi_BLE_SDK/GD32VW55x_RELEASE_V1.0.2/MSDK/rtos/FreeRTOS/Source\list.c **** }
 234              		.loc 1 196 1
 235 001e 8280     		ret
 236              		.cfi_endproc
 237              	.LFE4:
 239              		.text
 240              	.Letext0:
 241              		.file 2 "c:\\users\\stapi\\onedrive\\desktop\\gd32vw553\\embeddedbuilder_v1.4.7.26843\\tools\\nucl
 242              		.file 3 "c:\\users\\stapi\\onedrive\\desktop\\gd32vw553\\embeddedbuilder_v1.4.7.26843\\tools\\nucl
 243              		.file 4 "..\\..\\..\\..\\rtos\\FreeRTOS\\Source\\portable\\riscv32/portmacro.h"
 244              		.file 5 "..\\..\\..\\..\\rtos\\FreeRTOS\\Source\\include/list.h"
DEFINED SYMBOLS
                            *ABS*:0000000000000000 list.c
C:\Users\stapi\AppData\Local\Temp\ccpAsOPG.s:13     .text.vListInitialise:0000000000000000 vListInitialise
C:\Users\stapi\AppData\Local\Temp\ccpAsOPG.s:17     .text.vListInitialise:0000000000000000 .L0 
C:\Users\stapi\AppData\Local\Temp\ccpAsOPG.s:19     .text.vListInitialise:0000000000000000 .L0 
C:\Users\stapi\AppData\Local\Temp\ccpAsOPG.s:20     .text.vListInitialise:0000000000000000 .L0 
C:\Users\stapi\AppData\Local\Temp\ccpAsOPG.s:21     .text.vListInitialise:0000000000000000 .L0 
C:\Users\stapi\AppData\Local\Temp\ccpAsOPG.s:23     .text.vListInitialise:0000000000000004 .L0 
C:\Users\stapi\AppData\Local\Temp\ccpAsOPG.s:26     .text.vListInitialise:0000000000000008 .L0 
C:\Users\stapi\AppData\Local\Temp\ccpAsOPG.s:28     .text.vListInitialise:000000000000000a .L0 
C:\Users\stapi\AppData\Local\Temp\ccpAsOPG.s:29     .text.vListInitialise:000000000000000a .L0 
C:\Users\stapi\AppData\Local\Temp\ccpAsOPG.s:32     .text.vListInitialise:000000000000000e .L0 
C:\Users\stapi\AppData\Local\Temp\ccpAsOPG.s:33     .text.vListInitialise:000000000000000e .L0 
C:\Users\stapi\AppData\Local\Temp\ccpAsOPG.s:35     .text.vListInitialise:0000000000000010 .L0 
C:\Users\stapi\AppData\Local\Temp\ccpAsOPG.s:36     .text.vListInitialise:0000000000000010 .L0 
C:\Users\stapi\AppData\Local\Temp\ccpAsOPG.s:38     .text.vListInitialise:0000000000000012 .L0 
C:\Users\stapi\AppData\Local\Temp\ccpAsOPG.s:39     .text.vListInitialise:0000000000000012 .L0 
C:\Users\stapi\AppData\Local\Temp\ccpAsOPG.s:41     .text.vListInitialise:0000000000000016 .L0 
C:\Users\stapi\AppData\Local\Temp\ccpAsOPG.s:42     .text.vListInitialise:0000000000000016 .L0 
C:\Users\stapi\AppData\Local\Temp\ccpAsOPG.s:43     .text.vListInitialise:0000000000000016 .L0 
C:\Users\stapi\AppData\Local\Temp\ccpAsOPG.s:44     .text.vListInitialise:0000000000000018 .L0 
C:\Users\stapi\AppData\Local\Temp\ccpAsOPG.s:51     .text.vListInitialiseItem:0000000000000000 vListInitialiseItem
C:\Users\stapi\AppData\Local\Temp\ccpAsOPG.s:54     .text.vListInitialiseItem:0000000000000000 .L0 
C:\Users\stapi\AppData\Local\Temp\ccpAsOPG.s:56     .text.vListInitialiseItem:0000000000000000 .L0 
C:\Users\stapi\AppData\Local\Temp\ccpAsOPG.s:57     .text.vListInitialiseItem:0000000000000000 .L0 
C:\Users\stapi\AppData\Local\Temp\ccpAsOPG.s:58     .text.vListInitialiseItem:0000000000000000 .L0 
C:\Users\stapi\AppData\Local\Temp\ccpAsOPG.s:60     .text.vListInitialiseItem:0000000000000004 .L0 
C:\Users\stapi\AppData\Local\Temp\ccpAsOPG.s:61     .text.vListInitialiseItem:0000000000000004 .L0 
C:\Users\stapi\AppData\Local\Temp\ccpAsOPG.s:62     .text.vListInitialiseItem:0000000000000004 .L0 
C:\Users\stapi\AppData\Local\Temp\ccpAsOPG.s:63     .text.vListInitialiseItem:0000000000000006 .L0 
C:\Users\stapi\AppData\Local\Temp\ccpAsOPG.s:70     .text.vListInsertEnd:0000000000000000 vListInsertEnd
C:\Users\stapi\AppData\Local\Temp\ccpAsOPG.s:73     .text.vListInsertEnd:0000000000000000 .L0 
C:\Users\stapi\AppData\Local\Temp\ccpAsOPG.s:75     .text.vListInsertEnd:0000000000000000 .L0 
C:\Users\stapi\AppData\Local\Temp\ccpAsOPG.s:76     .text.vListInsertEnd:0000000000000000 .L0 
C:\Users\stapi\AppData\Local\Temp\ccpAsOPG.s:77     .text.vListInsertEnd:0000000000000000 .L0 
C:\Users\stapi\AppData\Local\Temp\ccpAsOPG.s:80     .text.vListInsertEnd:0000000000000002 .L0 
C:\Users\stapi\AppData\Local\Temp\ccpAsOPG.s:81     .text.vListInsertEnd:0000000000000002 .L0 
C:\Users\stapi\AppData\Local\Temp\ccpAsOPG.s:82     .text.vListInsertEnd:0000000000000002 .L0 
C:\Users\stapi\AppData\Local\Temp\ccpAsOPG.s:83     .text.vListInsertEnd:0000000000000002 .L0 
C:\Users\stapi\AppData\Local\Temp\ccpAsOPG.s:85     .text.vListInsertEnd:0000000000000004 .L0 
C:\Users\stapi\AppData\Local\Temp\ccpAsOPG.s:87     .text.vListInsertEnd:0000000000000006 .L0 
C:\Users\stapi\AppData\Local\Temp\ccpAsOPG.s:88     .text.vListInsertEnd:0000000000000006 .L0 
C:\Users\stapi\AppData\Local\Temp\ccpAsOPG.s:90     .text.vListInsertEnd:0000000000000008 .L0 
C:\Users\stapi\AppData\Local\Temp\ccpAsOPG.s:91     .text.vListInsertEnd:0000000000000008 .L0 
C:\Users\stapi\AppData\Local\Temp\ccpAsOPG.s:92     .text.vListInsertEnd:0000000000000008 .L0 
C:\Users\stapi\AppData\Local\Temp\ccpAsOPG.s:95     .text.vListInsertEnd:000000000000000c .L0 
C:\Users\stapi\AppData\Local\Temp\ccpAsOPG.s:96     .text.vListInsertEnd:000000000000000c .L0 
C:\Users\stapi\AppData\Local\Temp\ccpAsOPG.s:98     .text.vListInsertEnd:000000000000000e .L0 
C:\Users\stapi\AppData\Local\Temp\ccpAsOPG.s:99     .text.vListInsertEnd:000000000000000e .L0 
C:\Users\stapi\AppData\Local\Temp\ccpAsOPG.s:102    .text.vListInsertEnd:0000000000000010 .L0 
C:\Users\stapi\AppData\Local\Temp\ccpAsOPG.s:104    .text.vListInsertEnd:0000000000000012 .L0 
C:\Users\stapi\AppData\Local\Temp\ccpAsOPG.s:105    .text.vListInsertEnd:0000000000000012 .L0 
C:\Users\stapi\AppData\Local\Temp\ccpAsOPG.s:108    .text.vListInsertEnd:0000000000000016 .L0 
C:\Users\stapi\AppData\Local\Temp\ccpAsOPG.s:109    .text.vListInsertEnd:0000000000000018 .L0 
C:\Users\stapi\AppData\Local\Temp\ccpAsOPG.s:116    .text.vListInsert:0000000000000000 vListInsert
C:\Users\stapi\AppData\Local\Temp\ccpAsOPG.s:119    .text.vListInsert:0000000000000000 .L0 
C:\Users\stapi\AppData\Local\Temp\ccpAsOPG.s:121    .text.vListInsert:0000000000000000 .L0 
C:\Users\stapi\AppData\Local\Temp\ccpAsOPG.s:122    .text.vListInsert:0000000000000000 .L0 
C:\Users\stapi\AppData\Local\Temp\ccpAsOPG.s:123    .text.vListInsert:0000000000000000 .L0 
C:\Users\stapi\AppData\Local\Temp\ccpAsOPG.s:124    .text.vListInsert:0000000000000000 .L0 
C:\Users\stapi\AppData\Local\Temp\ccpAsOPG.s:126    .text.vListInsert:0000000000000002 .L0 
C:\Users\stapi\AppData\Local\Temp\ccpAsOPG.s:128    .text.vListInsert:0000000000000004 .L0 
C:\Users\stapi\AppData\Local\Temp\ccpAsOPG.s:131    .text.vListInsert:0000000000000006 .L0 
C:\Users\stapi\AppData\Local\Temp\ccpAsOPG.s:132    .text.vListInsert:0000000000000006 .L0 
C:\Users\stapi\AppData\Local\Temp\ccpAsOPG.s:133    .text.vListInsert:0000000000000006 .L0 
C:\Users\stapi\AppData\Local\Temp\ccpAsOPG.s:134    .text.vListInsert:0000000000000006 .L0 
C:\Users\stapi\AppData\Local\Temp\ccpAsOPG.s:137    .text.vListInsert:000000000000000e .L0 
C:\Users\stapi\AppData\Local\Temp\ccpAsOPG.s:138    .text.vListInsert:000000000000000e .L0 
C:\Users\stapi\AppData\Local\Temp\ccpAsOPG.s:142    .text.vListInsert:0000000000000010 .L0 
C:\Users\stapi\AppData\Local\Temp\ccpAsOPG.s:143    .text.vListInsert:0000000000000010 .L0 
C:\Users\stapi\AppData\Local\Temp\ccpAsOPG.s:145    .text.vListInsert:0000000000000012 .L0 
C:\Users\stapi\AppData\Local\Temp\ccpAsOPG.s:147    .text.vListInsert:0000000000000014 .L0 
C:\Users\stapi\AppData\Local\Temp\ccpAsOPG.s:148    .text.vListInsert:0000000000000014 .L0 
C:\Users\stapi\AppData\Local\Temp\ccpAsOPG.s:150    .text.vListInsert:0000000000000016 .L0 
C:\Users\stapi\AppData\Local\Temp\ccpAsOPG.s:151    .text.vListInsert:0000000000000016 .L0 
C:\Users\stapi\AppData\Local\Temp\ccpAsOPG.s:153    .text.vListInsert:0000000000000018 .L0 
C:\Users\stapi\AppData\Local\Temp\ccpAsOPG.s:155    .text.vListInsert:000000000000001a .L0 
C:\Users\stapi\AppData\Local\Temp\ccpAsOPG.s:156    .text.vListInsert:000000000000001a .L0 
C:\Users\stapi\AppData\Local\Temp\ccpAsOPG.s:158    .text.vListInsert:000000000000001c .L0 
C:\Users\stapi\AppData\Local\Temp\ccpAsOPG.s:159    .text.vListInsert:000000000000001c .L0 
C:\Users\stapi\AppData\Local\Temp\ccpAsOPG.s:161    .text.vListInsert:000000000000001e .L0 
C:\Users\stapi\AppData\Local\Temp\ccpAsOPG.s:162    .text.vListInsert:000000000000001e .L0 
C:\Users\stapi\AppData\Local\Temp\ccpAsOPG.s:165    .text.vListInsert:0000000000000022 .L0 
C:\Users\stapi\AppData\Local\Temp\ccpAsOPG.s:169    .text.vListInsert:0000000000000024 .L0 
C:\Users\stapi\AppData\Local\Temp\ccpAsOPG.s:170    .text.vListInsert:0000000000000024 .L0 
C:\Users\stapi\AppData\Local\Temp\ccpAsOPG.s:174    .text.vListInsert:0000000000000028 .L0 
C:\Users\stapi\AppData\Local\Temp\ccpAsOPG.s:176    .text.vListInsert:000000000000002a .L0 
C:\Users\stapi\AppData\Local\Temp\ccpAsOPG.s:179    .text.vListInsert:000000000000002c .L0 
C:\Users\stapi\AppData\Local\Temp\ccpAsOPG.s:185    .text.vListInsert:0000000000000042 .L0 
C:\Users\stapi\AppData\Local\Temp\ccpAsOPG.s:192    .text.uxListRemove:0000000000000000 uxListRemove
C:\Users\stapi\AppData\Local\Temp\ccpAsOPG.s:195    .text.uxListRemove:0000000000000000 .L0 
C:\Users\stapi\AppData\Local\Temp\ccpAsOPG.s:197    .text.uxListRemove:0000000000000000 .L0 
C:\Users\stapi\AppData\Local\Temp\ccpAsOPG.s:198    .text.uxListRemove:0000000000000000 .L0 
C:\Users\stapi\AppData\Local\Temp\ccpAsOPG.s:199    .text.uxListRemove:0000000000000000 .L0 
C:\Users\stapi\AppData\Local\Temp\ccpAsOPG.s:201    .text.uxListRemove:0000000000000002 .L0 
C:\Users\stapi\AppData\Local\Temp\ccpAsOPG.s:203    .text.uxListRemove:0000000000000004 .L0 
C:\Users\stapi\AppData\Local\Temp\ccpAsOPG.s:206    .text.uxListRemove:0000000000000006 .L0 
C:\Users\stapi\AppData\Local\Temp\ccpAsOPG.s:207    .text.uxListRemove:0000000000000006 .L0 
C:\Users\stapi\AppData\Local\Temp\ccpAsOPG.s:209    .text.uxListRemove:0000000000000008 .L0 
C:\Users\stapi\AppData\Local\Temp\ccpAsOPG.s:210    .text.uxListRemove:0000000000000008 .L0 
C:\Users\stapi\AppData\Local\Temp\ccpAsOPG.s:212    .text.uxListRemove:000000000000000a .L0 
C:\Users\stapi\AppData\Local\Temp\ccpAsOPG.s:213    .text.uxListRemove:000000000000000a .L0 
C:\Users\stapi\AppData\Local\Temp\ccpAsOPG.s:214    .text.uxListRemove:000000000000000a .L0 
C:\Users\stapi\AppData\Local\Temp\ccpAsOPG.s:217    .text.uxListRemove:0000000000000010 .L0 
C:\Users\stapi\AppData\Local\Temp\ccpAsOPG.s:218    .text.uxListRemove:0000000000000010 .L0 
C:\Users\stapi\AppData\Local\Temp\ccpAsOPG.s:221    .text.uxListRemove:0000000000000012 .L0 
C:\Users\stapi\AppData\Local\Temp\ccpAsOPG.s:222    .text.uxListRemove:0000000000000012 .L0 
C:\Users\stapi\AppData\Local\Temp\ccpAsOPG.s:223    .text.uxListRemove:0000000000000012 .L0 
C:\Users\stapi\AppData\Local\Temp\ccpAsOPG.s:225    .text.uxListRemove:0000000000000014 .L0 
C:\Users\stapi\AppData\Local\Temp\ccpAsOPG.s:227    .text.uxListRemove:0000000000000018 .L0 
C:\Users\stapi\AppData\Local\Temp\ccpAsOPG.s:228    .text.uxListRemove:0000000000000018 .L0 
C:\Users\stapi\AppData\Local\Temp\ccpAsOPG.s:231    .text.uxListRemove:000000000000001c .L0 
C:\Users\stapi\AppData\Local\Temp\ccpAsOPG.s:232    .text.uxListRemove:000000000000001c .L0 
C:\Users\stapi\AppData\Local\Temp\ccpAsOPG.s:235    .text.uxListRemove:000000000000001e .L0 
C:\Users\stapi\AppData\Local\Temp\ccpAsOPG.s:236    .text.uxListRemove:0000000000000020 .L0 
C:\Users\stapi\AppData\Local\Temp\ccpAsOPG.s:47     .text.vListInitialise:0000000000000018 .L0 
C:\Users\stapi\AppData\Local\Temp\ccpAsOPG.s:66     .text.vListInitialiseItem:0000000000000006 .L0 
C:\Users\stapi\AppData\Local\Temp\ccpAsOPG.s:112    .text.vListInsertEnd:0000000000000018 .L0 
C:\Users\stapi\AppData\Local\Temp\ccpAsOPG.s:188    .text.vListInsert:0000000000000042 .L0 
C:\Users\stapi\AppData\Local\Temp\ccpAsOPG.s:239    .text.uxListRemove:0000000000000020 .L0 
                     .debug_frame:0000000000000000 .L0 
C:\Users\stapi\AppData\Local\Temp\ccpAsOPG.s:167    .text.vListInsert:0000000000000024 .L5
C:\Users\stapi\AppData\Local\Temp\ccpAsOPG.s:140    .text.vListInsert:0000000000000010 .L6
C:\Users\stapi\AppData\Local\Temp\ccpAsOPG.s:172    .text.vListInsert:0000000000000028 .L9
C:\Users\stapi\AppData\Local\Temp\ccpAsOPG.s:219    .text.uxListRemove:0000000000000012 .L11
C:\Users\stapi\AppData\Local\Temp\ccpAsOPG.s:615    .debug_abbrev:0000000000000000 .Ldebug_abbrev0
C:\Users\stapi\AppData\Local\Temp\ccpAsOPG.s:984    .debug_str:00000000000000df .LASF37
C:\Users\stapi\AppData\Local\Temp\ccpAsOPG.s:974    .debug_str:0000000000000031 .LASF38
C:\Users\stapi\AppData\Local\Temp\ccpAsOPG.s:1014   .debug_str:00000000000002a5 .LASF39
C:\Users\stapi\AppData\Local\Temp\ccpAsOPG.s:950    .debug_ranges:0000000000000000 .Ldebug_ranges0
C:\Users\stapi\AppData\Local\Temp\ccpAsOPG.s:964    .debug_line:0000000000000000 .Ldebug_line0
C:\Users\stapi\AppData\Local\Temp\ccpAsOPG.s:1002   .debug_str:000000000000024d .LASF0
C:\Users\stapi\AppData\Local\Temp\ccpAsOPG.s:1036   .debug_str:000000000000039a .LASF1
C:\Users\stapi\AppData\Local\Temp\ccpAsOPG.s:982    .debug_str:00000000000000d1 .LASF2
C:\Users\stapi\AppData\Local\Temp\ccpAsOPG.s:1022   .debug_str:000000000000034c .LASF3
C:\Users\stapi\AppData\Local\Temp\ccpAsOPG.s:988    .debug_str:00000000000001e7 .LASF4
C:\Users\stapi\AppData\Local\Temp\ccpAsOPG.s:1030   .debug_str:0000000000000374 .LASF5
C:\Users\stapi\AppData\Local\Temp\ccpAsOPG.s:994    .debug_str:0000000000000215 .LASF6
C:\Users\stapi\AppData\Local\Temp\ccpAsOPG.s:1016   .debug_str:000000000000032e .LASF7
C:\Users\stapi\AppData\Local\Temp\ccpAsOPG.s:1026   .debug_str:000000000000035e .LASF10
C:\Users\stapi\AppData\Local\Temp\ccpAsOPG.s:1008   .debug_str:000000000000027c .LASF8
C:\Users\stapi\AppData\Local\Temp\ccpAsOPG.s:1018   .debug_str:000000000000033c .LASF9
C:\Users\stapi\AppData\Local\Temp\ccpAsOPG.s:980    .debug_str:00000000000000c8 .LASF11
C:\Users\stapi\AppData\Local\Temp\ccpAsOPG.s:1044   .debug_str:00000000000003be .LASF12
C:\Users\stapi\AppData\Local\Temp\ccpAsOPG.s:968    .debug_str:000000000000000c .LASF13
C:\Users\stapi\AppData\Local\Temp\ccpAsOPG.s:1042   .debug_str:00000000000003b3 .LASF19
C:\Users\stapi\AppData\Local\Temp\ccpAsOPG.s:972    .debug_str:0000000000000026 .LASF14
C:\Users\stapi\AppData\Local\Temp\ccpAsOPG.s:1000   .debug_str:0000000000000246 .LASF15
C:\Users\stapi\AppData\Local\Temp\ccpAsOPG.s:1028   .debug_str:0000000000000369 .LASF16
C:\Users\stapi\AppData\Local\Temp\ccpAsOPG.s:978    .debug_str:00000000000000c0 .LASF17
C:\Users\stapi\AppData\Local\Temp\ccpAsOPG.s:966    .debug_str:0000000000000000 .LASF18
C:\Users\stapi\AppData\Local\Temp\ccpAsOPG.s:1040   .debug_str:00000000000003ad .LASF20
C:\Users\stapi\AppData\Local\Temp\ccpAsOPG.s:996    .debug_str:0000000000000227 .LASF21
C:\Users\stapi\AppData\Local\Temp\ccpAsOPG.s:1024   .debug_str:0000000000000356 .LASF22
C:\Users\stapi\AppData\Local\Temp\ccpAsOPG.s:976    .debug_str:00000000000000b7 .LASF23
C:\Users\stapi\AppData\Local\Temp\ccpAsOPG.s:1012   .debug_str:000000000000029a .LASF24
C:\Users\stapi\AppData\Local\Temp\ccpAsOPG.s:1034   .debug_str:000000000000038a .LASF25
C:\Users\stapi\AppData\Local\Temp\ccpAsOPG.s:970    .debug_str:0000000000000017 .LASF26
C:\Users\stapi\AppData\Local\Temp\ccpAsOPG.s:992    .debug_str:000000000000020e .LASF27
C:\Users\stapi\AppData\Local\Temp\ccpAsOPG.s:1032   .debug_str:000000000000037d .LASF40
C:\Users\stapi\AppData\Local\Temp\ccpAsOPG.s:193    .text.uxListRemove:0000000000000000 .LFB4
C:\Users\stapi\AppData\Local\Temp\ccpAsOPG.s:237    .text.uxListRemove:0000000000000020 .LFE4
C:\Users\stapi\AppData\Local\Temp\ccpAsOPG.s:986    .debug_str:00000000000001d8 .LASF28
C:\Users\stapi\AppData\Local\Temp\ccpAsOPG.s:888    .debug_loc:0000000000000000 .LLST2
C:\Users\stapi\AppData\Local\Temp\ccpAsOPG.s:1038   .debug_str:00000000000003a6 .LASF29
C:\Users\stapi\AppData\Local\Temp\ccpAsOPG.s:1048   .debug_str:00000000000003d8 .LASF33
C:\Users\stapi\AppData\Local\Temp\ccpAsOPG.s:117    .text.vListInsert:0000000000000000 .LFB3
C:\Users\stapi\AppData\Local\Temp\ccpAsOPG.s:186    .text.vListInsert:0000000000000042 .LFE3
C:\Users\stapi\AppData\Local\Temp\ccpAsOPG.s:1046   .debug_str:00000000000003ca .LASF30
C:\Users\stapi\AppData\Local\Temp\ccpAsOPG.s:1020   .debug_str:0000000000000341 .LASF31
C:\Users\stapi\AppData\Local\Temp\ccpAsOPG.s:902    .debug_loc:0000000000000021 .LLST1
C:\Users\stapi\AppData\Local\Temp\ccpAsOPG.s:1006   .debug_str:000000000000026a .LASF32
C:\Users\stapi\AppData\Local\Temp\ccpAsOPG.s:998    .debug_str:0000000000000237 .LASF34
C:\Users\stapi\AppData\Local\Temp\ccpAsOPG.s:71     .text.vListInsertEnd:0000000000000000 .LFB2
C:\Users\stapi\AppData\Local\Temp\ccpAsOPG.s:110    .text.vListInsertEnd:0000000000000018 .LFE2
C:\Users\stapi\AppData\Local\Temp\ccpAsOPG.s:917    .debug_loc:000000000000004a .LLST0
C:\Users\stapi\AppData\Local\Temp\ccpAsOPG.s:990    .debug_str:00000000000001fa .LASF35
C:\Users\stapi\AppData\Local\Temp\ccpAsOPG.s:52     .text.vListInitialiseItem:0000000000000000 .LFB1
C:\Users\stapi\AppData\Local\Temp\ccpAsOPG.s:64     .text.vListInitialiseItem:0000000000000006 .LFE1
C:\Users\stapi\AppData\Local\Temp\ccpAsOPG.s:1010   .debug_str:0000000000000293 .LASF36
C:\Users\stapi\AppData\Local\Temp\ccpAsOPG.s:1004   .debug_str:000000000000025a .LASF41
C:\Users\stapi\AppData\Local\Temp\ccpAsOPG.s:14     .text.vListInitialise:0000000000000000 .LFB0
C:\Users\stapi\AppData\Local\Temp\ccpAsOPG.s:45     .text.vListInitialise:0000000000000018 .LFE0
C:\Users\stapi\AppData\Local\Temp\ccpAsOPG.s:196    .text.uxListRemove:0000000000000000 .LVL11
C:\Users\stapi\AppData\Local\Temp\ccpAsOPG.s:233    .text.uxListRemove:000000000000001e .LVL13
C:\Users\stapi\AppData\Local\Temp\ccpAsOPG.s:139    .text.vListInsert:0000000000000010 .LVL7
C:\Users\stapi\AppData\Local\Temp\ccpAsOPG.s:166    .text.vListInsert:0000000000000024 .LVL8
C:\Users\stapi\AppData\Local\Temp\ccpAsOPG.s:171    .text.vListInsert:0000000000000028 .LVL9
C:\Users\stapi\AppData\Local\Temp\ccpAsOPG.s:177    .text.vListInsert:000000000000002c .LVL10
C:\Users\stapi\AppData\Local\Temp\ccpAsOPG.s:78     .text.vListInsertEnd:0000000000000002 .LVL3
C:\Users\stapi\AppData\Local\Temp\ccpAsOPG.s:100    .text.vListInsertEnd:0000000000000010 .LVL4
C:\Users\stapi\AppData\Local\Temp\ccpAsOPG.s:246    .debug_info:0000000000000000 .Ldebug_info0

NO UNDEFINED SYMBOLS
