   1              		.file	"timers.c"
   2              		.option nopic
   3              		.attribute arch, "rv32i2p0_m2p0_a2p0_f2p0_c2p0_b_p0p94"
   4              		.attribute unaligned_access, 0
   5              		.attribute stack_align, 16
   6              		.text
   7              	.Ltext0:
   8              		.cfi_sections	.debug_frame
   9              		.section	.text.prvCheckForValidListAndQueue,"ax",@progbits
  10              		.align	1
  12              	prvCheckForValidListAndQueue:
  13              	.LFB18:
  14              		.file 1 "C:/Users/stapi/OneDrive/Desktop/GD32VW553/V1_MQTT_OK/GD32VW55X_Wifi_BLE_SDK/GD32VW55x_REL
   1:C:/Users/stapi/OneDrive/Desktop/GD32VW553/V1_MQTT_OK/GD32VW55X_Wifi_BLE_SDK/GD32VW55x_RELEASE_V1.0.2/MSDK/rtos/FreeRTOS/Source\timers.c **** /*
   2:C:/Users/stapi/OneDrive/Desktop/GD32VW553/V1_MQTT_OK/GD32VW55X_Wifi_BLE_SDK/GD32VW55x_RELEASE_V1.0.2/MSDK/rtos/FreeRTOS/Source\timers.c ****  * FreeRTOS Kernel V10.3.1
   3:C:/Users/stapi/OneDrive/Desktop/GD32VW553/V1_MQTT_OK/GD32VW55X_Wifi_BLE_SDK/GD32VW55x_RELEASE_V1.0.2/MSDK/rtos/FreeRTOS/Source\timers.c ****  * Copyright (C) 2020 Amazon.com, Inc. or its affiliates.  All Rights Reserved.
   4:C:/Users/stapi/OneDrive/Desktop/GD32VW553/V1_MQTT_OK/GD32VW55X_Wifi_BLE_SDK/GD32VW55x_RELEASE_V1.0.2/MSDK/rtos/FreeRTOS/Source\timers.c ****  *
   5:C:/Users/stapi/OneDrive/Desktop/GD32VW553/V1_MQTT_OK/GD32VW55X_Wifi_BLE_SDK/GD32VW55x_RELEASE_V1.0.2/MSDK/rtos/FreeRTOS/Source\timers.c ****  * Permission is hereby granted, free of charge, to any person obtaining a copy of
   6:C:/Users/stapi/OneDrive/Desktop/GD32VW553/V1_MQTT_OK/GD32VW55X_Wifi_BLE_SDK/GD32VW55x_RELEASE_V1.0.2/MSDK/rtos/FreeRTOS/Source\timers.c ****  * this software and associated documentation files (the "Software"), to deal in
   7:C:/Users/stapi/OneDrive/Desktop/GD32VW553/V1_MQTT_OK/GD32VW55X_Wifi_BLE_SDK/GD32VW55x_RELEASE_V1.0.2/MSDK/rtos/FreeRTOS/Source\timers.c ****  * the Software without restriction, including without limitation the rights to
   8:C:/Users/stapi/OneDrive/Desktop/GD32VW553/V1_MQTT_OK/GD32VW55X_Wifi_BLE_SDK/GD32VW55x_RELEASE_V1.0.2/MSDK/rtos/FreeRTOS/Source\timers.c ****  * use, copy, modify, merge, publish, distribute, sublicense, and/or sell copies of
   9:C:/Users/stapi/OneDrive/Desktop/GD32VW553/V1_MQTT_OK/GD32VW55X_Wifi_BLE_SDK/GD32VW55x_RELEASE_V1.0.2/MSDK/rtos/FreeRTOS/Source\timers.c ****  * the Software, and to permit persons to whom the Software is furnished to do so,
  10:C:/Users/stapi/OneDrive/Desktop/GD32VW553/V1_MQTT_OK/GD32VW55X_Wifi_BLE_SDK/GD32VW55x_RELEASE_V1.0.2/MSDK/rtos/FreeRTOS/Source\timers.c ****  * subject to the following conditions:
  11:C:/Users/stapi/OneDrive/Desktop/GD32VW553/V1_MQTT_OK/GD32VW55X_Wifi_BLE_SDK/GD32VW55x_RELEASE_V1.0.2/MSDK/rtos/FreeRTOS/Source\timers.c ****  *
  12:C:/Users/stapi/OneDrive/Desktop/GD32VW553/V1_MQTT_OK/GD32VW55X_Wifi_BLE_SDK/GD32VW55x_RELEASE_V1.0.2/MSDK/rtos/FreeRTOS/Source\timers.c ****  * The above copyright notice and this permission notice shall be included in all
  13:C:/Users/stapi/OneDrive/Desktop/GD32VW553/V1_MQTT_OK/GD32VW55X_Wifi_BLE_SDK/GD32VW55x_RELEASE_V1.0.2/MSDK/rtos/FreeRTOS/Source\timers.c ****  * copies or substantial portions of the Software.
  14:C:/Users/stapi/OneDrive/Desktop/GD32VW553/V1_MQTT_OK/GD32VW55X_Wifi_BLE_SDK/GD32VW55x_RELEASE_V1.0.2/MSDK/rtos/FreeRTOS/Source\timers.c ****  *
  15:C:/Users/stapi/OneDrive/Desktop/GD32VW553/V1_MQTT_OK/GD32VW55X_Wifi_BLE_SDK/GD32VW55x_RELEASE_V1.0.2/MSDK/rtos/FreeRTOS/Source\timers.c ****  * THE SOFTWARE IS PROVIDED "AS IS", WITHOUT WARRANTY OF ANY KIND, EXPRESS OR
  16:C:/Users/stapi/OneDrive/Desktop/GD32VW553/V1_MQTT_OK/GD32VW55X_Wifi_BLE_SDK/GD32VW55x_RELEASE_V1.0.2/MSDK/rtos/FreeRTOS/Source\timers.c ****  * IMPLIED, INCLUDING BUT NOT LIMITED TO THE WARRANTIES OF MERCHANTABILITY, FITNESS
  17:C:/Users/stapi/OneDrive/Desktop/GD32VW553/V1_MQTT_OK/GD32VW55X_Wifi_BLE_SDK/GD32VW55x_RELEASE_V1.0.2/MSDK/rtos/FreeRTOS/Source\timers.c ****  * FOR A PARTICULAR PURPOSE AND NONINFRINGEMENT. IN NO EVENT SHALL THE AUTHORS OR
  18:C:/Users/stapi/OneDrive/Desktop/GD32VW553/V1_MQTT_OK/GD32VW55X_Wifi_BLE_SDK/GD32VW55x_RELEASE_V1.0.2/MSDK/rtos/FreeRTOS/Source\timers.c ****  * COPYRIGHT HOLDERS BE LIABLE FOR ANY CLAIM, DAMAGES OR OTHER LIABILITY, WHETHER
  19:C:/Users/stapi/OneDrive/Desktop/GD32VW553/V1_MQTT_OK/GD32VW55X_Wifi_BLE_SDK/GD32VW55x_RELEASE_V1.0.2/MSDK/rtos/FreeRTOS/Source\timers.c ****  * IN AN ACTION OF CONTRACT, TORT OR OTHERWISE, ARISING FROM, OUT OF OR IN
  20:C:/Users/stapi/OneDrive/Desktop/GD32VW553/V1_MQTT_OK/GD32VW55X_Wifi_BLE_SDK/GD32VW55x_RELEASE_V1.0.2/MSDK/rtos/FreeRTOS/Source\timers.c ****  * CONNECTION WITH THE SOFTWARE OR THE USE OR OTHER DEALINGS IN THE SOFTWARE.
  21:C:/Users/stapi/OneDrive/Desktop/GD32VW553/V1_MQTT_OK/GD32VW55X_Wifi_BLE_SDK/GD32VW55x_RELEASE_V1.0.2/MSDK/rtos/FreeRTOS/Source\timers.c ****  *
  22:C:/Users/stapi/OneDrive/Desktop/GD32VW553/V1_MQTT_OK/GD32VW55X_Wifi_BLE_SDK/GD32VW55x_RELEASE_V1.0.2/MSDK/rtos/FreeRTOS/Source\timers.c ****  * http://www.FreeRTOS.org
  23:C:/Users/stapi/OneDrive/Desktop/GD32VW553/V1_MQTT_OK/GD32VW55X_Wifi_BLE_SDK/GD32VW55x_RELEASE_V1.0.2/MSDK/rtos/FreeRTOS/Source\timers.c ****  * http://aws.amazon.com/freertos
  24:C:/Users/stapi/OneDrive/Desktop/GD32VW553/V1_MQTT_OK/GD32VW55X_Wifi_BLE_SDK/GD32VW55x_RELEASE_V1.0.2/MSDK/rtos/FreeRTOS/Source\timers.c ****  *
  25:C:/Users/stapi/OneDrive/Desktop/GD32VW553/V1_MQTT_OK/GD32VW55X_Wifi_BLE_SDK/GD32VW55x_RELEASE_V1.0.2/MSDK/rtos/FreeRTOS/Source\timers.c ****  * 1 tab == 4 spaces!
  26:C:/Users/stapi/OneDrive/Desktop/GD32VW553/V1_MQTT_OK/GD32VW55X_Wifi_BLE_SDK/GD32VW55x_RELEASE_V1.0.2/MSDK/rtos/FreeRTOS/Source\timers.c ****  */
  27:C:/Users/stapi/OneDrive/Desktop/GD32VW553/V1_MQTT_OK/GD32VW55X_Wifi_BLE_SDK/GD32VW55x_RELEASE_V1.0.2/MSDK/rtos/FreeRTOS/Source\timers.c **** 
  28:C:/Users/stapi/OneDrive/Desktop/GD32VW553/V1_MQTT_OK/GD32VW55X_Wifi_BLE_SDK/GD32VW55x_RELEASE_V1.0.2/MSDK/rtos/FreeRTOS/Source\timers.c **** /* Standard includes. */
  29:C:/Users/stapi/OneDrive/Desktop/GD32VW553/V1_MQTT_OK/GD32VW55X_Wifi_BLE_SDK/GD32VW55x_RELEASE_V1.0.2/MSDK/rtos/FreeRTOS/Source\timers.c **** #include <stdlib.h>
  30:C:/Users/stapi/OneDrive/Desktop/GD32VW553/V1_MQTT_OK/GD32VW55X_Wifi_BLE_SDK/GD32VW55x_RELEASE_V1.0.2/MSDK/rtos/FreeRTOS/Source\timers.c **** 
  31:C:/Users/stapi/OneDrive/Desktop/GD32VW553/V1_MQTT_OK/GD32VW55X_Wifi_BLE_SDK/GD32VW55x_RELEASE_V1.0.2/MSDK/rtos/FreeRTOS/Source\timers.c **** /* Defining MPU_WRAPPERS_INCLUDED_FROM_API_FILE prevents task.h from redefining
  32:C:/Users/stapi/OneDrive/Desktop/GD32VW553/V1_MQTT_OK/GD32VW55X_Wifi_BLE_SDK/GD32VW55x_RELEASE_V1.0.2/MSDK/rtos/FreeRTOS/Source\timers.c **** all the API functions to use the MPU wrappers.  That should only be done when
  33:C:/Users/stapi/OneDrive/Desktop/GD32VW553/V1_MQTT_OK/GD32VW55X_Wifi_BLE_SDK/GD32VW55x_RELEASE_V1.0.2/MSDK/rtos/FreeRTOS/Source\timers.c **** task.h is included from an application file. */
  34:C:/Users/stapi/OneDrive/Desktop/GD32VW553/V1_MQTT_OK/GD32VW55X_Wifi_BLE_SDK/GD32VW55x_RELEASE_V1.0.2/MSDK/rtos/FreeRTOS/Source\timers.c **** #define MPU_WRAPPERS_INCLUDED_FROM_API_FILE
  35:C:/Users/stapi/OneDrive/Desktop/GD32VW553/V1_MQTT_OK/GD32VW55X_Wifi_BLE_SDK/GD32VW55x_RELEASE_V1.0.2/MSDK/rtos/FreeRTOS/Source\timers.c **** 
  36:C:/Users/stapi/OneDrive/Desktop/GD32VW553/V1_MQTT_OK/GD32VW55X_Wifi_BLE_SDK/GD32VW55x_RELEASE_V1.0.2/MSDK/rtos/FreeRTOS/Source\timers.c **** #include "FreeRTOS.h"
  37:C:/Users/stapi/OneDrive/Desktop/GD32VW553/V1_MQTT_OK/GD32VW55X_Wifi_BLE_SDK/GD32VW55x_RELEASE_V1.0.2/MSDK/rtos/FreeRTOS/Source\timers.c **** #include "task.h"
  38:C:/Users/stapi/OneDrive/Desktop/GD32VW553/V1_MQTT_OK/GD32VW55X_Wifi_BLE_SDK/GD32VW55x_RELEASE_V1.0.2/MSDK/rtos/FreeRTOS/Source\timers.c **** #include "queue.h"
  39:C:/Users/stapi/OneDrive/Desktop/GD32VW553/V1_MQTT_OK/GD32VW55X_Wifi_BLE_SDK/GD32VW55x_RELEASE_V1.0.2/MSDK/rtos/FreeRTOS/Source\timers.c **** #include "timers.h"
  40:C:/Users/stapi/OneDrive/Desktop/GD32VW553/V1_MQTT_OK/GD32VW55X_Wifi_BLE_SDK/GD32VW55x_RELEASE_V1.0.2/MSDK/rtos/FreeRTOS/Source\timers.c **** 
  41:C:/Users/stapi/OneDrive/Desktop/GD32VW553/V1_MQTT_OK/GD32VW55X_Wifi_BLE_SDK/GD32VW55x_RELEASE_V1.0.2/MSDK/rtos/FreeRTOS/Source\timers.c **** #if ( INCLUDE_xTimerPendFunctionCall == 1 ) && ( configUSE_TIMERS == 0 )
  42:C:/Users/stapi/OneDrive/Desktop/GD32VW553/V1_MQTT_OK/GD32VW55X_Wifi_BLE_SDK/GD32VW55x_RELEASE_V1.0.2/MSDK/rtos/FreeRTOS/Source\timers.c **** 	#error configUSE_TIMERS must be set to 1 to make the xTimerPendFunctionCall() function available.
  43:C:/Users/stapi/OneDrive/Desktop/GD32VW553/V1_MQTT_OK/GD32VW55X_Wifi_BLE_SDK/GD32VW55x_RELEASE_V1.0.2/MSDK/rtos/FreeRTOS/Source\timers.c **** #endif
  44:C:/Users/stapi/OneDrive/Desktop/GD32VW553/V1_MQTT_OK/GD32VW55X_Wifi_BLE_SDK/GD32VW55x_RELEASE_V1.0.2/MSDK/rtos/FreeRTOS/Source\timers.c **** 
  45:C:/Users/stapi/OneDrive/Desktop/GD32VW553/V1_MQTT_OK/GD32VW55X_Wifi_BLE_SDK/GD32VW55x_RELEASE_V1.0.2/MSDK/rtos/FreeRTOS/Source\timers.c **** /* Lint e9021, e961 and e750 are suppressed as a MISRA exception justified
  46:C:/Users/stapi/OneDrive/Desktop/GD32VW553/V1_MQTT_OK/GD32VW55X_Wifi_BLE_SDK/GD32VW55x_RELEASE_V1.0.2/MSDK/rtos/FreeRTOS/Source\timers.c **** because the MPU ports require MPU_WRAPPERS_INCLUDED_FROM_API_FILE to be defined
  47:C:/Users/stapi/OneDrive/Desktop/GD32VW553/V1_MQTT_OK/GD32VW55X_Wifi_BLE_SDK/GD32VW55x_RELEASE_V1.0.2/MSDK/rtos/FreeRTOS/Source\timers.c **** for the header files above, but not in this file, in order to generate the
  48:C:/Users/stapi/OneDrive/Desktop/GD32VW553/V1_MQTT_OK/GD32VW55X_Wifi_BLE_SDK/GD32VW55x_RELEASE_V1.0.2/MSDK/rtos/FreeRTOS/Source\timers.c **** correct privileged Vs unprivileged linkage and placement. */
  49:C:/Users/stapi/OneDrive/Desktop/GD32VW553/V1_MQTT_OK/GD32VW55X_Wifi_BLE_SDK/GD32VW55x_RELEASE_V1.0.2/MSDK/rtos/FreeRTOS/Source\timers.c **** #undef MPU_WRAPPERS_INCLUDED_FROM_API_FILE /*lint !e9021 !e961 !e750. */
  50:C:/Users/stapi/OneDrive/Desktop/GD32VW553/V1_MQTT_OK/GD32VW55X_Wifi_BLE_SDK/GD32VW55x_RELEASE_V1.0.2/MSDK/rtos/FreeRTOS/Source\timers.c **** 
  51:C:/Users/stapi/OneDrive/Desktop/GD32VW553/V1_MQTT_OK/GD32VW55X_Wifi_BLE_SDK/GD32VW55x_RELEASE_V1.0.2/MSDK/rtos/FreeRTOS/Source\timers.c **** 
  52:C:/Users/stapi/OneDrive/Desktop/GD32VW553/V1_MQTT_OK/GD32VW55X_Wifi_BLE_SDK/GD32VW55x_RELEASE_V1.0.2/MSDK/rtos/FreeRTOS/Source\timers.c **** /* This entire source file will be skipped if the application is not configured
  53:C:/Users/stapi/OneDrive/Desktop/GD32VW553/V1_MQTT_OK/GD32VW55X_Wifi_BLE_SDK/GD32VW55x_RELEASE_V1.0.2/MSDK/rtos/FreeRTOS/Source\timers.c **** to include software timer functionality.  This #if is closed at the very bottom
  54:C:/Users/stapi/OneDrive/Desktop/GD32VW553/V1_MQTT_OK/GD32VW55X_Wifi_BLE_SDK/GD32VW55x_RELEASE_V1.0.2/MSDK/rtos/FreeRTOS/Source\timers.c **** of this file.  If you want to include software timer functionality then ensure
  55:C:/Users/stapi/OneDrive/Desktop/GD32VW553/V1_MQTT_OK/GD32VW55X_Wifi_BLE_SDK/GD32VW55x_RELEASE_V1.0.2/MSDK/rtos/FreeRTOS/Source\timers.c **** configUSE_TIMERS is set to 1 in FreeRTOSConfig.h. */
  56:C:/Users/stapi/OneDrive/Desktop/GD32VW553/V1_MQTT_OK/GD32VW55X_Wifi_BLE_SDK/GD32VW55x_RELEASE_V1.0.2/MSDK/rtos/FreeRTOS/Source\timers.c **** #if ( configUSE_TIMERS == 1 )
  57:C:/Users/stapi/OneDrive/Desktop/GD32VW553/V1_MQTT_OK/GD32VW55X_Wifi_BLE_SDK/GD32VW55x_RELEASE_V1.0.2/MSDK/rtos/FreeRTOS/Source\timers.c **** 
  58:C:/Users/stapi/OneDrive/Desktop/GD32VW553/V1_MQTT_OK/GD32VW55X_Wifi_BLE_SDK/GD32VW55x_RELEASE_V1.0.2/MSDK/rtos/FreeRTOS/Source\timers.c **** /* Misc definitions. */
  59:C:/Users/stapi/OneDrive/Desktop/GD32VW553/V1_MQTT_OK/GD32VW55X_Wifi_BLE_SDK/GD32VW55x_RELEASE_V1.0.2/MSDK/rtos/FreeRTOS/Source\timers.c **** #define tmrNO_DELAY		( TickType_t ) 0U
  60:C:/Users/stapi/OneDrive/Desktop/GD32VW553/V1_MQTT_OK/GD32VW55X_Wifi_BLE_SDK/GD32VW55x_RELEASE_V1.0.2/MSDK/rtos/FreeRTOS/Source\timers.c **** 
  61:C:/Users/stapi/OneDrive/Desktop/GD32VW553/V1_MQTT_OK/GD32VW55X_Wifi_BLE_SDK/GD32VW55x_RELEASE_V1.0.2/MSDK/rtos/FreeRTOS/Source\timers.c **** /* The name assigned to the timer service task.  This can be overridden by
  62:C:/Users/stapi/OneDrive/Desktop/GD32VW553/V1_MQTT_OK/GD32VW55X_Wifi_BLE_SDK/GD32VW55x_RELEASE_V1.0.2/MSDK/rtos/FreeRTOS/Source\timers.c **** defining trmTIMER_SERVICE_TASK_NAME in FreeRTOSConfig.h. */
  63:C:/Users/stapi/OneDrive/Desktop/GD32VW553/V1_MQTT_OK/GD32VW55X_Wifi_BLE_SDK/GD32VW55x_RELEASE_V1.0.2/MSDK/rtos/FreeRTOS/Source\timers.c **** #ifndef configTIMER_SERVICE_TASK_NAME
  64:C:/Users/stapi/OneDrive/Desktop/GD32VW553/V1_MQTT_OK/GD32VW55X_Wifi_BLE_SDK/GD32VW55x_RELEASE_V1.0.2/MSDK/rtos/FreeRTOS/Source\timers.c **** 	#define configTIMER_SERVICE_TASK_NAME "Tmr Svc"
  65:C:/Users/stapi/OneDrive/Desktop/GD32VW553/V1_MQTT_OK/GD32VW55X_Wifi_BLE_SDK/GD32VW55x_RELEASE_V1.0.2/MSDK/rtos/FreeRTOS/Source\timers.c **** #endif
  66:C:/Users/stapi/OneDrive/Desktop/GD32VW553/V1_MQTT_OK/GD32VW55X_Wifi_BLE_SDK/GD32VW55x_RELEASE_V1.0.2/MSDK/rtos/FreeRTOS/Source\timers.c **** 
  67:C:/Users/stapi/OneDrive/Desktop/GD32VW553/V1_MQTT_OK/GD32VW55X_Wifi_BLE_SDK/GD32VW55x_RELEASE_V1.0.2/MSDK/rtos/FreeRTOS/Source\timers.c **** /* Bit definitions used in the ucStatus member of a timer structure. */
  68:C:/Users/stapi/OneDrive/Desktop/GD32VW553/V1_MQTT_OK/GD32VW55X_Wifi_BLE_SDK/GD32VW55x_RELEASE_V1.0.2/MSDK/rtos/FreeRTOS/Source\timers.c **** #define tmrSTATUS_IS_ACTIVE					( ( uint8_t ) 0x01 )
  69:C:/Users/stapi/OneDrive/Desktop/GD32VW553/V1_MQTT_OK/GD32VW55X_Wifi_BLE_SDK/GD32VW55x_RELEASE_V1.0.2/MSDK/rtos/FreeRTOS/Source\timers.c **** #define tmrSTATUS_IS_STATICALLY_ALLOCATED	( ( uint8_t ) 0x02 )
  70:C:/Users/stapi/OneDrive/Desktop/GD32VW553/V1_MQTT_OK/GD32VW55X_Wifi_BLE_SDK/GD32VW55x_RELEASE_V1.0.2/MSDK/rtos/FreeRTOS/Source\timers.c **** #define tmrSTATUS_IS_AUTORELOAD				( ( uint8_t ) 0x04 )
  71:C:/Users/stapi/OneDrive/Desktop/GD32VW553/V1_MQTT_OK/GD32VW55X_Wifi_BLE_SDK/GD32VW55x_RELEASE_V1.0.2/MSDK/rtos/FreeRTOS/Source\timers.c **** 
  72:C:/Users/stapi/OneDrive/Desktop/GD32VW553/V1_MQTT_OK/GD32VW55X_Wifi_BLE_SDK/GD32VW55x_RELEASE_V1.0.2/MSDK/rtos/FreeRTOS/Source\timers.c **** /* The definition of the timers themselves. */
  73:C:/Users/stapi/OneDrive/Desktop/GD32VW553/V1_MQTT_OK/GD32VW55X_Wifi_BLE_SDK/GD32VW55x_RELEASE_V1.0.2/MSDK/rtos/FreeRTOS/Source\timers.c **** typedef struct tmrTimerControl /* The old naming convention is used to prevent breaking kernel awar
  74:C:/Users/stapi/OneDrive/Desktop/GD32VW553/V1_MQTT_OK/GD32VW55X_Wifi_BLE_SDK/GD32VW55x_RELEASE_V1.0.2/MSDK/rtos/FreeRTOS/Source\timers.c **** {
  75:C:/Users/stapi/OneDrive/Desktop/GD32VW553/V1_MQTT_OK/GD32VW55X_Wifi_BLE_SDK/GD32VW55x_RELEASE_V1.0.2/MSDK/rtos/FreeRTOS/Source\timers.c **** 	const char				*pcTimerName;		/*<< Text name.  This is not used by the kernel, it is included simpl
  76:C:/Users/stapi/OneDrive/Desktop/GD32VW553/V1_MQTT_OK/GD32VW55X_Wifi_BLE_SDK/GD32VW55x_RELEASE_V1.0.2/MSDK/rtos/FreeRTOS/Source\timers.c **** 	ListItem_t				xTimerListItem;		/*<< Standard linked list item as used by all kernel features for e
  77:C:/Users/stapi/OneDrive/Desktop/GD32VW553/V1_MQTT_OK/GD32VW55X_Wifi_BLE_SDK/GD32VW55x_RELEASE_V1.0.2/MSDK/rtos/FreeRTOS/Source\timers.c **** 	TickType_t				xTimerPeriodInTicks;/*<< How quickly and often the timer expires. */
  78:C:/Users/stapi/OneDrive/Desktop/GD32VW553/V1_MQTT_OK/GD32VW55X_Wifi_BLE_SDK/GD32VW55x_RELEASE_V1.0.2/MSDK/rtos/FreeRTOS/Source\timers.c **** 	void 					*pvTimerID;			/*<< An ID to identify the timer.  This allows the timer to be identified 
  79:C:/Users/stapi/OneDrive/Desktop/GD32VW553/V1_MQTT_OK/GD32VW55X_Wifi_BLE_SDK/GD32VW55x_RELEASE_V1.0.2/MSDK/rtos/FreeRTOS/Source\timers.c **** 	TimerCallbackFunction_t	pxCallbackFunction;	/*<< The function that will be called when the timer e
  80:C:/Users/stapi/OneDrive/Desktop/GD32VW553/V1_MQTT_OK/GD32VW55X_Wifi_BLE_SDK/GD32VW55x_RELEASE_V1.0.2/MSDK/rtos/FreeRTOS/Source\timers.c **** 	#if( configUSE_TRACE_FACILITY == 1 )
  81:C:/Users/stapi/OneDrive/Desktop/GD32VW553/V1_MQTT_OK/GD32VW55X_Wifi_BLE_SDK/GD32VW55x_RELEASE_V1.0.2/MSDK/rtos/FreeRTOS/Source\timers.c **** 		UBaseType_t			uxTimerNumber;		/*<< An ID assigned by trace tools such as FreeRTOS+Trace */
  82:C:/Users/stapi/OneDrive/Desktop/GD32VW553/V1_MQTT_OK/GD32VW55X_Wifi_BLE_SDK/GD32VW55x_RELEASE_V1.0.2/MSDK/rtos/FreeRTOS/Source\timers.c **** 	#endif
  83:C:/Users/stapi/OneDrive/Desktop/GD32VW553/V1_MQTT_OK/GD32VW55X_Wifi_BLE_SDK/GD32VW55x_RELEASE_V1.0.2/MSDK/rtos/FreeRTOS/Source\timers.c **** 	uint8_t 				ucStatus;			/*<< Holds bits to say if the timer was statically allocated or not, and i
  84:C:/Users/stapi/OneDrive/Desktop/GD32VW553/V1_MQTT_OK/GD32VW55X_Wifi_BLE_SDK/GD32VW55x_RELEASE_V1.0.2/MSDK/rtos/FreeRTOS/Source\timers.c **** } xTIMER;
  85:C:/Users/stapi/OneDrive/Desktop/GD32VW553/V1_MQTT_OK/GD32VW55X_Wifi_BLE_SDK/GD32VW55x_RELEASE_V1.0.2/MSDK/rtos/FreeRTOS/Source\timers.c **** 
  86:C:/Users/stapi/OneDrive/Desktop/GD32VW553/V1_MQTT_OK/GD32VW55X_Wifi_BLE_SDK/GD32VW55x_RELEASE_V1.0.2/MSDK/rtos/FreeRTOS/Source\timers.c **** /* The old xTIMER name is maintained above then typedefed to the new Timer_t
  87:C:/Users/stapi/OneDrive/Desktop/GD32VW553/V1_MQTT_OK/GD32VW55X_Wifi_BLE_SDK/GD32VW55x_RELEASE_V1.0.2/MSDK/rtos/FreeRTOS/Source\timers.c **** name below to enable the use of older kernel aware debuggers. */
  88:C:/Users/stapi/OneDrive/Desktop/GD32VW553/V1_MQTT_OK/GD32VW55X_Wifi_BLE_SDK/GD32VW55x_RELEASE_V1.0.2/MSDK/rtos/FreeRTOS/Source\timers.c **** typedef xTIMER Timer_t;
  89:C:/Users/stapi/OneDrive/Desktop/GD32VW553/V1_MQTT_OK/GD32VW55X_Wifi_BLE_SDK/GD32VW55x_RELEASE_V1.0.2/MSDK/rtos/FreeRTOS/Source\timers.c **** 
  90:C:/Users/stapi/OneDrive/Desktop/GD32VW553/V1_MQTT_OK/GD32VW55X_Wifi_BLE_SDK/GD32VW55x_RELEASE_V1.0.2/MSDK/rtos/FreeRTOS/Source\timers.c **** /* The definition of messages that can be sent and received on the timer queue.
  91:C:/Users/stapi/OneDrive/Desktop/GD32VW553/V1_MQTT_OK/GD32VW55X_Wifi_BLE_SDK/GD32VW55x_RELEASE_V1.0.2/MSDK/rtos/FreeRTOS/Source\timers.c **** Two types of message can be queued - messages that manipulate a software timer,
  92:C:/Users/stapi/OneDrive/Desktop/GD32VW553/V1_MQTT_OK/GD32VW55X_Wifi_BLE_SDK/GD32VW55x_RELEASE_V1.0.2/MSDK/rtos/FreeRTOS/Source\timers.c **** and messages that request the execution of a non-timer related callback.  The
  93:C:/Users/stapi/OneDrive/Desktop/GD32VW553/V1_MQTT_OK/GD32VW55X_Wifi_BLE_SDK/GD32VW55x_RELEASE_V1.0.2/MSDK/rtos/FreeRTOS/Source\timers.c **** two message types are defined in two separate structures, xTimerParametersType
  94:C:/Users/stapi/OneDrive/Desktop/GD32VW553/V1_MQTT_OK/GD32VW55X_Wifi_BLE_SDK/GD32VW55x_RELEASE_V1.0.2/MSDK/rtos/FreeRTOS/Source\timers.c **** and xCallbackParametersType respectively. */
  95:C:/Users/stapi/OneDrive/Desktop/GD32VW553/V1_MQTT_OK/GD32VW55X_Wifi_BLE_SDK/GD32VW55x_RELEASE_V1.0.2/MSDK/rtos/FreeRTOS/Source\timers.c **** typedef struct tmrTimerParameters
  96:C:/Users/stapi/OneDrive/Desktop/GD32VW553/V1_MQTT_OK/GD32VW55X_Wifi_BLE_SDK/GD32VW55x_RELEASE_V1.0.2/MSDK/rtos/FreeRTOS/Source\timers.c **** {
  97:C:/Users/stapi/OneDrive/Desktop/GD32VW553/V1_MQTT_OK/GD32VW55X_Wifi_BLE_SDK/GD32VW55x_RELEASE_V1.0.2/MSDK/rtos/FreeRTOS/Source\timers.c **** 	TickType_t			xMessageValue;		/*<< An optional value used by a subset of commands, for example, whe
  98:C:/Users/stapi/OneDrive/Desktop/GD32VW553/V1_MQTT_OK/GD32VW55X_Wifi_BLE_SDK/GD32VW55x_RELEASE_V1.0.2/MSDK/rtos/FreeRTOS/Source\timers.c **** 	Timer_t *			pxTimer;			/*<< The timer to which the command will be applied. */
  99:C:/Users/stapi/OneDrive/Desktop/GD32VW553/V1_MQTT_OK/GD32VW55X_Wifi_BLE_SDK/GD32VW55x_RELEASE_V1.0.2/MSDK/rtos/FreeRTOS/Source\timers.c **** } TimerParameter_t;
 100:C:/Users/stapi/OneDrive/Desktop/GD32VW553/V1_MQTT_OK/GD32VW55X_Wifi_BLE_SDK/GD32VW55x_RELEASE_V1.0.2/MSDK/rtos/FreeRTOS/Source\timers.c **** 
 101:C:/Users/stapi/OneDrive/Desktop/GD32VW553/V1_MQTT_OK/GD32VW55X_Wifi_BLE_SDK/GD32VW55x_RELEASE_V1.0.2/MSDK/rtos/FreeRTOS/Source\timers.c **** 
 102:C:/Users/stapi/OneDrive/Desktop/GD32VW553/V1_MQTT_OK/GD32VW55X_Wifi_BLE_SDK/GD32VW55x_RELEASE_V1.0.2/MSDK/rtos/FreeRTOS/Source\timers.c **** typedef struct tmrCallbackParameters
 103:C:/Users/stapi/OneDrive/Desktop/GD32VW553/V1_MQTT_OK/GD32VW55X_Wifi_BLE_SDK/GD32VW55x_RELEASE_V1.0.2/MSDK/rtos/FreeRTOS/Source\timers.c **** {
 104:C:/Users/stapi/OneDrive/Desktop/GD32VW553/V1_MQTT_OK/GD32VW55X_Wifi_BLE_SDK/GD32VW55x_RELEASE_V1.0.2/MSDK/rtos/FreeRTOS/Source\timers.c **** 	PendedFunction_t	pxCallbackFunction;	/* << The callback function to execute. */
 105:C:/Users/stapi/OneDrive/Desktop/GD32VW553/V1_MQTT_OK/GD32VW55X_Wifi_BLE_SDK/GD32VW55x_RELEASE_V1.0.2/MSDK/rtos/FreeRTOS/Source\timers.c **** 	void *pvParameter1;						/* << The value that will be used as the callback functions first paramet
 106:C:/Users/stapi/OneDrive/Desktop/GD32VW553/V1_MQTT_OK/GD32VW55X_Wifi_BLE_SDK/GD32VW55x_RELEASE_V1.0.2/MSDK/rtos/FreeRTOS/Source\timers.c **** 	uint32_t ulParameter2;					/* << The value that will be used as the callback functions second para
 107:C:/Users/stapi/OneDrive/Desktop/GD32VW553/V1_MQTT_OK/GD32VW55X_Wifi_BLE_SDK/GD32VW55x_RELEASE_V1.0.2/MSDK/rtos/FreeRTOS/Source\timers.c **** } CallbackParameters_t;
 108:C:/Users/stapi/OneDrive/Desktop/GD32VW553/V1_MQTT_OK/GD32VW55X_Wifi_BLE_SDK/GD32VW55x_RELEASE_V1.0.2/MSDK/rtos/FreeRTOS/Source\timers.c **** 
 109:C:/Users/stapi/OneDrive/Desktop/GD32VW553/V1_MQTT_OK/GD32VW55X_Wifi_BLE_SDK/GD32VW55x_RELEASE_V1.0.2/MSDK/rtos/FreeRTOS/Source\timers.c **** /* The structure that contains the two message types, along with an identifier
 110:C:/Users/stapi/OneDrive/Desktop/GD32VW553/V1_MQTT_OK/GD32VW55X_Wifi_BLE_SDK/GD32VW55x_RELEASE_V1.0.2/MSDK/rtos/FreeRTOS/Source\timers.c **** that is used to determine which message type is valid. */
 111:C:/Users/stapi/OneDrive/Desktop/GD32VW553/V1_MQTT_OK/GD32VW55X_Wifi_BLE_SDK/GD32VW55x_RELEASE_V1.0.2/MSDK/rtos/FreeRTOS/Source\timers.c **** typedef struct tmrTimerQueueMessage
 112:C:/Users/stapi/OneDrive/Desktop/GD32VW553/V1_MQTT_OK/GD32VW55X_Wifi_BLE_SDK/GD32VW55x_RELEASE_V1.0.2/MSDK/rtos/FreeRTOS/Source\timers.c **** {
 113:C:/Users/stapi/OneDrive/Desktop/GD32VW553/V1_MQTT_OK/GD32VW55X_Wifi_BLE_SDK/GD32VW55x_RELEASE_V1.0.2/MSDK/rtos/FreeRTOS/Source\timers.c **** 	BaseType_t			xMessageID;			/*<< The command being sent to the timer service task. */
 114:C:/Users/stapi/OneDrive/Desktop/GD32VW553/V1_MQTT_OK/GD32VW55X_Wifi_BLE_SDK/GD32VW55x_RELEASE_V1.0.2/MSDK/rtos/FreeRTOS/Source\timers.c **** 	union
 115:C:/Users/stapi/OneDrive/Desktop/GD32VW553/V1_MQTT_OK/GD32VW55X_Wifi_BLE_SDK/GD32VW55x_RELEASE_V1.0.2/MSDK/rtos/FreeRTOS/Source\timers.c **** 	{
 116:C:/Users/stapi/OneDrive/Desktop/GD32VW553/V1_MQTT_OK/GD32VW55X_Wifi_BLE_SDK/GD32VW55x_RELEASE_V1.0.2/MSDK/rtos/FreeRTOS/Source\timers.c **** 		TimerParameter_t xTimerParameters;
 117:C:/Users/stapi/OneDrive/Desktop/GD32VW553/V1_MQTT_OK/GD32VW55X_Wifi_BLE_SDK/GD32VW55x_RELEASE_V1.0.2/MSDK/rtos/FreeRTOS/Source\timers.c **** 
 118:C:/Users/stapi/OneDrive/Desktop/GD32VW553/V1_MQTT_OK/GD32VW55X_Wifi_BLE_SDK/GD32VW55x_RELEASE_V1.0.2/MSDK/rtos/FreeRTOS/Source\timers.c **** 		/* Don't include xCallbackParameters if it is not going to be used as
 119:C:/Users/stapi/OneDrive/Desktop/GD32VW553/V1_MQTT_OK/GD32VW55X_Wifi_BLE_SDK/GD32VW55x_RELEASE_V1.0.2/MSDK/rtos/FreeRTOS/Source\timers.c **** 		it makes the structure (and therefore the timer queue) larger. */
 120:C:/Users/stapi/OneDrive/Desktop/GD32VW553/V1_MQTT_OK/GD32VW55X_Wifi_BLE_SDK/GD32VW55x_RELEASE_V1.0.2/MSDK/rtos/FreeRTOS/Source\timers.c **** 		#if ( INCLUDE_xTimerPendFunctionCall == 1 )
 121:C:/Users/stapi/OneDrive/Desktop/GD32VW553/V1_MQTT_OK/GD32VW55X_Wifi_BLE_SDK/GD32VW55x_RELEASE_V1.0.2/MSDK/rtos/FreeRTOS/Source\timers.c **** 			CallbackParameters_t xCallbackParameters;
 122:C:/Users/stapi/OneDrive/Desktop/GD32VW553/V1_MQTT_OK/GD32VW55X_Wifi_BLE_SDK/GD32VW55x_RELEASE_V1.0.2/MSDK/rtos/FreeRTOS/Source\timers.c **** 		#endif /* INCLUDE_xTimerPendFunctionCall */
 123:C:/Users/stapi/OneDrive/Desktop/GD32VW553/V1_MQTT_OK/GD32VW55X_Wifi_BLE_SDK/GD32VW55x_RELEASE_V1.0.2/MSDK/rtos/FreeRTOS/Source\timers.c **** 	} u;
 124:C:/Users/stapi/OneDrive/Desktop/GD32VW553/V1_MQTT_OK/GD32VW55X_Wifi_BLE_SDK/GD32VW55x_RELEASE_V1.0.2/MSDK/rtos/FreeRTOS/Source\timers.c **** } DaemonTaskMessage_t;
 125:C:/Users/stapi/OneDrive/Desktop/GD32VW553/V1_MQTT_OK/GD32VW55X_Wifi_BLE_SDK/GD32VW55x_RELEASE_V1.0.2/MSDK/rtos/FreeRTOS/Source\timers.c **** 
 126:C:/Users/stapi/OneDrive/Desktop/GD32VW553/V1_MQTT_OK/GD32VW55X_Wifi_BLE_SDK/GD32VW55x_RELEASE_V1.0.2/MSDK/rtos/FreeRTOS/Source\timers.c **** /*lint -save -e956 A manual analysis and inspection has been used to determine
 127:C:/Users/stapi/OneDrive/Desktop/GD32VW553/V1_MQTT_OK/GD32VW55X_Wifi_BLE_SDK/GD32VW55x_RELEASE_V1.0.2/MSDK/rtos/FreeRTOS/Source\timers.c **** which static variables must be declared volatile. */
 128:C:/Users/stapi/OneDrive/Desktop/GD32VW553/V1_MQTT_OK/GD32VW55X_Wifi_BLE_SDK/GD32VW55x_RELEASE_V1.0.2/MSDK/rtos/FreeRTOS/Source\timers.c **** 
 129:C:/Users/stapi/OneDrive/Desktop/GD32VW553/V1_MQTT_OK/GD32VW55X_Wifi_BLE_SDK/GD32VW55x_RELEASE_V1.0.2/MSDK/rtos/FreeRTOS/Source\timers.c **** /* The list in which active timers are stored.  Timers are referenced in expire
 130:C:/Users/stapi/OneDrive/Desktop/GD32VW553/V1_MQTT_OK/GD32VW55X_Wifi_BLE_SDK/GD32VW55x_RELEASE_V1.0.2/MSDK/rtos/FreeRTOS/Source\timers.c **** time order, with the nearest expiry time at the front of the list.  Only the
 131:C:/Users/stapi/OneDrive/Desktop/GD32VW553/V1_MQTT_OK/GD32VW55X_Wifi_BLE_SDK/GD32VW55x_RELEASE_V1.0.2/MSDK/rtos/FreeRTOS/Source\timers.c **** timer service task is allowed to access these lists.
 132:C:/Users/stapi/OneDrive/Desktop/GD32VW553/V1_MQTT_OK/GD32VW55X_Wifi_BLE_SDK/GD32VW55x_RELEASE_V1.0.2/MSDK/rtos/FreeRTOS/Source\timers.c **** xActiveTimerList1 and xActiveTimerList2 could be at function scope but that
 133:C:/Users/stapi/OneDrive/Desktop/GD32VW553/V1_MQTT_OK/GD32VW55X_Wifi_BLE_SDK/GD32VW55x_RELEASE_V1.0.2/MSDK/rtos/FreeRTOS/Source\timers.c **** breaks some kernel aware debuggers, and debuggers that reply on removing the
 134:C:/Users/stapi/OneDrive/Desktop/GD32VW553/V1_MQTT_OK/GD32VW55X_Wifi_BLE_SDK/GD32VW55x_RELEASE_V1.0.2/MSDK/rtos/FreeRTOS/Source\timers.c **** static qualifier. */
 135:C:/Users/stapi/OneDrive/Desktop/GD32VW553/V1_MQTT_OK/GD32VW55X_Wifi_BLE_SDK/GD32VW55x_RELEASE_V1.0.2/MSDK/rtos/FreeRTOS/Source\timers.c **** PRIVILEGED_DATA static List_t xActiveTimerList1;
 136:C:/Users/stapi/OneDrive/Desktop/GD32VW553/V1_MQTT_OK/GD32VW55X_Wifi_BLE_SDK/GD32VW55x_RELEASE_V1.0.2/MSDK/rtos/FreeRTOS/Source\timers.c **** PRIVILEGED_DATA static List_t xActiveTimerList2;
 137:C:/Users/stapi/OneDrive/Desktop/GD32VW553/V1_MQTT_OK/GD32VW55X_Wifi_BLE_SDK/GD32VW55x_RELEASE_V1.0.2/MSDK/rtos/FreeRTOS/Source\timers.c **** PRIVILEGED_DATA static List_t *pxCurrentTimerList;
 138:C:/Users/stapi/OneDrive/Desktop/GD32VW553/V1_MQTT_OK/GD32VW55X_Wifi_BLE_SDK/GD32VW55x_RELEASE_V1.0.2/MSDK/rtos/FreeRTOS/Source\timers.c **** PRIVILEGED_DATA static List_t *pxOverflowTimerList;
 139:C:/Users/stapi/OneDrive/Desktop/GD32VW553/V1_MQTT_OK/GD32VW55X_Wifi_BLE_SDK/GD32VW55x_RELEASE_V1.0.2/MSDK/rtos/FreeRTOS/Source\timers.c **** 
 140:C:/Users/stapi/OneDrive/Desktop/GD32VW553/V1_MQTT_OK/GD32VW55X_Wifi_BLE_SDK/GD32VW55x_RELEASE_V1.0.2/MSDK/rtos/FreeRTOS/Source\timers.c **** /* A queue that is used to send commands to the timer service task. */
 141:C:/Users/stapi/OneDrive/Desktop/GD32VW553/V1_MQTT_OK/GD32VW55X_Wifi_BLE_SDK/GD32VW55x_RELEASE_V1.0.2/MSDK/rtos/FreeRTOS/Source\timers.c **** PRIVILEGED_DATA static QueueHandle_t xTimerQueue = NULL;
 142:C:/Users/stapi/OneDrive/Desktop/GD32VW553/V1_MQTT_OK/GD32VW55X_Wifi_BLE_SDK/GD32VW55x_RELEASE_V1.0.2/MSDK/rtos/FreeRTOS/Source\timers.c **** PRIVILEGED_DATA static TaskHandle_t xTimerTaskHandle = NULL;
 143:C:/Users/stapi/OneDrive/Desktop/GD32VW553/V1_MQTT_OK/GD32VW55X_Wifi_BLE_SDK/GD32VW55x_RELEASE_V1.0.2/MSDK/rtos/FreeRTOS/Source\timers.c **** 
 144:C:/Users/stapi/OneDrive/Desktop/GD32VW553/V1_MQTT_OK/GD32VW55X_Wifi_BLE_SDK/GD32VW55x_RELEASE_V1.0.2/MSDK/rtos/FreeRTOS/Source\timers.c **** /*lint -restore */
 145:C:/Users/stapi/OneDrive/Desktop/GD32VW553/V1_MQTT_OK/GD32VW55X_Wifi_BLE_SDK/GD32VW55x_RELEASE_V1.0.2/MSDK/rtos/FreeRTOS/Source\timers.c **** 
 146:C:/Users/stapi/OneDrive/Desktop/GD32VW553/V1_MQTT_OK/GD32VW55X_Wifi_BLE_SDK/GD32VW55x_RELEASE_V1.0.2/MSDK/rtos/FreeRTOS/Source\timers.c **** /*-----------------------------------------------------------*/
 147:C:/Users/stapi/OneDrive/Desktop/GD32VW553/V1_MQTT_OK/GD32VW55X_Wifi_BLE_SDK/GD32VW55x_RELEASE_V1.0.2/MSDK/rtos/FreeRTOS/Source\timers.c **** 
 148:C:/Users/stapi/OneDrive/Desktop/GD32VW553/V1_MQTT_OK/GD32VW55X_Wifi_BLE_SDK/GD32VW55x_RELEASE_V1.0.2/MSDK/rtos/FreeRTOS/Source\timers.c **** #if( configSUPPORT_STATIC_ALLOCATION == 1 )
 149:C:/Users/stapi/OneDrive/Desktop/GD32VW553/V1_MQTT_OK/GD32VW55X_Wifi_BLE_SDK/GD32VW55x_RELEASE_V1.0.2/MSDK/rtos/FreeRTOS/Source\timers.c **** 
 150:C:/Users/stapi/OneDrive/Desktop/GD32VW553/V1_MQTT_OK/GD32VW55X_Wifi_BLE_SDK/GD32VW55x_RELEASE_V1.0.2/MSDK/rtos/FreeRTOS/Source\timers.c **** 	/* If static allocation is supported then the application must provide the
 151:C:/Users/stapi/OneDrive/Desktop/GD32VW553/V1_MQTT_OK/GD32VW55X_Wifi_BLE_SDK/GD32VW55x_RELEASE_V1.0.2/MSDK/rtos/FreeRTOS/Source\timers.c **** 	following callback function - which enables the application to optionally
 152:C:/Users/stapi/OneDrive/Desktop/GD32VW553/V1_MQTT_OK/GD32VW55X_Wifi_BLE_SDK/GD32VW55x_RELEASE_V1.0.2/MSDK/rtos/FreeRTOS/Source\timers.c **** 	provide the memory that will be used by the timer task as the task's stack
 153:C:/Users/stapi/OneDrive/Desktop/GD32VW553/V1_MQTT_OK/GD32VW55X_Wifi_BLE_SDK/GD32VW55x_RELEASE_V1.0.2/MSDK/rtos/FreeRTOS/Source\timers.c **** 	and TCB. */
 154:C:/Users/stapi/OneDrive/Desktop/GD32VW553/V1_MQTT_OK/GD32VW55X_Wifi_BLE_SDK/GD32VW55x_RELEASE_V1.0.2/MSDK/rtos/FreeRTOS/Source\timers.c **** 	extern void vApplicationGetTimerTaskMemory( StaticTask_t **ppxTimerTaskTCBBuffer, StackType_t **pp
 155:C:/Users/stapi/OneDrive/Desktop/GD32VW553/V1_MQTT_OK/GD32VW55X_Wifi_BLE_SDK/GD32VW55x_RELEASE_V1.0.2/MSDK/rtos/FreeRTOS/Source\timers.c **** 
 156:C:/Users/stapi/OneDrive/Desktop/GD32VW553/V1_MQTT_OK/GD32VW55X_Wifi_BLE_SDK/GD32VW55x_RELEASE_V1.0.2/MSDK/rtos/FreeRTOS/Source\timers.c **** #endif
 157:C:/Users/stapi/OneDrive/Desktop/GD32VW553/V1_MQTT_OK/GD32VW55X_Wifi_BLE_SDK/GD32VW55x_RELEASE_V1.0.2/MSDK/rtos/FreeRTOS/Source\timers.c **** 
 158:C:/Users/stapi/OneDrive/Desktop/GD32VW553/V1_MQTT_OK/GD32VW55X_Wifi_BLE_SDK/GD32VW55x_RELEASE_V1.0.2/MSDK/rtos/FreeRTOS/Source\timers.c **** /*
 159:C:/Users/stapi/OneDrive/Desktop/GD32VW553/V1_MQTT_OK/GD32VW55X_Wifi_BLE_SDK/GD32VW55x_RELEASE_V1.0.2/MSDK/rtos/FreeRTOS/Source\timers.c ****  * Initialise the infrastructure used by the timer service task if it has not
 160:C:/Users/stapi/OneDrive/Desktop/GD32VW553/V1_MQTT_OK/GD32VW55X_Wifi_BLE_SDK/GD32VW55x_RELEASE_V1.0.2/MSDK/rtos/FreeRTOS/Source\timers.c ****  * been initialised already.
 161:C:/Users/stapi/OneDrive/Desktop/GD32VW553/V1_MQTT_OK/GD32VW55X_Wifi_BLE_SDK/GD32VW55x_RELEASE_V1.0.2/MSDK/rtos/FreeRTOS/Source\timers.c ****  */
 162:C:/Users/stapi/OneDrive/Desktop/GD32VW553/V1_MQTT_OK/GD32VW55X_Wifi_BLE_SDK/GD32VW55x_RELEASE_V1.0.2/MSDK/rtos/FreeRTOS/Source\timers.c **** static void prvCheckForValidListAndQueue( void ) PRIVILEGED_FUNCTION;
 163:C:/Users/stapi/OneDrive/Desktop/GD32VW553/V1_MQTT_OK/GD32VW55X_Wifi_BLE_SDK/GD32VW55x_RELEASE_V1.0.2/MSDK/rtos/FreeRTOS/Source\timers.c **** 
 164:C:/Users/stapi/OneDrive/Desktop/GD32VW553/V1_MQTT_OK/GD32VW55X_Wifi_BLE_SDK/GD32VW55x_RELEASE_V1.0.2/MSDK/rtos/FreeRTOS/Source\timers.c **** /*
 165:C:/Users/stapi/OneDrive/Desktop/GD32VW553/V1_MQTT_OK/GD32VW55X_Wifi_BLE_SDK/GD32VW55x_RELEASE_V1.0.2/MSDK/rtos/FreeRTOS/Source\timers.c ****  * The timer service task (daemon).  Timer functionality is controlled by this
 166:C:/Users/stapi/OneDrive/Desktop/GD32VW553/V1_MQTT_OK/GD32VW55X_Wifi_BLE_SDK/GD32VW55x_RELEASE_V1.0.2/MSDK/rtos/FreeRTOS/Source\timers.c ****  * task.  Other tasks communicate with the timer service task using the
 167:C:/Users/stapi/OneDrive/Desktop/GD32VW553/V1_MQTT_OK/GD32VW55X_Wifi_BLE_SDK/GD32VW55x_RELEASE_V1.0.2/MSDK/rtos/FreeRTOS/Source\timers.c ****  * xTimerQueue queue.
 168:C:/Users/stapi/OneDrive/Desktop/GD32VW553/V1_MQTT_OK/GD32VW55X_Wifi_BLE_SDK/GD32VW55x_RELEASE_V1.0.2/MSDK/rtos/FreeRTOS/Source\timers.c ****  */
 169:C:/Users/stapi/OneDrive/Desktop/GD32VW553/V1_MQTT_OK/GD32VW55X_Wifi_BLE_SDK/GD32VW55x_RELEASE_V1.0.2/MSDK/rtos/FreeRTOS/Source\timers.c **** static portTASK_FUNCTION_PROTO( prvTimerTask, pvParameters ) PRIVILEGED_FUNCTION;
 170:C:/Users/stapi/OneDrive/Desktop/GD32VW553/V1_MQTT_OK/GD32VW55X_Wifi_BLE_SDK/GD32VW55x_RELEASE_V1.0.2/MSDK/rtos/FreeRTOS/Source\timers.c **** 
 171:C:/Users/stapi/OneDrive/Desktop/GD32VW553/V1_MQTT_OK/GD32VW55X_Wifi_BLE_SDK/GD32VW55x_RELEASE_V1.0.2/MSDK/rtos/FreeRTOS/Source\timers.c **** /*
 172:C:/Users/stapi/OneDrive/Desktop/GD32VW553/V1_MQTT_OK/GD32VW55X_Wifi_BLE_SDK/GD32VW55x_RELEASE_V1.0.2/MSDK/rtos/FreeRTOS/Source\timers.c ****  * Called by the timer service task to interpret and process a command it
 173:C:/Users/stapi/OneDrive/Desktop/GD32VW553/V1_MQTT_OK/GD32VW55X_Wifi_BLE_SDK/GD32VW55x_RELEASE_V1.0.2/MSDK/rtos/FreeRTOS/Source\timers.c ****  * received on the timer queue.
 174:C:/Users/stapi/OneDrive/Desktop/GD32VW553/V1_MQTT_OK/GD32VW55X_Wifi_BLE_SDK/GD32VW55x_RELEASE_V1.0.2/MSDK/rtos/FreeRTOS/Source\timers.c ****  */
 175:C:/Users/stapi/OneDrive/Desktop/GD32VW553/V1_MQTT_OK/GD32VW55X_Wifi_BLE_SDK/GD32VW55x_RELEASE_V1.0.2/MSDK/rtos/FreeRTOS/Source\timers.c **** static void prvProcessReceivedCommands( void ) PRIVILEGED_FUNCTION;
 176:C:/Users/stapi/OneDrive/Desktop/GD32VW553/V1_MQTT_OK/GD32VW55X_Wifi_BLE_SDK/GD32VW55x_RELEASE_V1.0.2/MSDK/rtos/FreeRTOS/Source\timers.c **** 
 177:C:/Users/stapi/OneDrive/Desktop/GD32VW553/V1_MQTT_OK/GD32VW55X_Wifi_BLE_SDK/GD32VW55x_RELEASE_V1.0.2/MSDK/rtos/FreeRTOS/Source\timers.c **** /*
 178:C:/Users/stapi/OneDrive/Desktop/GD32VW553/V1_MQTT_OK/GD32VW55X_Wifi_BLE_SDK/GD32VW55x_RELEASE_V1.0.2/MSDK/rtos/FreeRTOS/Source\timers.c ****  * Insert the timer into either xActiveTimerList1, or xActiveTimerList2,
 179:C:/Users/stapi/OneDrive/Desktop/GD32VW553/V1_MQTT_OK/GD32VW55X_Wifi_BLE_SDK/GD32VW55x_RELEASE_V1.0.2/MSDK/rtos/FreeRTOS/Source\timers.c ****  * depending on if the expire time causes a timer counter overflow.
 180:C:/Users/stapi/OneDrive/Desktop/GD32VW553/V1_MQTT_OK/GD32VW55X_Wifi_BLE_SDK/GD32VW55x_RELEASE_V1.0.2/MSDK/rtos/FreeRTOS/Source\timers.c ****  */
 181:C:/Users/stapi/OneDrive/Desktop/GD32VW553/V1_MQTT_OK/GD32VW55X_Wifi_BLE_SDK/GD32VW55x_RELEASE_V1.0.2/MSDK/rtos/FreeRTOS/Source\timers.c **** static BaseType_t prvInsertTimerInActiveList( Timer_t * const pxTimer, const TickType_t xNextExpiry
 182:C:/Users/stapi/OneDrive/Desktop/GD32VW553/V1_MQTT_OK/GD32VW55X_Wifi_BLE_SDK/GD32VW55x_RELEASE_V1.0.2/MSDK/rtos/FreeRTOS/Source\timers.c **** 
 183:C:/Users/stapi/OneDrive/Desktop/GD32VW553/V1_MQTT_OK/GD32VW55X_Wifi_BLE_SDK/GD32VW55x_RELEASE_V1.0.2/MSDK/rtos/FreeRTOS/Source\timers.c **** /*
 184:C:/Users/stapi/OneDrive/Desktop/GD32VW553/V1_MQTT_OK/GD32VW55X_Wifi_BLE_SDK/GD32VW55x_RELEASE_V1.0.2/MSDK/rtos/FreeRTOS/Source\timers.c ****  * An active timer has reached its expire time.  Reload the timer if it is an
 185:C:/Users/stapi/OneDrive/Desktop/GD32VW553/V1_MQTT_OK/GD32VW55X_Wifi_BLE_SDK/GD32VW55x_RELEASE_V1.0.2/MSDK/rtos/FreeRTOS/Source\timers.c ****  * auto-reload timer, then call its callback.
 186:C:/Users/stapi/OneDrive/Desktop/GD32VW553/V1_MQTT_OK/GD32VW55X_Wifi_BLE_SDK/GD32VW55x_RELEASE_V1.0.2/MSDK/rtos/FreeRTOS/Source\timers.c ****  */
 187:C:/Users/stapi/OneDrive/Desktop/GD32VW553/V1_MQTT_OK/GD32VW55X_Wifi_BLE_SDK/GD32VW55x_RELEASE_V1.0.2/MSDK/rtos/FreeRTOS/Source\timers.c **** static void prvProcessExpiredTimer( const TickType_t xNextExpireTime, const TickType_t xTimeNow ) P
 188:C:/Users/stapi/OneDrive/Desktop/GD32VW553/V1_MQTT_OK/GD32VW55X_Wifi_BLE_SDK/GD32VW55x_RELEASE_V1.0.2/MSDK/rtos/FreeRTOS/Source\timers.c **** 
 189:C:/Users/stapi/OneDrive/Desktop/GD32VW553/V1_MQTT_OK/GD32VW55X_Wifi_BLE_SDK/GD32VW55x_RELEASE_V1.0.2/MSDK/rtos/FreeRTOS/Source\timers.c **** /*
 190:C:/Users/stapi/OneDrive/Desktop/GD32VW553/V1_MQTT_OK/GD32VW55X_Wifi_BLE_SDK/GD32VW55x_RELEASE_V1.0.2/MSDK/rtos/FreeRTOS/Source\timers.c ****  * The tick count has overflowed.  Switch the timer lists after ensuring the
 191:C:/Users/stapi/OneDrive/Desktop/GD32VW553/V1_MQTT_OK/GD32VW55X_Wifi_BLE_SDK/GD32VW55x_RELEASE_V1.0.2/MSDK/rtos/FreeRTOS/Source\timers.c ****  * current timer list does not still reference some timers.
 192:C:/Users/stapi/OneDrive/Desktop/GD32VW553/V1_MQTT_OK/GD32VW55X_Wifi_BLE_SDK/GD32VW55x_RELEASE_V1.0.2/MSDK/rtos/FreeRTOS/Source\timers.c ****  */
 193:C:/Users/stapi/OneDrive/Desktop/GD32VW553/V1_MQTT_OK/GD32VW55X_Wifi_BLE_SDK/GD32VW55x_RELEASE_V1.0.2/MSDK/rtos/FreeRTOS/Source\timers.c **** static void prvSwitchTimerLists( void ) PRIVILEGED_FUNCTION;
 194:C:/Users/stapi/OneDrive/Desktop/GD32VW553/V1_MQTT_OK/GD32VW55X_Wifi_BLE_SDK/GD32VW55x_RELEASE_V1.0.2/MSDK/rtos/FreeRTOS/Source\timers.c **** 
 195:C:/Users/stapi/OneDrive/Desktop/GD32VW553/V1_MQTT_OK/GD32VW55X_Wifi_BLE_SDK/GD32VW55x_RELEASE_V1.0.2/MSDK/rtos/FreeRTOS/Source\timers.c **** /*
 196:C:/Users/stapi/OneDrive/Desktop/GD32VW553/V1_MQTT_OK/GD32VW55X_Wifi_BLE_SDK/GD32VW55x_RELEASE_V1.0.2/MSDK/rtos/FreeRTOS/Source\timers.c ****  * Obtain the current tick count, setting *pxTimerListsWereSwitched to pdTRUE
 197:C:/Users/stapi/OneDrive/Desktop/GD32VW553/V1_MQTT_OK/GD32VW55X_Wifi_BLE_SDK/GD32VW55x_RELEASE_V1.0.2/MSDK/rtos/FreeRTOS/Source\timers.c ****  * if a tick count overflow occurred since prvSampleTimeNow() was last called.
 198:C:/Users/stapi/OneDrive/Desktop/GD32VW553/V1_MQTT_OK/GD32VW55X_Wifi_BLE_SDK/GD32VW55x_RELEASE_V1.0.2/MSDK/rtos/FreeRTOS/Source\timers.c ****  */
 199:C:/Users/stapi/OneDrive/Desktop/GD32VW553/V1_MQTT_OK/GD32VW55X_Wifi_BLE_SDK/GD32VW55x_RELEASE_V1.0.2/MSDK/rtos/FreeRTOS/Source\timers.c **** static TickType_t prvSampleTimeNow( BaseType_t * const pxTimerListsWereSwitched ) PRIVILEGED_FUNCTI
 200:C:/Users/stapi/OneDrive/Desktop/GD32VW553/V1_MQTT_OK/GD32VW55X_Wifi_BLE_SDK/GD32VW55x_RELEASE_V1.0.2/MSDK/rtos/FreeRTOS/Source\timers.c **** 
 201:C:/Users/stapi/OneDrive/Desktop/GD32VW553/V1_MQTT_OK/GD32VW55X_Wifi_BLE_SDK/GD32VW55x_RELEASE_V1.0.2/MSDK/rtos/FreeRTOS/Source\timers.c **** /*
 202:C:/Users/stapi/OneDrive/Desktop/GD32VW553/V1_MQTT_OK/GD32VW55X_Wifi_BLE_SDK/GD32VW55x_RELEASE_V1.0.2/MSDK/rtos/FreeRTOS/Source\timers.c ****  * If the timer list contains any active timers then return the expire time of
 203:C:/Users/stapi/OneDrive/Desktop/GD32VW553/V1_MQTT_OK/GD32VW55X_Wifi_BLE_SDK/GD32VW55x_RELEASE_V1.0.2/MSDK/rtos/FreeRTOS/Source\timers.c ****  * the timer that will expire first and set *pxListWasEmpty to false.  If the
 204:C:/Users/stapi/OneDrive/Desktop/GD32VW553/V1_MQTT_OK/GD32VW55X_Wifi_BLE_SDK/GD32VW55x_RELEASE_V1.0.2/MSDK/rtos/FreeRTOS/Source\timers.c ****  * timer list does not contain any timers then return 0 and set *pxListWasEmpty
 205:C:/Users/stapi/OneDrive/Desktop/GD32VW553/V1_MQTT_OK/GD32VW55X_Wifi_BLE_SDK/GD32VW55x_RELEASE_V1.0.2/MSDK/rtos/FreeRTOS/Source\timers.c ****  * to pdTRUE.
 206:C:/Users/stapi/OneDrive/Desktop/GD32VW553/V1_MQTT_OK/GD32VW55X_Wifi_BLE_SDK/GD32VW55x_RELEASE_V1.0.2/MSDK/rtos/FreeRTOS/Source\timers.c ****  */
 207:C:/Users/stapi/OneDrive/Desktop/GD32VW553/V1_MQTT_OK/GD32VW55X_Wifi_BLE_SDK/GD32VW55x_RELEASE_V1.0.2/MSDK/rtos/FreeRTOS/Source\timers.c **** static TickType_t prvGetNextExpireTime( BaseType_t * const pxListWasEmpty ) PRIVILEGED_FUNCTION;
 208:C:/Users/stapi/OneDrive/Desktop/GD32VW553/V1_MQTT_OK/GD32VW55X_Wifi_BLE_SDK/GD32VW55x_RELEASE_V1.0.2/MSDK/rtos/FreeRTOS/Source\timers.c **** 
 209:C:/Users/stapi/OneDrive/Desktop/GD32VW553/V1_MQTT_OK/GD32VW55X_Wifi_BLE_SDK/GD32VW55x_RELEASE_V1.0.2/MSDK/rtos/FreeRTOS/Source\timers.c **** /*
 210:C:/Users/stapi/OneDrive/Desktop/GD32VW553/V1_MQTT_OK/GD32VW55X_Wifi_BLE_SDK/GD32VW55x_RELEASE_V1.0.2/MSDK/rtos/FreeRTOS/Source\timers.c ****  * If a timer has expired, process it.  Otherwise, block the timer service task
 211:C:/Users/stapi/OneDrive/Desktop/GD32VW553/V1_MQTT_OK/GD32VW55X_Wifi_BLE_SDK/GD32VW55x_RELEASE_V1.0.2/MSDK/rtos/FreeRTOS/Source\timers.c ****  * until either a timer does expire or a command is received.
 212:C:/Users/stapi/OneDrive/Desktop/GD32VW553/V1_MQTT_OK/GD32VW55X_Wifi_BLE_SDK/GD32VW55x_RELEASE_V1.0.2/MSDK/rtos/FreeRTOS/Source\timers.c ****  */
 213:C:/Users/stapi/OneDrive/Desktop/GD32VW553/V1_MQTT_OK/GD32VW55X_Wifi_BLE_SDK/GD32VW55x_RELEASE_V1.0.2/MSDK/rtos/FreeRTOS/Source\timers.c **** static void prvProcessTimerOrBlockTask( const TickType_t xNextExpireTime, BaseType_t xListWasEmpty 
 214:C:/Users/stapi/OneDrive/Desktop/GD32VW553/V1_MQTT_OK/GD32VW55X_Wifi_BLE_SDK/GD32VW55x_RELEASE_V1.0.2/MSDK/rtos/FreeRTOS/Source\timers.c **** 
 215:C:/Users/stapi/OneDrive/Desktop/GD32VW553/V1_MQTT_OK/GD32VW55X_Wifi_BLE_SDK/GD32VW55x_RELEASE_V1.0.2/MSDK/rtos/FreeRTOS/Source\timers.c **** /*
 216:C:/Users/stapi/OneDrive/Desktop/GD32VW553/V1_MQTT_OK/GD32VW55X_Wifi_BLE_SDK/GD32VW55x_RELEASE_V1.0.2/MSDK/rtos/FreeRTOS/Source\timers.c ****  * Called after a Timer_t structure has been allocated either statically or
 217:C:/Users/stapi/OneDrive/Desktop/GD32VW553/V1_MQTT_OK/GD32VW55X_Wifi_BLE_SDK/GD32VW55x_RELEASE_V1.0.2/MSDK/rtos/FreeRTOS/Source\timers.c ****  * dynamically to fill in the structure's members.
 218:C:/Users/stapi/OneDrive/Desktop/GD32VW553/V1_MQTT_OK/GD32VW55X_Wifi_BLE_SDK/GD32VW55x_RELEASE_V1.0.2/MSDK/rtos/FreeRTOS/Source\timers.c ****  */
 219:C:/Users/stapi/OneDrive/Desktop/GD32VW553/V1_MQTT_OK/GD32VW55X_Wifi_BLE_SDK/GD32VW55x_RELEASE_V1.0.2/MSDK/rtos/FreeRTOS/Source\timers.c **** static void prvInitialiseNewTimer(	const char * const pcTimerName,			/*lint !e971 Unqualified char 
 220:C:/Users/stapi/OneDrive/Desktop/GD32VW553/V1_MQTT_OK/GD32VW55X_Wifi_BLE_SDK/GD32VW55x_RELEASE_V1.0.2/MSDK/rtos/FreeRTOS/Source\timers.c **** 									const TickType_t xTimerPeriodInTicks,
 221:C:/Users/stapi/OneDrive/Desktop/GD32VW553/V1_MQTT_OK/GD32VW55X_Wifi_BLE_SDK/GD32VW55x_RELEASE_V1.0.2/MSDK/rtos/FreeRTOS/Source\timers.c **** 									const UBaseType_t uxAutoReload,
 222:C:/Users/stapi/OneDrive/Desktop/GD32VW553/V1_MQTT_OK/GD32VW55X_Wifi_BLE_SDK/GD32VW55x_RELEASE_V1.0.2/MSDK/rtos/FreeRTOS/Source\timers.c **** 									void * const pvTimerID,
 223:C:/Users/stapi/OneDrive/Desktop/GD32VW553/V1_MQTT_OK/GD32VW55X_Wifi_BLE_SDK/GD32VW55x_RELEASE_V1.0.2/MSDK/rtos/FreeRTOS/Source\timers.c **** 									TimerCallbackFunction_t pxCallbackFunction,
 224:C:/Users/stapi/OneDrive/Desktop/GD32VW553/V1_MQTT_OK/GD32VW55X_Wifi_BLE_SDK/GD32VW55x_RELEASE_V1.0.2/MSDK/rtos/FreeRTOS/Source\timers.c **** 									Timer_t *pxNewTimer ) PRIVILEGED_FUNCTION;
 225:C:/Users/stapi/OneDrive/Desktop/GD32VW553/V1_MQTT_OK/GD32VW55X_Wifi_BLE_SDK/GD32VW55x_RELEASE_V1.0.2/MSDK/rtos/FreeRTOS/Source\timers.c **** /*-----------------------------------------------------------*/
 226:C:/Users/stapi/OneDrive/Desktop/GD32VW553/V1_MQTT_OK/GD32VW55X_Wifi_BLE_SDK/GD32VW55x_RELEASE_V1.0.2/MSDK/rtos/FreeRTOS/Source\timers.c **** 
 227:C:/Users/stapi/OneDrive/Desktop/GD32VW553/V1_MQTT_OK/GD32VW55X_Wifi_BLE_SDK/GD32VW55x_RELEASE_V1.0.2/MSDK/rtos/FreeRTOS/Source\timers.c **** BaseType_t xTimerCreateTimerTask( void )
 228:C:/Users/stapi/OneDrive/Desktop/GD32VW553/V1_MQTT_OK/GD32VW55X_Wifi_BLE_SDK/GD32VW55x_RELEASE_V1.0.2/MSDK/rtos/FreeRTOS/Source\timers.c **** {
 229:C:/Users/stapi/OneDrive/Desktop/GD32VW553/V1_MQTT_OK/GD32VW55X_Wifi_BLE_SDK/GD32VW55x_RELEASE_V1.0.2/MSDK/rtos/FreeRTOS/Source\timers.c **** BaseType_t xReturn = pdFAIL;
 230:C:/Users/stapi/OneDrive/Desktop/GD32VW553/V1_MQTT_OK/GD32VW55X_Wifi_BLE_SDK/GD32VW55x_RELEASE_V1.0.2/MSDK/rtos/FreeRTOS/Source\timers.c **** 
 231:C:/Users/stapi/OneDrive/Desktop/GD32VW553/V1_MQTT_OK/GD32VW55X_Wifi_BLE_SDK/GD32VW55x_RELEASE_V1.0.2/MSDK/rtos/FreeRTOS/Source\timers.c **** 	/* This function is called when the scheduler is started if
 232:C:/Users/stapi/OneDrive/Desktop/GD32VW553/V1_MQTT_OK/GD32VW55X_Wifi_BLE_SDK/GD32VW55x_RELEASE_V1.0.2/MSDK/rtos/FreeRTOS/Source\timers.c **** 	configUSE_TIMERS is set to 1.  Check that the infrastructure used by the
 233:C:/Users/stapi/OneDrive/Desktop/GD32VW553/V1_MQTT_OK/GD32VW55X_Wifi_BLE_SDK/GD32VW55x_RELEASE_V1.0.2/MSDK/rtos/FreeRTOS/Source\timers.c **** 	timer service task has been created/initialised.  If timers have already
 234:C:/Users/stapi/OneDrive/Desktop/GD32VW553/V1_MQTT_OK/GD32VW55X_Wifi_BLE_SDK/GD32VW55x_RELEASE_V1.0.2/MSDK/rtos/FreeRTOS/Source\timers.c **** 	been created then the initialisation will already have been performed. */
 235:C:/Users/stapi/OneDrive/Desktop/GD32VW553/V1_MQTT_OK/GD32VW55X_Wifi_BLE_SDK/GD32VW55x_RELEASE_V1.0.2/MSDK/rtos/FreeRTOS/Source\timers.c **** 	prvCheckForValidListAndQueue();
 236:C:/Users/stapi/OneDrive/Desktop/GD32VW553/V1_MQTT_OK/GD32VW55X_Wifi_BLE_SDK/GD32VW55x_RELEASE_V1.0.2/MSDK/rtos/FreeRTOS/Source\timers.c **** 
 237:C:/Users/stapi/OneDrive/Desktop/GD32VW553/V1_MQTT_OK/GD32VW55X_Wifi_BLE_SDK/GD32VW55x_RELEASE_V1.0.2/MSDK/rtos/FreeRTOS/Source\timers.c **** 	if( xTimerQueue != NULL )
 238:C:/Users/stapi/OneDrive/Desktop/GD32VW553/V1_MQTT_OK/GD32VW55X_Wifi_BLE_SDK/GD32VW55x_RELEASE_V1.0.2/MSDK/rtos/FreeRTOS/Source\timers.c **** 	{
 239:C:/Users/stapi/OneDrive/Desktop/GD32VW553/V1_MQTT_OK/GD32VW55X_Wifi_BLE_SDK/GD32VW55x_RELEASE_V1.0.2/MSDK/rtos/FreeRTOS/Source\timers.c **** 		#if( configSUPPORT_STATIC_ALLOCATION == 1 )
 240:C:/Users/stapi/OneDrive/Desktop/GD32VW553/V1_MQTT_OK/GD32VW55X_Wifi_BLE_SDK/GD32VW55x_RELEASE_V1.0.2/MSDK/rtos/FreeRTOS/Source\timers.c **** 		{
 241:C:/Users/stapi/OneDrive/Desktop/GD32VW553/V1_MQTT_OK/GD32VW55X_Wifi_BLE_SDK/GD32VW55x_RELEASE_V1.0.2/MSDK/rtos/FreeRTOS/Source\timers.c **** 			StaticTask_t *pxTimerTaskTCBBuffer = NULL;
 242:C:/Users/stapi/OneDrive/Desktop/GD32VW553/V1_MQTT_OK/GD32VW55X_Wifi_BLE_SDK/GD32VW55x_RELEASE_V1.0.2/MSDK/rtos/FreeRTOS/Source\timers.c **** 			StackType_t *pxTimerTaskStackBuffer = NULL;
 243:C:/Users/stapi/OneDrive/Desktop/GD32VW553/V1_MQTT_OK/GD32VW55X_Wifi_BLE_SDK/GD32VW55x_RELEASE_V1.0.2/MSDK/rtos/FreeRTOS/Source\timers.c **** 			uint32_t ulTimerTaskStackSize;
 244:C:/Users/stapi/OneDrive/Desktop/GD32VW553/V1_MQTT_OK/GD32VW55X_Wifi_BLE_SDK/GD32VW55x_RELEASE_V1.0.2/MSDK/rtos/FreeRTOS/Source\timers.c **** 
 245:C:/Users/stapi/OneDrive/Desktop/GD32VW553/V1_MQTT_OK/GD32VW55X_Wifi_BLE_SDK/GD32VW55x_RELEASE_V1.0.2/MSDK/rtos/FreeRTOS/Source\timers.c **** 			vApplicationGetTimerTaskMemory( &pxTimerTaskTCBBuffer, &pxTimerTaskStackBuffer, &ulTimerTaskStac
 246:C:/Users/stapi/OneDrive/Desktop/GD32VW553/V1_MQTT_OK/GD32VW55X_Wifi_BLE_SDK/GD32VW55x_RELEASE_V1.0.2/MSDK/rtos/FreeRTOS/Source\timers.c **** 			xTimerTaskHandle = xTaskCreateStatic(	prvTimerTask,
 247:C:/Users/stapi/OneDrive/Desktop/GD32VW553/V1_MQTT_OK/GD32VW55X_Wifi_BLE_SDK/GD32VW55x_RELEASE_V1.0.2/MSDK/rtos/FreeRTOS/Source\timers.c **** 													configTIMER_SERVICE_TASK_NAME,
 248:C:/Users/stapi/OneDrive/Desktop/GD32VW553/V1_MQTT_OK/GD32VW55X_Wifi_BLE_SDK/GD32VW55x_RELEASE_V1.0.2/MSDK/rtos/FreeRTOS/Source\timers.c **** 													ulTimerTaskStackSize,
 249:C:/Users/stapi/OneDrive/Desktop/GD32VW553/V1_MQTT_OK/GD32VW55X_Wifi_BLE_SDK/GD32VW55x_RELEASE_V1.0.2/MSDK/rtos/FreeRTOS/Source\timers.c **** 													NULL,
 250:C:/Users/stapi/OneDrive/Desktop/GD32VW553/V1_MQTT_OK/GD32VW55X_Wifi_BLE_SDK/GD32VW55x_RELEASE_V1.0.2/MSDK/rtos/FreeRTOS/Source\timers.c **** 													( ( UBaseType_t ) configTIMER_TASK_PRIORITY ) | portPRIVILEGE_BIT,
 251:C:/Users/stapi/OneDrive/Desktop/GD32VW553/V1_MQTT_OK/GD32VW55X_Wifi_BLE_SDK/GD32VW55x_RELEASE_V1.0.2/MSDK/rtos/FreeRTOS/Source\timers.c **** 													pxTimerTaskStackBuffer,
 252:C:/Users/stapi/OneDrive/Desktop/GD32VW553/V1_MQTT_OK/GD32VW55X_Wifi_BLE_SDK/GD32VW55x_RELEASE_V1.0.2/MSDK/rtos/FreeRTOS/Source\timers.c **** 													pxTimerTaskTCBBuffer );
 253:C:/Users/stapi/OneDrive/Desktop/GD32VW553/V1_MQTT_OK/GD32VW55X_Wifi_BLE_SDK/GD32VW55x_RELEASE_V1.0.2/MSDK/rtos/FreeRTOS/Source\timers.c **** 
 254:C:/Users/stapi/OneDrive/Desktop/GD32VW553/V1_MQTT_OK/GD32VW55X_Wifi_BLE_SDK/GD32VW55x_RELEASE_V1.0.2/MSDK/rtos/FreeRTOS/Source\timers.c **** 			if( xTimerTaskHandle != NULL )
 255:C:/Users/stapi/OneDrive/Desktop/GD32VW553/V1_MQTT_OK/GD32VW55X_Wifi_BLE_SDK/GD32VW55x_RELEASE_V1.0.2/MSDK/rtos/FreeRTOS/Source\timers.c **** 			{
 256:C:/Users/stapi/OneDrive/Desktop/GD32VW553/V1_MQTT_OK/GD32VW55X_Wifi_BLE_SDK/GD32VW55x_RELEASE_V1.0.2/MSDK/rtos/FreeRTOS/Source\timers.c **** 				xReturn = pdPASS;
 257:C:/Users/stapi/OneDrive/Desktop/GD32VW553/V1_MQTT_OK/GD32VW55X_Wifi_BLE_SDK/GD32VW55x_RELEASE_V1.0.2/MSDK/rtos/FreeRTOS/Source\timers.c **** 			}
 258:C:/Users/stapi/OneDrive/Desktop/GD32VW553/V1_MQTT_OK/GD32VW55X_Wifi_BLE_SDK/GD32VW55x_RELEASE_V1.0.2/MSDK/rtos/FreeRTOS/Source\timers.c **** 		}
 259:C:/Users/stapi/OneDrive/Desktop/GD32VW553/V1_MQTT_OK/GD32VW55X_Wifi_BLE_SDK/GD32VW55x_RELEASE_V1.0.2/MSDK/rtos/FreeRTOS/Source\timers.c **** 		#else
 260:C:/Users/stapi/OneDrive/Desktop/GD32VW553/V1_MQTT_OK/GD32VW55X_Wifi_BLE_SDK/GD32VW55x_RELEASE_V1.0.2/MSDK/rtos/FreeRTOS/Source\timers.c **** 		{
 261:C:/Users/stapi/OneDrive/Desktop/GD32VW553/V1_MQTT_OK/GD32VW55X_Wifi_BLE_SDK/GD32VW55x_RELEASE_V1.0.2/MSDK/rtos/FreeRTOS/Source\timers.c **** 			xReturn = xTaskCreate(	prvTimerTask,
 262:C:/Users/stapi/OneDrive/Desktop/GD32VW553/V1_MQTT_OK/GD32VW55X_Wifi_BLE_SDK/GD32VW55x_RELEASE_V1.0.2/MSDK/rtos/FreeRTOS/Source\timers.c **** 									configTIMER_SERVICE_TASK_NAME,
 263:C:/Users/stapi/OneDrive/Desktop/GD32VW553/V1_MQTT_OK/GD32VW55X_Wifi_BLE_SDK/GD32VW55x_RELEASE_V1.0.2/MSDK/rtos/FreeRTOS/Source\timers.c **** 									configTIMER_TASK_STACK_DEPTH,
 264:C:/Users/stapi/OneDrive/Desktop/GD32VW553/V1_MQTT_OK/GD32VW55X_Wifi_BLE_SDK/GD32VW55x_RELEASE_V1.0.2/MSDK/rtos/FreeRTOS/Source\timers.c **** 									NULL,
 265:C:/Users/stapi/OneDrive/Desktop/GD32VW553/V1_MQTT_OK/GD32VW55X_Wifi_BLE_SDK/GD32VW55x_RELEASE_V1.0.2/MSDK/rtos/FreeRTOS/Source\timers.c **** 									( ( UBaseType_t ) configTIMER_TASK_PRIORITY ) | portPRIVILEGE_BIT,
 266:C:/Users/stapi/OneDrive/Desktop/GD32VW553/V1_MQTT_OK/GD32VW55X_Wifi_BLE_SDK/GD32VW55x_RELEASE_V1.0.2/MSDK/rtos/FreeRTOS/Source\timers.c **** 									&xTimerTaskHandle );
 267:C:/Users/stapi/OneDrive/Desktop/GD32VW553/V1_MQTT_OK/GD32VW55X_Wifi_BLE_SDK/GD32VW55x_RELEASE_V1.0.2/MSDK/rtos/FreeRTOS/Source\timers.c **** 		}
 268:C:/Users/stapi/OneDrive/Desktop/GD32VW553/V1_MQTT_OK/GD32VW55X_Wifi_BLE_SDK/GD32VW55x_RELEASE_V1.0.2/MSDK/rtos/FreeRTOS/Source\timers.c **** 		#endif /* configSUPPORT_STATIC_ALLOCATION */
 269:C:/Users/stapi/OneDrive/Desktop/GD32VW553/V1_MQTT_OK/GD32VW55X_Wifi_BLE_SDK/GD32VW55x_RELEASE_V1.0.2/MSDK/rtos/FreeRTOS/Source\timers.c **** 	}
 270:C:/Users/stapi/OneDrive/Desktop/GD32VW553/V1_MQTT_OK/GD32VW55X_Wifi_BLE_SDK/GD32VW55x_RELEASE_V1.0.2/MSDK/rtos/FreeRTOS/Source\timers.c **** 	else
 271:C:/Users/stapi/OneDrive/Desktop/GD32VW553/V1_MQTT_OK/GD32VW55X_Wifi_BLE_SDK/GD32VW55x_RELEASE_V1.0.2/MSDK/rtos/FreeRTOS/Source\timers.c **** 	{
 272:C:/Users/stapi/OneDrive/Desktop/GD32VW553/V1_MQTT_OK/GD32VW55X_Wifi_BLE_SDK/GD32VW55x_RELEASE_V1.0.2/MSDK/rtos/FreeRTOS/Source\timers.c **** 		mtCOVERAGE_TEST_MARKER();
 273:C:/Users/stapi/OneDrive/Desktop/GD32VW553/V1_MQTT_OK/GD32VW55X_Wifi_BLE_SDK/GD32VW55x_RELEASE_V1.0.2/MSDK/rtos/FreeRTOS/Source\timers.c **** 	}
 274:C:/Users/stapi/OneDrive/Desktop/GD32VW553/V1_MQTT_OK/GD32VW55X_Wifi_BLE_SDK/GD32VW55x_RELEASE_V1.0.2/MSDK/rtos/FreeRTOS/Source\timers.c **** 
 275:C:/Users/stapi/OneDrive/Desktop/GD32VW553/V1_MQTT_OK/GD32VW55X_Wifi_BLE_SDK/GD32VW55x_RELEASE_V1.0.2/MSDK/rtos/FreeRTOS/Source\timers.c **** 	configASSERT( xReturn );
 276:C:/Users/stapi/OneDrive/Desktop/GD32VW553/V1_MQTT_OK/GD32VW55X_Wifi_BLE_SDK/GD32VW55x_RELEASE_V1.0.2/MSDK/rtos/FreeRTOS/Source\timers.c **** 	return xReturn;
 277:C:/Users/stapi/OneDrive/Desktop/GD32VW553/V1_MQTT_OK/GD32VW55X_Wifi_BLE_SDK/GD32VW55x_RELEASE_V1.0.2/MSDK/rtos/FreeRTOS/Source\timers.c **** }
 278:C:/Users/stapi/OneDrive/Desktop/GD32VW553/V1_MQTT_OK/GD32VW55X_Wifi_BLE_SDK/GD32VW55x_RELEASE_V1.0.2/MSDK/rtos/FreeRTOS/Source\timers.c **** /*-----------------------------------------------------------*/
 279:C:/Users/stapi/OneDrive/Desktop/GD32VW553/V1_MQTT_OK/GD32VW55X_Wifi_BLE_SDK/GD32VW55x_RELEASE_V1.0.2/MSDK/rtos/FreeRTOS/Source\timers.c **** 
 280:C:/Users/stapi/OneDrive/Desktop/GD32VW553/V1_MQTT_OK/GD32VW55X_Wifi_BLE_SDK/GD32VW55x_RELEASE_V1.0.2/MSDK/rtos/FreeRTOS/Source\timers.c **** #if( configSUPPORT_DYNAMIC_ALLOCATION == 1 )
 281:C:/Users/stapi/OneDrive/Desktop/GD32VW553/V1_MQTT_OK/GD32VW55X_Wifi_BLE_SDK/GD32VW55x_RELEASE_V1.0.2/MSDK/rtos/FreeRTOS/Source\timers.c **** 
 282:C:/Users/stapi/OneDrive/Desktop/GD32VW553/V1_MQTT_OK/GD32VW55X_Wifi_BLE_SDK/GD32VW55x_RELEASE_V1.0.2/MSDK/rtos/FreeRTOS/Source\timers.c **** 	TimerHandle_t xTimerCreate(	const char * const pcTimerName,			/*lint !e971 Unqualified char types 
 283:C:/Users/stapi/OneDrive/Desktop/GD32VW553/V1_MQTT_OK/GD32VW55X_Wifi_BLE_SDK/GD32VW55x_RELEASE_V1.0.2/MSDK/rtos/FreeRTOS/Source\timers.c **** 								const TickType_t xTimerPeriodInTicks,
 284:C:/Users/stapi/OneDrive/Desktop/GD32VW553/V1_MQTT_OK/GD32VW55X_Wifi_BLE_SDK/GD32VW55x_RELEASE_V1.0.2/MSDK/rtos/FreeRTOS/Source\timers.c **** 								const UBaseType_t uxAutoReload,
 285:C:/Users/stapi/OneDrive/Desktop/GD32VW553/V1_MQTT_OK/GD32VW55X_Wifi_BLE_SDK/GD32VW55x_RELEASE_V1.0.2/MSDK/rtos/FreeRTOS/Source\timers.c **** 								void * const pvTimerID,
 286:C:/Users/stapi/OneDrive/Desktop/GD32VW553/V1_MQTT_OK/GD32VW55X_Wifi_BLE_SDK/GD32VW55x_RELEASE_V1.0.2/MSDK/rtos/FreeRTOS/Source\timers.c **** 								TimerCallbackFunction_t pxCallbackFunction )
 287:C:/Users/stapi/OneDrive/Desktop/GD32VW553/V1_MQTT_OK/GD32VW55X_Wifi_BLE_SDK/GD32VW55x_RELEASE_V1.0.2/MSDK/rtos/FreeRTOS/Source\timers.c **** 	{
 288:C:/Users/stapi/OneDrive/Desktop/GD32VW553/V1_MQTT_OK/GD32VW55X_Wifi_BLE_SDK/GD32VW55x_RELEASE_V1.0.2/MSDK/rtos/FreeRTOS/Source\timers.c **** 	Timer_t *pxNewTimer;
 289:C:/Users/stapi/OneDrive/Desktop/GD32VW553/V1_MQTT_OK/GD32VW55X_Wifi_BLE_SDK/GD32VW55x_RELEASE_V1.0.2/MSDK/rtos/FreeRTOS/Source\timers.c **** 
 290:C:/Users/stapi/OneDrive/Desktop/GD32VW553/V1_MQTT_OK/GD32VW55X_Wifi_BLE_SDK/GD32VW55x_RELEASE_V1.0.2/MSDK/rtos/FreeRTOS/Source\timers.c **** 		pxNewTimer = ( Timer_t * ) pvPortMalloc( sizeof( Timer_t ) ); /*lint !e9087 !e9079 All values ret
 291:C:/Users/stapi/OneDrive/Desktop/GD32VW553/V1_MQTT_OK/GD32VW55X_Wifi_BLE_SDK/GD32VW55x_RELEASE_V1.0.2/MSDK/rtos/FreeRTOS/Source\timers.c **** 
 292:C:/Users/stapi/OneDrive/Desktop/GD32VW553/V1_MQTT_OK/GD32VW55X_Wifi_BLE_SDK/GD32VW55x_RELEASE_V1.0.2/MSDK/rtos/FreeRTOS/Source\timers.c **** 		if( pxNewTimer != NULL )
 293:C:/Users/stapi/OneDrive/Desktop/GD32VW553/V1_MQTT_OK/GD32VW55X_Wifi_BLE_SDK/GD32VW55x_RELEASE_V1.0.2/MSDK/rtos/FreeRTOS/Source\timers.c **** 		{
 294:C:/Users/stapi/OneDrive/Desktop/GD32VW553/V1_MQTT_OK/GD32VW55X_Wifi_BLE_SDK/GD32VW55x_RELEASE_V1.0.2/MSDK/rtos/FreeRTOS/Source\timers.c **** 			/* Status is thus far zero as the timer is not created statically
 295:C:/Users/stapi/OneDrive/Desktop/GD32VW553/V1_MQTT_OK/GD32VW55X_Wifi_BLE_SDK/GD32VW55x_RELEASE_V1.0.2/MSDK/rtos/FreeRTOS/Source\timers.c **** 			and has not been started.  The auto-reload bit may get set in
 296:C:/Users/stapi/OneDrive/Desktop/GD32VW553/V1_MQTT_OK/GD32VW55X_Wifi_BLE_SDK/GD32VW55x_RELEASE_V1.0.2/MSDK/rtos/FreeRTOS/Source\timers.c **** 			prvInitialiseNewTimer. */
 297:C:/Users/stapi/OneDrive/Desktop/GD32VW553/V1_MQTT_OK/GD32VW55X_Wifi_BLE_SDK/GD32VW55x_RELEASE_V1.0.2/MSDK/rtos/FreeRTOS/Source\timers.c **** 			pxNewTimer->ucStatus = 0x00;
 298:C:/Users/stapi/OneDrive/Desktop/GD32VW553/V1_MQTT_OK/GD32VW55X_Wifi_BLE_SDK/GD32VW55x_RELEASE_V1.0.2/MSDK/rtos/FreeRTOS/Source\timers.c **** 			prvInitialiseNewTimer( pcTimerName, xTimerPeriodInTicks, uxAutoReload, pvTimerID, pxCallbackFunc
 299:C:/Users/stapi/OneDrive/Desktop/GD32VW553/V1_MQTT_OK/GD32VW55X_Wifi_BLE_SDK/GD32VW55x_RELEASE_V1.0.2/MSDK/rtos/FreeRTOS/Source\timers.c **** 		}
 300:C:/Users/stapi/OneDrive/Desktop/GD32VW553/V1_MQTT_OK/GD32VW55X_Wifi_BLE_SDK/GD32VW55x_RELEASE_V1.0.2/MSDK/rtos/FreeRTOS/Source\timers.c **** 
 301:C:/Users/stapi/OneDrive/Desktop/GD32VW553/V1_MQTT_OK/GD32VW55X_Wifi_BLE_SDK/GD32VW55x_RELEASE_V1.0.2/MSDK/rtos/FreeRTOS/Source\timers.c **** 		return pxNewTimer;
 302:C:/Users/stapi/OneDrive/Desktop/GD32VW553/V1_MQTT_OK/GD32VW55X_Wifi_BLE_SDK/GD32VW55x_RELEASE_V1.0.2/MSDK/rtos/FreeRTOS/Source\timers.c **** 	}
 303:C:/Users/stapi/OneDrive/Desktop/GD32VW553/V1_MQTT_OK/GD32VW55X_Wifi_BLE_SDK/GD32VW55x_RELEASE_V1.0.2/MSDK/rtos/FreeRTOS/Source\timers.c **** 
 304:C:/Users/stapi/OneDrive/Desktop/GD32VW553/V1_MQTT_OK/GD32VW55X_Wifi_BLE_SDK/GD32VW55x_RELEASE_V1.0.2/MSDK/rtos/FreeRTOS/Source\timers.c **** #endif /* configSUPPORT_DYNAMIC_ALLOCATION */
 305:C:/Users/stapi/OneDrive/Desktop/GD32VW553/V1_MQTT_OK/GD32VW55X_Wifi_BLE_SDK/GD32VW55x_RELEASE_V1.0.2/MSDK/rtos/FreeRTOS/Source\timers.c **** /*-----------------------------------------------------------*/
 306:C:/Users/stapi/OneDrive/Desktop/GD32VW553/V1_MQTT_OK/GD32VW55X_Wifi_BLE_SDK/GD32VW55x_RELEASE_V1.0.2/MSDK/rtos/FreeRTOS/Source\timers.c **** 
 307:C:/Users/stapi/OneDrive/Desktop/GD32VW553/V1_MQTT_OK/GD32VW55X_Wifi_BLE_SDK/GD32VW55x_RELEASE_V1.0.2/MSDK/rtos/FreeRTOS/Source\timers.c **** #if( configSUPPORT_STATIC_ALLOCATION == 1 )
 308:C:/Users/stapi/OneDrive/Desktop/GD32VW553/V1_MQTT_OK/GD32VW55X_Wifi_BLE_SDK/GD32VW55x_RELEASE_V1.0.2/MSDK/rtos/FreeRTOS/Source\timers.c **** 
 309:C:/Users/stapi/OneDrive/Desktop/GD32VW553/V1_MQTT_OK/GD32VW55X_Wifi_BLE_SDK/GD32VW55x_RELEASE_V1.0.2/MSDK/rtos/FreeRTOS/Source\timers.c **** 	TimerHandle_t xTimerCreateStatic(	const char * const pcTimerName,		/*lint !e971 Unqualified char t
 310:C:/Users/stapi/OneDrive/Desktop/GD32VW553/V1_MQTT_OK/GD32VW55X_Wifi_BLE_SDK/GD32VW55x_RELEASE_V1.0.2/MSDK/rtos/FreeRTOS/Source\timers.c **** 										const TickType_t xTimerPeriodInTicks,
 311:C:/Users/stapi/OneDrive/Desktop/GD32VW553/V1_MQTT_OK/GD32VW55X_Wifi_BLE_SDK/GD32VW55x_RELEASE_V1.0.2/MSDK/rtos/FreeRTOS/Source\timers.c **** 										const UBaseType_t uxAutoReload,
 312:C:/Users/stapi/OneDrive/Desktop/GD32VW553/V1_MQTT_OK/GD32VW55X_Wifi_BLE_SDK/GD32VW55x_RELEASE_V1.0.2/MSDK/rtos/FreeRTOS/Source\timers.c **** 										void * const pvTimerID,
 313:C:/Users/stapi/OneDrive/Desktop/GD32VW553/V1_MQTT_OK/GD32VW55X_Wifi_BLE_SDK/GD32VW55x_RELEASE_V1.0.2/MSDK/rtos/FreeRTOS/Source\timers.c **** 										TimerCallbackFunction_t pxCallbackFunction,
 314:C:/Users/stapi/OneDrive/Desktop/GD32VW553/V1_MQTT_OK/GD32VW55X_Wifi_BLE_SDK/GD32VW55x_RELEASE_V1.0.2/MSDK/rtos/FreeRTOS/Source\timers.c **** 										StaticTimer_t *pxTimerBuffer )
 315:C:/Users/stapi/OneDrive/Desktop/GD32VW553/V1_MQTT_OK/GD32VW55X_Wifi_BLE_SDK/GD32VW55x_RELEASE_V1.0.2/MSDK/rtos/FreeRTOS/Source\timers.c **** 	{
 316:C:/Users/stapi/OneDrive/Desktop/GD32VW553/V1_MQTT_OK/GD32VW55X_Wifi_BLE_SDK/GD32VW55x_RELEASE_V1.0.2/MSDK/rtos/FreeRTOS/Source\timers.c **** 	Timer_t *pxNewTimer;
 317:C:/Users/stapi/OneDrive/Desktop/GD32VW553/V1_MQTT_OK/GD32VW55X_Wifi_BLE_SDK/GD32VW55x_RELEASE_V1.0.2/MSDK/rtos/FreeRTOS/Source\timers.c **** 
 318:C:/Users/stapi/OneDrive/Desktop/GD32VW553/V1_MQTT_OK/GD32VW55X_Wifi_BLE_SDK/GD32VW55x_RELEASE_V1.0.2/MSDK/rtos/FreeRTOS/Source\timers.c **** 		#if( configASSERT_DEFINED == 1 )
 319:C:/Users/stapi/OneDrive/Desktop/GD32VW553/V1_MQTT_OK/GD32VW55X_Wifi_BLE_SDK/GD32VW55x_RELEASE_V1.0.2/MSDK/rtos/FreeRTOS/Source\timers.c **** 		{
 320:C:/Users/stapi/OneDrive/Desktop/GD32VW553/V1_MQTT_OK/GD32VW55X_Wifi_BLE_SDK/GD32VW55x_RELEASE_V1.0.2/MSDK/rtos/FreeRTOS/Source\timers.c **** 			/* Sanity check that the size of the structure used to declare a
 321:C:/Users/stapi/OneDrive/Desktop/GD32VW553/V1_MQTT_OK/GD32VW55X_Wifi_BLE_SDK/GD32VW55x_RELEASE_V1.0.2/MSDK/rtos/FreeRTOS/Source\timers.c **** 			variable of type StaticTimer_t equals the size of the real timer
 322:C:/Users/stapi/OneDrive/Desktop/GD32VW553/V1_MQTT_OK/GD32VW55X_Wifi_BLE_SDK/GD32VW55x_RELEASE_V1.0.2/MSDK/rtos/FreeRTOS/Source\timers.c **** 			structure. */
 323:C:/Users/stapi/OneDrive/Desktop/GD32VW553/V1_MQTT_OK/GD32VW55X_Wifi_BLE_SDK/GD32VW55x_RELEASE_V1.0.2/MSDK/rtos/FreeRTOS/Source\timers.c **** 			volatile size_t xSize = sizeof( StaticTimer_t );
 324:C:/Users/stapi/OneDrive/Desktop/GD32VW553/V1_MQTT_OK/GD32VW55X_Wifi_BLE_SDK/GD32VW55x_RELEASE_V1.0.2/MSDK/rtos/FreeRTOS/Source\timers.c **** 			configASSERT( xSize == sizeof( Timer_t ) );
 325:C:/Users/stapi/OneDrive/Desktop/GD32VW553/V1_MQTT_OK/GD32VW55X_Wifi_BLE_SDK/GD32VW55x_RELEASE_V1.0.2/MSDK/rtos/FreeRTOS/Source\timers.c **** 			( void ) xSize; /* Keeps lint quiet when configASSERT() is not defined. */
 326:C:/Users/stapi/OneDrive/Desktop/GD32VW553/V1_MQTT_OK/GD32VW55X_Wifi_BLE_SDK/GD32VW55x_RELEASE_V1.0.2/MSDK/rtos/FreeRTOS/Source\timers.c **** 		}
 327:C:/Users/stapi/OneDrive/Desktop/GD32VW553/V1_MQTT_OK/GD32VW55X_Wifi_BLE_SDK/GD32VW55x_RELEASE_V1.0.2/MSDK/rtos/FreeRTOS/Source\timers.c **** 		#endif /* configASSERT_DEFINED */
 328:C:/Users/stapi/OneDrive/Desktop/GD32VW553/V1_MQTT_OK/GD32VW55X_Wifi_BLE_SDK/GD32VW55x_RELEASE_V1.0.2/MSDK/rtos/FreeRTOS/Source\timers.c **** 
 329:C:/Users/stapi/OneDrive/Desktop/GD32VW553/V1_MQTT_OK/GD32VW55X_Wifi_BLE_SDK/GD32VW55x_RELEASE_V1.0.2/MSDK/rtos/FreeRTOS/Source\timers.c **** 		/* A pointer to a StaticTimer_t structure MUST be provided, use it. */
 330:C:/Users/stapi/OneDrive/Desktop/GD32VW553/V1_MQTT_OK/GD32VW55X_Wifi_BLE_SDK/GD32VW55x_RELEASE_V1.0.2/MSDK/rtos/FreeRTOS/Source\timers.c **** 		configASSERT( pxTimerBuffer );
 331:C:/Users/stapi/OneDrive/Desktop/GD32VW553/V1_MQTT_OK/GD32VW55X_Wifi_BLE_SDK/GD32VW55x_RELEASE_V1.0.2/MSDK/rtos/FreeRTOS/Source\timers.c **** 		pxNewTimer = ( Timer_t * ) pxTimerBuffer; /*lint !e740 !e9087 StaticTimer_t is a pointer to a Tim
 332:C:/Users/stapi/OneDrive/Desktop/GD32VW553/V1_MQTT_OK/GD32VW55X_Wifi_BLE_SDK/GD32VW55x_RELEASE_V1.0.2/MSDK/rtos/FreeRTOS/Source\timers.c **** 
 333:C:/Users/stapi/OneDrive/Desktop/GD32VW553/V1_MQTT_OK/GD32VW55X_Wifi_BLE_SDK/GD32VW55x_RELEASE_V1.0.2/MSDK/rtos/FreeRTOS/Source\timers.c **** 		if( pxNewTimer != NULL )
 334:C:/Users/stapi/OneDrive/Desktop/GD32VW553/V1_MQTT_OK/GD32VW55X_Wifi_BLE_SDK/GD32VW55x_RELEASE_V1.0.2/MSDK/rtos/FreeRTOS/Source\timers.c **** 		{
 335:C:/Users/stapi/OneDrive/Desktop/GD32VW553/V1_MQTT_OK/GD32VW55X_Wifi_BLE_SDK/GD32VW55x_RELEASE_V1.0.2/MSDK/rtos/FreeRTOS/Source\timers.c **** 			/* Timers can be created statically or dynamically so note this
 336:C:/Users/stapi/OneDrive/Desktop/GD32VW553/V1_MQTT_OK/GD32VW55X_Wifi_BLE_SDK/GD32VW55x_RELEASE_V1.0.2/MSDK/rtos/FreeRTOS/Source\timers.c **** 			timer was created statically in case it is later deleted.  The
 337:C:/Users/stapi/OneDrive/Desktop/GD32VW553/V1_MQTT_OK/GD32VW55X_Wifi_BLE_SDK/GD32VW55x_RELEASE_V1.0.2/MSDK/rtos/FreeRTOS/Source\timers.c **** 			auto-reload bit may get set in prvInitialiseNewTimer(). */
 338:C:/Users/stapi/OneDrive/Desktop/GD32VW553/V1_MQTT_OK/GD32VW55X_Wifi_BLE_SDK/GD32VW55x_RELEASE_V1.0.2/MSDK/rtos/FreeRTOS/Source\timers.c **** 			pxNewTimer->ucStatus = tmrSTATUS_IS_STATICALLY_ALLOCATED;
 339:C:/Users/stapi/OneDrive/Desktop/GD32VW553/V1_MQTT_OK/GD32VW55X_Wifi_BLE_SDK/GD32VW55x_RELEASE_V1.0.2/MSDK/rtos/FreeRTOS/Source\timers.c **** 
 340:C:/Users/stapi/OneDrive/Desktop/GD32VW553/V1_MQTT_OK/GD32VW55X_Wifi_BLE_SDK/GD32VW55x_RELEASE_V1.0.2/MSDK/rtos/FreeRTOS/Source\timers.c **** 			prvInitialiseNewTimer( pcTimerName, xTimerPeriodInTicks, uxAutoReload, pvTimerID, pxCallbackFunc
 341:C:/Users/stapi/OneDrive/Desktop/GD32VW553/V1_MQTT_OK/GD32VW55X_Wifi_BLE_SDK/GD32VW55x_RELEASE_V1.0.2/MSDK/rtos/FreeRTOS/Source\timers.c **** 		}
 342:C:/Users/stapi/OneDrive/Desktop/GD32VW553/V1_MQTT_OK/GD32VW55X_Wifi_BLE_SDK/GD32VW55x_RELEASE_V1.0.2/MSDK/rtos/FreeRTOS/Source\timers.c **** 
 343:C:/Users/stapi/OneDrive/Desktop/GD32VW553/V1_MQTT_OK/GD32VW55X_Wifi_BLE_SDK/GD32VW55x_RELEASE_V1.0.2/MSDK/rtos/FreeRTOS/Source\timers.c **** 		return pxNewTimer;
 344:C:/Users/stapi/OneDrive/Desktop/GD32VW553/V1_MQTT_OK/GD32VW55X_Wifi_BLE_SDK/GD32VW55x_RELEASE_V1.0.2/MSDK/rtos/FreeRTOS/Source\timers.c **** 	}
 345:C:/Users/stapi/OneDrive/Desktop/GD32VW553/V1_MQTT_OK/GD32VW55X_Wifi_BLE_SDK/GD32VW55x_RELEASE_V1.0.2/MSDK/rtos/FreeRTOS/Source\timers.c **** 
 346:C:/Users/stapi/OneDrive/Desktop/GD32VW553/V1_MQTT_OK/GD32VW55X_Wifi_BLE_SDK/GD32VW55x_RELEASE_V1.0.2/MSDK/rtos/FreeRTOS/Source\timers.c **** #endif /* configSUPPORT_STATIC_ALLOCATION */
 347:C:/Users/stapi/OneDrive/Desktop/GD32VW553/V1_MQTT_OK/GD32VW55X_Wifi_BLE_SDK/GD32VW55x_RELEASE_V1.0.2/MSDK/rtos/FreeRTOS/Source\timers.c **** /*-----------------------------------------------------------*/
 348:C:/Users/stapi/OneDrive/Desktop/GD32VW553/V1_MQTT_OK/GD32VW55X_Wifi_BLE_SDK/GD32VW55x_RELEASE_V1.0.2/MSDK/rtos/FreeRTOS/Source\timers.c **** 
 349:C:/Users/stapi/OneDrive/Desktop/GD32VW553/V1_MQTT_OK/GD32VW55X_Wifi_BLE_SDK/GD32VW55x_RELEASE_V1.0.2/MSDK/rtos/FreeRTOS/Source\timers.c **** static void prvInitialiseNewTimer(	const char * const pcTimerName,			/*lint !e971 Unqualified char 
 350:C:/Users/stapi/OneDrive/Desktop/GD32VW553/V1_MQTT_OK/GD32VW55X_Wifi_BLE_SDK/GD32VW55x_RELEASE_V1.0.2/MSDK/rtos/FreeRTOS/Source\timers.c **** 									const TickType_t xTimerPeriodInTicks,
 351:C:/Users/stapi/OneDrive/Desktop/GD32VW553/V1_MQTT_OK/GD32VW55X_Wifi_BLE_SDK/GD32VW55x_RELEASE_V1.0.2/MSDK/rtos/FreeRTOS/Source\timers.c **** 									const UBaseType_t uxAutoReload,
 352:C:/Users/stapi/OneDrive/Desktop/GD32VW553/V1_MQTT_OK/GD32VW55X_Wifi_BLE_SDK/GD32VW55x_RELEASE_V1.0.2/MSDK/rtos/FreeRTOS/Source\timers.c **** 									void * const pvTimerID,
 353:C:/Users/stapi/OneDrive/Desktop/GD32VW553/V1_MQTT_OK/GD32VW55X_Wifi_BLE_SDK/GD32VW55x_RELEASE_V1.0.2/MSDK/rtos/FreeRTOS/Source\timers.c **** 									TimerCallbackFunction_t pxCallbackFunction,
 354:C:/Users/stapi/OneDrive/Desktop/GD32VW553/V1_MQTT_OK/GD32VW55X_Wifi_BLE_SDK/GD32VW55x_RELEASE_V1.0.2/MSDK/rtos/FreeRTOS/Source\timers.c **** 									Timer_t *pxNewTimer )
 355:C:/Users/stapi/OneDrive/Desktop/GD32VW553/V1_MQTT_OK/GD32VW55X_Wifi_BLE_SDK/GD32VW55x_RELEASE_V1.0.2/MSDK/rtos/FreeRTOS/Source\timers.c **** {
 356:C:/Users/stapi/OneDrive/Desktop/GD32VW553/V1_MQTT_OK/GD32VW55X_Wifi_BLE_SDK/GD32VW55x_RELEASE_V1.0.2/MSDK/rtos/FreeRTOS/Source\timers.c **** 	/* 0 is not a valid value for xTimerPeriodInTicks. */
 357:C:/Users/stapi/OneDrive/Desktop/GD32VW553/V1_MQTT_OK/GD32VW55X_Wifi_BLE_SDK/GD32VW55x_RELEASE_V1.0.2/MSDK/rtos/FreeRTOS/Source\timers.c **** 	configASSERT( ( xTimerPeriodInTicks > 0 ) );
 358:C:/Users/stapi/OneDrive/Desktop/GD32VW553/V1_MQTT_OK/GD32VW55X_Wifi_BLE_SDK/GD32VW55x_RELEASE_V1.0.2/MSDK/rtos/FreeRTOS/Source\timers.c **** 
 359:C:/Users/stapi/OneDrive/Desktop/GD32VW553/V1_MQTT_OK/GD32VW55X_Wifi_BLE_SDK/GD32VW55x_RELEASE_V1.0.2/MSDK/rtos/FreeRTOS/Source\timers.c **** 	if( pxNewTimer != NULL )
 360:C:/Users/stapi/OneDrive/Desktop/GD32VW553/V1_MQTT_OK/GD32VW55X_Wifi_BLE_SDK/GD32VW55x_RELEASE_V1.0.2/MSDK/rtos/FreeRTOS/Source\timers.c **** 	{
 361:C:/Users/stapi/OneDrive/Desktop/GD32VW553/V1_MQTT_OK/GD32VW55X_Wifi_BLE_SDK/GD32VW55x_RELEASE_V1.0.2/MSDK/rtos/FreeRTOS/Source\timers.c **** 		/* Ensure the infrastructure used by the timer service task has been
 362:C:/Users/stapi/OneDrive/Desktop/GD32VW553/V1_MQTT_OK/GD32VW55X_Wifi_BLE_SDK/GD32VW55x_RELEASE_V1.0.2/MSDK/rtos/FreeRTOS/Source\timers.c **** 		created/initialised. */
 363:C:/Users/stapi/OneDrive/Desktop/GD32VW553/V1_MQTT_OK/GD32VW55X_Wifi_BLE_SDK/GD32VW55x_RELEASE_V1.0.2/MSDK/rtos/FreeRTOS/Source\timers.c **** 		prvCheckForValidListAndQueue();
 364:C:/Users/stapi/OneDrive/Desktop/GD32VW553/V1_MQTT_OK/GD32VW55X_Wifi_BLE_SDK/GD32VW55x_RELEASE_V1.0.2/MSDK/rtos/FreeRTOS/Source\timers.c **** 
 365:C:/Users/stapi/OneDrive/Desktop/GD32VW553/V1_MQTT_OK/GD32VW55X_Wifi_BLE_SDK/GD32VW55x_RELEASE_V1.0.2/MSDK/rtos/FreeRTOS/Source\timers.c **** 		/* Initialise the timer structure members using the function
 366:C:/Users/stapi/OneDrive/Desktop/GD32VW553/V1_MQTT_OK/GD32VW55X_Wifi_BLE_SDK/GD32VW55x_RELEASE_V1.0.2/MSDK/rtos/FreeRTOS/Source\timers.c **** 		parameters. */
 367:C:/Users/stapi/OneDrive/Desktop/GD32VW553/V1_MQTT_OK/GD32VW55X_Wifi_BLE_SDK/GD32VW55x_RELEASE_V1.0.2/MSDK/rtos/FreeRTOS/Source\timers.c **** 		pxNewTimer->pcTimerName = pcTimerName;
 368:C:/Users/stapi/OneDrive/Desktop/GD32VW553/V1_MQTT_OK/GD32VW55X_Wifi_BLE_SDK/GD32VW55x_RELEASE_V1.0.2/MSDK/rtos/FreeRTOS/Source\timers.c **** 		pxNewTimer->xTimerPeriodInTicks = xTimerPeriodInTicks;
 369:C:/Users/stapi/OneDrive/Desktop/GD32VW553/V1_MQTT_OK/GD32VW55X_Wifi_BLE_SDK/GD32VW55x_RELEASE_V1.0.2/MSDK/rtos/FreeRTOS/Source\timers.c **** 		pxNewTimer->pvTimerID = pvTimerID;
 370:C:/Users/stapi/OneDrive/Desktop/GD32VW553/V1_MQTT_OK/GD32VW55X_Wifi_BLE_SDK/GD32VW55x_RELEASE_V1.0.2/MSDK/rtos/FreeRTOS/Source\timers.c **** 		pxNewTimer->pxCallbackFunction = pxCallbackFunction;
 371:C:/Users/stapi/OneDrive/Desktop/GD32VW553/V1_MQTT_OK/GD32VW55X_Wifi_BLE_SDK/GD32VW55x_RELEASE_V1.0.2/MSDK/rtos/FreeRTOS/Source\timers.c **** 		vListInitialiseItem( &( pxNewTimer->xTimerListItem ) );
 372:C:/Users/stapi/OneDrive/Desktop/GD32VW553/V1_MQTT_OK/GD32VW55X_Wifi_BLE_SDK/GD32VW55x_RELEASE_V1.0.2/MSDK/rtos/FreeRTOS/Source\timers.c **** 		if( uxAutoReload != pdFALSE )
 373:C:/Users/stapi/OneDrive/Desktop/GD32VW553/V1_MQTT_OK/GD32VW55X_Wifi_BLE_SDK/GD32VW55x_RELEASE_V1.0.2/MSDK/rtos/FreeRTOS/Source\timers.c **** 		{
 374:C:/Users/stapi/OneDrive/Desktop/GD32VW553/V1_MQTT_OK/GD32VW55X_Wifi_BLE_SDK/GD32VW55x_RELEASE_V1.0.2/MSDK/rtos/FreeRTOS/Source\timers.c **** 			pxNewTimer->ucStatus |= tmrSTATUS_IS_AUTORELOAD;
 375:C:/Users/stapi/OneDrive/Desktop/GD32VW553/V1_MQTT_OK/GD32VW55X_Wifi_BLE_SDK/GD32VW55x_RELEASE_V1.0.2/MSDK/rtos/FreeRTOS/Source\timers.c **** 		}
 376:C:/Users/stapi/OneDrive/Desktop/GD32VW553/V1_MQTT_OK/GD32VW55X_Wifi_BLE_SDK/GD32VW55x_RELEASE_V1.0.2/MSDK/rtos/FreeRTOS/Source\timers.c **** 		traceTIMER_CREATE( pxNewTimer );
 377:C:/Users/stapi/OneDrive/Desktop/GD32VW553/V1_MQTT_OK/GD32VW55X_Wifi_BLE_SDK/GD32VW55x_RELEASE_V1.0.2/MSDK/rtos/FreeRTOS/Source\timers.c **** 	}
 378:C:/Users/stapi/OneDrive/Desktop/GD32VW553/V1_MQTT_OK/GD32VW55X_Wifi_BLE_SDK/GD32VW55x_RELEASE_V1.0.2/MSDK/rtos/FreeRTOS/Source\timers.c **** }
 379:C:/Users/stapi/OneDrive/Desktop/GD32VW553/V1_MQTT_OK/GD32VW55X_Wifi_BLE_SDK/GD32VW55x_RELEASE_V1.0.2/MSDK/rtos/FreeRTOS/Source\timers.c **** /*-----------------------------------------------------------*/
 380:C:/Users/stapi/OneDrive/Desktop/GD32VW553/V1_MQTT_OK/GD32VW55X_Wifi_BLE_SDK/GD32VW55x_RELEASE_V1.0.2/MSDK/rtos/FreeRTOS/Source\timers.c **** 
 381:C:/Users/stapi/OneDrive/Desktop/GD32VW553/V1_MQTT_OK/GD32VW55X_Wifi_BLE_SDK/GD32VW55x_RELEASE_V1.0.2/MSDK/rtos/FreeRTOS/Source\timers.c **** BaseType_t xTimerGenericCommand( TimerHandle_t xTimer, const BaseType_t xCommandID, const TickType_
 382:C:/Users/stapi/OneDrive/Desktop/GD32VW553/V1_MQTT_OK/GD32VW55X_Wifi_BLE_SDK/GD32VW55x_RELEASE_V1.0.2/MSDK/rtos/FreeRTOS/Source\timers.c **** {
 383:C:/Users/stapi/OneDrive/Desktop/GD32VW553/V1_MQTT_OK/GD32VW55X_Wifi_BLE_SDK/GD32VW55x_RELEASE_V1.0.2/MSDK/rtos/FreeRTOS/Source\timers.c **** BaseType_t xReturn = pdFAIL;
 384:C:/Users/stapi/OneDrive/Desktop/GD32VW553/V1_MQTT_OK/GD32VW55X_Wifi_BLE_SDK/GD32VW55x_RELEASE_V1.0.2/MSDK/rtos/FreeRTOS/Source\timers.c **** DaemonTaskMessage_t xMessage;
 385:C:/Users/stapi/OneDrive/Desktop/GD32VW553/V1_MQTT_OK/GD32VW55X_Wifi_BLE_SDK/GD32VW55x_RELEASE_V1.0.2/MSDK/rtos/FreeRTOS/Source\timers.c **** 
 386:C:/Users/stapi/OneDrive/Desktop/GD32VW553/V1_MQTT_OK/GD32VW55X_Wifi_BLE_SDK/GD32VW55x_RELEASE_V1.0.2/MSDK/rtos/FreeRTOS/Source\timers.c **** 	configASSERT( xTimer );
 387:C:/Users/stapi/OneDrive/Desktop/GD32VW553/V1_MQTT_OK/GD32VW55X_Wifi_BLE_SDK/GD32VW55x_RELEASE_V1.0.2/MSDK/rtos/FreeRTOS/Source\timers.c **** 
 388:C:/Users/stapi/OneDrive/Desktop/GD32VW553/V1_MQTT_OK/GD32VW55X_Wifi_BLE_SDK/GD32VW55x_RELEASE_V1.0.2/MSDK/rtos/FreeRTOS/Source\timers.c **** 	/* Send a message to the timer service task to perform a particular action
 389:C:/Users/stapi/OneDrive/Desktop/GD32VW553/V1_MQTT_OK/GD32VW55X_Wifi_BLE_SDK/GD32VW55x_RELEASE_V1.0.2/MSDK/rtos/FreeRTOS/Source\timers.c **** 	on a particular timer definition. */
 390:C:/Users/stapi/OneDrive/Desktop/GD32VW553/V1_MQTT_OK/GD32VW55X_Wifi_BLE_SDK/GD32VW55x_RELEASE_V1.0.2/MSDK/rtos/FreeRTOS/Source\timers.c **** 	if( xTimerQueue != NULL )
 391:C:/Users/stapi/OneDrive/Desktop/GD32VW553/V1_MQTT_OK/GD32VW55X_Wifi_BLE_SDK/GD32VW55x_RELEASE_V1.0.2/MSDK/rtos/FreeRTOS/Source\timers.c **** 	{
 392:C:/Users/stapi/OneDrive/Desktop/GD32VW553/V1_MQTT_OK/GD32VW55X_Wifi_BLE_SDK/GD32VW55x_RELEASE_V1.0.2/MSDK/rtos/FreeRTOS/Source\timers.c **** 		/* Send a command to the timer service task to start the xTimer timer. */
 393:C:/Users/stapi/OneDrive/Desktop/GD32VW553/V1_MQTT_OK/GD32VW55X_Wifi_BLE_SDK/GD32VW55x_RELEASE_V1.0.2/MSDK/rtos/FreeRTOS/Source\timers.c **** 		xMessage.xMessageID = xCommandID;
 394:C:/Users/stapi/OneDrive/Desktop/GD32VW553/V1_MQTT_OK/GD32VW55X_Wifi_BLE_SDK/GD32VW55x_RELEASE_V1.0.2/MSDK/rtos/FreeRTOS/Source\timers.c **** 		xMessage.u.xTimerParameters.xMessageValue = xOptionalValue;
 395:C:/Users/stapi/OneDrive/Desktop/GD32VW553/V1_MQTT_OK/GD32VW55X_Wifi_BLE_SDK/GD32VW55x_RELEASE_V1.0.2/MSDK/rtos/FreeRTOS/Source\timers.c **** 		xMessage.u.xTimerParameters.pxTimer = xTimer;
 396:C:/Users/stapi/OneDrive/Desktop/GD32VW553/V1_MQTT_OK/GD32VW55X_Wifi_BLE_SDK/GD32VW55x_RELEASE_V1.0.2/MSDK/rtos/FreeRTOS/Source\timers.c **** 
 397:C:/Users/stapi/OneDrive/Desktop/GD32VW553/V1_MQTT_OK/GD32VW55X_Wifi_BLE_SDK/GD32VW55x_RELEASE_V1.0.2/MSDK/rtos/FreeRTOS/Source\timers.c **** 		if( xCommandID < tmrFIRST_FROM_ISR_COMMAND )
 398:C:/Users/stapi/OneDrive/Desktop/GD32VW553/V1_MQTT_OK/GD32VW55X_Wifi_BLE_SDK/GD32VW55x_RELEASE_V1.0.2/MSDK/rtos/FreeRTOS/Source\timers.c **** 		{
 399:C:/Users/stapi/OneDrive/Desktop/GD32VW553/V1_MQTT_OK/GD32VW55X_Wifi_BLE_SDK/GD32VW55x_RELEASE_V1.0.2/MSDK/rtos/FreeRTOS/Source\timers.c **** 			if( xTaskGetSchedulerState() == taskSCHEDULER_RUNNING )
 400:C:/Users/stapi/OneDrive/Desktop/GD32VW553/V1_MQTT_OK/GD32VW55X_Wifi_BLE_SDK/GD32VW55x_RELEASE_V1.0.2/MSDK/rtos/FreeRTOS/Source\timers.c **** 			{
 401:C:/Users/stapi/OneDrive/Desktop/GD32VW553/V1_MQTT_OK/GD32VW55X_Wifi_BLE_SDK/GD32VW55x_RELEASE_V1.0.2/MSDK/rtos/FreeRTOS/Source\timers.c **** 				xReturn = xQueueSendToBack( xTimerQueue, &xMessage, xTicksToWait );
 402:C:/Users/stapi/OneDrive/Desktop/GD32VW553/V1_MQTT_OK/GD32VW55X_Wifi_BLE_SDK/GD32VW55x_RELEASE_V1.0.2/MSDK/rtos/FreeRTOS/Source\timers.c **** 			}
 403:C:/Users/stapi/OneDrive/Desktop/GD32VW553/V1_MQTT_OK/GD32VW55X_Wifi_BLE_SDK/GD32VW55x_RELEASE_V1.0.2/MSDK/rtos/FreeRTOS/Source\timers.c **** 			else
 404:C:/Users/stapi/OneDrive/Desktop/GD32VW553/V1_MQTT_OK/GD32VW55X_Wifi_BLE_SDK/GD32VW55x_RELEASE_V1.0.2/MSDK/rtos/FreeRTOS/Source\timers.c **** 			{
 405:C:/Users/stapi/OneDrive/Desktop/GD32VW553/V1_MQTT_OK/GD32VW55X_Wifi_BLE_SDK/GD32VW55x_RELEASE_V1.0.2/MSDK/rtos/FreeRTOS/Source\timers.c **** 				xReturn = xQueueSendToBack( xTimerQueue, &xMessage, tmrNO_DELAY );
 406:C:/Users/stapi/OneDrive/Desktop/GD32VW553/V1_MQTT_OK/GD32VW55X_Wifi_BLE_SDK/GD32VW55x_RELEASE_V1.0.2/MSDK/rtos/FreeRTOS/Source\timers.c **** 			}
 407:C:/Users/stapi/OneDrive/Desktop/GD32VW553/V1_MQTT_OK/GD32VW55X_Wifi_BLE_SDK/GD32VW55x_RELEASE_V1.0.2/MSDK/rtos/FreeRTOS/Source\timers.c **** 		}
 408:C:/Users/stapi/OneDrive/Desktop/GD32VW553/V1_MQTT_OK/GD32VW55X_Wifi_BLE_SDK/GD32VW55x_RELEASE_V1.0.2/MSDK/rtos/FreeRTOS/Source\timers.c **** 		else
 409:C:/Users/stapi/OneDrive/Desktop/GD32VW553/V1_MQTT_OK/GD32VW55X_Wifi_BLE_SDK/GD32VW55x_RELEASE_V1.0.2/MSDK/rtos/FreeRTOS/Source\timers.c **** 		{
 410:C:/Users/stapi/OneDrive/Desktop/GD32VW553/V1_MQTT_OK/GD32VW55X_Wifi_BLE_SDK/GD32VW55x_RELEASE_V1.0.2/MSDK/rtos/FreeRTOS/Source\timers.c **** 			xReturn = xQueueSendToBackFromISR( xTimerQueue, &xMessage, pxHigherPriorityTaskWoken );
 411:C:/Users/stapi/OneDrive/Desktop/GD32VW553/V1_MQTT_OK/GD32VW55X_Wifi_BLE_SDK/GD32VW55x_RELEASE_V1.0.2/MSDK/rtos/FreeRTOS/Source\timers.c **** 		}
 412:C:/Users/stapi/OneDrive/Desktop/GD32VW553/V1_MQTT_OK/GD32VW55X_Wifi_BLE_SDK/GD32VW55x_RELEASE_V1.0.2/MSDK/rtos/FreeRTOS/Source\timers.c **** 
 413:C:/Users/stapi/OneDrive/Desktop/GD32VW553/V1_MQTT_OK/GD32VW55X_Wifi_BLE_SDK/GD32VW55x_RELEASE_V1.0.2/MSDK/rtos/FreeRTOS/Source\timers.c **** 		traceTIMER_COMMAND_SEND( xTimer, xCommandID, xOptionalValue, xReturn );
 414:C:/Users/stapi/OneDrive/Desktop/GD32VW553/V1_MQTT_OK/GD32VW55X_Wifi_BLE_SDK/GD32VW55x_RELEASE_V1.0.2/MSDK/rtos/FreeRTOS/Source\timers.c **** 	}
 415:C:/Users/stapi/OneDrive/Desktop/GD32VW553/V1_MQTT_OK/GD32VW55X_Wifi_BLE_SDK/GD32VW55x_RELEASE_V1.0.2/MSDK/rtos/FreeRTOS/Source\timers.c **** 	else
 416:C:/Users/stapi/OneDrive/Desktop/GD32VW553/V1_MQTT_OK/GD32VW55X_Wifi_BLE_SDK/GD32VW55x_RELEASE_V1.0.2/MSDK/rtos/FreeRTOS/Source\timers.c **** 	{
 417:C:/Users/stapi/OneDrive/Desktop/GD32VW553/V1_MQTT_OK/GD32VW55X_Wifi_BLE_SDK/GD32VW55x_RELEASE_V1.0.2/MSDK/rtos/FreeRTOS/Source\timers.c **** 		mtCOVERAGE_TEST_MARKER();
 418:C:/Users/stapi/OneDrive/Desktop/GD32VW553/V1_MQTT_OK/GD32VW55X_Wifi_BLE_SDK/GD32VW55x_RELEASE_V1.0.2/MSDK/rtos/FreeRTOS/Source\timers.c **** 	}
 419:C:/Users/stapi/OneDrive/Desktop/GD32VW553/V1_MQTT_OK/GD32VW55X_Wifi_BLE_SDK/GD32VW55x_RELEASE_V1.0.2/MSDK/rtos/FreeRTOS/Source\timers.c **** 
 420:C:/Users/stapi/OneDrive/Desktop/GD32VW553/V1_MQTT_OK/GD32VW55X_Wifi_BLE_SDK/GD32VW55x_RELEASE_V1.0.2/MSDK/rtos/FreeRTOS/Source\timers.c **** 	return xReturn;
 421:C:/Users/stapi/OneDrive/Desktop/GD32VW553/V1_MQTT_OK/GD32VW55X_Wifi_BLE_SDK/GD32VW55x_RELEASE_V1.0.2/MSDK/rtos/FreeRTOS/Source\timers.c **** }
 422:C:/Users/stapi/OneDrive/Desktop/GD32VW553/V1_MQTT_OK/GD32VW55X_Wifi_BLE_SDK/GD32VW55x_RELEASE_V1.0.2/MSDK/rtos/FreeRTOS/Source\timers.c **** /*-----------------------------------------------------------*/
 423:C:/Users/stapi/OneDrive/Desktop/GD32VW553/V1_MQTT_OK/GD32VW55X_Wifi_BLE_SDK/GD32VW55x_RELEASE_V1.0.2/MSDK/rtos/FreeRTOS/Source\timers.c **** 
 424:C:/Users/stapi/OneDrive/Desktop/GD32VW553/V1_MQTT_OK/GD32VW55X_Wifi_BLE_SDK/GD32VW55x_RELEASE_V1.0.2/MSDK/rtos/FreeRTOS/Source\timers.c **** TaskHandle_t xTimerGetTimerDaemonTaskHandle( void )
 425:C:/Users/stapi/OneDrive/Desktop/GD32VW553/V1_MQTT_OK/GD32VW55X_Wifi_BLE_SDK/GD32VW55x_RELEASE_V1.0.2/MSDK/rtos/FreeRTOS/Source\timers.c **** {
 426:C:/Users/stapi/OneDrive/Desktop/GD32VW553/V1_MQTT_OK/GD32VW55X_Wifi_BLE_SDK/GD32VW55x_RELEASE_V1.0.2/MSDK/rtos/FreeRTOS/Source\timers.c **** 	/* If xTimerGetTimerDaemonTaskHandle() is called before the scheduler has been
 427:C:/Users/stapi/OneDrive/Desktop/GD32VW553/V1_MQTT_OK/GD32VW55X_Wifi_BLE_SDK/GD32VW55x_RELEASE_V1.0.2/MSDK/rtos/FreeRTOS/Source\timers.c **** 	started, then xTimerTaskHandle will be NULL. */
 428:C:/Users/stapi/OneDrive/Desktop/GD32VW553/V1_MQTT_OK/GD32VW55X_Wifi_BLE_SDK/GD32VW55x_RELEASE_V1.0.2/MSDK/rtos/FreeRTOS/Source\timers.c **** 	configASSERT( ( xTimerTaskHandle != NULL ) );
 429:C:/Users/stapi/OneDrive/Desktop/GD32VW553/V1_MQTT_OK/GD32VW55X_Wifi_BLE_SDK/GD32VW55x_RELEASE_V1.0.2/MSDK/rtos/FreeRTOS/Source\timers.c **** 	return xTimerTaskHandle;
 430:C:/Users/stapi/OneDrive/Desktop/GD32VW553/V1_MQTT_OK/GD32VW55X_Wifi_BLE_SDK/GD32VW55x_RELEASE_V1.0.2/MSDK/rtos/FreeRTOS/Source\timers.c **** }
 431:C:/Users/stapi/OneDrive/Desktop/GD32VW553/V1_MQTT_OK/GD32VW55X_Wifi_BLE_SDK/GD32VW55x_RELEASE_V1.0.2/MSDK/rtos/FreeRTOS/Source\timers.c **** /*-----------------------------------------------------------*/
 432:C:/Users/stapi/OneDrive/Desktop/GD32VW553/V1_MQTT_OK/GD32VW55X_Wifi_BLE_SDK/GD32VW55x_RELEASE_V1.0.2/MSDK/rtos/FreeRTOS/Source\timers.c **** 
 433:C:/Users/stapi/OneDrive/Desktop/GD32VW553/V1_MQTT_OK/GD32VW55X_Wifi_BLE_SDK/GD32VW55x_RELEASE_V1.0.2/MSDK/rtos/FreeRTOS/Source\timers.c **** TickType_t xTimerGetPeriod( TimerHandle_t xTimer )
 434:C:/Users/stapi/OneDrive/Desktop/GD32VW553/V1_MQTT_OK/GD32VW55X_Wifi_BLE_SDK/GD32VW55x_RELEASE_V1.0.2/MSDK/rtos/FreeRTOS/Source\timers.c **** {
 435:C:/Users/stapi/OneDrive/Desktop/GD32VW553/V1_MQTT_OK/GD32VW55X_Wifi_BLE_SDK/GD32VW55x_RELEASE_V1.0.2/MSDK/rtos/FreeRTOS/Source\timers.c **** Timer_t *pxTimer = xTimer;
 436:C:/Users/stapi/OneDrive/Desktop/GD32VW553/V1_MQTT_OK/GD32VW55X_Wifi_BLE_SDK/GD32VW55x_RELEASE_V1.0.2/MSDK/rtos/FreeRTOS/Source\timers.c **** 
 437:C:/Users/stapi/OneDrive/Desktop/GD32VW553/V1_MQTT_OK/GD32VW55X_Wifi_BLE_SDK/GD32VW55x_RELEASE_V1.0.2/MSDK/rtos/FreeRTOS/Source\timers.c **** 	configASSERT( xTimer );
 438:C:/Users/stapi/OneDrive/Desktop/GD32VW553/V1_MQTT_OK/GD32VW55X_Wifi_BLE_SDK/GD32VW55x_RELEASE_V1.0.2/MSDK/rtos/FreeRTOS/Source\timers.c **** 	return pxTimer->xTimerPeriodInTicks;
 439:C:/Users/stapi/OneDrive/Desktop/GD32VW553/V1_MQTT_OK/GD32VW55X_Wifi_BLE_SDK/GD32VW55x_RELEASE_V1.0.2/MSDK/rtos/FreeRTOS/Source\timers.c **** }
 440:C:/Users/stapi/OneDrive/Desktop/GD32VW553/V1_MQTT_OK/GD32VW55X_Wifi_BLE_SDK/GD32VW55x_RELEASE_V1.0.2/MSDK/rtos/FreeRTOS/Source\timers.c **** /*-----------------------------------------------------------*/
 441:C:/Users/stapi/OneDrive/Desktop/GD32VW553/V1_MQTT_OK/GD32VW55X_Wifi_BLE_SDK/GD32VW55x_RELEASE_V1.0.2/MSDK/rtos/FreeRTOS/Source\timers.c **** 
 442:C:/Users/stapi/OneDrive/Desktop/GD32VW553/V1_MQTT_OK/GD32VW55X_Wifi_BLE_SDK/GD32VW55x_RELEASE_V1.0.2/MSDK/rtos/FreeRTOS/Source\timers.c **** void vTimerSetReloadMode( TimerHandle_t xTimer, const UBaseType_t uxAutoReload )
 443:C:/Users/stapi/OneDrive/Desktop/GD32VW553/V1_MQTT_OK/GD32VW55X_Wifi_BLE_SDK/GD32VW55x_RELEASE_V1.0.2/MSDK/rtos/FreeRTOS/Source\timers.c **** {
 444:C:/Users/stapi/OneDrive/Desktop/GD32VW553/V1_MQTT_OK/GD32VW55X_Wifi_BLE_SDK/GD32VW55x_RELEASE_V1.0.2/MSDK/rtos/FreeRTOS/Source\timers.c **** Timer_t * pxTimer =  xTimer;
 445:C:/Users/stapi/OneDrive/Desktop/GD32VW553/V1_MQTT_OK/GD32VW55X_Wifi_BLE_SDK/GD32VW55x_RELEASE_V1.0.2/MSDK/rtos/FreeRTOS/Source\timers.c **** 
 446:C:/Users/stapi/OneDrive/Desktop/GD32VW553/V1_MQTT_OK/GD32VW55X_Wifi_BLE_SDK/GD32VW55x_RELEASE_V1.0.2/MSDK/rtos/FreeRTOS/Source\timers.c **** 	configASSERT( xTimer );
 447:C:/Users/stapi/OneDrive/Desktop/GD32VW553/V1_MQTT_OK/GD32VW55X_Wifi_BLE_SDK/GD32VW55x_RELEASE_V1.0.2/MSDK/rtos/FreeRTOS/Source\timers.c **** 	taskENTER_CRITICAL();
 448:C:/Users/stapi/OneDrive/Desktop/GD32VW553/V1_MQTT_OK/GD32VW55X_Wifi_BLE_SDK/GD32VW55x_RELEASE_V1.0.2/MSDK/rtos/FreeRTOS/Source\timers.c **** 	{
 449:C:/Users/stapi/OneDrive/Desktop/GD32VW553/V1_MQTT_OK/GD32VW55X_Wifi_BLE_SDK/GD32VW55x_RELEASE_V1.0.2/MSDK/rtos/FreeRTOS/Source\timers.c **** 		if( uxAutoReload != pdFALSE )
 450:C:/Users/stapi/OneDrive/Desktop/GD32VW553/V1_MQTT_OK/GD32VW55X_Wifi_BLE_SDK/GD32VW55x_RELEASE_V1.0.2/MSDK/rtos/FreeRTOS/Source\timers.c **** 		{
 451:C:/Users/stapi/OneDrive/Desktop/GD32VW553/V1_MQTT_OK/GD32VW55X_Wifi_BLE_SDK/GD32VW55x_RELEASE_V1.0.2/MSDK/rtos/FreeRTOS/Source\timers.c **** 			pxTimer->ucStatus |= tmrSTATUS_IS_AUTORELOAD;
 452:C:/Users/stapi/OneDrive/Desktop/GD32VW553/V1_MQTT_OK/GD32VW55X_Wifi_BLE_SDK/GD32VW55x_RELEASE_V1.0.2/MSDK/rtos/FreeRTOS/Source\timers.c **** 		}
 453:C:/Users/stapi/OneDrive/Desktop/GD32VW553/V1_MQTT_OK/GD32VW55X_Wifi_BLE_SDK/GD32VW55x_RELEASE_V1.0.2/MSDK/rtos/FreeRTOS/Source\timers.c **** 		else
 454:C:/Users/stapi/OneDrive/Desktop/GD32VW553/V1_MQTT_OK/GD32VW55X_Wifi_BLE_SDK/GD32VW55x_RELEASE_V1.0.2/MSDK/rtos/FreeRTOS/Source\timers.c **** 		{
 455:C:/Users/stapi/OneDrive/Desktop/GD32VW553/V1_MQTT_OK/GD32VW55X_Wifi_BLE_SDK/GD32VW55x_RELEASE_V1.0.2/MSDK/rtos/FreeRTOS/Source\timers.c **** 			pxTimer->ucStatus &= ~tmrSTATUS_IS_AUTORELOAD;
 456:C:/Users/stapi/OneDrive/Desktop/GD32VW553/V1_MQTT_OK/GD32VW55X_Wifi_BLE_SDK/GD32VW55x_RELEASE_V1.0.2/MSDK/rtos/FreeRTOS/Source\timers.c **** 		}
 457:C:/Users/stapi/OneDrive/Desktop/GD32VW553/V1_MQTT_OK/GD32VW55X_Wifi_BLE_SDK/GD32VW55x_RELEASE_V1.0.2/MSDK/rtos/FreeRTOS/Source\timers.c **** 	}
 458:C:/Users/stapi/OneDrive/Desktop/GD32VW553/V1_MQTT_OK/GD32VW55X_Wifi_BLE_SDK/GD32VW55x_RELEASE_V1.0.2/MSDK/rtos/FreeRTOS/Source\timers.c **** 	taskEXIT_CRITICAL();
 459:C:/Users/stapi/OneDrive/Desktop/GD32VW553/V1_MQTT_OK/GD32VW55X_Wifi_BLE_SDK/GD32VW55x_RELEASE_V1.0.2/MSDK/rtos/FreeRTOS/Source\timers.c **** }
 460:C:/Users/stapi/OneDrive/Desktop/GD32VW553/V1_MQTT_OK/GD32VW55X_Wifi_BLE_SDK/GD32VW55x_RELEASE_V1.0.2/MSDK/rtos/FreeRTOS/Source\timers.c **** /*-----------------------------------------------------------*/
 461:C:/Users/stapi/OneDrive/Desktop/GD32VW553/V1_MQTT_OK/GD32VW55X_Wifi_BLE_SDK/GD32VW55x_RELEASE_V1.0.2/MSDK/rtos/FreeRTOS/Source\timers.c **** 
 462:C:/Users/stapi/OneDrive/Desktop/GD32VW553/V1_MQTT_OK/GD32VW55X_Wifi_BLE_SDK/GD32VW55x_RELEASE_V1.0.2/MSDK/rtos/FreeRTOS/Source\timers.c **** UBaseType_t uxTimerGetReloadMode( TimerHandle_t xTimer )
 463:C:/Users/stapi/OneDrive/Desktop/GD32VW553/V1_MQTT_OK/GD32VW55X_Wifi_BLE_SDK/GD32VW55x_RELEASE_V1.0.2/MSDK/rtos/FreeRTOS/Source\timers.c **** {
 464:C:/Users/stapi/OneDrive/Desktop/GD32VW553/V1_MQTT_OK/GD32VW55X_Wifi_BLE_SDK/GD32VW55x_RELEASE_V1.0.2/MSDK/rtos/FreeRTOS/Source\timers.c **** Timer_t * pxTimer =  xTimer;
 465:C:/Users/stapi/OneDrive/Desktop/GD32VW553/V1_MQTT_OK/GD32VW55X_Wifi_BLE_SDK/GD32VW55x_RELEASE_V1.0.2/MSDK/rtos/FreeRTOS/Source\timers.c **** UBaseType_t uxReturn;
 466:C:/Users/stapi/OneDrive/Desktop/GD32VW553/V1_MQTT_OK/GD32VW55X_Wifi_BLE_SDK/GD32VW55x_RELEASE_V1.0.2/MSDK/rtos/FreeRTOS/Source\timers.c **** 
 467:C:/Users/stapi/OneDrive/Desktop/GD32VW553/V1_MQTT_OK/GD32VW55X_Wifi_BLE_SDK/GD32VW55x_RELEASE_V1.0.2/MSDK/rtos/FreeRTOS/Source\timers.c **** 	configASSERT( xTimer );
 468:C:/Users/stapi/OneDrive/Desktop/GD32VW553/V1_MQTT_OK/GD32VW55X_Wifi_BLE_SDK/GD32VW55x_RELEASE_V1.0.2/MSDK/rtos/FreeRTOS/Source\timers.c **** 	taskENTER_CRITICAL();
 469:C:/Users/stapi/OneDrive/Desktop/GD32VW553/V1_MQTT_OK/GD32VW55X_Wifi_BLE_SDK/GD32VW55x_RELEASE_V1.0.2/MSDK/rtos/FreeRTOS/Source\timers.c **** 	{
 470:C:/Users/stapi/OneDrive/Desktop/GD32VW553/V1_MQTT_OK/GD32VW55X_Wifi_BLE_SDK/GD32VW55x_RELEASE_V1.0.2/MSDK/rtos/FreeRTOS/Source\timers.c **** 		if( ( pxTimer->ucStatus & tmrSTATUS_IS_AUTORELOAD ) == 0 )
 471:C:/Users/stapi/OneDrive/Desktop/GD32VW553/V1_MQTT_OK/GD32VW55X_Wifi_BLE_SDK/GD32VW55x_RELEASE_V1.0.2/MSDK/rtos/FreeRTOS/Source\timers.c **** 		{
 472:C:/Users/stapi/OneDrive/Desktop/GD32VW553/V1_MQTT_OK/GD32VW55X_Wifi_BLE_SDK/GD32VW55x_RELEASE_V1.0.2/MSDK/rtos/FreeRTOS/Source\timers.c **** 			/* Not an auto-reload timer. */
 473:C:/Users/stapi/OneDrive/Desktop/GD32VW553/V1_MQTT_OK/GD32VW55X_Wifi_BLE_SDK/GD32VW55x_RELEASE_V1.0.2/MSDK/rtos/FreeRTOS/Source\timers.c **** 			uxReturn = ( UBaseType_t ) pdFALSE;
 474:C:/Users/stapi/OneDrive/Desktop/GD32VW553/V1_MQTT_OK/GD32VW55X_Wifi_BLE_SDK/GD32VW55x_RELEASE_V1.0.2/MSDK/rtos/FreeRTOS/Source\timers.c **** 		}
 475:C:/Users/stapi/OneDrive/Desktop/GD32VW553/V1_MQTT_OK/GD32VW55X_Wifi_BLE_SDK/GD32VW55x_RELEASE_V1.0.2/MSDK/rtos/FreeRTOS/Source\timers.c **** 		else
 476:C:/Users/stapi/OneDrive/Desktop/GD32VW553/V1_MQTT_OK/GD32VW55X_Wifi_BLE_SDK/GD32VW55x_RELEASE_V1.0.2/MSDK/rtos/FreeRTOS/Source\timers.c **** 		{
 477:C:/Users/stapi/OneDrive/Desktop/GD32VW553/V1_MQTT_OK/GD32VW55X_Wifi_BLE_SDK/GD32VW55x_RELEASE_V1.0.2/MSDK/rtos/FreeRTOS/Source\timers.c **** 			/* Is an auto-reload timer. */
 478:C:/Users/stapi/OneDrive/Desktop/GD32VW553/V1_MQTT_OK/GD32VW55X_Wifi_BLE_SDK/GD32VW55x_RELEASE_V1.0.2/MSDK/rtos/FreeRTOS/Source\timers.c **** 			uxReturn = ( UBaseType_t ) pdTRUE;
 479:C:/Users/stapi/OneDrive/Desktop/GD32VW553/V1_MQTT_OK/GD32VW55X_Wifi_BLE_SDK/GD32VW55x_RELEASE_V1.0.2/MSDK/rtos/FreeRTOS/Source\timers.c **** 		}
 480:C:/Users/stapi/OneDrive/Desktop/GD32VW553/V1_MQTT_OK/GD32VW55X_Wifi_BLE_SDK/GD32VW55x_RELEASE_V1.0.2/MSDK/rtos/FreeRTOS/Source\timers.c **** 	}
 481:C:/Users/stapi/OneDrive/Desktop/GD32VW553/V1_MQTT_OK/GD32VW55X_Wifi_BLE_SDK/GD32VW55x_RELEASE_V1.0.2/MSDK/rtos/FreeRTOS/Source\timers.c **** 	taskEXIT_CRITICAL();
 482:C:/Users/stapi/OneDrive/Desktop/GD32VW553/V1_MQTT_OK/GD32VW55X_Wifi_BLE_SDK/GD32VW55x_RELEASE_V1.0.2/MSDK/rtos/FreeRTOS/Source\timers.c **** 
 483:C:/Users/stapi/OneDrive/Desktop/GD32VW553/V1_MQTT_OK/GD32VW55X_Wifi_BLE_SDK/GD32VW55x_RELEASE_V1.0.2/MSDK/rtos/FreeRTOS/Source\timers.c **** 	return uxReturn;
 484:C:/Users/stapi/OneDrive/Desktop/GD32VW553/V1_MQTT_OK/GD32VW55X_Wifi_BLE_SDK/GD32VW55x_RELEASE_V1.0.2/MSDK/rtos/FreeRTOS/Source\timers.c **** }
 485:C:/Users/stapi/OneDrive/Desktop/GD32VW553/V1_MQTT_OK/GD32VW55X_Wifi_BLE_SDK/GD32VW55x_RELEASE_V1.0.2/MSDK/rtos/FreeRTOS/Source\timers.c **** /*-----------------------------------------------------------*/
 486:C:/Users/stapi/OneDrive/Desktop/GD32VW553/V1_MQTT_OK/GD32VW55X_Wifi_BLE_SDK/GD32VW55x_RELEASE_V1.0.2/MSDK/rtos/FreeRTOS/Source\timers.c **** 
 487:C:/Users/stapi/OneDrive/Desktop/GD32VW553/V1_MQTT_OK/GD32VW55X_Wifi_BLE_SDK/GD32VW55x_RELEASE_V1.0.2/MSDK/rtos/FreeRTOS/Source\timers.c **** TickType_t xTimerGetExpiryTime( TimerHandle_t xTimer )
 488:C:/Users/stapi/OneDrive/Desktop/GD32VW553/V1_MQTT_OK/GD32VW55X_Wifi_BLE_SDK/GD32VW55x_RELEASE_V1.0.2/MSDK/rtos/FreeRTOS/Source\timers.c **** {
 489:C:/Users/stapi/OneDrive/Desktop/GD32VW553/V1_MQTT_OK/GD32VW55X_Wifi_BLE_SDK/GD32VW55x_RELEASE_V1.0.2/MSDK/rtos/FreeRTOS/Source\timers.c **** Timer_t * pxTimer =  xTimer;
 490:C:/Users/stapi/OneDrive/Desktop/GD32VW553/V1_MQTT_OK/GD32VW55X_Wifi_BLE_SDK/GD32VW55x_RELEASE_V1.0.2/MSDK/rtos/FreeRTOS/Source\timers.c **** TickType_t xReturn;
 491:C:/Users/stapi/OneDrive/Desktop/GD32VW553/V1_MQTT_OK/GD32VW55X_Wifi_BLE_SDK/GD32VW55x_RELEASE_V1.0.2/MSDK/rtos/FreeRTOS/Source\timers.c **** 
 492:C:/Users/stapi/OneDrive/Desktop/GD32VW553/V1_MQTT_OK/GD32VW55X_Wifi_BLE_SDK/GD32VW55x_RELEASE_V1.0.2/MSDK/rtos/FreeRTOS/Source\timers.c **** 	configASSERT( xTimer );
 493:C:/Users/stapi/OneDrive/Desktop/GD32VW553/V1_MQTT_OK/GD32VW55X_Wifi_BLE_SDK/GD32VW55x_RELEASE_V1.0.2/MSDK/rtos/FreeRTOS/Source\timers.c **** 	xReturn = listGET_LIST_ITEM_VALUE( &( pxTimer->xTimerListItem ) );
 494:C:/Users/stapi/OneDrive/Desktop/GD32VW553/V1_MQTT_OK/GD32VW55X_Wifi_BLE_SDK/GD32VW55x_RELEASE_V1.0.2/MSDK/rtos/FreeRTOS/Source\timers.c **** 	return xReturn;
 495:C:/Users/stapi/OneDrive/Desktop/GD32VW553/V1_MQTT_OK/GD32VW55X_Wifi_BLE_SDK/GD32VW55x_RELEASE_V1.0.2/MSDK/rtos/FreeRTOS/Source\timers.c **** }
 496:C:/Users/stapi/OneDrive/Desktop/GD32VW553/V1_MQTT_OK/GD32VW55X_Wifi_BLE_SDK/GD32VW55x_RELEASE_V1.0.2/MSDK/rtos/FreeRTOS/Source\timers.c **** /*-----------------------------------------------------------*/
 497:C:/Users/stapi/OneDrive/Desktop/GD32VW553/V1_MQTT_OK/GD32VW55X_Wifi_BLE_SDK/GD32VW55x_RELEASE_V1.0.2/MSDK/rtos/FreeRTOS/Source\timers.c **** 
 498:C:/Users/stapi/OneDrive/Desktop/GD32VW553/V1_MQTT_OK/GD32VW55X_Wifi_BLE_SDK/GD32VW55x_RELEASE_V1.0.2/MSDK/rtos/FreeRTOS/Source\timers.c **** const char * pcTimerGetName( TimerHandle_t xTimer ) /*lint !e971 Unqualified char types are allowed
 499:C:/Users/stapi/OneDrive/Desktop/GD32VW553/V1_MQTT_OK/GD32VW55X_Wifi_BLE_SDK/GD32VW55x_RELEASE_V1.0.2/MSDK/rtos/FreeRTOS/Source\timers.c **** {
 500:C:/Users/stapi/OneDrive/Desktop/GD32VW553/V1_MQTT_OK/GD32VW55X_Wifi_BLE_SDK/GD32VW55x_RELEASE_V1.0.2/MSDK/rtos/FreeRTOS/Source\timers.c **** Timer_t *pxTimer = xTimer;
 501:C:/Users/stapi/OneDrive/Desktop/GD32VW553/V1_MQTT_OK/GD32VW55X_Wifi_BLE_SDK/GD32VW55x_RELEASE_V1.0.2/MSDK/rtos/FreeRTOS/Source\timers.c **** 
 502:C:/Users/stapi/OneDrive/Desktop/GD32VW553/V1_MQTT_OK/GD32VW55X_Wifi_BLE_SDK/GD32VW55x_RELEASE_V1.0.2/MSDK/rtos/FreeRTOS/Source\timers.c **** 	configASSERT( xTimer );
 503:C:/Users/stapi/OneDrive/Desktop/GD32VW553/V1_MQTT_OK/GD32VW55X_Wifi_BLE_SDK/GD32VW55x_RELEASE_V1.0.2/MSDK/rtos/FreeRTOS/Source\timers.c **** 	return pxTimer->pcTimerName;
 504:C:/Users/stapi/OneDrive/Desktop/GD32VW553/V1_MQTT_OK/GD32VW55X_Wifi_BLE_SDK/GD32VW55x_RELEASE_V1.0.2/MSDK/rtos/FreeRTOS/Source\timers.c **** }
 505:C:/Users/stapi/OneDrive/Desktop/GD32VW553/V1_MQTT_OK/GD32VW55X_Wifi_BLE_SDK/GD32VW55x_RELEASE_V1.0.2/MSDK/rtos/FreeRTOS/Source\timers.c **** /*-----------------------------------------------------------*/
 506:C:/Users/stapi/OneDrive/Desktop/GD32VW553/V1_MQTT_OK/GD32VW55X_Wifi_BLE_SDK/GD32VW55x_RELEASE_V1.0.2/MSDK/rtos/FreeRTOS/Source\timers.c **** 
 507:C:/Users/stapi/OneDrive/Desktop/GD32VW553/V1_MQTT_OK/GD32VW55X_Wifi_BLE_SDK/GD32VW55x_RELEASE_V1.0.2/MSDK/rtos/FreeRTOS/Source\timers.c **** static void prvProcessExpiredTimer( const TickType_t xNextExpireTime, const TickType_t xTimeNow )
 508:C:/Users/stapi/OneDrive/Desktop/GD32VW553/V1_MQTT_OK/GD32VW55X_Wifi_BLE_SDK/GD32VW55x_RELEASE_V1.0.2/MSDK/rtos/FreeRTOS/Source\timers.c **** {
 509:C:/Users/stapi/OneDrive/Desktop/GD32VW553/V1_MQTT_OK/GD32VW55X_Wifi_BLE_SDK/GD32VW55x_RELEASE_V1.0.2/MSDK/rtos/FreeRTOS/Source\timers.c **** BaseType_t xResult;
 510:C:/Users/stapi/OneDrive/Desktop/GD32VW553/V1_MQTT_OK/GD32VW55X_Wifi_BLE_SDK/GD32VW55x_RELEASE_V1.0.2/MSDK/rtos/FreeRTOS/Source\timers.c **** Timer_t * const pxTimer = ( Timer_t * ) listGET_OWNER_OF_HEAD_ENTRY( pxCurrentTimerList ); /*lint !
 511:C:/Users/stapi/OneDrive/Desktop/GD32VW553/V1_MQTT_OK/GD32VW55X_Wifi_BLE_SDK/GD32VW55x_RELEASE_V1.0.2/MSDK/rtos/FreeRTOS/Source\timers.c **** 
 512:C:/Users/stapi/OneDrive/Desktop/GD32VW553/V1_MQTT_OK/GD32VW55X_Wifi_BLE_SDK/GD32VW55x_RELEASE_V1.0.2/MSDK/rtos/FreeRTOS/Source\timers.c **** 	/* Remove the timer from the list of active timers.  A check has already
 513:C:/Users/stapi/OneDrive/Desktop/GD32VW553/V1_MQTT_OK/GD32VW55X_Wifi_BLE_SDK/GD32VW55x_RELEASE_V1.0.2/MSDK/rtos/FreeRTOS/Source\timers.c **** 	been performed to ensure the list is not empty. */
 514:C:/Users/stapi/OneDrive/Desktop/GD32VW553/V1_MQTT_OK/GD32VW55X_Wifi_BLE_SDK/GD32VW55x_RELEASE_V1.0.2/MSDK/rtos/FreeRTOS/Source\timers.c **** 	( void ) uxListRemove( &( pxTimer->xTimerListItem ) );
 515:C:/Users/stapi/OneDrive/Desktop/GD32VW553/V1_MQTT_OK/GD32VW55X_Wifi_BLE_SDK/GD32VW55x_RELEASE_V1.0.2/MSDK/rtos/FreeRTOS/Source\timers.c **** 	traceTIMER_EXPIRED( pxTimer );
 516:C:/Users/stapi/OneDrive/Desktop/GD32VW553/V1_MQTT_OK/GD32VW55X_Wifi_BLE_SDK/GD32VW55x_RELEASE_V1.0.2/MSDK/rtos/FreeRTOS/Source\timers.c **** 
 517:C:/Users/stapi/OneDrive/Desktop/GD32VW553/V1_MQTT_OK/GD32VW55X_Wifi_BLE_SDK/GD32VW55x_RELEASE_V1.0.2/MSDK/rtos/FreeRTOS/Source\timers.c **** 	/* If the timer is an auto-reload timer then calculate the next
 518:C:/Users/stapi/OneDrive/Desktop/GD32VW553/V1_MQTT_OK/GD32VW55X_Wifi_BLE_SDK/GD32VW55x_RELEASE_V1.0.2/MSDK/rtos/FreeRTOS/Source\timers.c **** 	expiry time and re-insert the timer in the list of active timers. */
 519:C:/Users/stapi/OneDrive/Desktop/GD32VW553/V1_MQTT_OK/GD32VW55X_Wifi_BLE_SDK/GD32VW55x_RELEASE_V1.0.2/MSDK/rtos/FreeRTOS/Source\timers.c **** 	if( ( pxTimer->ucStatus & tmrSTATUS_IS_AUTORELOAD ) != 0 )
 520:C:/Users/stapi/OneDrive/Desktop/GD32VW553/V1_MQTT_OK/GD32VW55X_Wifi_BLE_SDK/GD32VW55x_RELEASE_V1.0.2/MSDK/rtos/FreeRTOS/Source\timers.c **** 	{
 521:C:/Users/stapi/OneDrive/Desktop/GD32VW553/V1_MQTT_OK/GD32VW55X_Wifi_BLE_SDK/GD32VW55x_RELEASE_V1.0.2/MSDK/rtos/FreeRTOS/Source\timers.c **** 		/* The timer is inserted into a list using a time relative to anything
 522:C:/Users/stapi/OneDrive/Desktop/GD32VW553/V1_MQTT_OK/GD32VW55X_Wifi_BLE_SDK/GD32VW55x_RELEASE_V1.0.2/MSDK/rtos/FreeRTOS/Source\timers.c **** 		other than the current time.  It will therefore be inserted into the
 523:C:/Users/stapi/OneDrive/Desktop/GD32VW553/V1_MQTT_OK/GD32VW55X_Wifi_BLE_SDK/GD32VW55x_RELEASE_V1.0.2/MSDK/rtos/FreeRTOS/Source\timers.c **** 		correct list relative to the time this task thinks it is now. */
 524:C:/Users/stapi/OneDrive/Desktop/GD32VW553/V1_MQTT_OK/GD32VW55X_Wifi_BLE_SDK/GD32VW55x_RELEASE_V1.0.2/MSDK/rtos/FreeRTOS/Source\timers.c **** 		if( prvInsertTimerInActiveList( pxTimer, ( xNextExpireTime + pxTimer->xTimerPeriodInTicks ), xTim
 525:C:/Users/stapi/OneDrive/Desktop/GD32VW553/V1_MQTT_OK/GD32VW55X_Wifi_BLE_SDK/GD32VW55x_RELEASE_V1.0.2/MSDK/rtos/FreeRTOS/Source\timers.c **** 		{
 526:C:/Users/stapi/OneDrive/Desktop/GD32VW553/V1_MQTT_OK/GD32VW55X_Wifi_BLE_SDK/GD32VW55x_RELEASE_V1.0.2/MSDK/rtos/FreeRTOS/Source\timers.c **** 			/* The timer expired before it was added to the active timer
 527:C:/Users/stapi/OneDrive/Desktop/GD32VW553/V1_MQTT_OK/GD32VW55X_Wifi_BLE_SDK/GD32VW55x_RELEASE_V1.0.2/MSDK/rtos/FreeRTOS/Source\timers.c **** 			list.  Reload it now.  */
 528:C:/Users/stapi/OneDrive/Desktop/GD32VW553/V1_MQTT_OK/GD32VW55X_Wifi_BLE_SDK/GD32VW55x_RELEASE_V1.0.2/MSDK/rtos/FreeRTOS/Source\timers.c **** 			xResult = xTimerGenericCommand( pxTimer, tmrCOMMAND_START_DONT_TRACE, xNextExpireTime, NULL, tmr
 529:C:/Users/stapi/OneDrive/Desktop/GD32VW553/V1_MQTT_OK/GD32VW55X_Wifi_BLE_SDK/GD32VW55x_RELEASE_V1.0.2/MSDK/rtos/FreeRTOS/Source\timers.c **** 			configASSERT( xResult );
 530:C:/Users/stapi/OneDrive/Desktop/GD32VW553/V1_MQTT_OK/GD32VW55X_Wifi_BLE_SDK/GD32VW55x_RELEASE_V1.0.2/MSDK/rtos/FreeRTOS/Source\timers.c **** 			( void ) xResult;
 531:C:/Users/stapi/OneDrive/Desktop/GD32VW553/V1_MQTT_OK/GD32VW55X_Wifi_BLE_SDK/GD32VW55x_RELEASE_V1.0.2/MSDK/rtos/FreeRTOS/Source\timers.c **** 		}
 532:C:/Users/stapi/OneDrive/Desktop/GD32VW553/V1_MQTT_OK/GD32VW55X_Wifi_BLE_SDK/GD32VW55x_RELEASE_V1.0.2/MSDK/rtos/FreeRTOS/Source\timers.c **** 		else
 533:C:/Users/stapi/OneDrive/Desktop/GD32VW553/V1_MQTT_OK/GD32VW55X_Wifi_BLE_SDK/GD32VW55x_RELEASE_V1.0.2/MSDK/rtos/FreeRTOS/Source\timers.c **** 		{
 534:C:/Users/stapi/OneDrive/Desktop/GD32VW553/V1_MQTT_OK/GD32VW55X_Wifi_BLE_SDK/GD32VW55x_RELEASE_V1.0.2/MSDK/rtos/FreeRTOS/Source\timers.c **** 			mtCOVERAGE_TEST_MARKER();
 535:C:/Users/stapi/OneDrive/Desktop/GD32VW553/V1_MQTT_OK/GD32VW55X_Wifi_BLE_SDK/GD32VW55x_RELEASE_V1.0.2/MSDK/rtos/FreeRTOS/Source\timers.c **** 		}
 536:C:/Users/stapi/OneDrive/Desktop/GD32VW553/V1_MQTT_OK/GD32VW55X_Wifi_BLE_SDK/GD32VW55x_RELEASE_V1.0.2/MSDK/rtos/FreeRTOS/Source\timers.c **** 	}
 537:C:/Users/stapi/OneDrive/Desktop/GD32VW553/V1_MQTT_OK/GD32VW55X_Wifi_BLE_SDK/GD32VW55x_RELEASE_V1.0.2/MSDK/rtos/FreeRTOS/Source\timers.c **** 	else
 538:C:/Users/stapi/OneDrive/Desktop/GD32VW553/V1_MQTT_OK/GD32VW55X_Wifi_BLE_SDK/GD32VW55x_RELEASE_V1.0.2/MSDK/rtos/FreeRTOS/Source\timers.c **** 	{
 539:C:/Users/stapi/OneDrive/Desktop/GD32VW553/V1_MQTT_OK/GD32VW55X_Wifi_BLE_SDK/GD32VW55x_RELEASE_V1.0.2/MSDK/rtos/FreeRTOS/Source\timers.c **** 		pxTimer->ucStatus &= ~tmrSTATUS_IS_ACTIVE;
 540:C:/Users/stapi/OneDrive/Desktop/GD32VW553/V1_MQTT_OK/GD32VW55X_Wifi_BLE_SDK/GD32VW55x_RELEASE_V1.0.2/MSDK/rtos/FreeRTOS/Source\timers.c **** 		mtCOVERAGE_TEST_MARKER();
 541:C:/Users/stapi/OneDrive/Desktop/GD32VW553/V1_MQTT_OK/GD32VW55X_Wifi_BLE_SDK/GD32VW55x_RELEASE_V1.0.2/MSDK/rtos/FreeRTOS/Source\timers.c **** 	}
 542:C:/Users/stapi/OneDrive/Desktop/GD32VW553/V1_MQTT_OK/GD32VW55X_Wifi_BLE_SDK/GD32VW55x_RELEASE_V1.0.2/MSDK/rtos/FreeRTOS/Source\timers.c **** 
 543:C:/Users/stapi/OneDrive/Desktop/GD32VW553/V1_MQTT_OK/GD32VW55X_Wifi_BLE_SDK/GD32VW55x_RELEASE_V1.0.2/MSDK/rtos/FreeRTOS/Source\timers.c **** 	/* Call the timer callback. */
 544:C:/Users/stapi/OneDrive/Desktop/GD32VW553/V1_MQTT_OK/GD32VW55X_Wifi_BLE_SDK/GD32VW55x_RELEASE_V1.0.2/MSDK/rtos/FreeRTOS/Source\timers.c **** 	pxTimer->pxCallbackFunction( ( TimerHandle_t ) pxTimer );
 545:C:/Users/stapi/OneDrive/Desktop/GD32VW553/V1_MQTT_OK/GD32VW55X_Wifi_BLE_SDK/GD32VW55x_RELEASE_V1.0.2/MSDK/rtos/FreeRTOS/Source\timers.c **** }
 546:C:/Users/stapi/OneDrive/Desktop/GD32VW553/V1_MQTT_OK/GD32VW55X_Wifi_BLE_SDK/GD32VW55x_RELEASE_V1.0.2/MSDK/rtos/FreeRTOS/Source\timers.c **** /*-----------------------------------------------------------*/
 547:C:/Users/stapi/OneDrive/Desktop/GD32VW553/V1_MQTT_OK/GD32VW55X_Wifi_BLE_SDK/GD32VW55x_RELEASE_V1.0.2/MSDK/rtos/FreeRTOS/Source\timers.c **** 
 548:C:/Users/stapi/OneDrive/Desktop/GD32VW553/V1_MQTT_OK/GD32VW55X_Wifi_BLE_SDK/GD32VW55x_RELEASE_V1.0.2/MSDK/rtos/FreeRTOS/Source\timers.c **** static portTASK_FUNCTION( prvTimerTask, pvParameters )
 549:C:/Users/stapi/OneDrive/Desktop/GD32VW553/V1_MQTT_OK/GD32VW55X_Wifi_BLE_SDK/GD32VW55x_RELEASE_V1.0.2/MSDK/rtos/FreeRTOS/Source\timers.c **** {
 550:C:/Users/stapi/OneDrive/Desktop/GD32VW553/V1_MQTT_OK/GD32VW55X_Wifi_BLE_SDK/GD32VW55x_RELEASE_V1.0.2/MSDK/rtos/FreeRTOS/Source\timers.c **** TickType_t xNextExpireTime;
 551:C:/Users/stapi/OneDrive/Desktop/GD32VW553/V1_MQTT_OK/GD32VW55X_Wifi_BLE_SDK/GD32VW55x_RELEASE_V1.0.2/MSDK/rtos/FreeRTOS/Source\timers.c **** BaseType_t xListWasEmpty;
 552:C:/Users/stapi/OneDrive/Desktop/GD32VW553/V1_MQTT_OK/GD32VW55X_Wifi_BLE_SDK/GD32VW55x_RELEASE_V1.0.2/MSDK/rtos/FreeRTOS/Source\timers.c **** 
 553:C:/Users/stapi/OneDrive/Desktop/GD32VW553/V1_MQTT_OK/GD32VW55X_Wifi_BLE_SDK/GD32VW55x_RELEASE_V1.0.2/MSDK/rtos/FreeRTOS/Source\timers.c **** 	/* Just to avoid compiler warnings. */
 554:C:/Users/stapi/OneDrive/Desktop/GD32VW553/V1_MQTT_OK/GD32VW55X_Wifi_BLE_SDK/GD32VW55x_RELEASE_V1.0.2/MSDK/rtos/FreeRTOS/Source\timers.c **** 	( void ) pvParameters;
 555:C:/Users/stapi/OneDrive/Desktop/GD32VW553/V1_MQTT_OK/GD32VW55X_Wifi_BLE_SDK/GD32VW55x_RELEASE_V1.0.2/MSDK/rtos/FreeRTOS/Source\timers.c **** 
 556:C:/Users/stapi/OneDrive/Desktop/GD32VW553/V1_MQTT_OK/GD32VW55X_Wifi_BLE_SDK/GD32VW55x_RELEASE_V1.0.2/MSDK/rtos/FreeRTOS/Source\timers.c **** 	#if( configUSE_DAEMON_TASK_STARTUP_HOOK == 1 )
 557:C:/Users/stapi/OneDrive/Desktop/GD32VW553/V1_MQTT_OK/GD32VW55X_Wifi_BLE_SDK/GD32VW55x_RELEASE_V1.0.2/MSDK/rtos/FreeRTOS/Source\timers.c **** 	{
 558:C:/Users/stapi/OneDrive/Desktop/GD32VW553/V1_MQTT_OK/GD32VW55X_Wifi_BLE_SDK/GD32VW55x_RELEASE_V1.0.2/MSDK/rtos/FreeRTOS/Source\timers.c **** 		extern void vApplicationDaemonTaskStartupHook( void );
 559:C:/Users/stapi/OneDrive/Desktop/GD32VW553/V1_MQTT_OK/GD32VW55X_Wifi_BLE_SDK/GD32VW55x_RELEASE_V1.0.2/MSDK/rtos/FreeRTOS/Source\timers.c **** 
 560:C:/Users/stapi/OneDrive/Desktop/GD32VW553/V1_MQTT_OK/GD32VW55X_Wifi_BLE_SDK/GD32VW55x_RELEASE_V1.0.2/MSDK/rtos/FreeRTOS/Source\timers.c **** 		/* Allow the application writer to execute some code in the context of
 561:C:/Users/stapi/OneDrive/Desktop/GD32VW553/V1_MQTT_OK/GD32VW55X_Wifi_BLE_SDK/GD32VW55x_RELEASE_V1.0.2/MSDK/rtos/FreeRTOS/Source\timers.c **** 		this task at the point the task starts executing.  This is useful if the
 562:C:/Users/stapi/OneDrive/Desktop/GD32VW553/V1_MQTT_OK/GD32VW55X_Wifi_BLE_SDK/GD32VW55x_RELEASE_V1.0.2/MSDK/rtos/FreeRTOS/Source\timers.c **** 		application includes initialisation code that would benefit from
 563:C:/Users/stapi/OneDrive/Desktop/GD32VW553/V1_MQTT_OK/GD32VW55X_Wifi_BLE_SDK/GD32VW55x_RELEASE_V1.0.2/MSDK/rtos/FreeRTOS/Source\timers.c **** 		executing after the scheduler has been started. */
 564:C:/Users/stapi/OneDrive/Desktop/GD32VW553/V1_MQTT_OK/GD32VW55X_Wifi_BLE_SDK/GD32VW55x_RELEASE_V1.0.2/MSDK/rtos/FreeRTOS/Source\timers.c **** 		vApplicationDaemonTaskStartupHook();
 565:C:/Users/stapi/OneDrive/Desktop/GD32VW553/V1_MQTT_OK/GD32VW55X_Wifi_BLE_SDK/GD32VW55x_RELEASE_V1.0.2/MSDK/rtos/FreeRTOS/Source\timers.c **** 	}
 566:C:/Users/stapi/OneDrive/Desktop/GD32VW553/V1_MQTT_OK/GD32VW55X_Wifi_BLE_SDK/GD32VW55x_RELEASE_V1.0.2/MSDK/rtos/FreeRTOS/Source\timers.c **** 	#endif /* configUSE_DAEMON_TASK_STARTUP_HOOK */
 567:C:/Users/stapi/OneDrive/Desktop/GD32VW553/V1_MQTT_OK/GD32VW55X_Wifi_BLE_SDK/GD32VW55x_RELEASE_V1.0.2/MSDK/rtos/FreeRTOS/Source\timers.c **** 
 568:C:/Users/stapi/OneDrive/Desktop/GD32VW553/V1_MQTT_OK/GD32VW55X_Wifi_BLE_SDK/GD32VW55x_RELEASE_V1.0.2/MSDK/rtos/FreeRTOS/Source\timers.c **** 	for( ;; )
 569:C:/Users/stapi/OneDrive/Desktop/GD32VW553/V1_MQTT_OK/GD32VW55X_Wifi_BLE_SDK/GD32VW55x_RELEASE_V1.0.2/MSDK/rtos/FreeRTOS/Source\timers.c **** 	{
 570:C:/Users/stapi/OneDrive/Desktop/GD32VW553/V1_MQTT_OK/GD32VW55X_Wifi_BLE_SDK/GD32VW55x_RELEASE_V1.0.2/MSDK/rtos/FreeRTOS/Source\timers.c **** 		/* Query the timers list to see if it contains any timers, and if so,
 571:C:/Users/stapi/OneDrive/Desktop/GD32VW553/V1_MQTT_OK/GD32VW55X_Wifi_BLE_SDK/GD32VW55x_RELEASE_V1.0.2/MSDK/rtos/FreeRTOS/Source\timers.c **** 		obtain the time at which the next timer will expire. */
 572:C:/Users/stapi/OneDrive/Desktop/GD32VW553/V1_MQTT_OK/GD32VW55X_Wifi_BLE_SDK/GD32VW55x_RELEASE_V1.0.2/MSDK/rtos/FreeRTOS/Source\timers.c **** 		xNextExpireTime = prvGetNextExpireTime( &xListWasEmpty );
 573:C:/Users/stapi/OneDrive/Desktop/GD32VW553/V1_MQTT_OK/GD32VW55X_Wifi_BLE_SDK/GD32VW55x_RELEASE_V1.0.2/MSDK/rtos/FreeRTOS/Source\timers.c **** 
 574:C:/Users/stapi/OneDrive/Desktop/GD32VW553/V1_MQTT_OK/GD32VW55X_Wifi_BLE_SDK/GD32VW55x_RELEASE_V1.0.2/MSDK/rtos/FreeRTOS/Source\timers.c **** 		/* If a timer has expired, process it.  Otherwise, block this task
 575:C:/Users/stapi/OneDrive/Desktop/GD32VW553/V1_MQTT_OK/GD32VW55X_Wifi_BLE_SDK/GD32VW55x_RELEASE_V1.0.2/MSDK/rtos/FreeRTOS/Source\timers.c **** 		until either a timer does expire, or a command is received. */
 576:C:/Users/stapi/OneDrive/Desktop/GD32VW553/V1_MQTT_OK/GD32VW55X_Wifi_BLE_SDK/GD32VW55x_RELEASE_V1.0.2/MSDK/rtos/FreeRTOS/Source\timers.c **** 		prvProcessTimerOrBlockTask( xNextExpireTime, xListWasEmpty );
 577:C:/Users/stapi/OneDrive/Desktop/GD32VW553/V1_MQTT_OK/GD32VW55X_Wifi_BLE_SDK/GD32VW55x_RELEASE_V1.0.2/MSDK/rtos/FreeRTOS/Source\timers.c **** 
 578:C:/Users/stapi/OneDrive/Desktop/GD32VW553/V1_MQTT_OK/GD32VW55X_Wifi_BLE_SDK/GD32VW55x_RELEASE_V1.0.2/MSDK/rtos/FreeRTOS/Source\timers.c **** 		/* Empty the command queue. */
 579:C:/Users/stapi/OneDrive/Desktop/GD32VW553/V1_MQTT_OK/GD32VW55X_Wifi_BLE_SDK/GD32VW55x_RELEASE_V1.0.2/MSDK/rtos/FreeRTOS/Source\timers.c **** 		prvProcessReceivedCommands();
 580:C:/Users/stapi/OneDrive/Desktop/GD32VW553/V1_MQTT_OK/GD32VW55X_Wifi_BLE_SDK/GD32VW55x_RELEASE_V1.0.2/MSDK/rtos/FreeRTOS/Source\timers.c **** 	}
 581:C:/Users/stapi/OneDrive/Desktop/GD32VW553/V1_MQTT_OK/GD32VW55X_Wifi_BLE_SDK/GD32VW55x_RELEASE_V1.0.2/MSDK/rtos/FreeRTOS/Source\timers.c **** }
 582:C:/Users/stapi/OneDrive/Desktop/GD32VW553/V1_MQTT_OK/GD32VW55X_Wifi_BLE_SDK/GD32VW55x_RELEASE_V1.0.2/MSDK/rtos/FreeRTOS/Source\timers.c **** /*-----------------------------------------------------------*/
 583:C:/Users/stapi/OneDrive/Desktop/GD32VW553/V1_MQTT_OK/GD32VW55X_Wifi_BLE_SDK/GD32VW55x_RELEASE_V1.0.2/MSDK/rtos/FreeRTOS/Source\timers.c **** 
 584:C:/Users/stapi/OneDrive/Desktop/GD32VW553/V1_MQTT_OK/GD32VW55X_Wifi_BLE_SDK/GD32VW55x_RELEASE_V1.0.2/MSDK/rtos/FreeRTOS/Source\timers.c **** static void prvProcessTimerOrBlockTask( const TickType_t xNextExpireTime, BaseType_t xListWasEmpty 
 585:C:/Users/stapi/OneDrive/Desktop/GD32VW553/V1_MQTT_OK/GD32VW55X_Wifi_BLE_SDK/GD32VW55x_RELEASE_V1.0.2/MSDK/rtos/FreeRTOS/Source\timers.c **** {
 586:C:/Users/stapi/OneDrive/Desktop/GD32VW553/V1_MQTT_OK/GD32VW55X_Wifi_BLE_SDK/GD32VW55x_RELEASE_V1.0.2/MSDK/rtos/FreeRTOS/Source\timers.c **** TickType_t xTimeNow;
 587:C:/Users/stapi/OneDrive/Desktop/GD32VW553/V1_MQTT_OK/GD32VW55X_Wifi_BLE_SDK/GD32VW55x_RELEASE_V1.0.2/MSDK/rtos/FreeRTOS/Source\timers.c **** BaseType_t xTimerListsWereSwitched;
 588:C:/Users/stapi/OneDrive/Desktop/GD32VW553/V1_MQTT_OK/GD32VW55X_Wifi_BLE_SDK/GD32VW55x_RELEASE_V1.0.2/MSDK/rtos/FreeRTOS/Source\timers.c **** 
 589:C:/Users/stapi/OneDrive/Desktop/GD32VW553/V1_MQTT_OK/GD32VW55X_Wifi_BLE_SDK/GD32VW55x_RELEASE_V1.0.2/MSDK/rtos/FreeRTOS/Source\timers.c **** 	vTaskSuspendAll();
 590:C:/Users/stapi/OneDrive/Desktop/GD32VW553/V1_MQTT_OK/GD32VW55X_Wifi_BLE_SDK/GD32VW55x_RELEASE_V1.0.2/MSDK/rtos/FreeRTOS/Source\timers.c **** 	{
 591:C:/Users/stapi/OneDrive/Desktop/GD32VW553/V1_MQTT_OK/GD32VW55X_Wifi_BLE_SDK/GD32VW55x_RELEASE_V1.0.2/MSDK/rtos/FreeRTOS/Source\timers.c **** 		/* Obtain the time now to make an assessment as to whether the timer
 592:C:/Users/stapi/OneDrive/Desktop/GD32VW553/V1_MQTT_OK/GD32VW55X_Wifi_BLE_SDK/GD32VW55x_RELEASE_V1.0.2/MSDK/rtos/FreeRTOS/Source\timers.c **** 		has expired or not.  If obtaining the time causes the lists to switch
 593:C:/Users/stapi/OneDrive/Desktop/GD32VW553/V1_MQTT_OK/GD32VW55X_Wifi_BLE_SDK/GD32VW55x_RELEASE_V1.0.2/MSDK/rtos/FreeRTOS/Source\timers.c **** 		then don't process this timer as any timers that remained in the list
 594:C:/Users/stapi/OneDrive/Desktop/GD32VW553/V1_MQTT_OK/GD32VW55X_Wifi_BLE_SDK/GD32VW55x_RELEASE_V1.0.2/MSDK/rtos/FreeRTOS/Source\timers.c **** 		when the lists were switched will have been processed within the
 595:C:/Users/stapi/OneDrive/Desktop/GD32VW553/V1_MQTT_OK/GD32VW55X_Wifi_BLE_SDK/GD32VW55x_RELEASE_V1.0.2/MSDK/rtos/FreeRTOS/Source\timers.c **** 		prvSampleTimeNow() function. */
 596:C:/Users/stapi/OneDrive/Desktop/GD32VW553/V1_MQTT_OK/GD32VW55X_Wifi_BLE_SDK/GD32VW55x_RELEASE_V1.0.2/MSDK/rtos/FreeRTOS/Source\timers.c **** 		xTimeNow = prvSampleTimeNow( &xTimerListsWereSwitched );
 597:C:/Users/stapi/OneDrive/Desktop/GD32VW553/V1_MQTT_OK/GD32VW55X_Wifi_BLE_SDK/GD32VW55x_RELEASE_V1.0.2/MSDK/rtos/FreeRTOS/Source\timers.c **** 		if( xTimerListsWereSwitched == pdFALSE )
 598:C:/Users/stapi/OneDrive/Desktop/GD32VW553/V1_MQTT_OK/GD32VW55X_Wifi_BLE_SDK/GD32VW55x_RELEASE_V1.0.2/MSDK/rtos/FreeRTOS/Source\timers.c **** 		{
 599:C:/Users/stapi/OneDrive/Desktop/GD32VW553/V1_MQTT_OK/GD32VW55X_Wifi_BLE_SDK/GD32VW55x_RELEASE_V1.0.2/MSDK/rtos/FreeRTOS/Source\timers.c **** 			/* The tick count has not overflowed, has the timer expired? */
 600:C:/Users/stapi/OneDrive/Desktop/GD32VW553/V1_MQTT_OK/GD32VW55X_Wifi_BLE_SDK/GD32VW55x_RELEASE_V1.0.2/MSDK/rtos/FreeRTOS/Source\timers.c **** 			if( ( xListWasEmpty == pdFALSE ) && ( xNextExpireTime <= xTimeNow ) )
 601:C:/Users/stapi/OneDrive/Desktop/GD32VW553/V1_MQTT_OK/GD32VW55X_Wifi_BLE_SDK/GD32VW55x_RELEASE_V1.0.2/MSDK/rtos/FreeRTOS/Source\timers.c **** 			{
 602:C:/Users/stapi/OneDrive/Desktop/GD32VW553/V1_MQTT_OK/GD32VW55X_Wifi_BLE_SDK/GD32VW55x_RELEASE_V1.0.2/MSDK/rtos/FreeRTOS/Source\timers.c **** 				( void ) xTaskResumeAll();
 603:C:/Users/stapi/OneDrive/Desktop/GD32VW553/V1_MQTT_OK/GD32VW55X_Wifi_BLE_SDK/GD32VW55x_RELEASE_V1.0.2/MSDK/rtos/FreeRTOS/Source\timers.c **** 				prvProcessExpiredTimer( xNextExpireTime, xTimeNow );
 604:C:/Users/stapi/OneDrive/Desktop/GD32VW553/V1_MQTT_OK/GD32VW55X_Wifi_BLE_SDK/GD32VW55x_RELEASE_V1.0.2/MSDK/rtos/FreeRTOS/Source\timers.c **** 			}
 605:C:/Users/stapi/OneDrive/Desktop/GD32VW553/V1_MQTT_OK/GD32VW55X_Wifi_BLE_SDK/GD32VW55x_RELEASE_V1.0.2/MSDK/rtos/FreeRTOS/Source\timers.c **** 			else
 606:C:/Users/stapi/OneDrive/Desktop/GD32VW553/V1_MQTT_OK/GD32VW55X_Wifi_BLE_SDK/GD32VW55x_RELEASE_V1.0.2/MSDK/rtos/FreeRTOS/Source\timers.c **** 			{
 607:C:/Users/stapi/OneDrive/Desktop/GD32VW553/V1_MQTT_OK/GD32VW55X_Wifi_BLE_SDK/GD32VW55x_RELEASE_V1.0.2/MSDK/rtos/FreeRTOS/Source\timers.c **** 				/* The tick count has not overflowed, and the next expire
 608:C:/Users/stapi/OneDrive/Desktop/GD32VW553/V1_MQTT_OK/GD32VW55X_Wifi_BLE_SDK/GD32VW55x_RELEASE_V1.0.2/MSDK/rtos/FreeRTOS/Source\timers.c **** 				time has not been reached yet.  This task should therefore
 609:C:/Users/stapi/OneDrive/Desktop/GD32VW553/V1_MQTT_OK/GD32VW55X_Wifi_BLE_SDK/GD32VW55x_RELEASE_V1.0.2/MSDK/rtos/FreeRTOS/Source\timers.c **** 				block to wait for the next expire time or a command to be
 610:C:/Users/stapi/OneDrive/Desktop/GD32VW553/V1_MQTT_OK/GD32VW55X_Wifi_BLE_SDK/GD32VW55x_RELEASE_V1.0.2/MSDK/rtos/FreeRTOS/Source\timers.c **** 				received - whichever comes first.  The following line cannot
 611:C:/Users/stapi/OneDrive/Desktop/GD32VW553/V1_MQTT_OK/GD32VW55X_Wifi_BLE_SDK/GD32VW55x_RELEASE_V1.0.2/MSDK/rtos/FreeRTOS/Source\timers.c **** 				be reached unless xNextExpireTime > xTimeNow, except in the
 612:C:/Users/stapi/OneDrive/Desktop/GD32VW553/V1_MQTT_OK/GD32VW55X_Wifi_BLE_SDK/GD32VW55x_RELEASE_V1.0.2/MSDK/rtos/FreeRTOS/Source\timers.c **** 				case when the current timer list is empty. */
 613:C:/Users/stapi/OneDrive/Desktop/GD32VW553/V1_MQTT_OK/GD32VW55X_Wifi_BLE_SDK/GD32VW55x_RELEASE_V1.0.2/MSDK/rtos/FreeRTOS/Source\timers.c **** 				if( xListWasEmpty != pdFALSE )
 614:C:/Users/stapi/OneDrive/Desktop/GD32VW553/V1_MQTT_OK/GD32VW55X_Wifi_BLE_SDK/GD32VW55x_RELEASE_V1.0.2/MSDK/rtos/FreeRTOS/Source\timers.c **** 				{
 615:C:/Users/stapi/OneDrive/Desktop/GD32VW553/V1_MQTT_OK/GD32VW55X_Wifi_BLE_SDK/GD32VW55x_RELEASE_V1.0.2/MSDK/rtos/FreeRTOS/Source\timers.c **** 					/* The current timer list is empty - is the overflow list
 616:C:/Users/stapi/OneDrive/Desktop/GD32VW553/V1_MQTT_OK/GD32VW55X_Wifi_BLE_SDK/GD32VW55x_RELEASE_V1.0.2/MSDK/rtos/FreeRTOS/Source\timers.c **** 					also empty? */
 617:C:/Users/stapi/OneDrive/Desktop/GD32VW553/V1_MQTT_OK/GD32VW55X_Wifi_BLE_SDK/GD32VW55x_RELEASE_V1.0.2/MSDK/rtos/FreeRTOS/Source\timers.c **** 					xListWasEmpty = listLIST_IS_EMPTY( pxOverflowTimerList );
 618:C:/Users/stapi/OneDrive/Desktop/GD32VW553/V1_MQTT_OK/GD32VW55X_Wifi_BLE_SDK/GD32VW55x_RELEASE_V1.0.2/MSDK/rtos/FreeRTOS/Source\timers.c **** 				}
 619:C:/Users/stapi/OneDrive/Desktop/GD32VW553/V1_MQTT_OK/GD32VW55X_Wifi_BLE_SDK/GD32VW55x_RELEASE_V1.0.2/MSDK/rtos/FreeRTOS/Source\timers.c **** 
 620:C:/Users/stapi/OneDrive/Desktop/GD32VW553/V1_MQTT_OK/GD32VW55X_Wifi_BLE_SDK/GD32VW55x_RELEASE_V1.0.2/MSDK/rtos/FreeRTOS/Source\timers.c **** 				vQueueWaitForMessageRestricted( xTimerQueue, ( xNextExpireTime - xTimeNow ), xListWasEmpty );
 621:C:/Users/stapi/OneDrive/Desktop/GD32VW553/V1_MQTT_OK/GD32VW55X_Wifi_BLE_SDK/GD32VW55x_RELEASE_V1.0.2/MSDK/rtos/FreeRTOS/Source\timers.c **** 
 622:C:/Users/stapi/OneDrive/Desktop/GD32VW553/V1_MQTT_OK/GD32VW55X_Wifi_BLE_SDK/GD32VW55x_RELEASE_V1.0.2/MSDK/rtos/FreeRTOS/Source\timers.c **** 				if( xTaskResumeAll() == pdFALSE )
 623:C:/Users/stapi/OneDrive/Desktop/GD32VW553/V1_MQTT_OK/GD32VW55X_Wifi_BLE_SDK/GD32VW55x_RELEASE_V1.0.2/MSDK/rtos/FreeRTOS/Source\timers.c **** 				{
 624:C:/Users/stapi/OneDrive/Desktop/GD32VW553/V1_MQTT_OK/GD32VW55X_Wifi_BLE_SDK/GD32VW55x_RELEASE_V1.0.2/MSDK/rtos/FreeRTOS/Source\timers.c **** 					/* Yield to wait for either a command to arrive, or the
 625:C:/Users/stapi/OneDrive/Desktop/GD32VW553/V1_MQTT_OK/GD32VW55X_Wifi_BLE_SDK/GD32VW55x_RELEASE_V1.0.2/MSDK/rtos/FreeRTOS/Source\timers.c **** 					block time to expire.  If a command arrived between the
 626:C:/Users/stapi/OneDrive/Desktop/GD32VW553/V1_MQTT_OK/GD32VW55X_Wifi_BLE_SDK/GD32VW55x_RELEASE_V1.0.2/MSDK/rtos/FreeRTOS/Source\timers.c **** 					critical section being exited and this yield then the yield
 627:C:/Users/stapi/OneDrive/Desktop/GD32VW553/V1_MQTT_OK/GD32VW55X_Wifi_BLE_SDK/GD32VW55x_RELEASE_V1.0.2/MSDK/rtos/FreeRTOS/Source\timers.c **** 					will not cause the task to block. */
 628:C:/Users/stapi/OneDrive/Desktop/GD32VW553/V1_MQTT_OK/GD32VW55X_Wifi_BLE_SDK/GD32VW55x_RELEASE_V1.0.2/MSDK/rtos/FreeRTOS/Source\timers.c **** 					portYIELD_WITHIN_API();
 629:C:/Users/stapi/OneDrive/Desktop/GD32VW553/V1_MQTT_OK/GD32VW55X_Wifi_BLE_SDK/GD32VW55x_RELEASE_V1.0.2/MSDK/rtos/FreeRTOS/Source\timers.c **** 				}
 630:C:/Users/stapi/OneDrive/Desktop/GD32VW553/V1_MQTT_OK/GD32VW55X_Wifi_BLE_SDK/GD32VW55x_RELEASE_V1.0.2/MSDK/rtos/FreeRTOS/Source\timers.c **** 				else
 631:C:/Users/stapi/OneDrive/Desktop/GD32VW553/V1_MQTT_OK/GD32VW55X_Wifi_BLE_SDK/GD32VW55x_RELEASE_V1.0.2/MSDK/rtos/FreeRTOS/Source\timers.c **** 				{
 632:C:/Users/stapi/OneDrive/Desktop/GD32VW553/V1_MQTT_OK/GD32VW55X_Wifi_BLE_SDK/GD32VW55x_RELEASE_V1.0.2/MSDK/rtos/FreeRTOS/Source\timers.c **** 					mtCOVERAGE_TEST_MARKER();
 633:C:/Users/stapi/OneDrive/Desktop/GD32VW553/V1_MQTT_OK/GD32VW55X_Wifi_BLE_SDK/GD32VW55x_RELEASE_V1.0.2/MSDK/rtos/FreeRTOS/Source\timers.c **** 				}
 634:C:/Users/stapi/OneDrive/Desktop/GD32VW553/V1_MQTT_OK/GD32VW55X_Wifi_BLE_SDK/GD32VW55x_RELEASE_V1.0.2/MSDK/rtos/FreeRTOS/Source\timers.c **** 			}
 635:C:/Users/stapi/OneDrive/Desktop/GD32VW553/V1_MQTT_OK/GD32VW55X_Wifi_BLE_SDK/GD32VW55x_RELEASE_V1.0.2/MSDK/rtos/FreeRTOS/Source\timers.c **** 		}
 636:C:/Users/stapi/OneDrive/Desktop/GD32VW553/V1_MQTT_OK/GD32VW55X_Wifi_BLE_SDK/GD32VW55x_RELEASE_V1.0.2/MSDK/rtos/FreeRTOS/Source\timers.c **** 		else
 637:C:/Users/stapi/OneDrive/Desktop/GD32VW553/V1_MQTT_OK/GD32VW55X_Wifi_BLE_SDK/GD32VW55x_RELEASE_V1.0.2/MSDK/rtos/FreeRTOS/Source\timers.c **** 		{
 638:C:/Users/stapi/OneDrive/Desktop/GD32VW553/V1_MQTT_OK/GD32VW55X_Wifi_BLE_SDK/GD32VW55x_RELEASE_V1.0.2/MSDK/rtos/FreeRTOS/Source\timers.c **** 			( void ) xTaskResumeAll();
 639:C:/Users/stapi/OneDrive/Desktop/GD32VW553/V1_MQTT_OK/GD32VW55X_Wifi_BLE_SDK/GD32VW55x_RELEASE_V1.0.2/MSDK/rtos/FreeRTOS/Source\timers.c **** 		}
 640:C:/Users/stapi/OneDrive/Desktop/GD32VW553/V1_MQTT_OK/GD32VW55X_Wifi_BLE_SDK/GD32VW55x_RELEASE_V1.0.2/MSDK/rtos/FreeRTOS/Source\timers.c **** 	}
 641:C:/Users/stapi/OneDrive/Desktop/GD32VW553/V1_MQTT_OK/GD32VW55X_Wifi_BLE_SDK/GD32VW55x_RELEASE_V1.0.2/MSDK/rtos/FreeRTOS/Source\timers.c **** }
 642:C:/Users/stapi/OneDrive/Desktop/GD32VW553/V1_MQTT_OK/GD32VW55X_Wifi_BLE_SDK/GD32VW55x_RELEASE_V1.0.2/MSDK/rtos/FreeRTOS/Source\timers.c **** /*-----------------------------------------------------------*/
 643:C:/Users/stapi/OneDrive/Desktop/GD32VW553/V1_MQTT_OK/GD32VW55X_Wifi_BLE_SDK/GD32VW55x_RELEASE_V1.0.2/MSDK/rtos/FreeRTOS/Source\timers.c **** 
 644:C:/Users/stapi/OneDrive/Desktop/GD32VW553/V1_MQTT_OK/GD32VW55X_Wifi_BLE_SDK/GD32VW55x_RELEASE_V1.0.2/MSDK/rtos/FreeRTOS/Source\timers.c **** static TickType_t prvGetNextExpireTime( BaseType_t * const pxListWasEmpty )
 645:C:/Users/stapi/OneDrive/Desktop/GD32VW553/V1_MQTT_OK/GD32VW55X_Wifi_BLE_SDK/GD32VW55x_RELEASE_V1.0.2/MSDK/rtos/FreeRTOS/Source\timers.c **** {
 646:C:/Users/stapi/OneDrive/Desktop/GD32VW553/V1_MQTT_OK/GD32VW55X_Wifi_BLE_SDK/GD32VW55x_RELEASE_V1.0.2/MSDK/rtos/FreeRTOS/Source\timers.c **** TickType_t xNextExpireTime;
 647:C:/Users/stapi/OneDrive/Desktop/GD32VW553/V1_MQTT_OK/GD32VW55X_Wifi_BLE_SDK/GD32VW55x_RELEASE_V1.0.2/MSDK/rtos/FreeRTOS/Source\timers.c **** 
 648:C:/Users/stapi/OneDrive/Desktop/GD32VW553/V1_MQTT_OK/GD32VW55X_Wifi_BLE_SDK/GD32VW55x_RELEASE_V1.0.2/MSDK/rtos/FreeRTOS/Source\timers.c **** 	/* Timers are listed in expiry time order, with the head of the list
 649:C:/Users/stapi/OneDrive/Desktop/GD32VW553/V1_MQTT_OK/GD32VW55X_Wifi_BLE_SDK/GD32VW55x_RELEASE_V1.0.2/MSDK/rtos/FreeRTOS/Source\timers.c **** 	referencing the task that will expire first.  Obtain the time at which
 650:C:/Users/stapi/OneDrive/Desktop/GD32VW553/V1_MQTT_OK/GD32VW55X_Wifi_BLE_SDK/GD32VW55x_RELEASE_V1.0.2/MSDK/rtos/FreeRTOS/Source\timers.c **** 	the timer with the nearest expiry time will expire.  If there are no
 651:C:/Users/stapi/OneDrive/Desktop/GD32VW553/V1_MQTT_OK/GD32VW55X_Wifi_BLE_SDK/GD32VW55x_RELEASE_V1.0.2/MSDK/rtos/FreeRTOS/Source\timers.c **** 	active timers then just set the next expire time to 0.  That will cause
 652:C:/Users/stapi/OneDrive/Desktop/GD32VW553/V1_MQTT_OK/GD32VW55X_Wifi_BLE_SDK/GD32VW55x_RELEASE_V1.0.2/MSDK/rtos/FreeRTOS/Source\timers.c **** 	this task to unblock when the tick count overflows, at which point the
 653:C:/Users/stapi/OneDrive/Desktop/GD32VW553/V1_MQTT_OK/GD32VW55X_Wifi_BLE_SDK/GD32VW55x_RELEASE_V1.0.2/MSDK/rtos/FreeRTOS/Source\timers.c **** 	timer lists will be switched and the next expiry time can be
 654:C:/Users/stapi/OneDrive/Desktop/GD32VW553/V1_MQTT_OK/GD32VW55X_Wifi_BLE_SDK/GD32VW55x_RELEASE_V1.0.2/MSDK/rtos/FreeRTOS/Source\timers.c **** 	re-assessed.  */
 655:C:/Users/stapi/OneDrive/Desktop/GD32VW553/V1_MQTT_OK/GD32VW55X_Wifi_BLE_SDK/GD32VW55x_RELEASE_V1.0.2/MSDK/rtos/FreeRTOS/Source\timers.c **** 	*pxListWasEmpty = listLIST_IS_EMPTY( pxCurrentTimerList );
 656:C:/Users/stapi/OneDrive/Desktop/GD32VW553/V1_MQTT_OK/GD32VW55X_Wifi_BLE_SDK/GD32VW55x_RELEASE_V1.0.2/MSDK/rtos/FreeRTOS/Source\timers.c **** 	if( *pxListWasEmpty == pdFALSE )
 657:C:/Users/stapi/OneDrive/Desktop/GD32VW553/V1_MQTT_OK/GD32VW55X_Wifi_BLE_SDK/GD32VW55x_RELEASE_V1.0.2/MSDK/rtos/FreeRTOS/Source\timers.c **** 	{
 658:C:/Users/stapi/OneDrive/Desktop/GD32VW553/V1_MQTT_OK/GD32VW55X_Wifi_BLE_SDK/GD32VW55x_RELEASE_V1.0.2/MSDK/rtos/FreeRTOS/Source\timers.c **** 		xNextExpireTime = listGET_ITEM_VALUE_OF_HEAD_ENTRY( pxCurrentTimerList );
 659:C:/Users/stapi/OneDrive/Desktop/GD32VW553/V1_MQTT_OK/GD32VW55X_Wifi_BLE_SDK/GD32VW55x_RELEASE_V1.0.2/MSDK/rtos/FreeRTOS/Source\timers.c **** 	}
 660:C:/Users/stapi/OneDrive/Desktop/GD32VW553/V1_MQTT_OK/GD32VW55X_Wifi_BLE_SDK/GD32VW55x_RELEASE_V1.0.2/MSDK/rtos/FreeRTOS/Source\timers.c **** 	else
 661:C:/Users/stapi/OneDrive/Desktop/GD32VW553/V1_MQTT_OK/GD32VW55X_Wifi_BLE_SDK/GD32VW55x_RELEASE_V1.0.2/MSDK/rtos/FreeRTOS/Source\timers.c **** 	{
 662:C:/Users/stapi/OneDrive/Desktop/GD32VW553/V1_MQTT_OK/GD32VW55X_Wifi_BLE_SDK/GD32VW55x_RELEASE_V1.0.2/MSDK/rtos/FreeRTOS/Source\timers.c **** 		/* Ensure the task unblocks when the tick count rolls over. */
 663:C:/Users/stapi/OneDrive/Desktop/GD32VW553/V1_MQTT_OK/GD32VW55X_Wifi_BLE_SDK/GD32VW55x_RELEASE_V1.0.2/MSDK/rtos/FreeRTOS/Source\timers.c **** 		xNextExpireTime = ( TickType_t ) 0U;
 664:C:/Users/stapi/OneDrive/Desktop/GD32VW553/V1_MQTT_OK/GD32VW55X_Wifi_BLE_SDK/GD32VW55x_RELEASE_V1.0.2/MSDK/rtos/FreeRTOS/Source\timers.c **** 	}
 665:C:/Users/stapi/OneDrive/Desktop/GD32VW553/V1_MQTT_OK/GD32VW55X_Wifi_BLE_SDK/GD32VW55x_RELEASE_V1.0.2/MSDK/rtos/FreeRTOS/Source\timers.c **** 
 666:C:/Users/stapi/OneDrive/Desktop/GD32VW553/V1_MQTT_OK/GD32VW55X_Wifi_BLE_SDK/GD32VW55x_RELEASE_V1.0.2/MSDK/rtos/FreeRTOS/Source\timers.c **** 	return xNextExpireTime;
 667:C:/Users/stapi/OneDrive/Desktop/GD32VW553/V1_MQTT_OK/GD32VW55X_Wifi_BLE_SDK/GD32VW55x_RELEASE_V1.0.2/MSDK/rtos/FreeRTOS/Source\timers.c **** }
 668:C:/Users/stapi/OneDrive/Desktop/GD32VW553/V1_MQTT_OK/GD32VW55X_Wifi_BLE_SDK/GD32VW55x_RELEASE_V1.0.2/MSDK/rtos/FreeRTOS/Source\timers.c **** /*-----------------------------------------------------------*/
 669:C:/Users/stapi/OneDrive/Desktop/GD32VW553/V1_MQTT_OK/GD32VW55X_Wifi_BLE_SDK/GD32VW55x_RELEASE_V1.0.2/MSDK/rtos/FreeRTOS/Source\timers.c **** 
 670:C:/Users/stapi/OneDrive/Desktop/GD32VW553/V1_MQTT_OK/GD32VW55X_Wifi_BLE_SDK/GD32VW55x_RELEASE_V1.0.2/MSDK/rtos/FreeRTOS/Source\timers.c **** static TickType_t prvSampleTimeNow( BaseType_t * const pxTimerListsWereSwitched )
 671:C:/Users/stapi/OneDrive/Desktop/GD32VW553/V1_MQTT_OK/GD32VW55X_Wifi_BLE_SDK/GD32VW55x_RELEASE_V1.0.2/MSDK/rtos/FreeRTOS/Source\timers.c **** {
 672:C:/Users/stapi/OneDrive/Desktop/GD32VW553/V1_MQTT_OK/GD32VW55X_Wifi_BLE_SDK/GD32VW55x_RELEASE_V1.0.2/MSDK/rtos/FreeRTOS/Source\timers.c **** TickType_t xTimeNow;
 673:C:/Users/stapi/OneDrive/Desktop/GD32VW553/V1_MQTT_OK/GD32VW55X_Wifi_BLE_SDK/GD32VW55x_RELEASE_V1.0.2/MSDK/rtos/FreeRTOS/Source\timers.c **** PRIVILEGED_DATA static TickType_t xLastTime = ( TickType_t ) 0U; /*lint !e956 Variable is only acce
 674:C:/Users/stapi/OneDrive/Desktop/GD32VW553/V1_MQTT_OK/GD32VW55X_Wifi_BLE_SDK/GD32VW55x_RELEASE_V1.0.2/MSDK/rtos/FreeRTOS/Source\timers.c **** 
 675:C:/Users/stapi/OneDrive/Desktop/GD32VW553/V1_MQTT_OK/GD32VW55X_Wifi_BLE_SDK/GD32VW55x_RELEASE_V1.0.2/MSDK/rtos/FreeRTOS/Source\timers.c **** 	xTimeNow = xTaskGetTickCount();
 676:C:/Users/stapi/OneDrive/Desktop/GD32VW553/V1_MQTT_OK/GD32VW55X_Wifi_BLE_SDK/GD32VW55x_RELEASE_V1.0.2/MSDK/rtos/FreeRTOS/Source\timers.c **** 
 677:C:/Users/stapi/OneDrive/Desktop/GD32VW553/V1_MQTT_OK/GD32VW55X_Wifi_BLE_SDK/GD32VW55x_RELEASE_V1.0.2/MSDK/rtos/FreeRTOS/Source\timers.c **** 	if( xTimeNow < xLastTime )
 678:C:/Users/stapi/OneDrive/Desktop/GD32VW553/V1_MQTT_OK/GD32VW55X_Wifi_BLE_SDK/GD32VW55x_RELEASE_V1.0.2/MSDK/rtos/FreeRTOS/Source\timers.c **** 	{
 679:C:/Users/stapi/OneDrive/Desktop/GD32VW553/V1_MQTT_OK/GD32VW55X_Wifi_BLE_SDK/GD32VW55x_RELEASE_V1.0.2/MSDK/rtos/FreeRTOS/Source\timers.c **** 		prvSwitchTimerLists();
 680:C:/Users/stapi/OneDrive/Desktop/GD32VW553/V1_MQTT_OK/GD32VW55X_Wifi_BLE_SDK/GD32VW55x_RELEASE_V1.0.2/MSDK/rtos/FreeRTOS/Source\timers.c **** 		*pxTimerListsWereSwitched = pdTRUE;
 681:C:/Users/stapi/OneDrive/Desktop/GD32VW553/V1_MQTT_OK/GD32VW55X_Wifi_BLE_SDK/GD32VW55x_RELEASE_V1.0.2/MSDK/rtos/FreeRTOS/Source\timers.c **** 	}
 682:C:/Users/stapi/OneDrive/Desktop/GD32VW553/V1_MQTT_OK/GD32VW55X_Wifi_BLE_SDK/GD32VW55x_RELEASE_V1.0.2/MSDK/rtos/FreeRTOS/Source\timers.c **** 	else
 683:C:/Users/stapi/OneDrive/Desktop/GD32VW553/V1_MQTT_OK/GD32VW55X_Wifi_BLE_SDK/GD32VW55x_RELEASE_V1.0.2/MSDK/rtos/FreeRTOS/Source\timers.c **** 	{
 684:C:/Users/stapi/OneDrive/Desktop/GD32VW553/V1_MQTT_OK/GD32VW55X_Wifi_BLE_SDK/GD32VW55x_RELEASE_V1.0.2/MSDK/rtos/FreeRTOS/Source\timers.c **** 		*pxTimerListsWereSwitched = pdFALSE;
 685:C:/Users/stapi/OneDrive/Desktop/GD32VW553/V1_MQTT_OK/GD32VW55X_Wifi_BLE_SDK/GD32VW55x_RELEASE_V1.0.2/MSDK/rtos/FreeRTOS/Source\timers.c **** 	}
 686:C:/Users/stapi/OneDrive/Desktop/GD32VW553/V1_MQTT_OK/GD32VW55X_Wifi_BLE_SDK/GD32VW55x_RELEASE_V1.0.2/MSDK/rtos/FreeRTOS/Source\timers.c **** 
 687:C:/Users/stapi/OneDrive/Desktop/GD32VW553/V1_MQTT_OK/GD32VW55X_Wifi_BLE_SDK/GD32VW55x_RELEASE_V1.0.2/MSDK/rtos/FreeRTOS/Source\timers.c **** 	xLastTime = xTimeNow;
 688:C:/Users/stapi/OneDrive/Desktop/GD32VW553/V1_MQTT_OK/GD32VW55X_Wifi_BLE_SDK/GD32VW55x_RELEASE_V1.0.2/MSDK/rtos/FreeRTOS/Source\timers.c **** 
 689:C:/Users/stapi/OneDrive/Desktop/GD32VW553/V1_MQTT_OK/GD32VW55X_Wifi_BLE_SDK/GD32VW55x_RELEASE_V1.0.2/MSDK/rtos/FreeRTOS/Source\timers.c **** 	return xTimeNow;
 690:C:/Users/stapi/OneDrive/Desktop/GD32VW553/V1_MQTT_OK/GD32VW55X_Wifi_BLE_SDK/GD32VW55x_RELEASE_V1.0.2/MSDK/rtos/FreeRTOS/Source\timers.c **** }
 691:C:/Users/stapi/OneDrive/Desktop/GD32VW553/V1_MQTT_OK/GD32VW55X_Wifi_BLE_SDK/GD32VW55x_RELEASE_V1.0.2/MSDK/rtos/FreeRTOS/Source\timers.c **** /*-----------------------------------------------------------*/
 692:C:/Users/stapi/OneDrive/Desktop/GD32VW553/V1_MQTT_OK/GD32VW55X_Wifi_BLE_SDK/GD32VW55x_RELEASE_V1.0.2/MSDK/rtos/FreeRTOS/Source\timers.c **** 
 693:C:/Users/stapi/OneDrive/Desktop/GD32VW553/V1_MQTT_OK/GD32VW55X_Wifi_BLE_SDK/GD32VW55x_RELEASE_V1.0.2/MSDK/rtos/FreeRTOS/Source\timers.c **** static BaseType_t prvInsertTimerInActiveList( Timer_t * const pxTimer, const TickType_t xNextExpiry
 694:C:/Users/stapi/OneDrive/Desktop/GD32VW553/V1_MQTT_OK/GD32VW55X_Wifi_BLE_SDK/GD32VW55x_RELEASE_V1.0.2/MSDK/rtos/FreeRTOS/Source\timers.c **** {
 695:C:/Users/stapi/OneDrive/Desktop/GD32VW553/V1_MQTT_OK/GD32VW55X_Wifi_BLE_SDK/GD32VW55x_RELEASE_V1.0.2/MSDK/rtos/FreeRTOS/Source\timers.c **** BaseType_t xProcessTimerNow = pdFALSE;
 696:C:/Users/stapi/OneDrive/Desktop/GD32VW553/V1_MQTT_OK/GD32VW55X_Wifi_BLE_SDK/GD32VW55x_RELEASE_V1.0.2/MSDK/rtos/FreeRTOS/Source\timers.c **** 
 697:C:/Users/stapi/OneDrive/Desktop/GD32VW553/V1_MQTT_OK/GD32VW55X_Wifi_BLE_SDK/GD32VW55x_RELEASE_V1.0.2/MSDK/rtos/FreeRTOS/Source\timers.c **** 	listSET_LIST_ITEM_VALUE( &( pxTimer->xTimerListItem ), xNextExpiryTime );
 698:C:/Users/stapi/OneDrive/Desktop/GD32VW553/V1_MQTT_OK/GD32VW55X_Wifi_BLE_SDK/GD32VW55x_RELEASE_V1.0.2/MSDK/rtos/FreeRTOS/Source\timers.c **** 	listSET_LIST_ITEM_OWNER( &( pxTimer->xTimerListItem ), pxTimer );
 699:C:/Users/stapi/OneDrive/Desktop/GD32VW553/V1_MQTT_OK/GD32VW55X_Wifi_BLE_SDK/GD32VW55x_RELEASE_V1.0.2/MSDK/rtos/FreeRTOS/Source\timers.c **** 
 700:C:/Users/stapi/OneDrive/Desktop/GD32VW553/V1_MQTT_OK/GD32VW55X_Wifi_BLE_SDK/GD32VW55x_RELEASE_V1.0.2/MSDK/rtos/FreeRTOS/Source\timers.c **** 	if( xNextExpiryTime <= xTimeNow )
 701:C:/Users/stapi/OneDrive/Desktop/GD32VW553/V1_MQTT_OK/GD32VW55X_Wifi_BLE_SDK/GD32VW55x_RELEASE_V1.0.2/MSDK/rtos/FreeRTOS/Source\timers.c **** 	{
 702:C:/Users/stapi/OneDrive/Desktop/GD32VW553/V1_MQTT_OK/GD32VW55X_Wifi_BLE_SDK/GD32VW55x_RELEASE_V1.0.2/MSDK/rtos/FreeRTOS/Source\timers.c **** 		/* Has the expiry time elapsed between the command to start/reset a
 703:C:/Users/stapi/OneDrive/Desktop/GD32VW553/V1_MQTT_OK/GD32VW55X_Wifi_BLE_SDK/GD32VW55x_RELEASE_V1.0.2/MSDK/rtos/FreeRTOS/Source\timers.c **** 		timer was issued, and the time the command was processed? */
 704:C:/Users/stapi/OneDrive/Desktop/GD32VW553/V1_MQTT_OK/GD32VW55X_Wifi_BLE_SDK/GD32VW55x_RELEASE_V1.0.2/MSDK/rtos/FreeRTOS/Source\timers.c **** 		if( ( ( TickType_t ) ( xTimeNow - xCommandTime ) ) >= pxTimer->xTimerPeriodInTicks ) /*lint !e961
 705:C:/Users/stapi/OneDrive/Desktop/GD32VW553/V1_MQTT_OK/GD32VW55X_Wifi_BLE_SDK/GD32VW55x_RELEASE_V1.0.2/MSDK/rtos/FreeRTOS/Source\timers.c **** 		{
 706:C:/Users/stapi/OneDrive/Desktop/GD32VW553/V1_MQTT_OK/GD32VW55X_Wifi_BLE_SDK/GD32VW55x_RELEASE_V1.0.2/MSDK/rtos/FreeRTOS/Source\timers.c **** 			/* The time between a command being issued and the command being
 707:C:/Users/stapi/OneDrive/Desktop/GD32VW553/V1_MQTT_OK/GD32VW55X_Wifi_BLE_SDK/GD32VW55x_RELEASE_V1.0.2/MSDK/rtos/FreeRTOS/Source\timers.c **** 			processed actually exceeds the timers period.  */
 708:C:/Users/stapi/OneDrive/Desktop/GD32VW553/V1_MQTT_OK/GD32VW55X_Wifi_BLE_SDK/GD32VW55x_RELEASE_V1.0.2/MSDK/rtos/FreeRTOS/Source\timers.c **** 			xProcessTimerNow = pdTRUE;
 709:C:/Users/stapi/OneDrive/Desktop/GD32VW553/V1_MQTT_OK/GD32VW55X_Wifi_BLE_SDK/GD32VW55x_RELEASE_V1.0.2/MSDK/rtos/FreeRTOS/Source\timers.c **** 		}
 710:C:/Users/stapi/OneDrive/Desktop/GD32VW553/V1_MQTT_OK/GD32VW55X_Wifi_BLE_SDK/GD32VW55x_RELEASE_V1.0.2/MSDK/rtos/FreeRTOS/Source\timers.c **** 		else
 711:C:/Users/stapi/OneDrive/Desktop/GD32VW553/V1_MQTT_OK/GD32VW55X_Wifi_BLE_SDK/GD32VW55x_RELEASE_V1.0.2/MSDK/rtos/FreeRTOS/Source\timers.c **** 		{
 712:C:/Users/stapi/OneDrive/Desktop/GD32VW553/V1_MQTT_OK/GD32VW55X_Wifi_BLE_SDK/GD32VW55x_RELEASE_V1.0.2/MSDK/rtos/FreeRTOS/Source\timers.c **** 			vListInsert( pxOverflowTimerList, &( pxTimer->xTimerListItem ) );
 713:C:/Users/stapi/OneDrive/Desktop/GD32VW553/V1_MQTT_OK/GD32VW55X_Wifi_BLE_SDK/GD32VW55x_RELEASE_V1.0.2/MSDK/rtos/FreeRTOS/Source\timers.c **** 		}
 714:C:/Users/stapi/OneDrive/Desktop/GD32VW553/V1_MQTT_OK/GD32VW55X_Wifi_BLE_SDK/GD32VW55x_RELEASE_V1.0.2/MSDK/rtos/FreeRTOS/Source\timers.c **** 	}
 715:C:/Users/stapi/OneDrive/Desktop/GD32VW553/V1_MQTT_OK/GD32VW55X_Wifi_BLE_SDK/GD32VW55x_RELEASE_V1.0.2/MSDK/rtos/FreeRTOS/Source\timers.c **** 	else
 716:C:/Users/stapi/OneDrive/Desktop/GD32VW553/V1_MQTT_OK/GD32VW55X_Wifi_BLE_SDK/GD32VW55x_RELEASE_V1.0.2/MSDK/rtos/FreeRTOS/Source\timers.c **** 	{
 717:C:/Users/stapi/OneDrive/Desktop/GD32VW553/V1_MQTT_OK/GD32VW55X_Wifi_BLE_SDK/GD32VW55x_RELEASE_V1.0.2/MSDK/rtos/FreeRTOS/Source\timers.c **** 		if( ( xTimeNow < xCommandTime ) && ( xNextExpiryTime >= xCommandTime ) )
 718:C:/Users/stapi/OneDrive/Desktop/GD32VW553/V1_MQTT_OK/GD32VW55X_Wifi_BLE_SDK/GD32VW55x_RELEASE_V1.0.2/MSDK/rtos/FreeRTOS/Source\timers.c **** 		{
 719:C:/Users/stapi/OneDrive/Desktop/GD32VW553/V1_MQTT_OK/GD32VW55X_Wifi_BLE_SDK/GD32VW55x_RELEASE_V1.0.2/MSDK/rtos/FreeRTOS/Source\timers.c **** 			/* If, since the command was issued, the tick count has overflowed
 720:C:/Users/stapi/OneDrive/Desktop/GD32VW553/V1_MQTT_OK/GD32VW55X_Wifi_BLE_SDK/GD32VW55x_RELEASE_V1.0.2/MSDK/rtos/FreeRTOS/Source\timers.c **** 			but the expiry time has not, then the timer must have already passed
 721:C:/Users/stapi/OneDrive/Desktop/GD32VW553/V1_MQTT_OK/GD32VW55X_Wifi_BLE_SDK/GD32VW55x_RELEASE_V1.0.2/MSDK/rtos/FreeRTOS/Source\timers.c **** 			its expiry time and should be processed immediately. */
 722:C:/Users/stapi/OneDrive/Desktop/GD32VW553/V1_MQTT_OK/GD32VW55X_Wifi_BLE_SDK/GD32VW55x_RELEASE_V1.0.2/MSDK/rtos/FreeRTOS/Source\timers.c **** 			xProcessTimerNow = pdTRUE;
 723:C:/Users/stapi/OneDrive/Desktop/GD32VW553/V1_MQTT_OK/GD32VW55X_Wifi_BLE_SDK/GD32VW55x_RELEASE_V1.0.2/MSDK/rtos/FreeRTOS/Source\timers.c **** 		}
 724:C:/Users/stapi/OneDrive/Desktop/GD32VW553/V1_MQTT_OK/GD32VW55X_Wifi_BLE_SDK/GD32VW55x_RELEASE_V1.0.2/MSDK/rtos/FreeRTOS/Source\timers.c **** 		else
 725:C:/Users/stapi/OneDrive/Desktop/GD32VW553/V1_MQTT_OK/GD32VW55X_Wifi_BLE_SDK/GD32VW55x_RELEASE_V1.0.2/MSDK/rtos/FreeRTOS/Source\timers.c **** 		{
 726:C:/Users/stapi/OneDrive/Desktop/GD32VW553/V1_MQTT_OK/GD32VW55X_Wifi_BLE_SDK/GD32VW55x_RELEASE_V1.0.2/MSDK/rtos/FreeRTOS/Source\timers.c **** 			vListInsert( pxCurrentTimerList, &( pxTimer->xTimerListItem ) );
 727:C:/Users/stapi/OneDrive/Desktop/GD32VW553/V1_MQTT_OK/GD32VW55X_Wifi_BLE_SDK/GD32VW55x_RELEASE_V1.0.2/MSDK/rtos/FreeRTOS/Source\timers.c **** 		}
 728:C:/Users/stapi/OneDrive/Desktop/GD32VW553/V1_MQTT_OK/GD32VW55X_Wifi_BLE_SDK/GD32VW55x_RELEASE_V1.0.2/MSDK/rtos/FreeRTOS/Source\timers.c **** 	}
 729:C:/Users/stapi/OneDrive/Desktop/GD32VW553/V1_MQTT_OK/GD32VW55X_Wifi_BLE_SDK/GD32VW55x_RELEASE_V1.0.2/MSDK/rtos/FreeRTOS/Source\timers.c **** 
 730:C:/Users/stapi/OneDrive/Desktop/GD32VW553/V1_MQTT_OK/GD32VW55X_Wifi_BLE_SDK/GD32VW55x_RELEASE_V1.0.2/MSDK/rtos/FreeRTOS/Source\timers.c **** 	return xProcessTimerNow;
 731:C:/Users/stapi/OneDrive/Desktop/GD32VW553/V1_MQTT_OK/GD32VW55X_Wifi_BLE_SDK/GD32VW55x_RELEASE_V1.0.2/MSDK/rtos/FreeRTOS/Source\timers.c **** }
 732:C:/Users/stapi/OneDrive/Desktop/GD32VW553/V1_MQTT_OK/GD32VW55X_Wifi_BLE_SDK/GD32VW55x_RELEASE_V1.0.2/MSDK/rtos/FreeRTOS/Source\timers.c **** /*-----------------------------------------------------------*/
 733:C:/Users/stapi/OneDrive/Desktop/GD32VW553/V1_MQTT_OK/GD32VW55X_Wifi_BLE_SDK/GD32VW55x_RELEASE_V1.0.2/MSDK/rtos/FreeRTOS/Source\timers.c **** 
 734:C:/Users/stapi/OneDrive/Desktop/GD32VW553/V1_MQTT_OK/GD32VW55X_Wifi_BLE_SDK/GD32VW55x_RELEASE_V1.0.2/MSDK/rtos/FreeRTOS/Source\timers.c **** static void	prvProcessReceivedCommands( void )
 735:C:/Users/stapi/OneDrive/Desktop/GD32VW553/V1_MQTT_OK/GD32VW55X_Wifi_BLE_SDK/GD32VW55x_RELEASE_V1.0.2/MSDK/rtos/FreeRTOS/Source\timers.c **** {
 736:C:/Users/stapi/OneDrive/Desktop/GD32VW553/V1_MQTT_OK/GD32VW55X_Wifi_BLE_SDK/GD32VW55x_RELEASE_V1.0.2/MSDK/rtos/FreeRTOS/Source\timers.c **** DaemonTaskMessage_t xMessage;
 737:C:/Users/stapi/OneDrive/Desktop/GD32VW553/V1_MQTT_OK/GD32VW55X_Wifi_BLE_SDK/GD32VW55x_RELEASE_V1.0.2/MSDK/rtos/FreeRTOS/Source\timers.c **** Timer_t *pxTimer;
 738:C:/Users/stapi/OneDrive/Desktop/GD32VW553/V1_MQTT_OK/GD32VW55X_Wifi_BLE_SDK/GD32VW55x_RELEASE_V1.0.2/MSDK/rtos/FreeRTOS/Source\timers.c **** BaseType_t xTimerListsWereSwitched, xResult;
 739:C:/Users/stapi/OneDrive/Desktop/GD32VW553/V1_MQTT_OK/GD32VW55X_Wifi_BLE_SDK/GD32VW55x_RELEASE_V1.0.2/MSDK/rtos/FreeRTOS/Source\timers.c **** TickType_t xTimeNow;
 740:C:/Users/stapi/OneDrive/Desktop/GD32VW553/V1_MQTT_OK/GD32VW55X_Wifi_BLE_SDK/GD32VW55x_RELEASE_V1.0.2/MSDK/rtos/FreeRTOS/Source\timers.c **** 
 741:C:/Users/stapi/OneDrive/Desktop/GD32VW553/V1_MQTT_OK/GD32VW55X_Wifi_BLE_SDK/GD32VW55x_RELEASE_V1.0.2/MSDK/rtos/FreeRTOS/Source\timers.c **** 	while( xQueueReceive( xTimerQueue, &xMessage, tmrNO_DELAY ) != pdFAIL ) /*lint !e603 xMessage does
 742:C:/Users/stapi/OneDrive/Desktop/GD32VW553/V1_MQTT_OK/GD32VW55X_Wifi_BLE_SDK/GD32VW55x_RELEASE_V1.0.2/MSDK/rtos/FreeRTOS/Source\timers.c **** 	{
 743:C:/Users/stapi/OneDrive/Desktop/GD32VW553/V1_MQTT_OK/GD32VW55X_Wifi_BLE_SDK/GD32VW55x_RELEASE_V1.0.2/MSDK/rtos/FreeRTOS/Source\timers.c **** 		#if ( INCLUDE_xTimerPendFunctionCall == 1 )
 744:C:/Users/stapi/OneDrive/Desktop/GD32VW553/V1_MQTT_OK/GD32VW55X_Wifi_BLE_SDK/GD32VW55x_RELEASE_V1.0.2/MSDK/rtos/FreeRTOS/Source\timers.c **** 		{
 745:C:/Users/stapi/OneDrive/Desktop/GD32VW553/V1_MQTT_OK/GD32VW55X_Wifi_BLE_SDK/GD32VW55x_RELEASE_V1.0.2/MSDK/rtos/FreeRTOS/Source\timers.c **** 			/* Negative commands are pended function calls rather than timer
 746:C:/Users/stapi/OneDrive/Desktop/GD32VW553/V1_MQTT_OK/GD32VW55X_Wifi_BLE_SDK/GD32VW55x_RELEASE_V1.0.2/MSDK/rtos/FreeRTOS/Source\timers.c **** 			commands. */
 747:C:/Users/stapi/OneDrive/Desktop/GD32VW553/V1_MQTT_OK/GD32VW55X_Wifi_BLE_SDK/GD32VW55x_RELEASE_V1.0.2/MSDK/rtos/FreeRTOS/Source\timers.c **** 			if( xMessage.xMessageID < ( BaseType_t ) 0 )
 748:C:/Users/stapi/OneDrive/Desktop/GD32VW553/V1_MQTT_OK/GD32VW55X_Wifi_BLE_SDK/GD32VW55x_RELEASE_V1.0.2/MSDK/rtos/FreeRTOS/Source\timers.c **** 			{
 749:C:/Users/stapi/OneDrive/Desktop/GD32VW553/V1_MQTT_OK/GD32VW55X_Wifi_BLE_SDK/GD32VW55x_RELEASE_V1.0.2/MSDK/rtos/FreeRTOS/Source\timers.c **** 				const CallbackParameters_t * const pxCallback = &( xMessage.u.xCallbackParameters );
 750:C:/Users/stapi/OneDrive/Desktop/GD32VW553/V1_MQTT_OK/GD32VW55X_Wifi_BLE_SDK/GD32VW55x_RELEASE_V1.0.2/MSDK/rtos/FreeRTOS/Source\timers.c **** 
 751:C:/Users/stapi/OneDrive/Desktop/GD32VW553/V1_MQTT_OK/GD32VW55X_Wifi_BLE_SDK/GD32VW55x_RELEASE_V1.0.2/MSDK/rtos/FreeRTOS/Source\timers.c **** 				/* The timer uses the xCallbackParameters member to request a
 752:C:/Users/stapi/OneDrive/Desktop/GD32VW553/V1_MQTT_OK/GD32VW55X_Wifi_BLE_SDK/GD32VW55x_RELEASE_V1.0.2/MSDK/rtos/FreeRTOS/Source\timers.c **** 				callback be executed.  Check the callback is not NULL. */
 753:C:/Users/stapi/OneDrive/Desktop/GD32VW553/V1_MQTT_OK/GD32VW55X_Wifi_BLE_SDK/GD32VW55x_RELEASE_V1.0.2/MSDK/rtos/FreeRTOS/Source\timers.c **** 				configASSERT( pxCallback );
 754:C:/Users/stapi/OneDrive/Desktop/GD32VW553/V1_MQTT_OK/GD32VW55X_Wifi_BLE_SDK/GD32VW55x_RELEASE_V1.0.2/MSDK/rtos/FreeRTOS/Source\timers.c **** 
 755:C:/Users/stapi/OneDrive/Desktop/GD32VW553/V1_MQTT_OK/GD32VW55X_Wifi_BLE_SDK/GD32VW55x_RELEASE_V1.0.2/MSDK/rtos/FreeRTOS/Source\timers.c **** 				/* Call the function. */
 756:C:/Users/stapi/OneDrive/Desktop/GD32VW553/V1_MQTT_OK/GD32VW55X_Wifi_BLE_SDK/GD32VW55x_RELEASE_V1.0.2/MSDK/rtos/FreeRTOS/Source\timers.c **** 				pxCallback->pxCallbackFunction( pxCallback->pvParameter1, pxCallback->ulParameter2 );
 757:C:/Users/stapi/OneDrive/Desktop/GD32VW553/V1_MQTT_OK/GD32VW55X_Wifi_BLE_SDK/GD32VW55x_RELEASE_V1.0.2/MSDK/rtos/FreeRTOS/Source\timers.c **** 			}
 758:C:/Users/stapi/OneDrive/Desktop/GD32VW553/V1_MQTT_OK/GD32VW55X_Wifi_BLE_SDK/GD32VW55x_RELEASE_V1.0.2/MSDK/rtos/FreeRTOS/Source\timers.c **** 			else
 759:C:/Users/stapi/OneDrive/Desktop/GD32VW553/V1_MQTT_OK/GD32VW55X_Wifi_BLE_SDK/GD32VW55x_RELEASE_V1.0.2/MSDK/rtos/FreeRTOS/Source\timers.c **** 			{
 760:C:/Users/stapi/OneDrive/Desktop/GD32VW553/V1_MQTT_OK/GD32VW55X_Wifi_BLE_SDK/GD32VW55x_RELEASE_V1.0.2/MSDK/rtos/FreeRTOS/Source\timers.c **** 				mtCOVERAGE_TEST_MARKER();
 761:C:/Users/stapi/OneDrive/Desktop/GD32VW553/V1_MQTT_OK/GD32VW55X_Wifi_BLE_SDK/GD32VW55x_RELEASE_V1.0.2/MSDK/rtos/FreeRTOS/Source\timers.c **** 			}
 762:C:/Users/stapi/OneDrive/Desktop/GD32VW553/V1_MQTT_OK/GD32VW55X_Wifi_BLE_SDK/GD32VW55x_RELEASE_V1.0.2/MSDK/rtos/FreeRTOS/Source\timers.c **** 		}
 763:C:/Users/stapi/OneDrive/Desktop/GD32VW553/V1_MQTT_OK/GD32VW55X_Wifi_BLE_SDK/GD32VW55x_RELEASE_V1.0.2/MSDK/rtos/FreeRTOS/Source\timers.c **** 		#endif /* INCLUDE_xTimerPendFunctionCall */
 764:C:/Users/stapi/OneDrive/Desktop/GD32VW553/V1_MQTT_OK/GD32VW55X_Wifi_BLE_SDK/GD32VW55x_RELEASE_V1.0.2/MSDK/rtos/FreeRTOS/Source\timers.c **** 
 765:C:/Users/stapi/OneDrive/Desktop/GD32VW553/V1_MQTT_OK/GD32VW55X_Wifi_BLE_SDK/GD32VW55x_RELEASE_V1.0.2/MSDK/rtos/FreeRTOS/Source\timers.c **** 		/* Commands that are positive are timer commands rather than pended
 766:C:/Users/stapi/OneDrive/Desktop/GD32VW553/V1_MQTT_OK/GD32VW55X_Wifi_BLE_SDK/GD32VW55x_RELEASE_V1.0.2/MSDK/rtos/FreeRTOS/Source\timers.c **** 		function calls. */
 767:C:/Users/stapi/OneDrive/Desktop/GD32VW553/V1_MQTT_OK/GD32VW55X_Wifi_BLE_SDK/GD32VW55x_RELEASE_V1.0.2/MSDK/rtos/FreeRTOS/Source\timers.c **** 		if( xMessage.xMessageID >= ( BaseType_t ) 0 )
 768:C:/Users/stapi/OneDrive/Desktop/GD32VW553/V1_MQTT_OK/GD32VW55X_Wifi_BLE_SDK/GD32VW55x_RELEASE_V1.0.2/MSDK/rtos/FreeRTOS/Source\timers.c **** 		{
 769:C:/Users/stapi/OneDrive/Desktop/GD32VW553/V1_MQTT_OK/GD32VW55X_Wifi_BLE_SDK/GD32VW55x_RELEASE_V1.0.2/MSDK/rtos/FreeRTOS/Source\timers.c **** 			/* The messages uses the xTimerParameters member to work on a
 770:C:/Users/stapi/OneDrive/Desktop/GD32VW553/V1_MQTT_OK/GD32VW55X_Wifi_BLE_SDK/GD32VW55x_RELEASE_V1.0.2/MSDK/rtos/FreeRTOS/Source\timers.c **** 			software timer. */
 771:C:/Users/stapi/OneDrive/Desktop/GD32VW553/V1_MQTT_OK/GD32VW55X_Wifi_BLE_SDK/GD32VW55x_RELEASE_V1.0.2/MSDK/rtos/FreeRTOS/Source\timers.c **** 			pxTimer = xMessage.u.xTimerParameters.pxTimer;
 772:C:/Users/stapi/OneDrive/Desktop/GD32VW553/V1_MQTT_OK/GD32VW55X_Wifi_BLE_SDK/GD32VW55x_RELEASE_V1.0.2/MSDK/rtos/FreeRTOS/Source\timers.c **** 
 773:C:/Users/stapi/OneDrive/Desktop/GD32VW553/V1_MQTT_OK/GD32VW55X_Wifi_BLE_SDK/GD32VW55x_RELEASE_V1.0.2/MSDK/rtos/FreeRTOS/Source\timers.c **** 			if( listIS_CONTAINED_WITHIN( NULL, &( pxTimer->xTimerListItem ) ) == pdFALSE ) /*lint !e961. The
 774:C:/Users/stapi/OneDrive/Desktop/GD32VW553/V1_MQTT_OK/GD32VW55X_Wifi_BLE_SDK/GD32VW55x_RELEASE_V1.0.2/MSDK/rtos/FreeRTOS/Source\timers.c **** 			{
 775:C:/Users/stapi/OneDrive/Desktop/GD32VW553/V1_MQTT_OK/GD32VW55X_Wifi_BLE_SDK/GD32VW55x_RELEASE_V1.0.2/MSDK/rtos/FreeRTOS/Source\timers.c **** 				/* The timer is in a list, remove it. */
 776:C:/Users/stapi/OneDrive/Desktop/GD32VW553/V1_MQTT_OK/GD32VW55X_Wifi_BLE_SDK/GD32VW55x_RELEASE_V1.0.2/MSDK/rtos/FreeRTOS/Source\timers.c **** 				( void ) uxListRemove( &( pxTimer->xTimerListItem ) );
 777:C:/Users/stapi/OneDrive/Desktop/GD32VW553/V1_MQTT_OK/GD32VW55X_Wifi_BLE_SDK/GD32VW55x_RELEASE_V1.0.2/MSDK/rtos/FreeRTOS/Source\timers.c **** 			}
 778:C:/Users/stapi/OneDrive/Desktop/GD32VW553/V1_MQTT_OK/GD32VW55X_Wifi_BLE_SDK/GD32VW55x_RELEASE_V1.0.2/MSDK/rtos/FreeRTOS/Source\timers.c **** 			else
 779:C:/Users/stapi/OneDrive/Desktop/GD32VW553/V1_MQTT_OK/GD32VW55X_Wifi_BLE_SDK/GD32VW55x_RELEASE_V1.0.2/MSDK/rtos/FreeRTOS/Source\timers.c **** 			{
 780:C:/Users/stapi/OneDrive/Desktop/GD32VW553/V1_MQTT_OK/GD32VW55X_Wifi_BLE_SDK/GD32VW55x_RELEASE_V1.0.2/MSDK/rtos/FreeRTOS/Source\timers.c **** 				mtCOVERAGE_TEST_MARKER();
 781:C:/Users/stapi/OneDrive/Desktop/GD32VW553/V1_MQTT_OK/GD32VW55X_Wifi_BLE_SDK/GD32VW55x_RELEASE_V1.0.2/MSDK/rtos/FreeRTOS/Source\timers.c **** 			}
 782:C:/Users/stapi/OneDrive/Desktop/GD32VW553/V1_MQTT_OK/GD32VW55X_Wifi_BLE_SDK/GD32VW55x_RELEASE_V1.0.2/MSDK/rtos/FreeRTOS/Source\timers.c **** 
 783:C:/Users/stapi/OneDrive/Desktop/GD32VW553/V1_MQTT_OK/GD32VW55X_Wifi_BLE_SDK/GD32VW55x_RELEASE_V1.0.2/MSDK/rtos/FreeRTOS/Source\timers.c **** 			traceTIMER_COMMAND_RECEIVED( pxTimer, xMessage.xMessageID, xMessage.u.xTimerParameters.xMessageV
 784:C:/Users/stapi/OneDrive/Desktop/GD32VW553/V1_MQTT_OK/GD32VW55X_Wifi_BLE_SDK/GD32VW55x_RELEASE_V1.0.2/MSDK/rtos/FreeRTOS/Source\timers.c **** 
 785:C:/Users/stapi/OneDrive/Desktop/GD32VW553/V1_MQTT_OK/GD32VW55X_Wifi_BLE_SDK/GD32VW55x_RELEASE_V1.0.2/MSDK/rtos/FreeRTOS/Source\timers.c **** 			/* In this case the xTimerListsWereSwitched parameter is not used, but
 786:C:/Users/stapi/OneDrive/Desktop/GD32VW553/V1_MQTT_OK/GD32VW55X_Wifi_BLE_SDK/GD32VW55x_RELEASE_V1.0.2/MSDK/rtos/FreeRTOS/Source\timers.c **** 			it must be present in the function call.  prvSampleTimeNow() must be
 787:C:/Users/stapi/OneDrive/Desktop/GD32VW553/V1_MQTT_OK/GD32VW55X_Wifi_BLE_SDK/GD32VW55x_RELEASE_V1.0.2/MSDK/rtos/FreeRTOS/Source\timers.c **** 			called after the message is received from xTimerQueue so there is no
 788:C:/Users/stapi/OneDrive/Desktop/GD32VW553/V1_MQTT_OK/GD32VW55X_Wifi_BLE_SDK/GD32VW55x_RELEASE_V1.0.2/MSDK/rtos/FreeRTOS/Source\timers.c **** 			possibility of a higher priority task adding a message to the message
 789:C:/Users/stapi/OneDrive/Desktop/GD32VW553/V1_MQTT_OK/GD32VW55X_Wifi_BLE_SDK/GD32VW55x_RELEASE_V1.0.2/MSDK/rtos/FreeRTOS/Source\timers.c **** 			queue with a time that is ahead of the timer daemon task (because it
 790:C:/Users/stapi/OneDrive/Desktop/GD32VW553/V1_MQTT_OK/GD32VW55X_Wifi_BLE_SDK/GD32VW55x_RELEASE_V1.0.2/MSDK/rtos/FreeRTOS/Source\timers.c **** 			pre-empted the timer daemon task after the xTimeNow value was set). */
 791:C:/Users/stapi/OneDrive/Desktop/GD32VW553/V1_MQTT_OK/GD32VW55X_Wifi_BLE_SDK/GD32VW55x_RELEASE_V1.0.2/MSDK/rtos/FreeRTOS/Source\timers.c **** 			xTimeNow = prvSampleTimeNow( &xTimerListsWereSwitched );
 792:C:/Users/stapi/OneDrive/Desktop/GD32VW553/V1_MQTT_OK/GD32VW55X_Wifi_BLE_SDK/GD32VW55x_RELEASE_V1.0.2/MSDK/rtos/FreeRTOS/Source\timers.c **** 
 793:C:/Users/stapi/OneDrive/Desktop/GD32VW553/V1_MQTT_OK/GD32VW55X_Wifi_BLE_SDK/GD32VW55x_RELEASE_V1.0.2/MSDK/rtos/FreeRTOS/Source\timers.c **** 			switch( xMessage.xMessageID )
 794:C:/Users/stapi/OneDrive/Desktop/GD32VW553/V1_MQTT_OK/GD32VW55X_Wifi_BLE_SDK/GD32VW55x_RELEASE_V1.0.2/MSDK/rtos/FreeRTOS/Source\timers.c **** 			{
 795:C:/Users/stapi/OneDrive/Desktop/GD32VW553/V1_MQTT_OK/GD32VW55X_Wifi_BLE_SDK/GD32VW55x_RELEASE_V1.0.2/MSDK/rtos/FreeRTOS/Source\timers.c **** 				case tmrCOMMAND_START :
 796:C:/Users/stapi/OneDrive/Desktop/GD32VW553/V1_MQTT_OK/GD32VW55X_Wifi_BLE_SDK/GD32VW55x_RELEASE_V1.0.2/MSDK/rtos/FreeRTOS/Source\timers.c **** 				case tmrCOMMAND_START_FROM_ISR :
 797:C:/Users/stapi/OneDrive/Desktop/GD32VW553/V1_MQTT_OK/GD32VW55X_Wifi_BLE_SDK/GD32VW55x_RELEASE_V1.0.2/MSDK/rtos/FreeRTOS/Source\timers.c **** 				case tmrCOMMAND_RESET :
 798:C:/Users/stapi/OneDrive/Desktop/GD32VW553/V1_MQTT_OK/GD32VW55X_Wifi_BLE_SDK/GD32VW55x_RELEASE_V1.0.2/MSDK/rtos/FreeRTOS/Source\timers.c **** 				case tmrCOMMAND_RESET_FROM_ISR :
 799:C:/Users/stapi/OneDrive/Desktop/GD32VW553/V1_MQTT_OK/GD32VW55X_Wifi_BLE_SDK/GD32VW55x_RELEASE_V1.0.2/MSDK/rtos/FreeRTOS/Source\timers.c **** 				case tmrCOMMAND_START_DONT_TRACE :
 800:C:/Users/stapi/OneDrive/Desktop/GD32VW553/V1_MQTT_OK/GD32VW55X_Wifi_BLE_SDK/GD32VW55x_RELEASE_V1.0.2/MSDK/rtos/FreeRTOS/Source\timers.c **** 					/* Start or restart a timer. */
 801:C:/Users/stapi/OneDrive/Desktop/GD32VW553/V1_MQTT_OK/GD32VW55X_Wifi_BLE_SDK/GD32VW55x_RELEASE_V1.0.2/MSDK/rtos/FreeRTOS/Source\timers.c **** 					pxTimer->ucStatus |= tmrSTATUS_IS_ACTIVE;
 802:C:/Users/stapi/OneDrive/Desktop/GD32VW553/V1_MQTT_OK/GD32VW55X_Wifi_BLE_SDK/GD32VW55x_RELEASE_V1.0.2/MSDK/rtos/FreeRTOS/Source\timers.c **** 					if( prvInsertTimerInActiveList( pxTimer,  xMessage.u.xTimerParameters.xMessageValue + pxTimer-
 803:C:/Users/stapi/OneDrive/Desktop/GD32VW553/V1_MQTT_OK/GD32VW55X_Wifi_BLE_SDK/GD32VW55x_RELEASE_V1.0.2/MSDK/rtos/FreeRTOS/Source\timers.c **** 					{
 804:C:/Users/stapi/OneDrive/Desktop/GD32VW553/V1_MQTT_OK/GD32VW55X_Wifi_BLE_SDK/GD32VW55x_RELEASE_V1.0.2/MSDK/rtos/FreeRTOS/Source\timers.c **** 						/* The timer expired before it was added to the active
 805:C:/Users/stapi/OneDrive/Desktop/GD32VW553/V1_MQTT_OK/GD32VW55X_Wifi_BLE_SDK/GD32VW55x_RELEASE_V1.0.2/MSDK/rtos/FreeRTOS/Source\timers.c **** 						timer list.  Process it now. */
 806:C:/Users/stapi/OneDrive/Desktop/GD32VW553/V1_MQTT_OK/GD32VW55X_Wifi_BLE_SDK/GD32VW55x_RELEASE_V1.0.2/MSDK/rtos/FreeRTOS/Source\timers.c **** 						pxTimer->pxCallbackFunction( ( TimerHandle_t ) pxTimer );
 807:C:/Users/stapi/OneDrive/Desktop/GD32VW553/V1_MQTT_OK/GD32VW55X_Wifi_BLE_SDK/GD32VW55x_RELEASE_V1.0.2/MSDK/rtos/FreeRTOS/Source\timers.c **** 						traceTIMER_EXPIRED( pxTimer );
 808:C:/Users/stapi/OneDrive/Desktop/GD32VW553/V1_MQTT_OK/GD32VW55X_Wifi_BLE_SDK/GD32VW55x_RELEASE_V1.0.2/MSDK/rtos/FreeRTOS/Source\timers.c **** 
 809:C:/Users/stapi/OneDrive/Desktop/GD32VW553/V1_MQTT_OK/GD32VW55X_Wifi_BLE_SDK/GD32VW55x_RELEASE_V1.0.2/MSDK/rtos/FreeRTOS/Source\timers.c **** 						if( ( pxTimer->ucStatus & tmrSTATUS_IS_AUTORELOAD ) != 0 )
 810:C:/Users/stapi/OneDrive/Desktop/GD32VW553/V1_MQTT_OK/GD32VW55X_Wifi_BLE_SDK/GD32VW55x_RELEASE_V1.0.2/MSDK/rtos/FreeRTOS/Source\timers.c **** 						{
 811:C:/Users/stapi/OneDrive/Desktop/GD32VW553/V1_MQTT_OK/GD32VW55X_Wifi_BLE_SDK/GD32VW55x_RELEASE_V1.0.2/MSDK/rtos/FreeRTOS/Source\timers.c **** 							xResult = xTimerGenericCommand( pxTimer, tmrCOMMAND_START_DONT_TRACE, xMessage.u.xTimerParam
 812:C:/Users/stapi/OneDrive/Desktop/GD32VW553/V1_MQTT_OK/GD32VW55X_Wifi_BLE_SDK/GD32VW55x_RELEASE_V1.0.2/MSDK/rtos/FreeRTOS/Source\timers.c **** 							configASSERT( xResult );
 813:C:/Users/stapi/OneDrive/Desktop/GD32VW553/V1_MQTT_OK/GD32VW55X_Wifi_BLE_SDK/GD32VW55x_RELEASE_V1.0.2/MSDK/rtos/FreeRTOS/Source\timers.c **** 							( void ) xResult;
 814:C:/Users/stapi/OneDrive/Desktop/GD32VW553/V1_MQTT_OK/GD32VW55X_Wifi_BLE_SDK/GD32VW55x_RELEASE_V1.0.2/MSDK/rtos/FreeRTOS/Source\timers.c **** 						}
 815:C:/Users/stapi/OneDrive/Desktop/GD32VW553/V1_MQTT_OK/GD32VW55X_Wifi_BLE_SDK/GD32VW55x_RELEASE_V1.0.2/MSDK/rtos/FreeRTOS/Source\timers.c **** 						else
 816:C:/Users/stapi/OneDrive/Desktop/GD32VW553/V1_MQTT_OK/GD32VW55X_Wifi_BLE_SDK/GD32VW55x_RELEASE_V1.0.2/MSDK/rtos/FreeRTOS/Source\timers.c **** 						{
 817:C:/Users/stapi/OneDrive/Desktop/GD32VW553/V1_MQTT_OK/GD32VW55X_Wifi_BLE_SDK/GD32VW55x_RELEASE_V1.0.2/MSDK/rtos/FreeRTOS/Source\timers.c **** 							mtCOVERAGE_TEST_MARKER();
 818:C:/Users/stapi/OneDrive/Desktop/GD32VW553/V1_MQTT_OK/GD32VW55X_Wifi_BLE_SDK/GD32VW55x_RELEASE_V1.0.2/MSDK/rtos/FreeRTOS/Source\timers.c **** 						}
 819:C:/Users/stapi/OneDrive/Desktop/GD32VW553/V1_MQTT_OK/GD32VW55X_Wifi_BLE_SDK/GD32VW55x_RELEASE_V1.0.2/MSDK/rtos/FreeRTOS/Source\timers.c **** 					}
 820:C:/Users/stapi/OneDrive/Desktop/GD32VW553/V1_MQTT_OK/GD32VW55X_Wifi_BLE_SDK/GD32VW55x_RELEASE_V1.0.2/MSDK/rtos/FreeRTOS/Source\timers.c **** 					else
 821:C:/Users/stapi/OneDrive/Desktop/GD32VW553/V1_MQTT_OK/GD32VW55X_Wifi_BLE_SDK/GD32VW55x_RELEASE_V1.0.2/MSDK/rtos/FreeRTOS/Source\timers.c **** 					{
 822:C:/Users/stapi/OneDrive/Desktop/GD32VW553/V1_MQTT_OK/GD32VW55X_Wifi_BLE_SDK/GD32VW55x_RELEASE_V1.0.2/MSDK/rtos/FreeRTOS/Source\timers.c **** 						mtCOVERAGE_TEST_MARKER();
 823:C:/Users/stapi/OneDrive/Desktop/GD32VW553/V1_MQTT_OK/GD32VW55X_Wifi_BLE_SDK/GD32VW55x_RELEASE_V1.0.2/MSDK/rtos/FreeRTOS/Source\timers.c **** 					}
 824:C:/Users/stapi/OneDrive/Desktop/GD32VW553/V1_MQTT_OK/GD32VW55X_Wifi_BLE_SDK/GD32VW55x_RELEASE_V1.0.2/MSDK/rtos/FreeRTOS/Source\timers.c **** 					break;
 825:C:/Users/stapi/OneDrive/Desktop/GD32VW553/V1_MQTT_OK/GD32VW55X_Wifi_BLE_SDK/GD32VW55x_RELEASE_V1.0.2/MSDK/rtos/FreeRTOS/Source\timers.c **** 
 826:C:/Users/stapi/OneDrive/Desktop/GD32VW553/V1_MQTT_OK/GD32VW55X_Wifi_BLE_SDK/GD32VW55x_RELEASE_V1.0.2/MSDK/rtos/FreeRTOS/Source\timers.c **** 				case tmrCOMMAND_STOP :
 827:C:/Users/stapi/OneDrive/Desktop/GD32VW553/V1_MQTT_OK/GD32VW55X_Wifi_BLE_SDK/GD32VW55x_RELEASE_V1.0.2/MSDK/rtos/FreeRTOS/Source\timers.c **** 				case tmrCOMMAND_STOP_FROM_ISR :
 828:C:/Users/stapi/OneDrive/Desktop/GD32VW553/V1_MQTT_OK/GD32VW55X_Wifi_BLE_SDK/GD32VW55x_RELEASE_V1.0.2/MSDK/rtos/FreeRTOS/Source\timers.c **** 					/* The timer has already been removed from the active list. */
 829:C:/Users/stapi/OneDrive/Desktop/GD32VW553/V1_MQTT_OK/GD32VW55X_Wifi_BLE_SDK/GD32VW55x_RELEASE_V1.0.2/MSDK/rtos/FreeRTOS/Source\timers.c **** 					pxTimer->ucStatus &= ~tmrSTATUS_IS_ACTIVE;
 830:C:/Users/stapi/OneDrive/Desktop/GD32VW553/V1_MQTT_OK/GD32VW55X_Wifi_BLE_SDK/GD32VW55x_RELEASE_V1.0.2/MSDK/rtos/FreeRTOS/Source\timers.c **** 					break;
 831:C:/Users/stapi/OneDrive/Desktop/GD32VW553/V1_MQTT_OK/GD32VW55X_Wifi_BLE_SDK/GD32VW55x_RELEASE_V1.0.2/MSDK/rtos/FreeRTOS/Source\timers.c **** 
 832:C:/Users/stapi/OneDrive/Desktop/GD32VW553/V1_MQTT_OK/GD32VW55X_Wifi_BLE_SDK/GD32VW55x_RELEASE_V1.0.2/MSDK/rtos/FreeRTOS/Source\timers.c **** 				case tmrCOMMAND_CHANGE_PERIOD :
 833:C:/Users/stapi/OneDrive/Desktop/GD32VW553/V1_MQTT_OK/GD32VW55X_Wifi_BLE_SDK/GD32VW55x_RELEASE_V1.0.2/MSDK/rtos/FreeRTOS/Source\timers.c **** 				case tmrCOMMAND_CHANGE_PERIOD_FROM_ISR :
 834:C:/Users/stapi/OneDrive/Desktop/GD32VW553/V1_MQTT_OK/GD32VW55X_Wifi_BLE_SDK/GD32VW55x_RELEASE_V1.0.2/MSDK/rtos/FreeRTOS/Source\timers.c **** 					pxTimer->ucStatus |= tmrSTATUS_IS_ACTIVE;
 835:C:/Users/stapi/OneDrive/Desktop/GD32VW553/V1_MQTT_OK/GD32VW55X_Wifi_BLE_SDK/GD32VW55x_RELEASE_V1.0.2/MSDK/rtos/FreeRTOS/Source\timers.c **** 					pxTimer->xTimerPeriodInTicks = xMessage.u.xTimerParameters.xMessageValue;
 836:C:/Users/stapi/OneDrive/Desktop/GD32VW553/V1_MQTT_OK/GD32VW55X_Wifi_BLE_SDK/GD32VW55x_RELEASE_V1.0.2/MSDK/rtos/FreeRTOS/Source\timers.c **** 					configASSERT( ( pxTimer->xTimerPeriodInTicks > 0 ) );
 837:C:/Users/stapi/OneDrive/Desktop/GD32VW553/V1_MQTT_OK/GD32VW55X_Wifi_BLE_SDK/GD32VW55x_RELEASE_V1.0.2/MSDK/rtos/FreeRTOS/Source\timers.c **** 
 838:C:/Users/stapi/OneDrive/Desktop/GD32VW553/V1_MQTT_OK/GD32VW55X_Wifi_BLE_SDK/GD32VW55x_RELEASE_V1.0.2/MSDK/rtos/FreeRTOS/Source\timers.c **** 					/* The new period does not really have a reference, and can
 839:C:/Users/stapi/OneDrive/Desktop/GD32VW553/V1_MQTT_OK/GD32VW55X_Wifi_BLE_SDK/GD32VW55x_RELEASE_V1.0.2/MSDK/rtos/FreeRTOS/Source\timers.c **** 					be longer or shorter than the old one.  The command time is
 840:C:/Users/stapi/OneDrive/Desktop/GD32VW553/V1_MQTT_OK/GD32VW55X_Wifi_BLE_SDK/GD32VW55x_RELEASE_V1.0.2/MSDK/rtos/FreeRTOS/Source\timers.c **** 					therefore set to the current time, and as the period cannot
 841:C:/Users/stapi/OneDrive/Desktop/GD32VW553/V1_MQTT_OK/GD32VW55X_Wifi_BLE_SDK/GD32VW55x_RELEASE_V1.0.2/MSDK/rtos/FreeRTOS/Source\timers.c **** 					be zero the next expiry time can only be in the future,
 842:C:/Users/stapi/OneDrive/Desktop/GD32VW553/V1_MQTT_OK/GD32VW55X_Wifi_BLE_SDK/GD32VW55x_RELEASE_V1.0.2/MSDK/rtos/FreeRTOS/Source\timers.c **** 					meaning (unlike for the xTimerStart() case above) there is
 843:C:/Users/stapi/OneDrive/Desktop/GD32VW553/V1_MQTT_OK/GD32VW55X_Wifi_BLE_SDK/GD32VW55x_RELEASE_V1.0.2/MSDK/rtos/FreeRTOS/Source\timers.c **** 					no fail case that needs to be handled here. */
 844:C:/Users/stapi/OneDrive/Desktop/GD32VW553/V1_MQTT_OK/GD32VW55X_Wifi_BLE_SDK/GD32VW55x_RELEASE_V1.0.2/MSDK/rtos/FreeRTOS/Source\timers.c **** 					( void ) prvInsertTimerInActiveList( pxTimer, ( xTimeNow + pxTimer->xTimerPeriodInTicks ), xTi
 845:C:/Users/stapi/OneDrive/Desktop/GD32VW553/V1_MQTT_OK/GD32VW55X_Wifi_BLE_SDK/GD32VW55x_RELEASE_V1.0.2/MSDK/rtos/FreeRTOS/Source\timers.c **** 					break;
 846:C:/Users/stapi/OneDrive/Desktop/GD32VW553/V1_MQTT_OK/GD32VW55X_Wifi_BLE_SDK/GD32VW55x_RELEASE_V1.0.2/MSDK/rtos/FreeRTOS/Source\timers.c **** 
 847:C:/Users/stapi/OneDrive/Desktop/GD32VW553/V1_MQTT_OK/GD32VW55X_Wifi_BLE_SDK/GD32VW55x_RELEASE_V1.0.2/MSDK/rtos/FreeRTOS/Source\timers.c **** 				case tmrCOMMAND_DELETE :
 848:C:/Users/stapi/OneDrive/Desktop/GD32VW553/V1_MQTT_OK/GD32VW55X_Wifi_BLE_SDK/GD32VW55x_RELEASE_V1.0.2/MSDK/rtos/FreeRTOS/Source\timers.c **** 					#if ( configSUPPORT_DYNAMIC_ALLOCATION == 1 )
 849:C:/Users/stapi/OneDrive/Desktop/GD32VW553/V1_MQTT_OK/GD32VW55X_Wifi_BLE_SDK/GD32VW55x_RELEASE_V1.0.2/MSDK/rtos/FreeRTOS/Source\timers.c **** 					{
 850:C:/Users/stapi/OneDrive/Desktop/GD32VW553/V1_MQTT_OK/GD32VW55X_Wifi_BLE_SDK/GD32VW55x_RELEASE_V1.0.2/MSDK/rtos/FreeRTOS/Source\timers.c **** 						/* The timer has already been removed from the active list,
 851:C:/Users/stapi/OneDrive/Desktop/GD32VW553/V1_MQTT_OK/GD32VW55X_Wifi_BLE_SDK/GD32VW55x_RELEASE_V1.0.2/MSDK/rtos/FreeRTOS/Source\timers.c **** 						just free up the memory if the memory was dynamically
 852:C:/Users/stapi/OneDrive/Desktop/GD32VW553/V1_MQTT_OK/GD32VW55X_Wifi_BLE_SDK/GD32VW55x_RELEASE_V1.0.2/MSDK/rtos/FreeRTOS/Source\timers.c **** 						allocated. */
 853:C:/Users/stapi/OneDrive/Desktop/GD32VW553/V1_MQTT_OK/GD32VW55X_Wifi_BLE_SDK/GD32VW55x_RELEASE_V1.0.2/MSDK/rtos/FreeRTOS/Source\timers.c **** 						if( ( pxTimer->ucStatus & tmrSTATUS_IS_STATICALLY_ALLOCATED ) == ( uint8_t ) 0 )
 854:C:/Users/stapi/OneDrive/Desktop/GD32VW553/V1_MQTT_OK/GD32VW55X_Wifi_BLE_SDK/GD32VW55x_RELEASE_V1.0.2/MSDK/rtos/FreeRTOS/Source\timers.c **** 						{
 855:C:/Users/stapi/OneDrive/Desktop/GD32VW553/V1_MQTT_OK/GD32VW55X_Wifi_BLE_SDK/GD32VW55x_RELEASE_V1.0.2/MSDK/rtos/FreeRTOS/Source\timers.c **** 							vPortFree( pxTimer );
 856:C:/Users/stapi/OneDrive/Desktop/GD32VW553/V1_MQTT_OK/GD32VW55X_Wifi_BLE_SDK/GD32VW55x_RELEASE_V1.0.2/MSDK/rtos/FreeRTOS/Source\timers.c **** 						}
 857:C:/Users/stapi/OneDrive/Desktop/GD32VW553/V1_MQTT_OK/GD32VW55X_Wifi_BLE_SDK/GD32VW55x_RELEASE_V1.0.2/MSDK/rtos/FreeRTOS/Source\timers.c **** 						else
 858:C:/Users/stapi/OneDrive/Desktop/GD32VW553/V1_MQTT_OK/GD32VW55X_Wifi_BLE_SDK/GD32VW55x_RELEASE_V1.0.2/MSDK/rtos/FreeRTOS/Source\timers.c **** 						{
 859:C:/Users/stapi/OneDrive/Desktop/GD32VW553/V1_MQTT_OK/GD32VW55X_Wifi_BLE_SDK/GD32VW55x_RELEASE_V1.0.2/MSDK/rtos/FreeRTOS/Source\timers.c **** 							pxTimer->ucStatus &= ~tmrSTATUS_IS_ACTIVE;
 860:C:/Users/stapi/OneDrive/Desktop/GD32VW553/V1_MQTT_OK/GD32VW55X_Wifi_BLE_SDK/GD32VW55x_RELEASE_V1.0.2/MSDK/rtos/FreeRTOS/Source\timers.c **** 						}
 861:C:/Users/stapi/OneDrive/Desktop/GD32VW553/V1_MQTT_OK/GD32VW55X_Wifi_BLE_SDK/GD32VW55x_RELEASE_V1.0.2/MSDK/rtos/FreeRTOS/Source\timers.c **** 					}
 862:C:/Users/stapi/OneDrive/Desktop/GD32VW553/V1_MQTT_OK/GD32VW55X_Wifi_BLE_SDK/GD32VW55x_RELEASE_V1.0.2/MSDK/rtos/FreeRTOS/Source\timers.c **** 					#else
 863:C:/Users/stapi/OneDrive/Desktop/GD32VW553/V1_MQTT_OK/GD32VW55X_Wifi_BLE_SDK/GD32VW55x_RELEASE_V1.0.2/MSDK/rtos/FreeRTOS/Source\timers.c **** 					{
 864:C:/Users/stapi/OneDrive/Desktop/GD32VW553/V1_MQTT_OK/GD32VW55X_Wifi_BLE_SDK/GD32VW55x_RELEASE_V1.0.2/MSDK/rtos/FreeRTOS/Source\timers.c **** 						/* If dynamic allocation is not enabled, the memory
 865:C:/Users/stapi/OneDrive/Desktop/GD32VW553/V1_MQTT_OK/GD32VW55X_Wifi_BLE_SDK/GD32VW55x_RELEASE_V1.0.2/MSDK/rtos/FreeRTOS/Source\timers.c **** 						could not have been dynamically allocated. So there is
 866:C:/Users/stapi/OneDrive/Desktop/GD32VW553/V1_MQTT_OK/GD32VW55X_Wifi_BLE_SDK/GD32VW55x_RELEASE_V1.0.2/MSDK/rtos/FreeRTOS/Source\timers.c **** 						no need to free the memory - just mark the timer as
 867:C:/Users/stapi/OneDrive/Desktop/GD32VW553/V1_MQTT_OK/GD32VW55X_Wifi_BLE_SDK/GD32VW55x_RELEASE_V1.0.2/MSDK/rtos/FreeRTOS/Source\timers.c **** 						"not active". */
 868:C:/Users/stapi/OneDrive/Desktop/GD32VW553/V1_MQTT_OK/GD32VW55X_Wifi_BLE_SDK/GD32VW55x_RELEASE_V1.0.2/MSDK/rtos/FreeRTOS/Source\timers.c **** 						pxTimer->ucStatus &= ~tmrSTATUS_IS_ACTIVE;
 869:C:/Users/stapi/OneDrive/Desktop/GD32VW553/V1_MQTT_OK/GD32VW55X_Wifi_BLE_SDK/GD32VW55x_RELEASE_V1.0.2/MSDK/rtos/FreeRTOS/Source\timers.c **** 					}
 870:C:/Users/stapi/OneDrive/Desktop/GD32VW553/V1_MQTT_OK/GD32VW55X_Wifi_BLE_SDK/GD32VW55x_RELEASE_V1.0.2/MSDK/rtos/FreeRTOS/Source\timers.c **** 					#endif /* configSUPPORT_DYNAMIC_ALLOCATION */
 871:C:/Users/stapi/OneDrive/Desktop/GD32VW553/V1_MQTT_OK/GD32VW55X_Wifi_BLE_SDK/GD32VW55x_RELEASE_V1.0.2/MSDK/rtos/FreeRTOS/Source\timers.c **** 					break;
 872:C:/Users/stapi/OneDrive/Desktop/GD32VW553/V1_MQTT_OK/GD32VW55X_Wifi_BLE_SDK/GD32VW55x_RELEASE_V1.0.2/MSDK/rtos/FreeRTOS/Source\timers.c **** 
 873:C:/Users/stapi/OneDrive/Desktop/GD32VW553/V1_MQTT_OK/GD32VW55X_Wifi_BLE_SDK/GD32VW55x_RELEASE_V1.0.2/MSDK/rtos/FreeRTOS/Source\timers.c **** 				default	:
 874:C:/Users/stapi/OneDrive/Desktop/GD32VW553/V1_MQTT_OK/GD32VW55X_Wifi_BLE_SDK/GD32VW55x_RELEASE_V1.0.2/MSDK/rtos/FreeRTOS/Source\timers.c **** 					/* Don't expect to get here. */
 875:C:/Users/stapi/OneDrive/Desktop/GD32VW553/V1_MQTT_OK/GD32VW55X_Wifi_BLE_SDK/GD32VW55x_RELEASE_V1.0.2/MSDK/rtos/FreeRTOS/Source\timers.c **** 					break;
 876:C:/Users/stapi/OneDrive/Desktop/GD32VW553/V1_MQTT_OK/GD32VW55X_Wifi_BLE_SDK/GD32VW55x_RELEASE_V1.0.2/MSDK/rtos/FreeRTOS/Source\timers.c **** 			}
 877:C:/Users/stapi/OneDrive/Desktop/GD32VW553/V1_MQTT_OK/GD32VW55X_Wifi_BLE_SDK/GD32VW55x_RELEASE_V1.0.2/MSDK/rtos/FreeRTOS/Source\timers.c **** 		}
 878:C:/Users/stapi/OneDrive/Desktop/GD32VW553/V1_MQTT_OK/GD32VW55X_Wifi_BLE_SDK/GD32VW55x_RELEASE_V1.0.2/MSDK/rtos/FreeRTOS/Source\timers.c **** 	}
 879:C:/Users/stapi/OneDrive/Desktop/GD32VW553/V1_MQTT_OK/GD32VW55X_Wifi_BLE_SDK/GD32VW55x_RELEASE_V1.0.2/MSDK/rtos/FreeRTOS/Source\timers.c **** }
 880:C:/Users/stapi/OneDrive/Desktop/GD32VW553/V1_MQTT_OK/GD32VW55X_Wifi_BLE_SDK/GD32VW55x_RELEASE_V1.0.2/MSDK/rtos/FreeRTOS/Source\timers.c **** /*-----------------------------------------------------------*/
 881:C:/Users/stapi/OneDrive/Desktop/GD32VW553/V1_MQTT_OK/GD32VW55X_Wifi_BLE_SDK/GD32VW55x_RELEASE_V1.0.2/MSDK/rtos/FreeRTOS/Source\timers.c **** 
 882:C:/Users/stapi/OneDrive/Desktop/GD32VW553/V1_MQTT_OK/GD32VW55X_Wifi_BLE_SDK/GD32VW55x_RELEASE_V1.0.2/MSDK/rtos/FreeRTOS/Source\timers.c **** static void prvSwitchTimerLists( void )
 883:C:/Users/stapi/OneDrive/Desktop/GD32VW553/V1_MQTT_OK/GD32VW55X_Wifi_BLE_SDK/GD32VW55x_RELEASE_V1.0.2/MSDK/rtos/FreeRTOS/Source\timers.c **** {
 884:C:/Users/stapi/OneDrive/Desktop/GD32VW553/V1_MQTT_OK/GD32VW55X_Wifi_BLE_SDK/GD32VW55x_RELEASE_V1.0.2/MSDK/rtos/FreeRTOS/Source\timers.c **** TickType_t xNextExpireTime, xReloadTime;
 885:C:/Users/stapi/OneDrive/Desktop/GD32VW553/V1_MQTT_OK/GD32VW55X_Wifi_BLE_SDK/GD32VW55x_RELEASE_V1.0.2/MSDK/rtos/FreeRTOS/Source\timers.c **** List_t *pxTemp;
 886:C:/Users/stapi/OneDrive/Desktop/GD32VW553/V1_MQTT_OK/GD32VW55X_Wifi_BLE_SDK/GD32VW55x_RELEASE_V1.0.2/MSDK/rtos/FreeRTOS/Source\timers.c **** Timer_t *pxTimer;
 887:C:/Users/stapi/OneDrive/Desktop/GD32VW553/V1_MQTT_OK/GD32VW55X_Wifi_BLE_SDK/GD32VW55x_RELEASE_V1.0.2/MSDK/rtos/FreeRTOS/Source\timers.c **** BaseType_t xResult;
 888:C:/Users/stapi/OneDrive/Desktop/GD32VW553/V1_MQTT_OK/GD32VW55X_Wifi_BLE_SDK/GD32VW55x_RELEASE_V1.0.2/MSDK/rtos/FreeRTOS/Source\timers.c **** 
 889:C:/Users/stapi/OneDrive/Desktop/GD32VW553/V1_MQTT_OK/GD32VW55X_Wifi_BLE_SDK/GD32VW55x_RELEASE_V1.0.2/MSDK/rtos/FreeRTOS/Source\timers.c **** 	/* The tick count has overflowed.  The timer lists must be switched.
 890:C:/Users/stapi/OneDrive/Desktop/GD32VW553/V1_MQTT_OK/GD32VW55X_Wifi_BLE_SDK/GD32VW55x_RELEASE_V1.0.2/MSDK/rtos/FreeRTOS/Source\timers.c **** 	If there are any timers still referenced from the current timer list
 891:C:/Users/stapi/OneDrive/Desktop/GD32VW553/V1_MQTT_OK/GD32VW55X_Wifi_BLE_SDK/GD32VW55x_RELEASE_V1.0.2/MSDK/rtos/FreeRTOS/Source\timers.c **** 	then they must have expired and should be processed before the lists
 892:C:/Users/stapi/OneDrive/Desktop/GD32VW553/V1_MQTT_OK/GD32VW55X_Wifi_BLE_SDK/GD32VW55x_RELEASE_V1.0.2/MSDK/rtos/FreeRTOS/Source\timers.c **** 	are switched. */
 893:C:/Users/stapi/OneDrive/Desktop/GD32VW553/V1_MQTT_OK/GD32VW55X_Wifi_BLE_SDK/GD32VW55x_RELEASE_V1.0.2/MSDK/rtos/FreeRTOS/Source\timers.c **** 	while( listLIST_IS_EMPTY( pxCurrentTimerList ) == pdFALSE )
 894:C:/Users/stapi/OneDrive/Desktop/GD32VW553/V1_MQTT_OK/GD32VW55X_Wifi_BLE_SDK/GD32VW55x_RELEASE_V1.0.2/MSDK/rtos/FreeRTOS/Source\timers.c **** 	{
 895:C:/Users/stapi/OneDrive/Desktop/GD32VW553/V1_MQTT_OK/GD32VW55X_Wifi_BLE_SDK/GD32VW55x_RELEASE_V1.0.2/MSDK/rtos/FreeRTOS/Source\timers.c **** 		xNextExpireTime = listGET_ITEM_VALUE_OF_HEAD_ENTRY( pxCurrentTimerList );
 896:C:/Users/stapi/OneDrive/Desktop/GD32VW553/V1_MQTT_OK/GD32VW55X_Wifi_BLE_SDK/GD32VW55x_RELEASE_V1.0.2/MSDK/rtos/FreeRTOS/Source\timers.c **** 
 897:C:/Users/stapi/OneDrive/Desktop/GD32VW553/V1_MQTT_OK/GD32VW55X_Wifi_BLE_SDK/GD32VW55x_RELEASE_V1.0.2/MSDK/rtos/FreeRTOS/Source\timers.c **** 		/* Remove the timer from the list. */
 898:C:/Users/stapi/OneDrive/Desktop/GD32VW553/V1_MQTT_OK/GD32VW55X_Wifi_BLE_SDK/GD32VW55x_RELEASE_V1.0.2/MSDK/rtos/FreeRTOS/Source\timers.c **** 		pxTimer = ( Timer_t * ) listGET_OWNER_OF_HEAD_ENTRY( pxCurrentTimerList ); /*lint !e9087 !e9079 v
 899:C:/Users/stapi/OneDrive/Desktop/GD32VW553/V1_MQTT_OK/GD32VW55X_Wifi_BLE_SDK/GD32VW55x_RELEASE_V1.0.2/MSDK/rtos/FreeRTOS/Source\timers.c **** 		( void ) uxListRemove( &( pxTimer->xTimerListItem ) );
 900:C:/Users/stapi/OneDrive/Desktop/GD32VW553/V1_MQTT_OK/GD32VW55X_Wifi_BLE_SDK/GD32VW55x_RELEASE_V1.0.2/MSDK/rtos/FreeRTOS/Source\timers.c **** 		traceTIMER_EXPIRED( pxTimer );
 901:C:/Users/stapi/OneDrive/Desktop/GD32VW553/V1_MQTT_OK/GD32VW55X_Wifi_BLE_SDK/GD32VW55x_RELEASE_V1.0.2/MSDK/rtos/FreeRTOS/Source\timers.c **** 
 902:C:/Users/stapi/OneDrive/Desktop/GD32VW553/V1_MQTT_OK/GD32VW55X_Wifi_BLE_SDK/GD32VW55x_RELEASE_V1.0.2/MSDK/rtos/FreeRTOS/Source\timers.c **** 		/* Execute its callback, then send a command to restart the timer if
 903:C:/Users/stapi/OneDrive/Desktop/GD32VW553/V1_MQTT_OK/GD32VW55X_Wifi_BLE_SDK/GD32VW55x_RELEASE_V1.0.2/MSDK/rtos/FreeRTOS/Source\timers.c **** 		it is an auto-reload timer.  It cannot be restarted here as the lists
 904:C:/Users/stapi/OneDrive/Desktop/GD32VW553/V1_MQTT_OK/GD32VW55X_Wifi_BLE_SDK/GD32VW55x_RELEASE_V1.0.2/MSDK/rtos/FreeRTOS/Source\timers.c **** 		have not yet been switched. */
 905:C:/Users/stapi/OneDrive/Desktop/GD32VW553/V1_MQTT_OK/GD32VW55X_Wifi_BLE_SDK/GD32VW55x_RELEASE_V1.0.2/MSDK/rtos/FreeRTOS/Source\timers.c **** 		pxTimer->pxCallbackFunction( ( TimerHandle_t ) pxTimer );
 906:C:/Users/stapi/OneDrive/Desktop/GD32VW553/V1_MQTT_OK/GD32VW55X_Wifi_BLE_SDK/GD32VW55x_RELEASE_V1.0.2/MSDK/rtos/FreeRTOS/Source\timers.c **** 
 907:C:/Users/stapi/OneDrive/Desktop/GD32VW553/V1_MQTT_OK/GD32VW55X_Wifi_BLE_SDK/GD32VW55x_RELEASE_V1.0.2/MSDK/rtos/FreeRTOS/Source\timers.c **** 		if( ( pxTimer->ucStatus & tmrSTATUS_IS_AUTORELOAD ) != 0 )
 908:C:/Users/stapi/OneDrive/Desktop/GD32VW553/V1_MQTT_OK/GD32VW55X_Wifi_BLE_SDK/GD32VW55x_RELEASE_V1.0.2/MSDK/rtos/FreeRTOS/Source\timers.c **** 		{
 909:C:/Users/stapi/OneDrive/Desktop/GD32VW553/V1_MQTT_OK/GD32VW55X_Wifi_BLE_SDK/GD32VW55x_RELEASE_V1.0.2/MSDK/rtos/FreeRTOS/Source\timers.c **** 			/* Calculate the reload value, and if the reload value results in
 910:C:/Users/stapi/OneDrive/Desktop/GD32VW553/V1_MQTT_OK/GD32VW55X_Wifi_BLE_SDK/GD32VW55x_RELEASE_V1.0.2/MSDK/rtos/FreeRTOS/Source\timers.c **** 			the timer going into the same timer list then it has already expired
 911:C:/Users/stapi/OneDrive/Desktop/GD32VW553/V1_MQTT_OK/GD32VW55X_Wifi_BLE_SDK/GD32VW55x_RELEASE_V1.0.2/MSDK/rtos/FreeRTOS/Source\timers.c **** 			and the timer should be re-inserted into the current list so it is
 912:C:/Users/stapi/OneDrive/Desktop/GD32VW553/V1_MQTT_OK/GD32VW55X_Wifi_BLE_SDK/GD32VW55x_RELEASE_V1.0.2/MSDK/rtos/FreeRTOS/Source\timers.c **** 			processed again within this loop.  Otherwise a command should be sent
 913:C:/Users/stapi/OneDrive/Desktop/GD32VW553/V1_MQTT_OK/GD32VW55X_Wifi_BLE_SDK/GD32VW55x_RELEASE_V1.0.2/MSDK/rtos/FreeRTOS/Source\timers.c **** 			to restart the timer to ensure it is only inserted into a list after
 914:C:/Users/stapi/OneDrive/Desktop/GD32VW553/V1_MQTT_OK/GD32VW55X_Wifi_BLE_SDK/GD32VW55x_RELEASE_V1.0.2/MSDK/rtos/FreeRTOS/Source\timers.c **** 			the lists have been swapped. */
 915:C:/Users/stapi/OneDrive/Desktop/GD32VW553/V1_MQTT_OK/GD32VW55X_Wifi_BLE_SDK/GD32VW55x_RELEASE_V1.0.2/MSDK/rtos/FreeRTOS/Source\timers.c **** 			xReloadTime = ( xNextExpireTime + pxTimer->xTimerPeriodInTicks );
 916:C:/Users/stapi/OneDrive/Desktop/GD32VW553/V1_MQTT_OK/GD32VW55X_Wifi_BLE_SDK/GD32VW55x_RELEASE_V1.0.2/MSDK/rtos/FreeRTOS/Source\timers.c **** 			if( xReloadTime > xNextExpireTime )
 917:C:/Users/stapi/OneDrive/Desktop/GD32VW553/V1_MQTT_OK/GD32VW55X_Wifi_BLE_SDK/GD32VW55x_RELEASE_V1.0.2/MSDK/rtos/FreeRTOS/Source\timers.c **** 			{
 918:C:/Users/stapi/OneDrive/Desktop/GD32VW553/V1_MQTT_OK/GD32VW55X_Wifi_BLE_SDK/GD32VW55x_RELEASE_V1.0.2/MSDK/rtos/FreeRTOS/Source\timers.c **** 				listSET_LIST_ITEM_VALUE( &( pxTimer->xTimerListItem ), xReloadTime );
 919:C:/Users/stapi/OneDrive/Desktop/GD32VW553/V1_MQTT_OK/GD32VW55X_Wifi_BLE_SDK/GD32VW55x_RELEASE_V1.0.2/MSDK/rtos/FreeRTOS/Source\timers.c **** 				listSET_LIST_ITEM_OWNER( &( pxTimer->xTimerListItem ), pxTimer );
 920:C:/Users/stapi/OneDrive/Desktop/GD32VW553/V1_MQTT_OK/GD32VW55X_Wifi_BLE_SDK/GD32VW55x_RELEASE_V1.0.2/MSDK/rtos/FreeRTOS/Source\timers.c **** 				vListInsert( pxCurrentTimerList, &( pxTimer->xTimerListItem ) );
 921:C:/Users/stapi/OneDrive/Desktop/GD32VW553/V1_MQTT_OK/GD32VW55X_Wifi_BLE_SDK/GD32VW55x_RELEASE_V1.0.2/MSDK/rtos/FreeRTOS/Source\timers.c **** 			}
 922:C:/Users/stapi/OneDrive/Desktop/GD32VW553/V1_MQTT_OK/GD32VW55X_Wifi_BLE_SDK/GD32VW55x_RELEASE_V1.0.2/MSDK/rtos/FreeRTOS/Source\timers.c **** 			else
 923:C:/Users/stapi/OneDrive/Desktop/GD32VW553/V1_MQTT_OK/GD32VW55X_Wifi_BLE_SDK/GD32VW55x_RELEASE_V1.0.2/MSDK/rtos/FreeRTOS/Source\timers.c **** 			{
 924:C:/Users/stapi/OneDrive/Desktop/GD32VW553/V1_MQTT_OK/GD32VW55X_Wifi_BLE_SDK/GD32VW55x_RELEASE_V1.0.2/MSDK/rtos/FreeRTOS/Source\timers.c **** 				xResult = xTimerGenericCommand( pxTimer, tmrCOMMAND_START_DONT_TRACE, xNextExpireTime, NULL, tm
 925:C:/Users/stapi/OneDrive/Desktop/GD32VW553/V1_MQTT_OK/GD32VW55X_Wifi_BLE_SDK/GD32VW55x_RELEASE_V1.0.2/MSDK/rtos/FreeRTOS/Source\timers.c **** 				configASSERT( xResult );
 926:C:/Users/stapi/OneDrive/Desktop/GD32VW553/V1_MQTT_OK/GD32VW55X_Wifi_BLE_SDK/GD32VW55x_RELEASE_V1.0.2/MSDK/rtos/FreeRTOS/Source\timers.c **** 				( void ) xResult;
 927:C:/Users/stapi/OneDrive/Desktop/GD32VW553/V1_MQTT_OK/GD32VW55X_Wifi_BLE_SDK/GD32VW55x_RELEASE_V1.0.2/MSDK/rtos/FreeRTOS/Source\timers.c **** 			}
 928:C:/Users/stapi/OneDrive/Desktop/GD32VW553/V1_MQTT_OK/GD32VW55X_Wifi_BLE_SDK/GD32VW55x_RELEASE_V1.0.2/MSDK/rtos/FreeRTOS/Source\timers.c **** 		}
 929:C:/Users/stapi/OneDrive/Desktop/GD32VW553/V1_MQTT_OK/GD32VW55X_Wifi_BLE_SDK/GD32VW55x_RELEASE_V1.0.2/MSDK/rtos/FreeRTOS/Source\timers.c **** 		else
 930:C:/Users/stapi/OneDrive/Desktop/GD32VW553/V1_MQTT_OK/GD32VW55X_Wifi_BLE_SDK/GD32VW55x_RELEASE_V1.0.2/MSDK/rtos/FreeRTOS/Source\timers.c **** 		{
 931:C:/Users/stapi/OneDrive/Desktop/GD32VW553/V1_MQTT_OK/GD32VW55X_Wifi_BLE_SDK/GD32VW55x_RELEASE_V1.0.2/MSDK/rtos/FreeRTOS/Source\timers.c **** 			mtCOVERAGE_TEST_MARKER();
 932:C:/Users/stapi/OneDrive/Desktop/GD32VW553/V1_MQTT_OK/GD32VW55X_Wifi_BLE_SDK/GD32VW55x_RELEASE_V1.0.2/MSDK/rtos/FreeRTOS/Source\timers.c **** 		}
 933:C:/Users/stapi/OneDrive/Desktop/GD32VW553/V1_MQTT_OK/GD32VW55X_Wifi_BLE_SDK/GD32VW55x_RELEASE_V1.0.2/MSDK/rtos/FreeRTOS/Source\timers.c **** 	}
 934:C:/Users/stapi/OneDrive/Desktop/GD32VW553/V1_MQTT_OK/GD32VW55X_Wifi_BLE_SDK/GD32VW55x_RELEASE_V1.0.2/MSDK/rtos/FreeRTOS/Source\timers.c **** 
 935:C:/Users/stapi/OneDrive/Desktop/GD32VW553/V1_MQTT_OK/GD32VW55X_Wifi_BLE_SDK/GD32VW55x_RELEASE_V1.0.2/MSDK/rtos/FreeRTOS/Source\timers.c **** 	pxTemp = pxCurrentTimerList;
 936:C:/Users/stapi/OneDrive/Desktop/GD32VW553/V1_MQTT_OK/GD32VW55X_Wifi_BLE_SDK/GD32VW55x_RELEASE_V1.0.2/MSDK/rtos/FreeRTOS/Source\timers.c **** 	pxCurrentTimerList = pxOverflowTimerList;
 937:C:/Users/stapi/OneDrive/Desktop/GD32VW553/V1_MQTT_OK/GD32VW55X_Wifi_BLE_SDK/GD32VW55x_RELEASE_V1.0.2/MSDK/rtos/FreeRTOS/Source\timers.c **** 	pxOverflowTimerList = pxTemp;
 938:C:/Users/stapi/OneDrive/Desktop/GD32VW553/V1_MQTT_OK/GD32VW55X_Wifi_BLE_SDK/GD32VW55x_RELEASE_V1.0.2/MSDK/rtos/FreeRTOS/Source\timers.c **** }
 939:C:/Users/stapi/OneDrive/Desktop/GD32VW553/V1_MQTT_OK/GD32VW55X_Wifi_BLE_SDK/GD32VW55x_RELEASE_V1.0.2/MSDK/rtos/FreeRTOS/Source\timers.c **** /*-----------------------------------------------------------*/
 940:C:/Users/stapi/OneDrive/Desktop/GD32VW553/V1_MQTT_OK/GD32VW55X_Wifi_BLE_SDK/GD32VW55x_RELEASE_V1.0.2/MSDK/rtos/FreeRTOS/Source\timers.c **** 
 941:C:/Users/stapi/OneDrive/Desktop/GD32VW553/V1_MQTT_OK/GD32VW55X_Wifi_BLE_SDK/GD32VW55x_RELEASE_V1.0.2/MSDK/rtos/FreeRTOS/Source\timers.c **** static void prvCheckForValidListAndQueue( void )
 942:C:/Users/stapi/OneDrive/Desktop/GD32VW553/V1_MQTT_OK/GD32VW55X_Wifi_BLE_SDK/GD32VW55x_RELEASE_V1.0.2/MSDK/rtos/FreeRTOS/Source\timers.c **** {
  15              		.loc 1 942 1
  16              		.cfi_startproc
  17 0000 17030000 		call	t0,__riscv_save_3
  17      E7020300 
  18              		.cfi_offset 18, -16
  19              		.cfi_offset 9, -12
  20              		.cfi_offset 8, -8
  21              		.cfi_offset 1, -4
  22              		.cfi_def_cfa_offset 16
 943:C:/Users/stapi/OneDrive/Desktop/GD32VW553/V1_MQTT_OK/GD32VW55X_Wifi_BLE_SDK/GD32VW55x_RELEASE_V1.0.2/MSDK/rtos/FreeRTOS/Source\timers.c **** 	/* Check that the list from which active timers are referenced, and the
 944:C:/Users/stapi/OneDrive/Desktop/GD32VW553/V1_MQTT_OK/GD32VW55X_Wifi_BLE_SDK/GD32VW55x_RELEASE_V1.0.2/MSDK/rtos/FreeRTOS/Source\timers.c **** 	queue used to communicate with the timer service, have been
 945:C:/Users/stapi/OneDrive/Desktop/GD32VW553/V1_MQTT_OK/GD32VW55X_Wifi_BLE_SDK/GD32VW55x_RELEASE_V1.0.2/MSDK/rtos/FreeRTOS/Source\timers.c **** 	initialised. */
 946:C:/Users/stapi/OneDrive/Desktop/GD32VW553/V1_MQTT_OK/GD32VW55X_Wifi_BLE_SDK/GD32VW55x_RELEASE_V1.0.2/MSDK/rtos/FreeRTOS/Source\timers.c **** 	taskENTER_CRITICAL();
  23              		.loc 1 946 2
 947:C:/Users/stapi/OneDrive/Desktop/GD32VW553/V1_MQTT_OK/GD32VW55X_Wifi_BLE_SDK/GD32VW55x_RELEASE_V1.0.2/MSDK/rtos/FreeRTOS/Source\timers.c **** 	{
 948:C:/Users/stapi/OneDrive/Desktop/GD32VW553/V1_MQTT_OK/GD32VW55X_Wifi_BLE_SDK/GD32VW55x_RELEASE_V1.0.2/MSDK/rtos/FreeRTOS/Source\timers.c **** 		if( xTimerQueue == NULL )
  24              		.loc 1 948 19 is_stmt 0
  25 0008 37040000 		lui	s0,%hi(.LANCHOR0)
 946:C:/Users/stapi/OneDrive/Desktop/GD32VW553/V1_MQTT_OK/GD32VW55X_Wifi_BLE_SDK/GD32VW55x_RELEASE_V1.0.2/MSDK/rtos/FreeRTOS/Source\timers.c **** 	{
  26              		.loc 1 946 2
  27 000c 97000000 		call	vPortEnterCritical
  27      E7800000 
  28              	.LVL0:
  29              		.loc 1 948 3 is_stmt 1
  30              		.loc 1 948 19 is_stmt 0
  31 0014 13040400 		addi	s0,s0,%lo(.LANCHOR0)
  32              		.loc 1 948 5
  33 0018 1C40     		lw	a5,0(s0)
  34 001a A9E7     		bne	a5,zero,.L2
 949:C:/Users/stapi/OneDrive/Desktop/GD32VW553/V1_MQTT_OK/GD32VW55X_Wifi_BLE_SDK/GD32VW55x_RELEASE_V1.0.2/MSDK/rtos/FreeRTOS/Source\timers.c **** 		{
 950:C:/Users/stapi/OneDrive/Desktop/GD32VW553/V1_MQTT_OK/GD32VW55X_Wifi_BLE_SDK/GD32VW55x_RELEASE_V1.0.2/MSDK/rtos/FreeRTOS/Source\timers.c **** 			vListInitialise( &xActiveTimerList1 );
  35              		.loc 1 950 4 is_stmt 1
  36 001c 37050000 		lui	a0,%hi(.LANCHOR1)
  37 0020 13090500 		addi	s2,a0,%lo(.LANCHOR1)
  38 0024 13050500 		addi	a0,a0,%lo(.LANCHOR1)
  39 0028 97000000 		call	vListInitialise
  39      E7800000 
  40              	.LVL1:
 951:C:/Users/stapi/OneDrive/Desktop/GD32VW553/V1_MQTT_OK/GD32VW55X_Wifi_BLE_SDK/GD32VW55x_RELEASE_V1.0.2/MSDK/rtos/FreeRTOS/Source\timers.c **** 			vListInitialise( &xActiveTimerList2 );
  41              		.loc 1 951 4
  42 0030 37050000 		lui	a0,%hi(.LANCHOR2)
  43 0034 93040500 		addi	s1,a0,%lo(.LANCHOR2)
  44 0038 13050500 		addi	a0,a0,%lo(.LANCHOR2)
  45 003c 97000000 		call	vListInitialise
  45      E7800000 
  46              	.LVL2:
 952:C:/Users/stapi/OneDrive/Desktop/GD32VW553/V1_MQTT_OK/GD32VW55X_Wifi_BLE_SDK/GD32VW55x_RELEASE_V1.0.2/MSDK/rtos/FreeRTOS/Source\timers.c **** 			pxCurrentTimerList = &xActiveTimerList1;
  47              		.loc 1 952 4
  48              		.loc 1 952 23 is_stmt 0
  49 0044 B7070000 		lui	a5,%hi(.LANCHOR3)
  50 0048 23A02701 		sw	s2,%lo(.LANCHOR3)(a5)
 953:C:/Users/stapi/OneDrive/Desktop/GD32VW553/V1_MQTT_OK/GD32VW55X_Wifi_BLE_SDK/GD32VW55x_RELEASE_V1.0.2/MSDK/rtos/FreeRTOS/Source\timers.c **** 			pxOverflowTimerList = &xActiveTimerList2;
  51              		.loc 1 953 4 is_stmt 1
 954:C:/Users/stapi/OneDrive/Desktop/GD32VW553/V1_MQTT_OK/GD32VW55X_Wifi_BLE_SDK/GD32VW55x_RELEASE_V1.0.2/MSDK/rtos/FreeRTOS/Source\timers.c **** 
 955:C:/Users/stapi/OneDrive/Desktop/GD32VW553/V1_MQTT_OK/GD32VW55X_Wifi_BLE_SDK/GD32VW55x_RELEASE_V1.0.2/MSDK/rtos/FreeRTOS/Source\timers.c **** 			#if( configSUPPORT_STATIC_ALLOCATION == 1 )
 956:C:/Users/stapi/OneDrive/Desktop/GD32VW553/V1_MQTT_OK/GD32VW55X_Wifi_BLE_SDK/GD32VW55x_RELEASE_V1.0.2/MSDK/rtos/FreeRTOS/Source\timers.c **** 			{
 957:C:/Users/stapi/OneDrive/Desktop/GD32VW553/V1_MQTT_OK/GD32VW55X_Wifi_BLE_SDK/GD32VW55x_RELEASE_V1.0.2/MSDK/rtos/FreeRTOS/Source\timers.c **** 				/* The timer queue is allocated statically in case
 958:C:/Users/stapi/OneDrive/Desktop/GD32VW553/V1_MQTT_OK/GD32VW55X_Wifi_BLE_SDK/GD32VW55x_RELEASE_V1.0.2/MSDK/rtos/FreeRTOS/Source\timers.c **** 				configSUPPORT_DYNAMIC_ALLOCATION is 0. */
 959:C:/Users/stapi/OneDrive/Desktop/GD32VW553/V1_MQTT_OK/GD32VW55X_Wifi_BLE_SDK/GD32VW55x_RELEASE_V1.0.2/MSDK/rtos/FreeRTOS/Source\timers.c **** 				static StaticQueue_t xStaticTimerQueue; /*lint !e956 Ok to declare in this manner to prevent ad
 960:C:/Users/stapi/OneDrive/Desktop/GD32VW553/V1_MQTT_OK/GD32VW55X_Wifi_BLE_SDK/GD32VW55x_RELEASE_V1.0.2/MSDK/rtos/FreeRTOS/Source\timers.c **** 				static uint8_t ucStaticTimerQueueStorage[ ( size_t ) configTIMER_QUEUE_LENGTH * sizeof( DaemonT
 961:C:/Users/stapi/OneDrive/Desktop/GD32VW553/V1_MQTT_OK/GD32VW55X_Wifi_BLE_SDK/GD32VW55x_RELEASE_V1.0.2/MSDK/rtos/FreeRTOS/Source\timers.c **** 
 962:C:/Users/stapi/OneDrive/Desktop/GD32VW553/V1_MQTT_OK/GD32VW55X_Wifi_BLE_SDK/GD32VW55x_RELEASE_V1.0.2/MSDK/rtos/FreeRTOS/Source\timers.c **** 				xTimerQueue = xQueueCreateStatic( ( UBaseType_t ) configTIMER_QUEUE_LENGTH, ( UBaseType_t ) siz
 963:C:/Users/stapi/OneDrive/Desktop/GD32VW553/V1_MQTT_OK/GD32VW55X_Wifi_BLE_SDK/GD32VW55x_RELEASE_V1.0.2/MSDK/rtos/FreeRTOS/Source\timers.c **** 			}
 964:C:/Users/stapi/OneDrive/Desktop/GD32VW553/V1_MQTT_OK/GD32VW55X_Wifi_BLE_SDK/GD32VW55x_RELEASE_V1.0.2/MSDK/rtos/FreeRTOS/Source\timers.c **** 			#else
 965:C:/Users/stapi/OneDrive/Desktop/GD32VW553/V1_MQTT_OK/GD32VW55X_Wifi_BLE_SDK/GD32VW55x_RELEASE_V1.0.2/MSDK/rtos/FreeRTOS/Source\timers.c **** 			{
 966:C:/Users/stapi/OneDrive/Desktop/GD32VW553/V1_MQTT_OK/GD32VW55X_Wifi_BLE_SDK/GD32VW55x_RELEASE_V1.0.2/MSDK/rtos/FreeRTOS/Source\timers.c **** 				xTimerQueue = xQueueCreate( ( UBaseType_t ) configTIMER_QUEUE_LENGTH, sizeof( DaemonTaskMessage
  52              		.loc 1 966 19 is_stmt 0
  53 004c 0146     		li	a2,0
 953:C:/Users/stapi/OneDrive/Desktop/GD32VW553/V1_MQTT_OK/GD32VW55X_Wifi_BLE_SDK/GD32VW55x_RELEASE_V1.0.2/MSDK/rtos/FreeRTOS/Source\timers.c **** 			pxOverflowTimerList = &xActiveTimerList2;
  54              		.loc 1 953 24
  55 004e B7070000 		lui	a5,%hi(.LANCHOR4)
  56              		.loc 1 966 19
  57 0052 E145     		li	a1,24
  58 0054 1545     		li	a0,5
 953:C:/Users/stapi/OneDrive/Desktop/GD32VW553/V1_MQTT_OK/GD32VW55X_Wifi_BLE_SDK/GD32VW55x_RELEASE_V1.0.2/MSDK/rtos/FreeRTOS/Source\timers.c **** 			pxOverflowTimerList = &xActiveTimerList2;
  59              		.loc 1 953 24
  60 0056 23A09700 		sw	s1,%lo(.LANCHOR4)(a5)
  61              		.loc 1 966 5 is_stmt 1
  62              		.loc 1 966 19 is_stmt 0
  63 005a 97000000 		call	xQueueGenericCreate
  63      E7800000 
  64              	.LVL3:
  65              		.loc 1 966 17
  66 0062 08C0     		sw	a0,0(s0)
  67              	.L2:
 967:C:/Users/stapi/OneDrive/Desktop/GD32VW553/V1_MQTT_OK/GD32VW55X_Wifi_BLE_SDK/GD32VW55x_RELEASE_V1.0.2/MSDK/rtos/FreeRTOS/Source\timers.c **** 			}
 968:C:/Users/stapi/OneDrive/Desktop/GD32VW553/V1_MQTT_OK/GD32VW55X_Wifi_BLE_SDK/GD32VW55x_RELEASE_V1.0.2/MSDK/rtos/FreeRTOS/Source\timers.c **** 			#endif
 969:C:/Users/stapi/OneDrive/Desktop/GD32VW553/V1_MQTT_OK/GD32VW55X_Wifi_BLE_SDK/GD32VW55x_RELEASE_V1.0.2/MSDK/rtos/FreeRTOS/Source\timers.c **** 
 970:C:/Users/stapi/OneDrive/Desktop/GD32VW553/V1_MQTT_OK/GD32VW55X_Wifi_BLE_SDK/GD32VW55x_RELEASE_V1.0.2/MSDK/rtos/FreeRTOS/Source\timers.c **** 			#if ( configQUEUE_REGISTRY_SIZE > 0 )
 971:C:/Users/stapi/OneDrive/Desktop/GD32VW553/V1_MQTT_OK/GD32VW55X_Wifi_BLE_SDK/GD32VW55x_RELEASE_V1.0.2/MSDK/rtos/FreeRTOS/Source\timers.c **** 			{
 972:C:/Users/stapi/OneDrive/Desktop/GD32VW553/V1_MQTT_OK/GD32VW55X_Wifi_BLE_SDK/GD32VW55x_RELEASE_V1.0.2/MSDK/rtos/FreeRTOS/Source\timers.c **** 				if( xTimerQueue != NULL )
 973:C:/Users/stapi/OneDrive/Desktop/GD32VW553/V1_MQTT_OK/GD32VW55X_Wifi_BLE_SDK/GD32VW55x_RELEASE_V1.0.2/MSDK/rtos/FreeRTOS/Source\timers.c **** 				{
 974:C:/Users/stapi/OneDrive/Desktop/GD32VW553/V1_MQTT_OK/GD32VW55X_Wifi_BLE_SDK/GD32VW55x_RELEASE_V1.0.2/MSDK/rtos/FreeRTOS/Source\timers.c **** 					vQueueAddToRegistry( xTimerQueue, "TmrQ" );
 975:C:/Users/stapi/OneDrive/Desktop/GD32VW553/V1_MQTT_OK/GD32VW55X_Wifi_BLE_SDK/GD32VW55x_RELEASE_V1.0.2/MSDK/rtos/FreeRTOS/Source\timers.c **** 				}
 976:C:/Users/stapi/OneDrive/Desktop/GD32VW553/V1_MQTT_OK/GD32VW55X_Wifi_BLE_SDK/GD32VW55x_RELEASE_V1.0.2/MSDK/rtos/FreeRTOS/Source\timers.c **** 				else
 977:C:/Users/stapi/OneDrive/Desktop/GD32VW553/V1_MQTT_OK/GD32VW55X_Wifi_BLE_SDK/GD32VW55x_RELEASE_V1.0.2/MSDK/rtos/FreeRTOS/Source\timers.c **** 				{
 978:C:/Users/stapi/OneDrive/Desktop/GD32VW553/V1_MQTT_OK/GD32VW55X_Wifi_BLE_SDK/GD32VW55x_RELEASE_V1.0.2/MSDK/rtos/FreeRTOS/Source\timers.c **** 					mtCOVERAGE_TEST_MARKER();
 979:C:/Users/stapi/OneDrive/Desktop/GD32VW553/V1_MQTT_OK/GD32VW55X_Wifi_BLE_SDK/GD32VW55x_RELEASE_V1.0.2/MSDK/rtos/FreeRTOS/Source\timers.c **** 				}
 980:C:/Users/stapi/OneDrive/Desktop/GD32VW553/V1_MQTT_OK/GD32VW55X_Wifi_BLE_SDK/GD32VW55x_RELEASE_V1.0.2/MSDK/rtos/FreeRTOS/Source\timers.c **** 			}
 981:C:/Users/stapi/OneDrive/Desktop/GD32VW553/V1_MQTT_OK/GD32VW55X_Wifi_BLE_SDK/GD32VW55x_RELEASE_V1.0.2/MSDK/rtos/FreeRTOS/Source\timers.c **** 			#endif /* configQUEUE_REGISTRY_SIZE */
 982:C:/Users/stapi/OneDrive/Desktop/GD32VW553/V1_MQTT_OK/GD32VW55X_Wifi_BLE_SDK/GD32VW55x_RELEASE_V1.0.2/MSDK/rtos/FreeRTOS/Source\timers.c **** 		}
 983:C:/Users/stapi/OneDrive/Desktop/GD32VW553/V1_MQTT_OK/GD32VW55X_Wifi_BLE_SDK/GD32VW55x_RELEASE_V1.0.2/MSDK/rtos/FreeRTOS/Source\timers.c **** 		else
 984:C:/Users/stapi/OneDrive/Desktop/GD32VW553/V1_MQTT_OK/GD32VW55X_Wifi_BLE_SDK/GD32VW55x_RELEASE_V1.0.2/MSDK/rtos/FreeRTOS/Source\timers.c **** 		{
 985:C:/Users/stapi/OneDrive/Desktop/GD32VW553/V1_MQTT_OK/GD32VW55X_Wifi_BLE_SDK/GD32VW55x_RELEASE_V1.0.2/MSDK/rtos/FreeRTOS/Source\timers.c **** 			mtCOVERAGE_TEST_MARKER();
  68              		.loc 1 985 28 is_stmt 1
 986:C:/Users/stapi/OneDrive/Desktop/GD32VW553/V1_MQTT_OK/GD32VW55X_Wifi_BLE_SDK/GD32VW55x_RELEASE_V1.0.2/MSDK/rtos/FreeRTOS/Source\timers.c **** 		}
 987:C:/Users/stapi/OneDrive/Desktop/GD32VW553/V1_MQTT_OK/GD32VW55X_Wifi_BLE_SDK/GD32VW55x_RELEASE_V1.0.2/MSDK/rtos/FreeRTOS/Source\timers.c **** 	}
 988:C:/Users/stapi/OneDrive/Desktop/GD32VW553/V1_MQTT_OK/GD32VW55X_Wifi_BLE_SDK/GD32VW55x_RELEASE_V1.0.2/MSDK/rtos/FreeRTOS/Source\timers.c **** 	taskEXIT_CRITICAL();
  69              		.loc 1 988 2
  70 0064 97000000 		call	vPortExitCritical
  70      E7800000 
  71              	.LVL4:
 989:C:/Users/stapi/OneDrive/Desktop/GD32VW553/V1_MQTT_OK/GD32VW55X_Wifi_BLE_SDK/GD32VW55x_RELEASE_V1.0.2/MSDK/rtos/FreeRTOS/Source\timers.c **** }
  72              		.loc 1 989 1 is_stmt 0
  73 006c 17030000 		tail	__riscv_restore_3
  73      67000300 
  74              		.cfi_restore 18
  75              		.cfi_restore 9
  76              		.cfi_restore 8
  77              		.cfi_restore 1
  78              		.cfi_def_cfa_offset 0
  79              		.cfi_endproc
  80              	.LFE18:
  82              		.section	.text.prvInsertTimerInActiveList,"ax",@progbits
  83              		.align	1
  85              	prvInsertTimerInActiveList:
  86              	.LFB15:
 694:C:/Users/stapi/OneDrive/Desktop/GD32VW553/V1_MQTT_OK/GD32VW55X_Wifi_BLE_SDK/GD32VW55x_RELEASE_V1.0.2/MSDK/rtos/FreeRTOS/Source\timers.c **** BaseType_t xProcessTimerNow = pdFALSE;
  87              		.loc 1 694 1 is_stmt 1
  88              		.cfi_startproc
  89              	.LVL5:
  90 0000 17030000 		call	t0,__riscv_save_0
  90      E7020300 
  91              		.cfi_offset 1, -4
  92              		.cfi_def_cfa_offset 16
 695:C:/Users/stapi/OneDrive/Desktop/GD32VW553/V1_MQTT_OK/GD32VW55X_Wifi_BLE_SDK/GD32VW55x_RELEASE_V1.0.2/MSDK/rtos/FreeRTOS/Source\timers.c **** 
  93              		.loc 1 695 1
  94              	.LVL6:
 697:C:/Users/stapi/OneDrive/Desktop/GD32VW553/V1_MQTT_OK/GD32VW55X_Wifi_BLE_SDK/GD32VW55x_RELEASE_V1.0.2/MSDK/rtos/FreeRTOS/Source\timers.c **** 	listSET_LIST_ITEM_OWNER( &( pxTimer->xTimerListItem ), pxTimer );
  95              		.loc 1 697 2
  96 0008 0CC5     		sw	a1,8(a0)
  97 000a 50C5     		sw	a2,12(a0)
 698:C:/Users/stapi/OneDrive/Desktop/GD32VW553/V1_MQTT_OK/GD32VW55X_Wifi_BLE_SDK/GD32VW55x_RELEASE_V1.0.2/MSDK/rtos/FreeRTOS/Source\timers.c **** 
  98              		.loc 1 698 2
  99 000c 08CD     		sw	a0,24(a0)
 700:C:/Users/stapi/OneDrive/Desktop/GD32VW553/V1_MQTT_OK/GD32VW55X_Wifi_BLE_SDK/GD32VW55x_RELEASE_V1.0.2/MSDK/rtos/FreeRTOS/Source\timers.c **** 	{
 100              		.loc 1 700 2
 700:C:/Users/stapi/OneDrive/Desktop/GD32VW553/V1_MQTT_OK/GD32VW55X_Wifi_BLE_SDK/GD32VW55x_RELEASE_V1.0.2/MSDK/rtos/FreeRTOS/Source\timers.c **** 	{
 101              		.loc 1 700 4 is_stmt 0
 102 000e 6364C704 		bgtu	a2,a4,.L5
 103 0012 6314E600 		bne	a2,a4,.L14
 104 0016 63E0B604 		bgtu	a1,a3,.L5
 105              	.L14:
 704:C:/Users/stapi/OneDrive/Desktop/GD32VW553/V1_MQTT_OK/GD32VW55X_Wifi_BLE_SDK/GD32VW55x_RELEASE_V1.0.2/MSDK/rtos/FreeRTOS/Source\timers.c **** 		{
 106              		.loc 1 704 3 is_stmt 1
 704:C:/Users/stapi/OneDrive/Desktop/GD32VW553/V1_MQTT_OK/GD32VW55X_Wifi_BLE_SDK/GD32VW55x_RELEASE_V1.0.2/MSDK/rtos/FreeRTOS/Source\timers.c **** 		{
 107              		.loc 1 704 9 is_stmt 0
 108 001a B387F640 		sub	a5,a3,a5
 109              	.LVL7:
 110 001e B3B6F600 		sgtu	a3,a5,a3
 111              	.LVL8:
 112 0022 33070741 		sub	a4,a4,a6
 113 0026 158F     		sub	a4,a4,a3
 704:C:/Users/stapi/OneDrive/Desktop/GD32VW553/V1_MQTT_OK/GD32VW55X_Wifi_BLE_SDK/GD32VW55x_RELEASE_V1.0.2/MSDK/rtos/FreeRTOS/Source\timers.c **** 		{
 114              		.loc 1 704 5
 115 0028 5451     		lw	a3,36(a0)
 116 002a 6367D700 		bgtu	a3,a4,.L15
 117 002e 6397E604 		bne	a3,a4,.L13
 118 0032 1851     		lw	a4,32(a0)
 119 0034 63F4E704 		bleu	a4,a5,.L13
 120              	.L15:
 121              	.LVL9:
 122              	.LBB4:
 123              	.LBB5:
 712:C:/Users/stapi/OneDrive/Desktop/GD32VW553/V1_MQTT_OK/GD32VW55X_Wifi_BLE_SDK/GD32VW55x_RELEASE_V1.0.2/MSDK/rtos/FreeRTOS/Source\timers.c **** 		}
 124              		.loc 1 712 4 is_stmt 1
 125 0038 B7070000 		lui	a5,%hi(.LANCHOR4)
 126 003c 93058500 		addi	a1,a0,8
 127              	.LVL10:
 128 0040 03A50700 		lw	a0,%lo(.LANCHOR4)(a5)
 129              	.LVL11:
 130              	.L18:
 131              	.LBE5:
 132              	.LBE4:
 726:C:/Users/stapi/OneDrive/Desktop/GD32VW553/V1_MQTT_OK/GD32VW55X_Wifi_BLE_SDK/GD32VW55x_RELEASE_V1.0.2/MSDK/rtos/FreeRTOS/Source\timers.c **** 		}
 133              		.loc 1 726 4 is_stmt 0
 134 0044 97000000 		call	vListInsert
 134      E7800000 
 135              	.LVL12:
 695:C:/Users/stapi/OneDrive/Desktop/GD32VW553/V1_MQTT_OK/GD32VW55X_Wifi_BLE_SDK/GD32VW55x_RELEASE_V1.0.2/MSDK/rtos/FreeRTOS/Source\timers.c **** 
 136              		.loc 1 695 12
 137 004c 0145     		li	a0,0
 138              	.LVL13:
 139              	.L4:
 731:C:/Users/stapi/OneDrive/Desktop/GD32VW553/V1_MQTT_OK/GD32VW55X_Wifi_BLE_SDK/GD32VW55x_RELEASE_V1.0.2/MSDK/rtos/FreeRTOS/Source\timers.c **** /*-----------------------------------------------------------*/
 140              		.loc 1 731 1
 141 004e 17030000 		tail	__riscv_restore_0
 141      67000300 
 142              		.cfi_remember_state
 143              		.cfi_restore 1
 144              		.cfi_def_cfa_offset 0
 145              	.LVL14:
 146              	.L5:
 147              		.cfi_restore_state
 717:C:/Users/stapi/OneDrive/Desktop/GD32VW553/V1_MQTT_OK/GD32VW55X_Wifi_BLE_SDK/GD32VW55x_RELEASE_V1.0.2/MSDK/rtos/FreeRTOS/Source\timers.c **** 		{
 148              		.loc 1 717 3 is_stmt 1
 717:C:/Users/stapi/OneDrive/Desktop/GD32VW553/V1_MQTT_OK/GD32VW55X_Wifi_BLE_SDK/GD32VW55x_RELEASE_V1.0.2/MSDK/rtos/FreeRTOS/Source\timers.c **** 		{
 149              		.loc 1 717 5 is_stmt 0
 150 0056 63660701 		bgtu	a6,a4,.L16
 151 005a 631AE800 		bne	a6,a4,.L9
 152 005e 63F8F600 		bleu	a5,a3,.L9
 153              	.L16:
 717:C:/Users/stapi/OneDrive/Desktop/GD32VW553/V1_MQTT_OK/GD32VW55X_Wifi_BLE_SDK/GD32VW55x_RELEASE_V1.0.2/MSDK/rtos/FreeRTOS/Source\timers.c **** 		{
 154              		.loc 1 717 35 discriminator 1
 155 0062 63660601 		bgtu	a6,a2,.L9
 156 0066 631BC800 		bne	a6,a2,.L13
 157 006a 63F9F500 		bleu	a5,a1,.L13
 158              	.L9:
 726:C:/Users/stapi/OneDrive/Desktop/GD32VW553/V1_MQTT_OK/GD32VW55X_Wifi_BLE_SDK/GD32VW55x_RELEASE_V1.0.2/MSDK/rtos/FreeRTOS/Source\timers.c **** 		}
 159              		.loc 1 726 4 is_stmt 1
 160 006e B7070000 		lui	a5,%hi(.LANCHOR3)
 161              	.LVL15:
 162 0072 93058500 		addi	a1,a0,8
 163              	.LVL16:
 164 0076 03A50700 		lw	a0,%lo(.LANCHOR3)(a5)
 165              	.LVL17:
 166 007a E9B7     		j	.L18
 167              	.LVL18:
 168              	.L13:
 708:C:/Users/stapi/OneDrive/Desktop/GD32VW553/V1_MQTT_OK/GD32VW55X_Wifi_BLE_SDK/GD32VW55x_RELEASE_V1.0.2/MSDK/rtos/FreeRTOS/Source\timers.c **** 		}
 169              		.loc 1 708 21 is_stmt 0
 170 007c 0545     		li	a0,1
 171              	.LVL19:
 730:C:/Users/stapi/OneDrive/Desktop/GD32VW553/V1_MQTT_OK/GD32VW55X_Wifi_BLE_SDK/GD32VW55x_RELEASE_V1.0.2/MSDK/rtos/FreeRTOS/Source\timers.c **** }
 172              		.loc 1 730 2 is_stmt 1
 730:C:/Users/stapi/OneDrive/Desktop/GD32VW553/V1_MQTT_OK/GD32VW55X_Wifi_BLE_SDK/GD32VW55x_RELEASE_V1.0.2/MSDK/rtos/FreeRTOS/Source\timers.c **** }
 173              		.loc 1 730 9 is_stmt 0
 174 007e C1BF     		j	.L4
 175              		.cfi_endproc
 176              	.LFE15:
 178              		.section	.rodata.xTimerCreateTimerTask.str1.4,"aMS",@progbits,1
 179              		.align	2
 180              	.LC0:
 181 0000 546D7220 		.string	"Tmr Svc"
 181      53766300 
 182              		.section	.text.xTimerCreateTimerTask,"ax",@progbits
 183              		.align	1
 184              		.globl	xTimerCreateTimerTask
 186              	xTimerCreateTimerTask:
 187              	.LFB0:
 228:C:/Users/stapi/OneDrive/Desktop/GD32VW553/V1_MQTT_OK/GD32VW55X_Wifi_BLE_SDK/GD32VW55x_RELEASE_V1.0.2/MSDK/rtos/FreeRTOS/Source\timers.c **** BaseType_t xReturn = pdFAIL;
 188              		.loc 1 228 1 is_stmt 1
 189              		.cfi_startproc
 190 0000 17030000 		call	t0,__riscv_save_0
 190      E7020300 
 191              		.cfi_offset 1, -4
 192              		.cfi_def_cfa_offset 16
 229:C:/Users/stapi/OneDrive/Desktop/GD32VW553/V1_MQTT_OK/GD32VW55X_Wifi_BLE_SDK/GD32VW55x_RELEASE_V1.0.2/MSDK/rtos/FreeRTOS/Source\timers.c **** 
 193              		.loc 1 229 1
 194              	.LVL20:
 235:C:/Users/stapi/OneDrive/Desktop/GD32VW553/V1_MQTT_OK/GD32VW55X_Wifi_BLE_SDK/GD32VW55x_RELEASE_V1.0.2/MSDK/rtos/FreeRTOS/Source\timers.c **** 
 195              		.loc 1 235 2
 196 0008 97000000 		call	prvCheckForValidListAndQueue
 196      E7800000 
 197              	.LVL21:
 237:C:/Users/stapi/OneDrive/Desktop/GD32VW553/V1_MQTT_OK/GD32VW55X_Wifi_BLE_SDK/GD32VW55x_RELEASE_V1.0.2/MSDK/rtos/FreeRTOS/Source\timers.c **** 	{
 198              		.loc 1 237 2
 237:C:/Users/stapi/OneDrive/Desktop/GD32VW553/V1_MQTT_OK/GD32VW55X_Wifi_BLE_SDK/GD32VW55x_RELEASE_V1.0.2/MSDK/rtos/FreeRTOS/Source\timers.c **** 	{
 199              		.loc 1 237 4 is_stmt 0
 200 0010 B7070000 		lui	a5,%hi(.LANCHOR0)
 201 0014 83A70700 		lw	a5,%lo(.LANCHOR0)(a5)
 202 0018 0145     		li	a0,0
 203 001a 8DC7     		beq	a5,zero,.L19
 261:C:/Users/stapi/OneDrive/Desktop/GD32VW553/V1_MQTT_OK/GD32VW55X_Wifi_BLE_SDK/GD32VW55x_RELEASE_V1.0.2/MSDK/rtos/FreeRTOS/Source\timers.c **** 									configTIMER_SERVICE_TASK_NAME,
 204              		.loc 1 261 4 is_stmt 1
 261:C:/Users/stapi/OneDrive/Desktop/GD32VW553/V1_MQTT_OK/GD32VW55X_Wifi_BLE_SDK/GD32VW55x_RELEASE_V1.0.2/MSDK/rtos/FreeRTOS/Source\timers.c **** 									configTIMER_SERVICE_TASK_NAME,
 205              		.loc 1 261 14 is_stmt 0
 206 001c B7070000 		lui	a5,%hi(.LANCHOR5)
 207 0020 B7050000 		lui	a1,%hi(.LC0)
 208 0024 37050000 		lui	a0,%hi(prvTimerTask)
 209 0028 93870700 		addi	a5,a5,%lo(.LANCHOR5)
 210 002c 4D47     		li	a4,19
 211 002e 8146     		li	a3,0
 212 0030 1306000E 		li	a2,224
 213 0034 93850500 		addi	a1,a1,%lo(.LC0)
 214 0038 13050500 		addi	a0,a0,%lo(prvTimerTask)
 215 003c 97000000 		call	xTaskCreate
 215      E7800000 
 216              	.LVL22:
 217              	.L19:
 277:C:/Users/stapi/OneDrive/Desktop/GD32VW553/V1_MQTT_OK/GD32VW55X_Wifi_BLE_SDK/GD32VW55x_RELEASE_V1.0.2/MSDK/rtos/FreeRTOS/Source\timers.c **** /*-----------------------------------------------------------*/
 218              		.loc 1 277 1
 219 0044 17030000 		tail	__riscv_restore_0
 219      67000300 
 220              		.cfi_restore 1
 221              		.cfi_def_cfa_offset 0
 222              		.cfi_endproc
 223              	.LFE0:
 225              		.section	.text.xTimerCreate,"ax",@progbits
 226              		.align	1
 227              		.globl	xTimerCreate
 229              	xTimerCreate:
 230              	.LFB1:
 287:C:/Users/stapi/OneDrive/Desktop/GD32VW553/V1_MQTT_OK/GD32VW55X_Wifi_BLE_SDK/GD32VW55x_RELEASE_V1.0.2/MSDK/rtos/FreeRTOS/Source\timers.c **** 	Timer_t *pxNewTimer;
 231              		.loc 1 287 2 is_stmt 1
 232              		.cfi_startproc
 233              	.LVL23:
 234 0000 17030000 		call	t0,__riscv_save_7
 234      E7020300 
 235              		.cfi_offset 22, -32
 236              		.cfi_offset 21, -28
 237              		.cfi_offset 20, -24
 238              		.cfi_offset 19, -20
 239              		.cfi_offset 18, -16
 240              		.cfi_offset 9, -12
 241              		.cfi_offset 8, -8
 242              		.cfi_offset 1, -4
 243              		.cfi_def_cfa_offset 32
 288:C:/Users/stapi/OneDrive/Desktop/GD32VW553/V1_MQTT_OK/GD32VW55X_Wifi_BLE_SDK/GD32VW55x_RELEASE_V1.0.2/MSDK/rtos/FreeRTOS/Source\timers.c **** 
 244              		.loc 1 288 2
 290:C:/Users/stapi/OneDrive/Desktop/GD32VW553/V1_MQTT_OK/GD32VW55X_Wifi_BLE_SDK/GD32VW55x_RELEASE_V1.0.2/MSDK/rtos/FreeRTOS/Source\timers.c **** 
 245              		.loc 1 290 3
 287:C:/Users/stapi/OneDrive/Desktop/GD32VW553/V1_MQTT_OK/GD32VW55X_Wifi_BLE_SDK/GD32VW55x_RELEASE_V1.0.2/MSDK/rtos/FreeRTOS/Source\timers.c **** 	Timer_t *pxNewTimer;
 246              		.loc 1 287 2 is_stmt 0
 247 0008 2A8B     		mv	s6,a0
 290:C:/Users/stapi/OneDrive/Desktop/GD32VW553/V1_MQTT_OK/GD32VW55X_Wifi_BLE_SDK/GD32VW55x_RELEASE_V1.0.2/MSDK/rtos/FreeRTOS/Source\timers.c **** 
 248              		.loc 1 290 30
 249 000a 13058003 		li	a0,56
 250              	.LVL24:
 287:C:/Users/stapi/OneDrive/Desktop/GD32VW553/V1_MQTT_OK/GD32VW55X_Wifi_BLE_SDK/GD32VW55x_RELEASE_V1.0.2/MSDK/rtos/FreeRTOS/Source\timers.c **** 	Timer_t *pxNewTimer;
 251              		.loc 1 287 2
 252 000e AE8A     		mv	s5,a1
 253 0010 328A     		mv	s4,a2
 254 0012 B684     		mv	s1,a3
 255 0014 BA89     		mv	s3,a4
 256 0016 3E89     		mv	s2,a5
 290:C:/Users/stapi/OneDrive/Desktop/GD32VW553/V1_MQTT_OK/GD32VW55X_Wifi_BLE_SDK/GD32VW55x_RELEASE_V1.0.2/MSDK/rtos/FreeRTOS/Source\timers.c **** 
 257              		.loc 1 290 30
 258 0018 97000000 		call	pvPortMalloc
 258      E7800000 
 259              	.LVL25:
 260 0020 2A84     		mv	s0,a0
 261              	.LVL26:
 292:C:/Users/stapi/OneDrive/Desktop/GD32VW553/V1_MQTT_OK/GD32VW55X_Wifi_BLE_SDK/GD32VW55x_RELEASE_V1.0.2/MSDK/rtos/FreeRTOS/Source\timers.c **** 		{
 262              		.loc 1 292 3 is_stmt 1
 292:C:/Users/stapi/OneDrive/Desktop/GD32VW553/V1_MQTT_OK/GD32VW55X_Wifi_BLE_SDK/GD32VW55x_RELEASE_V1.0.2/MSDK/rtos/FreeRTOS/Source\timers.c **** 		{
 263              		.loc 1 292 5 is_stmt 0
 264 0022 15CD     		beq	a0,zero,.L25
 297:C:/Users/stapi/OneDrive/Desktop/GD32VW553/V1_MQTT_OK/GD32VW55X_Wifi_BLE_SDK/GD32VW55x_RELEASE_V1.0.2/MSDK/rtos/FreeRTOS/Source\timers.c **** 			prvInitialiseNewTimer( pcTimerName, xTimerPeriodInTicks, uxAutoReload, pvTimerID, pxCallbackFunc
 265              		.loc 1 297 4 is_stmt 1
 297:C:/Users/stapi/OneDrive/Desktop/GD32VW553/V1_MQTT_OK/GD32VW55X_Wifi_BLE_SDK/GD32VW55x_RELEASE_V1.0.2/MSDK/rtos/FreeRTOS/Source\timers.c **** 			prvInitialiseNewTimer( pcTimerName, xTimerPeriodInTicks, uxAutoReload, pvTimerID, pxCallbackFunc
 266              		.loc 1 297 25 is_stmt 0
 267 0024 230A0502 		sb	zero,52(a0)
 298:C:/Users/stapi/OneDrive/Desktop/GD32VW553/V1_MQTT_OK/GD32VW55X_Wifi_BLE_SDK/GD32VW55x_RELEASE_V1.0.2/MSDK/rtos/FreeRTOS/Source\timers.c **** 		}
 268              		.loc 1 298 4 is_stmt 1
 269              	.LVL27:
 270              	.LBB8:
 271              	.LBB9:
 357:C:/Users/stapi/OneDrive/Desktop/GD32VW553/V1_MQTT_OK/GD32VW55X_Wifi_BLE_SDK/GD32VW55x_RELEASE_V1.0.2/MSDK/rtos/FreeRTOS/Source\timers.c **** 
 272              		.loc 1 357 45
 359:C:/Users/stapi/OneDrive/Desktop/GD32VW553/V1_MQTT_OK/GD32VW55X_Wifi_BLE_SDK/GD32VW55x_RELEASE_V1.0.2/MSDK/rtos/FreeRTOS/Source\timers.c **** 	{
 273              		.loc 1 359 2
 363:C:/Users/stapi/OneDrive/Desktop/GD32VW553/V1_MQTT_OK/GD32VW55X_Wifi_BLE_SDK/GD32VW55x_RELEASE_V1.0.2/MSDK/rtos/FreeRTOS/Source\timers.c **** 
 274              		.loc 1 363 3
 275 0028 97000000 		call	prvCheckForValidListAndQueue
 275      E7800000 
 276              	.LVL28:
 367:C:/Users/stapi/OneDrive/Desktop/GD32VW553/V1_MQTT_OK/GD32VW55X_Wifi_BLE_SDK/GD32VW55x_RELEASE_V1.0.2/MSDK/rtos/FreeRTOS/Source\timers.c **** 		pxNewTimer->xTimerPeriodInTicks = xTimerPeriodInTicks;
 277              		.loc 1 367 3
 371:C:/Users/stapi/OneDrive/Desktop/GD32VW553/V1_MQTT_OK/GD32VW55X_Wifi_BLE_SDK/GD32VW55x_RELEASE_V1.0.2/MSDK/rtos/FreeRTOS/Source\timers.c **** 		if( uxAutoReload != pdFALSE )
 278              		.loc 1 371 3 is_stmt 0
 279 0030 13058400 		addi	a0,s0,8
 367:C:/Users/stapi/OneDrive/Desktop/GD32VW553/V1_MQTT_OK/GD32VW55X_Wifi_BLE_SDK/GD32VW55x_RELEASE_V1.0.2/MSDK/rtos/FreeRTOS/Source\timers.c **** 		pxNewTimer->xTimerPeriodInTicks = xTimerPeriodInTicks;
 280              		.loc 1 367 27
 281 0034 23206401 		sw	s6,0(s0)
 368:C:/Users/stapi/OneDrive/Desktop/GD32VW553/V1_MQTT_OK/GD32VW55X_Wifi_BLE_SDK/GD32VW55x_RELEASE_V1.0.2/MSDK/rtos/FreeRTOS/Source\timers.c **** 		pxNewTimer->pvTimerID = pvTimerID;
 282              		.loc 1 368 3 is_stmt 1
 368:C:/Users/stapi/OneDrive/Desktop/GD32VW553/V1_MQTT_OK/GD32VW55X_Wifi_BLE_SDK/GD32VW55x_RELEASE_V1.0.2/MSDK/rtos/FreeRTOS/Source\timers.c **** 		pxNewTimer->pvTimerID = pvTimerID;
 283              		.loc 1 368 35 is_stmt 0
 284 0038 23205403 		sw	s5,32(s0)
 285 003c 23224403 		sw	s4,36(s0)
 369:C:/Users/stapi/OneDrive/Desktop/GD32VW553/V1_MQTT_OK/GD32VW55X_Wifi_BLE_SDK/GD32VW55x_RELEASE_V1.0.2/MSDK/rtos/FreeRTOS/Source\timers.c **** 		pxNewTimer->pxCallbackFunction = pxCallbackFunction;
 286              		.loc 1 369 3 is_stmt 1
 369:C:/Users/stapi/OneDrive/Desktop/GD32VW553/V1_MQTT_OK/GD32VW55X_Wifi_BLE_SDK/GD32VW55x_RELEASE_V1.0.2/MSDK/rtos/FreeRTOS/Source\timers.c **** 		pxNewTimer->pxCallbackFunction = pxCallbackFunction;
 287              		.loc 1 369 25 is_stmt 0
 288 0040 23243403 		sw	s3,40(s0)
 370:C:/Users/stapi/OneDrive/Desktop/GD32VW553/V1_MQTT_OK/GD32VW55X_Wifi_BLE_SDK/GD32VW55x_RELEASE_V1.0.2/MSDK/rtos/FreeRTOS/Source\timers.c **** 		vListInitialiseItem( &( pxNewTimer->xTimerListItem ) );
 289              		.loc 1 370 3 is_stmt 1
 370:C:/Users/stapi/OneDrive/Desktop/GD32VW553/V1_MQTT_OK/GD32VW55X_Wifi_BLE_SDK/GD32VW55x_RELEASE_V1.0.2/MSDK/rtos/FreeRTOS/Source\timers.c **** 		vListInitialiseItem( &( pxNewTimer->xTimerListItem ) );
 290              		.loc 1 370 34 is_stmt 0
 291 0044 23262403 		sw	s2,44(s0)
 371:C:/Users/stapi/OneDrive/Desktop/GD32VW553/V1_MQTT_OK/GD32VW55X_Wifi_BLE_SDK/GD32VW55x_RELEASE_V1.0.2/MSDK/rtos/FreeRTOS/Source\timers.c **** 		if( uxAutoReload != pdFALSE )
 292              		.loc 1 371 3 is_stmt 1
 293 0048 97000000 		call	vListInitialiseItem
 293      E7800000 
 294              	.LVL29:
 372:C:/Users/stapi/OneDrive/Desktop/GD32VW553/V1_MQTT_OK/GD32VW55X_Wifi_BLE_SDK/GD32VW55x_RELEASE_V1.0.2/MSDK/rtos/FreeRTOS/Source\timers.c **** 		{
 295              		.loc 1 372 3
 372:C:/Users/stapi/OneDrive/Desktop/GD32VW553/V1_MQTT_OK/GD32VW55X_Wifi_BLE_SDK/GD32VW55x_RELEASE_V1.0.2/MSDK/rtos/FreeRTOS/Source\timers.c **** 		{
 296              		.loc 1 372 5 is_stmt 0
 297 0050 99C4     		beq	s1,zero,.L25
 374:C:/Users/stapi/OneDrive/Desktop/GD32VW553/V1_MQTT_OK/GD32VW55X_Wifi_BLE_SDK/GD32VW55x_RELEASE_V1.0.2/MSDK/rtos/FreeRTOS/Source\timers.c **** 		}
 298              		.loc 1 374 4 is_stmt 1
 374:C:/Users/stapi/OneDrive/Desktop/GD32VW553/V1_MQTT_OK/GD32VW55X_Wifi_BLE_SDK/GD32VW55x_RELEASE_V1.0.2/MSDK/rtos/FreeRTOS/Source\timers.c **** 		}
 299              		.loc 1 374 25 is_stmt 0
 300 0052 83474403 		lbu	a5,52(s0)
 301 0056 93E74700 		ori	a5,a5,4
 302 005a 230AF402 		sb	a5,52(s0)
 303              	.LVL30:
 304              	.LBE9:
 305              	.LBE8:
 301:C:/Users/stapi/OneDrive/Desktop/GD32VW553/V1_MQTT_OK/GD32VW55X_Wifi_BLE_SDK/GD32VW55x_RELEASE_V1.0.2/MSDK/rtos/FreeRTOS/Source\timers.c **** 	}
 306              		.loc 1 301 3 is_stmt 1
 307              	.L25:
 302:C:/Users/stapi/OneDrive/Desktop/GD32VW553/V1_MQTT_OK/GD32VW55X_Wifi_BLE_SDK/GD32VW55x_RELEASE_V1.0.2/MSDK/rtos/FreeRTOS/Source\timers.c **** 
 308              		.loc 1 302 2 is_stmt 0
 309 005e 2285     		mv	a0,s0
 310 0060 17030000 		tail	__riscv_restore_7
 310      67000300 
 311              		.cfi_restore 22
 312              		.cfi_restore 21
 313              		.cfi_restore 20
 314              		.cfi_restore 19
 315              		.cfi_restore 18
 316              		.cfi_restore 9
 317              		.cfi_restore 8
 318              		.cfi_restore 1
 319              		.cfi_def_cfa_offset 0
 320              		.cfi_endproc
 321              	.LFE1:
 323              		.section	.text.xTimerGenericCommand,"ax",@progbits
 324              		.align	1
 325              		.globl	xTimerGenericCommand
 327              	xTimerGenericCommand:
 328              	.LFB3:
 382:C:/Users/stapi/OneDrive/Desktop/GD32VW553/V1_MQTT_OK/GD32VW55X_Wifi_BLE_SDK/GD32VW55x_RELEASE_V1.0.2/MSDK/rtos/FreeRTOS/Source\timers.c **** BaseType_t xReturn = pdFAIL;
 329              		.loc 1 382 1 is_stmt 1
 330              		.cfi_startproc
 331              	.LVL31:
 332 0000 17030000 		call	t0,__riscv_save_3
 332      E7020300 
 333              		.cfi_offset 18, -16
 334              		.cfi_offset 9, -12
 335              		.cfi_offset 8, -8
 336              		.cfi_offset 1, -4
 337              		.cfi_def_cfa_offset 16
 383:C:/Users/stapi/OneDrive/Desktop/GD32VW553/V1_MQTT_OK/GD32VW55X_Wifi_BLE_SDK/GD32VW55x_RELEASE_V1.0.2/MSDK/rtos/FreeRTOS/Source\timers.c **** DaemonTaskMessage_t xMessage;
 338              		.loc 1 383 1
 339              	.LVL32:
 384:C:/Users/stapi/OneDrive/Desktop/GD32VW553/V1_MQTT_OK/GD32VW55X_Wifi_BLE_SDK/GD32VW55x_RELEASE_V1.0.2/MSDK/rtos/FreeRTOS/Source\timers.c **** 
 340              		.loc 1 384 1
 386:C:/Users/stapi/OneDrive/Desktop/GD32VW553/V1_MQTT_OK/GD32VW55X_Wifi_BLE_SDK/GD32VW55x_RELEASE_V1.0.2/MSDK/rtos/FreeRTOS/Source\timers.c **** 
 341              		.loc 1 386 24
 390:C:/Users/stapi/OneDrive/Desktop/GD32VW553/V1_MQTT_OK/GD32VW55X_Wifi_BLE_SDK/GD32VW55x_RELEASE_V1.0.2/MSDK/rtos/FreeRTOS/Source\timers.c **** 	{
 342              		.loc 1 390 2
 390:C:/Users/stapi/OneDrive/Desktop/GD32VW553/V1_MQTT_OK/GD32VW55X_Wifi_BLE_SDK/GD32VW55x_RELEASE_V1.0.2/MSDK/rtos/FreeRTOS/Source\timers.c **** 	{
 343              		.loc 1 390 18 is_stmt 0
 344 0008 37040000 		lui	s0,%hi(.LANCHOR0)
 345 000c 13040400 		addi	s0,s0,%lo(.LANCHOR0)
 382:C:/Users/stapi/OneDrive/Desktop/GD32VW553/V1_MQTT_OK/GD32VW55X_Wifi_BLE_SDK/GD32VW55x_RELEASE_V1.0.2/MSDK/rtos/FreeRTOS/Source\timers.c **** BaseType_t xReturn = pdFAIL;
 346              		.loc 1 382 1
 347 0010 AA88     		mv	a7,a0
 390:C:/Users/stapi/OneDrive/Desktop/GD32VW553/V1_MQTT_OK/GD32VW55X_Wifi_BLE_SDK/GD32VW55x_RELEASE_V1.0.2/MSDK/rtos/FreeRTOS/Source\timers.c **** 	{
 348              		.loc 1 390 18
 349 0012 0840     		lw	a0,0(s0)
 350              	.LVL33:
 382:C:/Users/stapi/OneDrive/Desktop/GD32VW553/V1_MQTT_OK/GD32VW55X_Wifi_BLE_SDK/GD32VW55x_RELEASE_V1.0.2/MSDK/rtos/FreeRTOS/Source\timers.c **** BaseType_t xReturn = pdFAIL;
 351              		.loc 1 382 1
 352 0014 0111     		addi	sp,sp,-32
 353              		.cfi_def_cfa_offset 48
 390:C:/Users/stapi/OneDrive/Desktop/GD32VW553/V1_MQTT_OK/GD32VW55X_Wifi_BLE_SDK/GD32VW55x_RELEASE_V1.0.2/MSDK/rtos/FreeRTOS/Source\timers.c **** 	{
 354              		.loc 1 390 4
 355 0016 21CD     		beq	a0,zero,.L37
 356 0018 3E89     		mv	s2,a5
 393:C:/Users/stapi/OneDrive/Desktop/GD32VW553/V1_MQTT_OK/GD32VW55X_Wifi_BLE_SDK/GD32VW55x_RELEASE_V1.0.2/MSDK/rtos/FreeRTOS/Source\timers.c **** 		xMessage.u.xTimerParameters.xMessageValue = xOptionalValue;
 357              		.loc 1 393 3 is_stmt 1
 393:C:/Users/stapi/OneDrive/Desktop/GD32VW553/V1_MQTT_OK/GD32VW55X_Wifi_BLE_SDK/GD32VW55x_RELEASE_V1.0.2/MSDK/rtos/FreeRTOS/Source\timers.c **** 		xMessage.u.xTimerParameters.xMessageValue = xOptionalValue;
 358              		.loc 1 393 23 is_stmt 0
 359 001a 2EC4     		sw	a1,8(sp)
 394:C:/Users/stapi/OneDrive/Desktop/GD32VW553/V1_MQTT_OK/GD32VW55X_Wifi_BLE_SDK/GD32VW55x_RELEASE_V1.0.2/MSDK/rtos/FreeRTOS/Source\timers.c **** 		xMessage.u.xTimerParameters.pxTimer = xTimer;
 360              		.loc 1 394 3 is_stmt 1
 394:C:/Users/stapi/OneDrive/Desktop/GD32VW553/V1_MQTT_OK/GD32VW55X_Wifi_BLE_SDK/GD32VW55x_RELEASE_V1.0.2/MSDK/rtos/FreeRTOS/Source\timers.c **** 		xMessage.u.xTimerParameters.pxTimer = xTimer;
 361              		.loc 1 394 45 is_stmt 0
 362 001c 32C8     		sw	a2,16(sp)
 363 001e 36CA     		sw	a3,20(sp)
 395:C:/Users/stapi/OneDrive/Desktop/GD32VW553/V1_MQTT_OK/GD32VW55X_Wifi_BLE_SDK/GD32VW55x_RELEASE_V1.0.2/MSDK/rtos/FreeRTOS/Source\timers.c **** 
 364              		.loc 1 395 3 is_stmt 1
 395:C:/Users/stapi/OneDrive/Desktop/GD32VW553/V1_MQTT_OK/GD32VW55X_Wifi_BLE_SDK/GD32VW55x_RELEASE_V1.0.2/MSDK/rtos/FreeRTOS/Source\timers.c **** 
 365              		.loc 1 395 39 is_stmt 0
 366 0020 46CC     		sw	a7,24(sp)
 397:C:/Users/stapi/OneDrive/Desktop/GD32VW553/V1_MQTT_OK/GD32VW55X_Wifi_BLE_SDK/GD32VW55x_RELEASE_V1.0.2/MSDK/rtos/FreeRTOS/Source\timers.c **** 		{
 367              		.loc 1 397 3 is_stmt 1
 397:C:/Users/stapi/OneDrive/Desktop/GD32VW553/V1_MQTT_OK/GD32VW55X_Wifi_BLE_SDK/GD32VW55x_RELEASE_V1.0.2/MSDK/rtos/FreeRTOS/Source\timers.c **** 		{
 368              		.loc 1 397 5 is_stmt 0
 369 0022 9547     		li	a5,5
 370              	.LVL34:
 371 0024 63CDB702 		bgt	a1,a5,.L35
 372 0028 C284     		mv	s1,a6
 399:C:/Users/stapi/OneDrive/Desktop/GD32VW553/V1_MQTT_OK/GD32VW55X_Wifi_BLE_SDK/GD32VW55x_RELEASE_V1.0.2/MSDK/rtos/FreeRTOS/Source\timers.c **** 			{
 373              		.loc 1 399 4 is_stmt 1
 399:C:/Users/stapi/OneDrive/Desktop/GD32VW553/V1_MQTT_OK/GD32VW55X_Wifi_BLE_SDK/GD32VW55x_RELEASE_V1.0.2/MSDK/rtos/FreeRTOS/Source\timers.c **** 			{
 374              		.loc 1 399 8 is_stmt 0
 375 002a 97000000 		call	xTaskGetSchedulerState
 375      E7800000 
 376              	.LVL35:
 377 0032 2A87     		mv	a4,a0
 399:C:/Users/stapi/OneDrive/Desktop/GD32VW553/V1_MQTT_OK/GD32VW55X_Wifi_BLE_SDK/GD32VW55x_RELEASE_V1.0.2/MSDK/rtos/FreeRTOS/Source\timers.c **** 			{
 378              		.loc 1 399 6
 379 0034 8947     		li	a5,2
 380 0036 0840     		lw	a0,0(s0)
 381 0038 631FF700 		bne	a4,a5,.L36
 401:C:/Users/stapi/OneDrive/Desktop/GD32VW553/V1_MQTT_OK/GD32VW55X_Wifi_BLE_SDK/GD32VW55x_RELEASE_V1.0.2/MSDK/rtos/FreeRTOS/Source\timers.c **** 			}
 382              		.loc 1 401 5 is_stmt 1
 401:C:/Users/stapi/OneDrive/Desktop/GD32VW553/V1_MQTT_OK/GD32VW55X_Wifi_BLE_SDK/GD32VW55x_RELEASE_V1.0.2/MSDK/rtos/FreeRTOS/Source\timers.c **** 			}
 383              		.loc 1 401 15 is_stmt 0
 384 003c 0147     		li	a4,0
 385 003e 4A86     		mv	a2,s2
 386 0040 A686     		mv	a3,s1
 387              	.L39:
 405:C:/Users/stapi/OneDrive/Desktop/GD32VW553/V1_MQTT_OK/GD32VW55X_Wifi_BLE_SDK/GD32VW55x_RELEASE_V1.0.2/MSDK/rtos/FreeRTOS/Source\timers.c **** 			}
 388              		.loc 1 405 15
 389 0042 2C00     		addi	a1,sp,8
 390 0044 97000000 		call	xQueueGenericSend
 390      E7800000 
 391              	.LVL36:
 392              	.L33:
 421:C:/Users/stapi/OneDrive/Desktop/GD32VW553/V1_MQTT_OK/GD32VW55X_Wifi_BLE_SDK/GD32VW55x_RELEASE_V1.0.2/MSDK/rtos/FreeRTOS/Source\timers.c **** /*-----------------------------------------------------------*/
 393              		.loc 1 421 1
 394 004c 0561     		addi	sp,sp,32
 395              		.cfi_remember_state
 396              		.cfi_def_cfa_offset 0
 397 004e 17030000 		tail	__riscv_restore_3
 397      67000300 
 398              		.cfi_restore 18
 399              		.cfi_restore 9
 400              		.cfi_restore 8
 401              		.cfi_restore 1
 402              		.cfi_def_cfa_offset -16
 403              	.LVL37:
 404              	.L36:
 405              		.cfi_restore_state
 405:C:/Users/stapi/OneDrive/Desktop/GD32VW553/V1_MQTT_OK/GD32VW55X_Wifi_BLE_SDK/GD32VW55x_RELEASE_V1.0.2/MSDK/rtos/FreeRTOS/Source\timers.c **** 			}
 406              		.loc 1 405 5 is_stmt 1
 405:C:/Users/stapi/OneDrive/Desktop/GD32VW553/V1_MQTT_OK/GD32VW55X_Wifi_BLE_SDK/GD32VW55x_RELEASE_V1.0.2/MSDK/rtos/FreeRTOS/Source\timers.c **** 			}
 407              		.loc 1 405 15 is_stmt 0
 408 0056 0147     		li	a4,0
 409 0058 0146     		li	a2,0
 410 005a 8146     		li	a3,0
 411 005c DDB7     		j	.L39
 412              	.LVL38:
 413              	.L35:
 410:C:/Users/stapi/OneDrive/Desktop/GD32VW553/V1_MQTT_OK/GD32VW55X_Wifi_BLE_SDK/GD32VW55x_RELEASE_V1.0.2/MSDK/rtos/FreeRTOS/Source\timers.c **** 		}
 414              		.loc 1 410 4 is_stmt 1
 410:C:/Users/stapi/OneDrive/Desktop/GD32VW553/V1_MQTT_OK/GD32VW55X_Wifi_BLE_SDK/GD32VW55x_RELEASE_V1.0.2/MSDK/rtos/FreeRTOS/Source\timers.c **** 		}
 415              		.loc 1 410 14 is_stmt 0
 416 005e 8146     		li	a3,0
 417 0060 3A86     		mv	a2,a4
 418              	.LVL39:
 419 0062 2C00     		addi	a1,sp,8
 420              	.LVL40:
 421 0064 97000000 		call	xQueueGenericSendFromISR
 421      E7800000 
 422              	.LVL41:
 423 006c C5B7     		j	.L33
 424              	.LVL42:
 425              	.L37:
 383:C:/Users/stapi/OneDrive/Desktop/GD32VW553/V1_MQTT_OK/GD32VW55X_Wifi_BLE_SDK/GD32VW55x_RELEASE_V1.0.2/MSDK/rtos/FreeRTOS/Source\timers.c **** DaemonTaskMessage_t xMessage;
 426              		.loc 1 383 12
 427 006e 0145     		li	a0,0
 417:C:/Users/stapi/OneDrive/Desktop/GD32VW553/V1_MQTT_OK/GD32VW55X_Wifi_BLE_SDK/GD32VW55x_RELEASE_V1.0.2/MSDK/rtos/FreeRTOS/Source\timers.c **** 	}
 428              		.loc 1 417 27 is_stmt 1
 420:C:/Users/stapi/OneDrive/Desktop/GD32VW553/V1_MQTT_OK/GD32VW55X_Wifi_BLE_SDK/GD32VW55x_RELEASE_V1.0.2/MSDK/rtos/FreeRTOS/Source\timers.c **** }
 429              		.loc 1 420 2
 420:C:/Users/stapi/OneDrive/Desktop/GD32VW553/V1_MQTT_OK/GD32VW55X_Wifi_BLE_SDK/GD32VW55x_RELEASE_V1.0.2/MSDK/rtos/FreeRTOS/Source\timers.c **** }
 430              		.loc 1 420 9 is_stmt 0
 431 0070 F1BF     		j	.L33
 432              		.cfi_endproc
 433              	.LFE3:
 435              		.section	.text.prvSampleTimeNow,"ax",@progbits
 436              		.align	1
 438              	prvSampleTimeNow:
 439              	.LFB14:
 671:C:/Users/stapi/OneDrive/Desktop/GD32VW553/V1_MQTT_OK/GD32VW55X_Wifi_BLE_SDK/GD32VW55x_RELEASE_V1.0.2/MSDK/rtos/FreeRTOS/Source\timers.c **** TickType_t xTimeNow;
 440              		.loc 1 671 1 is_stmt 1
 441              		.cfi_startproc
 442              	.LVL43:
 443 0000 17030000 		call	t0,__riscv_save_7
 443      E7020300 
 444              		.cfi_offset 22, -32
 445              		.cfi_offset 21, -28
 446              		.cfi_offset 20, -24
 447              		.cfi_offset 19, -20
 448              		.cfi_offset 18, -16
 449              		.cfi_offset 9, -12
 450              		.cfi_offset 8, -8
 451              		.cfi_offset 1, -4
 452              		.cfi_def_cfa_offset 32
 672:C:/Users/stapi/OneDrive/Desktop/GD32VW553/V1_MQTT_OK/GD32VW55X_Wifi_BLE_SDK/GD32VW55x_RELEASE_V1.0.2/MSDK/rtos/FreeRTOS/Source\timers.c **** PRIVILEGED_DATA static TickType_t xLastTime = ( TickType_t ) 0U; /*lint !e956 Variable is only acce
 453              		.loc 1 672 1
 673:C:/Users/stapi/OneDrive/Desktop/GD32VW553/V1_MQTT_OK/GD32VW55X_Wifi_BLE_SDK/GD32VW55x_RELEASE_V1.0.2/MSDK/rtos/FreeRTOS/Source\timers.c **** 
 454              		.loc 1 673 17
 675:C:/Users/stapi/OneDrive/Desktop/GD32VW553/V1_MQTT_OK/GD32VW55X_Wifi_BLE_SDK/GD32VW55x_RELEASE_V1.0.2/MSDK/rtos/FreeRTOS/Source\timers.c **** 
 455              		.loc 1 675 2
 671:C:/Users/stapi/OneDrive/Desktop/GD32VW553/V1_MQTT_OK/GD32VW55X_Wifi_BLE_SDK/GD32VW55x_RELEASE_V1.0.2/MSDK/rtos/FreeRTOS/Source\timers.c **** TickType_t xTimeNow;
 456              		.loc 1 671 1 is_stmt 0
 457 0008 4111     		addi	sp,sp,-16
 458              		.cfi_def_cfa_offset 48
 677:C:/Users/stapi/OneDrive/Desktop/GD32VW553/V1_MQTT_OK/GD32VW55X_Wifi_BLE_SDK/GD32VW55x_RELEASE_V1.0.2/MSDK/rtos/FreeRTOS/Source\timers.c **** 	{
 459              		.loc 1 677 15
 460 000a 37090000 		lui	s2,%hi(.LANCHOR6)
 671:C:/Users/stapi/OneDrive/Desktop/GD32VW553/V1_MQTT_OK/GD32VW55X_Wifi_BLE_SDK/GD32VW55x_RELEASE_V1.0.2/MSDK/rtos/FreeRTOS/Source\timers.c **** TickType_t xTimeNow;
 461              		.loc 1 671 1
 462 000e 2A8A     		mv	s4,a0
 675:C:/Users/stapi/OneDrive/Desktop/GD32VW553/V1_MQTT_OK/GD32VW55X_Wifi_BLE_SDK/GD32VW55x_RELEASE_V1.0.2/MSDK/rtos/FreeRTOS/Source\timers.c **** 
 463              		.loc 1 675 13
 464 0010 97000000 		call	xTaskGetTickCount
 464      E7800000 
 465              	.LVL44:
 677:C:/Users/stapi/OneDrive/Desktop/GD32VW553/V1_MQTT_OK/GD32VW55X_Wifi_BLE_SDK/GD32VW55x_RELEASE_V1.0.2/MSDK/rtos/FreeRTOS/Source\timers.c **** 	{
 466              		.loc 1 677 15
 467 0018 93070900 		addi	a5,s2,%lo(.LANCHOR6)
 677:C:/Users/stapi/OneDrive/Desktop/GD32VW553/V1_MQTT_OK/GD32VW55X_Wifi_BLE_SDK/GD32VW55x_RELEASE_V1.0.2/MSDK/rtos/FreeRTOS/Source\timers.c **** 	{
 468              		.loc 1 677 4
 469 001c DC43     		lw	a5,4(a5)
 675:C:/Users/stapi/OneDrive/Desktop/GD32VW553/V1_MQTT_OK/GD32VW55X_Wifi_BLE_SDK/GD32VW55x_RELEASE_V1.0.2/MSDK/rtos/FreeRTOS/Source\timers.c **** 
 470              		.loc 1 675 13
 471 001e AA89     		mv	s3,a0
 472 0020 AE84     		mv	s1,a1
 473              	.LVL45:
 677:C:/Users/stapi/OneDrive/Desktop/GD32VW553/V1_MQTT_OK/GD32VW55X_Wifi_BLE_SDK/GD32VW55x_RELEASE_V1.0.2/MSDK/rtos/FreeRTOS/Source\timers.c **** 	{
 474              		.loc 1 677 2 is_stmt 1
 475 0022 13090900 		addi	s2,s2,%lo(.LANCHOR6)
 677:C:/Users/stapi/OneDrive/Desktop/GD32VW553/V1_MQTT_OK/GD32VW55X_Wifi_BLE_SDK/GD32VW55x_RELEASE_V1.0.2/MSDK/rtos/FreeRTOS/Source\timers.c **** 	{
 476              		.loc 1 677 4 is_stmt 0
 477 0026 63E8F500 		bgtu	a5,a1,.L41
 478 002a 639DB70A 		bne	a5,a1,.L43
 479 002e 83270900 		lw	a5,0(s2)
 480 0032 6379F50A 		bleu	a5,a0,.L43
 481              	.L41:
 482              	.LBB12:
 483              	.LBB13:
 893:C:/Users/stapi/OneDrive/Desktop/GD32VW553/V1_MQTT_OK/GD32VW55X_Wifi_BLE_SDK/GD32VW55x_RELEASE_V1.0.2/MSDK/rtos/FreeRTOS/Source\timers.c **** 	{
 484              		.loc 1 893 9
 485 0036 B70A0000 		lui	s5,%hi(.LANCHOR3)
 486 003a B9A8     		j	.L44
 487              	.LVL46:
 488              	.L48:
 895:C:/Users/stapi/OneDrive/Desktop/GD32VW553/V1_MQTT_OK/GD32VW55X_Wifi_BLE_SDK/GD32VW55x_RELEASE_V1.0.2/MSDK/rtos/FreeRTOS/Source\timers.c **** 
 489              		.loc 1 895 3 is_stmt 1
 895:C:/Users/stapi/OneDrive/Desktop/GD32VW553/V1_MQTT_OK/GD32VW55X_Wifi_BLE_SDK/GD32VW55x_RELEASE_V1.0.2/MSDK/rtos/FreeRTOS/Source\timers.c **** 
 490              		.loc 1 895 21 is_stmt 0
 491 003c 1C4B     		lw	a5,16(a4)
 898:C:/Users/stapi/OneDrive/Desktop/GD32VW553/V1_MQTT_OK/GD32VW55X_Wifi_BLE_SDK/GD32VW55x_RELEASE_V1.0.2/MSDK/rtos/FreeRTOS/Source\timers.c **** 		( void ) uxListRemove( &( pxTimer->xTimerListItem ) );
 492              		.loc 1 898 11
 493 003e 804B     		lw	s0,16(a5)
 895:C:/Users/stapi/OneDrive/Desktop/GD32VW553/V1_MQTT_OK/GD32VW55X_Wifi_BLE_SDK/GD32VW55x_RELEASE_V1.0.2/MSDK/rtos/FreeRTOS/Source\timers.c **** 
 494              		.loc 1 895 19
 495 0040 9043     		lw	a2,0(a5)
 496 0042 D443     		lw	a3,4(a5)
 899:C:/Users/stapi/OneDrive/Desktop/GD32VW553/V1_MQTT_OK/GD32VW55X_Wifi_BLE_SDK/GD32VW55x_RELEASE_V1.0.2/MSDK/rtos/FreeRTOS/Source\timers.c **** 		traceTIMER_EXPIRED( pxTimer );
 497              		.loc 1 899 12
 498 0044 93058400 		addi	a1,s0,8
 499 0048 2E85     		mv	a0,a1
 895:C:/Users/stapi/OneDrive/Desktop/GD32VW553/V1_MQTT_OK/GD32VW55X_Wifi_BLE_SDK/GD32VW55x_RELEASE_V1.0.2/MSDK/rtos/FreeRTOS/Source\timers.c **** 
 500              		.loc 1 895 19
 501 004a 32C6     		sw	a2,12(sp)
 502 004c 36C4     		sw	a3,8(sp)
 503              	.LVL47:
 898:C:/Users/stapi/OneDrive/Desktop/GD32VW553/V1_MQTT_OK/GD32VW55X_Wifi_BLE_SDK/GD32VW55x_RELEASE_V1.0.2/MSDK/rtos/FreeRTOS/Source\timers.c **** 		( void ) uxListRemove( &( pxTimer->xTimerListItem ) );
 504              		.loc 1 898 3 is_stmt 1
 899:C:/Users/stapi/OneDrive/Desktop/GD32VW553/V1_MQTT_OK/GD32VW55X_Wifi_BLE_SDK/GD32VW55x_RELEASE_V1.0.2/MSDK/rtos/FreeRTOS/Source\timers.c **** 		traceTIMER_EXPIRED( pxTimer );
 505              		.loc 1 899 3
 899:C:/Users/stapi/OneDrive/Desktop/GD32VW553/V1_MQTT_OK/GD32VW55X_Wifi_BLE_SDK/GD32VW55x_RELEASE_V1.0.2/MSDK/rtos/FreeRTOS/Source\timers.c **** 		traceTIMER_EXPIRED( pxTimer );
 506              		.loc 1 899 12 is_stmt 0
 507 004e 2EC2     		sw	a1,4(sp)
 508 0050 97000000 		call	uxListRemove
 508      E7800000 
 509              	.LVL48:
 900:C:/Users/stapi/OneDrive/Desktop/GD32VW553/V1_MQTT_OK/GD32VW55X_Wifi_BLE_SDK/GD32VW55x_RELEASE_V1.0.2/MSDK/rtos/FreeRTOS/Source\timers.c **** 
 510              		.loc 1 900 32 is_stmt 1
 905:C:/Users/stapi/OneDrive/Desktop/GD32VW553/V1_MQTT_OK/GD32VW55X_Wifi_BLE_SDK/GD32VW55x_RELEASE_V1.0.2/MSDK/rtos/FreeRTOS/Source\timers.c **** 
 511              		.loc 1 905 3
 512 0058 5C54     		lw	a5,44(s0)
 513 005a 2285     		mv	a0,s0
 514 005c 8297     		jalr	a5
 515              	.LVL49:
 907:C:/Users/stapi/OneDrive/Desktop/GD32VW553/V1_MQTT_OK/GD32VW55X_Wifi_BLE_SDK/GD32VW55x_RELEASE_V1.0.2/MSDK/rtos/FreeRTOS/Source\timers.c **** 		{
 516              		.loc 1 907 3
 907:C:/Users/stapi/OneDrive/Desktop/GD32VW553/V1_MQTT_OK/GD32VW55X_Wifi_BLE_SDK/GD32VW55x_RELEASE_V1.0.2/MSDK/rtos/FreeRTOS/Source\timers.c **** 		{
 517              		.loc 1 907 5 is_stmt 0
 518 005e 83474403 		lbu	a5,52(s0)
 519 0062 9245     		lw	a1,4(sp)
 520 0064 A246     		lw	a3,8(sp)
 521 0066 918B     		andi	a5,a5,4
 522 0068 3246     		lw	a2,12(sp)
 523 006a 9DC7     		beq	a5,zero,.L44
 915:C:/Users/stapi/OneDrive/Desktop/GD32VW553/V1_MQTT_OK/GD32VW55X_Wifi_BLE_SDK/GD32VW55x_RELEASE_V1.0.2/MSDK/rtos/FreeRTOS/Source\timers.c **** 			if( xReloadTime > xNextExpireTime )
 524              		.loc 1 915 4 is_stmt 1
 915:C:/Users/stapi/OneDrive/Desktop/GD32VW553/V1_MQTT_OK/GD32VW55X_Wifi_BLE_SDK/GD32VW55x_RELEASE_V1.0.2/MSDK/rtos/FreeRTOS/Source\timers.c **** 			if( xReloadTime > xNextExpireTime )
 525              		.loc 1 915 16 is_stmt 0
 526 006c 1850     		lw	a4,32(s0)
 527 006e 4850     		lw	a0,36(s0)
 528 0070 3297     		add	a4,a2,a4
 529 0072 B337C700 		sltu	a5,a4,a2
 530 0076 3695     		add	a0,a3,a0
 531 0078 AA97     		add	a5,a5,a0
 532              	.LVL50:
 916:C:/Users/stapi/OneDrive/Desktop/GD32VW553/V1_MQTT_OK/GD32VW55X_Wifi_BLE_SDK/GD32VW55x_RELEASE_V1.0.2/MSDK/rtos/FreeRTOS/Source\timers.c **** 			{
 533              		.loc 1 916 4 is_stmt 1
 916:C:/Users/stapi/OneDrive/Desktop/GD32VW553/V1_MQTT_OK/GD32VW55X_Wifi_BLE_SDK/GD32VW55x_RELEASE_V1.0.2/MSDK/rtos/FreeRTOS/Source\timers.c **** 			{
 534              		.loc 1 916 6 is_stmt 0
 535 007a 63E6F600 		bgtu	a5,a3,.L50
 536 007e 6399D704 		bne	a5,a3,.L45
 537 0082 6377E604 		bleu	a4,a2,.L45
 538              	.L50:
 918:C:/Users/stapi/OneDrive/Desktop/GD32VW553/V1_MQTT_OK/GD32VW55X_Wifi_BLE_SDK/GD32VW55x_RELEASE_V1.0.2/MSDK/rtos/FreeRTOS/Source\timers.c **** 				listSET_LIST_ITEM_OWNER( &( pxTimer->xTimerListItem ), pxTimer );
 539              		.loc 1 918 5 is_stmt 1
 920:C:/Users/stapi/OneDrive/Desktop/GD32VW553/V1_MQTT_OK/GD32VW55X_Wifi_BLE_SDK/GD32VW55x_RELEASE_V1.0.2/MSDK/rtos/FreeRTOS/Source\timers.c **** 			}
 540              		.loc 1 920 5 is_stmt 0
 541 0086 03250B00 		lw	a0,0(s6)
 918:C:/Users/stapi/OneDrive/Desktop/GD32VW553/V1_MQTT_OK/GD32VW55X_Wifi_BLE_SDK/GD32VW55x_RELEASE_V1.0.2/MSDK/rtos/FreeRTOS/Source\timers.c **** 				listSET_LIST_ITEM_OWNER( &( pxTimer->xTimerListItem ), pxTimer );
 542              		.loc 1 918 5
 543 008a 18C4     		sw	a4,8(s0)
 544 008c 5CC4     		sw	a5,12(s0)
 919:C:/Users/stapi/OneDrive/Desktop/GD32VW553/V1_MQTT_OK/GD32VW55X_Wifi_BLE_SDK/GD32VW55x_RELEASE_V1.0.2/MSDK/rtos/FreeRTOS/Source\timers.c **** 				vListInsert( pxCurrentTimerList, &( pxTimer->xTimerListItem ) );
 545              		.loc 1 919 5 is_stmt 1
 546 008e 00CC     		sw	s0,24(s0)
 920:C:/Users/stapi/OneDrive/Desktop/GD32VW553/V1_MQTT_OK/GD32VW55X_Wifi_BLE_SDK/GD32VW55x_RELEASE_V1.0.2/MSDK/rtos/FreeRTOS/Source\timers.c **** 			}
 547              		.loc 1 920 5
 548 0090 97000000 		call	vListInsert
 548      E7800000 
 549              	.LVL51:
 550              	.L44:
 931:C:/Users/stapi/OneDrive/Desktop/GD32VW553/V1_MQTT_OK/GD32VW55X_Wifi_BLE_SDK/GD32VW55x_RELEASE_V1.0.2/MSDK/rtos/FreeRTOS/Source\timers.c **** 		}
 551              		.loc 1 931 28
 893:C:/Users/stapi/OneDrive/Desktop/GD32VW553/V1_MQTT_OK/GD32VW55X_Wifi_BLE_SDK/GD32VW55x_RELEASE_V1.0.2/MSDK/rtos/FreeRTOS/Source\timers.c **** 	{
 552              		.loc 1 893 7
 893:C:/Users/stapi/OneDrive/Desktop/GD32VW553/V1_MQTT_OK/GD32VW55X_Wifi_BLE_SDK/GD32VW55x_RELEASE_V1.0.2/MSDK/rtos/FreeRTOS/Source\timers.c **** 	{
 553              		.loc 1 893 9 is_stmt 0
 554 0098 93860A00 		addi	a3,s5,%lo(.LANCHOR3)
 555 009c 9842     		lw	a4,0(a3)
 556 009e 138B0A00 		addi	s6,s5,%lo(.LANCHOR3)
 557 00a2 1C43     		lw	a5,0(a4)
 893:C:/Users/stapi/OneDrive/Desktop/GD32VW553/V1_MQTT_OK/GD32VW55X_Wifi_BLE_SDK/GD32VW55x_RELEASE_V1.0.2/MSDK/rtos/FreeRTOS/Source\timers.c **** 	{
 558              		.loc 1 893 7
 559 00a4 C1FF     		bne	a5,zero,.L48
 935:C:/Users/stapi/OneDrive/Desktop/GD32VW553/V1_MQTT_OK/GD32VW55X_Wifi_BLE_SDK/GD32VW55x_RELEASE_V1.0.2/MSDK/rtos/FreeRTOS/Source\timers.c **** 	pxCurrentTimerList = pxOverflowTimerList;
 560              		.loc 1 935 2 is_stmt 1
 561              	.LVL52:
 936:C:/Users/stapi/OneDrive/Desktop/GD32VW553/V1_MQTT_OK/GD32VW55X_Wifi_BLE_SDK/GD32VW55x_RELEASE_V1.0.2/MSDK/rtos/FreeRTOS/Source\timers.c **** 	pxOverflowTimerList = pxTemp;
 562              		.loc 1 936 2
 936:C:/Users/stapi/OneDrive/Desktop/GD32VW553/V1_MQTT_OK/GD32VW55X_Wifi_BLE_SDK/GD32VW55x_RELEASE_V1.0.2/MSDK/rtos/FreeRTOS/Source\timers.c **** 	pxOverflowTimerList = pxTemp;
 563              		.loc 1 936 21 is_stmt 0
 564 00a6 B7070000 		lui	a5,%hi(.LANCHOR4)
 565 00aa 93870700 		addi	a5,a5,%lo(.LANCHOR4)
 566 00ae 9043     		lw	a2,0(a5)
 937:C:/Users/stapi/OneDrive/Desktop/GD32VW553/V1_MQTT_OK/GD32VW55X_Wifi_BLE_SDK/GD32VW55x_RELEASE_V1.0.2/MSDK/rtos/FreeRTOS/Source\timers.c **** }
 567              		.loc 1 937 22
 568 00b0 98C3     		sw	a4,0(a5)
 569              	.LBE13:
 570              	.LBE12:
 680:C:/Users/stapi/OneDrive/Desktop/GD32VW553/V1_MQTT_OK/GD32VW55X_Wifi_BLE_SDK/GD32VW55x_RELEASE_V1.0.2/MSDK/rtos/FreeRTOS/Source\timers.c **** 	}
 571              		.loc 1 680 29
 572 00b2 8547     		li	a5,1
 573              	.LBB16:
 574              	.LBB14:
 936:C:/Users/stapi/OneDrive/Desktop/GD32VW553/V1_MQTT_OK/GD32VW55X_Wifi_BLE_SDK/GD32VW55x_RELEASE_V1.0.2/MSDK/rtos/FreeRTOS/Source\timers.c **** 	pxOverflowTimerList = pxTemp;
 575              		.loc 1 936 21
 576 00b4 90C2     		sw	a2,0(a3)
 937:C:/Users/stapi/OneDrive/Desktop/GD32VW553/V1_MQTT_OK/GD32VW55X_Wifi_BLE_SDK/GD32VW55x_RELEASE_V1.0.2/MSDK/rtos/FreeRTOS/Source\timers.c **** }
 577              		.loc 1 937 2 is_stmt 1
 578              	.LBE14:
 579              	.LBE16:
 680:C:/Users/stapi/OneDrive/Desktop/GD32VW553/V1_MQTT_OK/GD32VW55X_Wifi_BLE_SDK/GD32VW55x_RELEASE_V1.0.2/MSDK/rtos/FreeRTOS/Source\timers.c **** 	}
 580              		.loc 1 680 3
 680:C:/Users/stapi/OneDrive/Desktop/GD32VW553/V1_MQTT_OK/GD32VW55X_Wifi_BLE_SDK/GD32VW55x_RELEASE_V1.0.2/MSDK/rtos/FreeRTOS/Source\timers.c **** 	}
 581              		.loc 1 680 29 is_stmt 0
 582 00b6 2320FA00 		sw	a5,0(s4)
 583              	.LVL53:
 584              	.L49:
 687:C:/Users/stapi/OneDrive/Desktop/GD32VW553/V1_MQTT_OK/GD32VW55X_Wifi_BLE_SDK/GD32VW55x_RELEASE_V1.0.2/MSDK/rtos/FreeRTOS/Source\timers.c **** 
 585              		.loc 1 687 2 is_stmt 1
 687:C:/Users/stapi/OneDrive/Desktop/GD32VW553/V1_MQTT_OK/GD32VW55X_Wifi_BLE_SDK/GD32VW55x_RELEASE_V1.0.2/MSDK/rtos/FreeRTOS/Source\timers.c **** 
 586              		.loc 1 687 12 is_stmt 0
 587 00ba 23203901 		sw	s3,0(s2)
 588 00be 23229900 		sw	s1,4(s2)
 689:C:/Users/stapi/OneDrive/Desktop/GD32VW553/V1_MQTT_OK/GD32VW55X_Wifi_BLE_SDK/GD32VW55x_RELEASE_V1.0.2/MSDK/rtos/FreeRTOS/Source\timers.c **** }
 589              		.loc 1 689 2 is_stmt 1
 690:C:/Users/stapi/OneDrive/Desktop/GD32VW553/V1_MQTT_OK/GD32VW55X_Wifi_BLE_SDK/GD32VW55x_RELEASE_V1.0.2/MSDK/rtos/FreeRTOS/Source\timers.c **** /*-----------------------------------------------------------*/
 590              		.loc 1 690 1 is_stmt 0
 591 00c2 4E85     		mv	a0,s3
 592 00c4 A685     		mv	a1,s1
 593 00c6 4101     		addi	sp,sp,16
 594              		.cfi_remember_state
 595              		.cfi_def_cfa_offset 0
 596 00c8 17030000 		tail	__riscv_restore_7
 596      67000300 
 597              		.cfi_restore 22
 598              		.cfi_restore 21
 599              		.cfi_restore 20
 600              		.cfi_restore 19
 601              		.cfi_restore 18
 602              		.cfi_restore 9
 603              		.cfi_restore 8
 604              		.cfi_restore 1
 605              		.cfi_def_cfa_offset -32
 606              	.LVL54:
 607              	.L45:
 608              		.cfi_restore_state
 609              	.LBB17:
 610              	.LBB15:
 924:C:/Users/stapi/OneDrive/Desktop/GD32VW553/V1_MQTT_OK/GD32VW55X_Wifi_BLE_SDK/GD32VW55x_RELEASE_V1.0.2/MSDK/rtos/FreeRTOS/Source\timers.c **** 				configASSERT( xResult );
 611              		.loc 1 924 5 is_stmt 1
 924:C:/Users/stapi/OneDrive/Desktop/GD32VW553/V1_MQTT_OK/GD32VW55X_Wifi_BLE_SDK/GD32VW55x_RELEASE_V1.0.2/MSDK/rtos/FreeRTOS/Source\timers.c **** 				configASSERT( xResult );
 612              		.loc 1 924 15 is_stmt 0
 613 00d0 8147     		li	a5,0
 614              	.LVL55:
 615 00d2 0148     		li	a6,0
 616 00d4 0147     		li	a4,0
 617              	.LVL56:
 618 00d6 8145     		li	a1,0
 619 00d8 2285     		mv	a0,s0
 620              	.LVL57:
 621 00da 97000000 		call	xTimerGenericCommand
 621      E7800000 
 622              	.LVL58:
 623 00e2 5DBF     		j	.L44
 624              	.LVL59:
 625              	.L43:
 626              	.LBE15:
 627              	.LBE17:
 684:C:/Users/stapi/OneDrive/Desktop/GD32VW553/V1_MQTT_OK/GD32VW55X_Wifi_BLE_SDK/GD32VW55x_RELEASE_V1.0.2/MSDK/rtos/FreeRTOS/Source\timers.c **** 	}
 628              		.loc 1 684 3 is_stmt 1
 684:C:/Users/stapi/OneDrive/Desktop/GD32VW553/V1_MQTT_OK/GD32VW55X_Wifi_BLE_SDK/GD32VW55x_RELEASE_V1.0.2/MSDK/rtos/FreeRTOS/Source\timers.c **** 	}
 629              		.loc 1 684 29 is_stmt 0
 630 00e4 23200A00 		sw	zero,0(s4)
 631 00e8 C9BF     		j	.L49
 632              		.cfi_endproc
 633              	.LFE14:
 635              		.section	.text.prvTimerTask,"ax",@progbits
 636              		.align	1
 638              	prvTimerTask:
 639              	.LFB11:
 549:C:/Users/stapi/OneDrive/Desktop/GD32VW553/V1_MQTT_OK/GD32VW55X_Wifi_BLE_SDK/GD32VW55x_RELEASE_V1.0.2/MSDK/rtos/FreeRTOS/Source\timers.c **** TickType_t xNextExpireTime;
 640              		.loc 1 549 1 is_stmt 1
 641              		.cfi_startproc
 642              	.LVL60:
 643 0000 17030000 		call	t0,__riscv_save_9
 643      E7020300 
 644              		.cfi_offset 24, -40
 645              		.cfi_offset 23, -36
 646              		.cfi_offset 22, -32
 647              		.cfi_offset 21, -28
 648              		.cfi_offset 20, -24
 649              		.cfi_offset 19, -20
 650              		.cfi_offset 18, -16
 651              		.cfi_offset 9, -12
 652              		.cfi_offset 8, -8
 653              		.cfi_offset 1, -4
 654              		.cfi_def_cfa_offset 48
 655 0008 370A0000 		lui	s4,%hi(.L68)
 656 000c 7971     		addi	sp,sp,-48
 657              		.cfi_def_cfa_offset 96
 658              	.LBB26:
 659              	.LBB27:
 655:C:/Users/stapi/OneDrive/Desktop/GD32VW553/V1_MQTT_OK/GD32VW55X_Wifi_BLE_SDK/GD32VW55x_RELEASE_V1.0.2/MSDK/rtos/FreeRTOS/Source\timers.c **** 	if( *pxListWasEmpty == pdFALSE )
 660              		.loc 1 655 20 is_stmt 0
 661 000e B70A0000 		lui	s5,%hi(.LANCHOR3)
 662 0012 B70B0000 		lui	s7,%hi(.LANCHOR0)
 663              	.LBE27:
 664              	.LBE26:
 665              	.LBB30:
 666              	.LBB31:
 617:C:/Users/stapi/OneDrive/Desktop/GD32VW553/V1_MQTT_OK/GD32VW55X_Wifi_BLE_SDK/GD32VW55x_RELEASE_V1.0.2/MSDK/rtos/FreeRTOS/Source\timers.c **** 				}
 667              		.loc 1 617 22
 668 0016 370C0000 		lui	s8,%hi(.LANCHOR4)
 669 001a 130A0A00 		addi	s4,s4,%lo(.L68)
 670              	.LVL61:
 671              	.L77:
 672              	.LBE31:
 673              	.LBE30:
 550:C:/Users/stapi/OneDrive/Desktop/GD32VW553/V1_MQTT_OK/GD32VW55X_Wifi_BLE_SDK/GD32VW55x_RELEASE_V1.0.2/MSDK/rtos/FreeRTOS/Source\timers.c **** BaseType_t xListWasEmpty;
 674              		.loc 1 550 1 is_stmt 1 discriminator 1
 551:C:/Users/stapi/OneDrive/Desktop/GD32VW553/V1_MQTT_OK/GD32VW55X_Wifi_BLE_SDK/GD32VW55x_RELEASE_V1.0.2/MSDK/rtos/FreeRTOS/Source\timers.c **** 
 675              		.loc 1 551 1 discriminator 1
 554:C:/Users/stapi/OneDrive/Desktop/GD32VW553/V1_MQTT_OK/GD32VW55X_Wifi_BLE_SDK/GD32VW55x_RELEASE_V1.0.2/MSDK/rtos/FreeRTOS/Source\timers.c **** 
 676              		.loc 1 554 2 discriminator 1
 568:C:/Users/stapi/OneDrive/Desktop/GD32VW553/V1_MQTT_OK/GD32VW55X_Wifi_BLE_SDK/GD32VW55x_RELEASE_V1.0.2/MSDK/rtos/FreeRTOS/Source\timers.c **** 	{
 677              		.loc 1 568 2 discriminator 1
 572:C:/Users/stapi/OneDrive/Desktop/GD32VW553/V1_MQTT_OK/GD32VW55X_Wifi_BLE_SDK/GD32VW55x_RELEASE_V1.0.2/MSDK/rtos/FreeRTOS/Source\timers.c **** 
 678              		.loc 1 572 3 discriminator 1
 679              	.LBB38:
 680              	.LBB28:
 646:C:/Users/stapi/OneDrive/Desktop/GD32VW553/V1_MQTT_OK/GD32VW55X_Wifi_BLE_SDK/GD32VW55x_RELEASE_V1.0.2/MSDK/rtos/FreeRTOS/Source\timers.c **** 
 681              		.loc 1 646 1 discriminator 1
 655:C:/Users/stapi/OneDrive/Desktop/GD32VW553/V1_MQTT_OK/GD32VW55X_Wifi_BLE_SDK/GD32VW55x_RELEASE_V1.0.2/MSDK/rtos/FreeRTOS/Source\timers.c **** 	if( *pxListWasEmpty == pdFALSE )
 682              		.loc 1 655 2 discriminator 1
 655:C:/Users/stapi/OneDrive/Desktop/GD32VW553/V1_MQTT_OK/GD32VW55X_Wifi_BLE_SDK/GD32VW55x_RELEASE_V1.0.2/MSDK/rtos/FreeRTOS/Source\timers.c **** 	if( *pxListWasEmpty == pdFALSE )
 683              		.loc 1 655 20 is_stmt 0 discriminator 1
 684 001e 83A70A00 		lw	a5,%lo(.LANCHOR3)(s5)
 685 0022 13890A00 		addi	s2,s5,%lo(.LANCHOR3)
 686 0026 9843     		lw	a4,0(a5)
 687 0028 75CB     		beq	a4,zero,.L78
 688              	.LVL62:
 656:C:/Users/stapi/OneDrive/Desktop/GD32VW553/V1_MQTT_OK/GD32VW55X_Wifi_BLE_SDK/GD32VW55x_RELEASE_V1.0.2/MSDK/rtos/FreeRTOS/Source\timers.c **** 	{
 689              		.loc 1 656 2 is_stmt 1
 658:C:/Users/stapi/OneDrive/Desktop/GD32VW553/V1_MQTT_OK/GD32VW55X_Wifi_BLE_SDK/GD32VW55x_RELEASE_V1.0.2/MSDK/rtos/FreeRTOS/Source\timers.c **** 	}
 690              		.loc 1 658 3
 658:C:/Users/stapi/OneDrive/Desktop/GD32VW553/V1_MQTT_OK/GD32VW55X_Wifi_BLE_SDK/GD32VW55x_RELEASE_V1.0.2/MSDK/rtos/FreeRTOS/Source\timers.c **** 	}
 691              		.loc 1 658 19 is_stmt 0
 692 002a 9C4B     		lw	a5,16(a5)
 655:C:/Users/stapi/OneDrive/Desktop/GD32VW553/V1_MQTT_OK/GD32VW55X_Wifi_BLE_SDK/GD32VW55x_RELEASE_V1.0.2/MSDK/rtos/FreeRTOS/Source\timers.c **** 	if( *pxListWasEmpty == pdFALSE )
 693              		.loc 1 655 20
 694 002c 8146     		li	a3,0
 658:C:/Users/stapi/OneDrive/Desktop/GD32VW553/V1_MQTT_OK/GD32VW55X_Wifi_BLE_SDK/GD32VW55x_RELEASE_V1.0.2/MSDK/rtos/FreeRTOS/Source\timers.c **** 	}
 695              		.loc 1 658 19
 696 002e 8043     		lw	s0,0(a5)
 697 0030 C443     		lw	s1,4(a5)
 698              	.LVL63:
 699              	.L55:
 700 0032 36C6     		sw	a3,12(sp)
 701              	.LVL64:
 666:C:/Users/stapi/OneDrive/Desktop/GD32VW553/V1_MQTT_OK/GD32VW55X_Wifi_BLE_SDK/GD32VW55x_RELEASE_V1.0.2/MSDK/rtos/FreeRTOS/Source\timers.c **** }
 702              		.loc 1 666 2 is_stmt 1
 703              	.LBE28:
 704              	.LBE38:
 576:C:/Users/stapi/OneDrive/Desktop/GD32VW553/V1_MQTT_OK/GD32VW55X_Wifi_BLE_SDK/GD32VW55x_RELEASE_V1.0.2/MSDK/rtos/FreeRTOS/Source\timers.c **** 
 705              		.loc 1 576 3
 706              	.LBB39:
 707              	.LBB36:
 586:C:/Users/stapi/OneDrive/Desktop/GD32VW553/V1_MQTT_OK/GD32VW55X_Wifi_BLE_SDK/GD32VW55x_RELEASE_V1.0.2/MSDK/rtos/FreeRTOS/Source\timers.c **** BaseType_t xTimerListsWereSwitched;
 708              		.loc 1 586 1
 587:C:/Users/stapi/OneDrive/Desktop/GD32VW553/V1_MQTT_OK/GD32VW55X_Wifi_BLE_SDK/GD32VW55x_RELEASE_V1.0.2/MSDK/rtos/FreeRTOS/Source\timers.c **** 
 709              		.loc 1 587 1
 589:C:/Users/stapi/OneDrive/Desktop/GD32VW553/V1_MQTT_OK/GD32VW55X_Wifi_BLE_SDK/GD32VW55x_RELEASE_V1.0.2/MSDK/rtos/FreeRTOS/Source\timers.c **** 	{
 710              		.loc 1 589 2
 711 0034 97000000 		call	vTaskSuspendAll
 711      E7800000 
 712              	.LVL65:
 596:C:/Users/stapi/OneDrive/Desktop/GD32VW553/V1_MQTT_OK/GD32VW55X_Wifi_BLE_SDK/GD32VW55x_RELEASE_V1.0.2/MSDK/rtos/FreeRTOS/Source\timers.c **** 		if( xTimerListsWereSwitched == pdFALSE )
 713              		.loc 1 596 3
 596:C:/Users/stapi/OneDrive/Desktop/GD32VW553/V1_MQTT_OK/GD32VW55X_Wifi_BLE_SDK/GD32VW55x_RELEASE_V1.0.2/MSDK/rtos/FreeRTOS/Source\timers.c **** 		if( xTimerListsWereSwitched == pdFALSE )
 714              		.loc 1 596 14 is_stmt 0
 715 003c 2808     		addi	a0,sp,24
 716 003e 97000000 		call	prvSampleTimeNow
 716      E7800000 
 717              	.LVL66:
 597:C:/Users/stapi/OneDrive/Desktop/GD32VW553/V1_MQTT_OK/GD32VW55X_Wifi_BLE_SDK/GD32VW55x_RELEASE_V1.0.2/MSDK/rtos/FreeRTOS/Source\timers.c **** 		{
 718              		.loc 1 597 5
 719 0046 E247     		lw	a5,24(sp)
 596:C:/Users/stapi/OneDrive/Desktop/GD32VW553/V1_MQTT_OK/GD32VW55X_Wifi_BLE_SDK/GD32VW55x_RELEASE_V1.0.2/MSDK/rtos/FreeRTOS/Source\timers.c **** 		if( xTimerListsWereSwitched == pdFALSE )
 720              		.loc 1 596 14
 721 0048 AA89     		mv	s3,a0
 722 004a 2E87     		mv	a4,a1
 723              	.LVL67:
 597:C:/Users/stapi/OneDrive/Desktop/GD32VW553/V1_MQTT_OK/GD32VW55X_Wifi_BLE_SDK/GD32VW55x_RELEASE_V1.0.2/MSDK/rtos/FreeRTOS/Source\timers.c **** 		{
 724              		.loc 1 597 3 is_stmt 1
 725 004c 138B0B00 		addi	s6,s7,%lo(.LANCHOR0)
 597:C:/Users/stapi/OneDrive/Desktop/GD32VW553/V1_MQTT_OK/GD32VW55X_Wifi_BLE_SDK/GD32VW55x_RELEASE_V1.0.2/MSDK/rtos/FreeRTOS/Source\timers.c **** 		{
 726              		.loc 1 597 5 is_stmt 0
 727 0050 639A0710 		bne	a5,zero,.L56
 600:C:/Users/stapi/OneDrive/Desktop/GD32VW553/V1_MQTT_OK/GD32VW55X_Wifi_BLE_SDK/GD32VW55x_RELEASE_V1.0.2/MSDK/rtos/FreeRTOS/Source\timers.c **** 			{
 728              		.loc 1 600 4 is_stmt 1
 600:C:/Users/stapi/OneDrive/Desktop/GD32VW553/V1_MQTT_OK/GD32VW55X_Wifi_BLE_SDK/GD32VW55x_RELEASE_V1.0.2/MSDK/rtos/FreeRTOS/Source\timers.c **** 			{
 729              		.loc 1 600 6 is_stmt 0
 730 0054 B246     		lw	a3,12(sp)
 731 0056 F9EA     		bne	a3,zero,.L57
 600:C:/Users/stapi/OneDrive/Desktop/GD32VW553/V1_MQTT_OK/GD32VW55X_Wifi_BLE_SDK/GD32VW55x_RELEASE_V1.0.2/MSDK/rtos/FreeRTOS/Source\timers.c **** 			{
 732              		.loc 1 600 37
 733 0058 63EF950C 		bgtu	s1,a1,.L58
 734 005c 6394B400 		bne	s1,a1,.L79
 735 0060 636B850C 		bgtu	s0,a0,.L58
 736              	.L79:
 737 0064 3AC6     		sw	a4,12(sp)
 738              	.LVL68:
 602:C:/Users/stapi/OneDrive/Desktop/GD32VW553/V1_MQTT_OK/GD32VW55X_Wifi_BLE_SDK/GD32VW55x_RELEASE_V1.0.2/MSDK/rtos/FreeRTOS/Source\timers.c **** 				prvProcessExpiredTimer( xNextExpireTime, xTimeNow );
 739              		.loc 1 602 5 is_stmt 1
 602:C:/Users/stapi/OneDrive/Desktop/GD32VW553/V1_MQTT_OK/GD32VW55X_Wifi_BLE_SDK/GD32VW55x_RELEASE_V1.0.2/MSDK/rtos/FreeRTOS/Source\timers.c **** 				prvProcessExpiredTimer( xNextExpireTime, xTimeNow );
 740              		.loc 1 602 14 is_stmt 0
 741 0066 97000000 		call	xTaskResumeAll
 741      E7800000 
 742              	.LVL69:
 603:C:/Users/stapi/OneDrive/Desktop/GD32VW553/V1_MQTT_OK/GD32VW55X_Wifi_BLE_SDK/GD32VW55x_RELEASE_V1.0.2/MSDK/rtos/FreeRTOS/Source\timers.c **** 			}
 743              		.loc 1 603 5 is_stmt 1
 744              	.LBB32:
 745              	.LBB33:
 509:C:/Users/stapi/OneDrive/Desktop/GD32VW553/V1_MQTT_OK/GD32VW55X_Wifi_BLE_SDK/GD32VW55x_RELEASE_V1.0.2/MSDK/rtos/FreeRTOS/Source\timers.c **** Timer_t * const pxTimer = ( Timer_t * ) listGET_OWNER_OF_HEAD_ENTRY( pxCurrentTimerList ); /*lint !
 746              		.loc 1 509 1
 510:C:/Users/stapi/OneDrive/Desktop/GD32VW553/V1_MQTT_OK/GD32VW55X_Wifi_BLE_SDK/GD32VW55x_RELEASE_V1.0.2/MSDK/rtos/FreeRTOS/Source\timers.c **** 
 747              		.loc 1 510 1
 510:C:/Users/stapi/OneDrive/Desktop/GD32VW553/V1_MQTT_OK/GD32VW55X_Wifi_BLE_SDK/GD32VW55x_RELEASE_V1.0.2/MSDK/rtos/FreeRTOS/Source\timers.c **** 
 748              		.loc 1 510 41 is_stmt 0
 749 006e 83270900 		lw	a5,0(s2)
 510:C:/Users/stapi/OneDrive/Desktop/GD32VW553/V1_MQTT_OK/GD32VW55X_Wifi_BLE_SDK/GD32VW55x_RELEASE_V1.0.2/MSDK/rtos/FreeRTOS/Source\timers.c **** 
 750              		.loc 1 510 17
 751 0072 9C4B     		lw	a5,16(a5)
 752 0074 03A90701 		lw	s2,16(a5)
 753              	.LVL70:
 514:C:/Users/stapi/OneDrive/Desktop/GD32VW553/V1_MQTT_OK/GD32VW55X_Wifi_BLE_SDK/GD32VW55x_RELEASE_V1.0.2/MSDK/rtos/FreeRTOS/Source\timers.c **** 	traceTIMER_EXPIRED( pxTimer );
 754              		.loc 1 514 2 is_stmt 1
 514:C:/Users/stapi/OneDrive/Desktop/GD32VW553/V1_MQTT_OK/GD32VW55X_Wifi_BLE_SDK/GD32VW55x_RELEASE_V1.0.2/MSDK/rtos/FreeRTOS/Source\timers.c **** 	traceTIMER_EXPIRED( pxTimer );
 755              		.loc 1 514 11 is_stmt 0
 756 0078 13058900 		addi	a0,s2,8
 757 007c 97000000 		call	uxListRemove
 757      E7800000 
 758              	.LVL71:
 515:C:/Users/stapi/OneDrive/Desktop/GD32VW553/V1_MQTT_OK/GD32VW55X_Wifi_BLE_SDK/GD32VW55x_RELEASE_V1.0.2/MSDK/rtos/FreeRTOS/Source\timers.c **** 
 759              		.loc 1 515 31 is_stmt 1
 519:C:/Users/stapi/OneDrive/Desktop/GD32VW553/V1_MQTT_OK/GD32VW55X_Wifi_BLE_SDK/GD32VW55x_RELEASE_V1.0.2/MSDK/rtos/FreeRTOS/Source\timers.c **** 	{
 760              		.loc 1 519 2
 519:C:/Users/stapi/OneDrive/Desktop/GD32VW553/V1_MQTT_OK/GD32VW55X_Wifi_BLE_SDK/GD32VW55x_RELEASE_V1.0.2/MSDK/rtos/FreeRTOS/Source\timers.c **** 	{
 761              		.loc 1 519 15 is_stmt 0
 762 0084 83474903 		lbu	a5,52(s2)
 519:C:/Users/stapi/OneDrive/Desktop/GD32VW553/V1_MQTT_OK/GD32VW55X_Wifi_BLE_SDK/GD32VW55x_RELEASE_V1.0.2/MSDK/rtos/FreeRTOS/Source\timers.c **** 	{
 763              		.loc 1 519 4
 764 0088 3247     		lw	a4,12(sp)
 765 008a 93F64700 		andi	a3,a5,4
 766 008e D9CA     		beq	a3,zero,.L60
 524:C:/Users/stapi/OneDrive/Desktop/GD32VW553/V1_MQTT_OK/GD32VW55X_Wifi_BLE_SDK/GD32VW55x_RELEASE_V1.0.2/MSDK/rtos/FreeRTOS/Source\timers.c **** 		{
 767              		.loc 1 524 3 is_stmt 1
 524:C:/Users/stapi/OneDrive/Desktop/GD32VW553/V1_MQTT_OK/GD32VW55X_Wifi_BLE_SDK/GD32VW55x_RELEASE_V1.0.2/MSDK/rtos/FreeRTOS/Source\timers.c **** 		{
 768              		.loc 1 524 7 is_stmt 0
 769 0090 83250902 		lw	a1,32(s2)
 770 0094 03264902 		lw	a2,36(s2)
 771 0098 A287     		mv	a5,s0
 772 009a A295     		add	a1,s0,a1
 773 009c 33B58500 		sltu	a0,a1,s0
 774 00a0 2696     		add	a2,s1,a2
 775 00a2 2A96     		add	a2,a0,a2
 776 00a4 2688     		mv	a6,s1
 777 00a6 CE86     		mv	a3,s3
 778 00a8 4A85     		mv	a0,s2
 779 00aa 97000000 		call	prvInsertTimerInActiveList
 779      E7800000 
 780              	.LVL72:
 524:C:/Users/stapi/OneDrive/Desktop/GD32VW553/V1_MQTT_OK/GD32VW55X_Wifi_BLE_SDK/GD32VW55x_RELEASE_V1.0.2/MSDK/rtos/FreeRTOS/Source\timers.c **** 		{
 781              		.loc 1 524 5
 782 00b2 01CD     		beq	a0,zero,.L61
 528:C:/Users/stapi/OneDrive/Desktop/GD32VW553/V1_MQTT_OK/GD32VW55X_Wifi_BLE_SDK/GD32VW55x_RELEASE_V1.0.2/MSDK/rtos/FreeRTOS/Source\timers.c **** 			configASSERT( xResult );
 783              		.loc 1 528 4 is_stmt 1
 528:C:/Users/stapi/OneDrive/Desktop/GD32VW553/V1_MQTT_OK/GD32VW55X_Wifi_BLE_SDK/GD32VW55x_RELEASE_V1.0.2/MSDK/rtos/FreeRTOS/Source\timers.c **** 			configASSERT( xResult );
 784              		.loc 1 528 14 is_stmt 0
 785 00b4 8147     		li	a5,0
 786 00b6 0148     		li	a6,0
 787 00b8 0147     		li	a4,0
 788 00ba 2286     		mv	a2,s0
 789 00bc A686     		mv	a3,s1
 790 00be 8145     		li	a1,0
 791 00c0 4A85     		mv	a0,s2
 792 00c2 97000000 		call	xTimerGenericCommand
 792      E7800000 
 793              	.LVL73:
 529:C:/Users/stapi/OneDrive/Desktop/GD32VW553/V1_MQTT_OK/GD32VW55X_Wifi_BLE_SDK/GD32VW55x_RELEASE_V1.0.2/MSDK/rtos/FreeRTOS/Source\timers.c **** 			( void ) xResult;
 794              		.loc 1 529 27 is_stmt 1
 530:C:/Users/stapi/OneDrive/Desktop/GD32VW553/V1_MQTT_OK/GD32VW55X_Wifi_BLE_SDK/GD32VW55x_RELEASE_V1.0.2/MSDK/rtos/FreeRTOS/Source\timers.c **** 		}
 795              		.loc 1 530 4
 796              	.L61:
 540:C:/Users/stapi/OneDrive/Desktop/GD32VW553/V1_MQTT_OK/GD32VW55X_Wifi_BLE_SDK/GD32VW55x_RELEASE_V1.0.2/MSDK/rtos/FreeRTOS/Source\timers.c **** 	}
 797              		.loc 1 540 27
 544:C:/Users/stapi/OneDrive/Desktop/GD32VW553/V1_MQTT_OK/GD32VW55X_Wifi_BLE_SDK/GD32VW55x_RELEASE_V1.0.2/MSDK/rtos/FreeRTOS/Source\timers.c **** }
 798              		.loc 1 544 2
 799 00ca 8327C902 		lw	a5,44(s2)
 800 00ce 4A85     		mv	a0,s2
 801 00d0 8297     		jalr	a5
 802              	.LVL74:
 803              	.L62:
 804 00d2 A544     		li	s1,9
 805              	.L64:
 806              	.LBE33:
 807              	.LBE32:
 808              	.LBE36:
 809              	.LBE39:
 810              	.LBB40:
 811              	.LBB41:
 741:C:/Users/stapi/OneDrive/Desktop/GD32VW553/V1_MQTT_OK/GD32VW55X_Wifi_BLE_SDK/GD32VW55x_RELEASE_V1.0.2/MSDK/rtos/FreeRTOS/Source\timers.c **** 	{
 812              		.loc 1 741 7
 741:C:/Users/stapi/OneDrive/Desktop/GD32VW553/V1_MQTT_OK/GD32VW55X_Wifi_BLE_SDK/GD32VW55x_RELEASE_V1.0.2/MSDK/rtos/FreeRTOS/Source\timers.c **** 	{
 813              		.loc 1 741 9 is_stmt 0
 814 00d4 03250B00 		lw	a0,0(s6)
 815 00d8 0146     		li	a2,0
 816 00da 8146     		li	a3,0
 817 00dc 2C08     		addi	a1,sp,24
 818 00de 97000000 		call	xQueueReceive
 818      E7800000 
 819              	.LVL75:
 741:C:/Users/stapi/OneDrive/Desktop/GD32VW553/V1_MQTT_OK/GD32VW55X_Wifi_BLE_SDK/GD32VW55x_RELEASE_V1.0.2/MSDK/rtos/FreeRTOS/Source\timers.c **** 	{
 820              		.loc 1 741 7
 821 00e6 05DD     		beq	a0,zero,.L77
 767:C:/Users/stapi/OneDrive/Desktop/GD32VW553/V1_MQTT_OK/GD32VW55X_Wifi_BLE_SDK/GD32VW55x_RELEASE_V1.0.2/MSDK/rtos/FreeRTOS/Source\timers.c **** 		{
 822              		.loc 1 767 3 is_stmt 1
 767:C:/Users/stapi/OneDrive/Desktop/GD32VW553/V1_MQTT_OK/GD32VW55X_Wifi_BLE_SDK/GD32VW55x_RELEASE_V1.0.2/MSDK/rtos/FreeRTOS/Source\timers.c **** 		{
 823              		.loc 1 767 5 is_stmt 0
 824 00e8 E247     		lw	a5,24(sp)
 825 00ea E3C507FE 		blt	a5,zero,.L64
 771:C:/Users/stapi/OneDrive/Desktop/GD32VW553/V1_MQTT_OK/GD32VW55X_Wifi_BLE_SDK/GD32VW55x_RELEASE_V1.0.2/MSDK/rtos/FreeRTOS/Source\timers.c **** 
 826              		.loc 1 771 4 is_stmt 1
 771:C:/Users/stapi/OneDrive/Desktop/GD32VW553/V1_MQTT_OK/GD32VW55X_Wifi_BLE_SDK/GD32VW55x_RELEASE_V1.0.2/MSDK/rtos/FreeRTOS/Source\timers.c **** 
 827              		.loc 1 771 12 is_stmt 0
 828 00ee 2254     		lw	s0,40(sp)
 829              	.LVL76:
 773:C:/Users/stapi/OneDrive/Desktop/GD32VW553/V1_MQTT_OK/GD32VW55X_Wifi_BLE_SDK/GD32VW55x_RELEASE_V1.0.2/MSDK/rtos/FreeRTOS/Source\timers.c **** 			{
 830              		.loc 1 773 4 is_stmt 1
 773:C:/Users/stapi/OneDrive/Desktop/GD32VW553/V1_MQTT_OK/GD32VW55X_Wifi_BLE_SDK/GD32VW55x_RELEASE_V1.0.2/MSDK/rtos/FreeRTOS/Source\timers.c **** 			{
 831              		.loc 1 773 6 is_stmt 0
 832 00f0 5C4C     		lw	a5,28(s0)
 833 00f2 99C7     		beq	a5,zero,.L65
 776:C:/Users/stapi/OneDrive/Desktop/GD32VW553/V1_MQTT_OK/GD32VW55X_Wifi_BLE_SDK/GD32VW55x_RELEASE_V1.0.2/MSDK/rtos/FreeRTOS/Source\timers.c **** 			}
 834              		.loc 1 776 5 is_stmt 1
 776:C:/Users/stapi/OneDrive/Desktop/GD32VW553/V1_MQTT_OK/GD32VW55X_Wifi_BLE_SDK/GD32VW55x_RELEASE_V1.0.2/MSDK/rtos/FreeRTOS/Source\timers.c **** 			}
 835              		.loc 1 776 14 is_stmt 0
 836 00f4 13058400 		addi	a0,s0,8
 837 00f8 97000000 		call	uxListRemove
 837      E7800000 
 838              	.LVL77:
 839              	.L65:
 780:C:/Users/stapi/OneDrive/Desktop/GD32VW553/V1_MQTT_OK/GD32VW55X_Wifi_BLE_SDK/GD32VW55x_RELEASE_V1.0.2/MSDK/rtos/FreeRTOS/Source\timers.c **** 			}
 840              		.loc 1 780 29 is_stmt 1
 783:C:/Users/stapi/OneDrive/Desktop/GD32VW553/V1_MQTT_OK/GD32VW55X_Wifi_BLE_SDK/GD32VW55x_RELEASE_V1.0.2/MSDK/rtos/FreeRTOS/Source\timers.c **** 
 841              		.loc 1 783 106
 791:C:/Users/stapi/OneDrive/Desktop/GD32VW553/V1_MQTT_OK/GD32VW55X_Wifi_BLE_SDK/GD32VW55x_RELEASE_V1.0.2/MSDK/rtos/FreeRTOS/Source\timers.c **** 
 842              		.loc 1 791 4
 791:C:/Users/stapi/OneDrive/Desktop/GD32VW553/V1_MQTT_OK/GD32VW55X_Wifi_BLE_SDK/GD32VW55x_RELEASE_V1.0.2/MSDK/rtos/FreeRTOS/Source\timers.c **** 
 843              		.loc 1 791 15 is_stmt 0
 844 0100 4808     		addi	a0,sp,20
 845 0102 97000000 		call	prvSampleTimeNow
 845      E7800000 
 846              	.LVL78:
 847 010a E247     		lw	a5,24(sp)
 848 010c AA86     		mv	a3,a0
 849 010e 2E87     		mv	a4,a1
 850              	.LVL79:
 793:C:/Users/stapi/OneDrive/Desktop/GD32VW553/V1_MQTT_OK/GD32VW55X_Wifi_BLE_SDK/GD32VW55x_RELEASE_V1.0.2/MSDK/rtos/FreeRTOS/Source\timers.c **** 			{
 851              		.loc 1 793 4 is_stmt 1
 852 0110 E3E2F4FC 		bgtu	a5,s1,.L64
 853 0114 B3C74721 		sh2add	a5,a5,s4
 854 0118 9C43     		lw	a5,0(a5)
 855 011a 8287     		jr	a5
 856              		.section	.rodata.prvTimerTask,"a",@progbits
 857              		.align	2
 858              		.align	2
 859              	.L68:
 860 0000 00000000 		.word	.L70
 861 0004 00000000 		.word	.L70
 862 0008 00000000 		.word	.L70
 863 000c 00000000 		.word	.L69
 864 0010 00000000 		.word	.L67
 865 0014 00000000 		.word	.L71
 866 0018 00000000 		.word	.L70
 867 001c 00000000 		.word	.L70
 868 0020 00000000 		.word	.L69
 869 0024 00000000 		.word	.L67
 870              		.section	.text.prvTimerTask
 871              	.LVL80:
 872              	.L78:
 873              	.LBE41:
 874              	.LBE40:
 875              	.LBB43:
 876              	.LBB29:
 655:C:/Users/stapi/OneDrive/Desktop/GD32VW553/V1_MQTT_OK/GD32VW55X_Wifi_BLE_SDK/GD32VW55x_RELEASE_V1.0.2/MSDK/rtos/FreeRTOS/Source\timers.c **** 	if( *pxListWasEmpty == pdFALSE )
 877              		.loc 1 655 20 is_stmt 0
 878 011c 8546     		li	a3,1
 663:C:/Users/stapi/OneDrive/Desktop/GD32VW553/V1_MQTT_OK/GD32VW55X_Wifi_BLE_SDK/GD32VW55x_RELEASE_V1.0.2/MSDK/rtos/FreeRTOS/Source\timers.c **** 	}
 879              		.loc 1 663 19
 880 011e 0144     		li	s0,0
 881 0120 8144     		li	s1,0
 882 0122 01BF     		j	.L55
 883              	.LVL81:
 884              	.L60:
 885              	.LBE29:
 886              	.LBE43:
 887              	.LBB44:
 888              	.LBB37:
 889              	.LBB35:
 890              	.LBB34:
 539:C:/Users/stapi/OneDrive/Desktop/GD32VW553/V1_MQTT_OK/GD32VW55X_Wifi_BLE_SDK/GD32VW55x_RELEASE_V1.0.2/MSDK/rtos/FreeRTOS/Source\timers.c **** 		mtCOVERAGE_TEST_MARKER();
 891              		.loc 1 539 3 is_stmt 1
 539:C:/Users/stapi/OneDrive/Desktop/GD32VW553/V1_MQTT_OK/GD32VW55X_Wifi_BLE_SDK/GD32VW55x_RELEASE_V1.0.2/MSDK/rtos/FreeRTOS/Source\timers.c **** 		mtCOVERAGE_TEST_MARKER();
 892              		.loc 1 539 21 is_stmt 0
 893 0124 F99B     		andi	a5,a5,-2
 894 0126 230AF902 		sb	a5,52(s2)
 895 012a 45B7     		j	.L61
 896              	.LVL82:
 897              	.L57:
 898              	.LBE34:
 899              	.LBE35:
 613:C:/Users/stapi/OneDrive/Desktop/GD32VW553/V1_MQTT_OK/GD32VW55X_Wifi_BLE_SDK/GD32VW55x_RELEASE_V1.0.2/MSDK/rtos/FreeRTOS/Source\timers.c **** 				{
 900              		.loc 1 613 5 is_stmt 1
 617:C:/Users/stapi/OneDrive/Desktop/GD32VW553/V1_MQTT_OK/GD32VW55X_Wifi_BLE_SDK/GD32VW55x_RELEASE_V1.0.2/MSDK/rtos/FreeRTOS/Source\timers.c **** 				}
 901              		.loc 1 617 6
 617:C:/Users/stapi/OneDrive/Desktop/GD32VW553/V1_MQTT_OK/GD32VW55X_Wifi_BLE_SDK/GD32VW55x_RELEASE_V1.0.2/MSDK/rtos/FreeRTOS/Source\timers.c **** 				}
 902              		.loc 1 617 22 is_stmt 0
 903 012c 83270C00 		lw	a5,%lo(.LANCHOR4)(s8)
 904 0130 9443     		lw	a3,0(a5)
 905 0132 93B61600 		seqz	a3,a3
 906              	.L58:
 907              	.LVL83:
 620:C:/Users/stapi/OneDrive/Desktop/GD32VW553/V1_MQTT_OK/GD32VW55X_Wifi_BLE_SDK/GD32VW55x_RELEASE_V1.0.2/MSDK/rtos/FreeRTOS/Source\timers.c **** 
 908              		.loc 1 620 5 is_stmt 1
 909 0136 B3053441 		sub	a1,s0,s3
 910              	.LVL84:
 911 013a 03250B00 		lw	a0,0(s6)
 912              	.LVL85:
 913 013e 3334B400 		sgtu	s0,a1,s0
 914              	.LVL86:
 915 0142 3386E440 		sub	a2,s1,a4
 916 0146 018E     		sub	a2,a2,s0
 917 0148 97000000 		call	vQueueWaitForMessageRestricted
 917      E7800000 
 918              	.LVL87:
 622:C:/Users/stapi/OneDrive/Desktop/GD32VW553/V1_MQTT_OK/GD32VW55X_Wifi_BLE_SDK/GD32VW55x_RELEASE_V1.0.2/MSDK/rtos/FreeRTOS/Source\timers.c **** 				{
 919              		.loc 1 622 5
 622:C:/Users/stapi/OneDrive/Desktop/GD32VW553/V1_MQTT_OK/GD32VW55X_Wifi_BLE_SDK/GD32VW55x_RELEASE_V1.0.2/MSDK/rtos/FreeRTOS/Source\timers.c **** 				{
 920              		.loc 1 622 9 is_stmt 0
 921 0150 97000000 		call	xTaskResumeAll
 921      E7800000 
 922              	.LVL88:
 622:C:/Users/stapi/OneDrive/Desktop/GD32VW553/V1_MQTT_OK/GD32VW55X_Wifi_BLE_SDK/GD32VW55x_RELEASE_V1.0.2/MSDK/rtos/FreeRTOS/Source\timers.c **** 				{
 923              		.loc 1 622 7
 924 0158 2DFD     		bne	a0,zero,.L62
 628:C:/Users/stapi/OneDrive/Desktop/GD32VW553/V1_MQTT_OK/GD32VW55X_Wifi_BLE_SDK/GD32VW55x_RELEASE_V1.0.2/MSDK/rtos/FreeRTOS/Source\timers.c **** 				}
 925              		.loc 1 628 6 is_stmt 1
 926 015a 97000000 		call	portYIELD
 926      E7800000 
 927              	.LVL89:
 928 0162 85BF     		j	.L62
 929              	.LVL90:
 930              	.L56:
 638:C:/Users/stapi/OneDrive/Desktop/GD32VW553/V1_MQTT_OK/GD32VW55X_Wifi_BLE_SDK/GD32VW55x_RELEASE_V1.0.2/MSDK/rtos/FreeRTOS/Source\timers.c **** 		}
 931              		.loc 1 638 4
 638:C:/Users/stapi/OneDrive/Desktop/GD32VW553/V1_MQTT_OK/GD32VW55X_Wifi_BLE_SDK/GD32VW55x_RELEASE_V1.0.2/MSDK/rtos/FreeRTOS/Source\timers.c **** 		}
 932              		.loc 1 638 13 is_stmt 0
 933 0164 97000000 		call	xTaskResumeAll
 933      E7800000 
 934              	.LVL91:
 935 016c 9DB7     		j	.L62
 936              	.LVL92:
 937              	.L70:
 938              	.LBE37:
 939              	.LBE44:
 940              	.LBB45:
 941              	.LBB42:
 801:C:/Users/stapi/OneDrive/Desktop/GD32VW553/V1_MQTT_OK/GD32VW55X_Wifi_BLE_SDK/GD32VW55x_RELEASE_V1.0.2/MSDK/rtos/FreeRTOS/Source\timers.c **** 					if( prvInsertTimerInActiveList( pxTimer,  xMessage.u.xTimerParameters.xMessageValue + pxTimer-
 942              		.loc 1 801 6 is_stmt 1
 801:C:/Users/stapi/OneDrive/Desktop/GD32VW553/V1_MQTT_OK/GD32VW55X_Wifi_BLE_SDK/GD32VW55x_RELEASE_V1.0.2/MSDK/rtos/FreeRTOS/Source\timers.c **** 					if( prvInsertTimerInActiveList( pxTimer,  xMessage.u.xTimerParameters.xMessageValue + pxTimer-
 943              		.loc 1 801 24 is_stmt 0
 944 016e 83474403 		lbu	a5,52(s0)
 802:C:/Users/stapi/OneDrive/Desktop/GD32VW553/V1_MQTT_OK/GD32VW55X_Wifi_BLE_SDK/GD32VW55x_RELEASE_V1.0.2/MSDK/rtos/FreeRTOS/Source\timers.c **** 					{
 945              		.loc 1 802 10
 946 0172 0C50     		lw	a1,32(s0)
 947              	.LVL93:
 948 0174 5050     		lw	a2,36(s0)
 801:C:/Users/stapi/OneDrive/Desktop/GD32VW553/V1_MQTT_OK/GD32VW55X_Wifi_BLE_SDK/GD32VW55x_RELEASE_V1.0.2/MSDK/rtos/FreeRTOS/Source\timers.c **** 					if( prvInsertTimerInActiveList( pxTimer,  xMessage.u.xTimerParameters.xMessageValue + pxTimer-
 949              		.loc 1 801 24
 950 0176 93E71700 		ori	a5,a5,1
 951 017a 230AF402 		sb	a5,52(s0)
 802:C:/Users/stapi/OneDrive/Desktop/GD32VW553/V1_MQTT_OK/GD32VW55X_Wifi_BLE_SDK/GD32VW55x_RELEASE_V1.0.2/MSDK/rtos/FreeRTOS/Source\timers.c **** 					{
 952              		.loc 1 802 6 is_stmt 1
 802:C:/Users/stapi/OneDrive/Desktop/GD32VW553/V1_MQTT_OK/GD32VW55X_Wifi_BLE_SDK/GD32VW55x_RELEASE_V1.0.2/MSDK/rtos/FreeRTOS/Source\timers.c **** 					{
 953              		.loc 1 802 75 is_stmt 0
 954 017e 8257     		lw	a5,32(sp)
 955 0180 1258     		lw	a6,36(sp)
 802:C:/Users/stapi/OneDrive/Desktop/GD32VW553/V1_MQTT_OK/GD32VW55X_Wifi_BLE_SDK/GD32VW55x_RELEASE_V1.0.2/MSDK/rtos/FreeRTOS/Source\timers.c **** 					{
 956              		.loc 1 802 10
 957 0182 BE95     		add	a1,a5,a1
 958 0184 33B5F500 		sltu	a0,a1,a5
 959              	.LVL94:
 960 0188 4296     		add	a2,a6,a2
 961 018a 2A96     		add	a2,a0,a2
 962 018c 2285     		mv	a0,s0
 963 018e 97000000 		call	prvInsertTimerInActiveList
 963      E7800000 
 964              	.LVL95:
 802:C:/Users/stapi/OneDrive/Desktop/GD32VW553/V1_MQTT_OK/GD32VW55X_Wifi_BLE_SDK/GD32VW55x_RELEASE_V1.0.2/MSDK/rtos/FreeRTOS/Source\timers.c **** 					{
 965              		.loc 1 802 8
 966 0196 1DDD     		beq	a0,zero,.L64
 806:C:/Users/stapi/OneDrive/Desktop/GD32VW553/V1_MQTT_OK/GD32VW55X_Wifi_BLE_SDK/GD32VW55x_RELEASE_V1.0.2/MSDK/rtos/FreeRTOS/Source\timers.c **** 						traceTIMER_EXPIRED( pxTimer );
 967              		.loc 1 806 7 is_stmt 1
 968 0198 5C54     		lw	a5,44(s0)
 969 019a 2285     		mv	a0,s0
 970 019c 8297     		jalr	a5
 971              	.LVL96:
 807:C:/Users/stapi/OneDrive/Desktop/GD32VW553/V1_MQTT_OK/GD32VW55X_Wifi_BLE_SDK/GD32VW55x_RELEASE_V1.0.2/MSDK/rtos/FreeRTOS/Source\timers.c **** 
 972              		.loc 1 807 36
 809:C:/Users/stapi/OneDrive/Desktop/GD32VW553/V1_MQTT_OK/GD32VW55X_Wifi_BLE_SDK/GD32VW55x_RELEASE_V1.0.2/MSDK/rtos/FreeRTOS/Source\timers.c **** 						{
 973              		.loc 1 809 7
 809:C:/Users/stapi/OneDrive/Desktop/GD32VW553/V1_MQTT_OK/GD32VW55X_Wifi_BLE_SDK/GD32VW55x_RELEASE_V1.0.2/MSDK/rtos/FreeRTOS/Source\timers.c **** 						{
 974              		.loc 1 809 9 is_stmt 0
 975 019e 83474403 		lbu	a5,52(s0)
 976 01a2 918B     		andi	a5,a5,4
 977 01a4 85DB     		beq	a5,zero,.L64
 811:C:/Users/stapi/OneDrive/Desktop/GD32VW553/V1_MQTT_OK/GD32VW55X_Wifi_BLE_SDK/GD32VW55x_RELEASE_V1.0.2/MSDK/rtos/FreeRTOS/Source\timers.c **** 							configASSERT( xResult );
 978              		.loc 1 811 8 is_stmt 1
 811:C:/Users/stapi/OneDrive/Desktop/GD32VW553/V1_MQTT_OK/GD32VW55X_Wifi_BLE_SDK/GD32VW55x_RELEASE_V1.0.2/MSDK/rtos/FreeRTOS/Source\timers.c **** 							configASSERT( xResult );
 979              		.loc 1 811 18 is_stmt 0
 980 01a6 8256     		lw	a3,32(sp)
 981 01a8 1050     		lw	a2,32(s0)
 982 01aa 5C50     		lw	a5,36(s0)
 983 01ac 9255     		lw	a1,36(sp)
 984 01ae 3696     		add	a2,a3,a2
 985 01b0 B336D600 		sltu	a3,a2,a3
 986 01b4 BE95     		add	a1,a1,a5
 987 01b6 AE96     		add	a3,a3,a1
 988 01b8 8147     		li	a5,0
 989 01ba 0148     		li	a6,0
 990 01bc 0147     		li	a4,0
 991 01be 8145     		li	a1,0
 992 01c0 2285     		mv	a0,s0
 993 01c2 97000000 		call	xTimerGenericCommand
 993      E7800000 
 994              	.LVL97:
 812:C:/Users/stapi/OneDrive/Desktop/GD32VW553/V1_MQTT_OK/GD32VW55X_Wifi_BLE_SDK/GD32VW55x_RELEASE_V1.0.2/MSDK/rtos/FreeRTOS/Source\timers.c **** 							( void ) xResult;
 995              		.loc 1 812 31 is_stmt 1
 813:C:/Users/stapi/OneDrive/Desktop/GD32VW553/V1_MQTT_OK/GD32VW55X_Wifi_BLE_SDK/GD32VW55x_RELEASE_V1.0.2/MSDK/rtos/FreeRTOS/Source\timers.c **** 						}
 996              		.loc 1 813 8
 997 01ca 29B7     		j	.L64
 998              	.LVL98:
 999              	.L69:
 829:C:/Users/stapi/OneDrive/Desktop/GD32VW553/V1_MQTT_OK/GD32VW55X_Wifi_BLE_SDK/GD32VW55x_RELEASE_V1.0.2/MSDK/rtos/FreeRTOS/Source\timers.c **** 					break;
 1000              		.loc 1 829 6
 829:C:/Users/stapi/OneDrive/Desktop/GD32VW553/V1_MQTT_OK/GD32VW55X_Wifi_BLE_SDK/GD32VW55x_RELEASE_V1.0.2/MSDK/rtos/FreeRTOS/Source\timers.c **** 					break;
 1001              		.loc 1 829 24 is_stmt 0
 1002 01cc 83474403 		lbu	a5,52(s0)
 1003              	.L75:
 859:C:/Users/stapi/OneDrive/Desktop/GD32VW553/V1_MQTT_OK/GD32VW55X_Wifi_BLE_SDK/GD32VW55x_RELEASE_V1.0.2/MSDK/rtos/FreeRTOS/Source\timers.c **** 						}
 1004              		.loc 1 859 8 is_stmt 1
 859:C:/Users/stapi/OneDrive/Desktop/GD32VW553/V1_MQTT_OK/GD32VW55X_Wifi_BLE_SDK/GD32VW55x_RELEASE_V1.0.2/MSDK/rtos/FreeRTOS/Source\timers.c **** 						}
 1005              		.loc 1 859 26 is_stmt 0
 1006 01d0 F99B     		andi	a5,a5,-2
 1007 01d2 230AF402 		sb	a5,52(s0)
 1008 01d6 FDBD     		j	.L64
 1009              	.L67:
 834:C:/Users/stapi/OneDrive/Desktop/GD32VW553/V1_MQTT_OK/GD32VW55X_Wifi_BLE_SDK/GD32VW55x_RELEASE_V1.0.2/MSDK/rtos/FreeRTOS/Source\timers.c **** 					pxTimer->xTimerPeriodInTicks = xMessage.u.xTimerParameters.xMessageValue;
 1010              		.loc 1 834 6 is_stmt 1
 834:C:/Users/stapi/OneDrive/Desktop/GD32VW553/V1_MQTT_OK/GD32VW55X_Wifi_BLE_SDK/GD32VW55x_RELEASE_V1.0.2/MSDK/rtos/FreeRTOS/Source\timers.c **** 					pxTimer->xTimerPeriodInTicks = xMessage.u.xTimerParameters.xMessageValue;
 1011              		.loc 1 834 24 is_stmt 0
 1012 01d8 83474403 		lbu	a5,52(s0)
 844:C:/Users/stapi/OneDrive/Desktop/GD32VW553/V1_MQTT_OK/GD32VW55X_Wifi_BLE_SDK/GD32VW55x_RELEASE_V1.0.2/MSDK/rtos/FreeRTOS/Source\timers.c **** 					break;
 1013              		.loc 1 844 15
 1014 01dc 3A88     		mv	a6,a4
 834:C:/Users/stapi/OneDrive/Desktop/GD32VW553/V1_MQTT_OK/GD32VW55X_Wifi_BLE_SDK/GD32VW55x_RELEASE_V1.0.2/MSDK/rtos/FreeRTOS/Source\timers.c **** 					pxTimer->xTimerPeriodInTicks = xMessage.u.xTimerParameters.xMessageValue;
 1015              		.loc 1 834 24
 1016 01de 93E71700 		ori	a5,a5,1
 1017 01e2 230AF402 		sb	a5,52(s0)
 835:C:/Users/stapi/OneDrive/Desktop/GD32VW553/V1_MQTT_OK/GD32VW55X_Wifi_BLE_SDK/GD32VW55x_RELEASE_V1.0.2/MSDK/rtos/FreeRTOS/Source\timers.c **** 					configASSERT( ( pxTimer->xTimerPeriodInTicks > 0 ) );
 1018              		.loc 1 835 6 is_stmt 1
 835:C:/Users/stapi/OneDrive/Desktop/GD32VW553/V1_MQTT_OK/GD32VW55X_Wifi_BLE_SDK/GD32VW55x_RELEASE_V1.0.2/MSDK/rtos/FreeRTOS/Source\timers.c **** 					configASSERT( ( pxTimer->xTimerPeriodInTicks > 0 ) );
 1019              		.loc 1 835 64 is_stmt 0
 1020 01e6 8257     		lw	a5,32(sp)
 1021 01e8 1255     		lw	a0,36(sp)
 1022              	.LVL99:
 844:C:/Users/stapi/OneDrive/Desktop/GD32VW553/V1_MQTT_OK/GD32VW55X_Wifi_BLE_SDK/GD32VW55x_RELEASE_V1.0.2/MSDK/rtos/FreeRTOS/Source\timers.c **** 					break;
 1023              		.loc 1 844 15
 1024 01ea B385F600 		add	a1,a3,a5
 1025              	.LVL100:
 835:C:/Users/stapi/OneDrive/Desktop/GD32VW553/V1_MQTT_OK/GD32VW55X_Wifi_BLE_SDK/GD32VW55x_RELEASE_V1.0.2/MSDK/rtos/FreeRTOS/Source\timers.c **** 					configASSERT( ( pxTimer->xTimerPeriodInTicks > 0 ) );
 1026              		.loc 1 835 35
 1027 01ee 48D0     		sw	a0,36(s0)
 836:C:/Users/stapi/OneDrive/Desktop/GD32VW553/V1_MQTT_OK/GD32VW55X_Wifi_BLE_SDK/GD32VW55x_RELEASE_V1.0.2/MSDK/rtos/FreeRTOS/Source\timers.c **** 
 1028              		.loc 1 836 58 is_stmt 1
 844:C:/Users/stapi/OneDrive/Desktop/GD32VW553/V1_MQTT_OK/GD32VW55X_Wifi_BLE_SDK/GD32VW55x_RELEASE_V1.0.2/MSDK/rtos/FreeRTOS/Source\timers.c **** 					break;
 1029              		.loc 1 844 6
 844:C:/Users/stapi/OneDrive/Desktop/GD32VW553/V1_MQTT_OK/GD32VW55X_Wifi_BLE_SDK/GD32VW55x_RELEASE_V1.0.2/MSDK/rtos/FreeRTOS/Source\timers.c **** 					break;
 1030              		.loc 1 844 15 is_stmt 0
 1031 01f0 33B6D500 		sltu	a2,a1,a3
 1032 01f4 3A95     		add	a0,a4,a0
 835:C:/Users/stapi/OneDrive/Desktop/GD32VW553/V1_MQTT_OK/GD32VW55X_Wifi_BLE_SDK/GD32VW55x_RELEASE_V1.0.2/MSDK/rtos/FreeRTOS/Source\timers.c **** 					configASSERT( ( pxTimer->xTimerPeriodInTicks > 0 ) );
 1033              		.loc 1 835 35
 1034 01f6 1CD0     		sw	a5,32(s0)
 844:C:/Users/stapi/OneDrive/Desktop/GD32VW553/V1_MQTT_OK/GD32VW55X_Wifi_BLE_SDK/GD32VW55x_RELEASE_V1.0.2/MSDK/rtos/FreeRTOS/Source\timers.c **** 					break;
 1035              		.loc 1 844 15
 1036 01f8 2A96     		add	a2,a2,a0
 1037 01fa B687     		mv	a5,a3
 1038 01fc 2285     		mv	a0,s0
 1039 01fe 97000000 		call	prvInsertTimerInActiveList
 1039      E7800000 
 1040              	.LVL101:
 845:C:/Users/stapi/OneDrive/Desktop/GD32VW553/V1_MQTT_OK/GD32VW55X_Wifi_BLE_SDK/GD32VW55x_RELEASE_V1.0.2/MSDK/rtos/FreeRTOS/Source\timers.c **** 
 1041              		.loc 1 845 6 is_stmt 1
 1042 0206 F9B5     		j	.L64
 1043              	.LVL102:
 1044              	.L71:
 853:C:/Users/stapi/OneDrive/Desktop/GD32VW553/V1_MQTT_OK/GD32VW55X_Wifi_BLE_SDK/GD32VW55x_RELEASE_V1.0.2/MSDK/rtos/FreeRTOS/Source\timers.c **** 						{
 1045              		.loc 1 853 7
 853:C:/Users/stapi/OneDrive/Desktop/GD32VW553/V1_MQTT_OK/GD32VW55X_Wifi_BLE_SDK/GD32VW55x_RELEASE_V1.0.2/MSDK/rtos/FreeRTOS/Source\timers.c **** 						{
 1046              		.loc 1 853 20 is_stmt 0
 1047 0208 83474403 		lbu	a5,52(s0)
 853:C:/Users/stapi/OneDrive/Desktop/GD32VW553/V1_MQTT_OK/GD32VW55X_Wifi_BLE_SDK/GD32VW55x_RELEASE_V1.0.2/MSDK/rtos/FreeRTOS/Source\timers.c **** 						{
 1048              		.loc 1 853 9
 1049 020c 13F72700 		andi	a4,a5,2
 1050 0210 61F3     		bne	a4,zero,.L75
 855:C:/Users/stapi/OneDrive/Desktop/GD32VW553/V1_MQTT_OK/GD32VW55X_Wifi_BLE_SDK/GD32VW55x_RELEASE_V1.0.2/MSDK/rtos/FreeRTOS/Source\timers.c **** 						}
 1051              		.loc 1 855 8 is_stmt 1
 1052 0212 2285     		mv	a0,s0
 1053              	.LVL103:
 1054 0214 97000000 		call	vPortFree
 1054      E7800000 
 1055              	.LVL104:
 1056 021c 65BD     		j	.L64
 1057              	.LBE42:
 1058              	.LBE45:
 1059              		.cfi_endproc
 1060              	.LFE11:
 1062              		.section	.text.xTimerGetTimerDaemonTaskHandle,"ax",@progbits
 1063              		.align	1
 1064              		.globl	xTimerGetTimerDaemonTaskHandle
 1066              	xTimerGetTimerDaemonTaskHandle:
 1067              	.LFB4:
 425:C:/Users/stapi/OneDrive/Desktop/GD32VW553/V1_MQTT_OK/GD32VW55X_Wifi_BLE_SDK/GD32VW55x_RELEASE_V1.0.2/MSDK/rtos/FreeRTOS/Source\timers.c **** 	/* If xTimerGetTimerDaemonTaskHandle() is called before the scheduler has been
 1068              		.loc 1 425 1
 1069              		.cfi_startproc
 428:C:/Users/stapi/OneDrive/Desktop/GD32VW553/V1_MQTT_OK/GD32VW55X_Wifi_BLE_SDK/GD32VW55x_RELEASE_V1.0.2/MSDK/rtos/FreeRTOS/Source\timers.c **** 	return xTimerTaskHandle;
 1070              		.loc 1 428 46
 429:C:/Users/stapi/OneDrive/Desktop/GD32VW553/V1_MQTT_OK/GD32VW55X_Wifi_BLE_SDK/GD32VW55x_RELEASE_V1.0.2/MSDK/rtos/FreeRTOS/Source\timers.c **** }
 1071              		.loc 1 429 2
 430:C:/Users/stapi/OneDrive/Desktop/GD32VW553/V1_MQTT_OK/GD32VW55X_Wifi_BLE_SDK/GD32VW55x_RELEASE_V1.0.2/MSDK/rtos/FreeRTOS/Source\timers.c **** /*-----------------------------------------------------------*/
 1072              		.loc 1 430 1 is_stmt 0
 1073 0000 B7070000 		lui	a5,%hi(.LANCHOR5)
 1074 0004 03A50700 		lw	a0,%lo(.LANCHOR5)(a5)
 1075 0008 8280     		ret
 1076              		.cfi_endproc
 1077              	.LFE4:
 1079              		.section	.text.xTimerGetPeriod,"ax",@progbits
 1080              		.align	1
 1081              		.globl	xTimerGetPeriod
 1083              	xTimerGetPeriod:
 1084              	.LFB5:
 434:C:/Users/stapi/OneDrive/Desktop/GD32VW553/V1_MQTT_OK/GD32VW55X_Wifi_BLE_SDK/GD32VW55x_RELEASE_V1.0.2/MSDK/rtos/FreeRTOS/Source\timers.c **** Timer_t *pxTimer = xTimer;
 1085              		.loc 1 434 1 is_stmt 1
 1086              		.cfi_startproc
 1087              	.LVL105:
 435:C:/Users/stapi/OneDrive/Desktop/GD32VW553/V1_MQTT_OK/GD32VW55X_Wifi_BLE_SDK/GD32VW55x_RELEASE_V1.0.2/MSDK/rtos/FreeRTOS/Source\timers.c **** 
 1088              		.loc 1 435 1
 437:C:/Users/stapi/OneDrive/Desktop/GD32VW553/V1_MQTT_OK/GD32VW55X_Wifi_BLE_SDK/GD32VW55x_RELEASE_V1.0.2/MSDK/rtos/FreeRTOS/Source\timers.c **** 	return pxTimer->xTimerPeriodInTicks;
 1089              		.loc 1 437 24
 438:C:/Users/stapi/OneDrive/Desktop/GD32VW553/V1_MQTT_OK/GD32VW55X_Wifi_BLE_SDK/GD32VW55x_RELEASE_V1.0.2/MSDK/rtos/FreeRTOS/Source\timers.c **** }
 1090              		.loc 1 438 2
 439:C:/Users/stapi/OneDrive/Desktop/GD32VW553/V1_MQTT_OK/GD32VW55X_Wifi_BLE_SDK/GD32VW55x_RELEASE_V1.0.2/MSDK/rtos/FreeRTOS/Source\timers.c **** /*-----------------------------------------------------------*/
 1091              		.loc 1 439 1 is_stmt 0
 1092 0000 4C51     		lw	a1,36(a0)
 1093 0002 0851     		lw	a0,32(a0)
 1094              	.LVL106:
 1095 0004 8280     		ret
 1096              		.cfi_endproc
 1097              	.LFE5:
 1099              		.section	.text.vTimerSetReloadMode,"ax",@progbits
 1100              		.align	1
 1101              		.globl	vTimerSetReloadMode
 1103              	vTimerSetReloadMode:
 1104              	.LFB6:
 443:C:/Users/stapi/OneDrive/Desktop/GD32VW553/V1_MQTT_OK/GD32VW55X_Wifi_BLE_SDK/GD32VW55x_RELEASE_V1.0.2/MSDK/rtos/FreeRTOS/Source\timers.c **** Timer_t * pxTimer =  xTimer;
 1105              		.loc 1 443 1 is_stmt 1
 1106              		.cfi_startproc
 1107              	.LVL107:
 1108 0000 17030000 		call	t0,__riscv_save_2
 1108      E7020300 
 1109              		.cfi_offset 9, -12
 1110              		.cfi_offset 8, -8
 1111              		.cfi_offset 1, -4
 1112              		.cfi_def_cfa_offset 16
 444:C:/Users/stapi/OneDrive/Desktop/GD32VW553/V1_MQTT_OK/GD32VW55X_Wifi_BLE_SDK/GD32VW55x_RELEASE_V1.0.2/MSDK/rtos/FreeRTOS/Source\timers.c **** 
 1113              		.loc 1 444 1
 443:C:/Users/stapi/OneDrive/Desktop/GD32VW553/V1_MQTT_OK/GD32VW55X_Wifi_BLE_SDK/GD32VW55x_RELEASE_V1.0.2/MSDK/rtos/FreeRTOS/Source\timers.c **** Timer_t * pxTimer =  xTimer;
 1114              		.loc 1 443 1 is_stmt 0
 1115 0008 2A84     		mv	s0,a0
 1116              	.LVL108:
 446:C:/Users/stapi/OneDrive/Desktop/GD32VW553/V1_MQTT_OK/GD32VW55X_Wifi_BLE_SDK/GD32VW55x_RELEASE_V1.0.2/MSDK/rtos/FreeRTOS/Source\timers.c **** 	taskENTER_CRITICAL();
 1117              		.loc 1 446 24 is_stmt 1
 447:C:/Users/stapi/OneDrive/Desktop/GD32VW553/V1_MQTT_OK/GD32VW55X_Wifi_BLE_SDK/GD32VW55x_RELEASE_V1.0.2/MSDK/rtos/FreeRTOS/Source\timers.c **** 	{
 1118              		.loc 1 447 2
 443:C:/Users/stapi/OneDrive/Desktop/GD32VW553/V1_MQTT_OK/GD32VW55X_Wifi_BLE_SDK/GD32VW55x_RELEASE_V1.0.2/MSDK/rtos/FreeRTOS/Source\timers.c **** Timer_t * pxTimer =  xTimer;
 1119              		.loc 1 443 1 is_stmt 0
 1120 000a AE84     		mv	s1,a1
 447:C:/Users/stapi/OneDrive/Desktop/GD32VW553/V1_MQTT_OK/GD32VW55X_Wifi_BLE_SDK/GD32VW55x_RELEASE_V1.0.2/MSDK/rtos/FreeRTOS/Source\timers.c **** 	{
 1121              		.loc 1 447 2
 1122 000c 97000000 		call	vPortEnterCritical
 1122      E7800000 
 1123              	.LVL109:
 449:C:/Users/stapi/OneDrive/Desktop/GD32VW553/V1_MQTT_OK/GD32VW55X_Wifi_BLE_SDK/GD32VW55x_RELEASE_V1.0.2/MSDK/rtos/FreeRTOS/Source\timers.c **** 		{
 1124              		.loc 1 449 3 is_stmt 1
 1125 0014 83474403 		lbu	a5,52(s0)
 1126 0018 13F7B70F 		andi	a4,a5,251
 449:C:/Users/stapi/OneDrive/Desktop/GD32VW553/V1_MQTT_OK/GD32VW55X_Wifi_BLE_SDK/GD32VW55x_RELEASE_V1.0.2/MSDK/rtos/FreeRTOS/Source\timers.c **** 		{
 1127              		.loc 1 449 5 is_stmt 0
 1128 001c 89C4     		beq	s1,zero,.L96
 451:C:/Users/stapi/OneDrive/Desktop/GD32VW553/V1_MQTT_OK/GD32VW55X_Wifi_BLE_SDK/GD32VW55x_RELEASE_V1.0.2/MSDK/rtos/FreeRTOS/Source\timers.c **** 		}
 1129              		.loc 1 451 4 is_stmt 1
 451:C:/Users/stapi/OneDrive/Desktop/GD32VW553/V1_MQTT_OK/GD32VW55X_Wifi_BLE_SDK/GD32VW55x_RELEASE_V1.0.2/MSDK/rtos/FreeRTOS/Source\timers.c **** 		}
 1130              		.loc 1 451 22 is_stmt 0
 1131 001e 93E74700 		ori	a5,a5,4
 1132 0022 13F7F70F 		andi	a4,a5,0xff
 1133              	.L96:
 1134 0026 230AE402 		sb	a4,52(s0)
 458:C:/Users/stapi/OneDrive/Desktop/GD32VW553/V1_MQTT_OK/GD32VW55X_Wifi_BLE_SDK/GD32VW55x_RELEASE_V1.0.2/MSDK/rtos/FreeRTOS/Source\timers.c **** }
 1135              		.loc 1 458 2 is_stmt 1
 1136 002a 97000000 		call	vPortExitCritical
 1136      E7800000 
 1137              	.LVL110:
 459:C:/Users/stapi/OneDrive/Desktop/GD32VW553/V1_MQTT_OK/GD32VW55X_Wifi_BLE_SDK/GD32VW55x_RELEASE_V1.0.2/MSDK/rtos/FreeRTOS/Source\timers.c **** /*-----------------------------------------------------------*/
 1138              		.loc 1 459 1 is_stmt 0
 1139 0032 17030000 		tail	__riscv_restore_2
 1139      67000300 
 1140              		.cfi_restore 9
 1141              		.cfi_restore 8
 1142              		.cfi_restore 1
 1143              		.cfi_def_cfa_offset 0
 1144              		.cfi_endproc
 1145              	.LFE6:
 1147              		.section	.text.uxTimerGetReloadMode,"ax",@progbits
 1148              		.align	1
 1149              		.globl	uxTimerGetReloadMode
 1151              	uxTimerGetReloadMode:
 1152              	.LFB7:
 463:C:/Users/stapi/OneDrive/Desktop/GD32VW553/V1_MQTT_OK/GD32VW55X_Wifi_BLE_SDK/GD32VW55x_RELEASE_V1.0.2/MSDK/rtos/FreeRTOS/Source\timers.c **** Timer_t * pxTimer =  xTimer;
 1153              		.loc 1 463 1 is_stmt 1
 1154              		.cfi_startproc
 1155              	.LVL111:
 1156 0000 17030000 		call	t0,__riscv_save_1
 1156      E7020300 
 1157              		.cfi_offset 8, -8
 1158              		.cfi_offset 1, -4
 1159              		.cfi_def_cfa_offset 16
 464:C:/Users/stapi/OneDrive/Desktop/GD32VW553/V1_MQTT_OK/GD32VW55X_Wifi_BLE_SDK/GD32VW55x_RELEASE_V1.0.2/MSDK/rtos/FreeRTOS/Source\timers.c **** UBaseType_t uxReturn;
 1160              		.loc 1 464 1
 463:C:/Users/stapi/OneDrive/Desktop/GD32VW553/V1_MQTT_OK/GD32VW55X_Wifi_BLE_SDK/GD32VW55x_RELEASE_V1.0.2/MSDK/rtos/FreeRTOS/Source\timers.c **** Timer_t * pxTimer =  xTimer;
 1161              		.loc 1 463 1 is_stmt 0
 1162 0008 4111     		addi	sp,sp,-16
 1163              		.cfi_def_cfa_offset 32
 463:C:/Users/stapi/OneDrive/Desktop/GD32VW553/V1_MQTT_OK/GD32VW55X_Wifi_BLE_SDK/GD32VW55x_RELEASE_V1.0.2/MSDK/rtos/FreeRTOS/Source\timers.c **** Timer_t * pxTimer =  xTimer;
 1164              		.loc 1 463 1
 1165 000a 2A84     		mv	s0,a0
 1166              	.LVL112:
 465:C:/Users/stapi/OneDrive/Desktop/GD32VW553/V1_MQTT_OK/GD32VW55X_Wifi_BLE_SDK/GD32VW55x_RELEASE_V1.0.2/MSDK/rtos/FreeRTOS/Source\timers.c **** 
 1167              		.loc 1 465 1 is_stmt 1
 467:C:/Users/stapi/OneDrive/Desktop/GD32VW553/V1_MQTT_OK/GD32VW55X_Wifi_BLE_SDK/GD32VW55x_RELEASE_V1.0.2/MSDK/rtos/FreeRTOS/Source\timers.c **** 	taskENTER_CRITICAL();
 1168              		.loc 1 467 24
 468:C:/Users/stapi/OneDrive/Desktop/GD32VW553/V1_MQTT_OK/GD32VW55X_Wifi_BLE_SDK/GD32VW55x_RELEASE_V1.0.2/MSDK/rtos/FreeRTOS/Source\timers.c **** 	{
 1169              		.loc 1 468 2
 1170 000c 97000000 		call	vPortEnterCritical
 1170      E7800000 
 1171              	.LVL113:
 470:C:/Users/stapi/OneDrive/Desktop/GD32VW553/V1_MQTT_OK/GD32VW55X_Wifi_BLE_SDK/GD32VW55x_RELEASE_V1.0.2/MSDK/rtos/FreeRTOS/Source\timers.c **** 		{
 1172              		.loc 1 470 3
 470:C:/Users/stapi/OneDrive/Desktop/GD32VW553/V1_MQTT_OK/GD32VW55X_Wifi_BLE_SDK/GD32VW55x_RELEASE_V1.0.2/MSDK/rtos/FreeRTOS/Source\timers.c **** 		{
 1173              		.loc 1 470 5 is_stmt 0
 1174 0014 03454403 		lbu	a0,52(s0)
 1175 0018 13552548 		bexti	a0,a0,2
 1176 001c 2AC6     		sw	a0,12(sp)
 1177              	.LVL114:
 481:C:/Users/stapi/OneDrive/Desktop/GD32VW553/V1_MQTT_OK/GD32VW55X_Wifi_BLE_SDK/GD32VW55x_RELEASE_V1.0.2/MSDK/rtos/FreeRTOS/Source\timers.c **** 
 1178              		.loc 1 481 2 is_stmt 1
 1179 001e 97000000 		call	vPortExitCritical
 1179      E7800000 
 1180              	.LVL115:
 483:C:/Users/stapi/OneDrive/Desktop/GD32VW553/V1_MQTT_OK/GD32VW55X_Wifi_BLE_SDK/GD32VW55x_RELEASE_V1.0.2/MSDK/rtos/FreeRTOS/Source\timers.c **** }
 1181              		.loc 1 483 2
 484:C:/Users/stapi/OneDrive/Desktop/GD32VW553/V1_MQTT_OK/GD32VW55X_Wifi_BLE_SDK/GD32VW55x_RELEASE_V1.0.2/MSDK/rtos/FreeRTOS/Source\timers.c **** /*-----------------------------------------------------------*/
 1182              		.loc 1 484 1 is_stmt 0
 1183 0026 3245     		lw	a0,12(sp)
 1184 0028 4101     		addi	sp,sp,16
 1185              		.cfi_def_cfa_offset 0
 1186              	.LVL116:
 1187 002a 17030000 		tail	__riscv_restore_1
 1187      67000300 
 1188              		.cfi_restore 8
 1189              		.cfi_restore 1
 1190              		.cfi_def_cfa_offset -16
 1191              		.cfi_endproc
 1192              	.LFE7:
 1194              		.section	.text.xTimerGetExpiryTime,"ax",@progbits
 1195              		.align	1
 1196              		.globl	xTimerGetExpiryTime
 1198              	xTimerGetExpiryTime:
 1199              	.LFB8:
 488:C:/Users/stapi/OneDrive/Desktop/GD32VW553/V1_MQTT_OK/GD32VW55X_Wifi_BLE_SDK/GD32VW55x_RELEASE_V1.0.2/MSDK/rtos/FreeRTOS/Source\timers.c **** Timer_t * pxTimer =  xTimer;
 1200              		.loc 1 488 1 is_stmt 1
 1201              		.cfi_startproc
 1202              	.LVL117:
 489:C:/Users/stapi/OneDrive/Desktop/GD32VW553/V1_MQTT_OK/GD32VW55X_Wifi_BLE_SDK/GD32VW55x_RELEASE_V1.0.2/MSDK/rtos/FreeRTOS/Source\timers.c **** TickType_t xReturn;
 1203              		.loc 1 489 1
 490:C:/Users/stapi/OneDrive/Desktop/GD32VW553/V1_MQTT_OK/GD32VW55X_Wifi_BLE_SDK/GD32VW55x_RELEASE_V1.0.2/MSDK/rtos/FreeRTOS/Source\timers.c **** 
 1204              		.loc 1 490 1
 492:C:/Users/stapi/OneDrive/Desktop/GD32VW553/V1_MQTT_OK/GD32VW55X_Wifi_BLE_SDK/GD32VW55x_RELEASE_V1.0.2/MSDK/rtos/FreeRTOS/Source\timers.c **** 	xReturn = listGET_LIST_ITEM_VALUE( &( pxTimer->xTimerListItem ) );
 1205              		.loc 1 492 24
 493:C:/Users/stapi/OneDrive/Desktop/GD32VW553/V1_MQTT_OK/GD32VW55X_Wifi_BLE_SDK/GD32VW55x_RELEASE_V1.0.2/MSDK/rtos/FreeRTOS/Source\timers.c **** 	return xReturn;
 1206              		.loc 1 493 2
 494:C:/Users/stapi/OneDrive/Desktop/GD32VW553/V1_MQTT_OK/GD32VW55X_Wifi_BLE_SDK/GD32VW55x_RELEASE_V1.0.2/MSDK/rtos/FreeRTOS/Source\timers.c **** }
 1207              		.loc 1 494 2
 495:C:/Users/stapi/OneDrive/Desktop/GD32VW553/V1_MQTT_OK/GD32VW55X_Wifi_BLE_SDK/GD32VW55x_RELEASE_V1.0.2/MSDK/rtos/FreeRTOS/Source\timers.c **** /*-----------------------------------------------------------*/
 1208              		.loc 1 495 1 is_stmt 0
 1209 0000 4C45     		lw	a1,12(a0)
 1210 0002 0845     		lw	a0,8(a0)
 1211              	.LVL118:
 1212 0004 8280     		ret
 1213              		.cfi_endproc
 1214              	.LFE8:
 1216              		.section	.text.pcTimerGetName,"ax",@progbits
 1217              		.align	1
 1218              		.globl	pcTimerGetName
 1220              	pcTimerGetName:
 1221              	.LFB9:
 499:C:/Users/stapi/OneDrive/Desktop/GD32VW553/V1_MQTT_OK/GD32VW55X_Wifi_BLE_SDK/GD32VW55x_RELEASE_V1.0.2/MSDK/rtos/FreeRTOS/Source\timers.c **** Timer_t *pxTimer = xTimer;
 1222              		.loc 1 499 1 is_stmt 1
 1223              		.cfi_startproc
 1224              	.LVL119:
 500:C:/Users/stapi/OneDrive/Desktop/GD32VW553/V1_MQTT_OK/GD32VW55X_Wifi_BLE_SDK/GD32VW55x_RELEASE_V1.0.2/MSDK/rtos/FreeRTOS/Source\timers.c **** 
 1225              		.loc 1 500 1
 502:C:/Users/stapi/OneDrive/Desktop/GD32VW553/V1_MQTT_OK/GD32VW55X_Wifi_BLE_SDK/GD32VW55x_RELEASE_V1.0.2/MSDK/rtos/FreeRTOS/Source\timers.c **** 	return pxTimer->pcTimerName;
 1226              		.loc 1 502 24
 503:C:/Users/stapi/OneDrive/Desktop/GD32VW553/V1_MQTT_OK/GD32VW55X_Wifi_BLE_SDK/GD32VW55x_RELEASE_V1.0.2/MSDK/rtos/FreeRTOS/Source\timers.c **** }
 1227              		.loc 1 503 2
 504:C:/Users/stapi/OneDrive/Desktop/GD32VW553/V1_MQTT_OK/GD32VW55X_Wifi_BLE_SDK/GD32VW55x_RELEASE_V1.0.2/MSDK/rtos/FreeRTOS/Source\timers.c **** /*-----------------------------------------------------------*/
 1228              		.loc 1 504 1 is_stmt 0
 1229 0000 0841     		lw	a0,0(a0)
 1230              	.LVL120:
 1231 0002 8280     		ret
 1232              		.cfi_endproc
 1233              	.LFE9:
 1235              		.section	.text.xTimerIsTimerActive,"ax",@progbits
 1236              		.align	1
 1237              		.globl	xTimerIsTimerActive
 1239              	xTimerIsTimerActive:
 1240              	.LFB19:
 990:C:/Users/stapi/OneDrive/Desktop/GD32VW553/V1_MQTT_OK/GD32VW55X_Wifi_BLE_SDK/GD32VW55x_RELEASE_V1.0.2/MSDK/rtos/FreeRTOS/Source\timers.c **** /*-----------------------------------------------------------*/
 991:C:/Users/stapi/OneDrive/Desktop/GD32VW553/V1_MQTT_OK/GD32VW55X_Wifi_BLE_SDK/GD32VW55x_RELEASE_V1.0.2/MSDK/rtos/FreeRTOS/Source\timers.c **** 
 992:C:/Users/stapi/OneDrive/Desktop/GD32VW553/V1_MQTT_OK/GD32VW55X_Wifi_BLE_SDK/GD32VW55x_RELEASE_V1.0.2/MSDK/rtos/FreeRTOS/Source\timers.c **** BaseType_t xTimerIsTimerActive( TimerHandle_t xTimer )
 993:C:/Users/stapi/OneDrive/Desktop/GD32VW553/V1_MQTT_OK/GD32VW55X_Wifi_BLE_SDK/GD32VW55x_RELEASE_V1.0.2/MSDK/rtos/FreeRTOS/Source\timers.c **** {
 1241              		.loc 1 993 1 is_stmt 1
 1242              		.cfi_startproc
 1243              	.LVL121:
 1244 0000 17030000 		call	t0,__riscv_save_1
 1244      E7020300 
 1245              		.cfi_offset 8, -8
 1246              		.cfi_offset 1, -4
 1247              		.cfi_def_cfa_offset 16
 994:C:/Users/stapi/OneDrive/Desktop/GD32VW553/V1_MQTT_OK/GD32VW55X_Wifi_BLE_SDK/GD32VW55x_RELEASE_V1.0.2/MSDK/rtos/FreeRTOS/Source\timers.c **** BaseType_t xReturn;
 1248              		.loc 1 994 1
 995:C:/Users/stapi/OneDrive/Desktop/GD32VW553/V1_MQTT_OK/GD32VW55X_Wifi_BLE_SDK/GD32VW55x_RELEASE_V1.0.2/MSDK/rtos/FreeRTOS/Source\timers.c **** Timer_t *pxTimer = xTimer;
 1249              		.loc 1 995 1
 993:C:/Users/stapi/OneDrive/Desktop/GD32VW553/V1_MQTT_OK/GD32VW55X_Wifi_BLE_SDK/GD32VW55x_RELEASE_V1.0.2/MSDK/rtos/FreeRTOS/Source\timers.c **** BaseType_t xReturn;
 1250              		.loc 1 993 1 is_stmt 0
 1251 0008 4111     		addi	sp,sp,-16
 1252              		.cfi_def_cfa_offset 32
 993:C:/Users/stapi/OneDrive/Desktop/GD32VW553/V1_MQTT_OK/GD32VW55X_Wifi_BLE_SDK/GD32VW55x_RELEASE_V1.0.2/MSDK/rtos/FreeRTOS/Source\timers.c **** BaseType_t xReturn;
 1253              		.loc 1 993 1
 1254 000a 2A84     		mv	s0,a0
 1255              	.LVL122:
 996:C:/Users/stapi/OneDrive/Desktop/GD32VW553/V1_MQTT_OK/GD32VW55X_Wifi_BLE_SDK/GD32VW55x_RELEASE_V1.0.2/MSDK/rtos/FreeRTOS/Source\timers.c **** 
 997:C:/Users/stapi/OneDrive/Desktop/GD32VW553/V1_MQTT_OK/GD32VW55X_Wifi_BLE_SDK/GD32VW55x_RELEASE_V1.0.2/MSDK/rtos/FreeRTOS/Source\timers.c **** 	configASSERT( xTimer );
 1256              		.loc 1 997 24 is_stmt 1
 998:C:/Users/stapi/OneDrive/Desktop/GD32VW553/V1_MQTT_OK/GD32VW55X_Wifi_BLE_SDK/GD32VW55x_RELEASE_V1.0.2/MSDK/rtos/FreeRTOS/Source\timers.c **** 
 999:C:/Users/stapi/OneDrive/Desktop/GD32VW553/V1_MQTT_OK/GD32VW55X_Wifi_BLE_SDK/GD32VW55x_RELEASE_V1.0.2/MSDK/rtos/FreeRTOS/Source\timers.c **** 	/* Is the timer in the list of active timers? */
1000:C:/Users/stapi/OneDrive/Desktop/GD32VW553/V1_MQTT_OK/GD32VW55X_Wifi_BLE_SDK/GD32VW55x_RELEASE_V1.0.2/MSDK/rtos/FreeRTOS/Source\timers.c **** 	taskENTER_CRITICAL();
 1257              		.loc 1 1000 2
 1258 000c 97000000 		call	vPortEnterCritical
 1258      E7800000 
 1259              	.LVL123:
1001:C:/Users/stapi/OneDrive/Desktop/GD32VW553/V1_MQTT_OK/GD32VW55X_Wifi_BLE_SDK/GD32VW55x_RELEASE_V1.0.2/MSDK/rtos/FreeRTOS/Source\timers.c **** 	{
1002:C:/Users/stapi/OneDrive/Desktop/GD32VW553/V1_MQTT_OK/GD32VW55X_Wifi_BLE_SDK/GD32VW55x_RELEASE_V1.0.2/MSDK/rtos/FreeRTOS/Source\timers.c **** 		if( ( pxTimer->ucStatus & tmrSTATUS_IS_ACTIVE ) == 0 )
 1260              		.loc 1 1002 3
 1261              		.loc 1 1002 5 is_stmt 0
 1262 0014 03454403 		lbu	a0,52(s0)
 1263 0018 0589     		andi	a0,a0,1
 1264 001a 2AC6     		sw	a0,12(sp)
 1265              	.LVL124:
1003:C:/Users/stapi/OneDrive/Desktop/GD32VW553/V1_MQTT_OK/GD32VW55X_Wifi_BLE_SDK/GD32VW55x_RELEASE_V1.0.2/MSDK/rtos/FreeRTOS/Source\timers.c **** 		{
1004:C:/Users/stapi/OneDrive/Desktop/GD32VW553/V1_MQTT_OK/GD32VW55X_Wifi_BLE_SDK/GD32VW55x_RELEASE_V1.0.2/MSDK/rtos/FreeRTOS/Source\timers.c **** 			xReturn = pdFALSE;
1005:C:/Users/stapi/OneDrive/Desktop/GD32VW553/V1_MQTT_OK/GD32VW55X_Wifi_BLE_SDK/GD32VW55x_RELEASE_V1.0.2/MSDK/rtos/FreeRTOS/Source\timers.c **** 		}
1006:C:/Users/stapi/OneDrive/Desktop/GD32VW553/V1_MQTT_OK/GD32VW55X_Wifi_BLE_SDK/GD32VW55x_RELEASE_V1.0.2/MSDK/rtos/FreeRTOS/Source\timers.c **** 		else
1007:C:/Users/stapi/OneDrive/Desktop/GD32VW553/V1_MQTT_OK/GD32VW55X_Wifi_BLE_SDK/GD32VW55x_RELEASE_V1.0.2/MSDK/rtos/FreeRTOS/Source\timers.c **** 		{
1008:C:/Users/stapi/OneDrive/Desktop/GD32VW553/V1_MQTT_OK/GD32VW55X_Wifi_BLE_SDK/GD32VW55x_RELEASE_V1.0.2/MSDK/rtos/FreeRTOS/Source\timers.c **** 			xReturn = pdTRUE;
1009:C:/Users/stapi/OneDrive/Desktop/GD32VW553/V1_MQTT_OK/GD32VW55X_Wifi_BLE_SDK/GD32VW55x_RELEASE_V1.0.2/MSDK/rtos/FreeRTOS/Source\timers.c **** 		}
1010:C:/Users/stapi/OneDrive/Desktop/GD32VW553/V1_MQTT_OK/GD32VW55X_Wifi_BLE_SDK/GD32VW55x_RELEASE_V1.0.2/MSDK/rtos/FreeRTOS/Source\timers.c **** 	}
1011:C:/Users/stapi/OneDrive/Desktop/GD32VW553/V1_MQTT_OK/GD32VW55X_Wifi_BLE_SDK/GD32VW55x_RELEASE_V1.0.2/MSDK/rtos/FreeRTOS/Source\timers.c **** 	taskEXIT_CRITICAL();
 1266              		.loc 1 1011 2 is_stmt 1
 1267 001c 97000000 		call	vPortExitCritical
 1267      E7800000 
 1268              	.LVL125:
1012:C:/Users/stapi/OneDrive/Desktop/GD32VW553/V1_MQTT_OK/GD32VW55X_Wifi_BLE_SDK/GD32VW55x_RELEASE_V1.0.2/MSDK/rtos/FreeRTOS/Source\timers.c **** 
1013:C:/Users/stapi/OneDrive/Desktop/GD32VW553/V1_MQTT_OK/GD32VW55X_Wifi_BLE_SDK/GD32VW55x_RELEASE_V1.0.2/MSDK/rtos/FreeRTOS/Source\timers.c **** 	return xReturn;
 1269              		.loc 1 1013 2
1014:C:/Users/stapi/OneDrive/Desktop/GD32VW553/V1_MQTT_OK/GD32VW55X_Wifi_BLE_SDK/GD32VW55x_RELEASE_V1.0.2/MSDK/rtos/FreeRTOS/Source\timers.c **** } /*lint !e818 Can't be pointer to const due to the typedef. */
 1270              		.loc 1 1014 1 is_stmt 0
 1271 0024 3245     		lw	a0,12(sp)
 1272 0026 4101     		addi	sp,sp,16
 1273              		.cfi_def_cfa_offset 0
 1274              	.LVL126:
 1275 0028 17030000 		tail	__riscv_restore_1
 1275      67000300 
 1276              		.cfi_restore 8
 1277              		.cfi_restore 1
 1278              		.cfi_def_cfa_offset -16
 1279              		.cfi_endproc
 1280              	.LFE19:
 1282              		.section	.text.pvTimerGetTimerID,"ax",@progbits
 1283              		.align	1
 1284              		.globl	pvTimerGetTimerID
 1286              	pvTimerGetTimerID:
 1287              	.LFB20:
1015:C:/Users/stapi/OneDrive/Desktop/GD32VW553/V1_MQTT_OK/GD32VW55X_Wifi_BLE_SDK/GD32VW55x_RELEASE_V1.0.2/MSDK/rtos/FreeRTOS/Source\timers.c **** /*-----------------------------------------------------------*/
1016:C:/Users/stapi/OneDrive/Desktop/GD32VW553/V1_MQTT_OK/GD32VW55X_Wifi_BLE_SDK/GD32VW55x_RELEASE_V1.0.2/MSDK/rtos/FreeRTOS/Source\timers.c **** 
1017:C:/Users/stapi/OneDrive/Desktop/GD32VW553/V1_MQTT_OK/GD32VW55X_Wifi_BLE_SDK/GD32VW55x_RELEASE_V1.0.2/MSDK/rtos/FreeRTOS/Source\timers.c **** void *pvTimerGetTimerID( const TimerHandle_t xTimer )
1018:C:/Users/stapi/OneDrive/Desktop/GD32VW553/V1_MQTT_OK/GD32VW55X_Wifi_BLE_SDK/GD32VW55x_RELEASE_V1.0.2/MSDK/rtos/FreeRTOS/Source\timers.c **** {
 1288              		.loc 1 1018 1 is_stmt 1
 1289              		.cfi_startproc
 1290              	.LVL127:
 1291 0000 17030000 		call	t0,__riscv_save_1
 1291      E7020300 
 1292              		.cfi_offset 8, -8
 1293              		.cfi_offset 1, -4
 1294              		.cfi_def_cfa_offset 16
1019:C:/Users/stapi/OneDrive/Desktop/GD32VW553/V1_MQTT_OK/GD32VW55X_Wifi_BLE_SDK/GD32VW55x_RELEASE_V1.0.2/MSDK/rtos/FreeRTOS/Source\timers.c **** Timer_t * const pxTimer = xTimer;
 1295              		.loc 1 1019 1
1018:C:/Users/stapi/OneDrive/Desktop/GD32VW553/V1_MQTT_OK/GD32VW55X_Wifi_BLE_SDK/GD32VW55x_RELEASE_V1.0.2/MSDK/rtos/FreeRTOS/Source\timers.c **** Timer_t * const pxTimer = xTimer;
 1296              		.loc 1 1018 1 is_stmt 0
 1297 0008 4111     		addi	sp,sp,-16
 1298              		.cfi_def_cfa_offset 32
1018:C:/Users/stapi/OneDrive/Desktop/GD32VW553/V1_MQTT_OK/GD32VW55X_Wifi_BLE_SDK/GD32VW55x_RELEASE_V1.0.2/MSDK/rtos/FreeRTOS/Source\timers.c **** Timer_t * const pxTimer = xTimer;
 1299              		.loc 1 1018 1
 1300 000a 2A84     		mv	s0,a0
 1301              	.LVL128:
1020:C:/Users/stapi/OneDrive/Desktop/GD32VW553/V1_MQTT_OK/GD32VW55X_Wifi_BLE_SDK/GD32VW55x_RELEASE_V1.0.2/MSDK/rtos/FreeRTOS/Source\timers.c **** void *pvReturn;
 1302              		.loc 1 1020 1 is_stmt 1
1021:C:/Users/stapi/OneDrive/Desktop/GD32VW553/V1_MQTT_OK/GD32VW55X_Wifi_BLE_SDK/GD32VW55x_RELEASE_V1.0.2/MSDK/rtos/FreeRTOS/Source\timers.c **** 
1022:C:/Users/stapi/OneDrive/Desktop/GD32VW553/V1_MQTT_OK/GD32VW55X_Wifi_BLE_SDK/GD32VW55x_RELEASE_V1.0.2/MSDK/rtos/FreeRTOS/Source\timers.c **** 	configASSERT( xTimer );
 1303              		.loc 1 1022 24
1023:C:/Users/stapi/OneDrive/Desktop/GD32VW553/V1_MQTT_OK/GD32VW55X_Wifi_BLE_SDK/GD32VW55x_RELEASE_V1.0.2/MSDK/rtos/FreeRTOS/Source\timers.c **** 
1024:C:/Users/stapi/OneDrive/Desktop/GD32VW553/V1_MQTT_OK/GD32VW55X_Wifi_BLE_SDK/GD32VW55x_RELEASE_V1.0.2/MSDK/rtos/FreeRTOS/Source\timers.c **** 	taskENTER_CRITICAL();
 1304              		.loc 1 1024 2
 1305 000c 97000000 		call	vPortEnterCritical
 1305      E7800000 
 1306              	.LVL129:
1025:C:/Users/stapi/OneDrive/Desktop/GD32VW553/V1_MQTT_OK/GD32VW55X_Wifi_BLE_SDK/GD32VW55x_RELEASE_V1.0.2/MSDK/rtos/FreeRTOS/Source\timers.c **** 	{
1026:C:/Users/stapi/OneDrive/Desktop/GD32VW553/V1_MQTT_OK/GD32VW55X_Wifi_BLE_SDK/GD32VW55x_RELEASE_V1.0.2/MSDK/rtos/FreeRTOS/Source\timers.c **** 		pvReturn = pxTimer->pvTimerID;
 1307              		.loc 1 1026 3
 1308              		.loc 1 1026 12 is_stmt 0
 1309 0014 0854     		lw	a0,40(s0)
 1310 0016 2AC6     		sw	a0,12(sp)
 1311              	.LVL130:
1027:C:/Users/stapi/OneDrive/Desktop/GD32VW553/V1_MQTT_OK/GD32VW55X_Wifi_BLE_SDK/GD32VW55x_RELEASE_V1.0.2/MSDK/rtos/FreeRTOS/Source\timers.c **** 	}
1028:C:/Users/stapi/OneDrive/Desktop/GD32VW553/V1_MQTT_OK/GD32VW55X_Wifi_BLE_SDK/GD32VW55x_RELEASE_V1.0.2/MSDK/rtos/FreeRTOS/Source\timers.c **** 	taskEXIT_CRITICAL();
 1312              		.loc 1 1028 2 is_stmt 1
 1313 0018 97000000 		call	vPortExitCritical
 1313      E7800000 
 1314              	.LVL131:
1029:C:/Users/stapi/OneDrive/Desktop/GD32VW553/V1_MQTT_OK/GD32VW55X_Wifi_BLE_SDK/GD32VW55x_RELEASE_V1.0.2/MSDK/rtos/FreeRTOS/Source\timers.c **** 
1030:C:/Users/stapi/OneDrive/Desktop/GD32VW553/V1_MQTT_OK/GD32VW55X_Wifi_BLE_SDK/GD32VW55x_RELEASE_V1.0.2/MSDK/rtos/FreeRTOS/Source\timers.c **** 	return pvReturn;
 1315              		.loc 1 1030 2
1031:C:/Users/stapi/OneDrive/Desktop/GD32VW553/V1_MQTT_OK/GD32VW55X_Wifi_BLE_SDK/GD32VW55x_RELEASE_V1.0.2/MSDK/rtos/FreeRTOS/Source\timers.c **** }
 1316              		.loc 1 1031 1 is_stmt 0
 1317 0020 3245     		lw	a0,12(sp)
 1318 0022 4101     		addi	sp,sp,16
 1319              		.cfi_def_cfa_offset 0
 1320              	.LVL132:
 1321 0024 17030000 		tail	__riscv_restore_1
 1321      67000300 
 1322              		.cfi_restore 8
 1323              		.cfi_restore 1
 1324              		.cfi_def_cfa_offset -16
 1325              		.cfi_endproc
 1326              	.LFE20:
 1328              		.section	.text.vTimerSetTimerID,"ax",@progbits
 1329              		.align	1
 1330              		.globl	vTimerSetTimerID
 1332              	vTimerSetTimerID:
 1333              	.LFB21:
1032:C:/Users/stapi/OneDrive/Desktop/GD32VW553/V1_MQTT_OK/GD32VW55X_Wifi_BLE_SDK/GD32VW55x_RELEASE_V1.0.2/MSDK/rtos/FreeRTOS/Source\timers.c **** /*-----------------------------------------------------------*/
1033:C:/Users/stapi/OneDrive/Desktop/GD32VW553/V1_MQTT_OK/GD32VW55X_Wifi_BLE_SDK/GD32VW55x_RELEASE_V1.0.2/MSDK/rtos/FreeRTOS/Source\timers.c **** 
1034:C:/Users/stapi/OneDrive/Desktop/GD32VW553/V1_MQTT_OK/GD32VW55X_Wifi_BLE_SDK/GD32VW55x_RELEASE_V1.0.2/MSDK/rtos/FreeRTOS/Source\timers.c **** void vTimerSetTimerID( TimerHandle_t xTimer, void *pvNewID )
1035:C:/Users/stapi/OneDrive/Desktop/GD32VW553/V1_MQTT_OK/GD32VW55X_Wifi_BLE_SDK/GD32VW55x_RELEASE_V1.0.2/MSDK/rtos/FreeRTOS/Source\timers.c **** {
 1334              		.loc 1 1035 1 is_stmt 1
 1335              		.cfi_startproc
 1336              	.LVL133:
 1337 0000 17030000 		call	t0,__riscv_save_2
 1337      E7020300 
 1338              		.cfi_offset 9, -12
 1339              		.cfi_offset 8, -8
 1340              		.cfi_offset 1, -4
 1341              		.cfi_def_cfa_offset 16
1036:C:/Users/stapi/OneDrive/Desktop/GD32VW553/V1_MQTT_OK/GD32VW55X_Wifi_BLE_SDK/GD32VW55x_RELEASE_V1.0.2/MSDK/rtos/FreeRTOS/Source\timers.c **** Timer_t * const pxTimer = xTimer;
 1342              		.loc 1 1036 1
1035:C:/Users/stapi/OneDrive/Desktop/GD32VW553/V1_MQTT_OK/GD32VW55X_Wifi_BLE_SDK/GD32VW55x_RELEASE_V1.0.2/MSDK/rtos/FreeRTOS/Source\timers.c **** Timer_t * const pxTimer = xTimer;
 1343              		.loc 1 1035 1 is_stmt 0
 1344 0008 2A84     		mv	s0,a0
 1345              	.LVL134:
1037:C:/Users/stapi/OneDrive/Desktop/GD32VW553/V1_MQTT_OK/GD32VW55X_Wifi_BLE_SDK/GD32VW55x_RELEASE_V1.0.2/MSDK/rtos/FreeRTOS/Source\timers.c **** 
1038:C:/Users/stapi/OneDrive/Desktop/GD32VW553/V1_MQTT_OK/GD32VW55X_Wifi_BLE_SDK/GD32VW55x_RELEASE_V1.0.2/MSDK/rtos/FreeRTOS/Source\timers.c **** 	configASSERT( xTimer );
 1346              		.loc 1 1038 24 is_stmt 1
1039:C:/Users/stapi/OneDrive/Desktop/GD32VW553/V1_MQTT_OK/GD32VW55X_Wifi_BLE_SDK/GD32VW55x_RELEASE_V1.0.2/MSDK/rtos/FreeRTOS/Source\timers.c **** 
1040:C:/Users/stapi/OneDrive/Desktop/GD32VW553/V1_MQTT_OK/GD32VW55X_Wifi_BLE_SDK/GD32VW55x_RELEASE_V1.0.2/MSDK/rtos/FreeRTOS/Source\timers.c **** 	taskENTER_CRITICAL();
 1347              		.loc 1 1040 2
1035:C:/Users/stapi/OneDrive/Desktop/GD32VW553/V1_MQTT_OK/GD32VW55X_Wifi_BLE_SDK/GD32VW55x_RELEASE_V1.0.2/MSDK/rtos/FreeRTOS/Source\timers.c **** Timer_t * const pxTimer = xTimer;
 1348              		.loc 1 1035 1 is_stmt 0
 1349 000a AE84     		mv	s1,a1
 1350              		.loc 1 1040 2
 1351 000c 97000000 		call	vPortEnterCritical
 1351      E7800000 
 1352              	.LVL135:
1041:C:/Users/stapi/OneDrive/Desktop/GD32VW553/V1_MQTT_OK/GD32VW55X_Wifi_BLE_SDK/GD32VW55x_RELEASE_V1.0.2/MSDK/rtos/FreeRTOS/Source\timers.c **** 	{
1042:C:/Users/stapi/OneDrive/Desktop/GD32VW553/V1_MQTT_OK/GD32VW55X_Wifi_BLE_SDK/GD32VW55x_RELEASE_V1.0.2/MSDK/rtos/FreeRTOS/Source\timers.c **** 		pxTimer->pvTimerID = pvNewID;
 1353              		.loc 1 1042 3 is_stmt 1
 1354              		.loc 1 1042 22 is_stmt 0
 1355 0014 04D4     		sw	s1,40(s0)
1043:C:/Users/stapi/OneDrive/Desktop/GD32VW553/V1_MQTT_OK/GD32VW55X_Wifi_BLE_SDK/GD32VW55x_RELEASE_V1.0.2/MSDK/rtos/FreeRTOS/Source\timers.c **** 	}
1044:C:/Users/stapi/OneDrive/Desktop/GD32VW553/V1_MQTT_OK/GD32VW55X_Wifi_BLE_SDK/GD32VW55x_RELEASE_V1.0.2/MSDK/rtos/FreeRTOS/Source\timers.c **** 	taskEXIT_CRITICAL();
 1356              		.loc 1 1044 2 is_stmt 1
 1357 0016 97000000 		call	vPortExitCritical
 1357      E7800000 
 1358              	.LVL136:
1045:C:/Users/stapi/OneDrive/Desktop/GD32VW553/V1_MQTT_OK/GD32VW55X_Wifi_BLE_SDK/GD32VW55x_RELEASE_V1.0.2/MSDK/rtos/FreeRTOS/Source\timers.c **** }
 1359              		.loc 1 1045 1 is_stmt 0
 1360 001e 17030000 		tail	__riscv_restore_2
 1360      67000300 
 1361              		.cfi_restore 9
 1362              		.cfi_restore 8
 1363              		.cfi_restore 1
 1364              		.cfi_def_cfa_offset 0
 1365              		.cfi_endproc
 1366              	.LFE21:
 1368              		.section	.text.uxTimerGetTimerNumber,"ax",@progbits
 1369              		.align	1
 1370              		.globl	uxTimerGetTimerNumber
 1372              	uxTimerGetTimerNumber:
 1373              	.LFB22:
1046:C:/Users/stapi/OneDrive/Desktop/GD32VW553/V1_MQTT_OK/GD32VW55X_Wifi_BLE_SDK/GD32VW55x_RELEASE_V1.0.2/MSDK/rtos/FreeRTOS/Source\timers.c **** /*-----------------------------------------------------------*/
1047:C:/Users/stapi/OneDrive/Desktop/GD32VW553/V1_MQTT_OK/GD32VW55X_Wifi_BLE_SDK/GD32VW55x_RELEASE_V1.0.2/MSDK/rtos/FreeRTOS/Source\timers.c **** 
1048:C:/Users/stapi/OneDrive/Desktop/GD32VW553/V1_MQTT_OK/GD32VW55X_Wifi_BLE_SDK/GD32VW55x_RELEASE_V1.0.2/MSDK/rtos/FreeRTOS/Source\timers.c **** #if( INCLUDE_xTimerPendFunctionCall == 1 )
1049:C:/Users/stapi/OneDrive/Desktop/GD32VW553/V1_MQTT_OK/GD32VW55X_Wifi_BLE_SDK/GD32VW55x_RELEASE_V1.0.2/MSDK/rtos/FreeRTOS/Source\timers.c **** 
1050:C:/Users/stapi/OneDrive/Desktop/GD32VW553/V1_MQTT_OK/GD32VW55X_Wifi_BLE_SDK/GD32VW55x_RELEASE_V1.0.2/MSDK/rtos/FreeRTOS/Source\timers.c **** 	BaseType_t xTimerPendFunctionCallFromISR( PendedFunction_t xFunctionToPend, void *pvParameter1, ui
1051:C:/Users/stapi/OneDrive/Desktop/GD32VW553/V1_MQTT_OK/GD32VW55X_Wifi_BLE_SDK/GD32VW55x_RELEASE_V1.0.2/MSDK/rtos/FreeRTOS/Source\timers.c **** 	{
1052:C:/Users/stapi/OneDrive/Desktop/GD32VW553/V1_MQTT_OK/GD32VW55X_Wifi_BLE_SDK/GD32VW55x_RELEASE_V1.0.2/MSDK/rtos/FreeRTOS/Source\timers.c **** 	DaemonTaskMessage_t xMessage;
1053:C:/Users/stapi/OneDrive/Desktop/GD32VW553/V1_MQTT_OK/GD32VW55X_Wifi_BLE_SDK/GD32VW55x_RELEASE_V1.0.2/MSDK/rtos/FreeRTOS/Source\timers.c **** 	BaseType_t xReturn;
1054:C:/Users/stapi/OneDrive/Desktop/GD32VW553/V1_MQTT_OK/GD32VW55X_Wifi_BLE_SDK/GD32VW55x_RELEASE_V1.0.2/MSDK/rtos/FreeRTOS/Source\timers.c **** 
1055:C:/Users/stapi/OneDrive/Desktop/GD32VW553/V1_MQTT_OK/GD32VW55X_Wifi_BLE_SDK/GD32VW55x_RELEASE_V1.0.2/MSDK/rtos/FreeRTOS/Source\timers.c **** 		/* Complete the message with the function parameters and post it to the
1056:C:/Users/stapi/OneDrive/Desktop/GD32VW553/V1_MQTT_OK/GD32VW55X_Wifi_BLE_SDK/GD32VW55x_RELEASE_V1.0.2/MSDK/rtos/FreeRTOS/Source\timers.c **** 		daemon task. */
1057:C:/Users/stapi/OneDrive/Desktop/GD32VW553/V1_MQTT_OK/GD32VW55X_Wifi_BLE_SDK/GD32VW55x_RELEASE_V1.0.2/MSDK/rtos/FreeRTOS/Source\timers.c **** 		xMessage.xMessageID = tmrCOMMAND_EXECUTE_CALLBACK_FROM_ISR;
1058:C:/Users/stapi/OneDrive/Desktop/GD32VW553/V1_MQTT_OK/GD32VW55X_Wifi_BLE_SDK/GD32VW55x_RELEASE_V1.0.2/MSDK/rtos/FreeRTOS/Source\timers.c **** 		xMessage.u.xCallbackParameters.pxCallbackFunction = xFunctionToPend;
1059:C:/Users/stapi/OneDrive/Desktop/GD32VW553/V1_MQTT_OK/GD32VW55X_Wifi_BLE_SDK/GD32VW55x_RELEASE_V1.0.2/MSDK/rtos/FreeRTOS/Source\timers.c **** 		xMessage.u.xCallbackParameters.pvParameter1 = pvParameter1;
1060:C:/Users/stapi/OneDrive/Desktop/GD32VW553/V1_MQTT_OK/GD32VW55X_Wifi_BLE_SDK/GD32VW55x_RELEASE_V1.0.2/MSDK/rtos/FreeRTOS/Source\timers.c **** 		xMessage.u.xCallbackParameters.ulParameter2 = ulParameter2;
1061:C:/Users/stapi/OneDrive/Desktop/GD32VW553/V1_MQTT_OK/GD32VW55X_Wifi_BLE_SDK/GD32VW55x_RELEASE_V1.0.2/MSDK/rtos/FreeRTOS/Source\timers.c **** 
1062:C:/Users/stapi/OneDrive/Desktop/GD32VW553/V1_MQTT_OK/GD32VW55X_Wifi_BLE_SDK/GD32VW55x_RELEASE_V1.0.2/MSDK/rtos/FreeRTOS/Source\timers.c **** 		xReturn = xQueueSendFromISR( xTimerQueue, &xMessage, pxHigherPriorityTaskWoken );
1063:C:/Users/stapi/OneDrive/Desktop/GD32VW553/V1_MQTT_OK/GD32VW55X_Wifi_BLE_SDK/GD32VW55x_RELEASE_V1.0.2/MSDK/rtos/FreeRTOS/Source\timers.c **** 
1064:C:/Users/stapi/OneDrive/Desktop/GD32VW553/V1_MQTT_OK/GD32VW55X_Wifi_BLE_SDK/GD32VW55x_RELEASE_V1.0.2/MSDK/rtos/FreeRTOS/Source\timers.c **** 		tracePEND_FUNC_CALL_FROM_ISR( xFunctionToPend, pvParameter1, ulParameter2, xReturn );
1065:C:/Users/stapi/OneDrive/Desktop/GD32VW553/V1_MQTT_OK/GD32VW55X_Wifi_BLE_SDK/GD32VW55x_RELEASE_V1.0.2/MSDK/rtos/FreeRTOS/Source\timers.c **** 
1066:C:/Users/stapi/OneDrive/Desktop/GD32VW553/V1_MQTT_OK/GD32VW55X_Wifi_BLE_SDK/GD32VW55x_RELEASE_V1.0.2/MSDK/rtos/FreeRTOS/Source\timers.c **** 		return xReturn;
1067:C:/Users/stapi/OneDrive/Desktop/GD32VW553/V1_MQTT_OK/GD32VW55X_Wifi_BLE_SDK/GD32VW55x_RELEASE_V1.0.2/MSDK/rtos/FreeRTOS/Source\timers.c **** 	}
1068:C:/Users/stapi/OneDrive/Desktop/GD32VW553/V1_MQTT_OK/GD32VW55X_Wifi_BLE_SDK/GD32VW55x_RELEASE_V1.0.2/MSDK/rtos/FreeRTOS/Source\timers.c **** 
1069:C:/Users/stapi/OneDrive/Desktop/GD32VW553/V1_MQTT_OK/GD32VW55X_Wifi_BLE_SDK/GD32VW55x_RELEASE_V1.0.2/MSDK/rtos/FreeRTOS/Source\timers.c **** #endif /* INCLUDE_xTimerPendFunctionCall */
1070:C:/Users/stapi/OneDrive/Desktop/GD32VW553/V1_MQTT_OK/GD32VW55X_Wifi_BLE_SDK/GD32VW55x_RELEASE_V1.0.2/MSDK/rtos/FreeRTOS/Source\timers.c **** /*-----------------------------------------------------------*/
1071:C:/Users/stapi/OneDrive/Desktop/GD32VW553/V1_MQTT_OK/GD32VW55X_Wifi_BLE_SDK/GD32VW55x_RELEASE_V1.0.2/MSDK/rtos/FreeRTOS/Source\timers.c **** 
1072:C:/Users/stapi/OneDrive/Desktop/GD32VW553/V1_MQTT_OK/GD32VW55X_Wifi_BLE_SDK/GD32VW55x_RELEASE_V1.0.2/MSDK/rtos/FreeRTOS/Source\timers.c **** #if( INCLUDE_xTimerPendFunctionCall == 1 )
1073:C:/Users/stapi/OneDrive/Desktop/GD32VW553/V1_MQTT_OK/GD32VW55X_Wifi_BLE_SDK/GD32VW55x_RELEASE_V1.0.2/MSDK/rtos/FreeRTOS/Source\timers.c **** 
1074:C:/Users/stapi/OneDrive/Desktop/GD32VW553/V1_MQTT_OK/GD32VW55X_Wifi_BLE_SDK/GD32VW55x_RELEASE_V1.0.2/MSDK/rtos/FreeRTOS/Source\timers.c **** 	BaseType_t xTimerPendFunctionCall( PendedFunction_t xFunctionToPend, void *pvParameter1, uint32_t 
1075:C:/Users/stapi/OneDrive/Desktop/GD32VW553/V1_MQTT_OK/GD32VW55X_Wifi_BLE_SDK/GD32VW55x_RELEASE_V1.0.2/MSDK/rtos/FreeRTOS/Source\timers.c **** 	{
1076:C:/Users/stapi/OneDrive/Desktop/GD32VW553/V1_MQTT_OK/GD32VW55X_Wifi_BLE_SDK/GD32VW55x_RELEASE_V1.0.2/MSDK/rtos/FreeRTOS/Source\timers.c **** 	DaemonTaskMessage_t xMessage;
1077:C:/Users/stapi/OneDrive/Desktop/GD32VW553/V1_MQTT_OK/GD32VW55X_Wifi_BLE_SDK/GD32VW55x_RELEASE_V1.0.2/MSDK/rtos/FreeRTOS/Source\timers.c **** 	BaseType_t xReturn;
1078:C:/Users/stapi/OneDrive/Desktop/GD32VW553/V1_MQTT_OK/GD32VW55X_Wifi_BLE_SDK/GD32VW55x_RELEASE_V1.0.2/MSDK/rtos/FreeRTOS/Source\timers.c **** 
1079:C:/Users/stapi/OneDrive/Desktop/GD32VW553/V1_MQTT_OK/GD32VW55X_Wifi_BLE_SDK/GD32VW55x_RELEASE_V1.0.2/MSDK/rtos/FreeRTOS/Source\timers.c **** 		/* This function can only be called after a timer has been created or
1080:C:/Users/stapi/OneDrive/Desktop/GD32VW553/V1_MQTT_OK/GD32VW55X_Wifi_BLE_SDK/GD32VW55x_RELEASE_V1.0.2/MSDK/rtos/FreeRTOS/Source\timers.c **** 		after the scheduler has been started because, until then, the timer
1081:C:/Users/stapi/OneDrive/Desktop/GD32VW553/V1_MQTT_OK/GD32VW55X_Wifi_BLE_SDK/GD32VW55x_RELEASE_V1.0.2/MSDK/rtos/FreeRTOS/Source\timers.c **** 		queue does not exist. */
1082:C:/Users/stapi/OneDrive/Desktop/GD32VW553/V1_MQTT_OK/GD32VW55X_Wifi_BLE_SDK/GD32VW55x_RELEASE_V1.0.2/MSDK/rtos/FreeRTOS/Source\timers.c **** 		configASSERT( xTimerQueue );
1083:C:/Users/stapi/OneDrive/Desktop/GD32VW553/V1_MQTT_OK/GD32VW55X_Wifi_BLE_SDK/GD32VW55x_RELEASE_V1.0.2/MSDK/rtos/FreeRTOS/Source\timers.c **** 
1084:C:/Users/stapi/OneDrive/Desktop/GD32VW553/V1_MQTT_OK/GD32VW55X_Wifi_BLE_SDK/GD32VW55x_RELEASE_V1.0.2/MSDK/rtos/FreeRTOS/Source\timers.c **** 		/* Complete the message with the function parameters and post it to the
1085:C:/Users/stapi/OneDrive/Desktop/GD32VW553/V1_MQTT_OK/GD32VW55X_Wifi_BLE_SDK/GD32VW55x_RELEASE_V1.0.2/MSDK/rtos/FreeRTOS/Source\timers.c **** 		daemon task. */
1086:C:/Users/stapi/OneDrive/Desktop/GD32VW553/V1_MQTT_OK/GD32VW55X_Wifi_BLE_SDK/GD32VW55x_RELEASE_V1.0.2/MSDK/rtos/FreeRTOS/Source\timers.c **** 		xMessage.xMessageID = tmrCOMMAND_EXECUTE_CALLBACK;
1087:C:/Users/stapi/OneDrive/Desktop/GD32VW553/V1_MQTT_OK/GD32VW55X_Wifi_BLE_SDK/GD32VW55x_RELEASE_V1.0.2/MSDK/rtos/FreeRTOS/Source\timers.c **** 		xMessage.u.xCallbackParameters.pxCallbackFunction = xFunctionToPend;
1088:C:/Users/stapi/OneDrive/Desktop/GD32VW553/V1_MQTT_OK/GD32VW55X_Wifi_BLE_SDK/GD32VW55x_RELEASE_V1.0.2/MSDK/rtos/FreeRTOS/Source\timers.c **** 		xMessage.u.xCallbackParameters.pvParameter1 = pvParameter1;
1089:C:/Users/stapi/OneDrive/Desktop/GD32VW553/V1_MQTT_OK/GD32VW55X_Wifi_BLE_SDK/GD32VW55x_RELEASE_V1.0.2/MSDK/rtos/FreeRTOS/Source\timers.c **** 		xMessage.u.xCallbackParameters.ulParameter2 = ulParameter2;
1090:C:/Users/stapi/OneDrive/Desktop/GD32VW553/V1_MQTT_OK/GD32VW55X_Wifi_BLE_SDK/GD32VW55x_RELEASE_V1.0.2/MSDK/rtos/FreeRTOS/Source\timers.c **** 
1091:C:/Users/stapi/OneDrive/Desktop/GD32VW553/V1_MQTT_OK/GD32VW55X_Wifi_BLE_SDK/GD32VW55x_RELEASE_V1.0.2/MSDK/rtos/FreeRTOS/Source\timers.c **** 		xReturn = xQueueSendToBack( xTimerQueue, &xMessage, xTicksToWait );
1092:C:/Users/stapi/OneDrive/Desktop/GD32VW553/V1_MQTT_OK/GD32VW55X_Wifi_BLE_SDK/GD32VW55x_RELEASE_V1.0.2/MSDK/rtos/FreeRTOS/Source\timers.c **** 
1093:C:/Users/stapi/OneDrive/Desktop/GD32VW553/V1_MQTT_OK/GD32VW55X_Wifi_BLE_SDK/GD32VW55x_RELEASE_V1.0.2/MSDK/rtos/FreeRTOS/Source\timers.c **** 		tracePEND_FUNC_CALL( xFunctionToPend, pvParameter1, ulParameter2, xReturn );
1094:C:/Users/stapi/OneDrive/Desktop/GD32VW553/V1_MQTT_OK/GD32VW55X_Wifi_BLE_SDK/GD32VW55x_RELEASE_V1.0.2/MSDK/rtos/FreeRTOS/Source\timers.c **** 
1095:C:/Users/stapi/OneDrive/Desktop/GD32VW553/V1_MQTT_OK/GD32VW55X_Wifi_BLE_SDK/GD32VW55x_RELEASE_V1.0.2/MSDK/rtos/FreeRTOS/Source\timers.c **** 		return xReturn;
1096:C:/Users/stapi/OneDrive/Desktop/GD32VW553/V1_MQTT_OK/GD32VW55X_Wifi_BLE_SDK/GD32VW55x_RELEASE_V1.0.2/MSDK/rtos/FreeRTOS/Source\timers.c **** 	}
1097:C:/Users/stapi/OneDrive/Desktop/GD32VW553/V1_MQTT_OK/GD32VW55X_Wifi_BLE_SDK/GD32VW55x_RELEASE_V1.0.2/MSDK/rtos/FreeRTOS/Source\timers.c **** 
1098:C:/Users/stapi/OneDrive/Desktop/GD32VW553/V1_MQTT_OK/GD32VW55X_Wifi_BLE_SDK/GD32VW55x_RELEASE_V1.0.2/MSDK/rtos/FreeRTOS/Source\timers.c **** #endif /* INCLUDE_xTimerPendFunctionCall */
1099:C:/Users/stapi/OneDrive/Desktop/GD32VW553/V1_MQTT_OK/GD32VW55X_Wifi_BLE_SDK/GD32VW55x_RELEASE_V1.0.2/MSDK/rtos/FreeRTOS/Source\timers.c **** /*-----------------------------------------------------------*/
1100:C:/Users/stapi/OneDrive/Desktop/GD32VW553/V1_MQTT_OK/GD32VW55X_Wifi_BLE_SDK/GD32VW55x_RELEASE_V1.0.2/MSDK/rtos/FreeRTOS/Source\timers.c **** 
1101:C:/Users/stapi/OneDrive/Desktop/GD32VW553/V1_MQTT_OK/GD32VW55X_Wifi_BLE_SDK/GD32VW55x_RELEASE_V1.0.2/MSDK/rtos/FreeRTOS/Source\timers.c **** #if ( configUSE_TRACE_FACILITY == 1 )
1102:C:/Users/stapi/OneDrive/Desktop/GD32VW553/V1_MQTT_OK/GD32VW55X_Wifi_BLE_SDK/GD32VW55x_RELEASE_V1.0.2/MSDK/rtos/FreeRTOS/Source\timers.c **** 
1103:C:/Users/stapi/OneDrive/Desktop/GD32VW553/V1_MQTT_OK/GD32VW55X_Wifi_BLE_SDK/GD32VW55x_RELEASE_V1.0.2/MSDK/rtos/FreeRTOS/Source\timers.c **** 	UBaseType_t uxTimerGetTimerNumber( TimerHandle_t xTimer )
1104:C:/Users/stapi/OneDrive/Desktop/GD32VW553/V1_MQTT_OK/GD32VW55X_Wifi_BLE_SDK/GD32VW55x_RELEASE_V1.0.2/MSDK/rtos/FreeRTOS/Source\timers.c **** 	{
 1374              		.loc 1 1104 2 is_stmt 1
 1375              		.cfi_startproc
 1376              	.LVL137:
1105:C:/Users/stapi/OneDrive/Desktop/GD32VW553/V1_MQTT_OK/GD32VW55X_Wifi_BLE_SDK/GD32VW55x_RELEASE_V1.0.2/MSDK/rtos/FreeRTOS/Source\timers.c **** 		return ( ( Timer_t * ) xTimer )->uxTimerNumber;
 1377              		.loc 1 1105 3
1106:C:/Users/stapi/OneDrive/Desktop/GD32VW553/V1_MQTT_OK/GD32VW55X_Wifi_BLE_SDK/GD32VW55x_RELEASE_V1.0.2/MSDK/rtos/FreeRTOS/Source\timers.c **** 	}
 1378              		.loc 1 1106 2 is_stmt 0
 1379 0000 0859     		lw	a0,48(a0)
 1380              	.LVL138:
 1381 0002 8280     		ret
 1382              		.cfi_endproc
 1383              	.LFE22:
 1385              		.section	.text.vTimerSetTimerNumber,"ax",@progbits
 1386              		.align	1
 1387              		.globl	vTimerSetTimerNumber
 1389              	vTimerSetTimerNumber:
 1390              	.LFB23:
1107:C:/Users/stapi/OneDrive/Desktop/GD32VW553/V1_MQTT_OK/GD32VW55X_Wifi_BLE_SDK/GD32VW55x_RELEASE_V1.0.2/MSDK/rtos/FreeRTOS/Source\timers.c **** 
1108:C:/Users/stapi/OneDrive/Desktop/GD32VW553/V1_MQTT_OK/GD32VW55X_Wifi_BLE_SDK/GD32VW55x_RELEASE_V1.0.2/MSDK/rtos/FreeRTOS/Source\timers.c **** #endif /* configUSE_TRACE_FACILITY */
1109:C:/Users/stapi/OneDrive/Desktop/GD32VW553/V1_MQTT_OK/GD32VW55X_Wifi_BLE_SDK/GD32VW55x_RELEASE_V1.0.2/MSDK/rtos/FreeRTOS/Source\timers.c **** /*-----------------------------------------------------------*/
1110:C:/Users/stapi/OneDrive/Desktop/GD32VW553/V1_MQTT_OK/GD32VW55X_Wifi_BLE_SDK/GD32VW55x_RELEASE_V1.0.2/MSDK/rtos/FreeRTOS/Source\timers.c **** 
1111:C:/Users/stapi/OneDrive/Desktop/GD32VW553/V1_MQTT_OK/GD32VW55X_Wifi_BLE_SDK/GD32VW55x_RELEASE_V1.0.2/MSDK/rtos/FreeRTOS/Source\timers.c **** #if ( configUSE_TRACE_FACILITY == 1 )
1112:C:/Users/stapi/OneDrive/Desktop/GD32VW553/V1_MQTT_OK/GD32VW55X_Wifi_BLE_SDK/GD32VW55x_RELEASE_V1.0.2/MSDK/rtos/FreeRTOS/Source\timers.c **** 
1113:C:/Users/stapi/OneDrive/Desktop/GD32VW553/V1_MQTT_OK/GD32VW55X_Wifi_BLE_SDK/GD32VW55x_RELEASE_V1.0.2/MSDK/rtos/FreeRTOS/Source\timers.c **** 	void vTimerSetTimerNumber( TimerHandle_t xTimer, UBaseType_t uxTimerNumber )
1114:C:/Users/stapi/OneDrive/Desktop/GD32VW553/V1_MQTT_OK/GD32VW55X_Wifi_BLE_SDK/GD32VW55x_RELEASE_V1.0.2/MSDK/rtos/FreeRTOS/Source\timers.c **** 	{
 1391              		.loc 1 1114 2 is_stmt 1
 1392              		.cfi_startproc
 1393              	.LVL139:
1115:C:/Users/stapi/OneDrive/Desktop/GD32VW553/V1_MQTT_OK/GD32VW55X_Wifi_BLE_SDK/GD32VW55x_RELEASE_V1.0.2/MSDK/rtos/FreeRTOS/Source\timers.c **** 		( ( Timer_t * ) xTimer )->uxTimerNumber = uxTimerNumber;
 1394              		.loc 1 1115 3
 1395              		.loc 1 1115 43 is_stmt 0
 1396 0000 0CD9     		sw	a1,48(a0)
1116:C:/Users/stapi/OneDrive/Desktop/GD32VW553/V1_MQTT_OK/GD32VW55X_Wifi_BLE_SDK/GD32VW55x_RELEASE_V1.0.2/MSDK/rtos/FreeRTOS/Source\timers.c **** 	}
 1397              		.loc 1 1116 2
 1398 0002 8280     		ret
 1399              		.cfi_endproc
 1400              	.LFE23:
 1402              		.section	.bss.xActiveTimerList1,"aw",@nobits
 1403              		.align	3
 1404              		.set	.LANCHOR1,. + 0
 1407              	xActiveTimerList1:
 1408 0000 00000000 		.zero	24
 1408      00000000 
 1408      00000000 
 1408      00000000 
 1408      00000000 
 1409              		.section	.bss.xActiveTimerList2,"aw",@nobits
 1410              		.align	3
 1411              		.set	.LANCHOR2,. + 0
 1414              	xActiveTimerList2:
 1415 0000 00000000 		.zero	24
 1415      00000000 
 1415      00000000 
 1415      00000000 
 1415      00000000 
 1416              		.section	.sbss.pxCurrentTimerList,"aw",@nobits
 1417              		.align	2
 1418              		.set	.LANCHOR3,. + 0
 1421              	pxCurrentTimerList:
 1422 0000 00000000 		.zero	4
 1423              		.section	.sbss.pxOverflowTimerList,"aw",@nobits
 1424              		.align	2
 1425              		.set	.LANCHOR4,. + 0
 1428              	pxOverflowTimerList:
 1429 0000 00000000 		.zero	4
 1430              		.section	.sbss.xLastTime.0,"aw",@nobits
 1431              		.align	3
 1432              		.set	.LANCHOR6,. + 0
 1435              	xLastTime.0:
 1436 0000 00000000 		.zero	8
 1436      00000000 
 1437              		.section	.sbss.xTimerQueue,"aw",@nobits
 1438              		.align	2
 1439              		.set	.LANCHOR0,. + 0
 1442              	xTimerQueue:
 1443 0000 00000000 		.zero	4
 1444              		.section	.sbss.xTimerTaskHandle,"aw",@nobits
 1445              		.align	2
 1446              		.set	.LANCHOR5,. + 0
 1449              	xTimerTaskHandle:
 1450 0000 00000000 		.zero	4
 1451              		.text
 1452              	.Letext0:
 1453              		.file 2 "c:\\users\\stapi\\onedrive\\desktop\\gd32vw553\\embeddedbuilder_v1.4.7.26843\\tools\\nucl
 1454              		.file 3 "c:\\users\\stapi\\onedrive\\desktop\\gd32vw553\\embeddedbuilder_v1.4.7.26843\\tools\\nucl
 1455              		.file 4 "..\\..\\..\\..\\rtos\\FreeRTOS\\Source\\portable\\riscv32/portmacro.h"
 1456              		.file 5 "..\\..\\..\\..\\rtos\\FreeRTOS\\Source\\include/list.h"
 1457              		.file 6 "..\\..\\..\\..\\rtos\\FreeRTOS\\Source\\include/task.h"
 1458              		.file 7 "..\\..\\..\\..\\rtos\\FreeRTOS\\Source\\include/queue.h"
 1459              		.file 8 "..\\..\\..\\..\\rtos\\FreeRTOS\\Source\\include/timers.h"
 1460              		.file 9 "..\\..\\..\\..\\rtos\\FreeRTOS\\Source\\include/portable.h"
DEFINED SYMBOLS
                            *ABS*:0000000000000000 timers.c
C:\Users\stapi\AppData\Local\Temp\ccuIvOTG.s:12     .text.prvCheckForValidListAndQueue:0000000000000000 prvCheckForValidListAndQueue
C:\Users\stapi\AppData\Local\Temp\ccuIvOTG.s:16     .text.prvCheckForValidListAndQueue:0000000000000000 .L0 
C:\Users\stapi\AppData\Local\Temp\ccuIvOTG.s:17     .text.prvCheckForValidListAndQueue:0000000000000000 .L0 
C:\Users\stapi\AppData\Local\Temp\ccuIvOTG.s:18     .text.prvCheckForValidListAndQueue:0000000000000008 .L0 
C:\Users\stapi\AppData\Local\Temp\ccuIvOTG.s:19     .text.prvCheckForValidListAndQueue:0000000000000008 .L0 
C:\Users\stapi\AppData\Local\Temp\ccuIvOTG.s:20     .text.prvCheckForValidListAndQueue:0000000000000008 .L0 
C:\Users\stapi\AppData\Local\Temp\ccuIvOTG.s:21     .text.prvCheckForValidListAndQueue:0000000000000008 .L0 
C:\Users\stapi\AppData\Local\Temp\ccuIvOTG.s:22     .text.prvCheckForValidListAndQueue:0000000000000008 .L0 
C:\Users\stapi\AppData\Local\Temp\ccuIvOTG.s:24     .text.prvCheckForValidListAndQueue:0000000000000008 .L0 
C:\Users\stapi\AppData\Local\Temp\ccuIvOTG.s:25     .text.prvCheckForValidListAndQueue:0000000000000008 .L0 
C:\Users\stapi\AppData\Local\Temp\ccuIvOTG.s:27     .text.prvCheckForValidListAndQueue:000000000000000c .L0 
C:\Users\stapi\AppData\Local\Temp\ccuIvOTG.s:30     .text.prvCheckForValidListAndQueue:0000000000000014 .L0 
C:\Users\stapi\AppData\Local\Temp\ccuIvOTG.s:31     .text.prvCheckForValidListAndQueue:0000000000000014 .L0 
C:\Users\stapi\AppData\Local\Temp\ccuIvOTG.s:33     .text.prvCheckForValidListAndQueue:0000000000000018 .L0 
C:\Users\stapi\AppData\Local\Temp\ccuIvOTG.s:36     .text.prvCheckForValidListAndQueue:000000000000001c .L0 
C:\Users\stapi\AppData\Local\Temp\ccuIvOTG.s:42     .text.prvCheckForValidListAndQueue:0000000000000030 .L0 
C:\Users\stapi\AppData\Local\Temp\ccuIvOTG.s:48     .text.prvCheckForValidListAndQueue:0000000000000044 .L0 
C:\Users\stapi\AppData\Local\Temp\ccuIvOTG.s:49     .text.prvCheckForValidListAndQueue:0000000000000044 .L0 
C:\Users\stapi\AppData\Local\Temp\ccuIvOTG.s:52     .text.prvCheckForValidListAndQueue:000000000000004c .L0 
C:\Users\stapi\AppData\Local\Temp\ccuIvOTG.s:53     .text.prvCheckForValidListAndQueue:000000000000004c .L0 
C:\Users\stapi\AppData\Local\Temp\ccuIvOTG.s:55     .text.prvCheckForValidListAndQueue:000000000000004e .L0 
C:\Users\stapi\AppData\Local\Temp\ccuIvOTG.s:57     .text.prvCheckForValidListAndQueue:0000000000000052 .L0 
C:\Users\stapi\AppData\Local\Temp\ccuIvOTG.s:60     .text.prvCheckForValidListAndQueue:0000000000000056 .L0 
C:\Users\stapi\AppData\Local\Temp\ccuIvOTG.s:62     .text.prvCheckForValidListAndQueue:000000000000005a .L0 
C:\Users\stapi\AppData\Local\Temp\ccuIvOTG.s:63     .text.prvCheckForValidListAndQueue:000000000000005a .L0 
C:\Users\stapi\AppData\Local\Temp\ccuIvOTG.s:66     .text.prvCheckForValidListAndQueue:0000000000000062 .L0 
C:\Users\stapi\AppData\Local\Temp\ccuIvOTG.s:69     .text.prvCheckForValidListAndQueue:0000000000000064 .L0 
C:\Users\stapi\AppData\Local\Temp\ccuIvOTG.s:70     .text.prvCheckForValidListAndQueue:0000000000000064 .L0 
C:\Users\stapi\AppData\Local\Temp\ccuIvOTG.s:73     .text.prvCheckForValidListAndQueue:000000000000006c .L0 
C:\Users\stapi\AppData\Local\Temp\ccuIvOTG.s:74     .text.prvCheckForValidListAndQueue:0000000000000074 .L0 
C:\Users\stapi\AppData\Local\Temp\ccuIvOTG.s:75     .text.prvCheckForValidListAndQueue:0000000000000074 .L0 
C:\Users\stapi\AppData\Local\Temp\ccuIvOTG.s:76     .text.prvCheckForValidListAndQueue:0000000000000074 .L0 
C:\Users\stapi\AppData\Local\Temp\ccuIvOTG.s:77     .text.prvCheckForValidListAndQueue:0000000000000074 .L0 
C:\Users\stapi\AppData\Local\Temp\ccuIvOTG.s:78     .text.prvCheckForValidListAndQueue:0000000000000074 .L0 
C:\Users\stapi\AppData\Local\Temp\ccuIvOTG.s:79     .text.prvCheckForValidListAndQueue:0000000000000074 .L0 
C:\Users\stapi\AppData\Local\Temp\ccuIvOTG.s:85     .text.prvInsertTimerInActiveList:0000000000000000 prvInsertTimerInActiveList
C:\Users\stapi\AppData\Local\Temp\ccuIvOTG.s:88     .text.prvInsertTimerInActiveList:0000000000000000 .L0 
C:\Users\stapi\AppData\Local\Temp\ccuIvOTG.s:90     .text.prvInsertTimerInActiveList:0000000000000000 .L0 
C:\Users\stapi\AppData\Local\Temp\ccuIvOTG.s:91     .text.prvInsertTimerInActiveList:0000000000000008 .L0 
C:\Users\stapi\AppData\Local\Temp\ccuIvOTG.s:92     .text.prvInsertTimerInActiveList:0000000000000008 .L0 
C:\Users\stapi\AppData\Local\Temp\ccuIvOTG.s:95     .text.prvInsertTimerInActiveList:0000000000000008 .L0 
C:\Users\stapi\AppData\Local\Temp\ccuIvOTG.s:96     .text.prvInsertTimerInActiveList:0000000000000008 .L0 
C:\Users\stapi\AppData\Local\Temp\ccuIvOTG.s:99     .text.prvInsertTimerInActiveList:000000000000000c .L0 
C:\Users\stapi\AppData\Local\Temp\ccuIvOTG.s:101    .text.prvInsertTimerInActiveList:000000000000000e .L0 
C:\Users\stapi\AppData\Local\Temp\ccuIvOTG.s:102    .text.prvInsertTimerInActiveList:000000000000000e .L0 
C:\Users\stapi\AppData\Local\Temp\ccuIvOTG.s:107    .text.prvInsertTimerInActiveList:000000000000001a .L0 
C:\Users\stapi\AppData\Local\Temp\ccuIvOTG.s:108    .text.prvInsertTimerInActiveList:000000000000001a .L0 
C:\Users\stapi\AppData\Local\Temp\ccuIvOTG.s:115    .text.prvInsertTimerInActiveList:0000000000000028 .L0 
C:\Users\stapi\AppData\Local\Temp\ccuIvOTG.s:125    .text.prvInsertTimerInActiveList:0000000000000038 .L0 
C:\Users\stapi\AppData\Local\Temp\ccuIvOTG.s:134    .text.prvInsertTimerInActiveList:0000000000000044 .L0 
C:\Users\stapi\AppData\Local\Temp\ccuIvOTG.s:137    .text.prvInsertTimerInActiveList:000000000000004c .L0 
C:\Users\stapi\AppData\Local\Temp\ccuIvOTG.s:141    .text.prvInsertTimerInActiveList:000000000000004e .L0 
C:\Users\stapi\AppData\Local\Temp\ccuIvOTG.s:142    .text.prvInsertTimerInActiveList:0000000000000056 .L0 
C:\Users\stapi\AppData\Local\Temp\ccuIvOTG.s:143    .text.prvInsertTimerInActiveList:0000000000000056 .L0 
C:\Users\stapi\AppData\Local\Temp\ccuIvOTG.s:144    .text.prvInsertTimerInActiveList:0000000000000056 .L0 
C:\Users\stapi\AppData\Local\Temp\ccuIvOTG.s:147    .text.prvInsertTimerInActiveList:0000000000000056 .L0 
C:\Users\stapi\AppData\Local\Temp\ccuIvOTG.s:149    .text.prvInsertTimerInActiveList:0000000000000056 .L0 
C:\Users\stapi\AppData\Local\Temp\ccuIvOTG.s:150    .text.prvInsertTimerInActiveList:0000000000000056 .L0 
C:\Users\stapi\AppData\Local\Temp\ccuIvOTG.s:155    .text.prvInsertTimerInActiveList:0000000000000062 .L0 
C:\Users\stapi\AppData\Local\Temp\ccuIvOTG.s:160    .text.prvInsertTimerInActiveList:000000000000006e .L0 
C:\Users\stapi\AppData\Local\Temp\ccuIvOTG.s:170    .text.prvInsertTimerInActiveList:000000000000007c .L0 
C:\Users\stapi\AppData\Local\Temp\ccuIvOTG.s:173    .text.prvInsertTimerInActiveList:000000000000007e .L0 
C:\Users\stapi\AppData\Local\Temp\ccuIvOTG.s:174    .text.prvInsertTimerInActiveList:000000000000007e .L0 
C:\Users\stapi\AppData\Local\Temp\ccuIvOTG.s:175    .text.prvInsertTimerInActiveList:0000000000000080 .L0 
C:\Users\stapi\AppData\Local\Temp\ccuIvOTG.s:186    .text.xTimerCreateTimerTask:0000000000000000 xTimerCreateTimerTask
C:\Users\stapi\AppData\Local\Temp\ccuIvOTG.s:189    .text.xTimerCreateTimerTask:0000000000000000 .L0 
C:\Users\stapi\AppData\Local\Temp\ccuIvOTG.s:190    .text.xTimerCreateTimerTask:0000000000000000 .L0 
C:\Users\stapi\AppData\Local\Temp\ccuIvOTG.s:191    .text.xTimerCreateTimerTask:0000000000000008 .L0 
C:\Users\stapi\AppData\Local\Temp\ccuIvOTG.s:192    .text.xTimerCreateTimerTask:0000000000000008 .L0 
C:\Users\stapi\AppData\Local\Temp\ccuIvOTG.s:195    .text.xTimerCreateTimerTask:0000000000000008 .L0 
C:\Users\stapi\AppData\Local\Temp\ccuIvOTG.s:196    .text.xTimerCreateTimerTask:0000000000000008 .L0 
C:\Users\stapi\AppData\Local\Temp\ccuIvOTG.s:199    .text.xTimerCreateTimerTask:0000000000000010 .L0 
C:\Users\stapi\AppData\Local\Temp\ccuIvOTG.s:200    .text.xTimerCreateTimerTask:0000000000000010 .L0 
C:\Users\stapi\AppData\Local\Temp\ccuIvOTG.s:205    .text.xTimerCreateTimerTask:000000000000001c .L0 
C:\Users\stapi\AppData\Local\Temp\ccuIvOTG.s:206    .text.xTimerCreateTimerTask:000000000000001c .L0 
C:\Users\stapi\AppData\Local\Temp\ccuIvOTG.s:638    .text.prvTimerTask:0000000000000000 prvTimerTask
C:\Users\stapi\AppData\Local\Temp\ccuIvOTG.s:219    .text.xTimerCreateTimerTask:0000000000000044 .L0 
C:\Users\stapi\AppData\Local\Temp\ccuIvOTG.s:220    .text.xTimerCreateTimerTask:000000000000004c .L0 
C:\Users\stapi\AppData\Local\Temp\ccuIvOTG.s:221    .text.xTimerCreateTimerTask:000000000000004c .L0 
C:\Users\stapi\AppData\Local\Temp\ccuIvOTG.s:222    .text.xTimerCreateTimerTask:000000000000004c .L0 
C:\Users\stapi\AppData\Local\Temp\ccuIvOTG.s:229    .text.xTimerCreate:0000000000000000 xTimerCreate
C:\Users\stapi\AppData\Local\Temp\ccuIvOTG.s:232    .text.xTimerCreate:0000000000000000 .L0 
C:\Users\stapi\AppData\Local\Temp\ccuIvOTG.s:234    .text.xTimerCreate:0000000000000000 .L0 
C:\Users\stapi\AppData\Local\Temp\ccuIvOTG.s:235    .text.xTimerCreate:0000000000000008 .L0 
C:\Users\stapi\AppData\Local\Temp\ccuIvOTG.s:236    .text.xTimerCreate:0000000000000008 .L0 
C:\Users\stapi\AppData\Local\Temp\ccuIvOTG.s:237    .text.xTimerCreate:0000000000000008 .L0 
C:\Users\stapi\AppData\Local\Temp\ccuIvOTG.s:238    .text.xTimerCreate:0000000000000008 .L0 
C:\Users\stapi\AppData\Local\Temp\ccuIvOTG.s:239    .text.xTimerCreate:0000000000000008 .L0 
C:\Users\stapi\AppData\Local\Temp\ccuIvOTG.s:240    .text.xTimerCreate:0000000000000008 .L0 
C:\Users\stapi\AppData\Local\Temp\ccuIvOTG.s:241    .text.xTimerCreate:0000000000000008 .L0 
C:\Users\stapi\AppData\Local\Temp\ccuIvOTG.s:242    .text.xTimerCreate:0000000000000008 .L0 
C:\Users\stapi\AppData\Local\Temp\ccuIvOTG.s:243    .text.xTimerCreate:0000000000000008 .L0 
C:\Users\stapi\AppData\Local\Temp\ccuIvOTG.s:245    .text.xTimerCreate:0000000000000008 .L0 
C:\Users\stapi\AppData\Local\Temp\ccuIvOTG.s:246    .text.xTimerCreate:0000000000000008 .L0 
C:\Users\stapi\AppData\Local\Temp\ccuIvOTG.s:247    .text.xTimerCreate:0000000000000008 .L0 
C:\Users\stapi\AppData\Local\Temp\ccuIvOTG.s:249    .text.xTimerCreate:000000000000000a .L0 
C:\Users\stapi\AppData\Local\Temp\ccuIvOTG.s:252    .text.xTimerCreate:000000000000000e .L0 
C:\Users\stapi\AppData\Local\Temp\ccuIvOTG.s:258    .text.xTimerCreate:0000000000000018 .L0 
C:\Users\stapi\AppData\Local\Temp\ccuIvOTG.s:263    .text.xTimerCreate:0000000000000022 .L0 
C:\Users\stapi\AppData\Local\Temp\ccuIvOTG.s:264    .text.xTimerCreate:0000000000000022 .L0 
C:\Users\stapi\AppData\Local\Temp\ccuIvOTG.s:266    .text.xTimerCreate:0000000000000024 .L0 
C:\Users\stapi\AppData\Local\Temp\ccuIvOTG.s:267    .text.xTimerCreate:0000000000000024 .L0 
C:\Users\stapi\AppData\Local\Temp\ccuIvOTG.s:272    .text.xTimerCreate:0000000000000028 .L0 
C:\Users\stapi\AppData\Local\Temp\ccuIvOTG.s:273    .text.xTimerCreate:0000000000000028 .L0 
C:\Users\stapi\AppData\Local\Temp\ccuIvOTG.s:274    .text.xTimerCreate:0000000000000028 .L0 
C:\Users\stapi\AppData\Local\Temp\ccuIvOTG.s:275    .text.xTimerCreate:0000000000000028 .L0 
C:\Users\stapi\AppData\Local\Temp\ccuIvOTG.s:278    .text.xTimerCreate:0000000000000030 .L0 
C:\Users\stapi\AppData\Local\Temp\ccuIvOTG.s:279    .text.xTimerCreate:0000000000000030 .L0 
C:\Users\stapi\AppData\Local\Temp\ccuIvOTG.s:281    .text.xTimerCreate:0000000000000034 .L0 
C:\Users\stapi\AppData\Local\Temp\ccuIvOTG.s:283    .text.xTimerCreate:0000000000000038 .L0 
C:\Users\stapi\AppData\Local\Temp\ccuIvOTG.s:284    .text.xTimerCreate:0000000000000038 .L0 
C:\Users\stapi\AppData\Local\Temp\ccuIvOTG.s:287    .text.xTimerCreate:0000000000000040 .L0 
C:\Users\stapi\AppData\Local\Temp\ccuIvOTG.s:288    .text.xTimerCreate:0000000000000040 .L0 
C:\Users\stapi\AppData\Local\Temp\ccuIvOTG.s:290    .text.xTimerCreate:0000000000000044 .L0 
C:\Users\stapi\AppData\Local\Temp\ccuIvOTG.s:291    .text.xTimerCreate:0000000000000044 .L0 
C:\Users\stapi\AppData\Local\Temp\ccuIvOTG.s:293    .text.xTimerCreate:0000000000000048 .L0 
C:\Users\stapi\AppData\Local\Temp\ccuIvOTG.s:296    .text.xTimerCreate:0000000000000050 .L0 
C:\Users\stapi\AppData\Local\Temp\ccuIvOTG.s:297    .text.xTimerCreate:0000000000000050 .L0 
C:\Users\stapi\AppData\Local\Temp\ccuIvOTG.s:299    .text.xTimerCreate:0000000000000052 .L0 
C:\Users\stapi\AppData\Local\Temp\ccuIvOTG.s:300    .text.xTimerCreate:0000000000000052 .L0 
C:\Users\stapi\AppData\Local\Temp\ccuIvOTG.s:308    .text.xTimerCreate:000000000000005e .L0 
C:\Users\stapi\AppData\Local\Temp\ccuIvOTG.s:309    .text.xTimerCreate:000000000000005e .L0 
C:\Users\stapi\AppData\Local\Temp\ccuIvOTG.s:311    .text.xTimerCreate:0000000000000068 .L0 
C:\Users\stapi\AppData\Local\Temp\ccuIvOTG.s:312    .text.xTimerCreate:0000000000000068 .L0 
C:\Users\stapi\AppData\Local\Temp\ccuIvOTG.s:313    .text.xTimerCreate:0000000000000068 .L0 
C:\Users\stapi\AppData\Local\Temp\ccuIvOTG.s:314    .text.xTimerCreate:0000000000000068 .L0 
C:\Users\stapi\AppData\Local\Temp\ccuIvOTG.s:315    .text.xTimerCreate:0000000000000068 .L0 
C:\Users\stapi\AppData\Local\Temp\ccuIvOTG.s:316    .text.xTimerCreate:0000000000000068 .L0 
C:\Users\stapi\AppData\Local\Temp\ccuIvOTG.s:317    .text.xTimerCreate:0000000000000068 .L0 
C:\Users\stapi\AppData\Local\Temp\ccuIvOTG.s:318    .text.xTimerCreate:0000000000000068 .L0 
C:\Users\stapi\AppData\Local\Temp\ccuIvOTG.s:319    .text.xTimerCreate:0000000000000068 .L0 
C:\Users\stapi\AppData\Local\Temp\ccuIvOTG.s:320    .text.xTimerCreate:0000000000000068 .L0 
C:\Users\stapi\AppData\Local\Temp\ccuIvOTG.s:327    .text.xTimerGenericCommand:0000000000000000 xTimerGenericCommand
C:\Users\stapi\AppData\Local\Temp\ccuIvOTG.s:330    .text.xTimerGenericCommand:0000000000000000 .L0 
C:\Users\stapi\AppData\Local\Temp\ccuIvOTG.s:332    .text.xTimerGenericCommand:0000000000000000 .L0 
C:\Users\stapi\AppData\Local\Temp\ccuIvOTG.s:333    .text.xTimerGenericCommand:0000000000000008 .L0 
C:\Users\stapi\AppData\Local\Temp\ccuIvOTG.s:334    .text.xTimerGenericCommand:0000000000000008 .L0 
C:\Users\stapi\AppData\Local\Temp\ccuIvOTG.s:335    .text.xTimerGenericCommand:0000000000000008 .L0 
C:\Users\stapi\AppData\Local\Temp\ccuIvOTG.s:336    .text.xTimerGenericCommand:0000000000000008 .L0 
C:\Users\stapi\AppData\Local\Temp\ccuIvOTG.s:337    .text.xTimerGenericCommand:0000000000000008 .L0 
C:\Users\stapi\AppData\Local\Temp\ccuIvOTG.s:340    .text.xTimerGenericCommand:0000000000000008 .L0 
C:\Users\stapi\AppData\Local\Temp\ccuIvOTG.s:341    .text.xTimerGenericCommand:0000000000000008 .L0 
C:\Users\stapi\AppData\Local\Temp\ccuIvOTG.s:342    .text.xTimerGenericCommand:0000000000000008 .L0 
C:\Users\stapi\AppData\Local\Temp\ccuIvOTG.s:343    .text.xTimerGenericCommand:0000000000000008 .L0 
C:\Users\stapi\AppData\Local\Temp\ccuIvOTG.s:344    .text.xTimerGenericCommand:0000000000000008 .L0 
C:\Users\stapi\AppData\Local\Temp\ccuIvOTG.s:347    .text.xTimerGenericCommand:0000000000000010 .L0 
C:\Users\stapi\AppData\Local\Temp\ccuIvOTG.s:349    .text.xTimerGenericCommand:0000000000000012 .L0 
C:\Users\stapi\AppData\Local\Temp\ccuIvOTG.s:352    .text.xTimerGenericCommand:0000000000000014 .L0 
C:\Users\stapi\AppData\Local\Temp\ccuIvOTG.s:353    .text.xTimerGenericCommand:0000000000000016 .L0 
C:\Users\stapi\AppData\Local\Temp\ccuIvOTG.s:355    .text.xTimerGenericCommand:0000000000000016 .L0 
C:\Users\stapi\AppData\Local\Temp\ccuIvOTG.s:358    .text.xTimerGenericCommand:000000000000001a .L0 
C:\Users\stapi\AppData\Local\Temp\ccuIvOTG.s:359    .text.xTimerGenericCommand:000000000000001a .L0 
C:\Users\stapi\AppData\Local\Temp\ccuIvOTG.s:361    .text.xTimerGenericCommand:000000000000001c .L0 
C:\Users\stapi\AppData\Local\Temp\ccuIvOTG.s:362    .text.xTimerGenericCommand:000000000000001c .L0 
C:\Users\stapi\AppData\Local\Temp\ccuIvOTG.s:365    .text.xTimerGenericCommand:0000000000000020 .L0 
C:\Users\stapi\AppData\Local\Temp\ccuIvOTG.s:366    .text.xTimerGenericCommand:0000000000000020 .L0 
C:\Users\stapi\AppData\Local\Temp\ccuIvOTG.s:368    .text.xTimerGenericCommand:0000000000000022 .L0 
C:\Users\stapi\AppData\Local\Temp\ccuIvOTG.s:369    .text.xTimerGenericCommand:0000000000000022 .L0 
C:\Users\stapi\AppData\Local\Temp\ccuIvOTG.s:374    .text.xTimerGenericCommand:000000000000002a .L0 
C:\Users\stapi\AppData\Local\Temp\ccuIvOTG.s:375    .text.xTimerGenericCommand:000000000000002a .L0 
C:\Users\stapi\AppData\Local\Temp\ccuIvOTG.s:379    .text.xTimerGenericCommand:0000000000000034 .L0 
C:\Users\stapi\AppData\Local\Temp\ccuIvOTG.s:383    .text.xTimerGenericCommand:000000000000003c .L0 
C:\Users\stapi\AppData\Local\Temp\ccuIvOTG.s:384    .text.xTimerGenericCommand:000000000000003c .L0 
C:\Users\stapi\AppData\Local\Temp\ccuIvOTG.s:389    .text.xTimerGenericCommand:0000000000000042 .L0 
C:\Users\stapi\AppData\Local\Temp\ccuIvOTG.s:394    .text.xTimerGenericCommand:000000000000004c .L0 
C:\Users\stapi\AppData\Local\Temp\ccuIvOTG.s:395    .text.xTimerGenericCommand:000000000000004e .L0 
C:\Users\stapi\AppData\Local\Temp\ccuIvOTG.s:396    .text.xTimerGenericCommand:000000000000004e .L0 
C:\Users\stapi\AppData\Local\Temp\ccuIvOTG.s:398    .text.xTimerGenericCommand:0000000000000056 .L0 
C:\Users\stapi\AppData\Local\Temp\ccuIvOTG.s:399    .text.xTimerGenericCommand:0000000000000056 .L0 
C:\Users\stapi\AppData\Local\Temp\ccuIvOTG.s:400    .text.xTimerGenericCommand:0000000000000056 .L0 
C:\Users\stapi\AppData\Local\Temp\ccuIvOTG.s:401    .text.xTimerGenericCommand:0000000000000056 .L0 
C:\Users\stapi\AppData\Local\Temp\ccuIvOTG.s:402    .text.xTimerGenericCommand:0000000000000056 .L0 
C:\Users\stapi\AppData\Local\Temp\ccuIvOTG.s:405    .text.xTimerGenericCommand:0000000000000056 .L0 
C:\Users\stapi\AppData\Local\Temp\ccuIvOTG.s:407    .text.xTimerGenericCommand:0000000000000056 .L0 
C:\Users\stapi\AppData\Local\Temp\ccuIvOTG.s:408    .text.xTimerGenericCommand:0000000000000056 .L0 
C:\Users\stapi\AppData\Local\Temp\ccuIvOTG.s:415    .text.xTimerGenericCommand:000000000000005e .L0 
C:\Users\stapi\AppData\Local\Temp\ccuIvOTG.s:416    .text.xTimerGenericCommand:000000000000005e .L0 
C:\Users\stapi\AppData\Local\Temp\ccuIvOTG.s:427    .text.xTimerGenericCommand:000000000000006e .L0 
C:\Users\stapi\AppData\Local\Temp\ccuIvOTG.s:429    .text.xTimerGenericCommand:0000000000000070 .L0 
C:\Users\stapi\AppData\Local\Temp\ccuIvOTG.s:430    .text.xTimerGenericCommand:0000000000000070 .L0 
C:\Users\stapi\AppData\Local\Temp\ccuIvOTG.s:431    .text.xTimerGenericCommand:0000000000000070 .L0 
C:\Users\stapi\AppData\Local\Temp\ccuIvOTG.s:432    .text.xTimerGenericCommand:0000000000000072 .L0 
C:\Users\stapi\AppData\Local\Temp\ccuIvOTG.s:438    .text.prvSampleTimeNow:0000000000000000 prvSampleTimeNow
C:\Users\stapi\AppData\Local\Temp\ccuIvOTG.s:441    .text.prvSampleTimeNow:0000000000000000 .L0 
C:\Users\stapi\AppData\Local\Temp\ccuIvOTG.s:443    .text.prvSampleTimeNow:0000000000000000 .L0 
C:\Users\stapi\AppData\Local\Temp\ccuIvOTG.s:444    .text.prvSampleTimeNow:0000000000000008 .L0 
C:\Users\stapi\AppData\Local\Temp\ccuIvOTG.s:445    .text.prvSampleTimeNow:0000000000000008 .L0 
C:\Users\stapi\AppData\Local\Temp\ccuIvOTG.s:446    .text.prvSampleTimeNow:0000000000000008 .L0 
C:\Users\stapi\AppData\Local\Temp\ccuIvOTG.s:447    .text.prvSampleTimeNow:0000000000000008 .L0 
C:\Users\stapi\AppData\Local\Temp\ccuIvOTG.s:448    .text.prvSampleTimeNow:0000000000000008 .L0 
C:\Users\stapi\AppData\Local\Temp\ccuIvOTG.s:449    .text.prvSampleTimeNow:0000000000000008 .L0 
C:\Users\stapi\AppData\Local\Temp\ccuIvOTG.s:450    .text.prvSampleTimeNow:0000000000000008 .L0 
C:\Users\stapi\AppData\Local\Temp\ccuIvOTG.s:451    .text.prvSampleTimeNow:0000000000000008 .L0 
C:\Users\stapi\AppData\Local\Temp\ccuIvOTG.s:452    .text.prvSampleTimeNow:0000000000000008 .L0 
C:\Users\stapi\AppData\Local\Temp\ccuIvOTG.s:454    .text.prvSampleTimeNow:0000000000000008 .L0 
C:\Users\stapi\AppData\Local\Temp\ccuIvOTG.s:455    .text.prvSampleTimeNow:0000000000000008 .L0 
C:\Users\stapi\AppData\Local\Temp\ccuIvOTG.s:456    .text.prvSampleTimeNow:0000000000000008 .L0 
C:\Users\stapi\AppData\Local\Temp\ccuIvOTG.s:457    .text.prvSampleTimeNow:0000000000000008 .L0 
C:\Users\stapi\AppData\Local\Temp\ccuIvOTG.s:458    .text.prvSampleTimeNow:000000000000000a .L0 
C:\Users\stapi\AppData\Local\Temp\ccuIvOTG.s:460    .text.prvSampleTimeNow:000000000000000a .L0 
C:\Users\stapi\AppData\Local\Temp\ccuIvOTG.s:462    .text.prvSampleTimeNow:000000000000000e .L0 
C:\Users\stapi\AppData\Local\Temp\ccuIvOTG.s:464    .text.prvSampleTimeNow:0000000000000010 .L0 
C:\Users\stapi\AppData\Local\Temp\ccuIvOTG.s:467    .text.prvSampleTimeNow:0000000000000018 .L0 
C:\Users\stapi\AppData\Local\Temp\ccuIvOTG.s:469    .text.prvSampleTimeNow:000000000000001c .L0 
C:\Users\stapi\AppData\Local\Temp\ccuIvOTG.s:471    .text.prvSampleTimeNow:000000000000001e .L0 
C:\Users\stapi\AppData\Local\Temp\ccuIvOTG.s:475    .text.prvSampleTimeNow:0000000000000022 .L0 
C:\Users\stapi\AppData\Local\Temp\ccuIvOTG.s:477    .text.prvSampleTimeNow:0000000000000026 .L0 
C:\Users\stapi\AppData\Local\Temp\ccuIvOTG.s:485    .text.prvSampleTimeNow:0000000000000036 .L0 
C:\Users\stapi\AppData\Local\Temp\ccuIvOTG.s:490    .text.prvSampleTimeNow:000000000000003c .L0 
C:\Users\stapi\AppData\Local\Temp\ccuIvOTG.s:491    .text.prvSampleTimeNow:000000000000003c .L0 
C:\Users\stapi\AppData\Local\Temp\ccuIvOTG.s:493    .text.prvSampleTimeNow:000000000000003e .L0 
C:\Users\stapi\AppData\Local\Temp\ccuIvOTG.s:495    .text.prvSampleTimeNow:0000000000000040 .L0 
C:\Users\stapi\AppData\Local\Temp\ccuIvOTG.s:498    .text.prvSampleTimeNow:0000000000000044 .L0 
C:\Users\stapi\AppData\Local\Temp\ccuIvOTG.s:501    .text.prvSampleTimeNow:000000000000004a .L0 
C:\Users\stapi\AppData\Local\Temp\ccuIvOTG.s:505    .text.prvSampleTimeNow:000000000000004e .L0 
C:\Users\stapi\AppData\Local\Temp\ccuIvOTG.s:506    .text.prvSampleTimeNow:000000000000004e .L0 
C:\Users\stapi\AppData\Local\Temp\ccuIvOTG.s:507    .text.prvSampleTimeNow:000000000000004e .L0 
C:\Users\stapi\AppData\Local\Temp\ccuIvOTG.s:511    .text.prvSampleTimeNow:0000000000000058 .L0 
C:\Users\stapi\AppData\Local\Temp\ccuIvOTG.s:512    .text.prvSampleTimeNow:0000000000000058 .L0 
C:\Users\stapi\AppData\Local\Temp\ccuIvOTG.s:517    .text.prvSampleTimeNow:000000000000005e .L0 
C:\Users\stapi\AppData\Local\Temp\ccuIvOTG.s:518    .text.prvSampleTimeNow:000000000000005e .L0 
C:\Users\stapi\AppData\Local\Temp\ccuIvOTG.s:525    .text.prvSampleTimeNow:000000000000006c .L0 
C:\Users\stapi\AppData\Local\Temp\ccuIvOTG.s:526    .text.prvSampleTimeNow:000000000000006c .L0 
C:\Users\stapi\AppData\Local\Temp\ccuIvOTG.s:534    .text.prvSampleTimeNow:000000000000007a .L0 
C:\Users\stapi\AppData\Local\Temp\ccuIvOTG.s:535    .text.prvSampleTimeNow:000000000000007a .L0 
C:\Users\stapi\AppData\Local\Temp\ccuIvOTG.s:540    .text.prvSampleTimeNow:0000000000000086 .L0 
C:\Users\stapi\AppData\Local\Temp\ccuIvOTG.s:541    .text.prvSampleTimeNow:0000000000000086 .L0 
C:\Users\stapi\AppData\Local\Temp\ccuIvOTG.s:543    .text.prvSampleTimeNow:000000000000008a .L0 
C:\Users\stapi\AppData\Local\Temp\ccuIvOTG.s:546    .text.prvSampleTimeNow:000000000000008e .L0 
C:\Users\stapi\AppData\Local\Temp\ccuIvOTG.s:548    .text.prvSampleTimeNow:0000000000000090 .L0 
C:\Users\stapi\AppData\Local\Temp\ccuIvOTG.s:552    .text.prvSampleTimeNow:0000000000000098 .L0 
C:\Users\stapi\AppData\Local\Temp\ccuIvOTG.s:553    .text.prvSampleTimeNow:0000000000000098 .L0 
C:\Users\stapi\AppData\Local\Temp\ccuIvOTG.s:554    .text.prvSampleTimeNow:0000000000000098 .L0 
C:\Users\stapi\AppData\Local\Temp\ccuIvOTG.s:559    .text.prvSampleTimeNow:00000000000000a4 .L0 
C:\Users\stapi\AppData\Local\Temp\ccuIvOTG.s:562    .text.prvSampleTimeNow:00000000000000a6 .L0 
C:\Users\stapi\AppData\Local\Temp\ccuIvOTG.s:563    .text.prvSampleTimeNow:00000000000000a6 .L0 
C:\Users\stapi\AppData\Local\Temp\ccuIvOTG.s:564    .text.prvSampleTimeNow:00000000000000a6 .L0 
C:\Users\stapi\AppData\Local\Temp\ccuIvOTG.s:568    .text.prvSampleTimeNow:00000000000000b0 .L0 
C:\Users\stapi\AppData\Local\Temp\ccuIvOTG.s:572    .text.prvSampleTimeNow:00000000000000b2 .L0 
C:\Users\stapi\AppData\Local\Temp\ccuIvOTG.s:576    .text.prvSampleTimeNow:00000000000000b4 .L0 
C:\Users\stapi\AppData\Local\Temp\ccuIvOTG.s:580    .text.prvSampleTimeNow:00000000000000b6 .L0 
C:\Users\stapi\AppData\Local\Temp\ccuIvOTG.s:581    .text.prvSampleTimeNow:00000000000000b6 .L0 
C:\Users\stapi\AppData\Local\Temp\ccuIvOTG.s:582    .text.prvSampleTimeNow:00000000000000b6 .L0 
C:\Users\stapi\AppData\Local\Temp\ccuIvOTG.s:586    .text.prvSampleTimeNow:00000000000000ba .L0 
C:\Users\stapi\AppData\Local\Temp\ccuIvOTG.s:587    .text.prvSampleTimeNow:00000000000000ba .L0 
C:\Users\stapi\AppData\Local\Temp\ccuIvOTG.s:590    .text.prvSampleTimeNow:00000000000000c2 .L0 
C:\Users\stapi\AppData\Local\Temp\ccuIvOTG.s:591    .text.prvSampleTimeNow:00000000000000c2 .L0 
C:\Users\stapi\AppData\Local\Temp\ccuIvOTG.s:594    .text.prvSampleTimeNow:00000000000000c8 .L0 
C:\Users\stapi\AppData\Local\Temp\ccuIvOTG.s:595    .text.prvSampleTimeNow:00000000000000c8 .L0 
C:\Users\stapi\AppData\Local\Temp\ccuIvOTG.s:597    .text.prvSampleTimeNow:00000000000000d0 .L0 
C:\Users\stapi\AppData\Local\Temp\ccuIvOTG.s:598    .text.prvSampleTimeNow:00000000000000d0 .L0 
C:\Users\stapi\AppData\Local\Temp\ccuIvOTG.s:599    .text.prvSampleTimeNow:00000000000000d0 .L0 
C:\Users\stapi\AppData\Local\Temp\ccuIvOTG.s:600    .text.prvSampleTimeNow:00000000000000d0 .L0 
C:\Users\stapi\AppData\Local\Temp\ccuIvOTG.s:601    .text.prvSampleTimeNow:00000000000000d0 .L0 
C:\Users\stapi\AppData\Local\Temp\ccuIvOTG.s:602    .text.prvSampleTimeNow:00000000000000d0 .L0 
C:\Users\stapi\AppData\Local\Temp\ccuIvOTG.s:603    .text.prvSampleTimeNow:00000000000000d0 .L0 
C:\Users\stapi\AppData\Local\Temp\ccuIvOTG.s:604    .text.prvSampleTimeNow:00000000000000d0 .L0 
C:\Users\stapi\AppData\Local\Temp\ccuIvOTG.s:605    .text.prvSampleTimeNow:00000000000000d0 .L0 
C:\Users\stapi\AppData\Local\Temp\ccuIvOTG.s:608    .text.prvSampleTimeNow:00000000000000d0 .L0 
C:\Users\stapi\AppData\Local\Temp\ccuIvOTG.s:612    .text.prvSampleTimeNow:00000000000000d0 .L0 
C:\Users\stapi\AppData\Local\Temp\ccuIvOTG.s:613    .text.prvSampleTimeNow:00000000000000d0 .L0 
C:\Users\stapi\AppData\Local\Temp\ccuIvOTG.s:629    .text.prvSampleTimeNow:00000000000000e4 .L0 
C:\Users\stapi\AppData\Local\Temp\ccuIvOTG.s:630    .text.prvSampleTimeNow:00000000000000e4 .L0 
C:\Users\stapi\AppData\Local\Temp\ccuIvOTG.s:632    .text.prvSampleTimeNow:00000000000000ea .L0 
C:\Users\stapi\AppData\Local\Temp\ccuIvOTG.s:641    .text.prvTimerTask:0000000000000000 .L0 
C:\Users\stapi\AppData\Local\Temp\ccuIvOTG.s:643    .text.prvTimerTask:0000000000000000 .L0 
C:\Users\stapi\AppData\Local\Temp\ccuIvOTG.s:644    .text.prvTimerTask:0000000000000008 .L0 
C:\Users\stapi\AppData\Local\Temp\ccuIvOTG.s:645    .text.prvTimerTask:0000000000000008 .L0 
C:\Users\stapi\AppData\Local\Temp\ccuIvOTG.s:646    .text.prvTimerTask:0000000000000008 .L0 
C:\Users\stapi\AppData\Local\Temp\ccuIvOTG.s:647    .text.prvTimerTask:0000000000000008 .L0 
C:\Users\stapi\AppData\Local\Temp\ccuIvOTG.s:648    .text.prvTimerTask:0000000000000008 .L0 
C:\Users\stapi\AppData\Local\Temp\ccuIvOTG.s:649    .text.prvTimerTask:0000000000000008 .L0 
C:\Users\stapi\AppData\Local\Temp\ccuIvOTG.s:650    .text.prvTimerTask:0000000000000008 .L0 
C:\Users\stapi\AppData\Local\Temp\ccuIvOTG.s:651    .text.prvTimerTask:0000000000000008 .L0 
C:\Users\stapi\AppData\Local\Temp\ccuIvOTG.s:652    .text.prvTimerTask:0000000000000008 .L0 
C:\Users\stapi\AppData\Local\Temp\ccuIvOTG.s:653    .text.prvTimerTask:0000000000000008 .L0 
C:\Users\stapi\AppData\Local\Temp\ccuIvOTG.s:654    .text.prvTimerTask:0000000000000008 .L0 
C:\Users\stapi\AppData\Local\Temp\ccuIvOTG.s:657    .text.prvTimerTask:000000000000000e .L0 
C:\Users\stapi\AppData\Local\Temp\ccuIvOTG.s:661    .text.prvTimerTask:000000000000000e .L0 
C:\Users\stapi\AppData\Local\Temp\ccuIvOTG.s:668    .text.prvTimerTask:0000000000000016 .L0 
C:\Users\stapi\AppData\Local\Temp\ccuIvOTG.s:675    .text.prvTimerTask:000000000000001e .L0 
C:\Users\stapi\AppData\Local\Temp\ccuIvOTG.s:676    .text.prvTimerTask:000000000000001e .L0 
C:\Users\stapi\AppData\Local\Temp\ccuIvOTG.s:677    .text.prvTimerTask:000000000000001e .L0 
C:\Users\stapi\AppData\Local\Temp\ccuIvOTG.s:678    .text.prvTimerTask:000000000000001e .L0 
C:\Users\stapi\AppData\Local\Temp\ccuIvOTG.s:681    .text.prvTimerTask:000000000000001e .L0 
C:\Users\stapi\AppData\Local\Temp\ccuIvOTG.s:682    .text.prvTimerTask:000000000000001e .L0 
C:\Users\stapi\AppData\Local\Temp\ccuIvOTG.s:683    .text.prvTimerTask:000000000000001e .L0 
C:\Users\stapi\AppData\Local\Temp\ccuIvOTG.s:684    .text.prvTimerTask:000000000000001e .L0 
C:\Users\stapi\AppData\Local\Temp\ccuIvOTG.s:690    .text.prvTimerTask:000000000000002a .L0 
C:\Users\stapi\AppData\Local\Temp\ccuIvOTG.s:691    .text.prvTimerTask:000000000000002a .L0 
C:\Users\stapi\AppData\Local\Temp\ccuIvOTG.s:692    .text.prvTimerTask:000000000000002a .L0 
C:\Users\stapi\AppData\Local\Temp\ccuIvOTG.s:694    .text.prvTimerTask:000000000000002c .L0 
C:\Users\stapi\AppData\Local\Temp\ccuIvOTG.s:696    .text.prvTimerTask:000000000000002e .L0 
C:\Users\stapi\AppData\Local\Temp\ccuIvOTG.s:705    .text.prvTimerTask:0000000000000034 .L0 
C:\Users\stapi\AppData\Local\Temp\ccuIvOTG.s:708    .text.prvTimerTask:0000000000000034 .L0 
C:\Users\stapi\AppData\Local\Temp\ccuIvOTG.s:709    .text.prvTimerTask:0000000000000034 .L0 
C:\Users\stapi\AppData\Local\Temp\ccuIvOTG.s:710    .text.prvTimerTask:0000000000000034 .L0 
C:\Users\stapi\AppData\Local\Temp\ccuIvOTG.s:711    .text.prvTimerTask:0000000000000034 .L0 
C:\Users\stapi\AppData\Local\Temp\ccuIvOTG.s:714    .text.prvTimerTask:000000000000003c .L0 
C:\Users\stapi\AppData\Local\Temp\ccuIvOTG.s:715    .text.prvTimerTask:000000000000003c .L0 
C:\Users\stapi\AppData\Local\Temp\ccuIvOTG.s:719    .text.prvTimerTask:0000000000000046 .L0 
C:\Users\stapi\AppData\Local\Temp\ccuIvOTG.s:721    .text.prvTimerTask:0000000000000048 .L0 
C:\Users\stapi\AppData\Local\Temp\ccuIvOTG.s:725    .text.prvTimerTask:000000000000004c .L0 
C:\Users\stapi\AppData\Local\Temp\ccuIvOTG.s:727    .text.prvTimerTask:0000000000000050 .L0 
C:\Users\stapi\AppData\Local\Temp\ccuIvOTG.s:729    .text.prvTimerTask:0000000000000054 .L0 
C:\Users\stapi\AppData\Local\Temp\ccuIvOTG.s:730    .text.prvTimerTask:0000000000000054 .L0 
C:\Users\stapi\AppData\Local\Temp\ccuIvOTG.s:733    .text.prvTimerTask:0000000000000058 .L0 
C:\Users\stapi\AppData\Local\Temp\ccuIvOTG.s:740    .text.prvTimerTask:0000000000000066 .L0 
C:\Users\stapi\AppData\Local\Temp\ccuIvOTG.s:741    .text.prvTimerTask:0000000000000066 .L0 
C:\Users\stapi\AppData\Local\Temp\ccuIvOTG.s:746    .text.prvTimerTask:000000000000006e .L0 
C:\Users\stapi\AppData\Local\Temp\ccuIvOTG.s:747    .text.prvTimerTask:000000000000006e .L0 
C:\Users\stapi\AppData\Local\Temp\ccuIvOTG.s:748    .text.prvTimerTask:000000000000006e .L0 
C:\Users\stapi\AppData\Local\Temp\ccuIvOTG.s:749    .text.prvTimerTask:000000000000006e .L0 
C:\Users\stapi\AppData\Local\Temp\ccuIvOTG.s:751    .text.prvTimerTask:0000000000000072 .L0 
C:\Users\stapi\AppData\Local\Temp\ccuIvOTG.s:755    .text.prvTimerTask:0000000000000078 .L0 
C:\Users\stapi\AppData\Local\Temp\ccuIvOTG.s:756    .text.prvTimerTask:0000000000000078 .L0 
C:\Users\stapi\AppData\Local\Temp\ccuIvOTG.s:760    .text.prvTimerTask:0000000000000084 .L0 
C:\Users\stapi\AppData\Local\Temp\ccuIvOTG.s:761    .text.prvTimerTask:0000000000000084 .L0 
C:\Users\stapi\AppData\Local\Temp\ccuIvOTG.s:762    .text.prvTimerTask:0000000000000084 .L0 
C:\Users\stapi\AppData\Local\Temp\ccuIvOTG.s:764    .text.prvTimerTask:0000000000000088 .L0 
C:\Users\stapi\AppData\Local\Temp\ccuIvOTG.s:768    .text.prvTimerTask:0000000000000090 .L0 
C:\Users\stapi\AppData\Local\Temp\ccuIvOTG.s:769    .text.prvTimerTask:0000000000000090 .L0 
C:\Users\stapi\AppData\Local\Temp\ccuIvOTG.s:782    .text.prvTimerTask:00000000000000b2 .L0 
C:\Users\stapi\AppData\Local\Temp\ccuIvOTG.s:784    .text.prvTimerTask:00000000000000b4 .L0 
C:\Users\stapi\AppData\Local\Temp\ccuIvOTG.s:785    .text.prvTimerTask:00000000000000b4 .L0 
C:\Users\stapi\AppData\Local\Temp\ccuIvOTG.s:795    .text.prvTimerTask:00000000000000ca .L0 
C:\Users\stapi\AppData\Local\Temp\ccuIvOTG.s:797    .text.prvTimerTask:00000000000000ca .L0 
C:\Users\stapi\AppData\Local\Temp\ccuIvOTG.s:798    .text.prvTimerTask:00000000000000ca .L0 
C:\Users\stapi\AppData\Local\Temp\ccuIvOTG.s:799    .text.prvTimerTask:00000000000000ca .L0 
C:\Users\stapi\AppData\Local\Temp\ccuIvOTG.s:813    .text.prvTimerTask:00000000000000d4 .L0 
C:\Users\stapi\AppData\Local\Temp\ccuIvOTG.s:814    .text.prvTimerTask:00000000000000d4 .L0 
C:\Users\stapi\AppData\Local\Temp\ccuIvOTG.s:821    .text.prvTimerTask:00000000000000e6 .L0 
C:\Users\stapi\AppData\Local\Temp\ccuIvOTG.s:823    .text.prvTimerTask:00000000000000e8 .L0 
C:\Users\stapi\AppData\Local\Temp\ccuIvOTG.s:824    .text.prvTimerTask:00000000000000e8 .L0 
C:\Users\stapi\AppData\Local\Temp\ccuIvOTG.s:827    .text.prvTimerTask:00000000000000ee .L0 
C:\Users\stapi\AppData\Local\Temp\ccuIvOTG.s:828    .text.prvTimerTask:00000000000000ee .L0 
C:\Users\stapi\AppData\Local\Temp\ccuIvOTG.s:831    .text.prvTimerTask:00000000000000f0 .L0 
C:\Users\stapi\AppData\Local\Temp\ccuIvOTG.s:832    .text.prvTimerTask:00000000000000f0 .L0 
C:\Users\stapi\AppData\Local\Temp\ccuIvOTG.s:835    .text.prvTimerTask:00000000000000f4 .L0 
C:\Users\stapi\AppData\Local\Temp\ccuIvOTG.s:836    .text.prvTimerTask:00000000000000f4 .L0 
C:\Users\stapi\AppData\Local\Temp\ccuIvOTG.s:841    .text.prvTimerTask:0000000000000100 .L0 
C:\Users\stapi\AppData\Local\Temp\ccuIvOTG.s:842    .text.prvTimerTask:0000000000000100 .L0 
C:\Users\stapi\AppData\Local\Temp\ccuIvOTG.s:843    .text.prvTimerTask:0000000000000100 .L0 
C:\Users\stapi\AppData\Local\Temp\ccuIvOTG.s:844    .text.prvTimerTask:0000000000000100 .L0 
C:\Users\stapi\AppData\Local\Temp\ccuIvOTG.s:852    .text.prvTimerTask:0000000000000110 .L0 
C:\Users\stapi\AppData\Local\Temp\ccuIvOTG.s:878    .text.prvTimerTask:000000000000011c .L0 
C:\Users\stapi\AppData\Local\Temp\ccuIvOTG.s:880    .text.prvTimerTask:000000000000011e .L0 
C:\Users\stapi\AppData\Local\Temp\ccuIvOTG.s:892    .text.prvTimerTask:0000000000000124 .L0 
C:\Users\stapi\AppData\Local\Temp\ccuIvOTG.s:893    .text.prvTimerTask:0000000000000124 .L0 
C:\Users\stapi\AppData\Local\Temp\ccuIvOTG.s:901    .text.prvTimerTask:000000000000012c .L0 
C:\Users\stapi\AppData\Local\Temp\ccuIvOTG.s:902    .text.prvTimerTask:000000000000012c .L0 
C:\Users\stapi\AppData\Local\Temp\ccuIvOTG.s:903    .text.prvTimerTask:000000000000012c .L0 
C:\Users\stapi\AppData\Local\Temp\ccuIvOTG.s:909    .text.prvTimerTask:0000000000000136 .L0 
C:\Users\stapi\AppData\Local\Temp\ccuIvOTG.s:920    .text.prvTimerTask:0000000000000150 .L0 
C:\Users\stapi\AppData\Local\Temp\ccuIvOTG.s:921    .text.prvTimerTask:0000000000000150 .L0 
C:\Users\stapi\AppData\Local\Temp\ccuIvOTG.s:924    .text.prvTimerTask:0000000000000158 .L0 
C:\Users\stapi\AppData\Local\Temp\ccuIvOTG.s:926    .text.prvTimerTask:000000000000015a .L0 
C:\Users\stapi\AppData\Local\Temp\ccuIvOTG.s:932    .text.prvTimerTask:0000000000000164 .L0 
C:\Users\stapi\AppData\Local\Temp\ccuIvOTG.s:933    .text.prvTimerTask:0000000000000164 .L0 
C:\Users\stapi\AppData\Local\Temp\ccuIvOTG.s:943    .text.prvTimerTask:000000000000016e .L0 
C:\Users\stapi\AppData\Local\Temp\ccuIvOTG.s:944    .text.prvTimerTask:000000000000016e .L0 
C:\Users\stapi\AppData\Local\Temp\ccuIvOTG.s:946    .text.prvTimerTask:0000000000000172 .L0 
C:\Users\stapi\AppData\Local\Temp\ccuIvOTG.s:950    .text.prvTimerTask:0000000000000176 .L0 
C:\Users\stapi\AppData\Local\Temp\ccuIvOTG.s:953    .text.prvTimerTask:000000000000017e .L0 
C:\Users\stapi\AppData\Local\Temp\ccuIvOTG.s:954    .text.prvTimerTask:000000000000017e .L0 
C:\Users\stapi\AppData\Local\Temp\ccuIvOTG.s:957    .text.prvTimerTask:0000000000000182 .L0 
C:\Users\stapi\AppData\Local\Temp\ccuIvOTG.s:966    .text.prvTimerTask:0000000000000196 .L0 
C:\Users\stapi\AppData\Local\Temp\ccuIvOTG.s:968    .text.prvTimerTask:0000000000000198 .L0 
C:\Users\stapi\AppData\Local\Temp\ccuIvOTG.s:973    .text.prvTimerTask:000000000000019e .L0 
C:\Users\stapi\AppData\Local\Temp\ccuIvOTG.s:974    .text.prvTimerTask:000000000000019e .L0 
C:\Users\stapi\AppData\Local\Temp\ccuIvOTG.s:975    .text.prvTimerTask:000000000000019e .L0 
C:\Users\stapi\AppData\Local\Temp\ccuIvOTG.s:979    .text.prvTimerTask:00000000000001a6 .L0 
C:\Users\stapi\AppData\Local\Temp\ccuIvOTG.s:980    .text.prvTimerTask:00000000000001a6 .L0 
C:\Users\stapi\AppData\Local\Temp\ccuIvOTG.s:996    .text.prvTimerTask:00000000000001ca .L0 
C:\Users\stapi\AppData\Local\Temp\ccuIvOTG.s:997    .text.prvTimerTask:00000000000001ca .L0 
C:\Users\stapi\AppData\Local\Temp\ccuIvOTG.s:1001   .text.prvTimerTask:00000000000001cc .L0 
C:\Users\stapi\AppData\Local\Temp\ccuIvOTG.s:1002   .text.prvTimerTask:00000000000001cc .L0 
C:\Users\stapi\AppData\Local\Temp\ccuIvOTG.s:1005   .text.prvTimerTask:00000000000001d0 .L0 
C:\Users\stapi\AppData\Local\Temp\ccuIvOTG.s:1006   .text.prvTimerTask:00000000000001d0 .L0 
C:\Users\stapi\AppData\Local\Temp\ccuIvOTG.s:1011   .text.prvTimerTask:00000000000001d8 .L0 
C:\Users\stapi\AppData\Local\Temp\ccuIvOTG.s:1012   .text.prvTimerTask:00000000000001d8 .L0 
C:\Users\stapi\AppData\Local\Temp\ccuIvOTG.s:1014   .text.prvTimerTask:00000000000001dc .L0 
C:\Users\stapi\AppData\Local\Temp\ccuIvOTG.s:1016   .text.prvTimerTask:00000000000001de .L0 
C:\Users\stapi\AppData\Local\Temp\ccuIvOTG.s:1019   .text.prvTimerTask:00000000000001e6 .L0 
C:\Users\stapi\AppData\Local\Temp\ccuIvOTG.s:1020   .text.prvTimerTask:00000000000001e6 .L0 
C:\Users\stapi\AppData\Local\Temp\ccuIvOTG.s:1024   .text.prvTimerTask:00000000000001ea .L0 
C:\Users\stapi\AppData\Local\Temp\ccuIvOTG.s:1027   .text.prvTimerTask:00000000000001ee .L0 
C:\Users\stapi\AppData\Local\Temp\ccuIvOTG.s:1029   .text.prvTimerTask:00000000000001f0 .L0 
C:\Users\stapi\AppData\Local\Temp\ccuIvOTG.s:1030   .text.prvTimerTask:00000000000001f0 .L0 
C:\Users\stapi\AppData\Local\Temp\ccuIvOTG.s:1031   .text.prvTimerTask:00000000000001f0 .L0 
C:\Users\stapi\AppData\Local\Temp\ccuIvOTG.s:1034   .text.prvTimerTask:00000000000001f6 .L0 
C:\Users\stapi\AppData\Local\Temp\ccuIvOTG.s:1036   .text.prvTimerTask:00000000000001f8 .L0 
C:\Users\stapi\AppData\Local\Temp\ccuIvOTG.s:1042   .text.prvTimerTask:0000000000000206 .L0 
C:\Users\stapi\AppData\Local\Temp\ccuIvOTG.s:1046   .text.prvTimerTask:0000000000000208 .L0 
C:\Users\stapi\AppData\Local\Temp\ccuIvOTG.s:1047   .text.prvTimerTask:0000000000000208 .L0 
C:\Users\stapi\AppData\Local\Temp\ccuIvOTG.s:1049   .text.prvTimerTask:000000000000020c .L0 
C:\Users\stapi\AppData\Local\Temp\ccuIvOTG.s:1052   .text.prvTimerTask:0000000000000212 .L0 
C:\Users\stapi\AppData\Local\Temp\ccuIvOTG.s:1059   .text.prvTimerTask:000000000000021e .L0 
C:\Users\stapi\AppData\Local\Temp\ccuIvOTG.s:1066   .text.xTimerGetTimerDaemonTaskHandle:0000000000000000 xTimerGetTimerDaemonTaskHandle
C:\Users\stapi\AppData\Local\Temp\ccuIvOTG.s:1069   .text.xTimerGetTimerDaemonTaskHandle:0000000000000000 .L0 
C:\Users\stapi\AppData\Local\Temp\ccuIvOTG.s:1070   .text.xTimerGetTimerDaemonTaskHandle:0000000000000000 .L0 
C:\Users\stapi\AppData\Local\Temp\ccuIvOTG.s:1071   .text.xTimerGetTimerDaemonTaskHandle:0000000000000000 .L0 
C:\Users\stapi\AppData\Local\Temp\ccuIvOTG.s:1072   .text.xTimerGetTimerDaemonTaskHandle:0000000000000000 .L0 
C:\Users\stapi\AppData\Local\Temp\ccuIvOTG.s:1073   .text.xTimerGetTimerDaemonTaskHandle:0000000000000000 .L0 
C:\Users\stapi\AppData\Local\Temp\ccuIvOTG.s:1076   .text.xTimerGetTimerDaemonTaskHandle:000000000000000a .L0 
C:\Users\stapi\AppData\Local\Temp\ccuIvOTG.s:1083   .text.xTimerGetPeriod:0000000000000000 xTimerGetPeriod
C:\Users\stapi\AppData\Local\Temp\ccuIvOTG.s:1086   .text.xTimerGetPeriod:0000000000000000 .L0 
C:\Users\stapi\AppData\Local\Temp\ccuIvOTG.s:1088   .text.xTimerGetPeriod:0000000000000000 .L0 
C:\Users\stapi\AppData\Local\Temp\ccuIvOTG.s:1089   .text.xTimerGetPeriod:0000000000000000 .L0 
C:\Users\stapi\AppData\Local\Temp\ccuIvOTG.s:1090   .text.xTimerGetPeriod:0000000000000000 .L0 
C:\Users\stapi\AppData\Local\Temp\ccuIvOTG.s:1091   .text.xTimerGetPeriod:0000000000000000 .L0 
C:\Users\stapi\AppData\Local\Temp\ccuIvOTG.s:1092   .text.xTimerGetPeriod:0000000000000000 .L0 
C:\Users\stapi\AppData\Local\Temp\ccuIvOTG.s:1096   .text.xTimerGetPeriod:0000000000000006 .L0 
C:\Users\stapi\AppData\Local\Temp\ccuIvOTG.s:1103   .text.vTimerSetReloadMode:0000000000000000 vTimerSetReloadMode
C:\Users\stapi\AppData\Local\Temp\ccuIvOTG.s:1106   .text.vTimerSetReloadMode:0000000000000000 .L0 
C:\Users\stapi\AppData\Local\Temp\ccuIvOTG.s:1108   .text.vTimerSetReloadMode:0000000000000000 .L0 
C:\Users\stapi\AppData\Local\Temp\ccuIvOTG.s:1109   .text.vTimerSetReloadMode:0000000000000008 .L0 
C:\Users\stapi\AppData\Local\Temp\ccuIvOTG.s:1110   .text.vTimerSetReloadMode:0000000000000008 .L0 
C:\Users\stapi\AppData\Local\Temp\ccuIvOTG.s:1111   .text.vTimerSetReloadMode:0000000000000008 .L0 
C:\Users\stapi\AppData\Local\Temp\ccuIvOTG.s:1112   .text.vTimerSetReloadMode:0000000000000008 .L0 
C:\Users\stapi\AppData\Local\Temp\ccuIvOTG.s:1114   .text.vTimerSetReloadMode:0000000000000008 .L0 
C:\Users\stapi\AppData\Local\Temp\ccuIvOTG.s:1115   .text.vTimerSetReloadMode:0000000000000008 .L0 
C:\Users\stapi\AppData\Local\Temp\ccuIvOTG.s:1118   .text.vTimerSetReloadMode:000000000000000a .L0 
C:\Users\stapi\AppData\Local\Temp\ccuIvOTG.s:1119   .text.vTimerSetReloadMode:000000000000000a .L0 
C:\Users\stapi\AppData\Local\Temp\ccuIvOTG.s:1120   .text.vTimerSetReloadMode:000000000000000a .L0 
C:\Users\stapi\AppData\Local\Temp\ccuIvOTG.s:1122   .text.vTimerSetReloadMode:000000000000000c .L0 
C:\Users\stapi\AppData\Local\Temp\ccuIvOTG.s:1125   .text.vTimerSetReloadMode:0000000000000014 .L0 
C:\Users\stapi\AppData\Local\Temp\ccuIvOTG.s:1128   .text.vTimerSetReloadMode:000000000000001c .L0 
C:\Users\stapi\AppData\Local\Temp\ccuIvOTG.s:1130   .text.vTimerSetReloadMode:000000000000001e .L0 
C:\Users\stapi\AppData\Local\Temp\ccuIvOTG.s:1131   .text.vTimerSetReloadMode:000000000000001e .L0 
C:\Users\stapi\AppData\Local\Temp\ccuIvOTG.s:1136   .text.vTimerSetReloadMode:000000000000002a .L0 
C:\Users\stapi\AppData\Local\Temp\ccuIvOTG.s:1139   .text.vTimerSetReloadMode:0000000000000032 .L0 
C:\Users\stapi\AppData\Local\Temp\ccuIvOTG.s:1140   .text.vTimerSetReloadMode:000000000000003a .L0 
C:\Users\stapi\AppData\Local\Temp\ccuIvOTG.s:1141   .text.vTimerSetReloadMode:000000000000003a .L0 
C:\Users\stapi\AppData\Local\Temp\ccuIvOTG.s:1142   .text.vTimerSetReloadMode:000000000000003a .L0 
C:\Users\stapi\AppData\Local\Temp\ccuIvOTG.s:1143   .text.vTimerSetReloadMode:000000000000003a .L0 
C:\Users\stapi\AppData\Local\Temp\ccuIvOTG.s:1144   .text.vTimerSetReloadMode:000000000000003a .L0 
C:\Users\stapi\AppData\Local\Temp\ccuIvOTG.s:1151   .text.uxTimerGetReloadMode:0000000000000000 uxTimerGetReloadMode
C:\Users\stapi\AppData\Local\Temp\ccuIvOTG.s:1154   .text.uxTimerGetReloadMode:0000000000000000 .L0 
C:\Users\stapi\AppData\Local\Temp\ccuIvOTG.s:1156   .text.uxTimerGetReloadMode:0000000000000000 .L0 
C:\Users\stapi\AppData\Local\Temp\ccuIvOTG.s:1157   .text.uxTimerGetReloadMode:0000000000000008 .L0 
C:\Users\stapi\AppData\Local\Temp\ccuIvOTG.s:1158   .text.uxTimerGetReloadMode:0000000000000008 .L0 
C:\Users\stapi\AppData\Local\Temp\ccuIvOTG.s:1159   .text.uxTimerGetReloadMode:0000000000000008 .L0 
C:\Users\stapi\AppData\Local\Temp\ccuIvOTG.s:1161   .text.uxTimerGetReloadMode:0000000000000008 .L0 
C:\Users\stapi\AppData\Local\Temp\ccuIvOTG.s:1162   .text.uxTimerGetReloadMode:0000000000000008 .L0 
C:\Users\stapi\AppData\Local\Temp\ccuIvOTG.s:1163   .text.uxTimerGetReloadMode:000000000000000a .L0 
C:\Users\stapi\AppData\Local\Temp\ccuIvOTG.s:1165   .text.uxTimerGetReloadMode:000000000000000a .L0 
C:\Users\stapi\AppData\Local\Temp\ccuIvOTG.s:1168   .text.uxTimerGetReloadMode:000000000000000c .L0 
C:\Users\stapi\AppData\Local\Temp\ccuIvOTG.s:1169   .text.uxTimerGetReloadMode:000000000000000c .L0 
C:\Users\stapi\AppData\Local\Temp\ccuIvOTG.s:1170   .text.uxTimerGetReloadMode:000000000000000c .L0 
C:\Users\stapi\AppData\Local\Temp\ccuIvOTG.s:1173   .text.uxTimerGetReloadMode:0000000000000014 .L0 
C:\Users\stapi\AppData\Local\Temp\ccuIvOTG.s:1174   .text.uxTimerGetReloadMode:0000000000000014 .L0 
C:\Users\stapi\AppData\Local\Temp\ccuIvOTG.s:1179   .text.uxTimerGetReloadMode:000000000000001e .L0 
C:\Users\stapi\AppData\Local\Temp\ccuIvOTG.s:1182   .text.uxTimerGetReloadMode:0000000000000026 .L0 
C:\Users\stapi\AppData\Local\Temp\ccuIvOTG.s:1183   .text.uxTimerGetReloadMode:0000000000000026 .L0 
C:\Users\stapi\AppData\Local\Temp\ccuIvOTG.s:1185   .text.uxTimerGetReloadMode:000000000000002a .L0 
C:\Users\stapi\AppData\Local\Temp\ccuIvOTG.s:1188   .text.uxTimerGetReloadMode:0000000000000032 .L0 
C:\Users\stapi\AppData\Local\Temp\ccuIvOTG.s:1189   .text.uxTimerGetReloadMode:0000000000000032 .L0 
C:\Users\stapi\AppData\Local\Temp\ccuIvOTG.s:1190   .text.uxTimerGetReloadMode:0000000000000032 .L0 
C:\Users\stapi\AppData\Local\Temp\ccuIvOTG.s:1191   .text.uxTimerGetReloadMode:0000000000000032 .L0 
C:\Users\stapi\AppData\Local\Temp\ccuIvOTG.s:1198   .text.xTimerGetExpiryTime:0000000000000000 xTimerGetExpiryTime
C:\Users\stapi\AppData\Local\Temp\ccuIvOTG.s:1201   .text.xTimerGetExpiryTime:0000000000000000 .L0 
C:\Users\stapi\AppData\Local\Temp\ccuIvOTG.s:1203   .text.xTimerGetExpiryTime:0000000000000000 .L0 
C:\Users\stapi\AppData\Local\Temp\ccuIvOTG.s:1204   .text.xTimerGetExpiryTime:0000000000000000 .L0 
C:\Users\stapi\AppData\Local\Temp\ccuIvOTG.s:1205   .text.xTimerGetExpiryTime:0000000000000000 .L0 
C:\Users\stapi\AppData\Local\Temp\ccuIvOTG.s:1206   .text.xTimerGetExpiryTime:0000000000000000 .L0 
C:\Users\stapi\AppData\Local\Temp\ccuIvOTG.s:1207   .text.xTimerGetExpiryTime:0000000000000000 .L0 
C:\Users\stapi\AppData\Local\Temp\ccuIvOTG.s:1208   .text.xTimerGetExpiryTime:0000000000000000 .L0 
C:\Users\stapi\AppData\Local\Temp\ccuIvOTG.s:1209   .text.xTimerGetExpiryTime:0000000000000000 .L0 
C:\Users\stapi\AppData\Local\Temp\ccuIvOTG.s:1213   .text.xTimerGetExpiryTime:0000000000000006 .L0 
C:\Users\stapi\AppData\Local\Temp\ccuIvOTG.s:1220   .text.pcTimerGetName:0000000000000000 pcTimerGetName
C:\Users\stapi\AppData\Local\Temp\ccuIvOTG.s:1223   .text.pcTimerGetName:0000000000000000 .L0 
C:\Users\stapi\AppData\Local\Temp\ccuIvOTG.s:1225   .text.pcTimerGetName:0000000000000000 .L0 
C:\Users\stapi\AppData\Local\Temp\ccuIvOTG.s:1226   .text.pcTimerGetName:0000000000000000 .L0 
C:\Users\stapi\AppData\Local\Temp\ccuIvOTG.s:1227   .text.pcTimerGetName:0000000000000000 .L0 
C:\Users\stapi\AppData\Local\Temp\ccuIvOTG.s:1228   .text.pcTimerGetName:0000000000000000 .L0 
C:\Users\stapi\AppData\Local\Temp\ccuIvOTG.s:1229   .text.pcTimerGetName:0000000000000000 .L0 
C:\Users\stapi\AppData\Local\Temp\ccuIvOTG.s:1232   .text.pcTimerGetName:0000000000000004 .L0 
C:\Users\stapi\AppData\Local\Temp\ccuIvOTG.s:1239   .text.xTimerIsTimerActive:0000000000000000 xTimerIsTimerActive
C:\Users\stapi\AppData\Local\Temp\ccuIvOTG.s:1242   .text.xTimerIsTimerActive:0000000000000000 .L0 
C:\Users\stapi\AppData\Local\Temp\ccuIvOTG.s:1244   .text.xTimerIsTimerActive:0000000000000000 .L0 
C:\Users\stapi\AppData\Local\Temp\ccuIvOTG.s:1245   .text.xTimerIsTimerActive:0000000000000008 .L0 
C:\Users\stapi\AppData\Local\Temp\ccuIvOTG.s:1246   .text.xTimerIsTimerActive:0000000000000008 .L0 
C:\Users\stapi\AppData\Local\Temp\ccuIvOTG.s:1247   .text.xTimerIsTimerActive:0000000000000008 .L0 
C:\Users\stapi\AppData\Local\Temp\ccuIvOTG.s:1249   .text.xTimerIsTimerActive:0000000000000008 .L0 
C:\Users\stapi\AppData\Local\Temp\ccuIvOTG.s:1250   .text.xTimerIsTimerActive:0000000000000008 .L0 
C:\Users\stapi\AppData\Local\Temp\ccuIvOTG.s:1251   .text.xTimerIsTimerActive:0000000000000008 .L0 
C:\Users\stapi\AppData\Local\Temp\ccuIvOTG.s:1252   .text.xTimerIsTimerActive:000000000000000a .L0 
C:\Users\stapi\AppData\Local\Temp\ccuIvOTG.s:1254   .text.xTimerIsTimerActive:000000000000000a .L0 
C:\Users\stapi\AppData\Local\Temp\ccuIvOTG.s:1257   .text.xTimerIsTimerActive:000000000000000c .L0 
C:\Users\stapi\AppData\Local\Temp\ccuIvOTG.s:1258   .text.xTimerIsTimerActive:000000000000000c .L0 
C:\Users\stapi\AppData\Local\Temp\ccuIvOTG.s:1261   .text.xTimerIsTimerActive:0000000000000014 .L0 
C:\Users\stapi\AppData\Local\Temp\ccuIvOTG.s:1262   .text.xTimerIsTimerActive:0000000000000014 .L0 
C:\Users\stapi\AppData\Local\Temp\ccuIvOTG.s:1267   .text.xTimerIsTimerActive:000000000000001c .L0 
C:\Users\stapi\AppData\Local\Temp\ccuIvOTG.s:1270   .text.xTimerIsTimerActive:0000000000000024 .L0 
C:\Users\stapi\AppData\Local\Temp\ccuIvOTG.s:1271   .text.xTimerIsTimerActive:0000000000000024 .L0 
C:\Users\stapi\AppData\Local\Temp\ccuIvOTG.s:1273   .text.xTimerIsTimerActive:0000000000000028 .L0 
C:\Users\stapi\AppData\Local\Temp\ccuIvOTG.s:1276   .text.xTimerIsTimerActive:0000000000000030 .L0 
C:\Users\stapi\AppData\Local\Temp\ccuIvOTG.s:1277   .text.xTimerIsTimerActive:0000000000000030 .L0 
C:\Users\stapi\AppData\Local\Temp\ccuIvOTG.s:1278   .text.xTimerIsTimerActive:0000000000000030 .L0 
C:\Users\stapi\AppData\Local\Temp\ccuIvOTG.s:1279   .text.xTimerIsTimerActive:0000000000000030 .L0 
C:\Users\stapi\AppData\Local\Temp\ccuIvOTG.s:1286   .text.pvTimerGetTimerID:0000000000000000 pvTimerGetTimerID
C:\Users\stapi\AppData\Local\Temp\ccuIvOTG.s:1289   .text.pvTimerGetTimerID:0000000000000000 .L0 
C:\Users\stapi\AppData\Local\Temp\ccuIvOTG.s:1291   .text.pvTimerGetTimerID:0000000000000000 .L0 
C:\Users\stapi\AppData\Local\Temp\ccuIvOTG.s:1292   .text.pvTimerGetTimerID:0000000000000008 .L0 
C:\Users\stapi\AppData\Local\Temp\ccuIvOTG.s:1293   .text.pvTimerGetTimerID:0000000000000008 .L0 
C:\Users\stapi\AppData\Local\Temp\ccuIvOTG.s:1294   .text.pvTimerGetTimerID:0000000000000008 .L0 
C:\Users\stapi\AppData\Local\Temp\ccuIvOTG.s:1296   .text.pvTimerGetTimerID:0000000000000008 .L0 
C:\Users\stapi\AppData\Local\Temp\ccuIvOTG.s:1297   .text.pvTimerGetTimerID:0000000000000008 .L0 
C:\Users\stapi\AppData\Local\Temp\ccuIvOTG.s:1298   .text.pvTimerGetTimerID:000000000000000a .L0 
C:\Users\stapi\AppData\Local\Temp\ccuIvOTG.s:1300   .text.pvTimerGetTimerID:000000000000000a .L0 
C:\Users\stapi\AppData\Local\Temp\ccuIvOTG.s:1303   .text.pvTimerGetTimerID:000000000000000c .L0 
C:\Users\stapi\AppData\Local\Temp\ccuIvOTG.s:1304   .text.pvTimerGetTimerID:000000000000000c .L0 
C:\Users\stapi\AppData\Local\Temp\ccuIvOTG.s:1305   .text.pvTimerGetTimerID:000000000000000c .L0 
C:\Users\stapi\AppData\Local\Temp\ccuIvOTG.s:1308   .text.pvTimerGetTimerID:0000000000000014 .L0 
C:\Users\stapi\AppData\Local\Temp\ccuIvOTG.s:1309   .text.pvTimerGetTimerID:0000000000000014 .L0 
C:\Users\stapi\AppData\Local\Temp\ccuIvOTG.s:1313   .text.pvTimerGetTimerID:0000000000000018 .L0 
C:\Users\stapi\AppData\Local\Temp\ccuIvOTG.s:1316   .text.pvTimerGetTimerID:0000000000000020 .L0 
C:\Users\stapi\AppData\Local\Temp\ccuIvOTG.s:1317   .text.pvTimerGetTimerID:0000000000000020 .L0 
C:\Users\stapi\AppData\Local\Temp\ccuIvOTG.s:1319   .text.pvTimerGetTimerID:0000000000000024 .L0 
C:\Users\stapi\AppData\Local\Temp\ccuIvOTG.s:1322   .text.pvTimerGetTimerID:000000000000002c .L0 
C:\Users\stapi\AppData\Local\Temp\ccuIvOTG.s:1323   .text.pvTimerGetTimerID:000000000000002c .L0 
C:\Users\stapi\AppData\Local\Temp\ccuIvOTG.s:1324   .text.pvTimerGetTimerID:000000000000002c .L0 
C:\Users\stapi\AppData\Local\Temp\ccuIvOTG.s:1325   .text.pvTimerGetTimerID:000000000000002c .L0 
C:\Users\stapi\AppData\Local\Temp\ccuIvOTG.s:1332   .text.vTimerSetTimerID:0000000000000000 vTimerSetTimerID
C:\Users\stapi\AppData\Local\Temp\ccuIvOTG.s:1335   .text.vTimerSetTimerID:0000000000000000 .L0 
C:\Users\stapi\AppData\Local\Temp\ccuIvOTG.s:1337   .text.vTimerSetTimerID:0000000000000000 .L0 
C:\Users\stapi\AppData\Local\Temp\ccuIvOTG.s:1338   .text.vTimerSetTimerID:0000000000000008 .L0 
C:\Users\stapi\AppData\Local\Temp\ccuIvOTG.s:1339   .text.vTimerSetTimerID:0000000000000008 .L0 
C:\Users\stapi\AppData\Local\Temp\ccuIvOTG.s:1340   .text.vTimerSetTimerID:0000000000000008 .L0 
C:\Users\stapi\AppData\Local\Temp\ccuIvOTG.s:1341   .text.vTimerSetTimerID:0000000000000008 .L0 
C:\Users\stapi\AppData\Local\Temp\ccuIvOTG.s:1343   .text.vTimerSetTimerID:0000000000000008 .L0 
C:\Users\stapi\AppData\Local\Temp\ccuIvOTG.s:1344   .text.vTimerSetTimerID:0000000000000008 .L0 
C:\Users\stapi\AppData\Local\Temp\ccuIvOTG.s:1347   .text.vTimerSetTimerID:000000000000000a .L0 
C:\Users\stapi\AppData\Local\Temp\ccuIvOTG.s:1348   .text.vTimerSetTimerID:000000000000000a .L0 
C:\Users\stapi\AppData\Local\Temp\ccuIvOTG.s:1349   .text.vTimerSetTimerID:000000000000000a .L0 
C:\Users\stapi\AppData\Local\Temp\ccuIvOTG.s:1351   .text.vTimerSetTimerID:000000000000000c .L0 
C:\Users\stapi\AppData\Local\Temp\ccuIvOTG.s:1354   .text.vTimerSetTimerID:0000000000000014 .L0 
C:\Users\stapi\AppData\Local\Temp\ccuIvOTG.s:1355   .text.vTimerSetTimerID:0000000000000014 .L0 
C:\Users\stapi\AppData\Local\Temp\ccuIvOTG.s:1357   .text.vTimerSetTimerID:0000000000000016 .L0 
C:\Users\stapi\AppData\Local\Temp\ccuIvOTG.s:1360   .text.vTimerSetTimerID:000000000000001e .L0 
C:\Users\stapi\AppData\Local\Temp\ccuIvOTG.s:1361   .text.vTimerSetTimerID:0000000000000026 .L0 
C:\Users\stapi\AppData\Local\Temp\ccuIvOTG.s:1362   .text.vTimerSetTimerID:0000000000000026 .L0 
C:\Users\stapi\AppData\Local\Temp\ccuIvOTG.s:1363   .text.vTimerSetTimerID:0000000000000026 .L0 
C:\Users\stapi\AppData\Local\Temp\ccuIvOTG.s:1364   .text.vTimerSetTimerID:0000000000000026 .L0 
C:\Users\stapi\AppData\Local\Temp\ccuIvOTG.s:1365   .text.vTimerSetTimerID:0000000000000026 .L0 
C:\Users\stapi\AppData\Local\Temp\ccuIvOTG.s:1372   .text.uxTimerGetTimerNumber:0000000000000000 uxTimerGetTimerNumber
C:\Users\stapi\AppData\Local\Temp\ccuIvOTG.s:1375   .text.uxTimerGetTimerNumber:0000000000000000 .L0 
C:\Users\stapi\AppData\Local\Temp\ccuIvOTG.s:1377   .text.uxTimerGetTimerNumber:0000000000000000 .L0 
C:\Users\stapi\AppData\Local\Temp\ccuIvOTG.s:1378   .text.uxTimerGetTimerNumber:0000000000000000 .L0 
C:\Users\stapi\AppData\Local\Temp\ccuIvOTG.s:1379   .text.uxTimerGetTimerNumber:0000000000000000 .L0 
C:\Users\stapi\AppData\Local\Temp\ccuIvOTG.s:1382   .text.uxTimerGetTimerNumber:0000000000000004 .L0 
C:\Users\stapi\AppData\Local\Temp\ccuIvOTG.s:1389   .text.vTimerSetTimerNumber:0000000000000000 vTimerSetTimerNumber
C:\Users\stapi\AppData\Local\Temp\ccuIvOTG.s:1392   .text.vTimerSetTimerNumber:0000000000000000 .L0 
C:\Users\stapi\AppData\Local\Temp\ccuIvOTG.s:1394   .text.vTimerSetTimerNumber:0000000000000000 .L0 
C:\Users\stapi\AppData\Local\Temp\ccuIvOTG.s:1395   .text.vTimerSetTimerNumber:0000000000000000 .L0 
C:\Users\stapi\AppData\Local\Temp\ccuIvOTG.s:1396   .text.vTimerSetTimerNumber:0000000000000000 .L0 
C:\Users\stapi\AppData\Local\Temp\ccuIvOTG.s:1398   .text.vTimerSetTimerNumber:0000000000000002 .L0 
C:\Users\stapi\AppData\Local\Temp\ccuIvOTG.s:1399   .text.vTimerSetTimerNumber:0000000000000004 .L0 
C:\Users\stapi\AppData\Local\Temp\ccuIvOTG.s:1404   .bss.xActiveTimerList1:0000000000000000 .LANCHOR1
C:\Users\stapi\AppData\Local\Temp\ccuIvOTG.s:1407   .bss.xActiveTimerList1:0000000000000000 xActiveTimerList1
C:\Users\stapi\AppData\Local\Temp\ccuIvOTG.s:1411   .bss.xActiveTimerList2:0000000000000000 .LANCHOR2
C:\Users\stapi\AppData\Local\Temp\ccuIvOTG.s:1414   .bss.xActiveTimerList2:0000000000000000 xActiveTimerList2
C:\Users\stapi\AppData\Local\Temp\ccuIvOTG.s:1418   .sbss.pxCurrentTimerList:0000000000000000 .LANCHOR3
C:\Users\stapi\AppData\Local\Temp\ccuIvOTG.s:1421   .sbss.pxCurrentTimerList:0000000000000000 pxCurrentTimerList
C:\Users\stapi\AppData\Local\Temp\ccuIvOTG.s:1425   .sbss.pxOverflowTimerList:0000000000000000 .LANCHOR4
C:\Users\stapi\AppData\Local\Temp\ccuIvOTG.s:1428   .sbss.pxOverflowTimerList:0000000000000000 pxOverflowTimerList
C:\Users\stapi\AppData\Local\Temp\ccuIvOTG.s:1432   .sbss.xLastTime.0:0000000000000000 .LANCHOR6
C:\Users\stapi\AppData\Local\Temp\ccuIvOTG.s:1435   .sbss.xLastTime.0:0000000000000000 xLastTime.0
C:\Users\stapi\AppData\Local\Temp\ccuIvOTG.s:1439   .sbss.xTimerQueue:0000000000000000 .LANCHOR0
C:\Users\stapi\AppData\Local\Temp\ccuIvOTG.s:1442   .sbss.xTimerQueue:0000000000000000 xTimerQueue
C:\Users\stapi\AppData\Local\Temp\ccuIvOTG.s:1446   .sbss.xTimerTaskHandle:0000000000000000 .LANCHOR5
C:\Users\stapi\AppData\Local\Temp\ccuIvOTG.s:1449   .sbss.xTimerTaskHandle:0000000000000000 xTimerTaskHandle
C:\Users\stapi\AppData\Local\Temp\ccuIvOTG.s:82     .text.prvCheckForValidListAndQueue:0000000000000074 .L0 
C:\Users\stapi\AppData\Local\Temp\ccuIvOTG.s:178    .text.prvInsertTimerInActiveList:0000000000000080 .L0 
C:\Users\stapi\AppData\Local\Temp\ccuIvOTG.s:225    .text.xTimerCreateTimerTask:000000000000004c .L0 
C:\Users\stapi\AppData\Local\Temp\ccuIvOTG.s:323    .text.xTimerCreate:0000000000000068 .L0 
C:\Users\stapi\AppData\Local\Temp\ccuIvOTG.s:435    .text.xTimerGenericCommand:0000000000000072 .L0 
C:\Users\stapi\AppData\Local\Temp\ccuIvOTG.s:635    .text.prvSampleTimeNow:00000000000000ea .L0 
C:\Users\stapi\AppData\Local\Temp\ccuIvOTG.s:1062   .text.prvTimerTask:000000000000021e .L0 
C:\Users\stapi\AppData\Local\Temp\ccuIvOTG.s:1079   .text.xTimerGetTimerDaemonTaskHandle:000000000000000a .L0 
C:\Users\stapi\AppData\Local\Temp\ccuIvOTG.s:1099   .text.xTimerGetPeriod:0000000000000006 .L0 
C:\Users\stapi\AppData\Local\Temp\ccuIvOTG.s:1147   .text.vTimerSetReloadMode:000000000000003a .L0 
C:\Users\stapi\AppData\Local\Temp\ccuIvOTG.s:1194   .text.uxTimerGetReloadMode:0000000000000032 .L0 
C:\Users\stapi\AppData\Local\Temp\ccuIvOTG.s:1216   .text.xTimerGetExpiryTime:0000000000000006 .L0 
C:\Users\stapi\AppData\Local\Temp\ccuIvOTG.s:1235   .text.pcTimerGetName:0000000000000004 .L0 
C:\Users\stapi\AppData\Local\Temp\ccuIvOTG.s:1282   .text.xTimerIsTimerActive:0000000000000030 .L0 
C:\Users\stapi\AppData\Local\Temp\ccuIvOTG.s:1328   .text.pvTimerGetTimerID:000000000000002c .L0 
C:\Users\stapi\AppData\Local\Temp\ccuIvOTG.s:1368   .text.vTimerSetTimerID:0000000000000026 .L0 
C:\Users\stapi\AppData\Local\Temp\ccuIvOTG.s:1385   .text.uxTimerGetTimerNumber:0000000000000004 .L0 
C:\Users\stapi\AppData\Local\Temp\ccuIvOTG.s:1402   .text.vTimerSetTimerNumber:0000000000000004 .L0 
                     .debug_frame:0000000000000000 .L0 
C:\Users\stapi\AppData\Local\Temp\ccuIvOTG.s:67     .text.prvCheckForValidListAndQueue:0000000000000064 .L2
C:\Users\stapi\AppData\Local\Temp\ccuIvOTG.s:146    .text.prvInsertTimerInActiveList:0000000000000056 .L5
C:\Users\stapi\AppData\Local\Temp\ccuIvOTG.s:105    .text.prvInsertTimerInActiveList:000000000000001a .L14
C:\Users\stapi\AppData\Local\Temp\ccuIvOTG.s:120    .text.prvInsertTimerInActiveList:0000000000000038 .L15
C:\Users\stapi\AppData\Local\Temp\ccuIvOTG.s:168    .text.prvInsertTimerInActiveList:000000000000007c .L13
C:\Users\stapi\AppData\Local\Temp\ccuIvOTG.s:153    .text.prvInsertTimerInActiveList:0000000000000062 .L16
C:\Users\stapi\AppData\Local\Temp\ccuIvOTG.s:158    .text.prvInsertTimerInActiveList:000000000000006e .L9
C:\Users\stapi\AppData\Local\Temp\ccuIvOTG.s:130    .text.prvInsertTimerInActiveList:0000000000000044 .L18
C:\Users\stapi\AppData\Local\Temp\ccuIvOTG.s:139    .text.prvInsertTimerInActiveList:000000000000004e .L4
C:\Users\stapi\AppData\Local\Temp\ccuIvOTG.s:180    .rodata.xTimerCreateTimerTask.str1.4:0000000000000000 .LC0
C:\Users\stapi\AppData\Local\Temp\ccuIvOTG.s:217    .text.xTimerCreateTimerTask:0000000000000044 .L19
C:\Users\stapi\AppData\Local\Temp\ccuIvOTG.s:307    .text.xTimerCreate:000000000000005e .L25
C:\Users\stapi\AppData\Local\Temp\ccuIvOTG.s:425    .text.xTimerGenericCommand:000000000000006e .L37
C:\Users\stapi\AppData\Local\Temp\ccuIvOTG.s:413    .text.xTimerGenericCommand:000000000000005e .L35
C:\Users\stapi\AppData\Local\Temp\ccuIvOTG.s:404    .text.xTimerGenericCommand:0000000000000056 .L36
C:\Users\stapi\AppData\Local\Temp\ccuIvOTG.s:387    .text.xTimerGenericCommand:0000000000000042 .L39
C:\Users\stapi\AppData\Local\Temp\ccuIvOTG.s:392    .text.xTimerGenericCommand:000000000000004c .L33
C:\Users\stapi\AppData\Local\Temp\ccuIvOTG.s:481    .text.prvSampleTimeNow:0000000000000036 .L41
C:\Users\stapi\AppData\Local\Temp\ccuIvOTG.s:625    .text.prvSampleTimeNow:00000000000000e4 .L43
C:\Users\stapi\AppData\Local\Temp\ccuIvOTG.s:550    .text.prvSampleTimeNow:0000000000000098 .L44
C:\Users\stapi\AppData\Local\Temp\ccuIvOTG.s:538    .text.prvSampleTimeNow:0000000000000086 .L50
C:\Users\stapi\AppData\Local\Temp\ccuIvOTG.s:607    .text.prvSampleTimeNow:00000000000000d0 .L45
C:\Users\stapi\AppData\Local\Temp\ccuIvOTG.s:488    .text.prvSampleTimeNow:000000000000003c .L48
C:\Users\stapi\AppData\Local\Temp\ccuIvOTG.s:584    .text.prvSampleTimeNow:00000000000000ba .L49
C:\Users\stapi\AppData\Local\Temp\ccuIvOTG.s:859    .rodata.prvTimerTask:0000000000000000 .L68
C:\Users\stapi\AppData\Local\Temp\ccuIvOTG.s:872    .text.prvTimerTask:000000000000011c .L78
C:\Users\stapi\AppData\Local\Temp\ccuIvOTG.s:930    .text.prvTimerTask:0000000000000164 .L56
C:\Users\stapi\AppData\Local\Temp\ccuIvOTG.s:897    .text.prvTimerTask:000000000000012c .L57
C:\Users\stapi\AppData\Local\Temp\ccuIvOTG.s:906    .text.prvTimerTask:0000000000000136 .L58
C:\Users\stapi\AppData\Local\Temp\ccuIvOTG.s:736    .text.prvTimerTask:0000000000000064 .L79
C:\Users\stapi\AppData\Local\Temp\ccuIvOTG.s:884    .text.prvTimerTask:0000000000000124 .L60
C:\Users\stapi\AppData\Local\Temp\ccuIvOTG.s:796    .text.prvTimerTask:00000000000000ca .L61
C:\Users\stapi\AppData\Local\Temp\ccuIvOTG.s:671    .text.prvTimerTask:000000000000001e .L77
C:\Users\stapi\AppData\Local\Temp\ccuIvOTG.s:805    .text.prvTimerTask:00000000000000d4 .L64
C:\Users\stapi\AppData\Local\Temp\ccuIvOTG.s:839    .text.prvTimerTask:0000000000000100 .L65
C:\Users\stapi\AppData\Local\Temp\ccuIvOTG.s:699    .text.prvTimerTask:0000000000000032 .L55
C:\Users\stapi\AppData\Local\Temp\ccuIvOTG.s:803    .text.prvTimerTask:00000000000000d2 .L62
C:\Users\stapi\AppData\Local\Temp\ccuIvOTG.s:1003   .text.prvTimerTask:00000000000001d0 .L75
C:\Users\stapi\AppData\Local\Temp\ccuIvOTG.s:937    .text.prvTimerTask:000000000000016e .L70
C:\Users\stapi\AppData\Local\Temp\ccuIvOTG.s:999    .text.prvTimerTask:00000000000001cc .L69
C:\Users\stapi\AppData\Local\Temp\ccuIvOTG.s:1009   .text.prvTimerTask:00000000000001d8 .L67
C:\Users\stapi\AppData\Local\Temp\ccuIvOTG.s:1044   .text.prvTimerTask:0000000000000208 .L71
C:\Users\stapi\AppData\Local\Temp\ccuIvOTG.s:1133   .text.vTimerSetReloadMode:0000000000000026 .L96
C:\Users\stapi\AppData\Local\Temp\ccuIvOTG.s:3437   .debug_abbrev:0000000000000000 .Ldebug_abbrev0
C:\Users\stapi\AppData\Local\Temp\ccuIvOTG.s:5812   .debug_str:00000000000008a2 .LASF127
C:\Users\stapi\AppData\Local\Temp\ccuIvOTG.s:5638   .debug_str:00000000000002bd .LASF128
C:\Users\stapi\AppData\Local\Temp\ccuIvOTG.s:5652   .debug_str:0000000000000396 .LASF129
C:\Users\stapi\AppData\Local\Temp\ccuIvOTG.s:5474   .debug_ranges:0000000000000000 .Ldebug_ranges0
C:\Users\stapi\AppData\Local\Temp\ccuIvOTG.s:5550   .debug_line:0000000000000000 .Ldebug_line0
C:\Users\stapi\AppData\Local\Temp\ccuIvOTG.s:5620   .debug_str:0000000000000239 .LASF0
C:\Users\stapi\AppData\Local\Temp\ccuIvOTG.s:5584   .debug_str:0000000000000112 .LASF1
C:\Users\stapi\AppData\Local\Temp\ccuIvOTG.s:5804   .debug_str:0000000000000860 .LASF2
C:\Users\stapi\AppData\Local\Temp\ccuIvOTG.s:5760   .debug_str:000000000000071b .LASF9
C:\Users\stapi\AppData\Local\Temp\ccuIvOTG.s:5784   .debug_str:00000000000007b4 .LASF3
C:\Users\stapi\AppData\Local\Temp\ccuIvOTG.s:5730   .debug_str:0000000000000658 .LASF4
C:\Users\stapi\AppData\Local\Temp\ccuIvOTG.s:5808   .debug_str:000000000000087c .LASF5
C:\Users\stapi\AppData\Local\Temp\ccuIvOTG.s:5740   .debug_str:00000000000006a5 .LASF6
C:\Users\stapi\AppData\Local\Temp\ccuIvOTG.s:5774   .debug_str:0000000000000775 .LASF7
C:\Users\stapi\AppData\Local\Temp\ccuIvOTG.s:5700   .debug_str:0000000000000580 .LASF8
C:\Users\stapi\AppData\Local\Temp\ccuIvOTG.s:5650   .debug_str:000000000000038b .LASF10
C:\Users\stapi\AppData\Local\Temp\ccuIvOTG.s:5670   .debug_str:00000000000004a9 .LASF11
C:\Users\stapi\AppData\Local\Temp\ccuIvOTG.s:5690   .debug_str:0000000000000529 .LASF12
C:\Users\stapi\AppData\Local\Temp\ccuIvOTG.s:5748   .debug_str:00000000000006da .LASF13
C:\Users\stapi\AppData\Local\Temp\ccuIvOTG.s:5704   .debug_str:0000000000000596 .LASF14
C:\Users\stapi\AppData\Local\Temp\ccuIvOTG.s:5674   .debug_str:00000000000004b9 .LASF15
C:\Users\stapi\AppData\Local\Temp\ccuIvOTG.s:5714   .debug_str:00000000000005d0 .LASF16
C:\Users\stapi\AppData\Local\Temp\ccuIvOTG.s:5590   .debug_str:0000000000000133 .LASF22
C:\Users\stapi\AppData\Local\Temp\ccuIvOTG.s:5736   .debug_str:000000000000067f .LASF17
C:\Users\stapi\AppData\Local\Temp\ccuIvOTG.s:5708   .debug_str:00000000000005b5 .LASF18
C:\Users\stapi\AppData\Local\Temp\ccuIvOTG.s:5626   .debug_str:0000000000000271 .LASF19
C:\Users\stapi\AppData\Local\Temp\ccuIvOTG.s:5798   .debug_str:0000000000000829 .LASF20
C:\Users\stapi\AppData\Local\Temp\ccuIvOTG.s:5720   .debug_str:00000000000005ff .LASF21
C:\Users\stapi\AppData\Local\Temp\ccuIvOTG.s:5648   .debug_str:0000000000000385 .LASF23
C:\Users\stapi\AppData\Local\Temp\ccuIvOTG.s:5558   .debug_str:0000000000000030 .LASF24
C:\Users\stapi\AppData\Local\Temp\ccuIvOTG.s:5586   .debug_str:000000000000011f .LASF25
C:\Users\stapi\AppData\Local\Temp\ccuIvOTG.s:5684   .debug_str:0000000000000505 .LASF26
C:\Users\stapi\AppData\Local\Temp\ccuIvOTG.s:5672   .debug_str:00000000000004ae .LASF27
C:\Users\stapi\AppData\Local\Temp\ccuIvOTG.s:5642   .debug_str:0000000000000357 .LASF28
C:\Users\stapi\AppData\Local\Temp\ccuIvOTG.s:5686   .debug_str:000000000000050e .LASF29
C:\Users\stapi\AppData\Local\Temp\ccuIvOTG.s:5712   .debug_str:00000000000005c9 .LASF30
C:\Users\stapi\AppData\Local\Temp\ccuIvOTG.s:5710   .debug_str:00000000000005bc .LASF31
C:\Users\stapi\AppData\Local\Temp\ccuIvOTG.s:5572   .debug_str:000000000000009f .LASF33
C:\Users\stapi\AppData\Local\Temp\ccuIvOTG.s:5678   .debug_str:00000000000004d9 .LASF32
C:\Users\stapi\AppData\Local\Temp\ccuIvOTG.s:5618   .debug_str:0000000000000229 .LASF34
C:\Users\stapi\AppData\Local\Temp\ccuIvOTG.s:5616   .debug_str:000000000000021b .LASF35
C:\Users\stapi\AppData\Local\Temp\ccuIvOTG.s:5792   .debug_str:00000000000007fd .LASF36
C:\Users\stapi\AppData\Local\Temp\ccuIvOTG.s:5588   .debug_str:0000000000000127 .LASF37
C:\Users\stapi\AppData\Local\Temp\ccuIvOTG.s:5716   .debug_str:00000000000005db .LASF38
C:\Users\stapi\AppData\Local\Temp\ccuIvOTG.s:5560   .debug_str:0000000000000040 .LASF39
C:\Users\stapi\AppData\Local\Temp\ccuIvOTG.s:5756   .debug_str:0000000000000704 .LASF40
C:\Users\stapi\AppData\Local\Temp\ccuIvOTG.s:5564   .debug_str:0000000000000066 .LASF41
C:\Users\stapi\AppData\Local\Temp\ccuIvOTG.s:5568   .debug_str:0000000000000088 .LASF42
C:\Users\stapi\AppData\Local\Temp\ccuIvOTG.s:5734   .debug_str:0000000000000676 .LASF43
C:\Users\stapi\AppData\Local\Temp\ccuIvOTG.s:5602   .debug_str:0000000000000194 .LASF44
C:\Users\stapi\AppData\Local\Temp\ccuIvOTG.s:5662   .debug_str:0000000000000463 .LASF45
C:\Users\stapi\AppData\Local\Temp\ccuIvOTG.s:5762   .debug_str:0000000000000725 .LASF46
C:\Users\stapi\AppData\Local\Temp\ccuIvOTG.s:5810   .debug_str:000000000000088f .LASF47
C:\Users\stapi\AppData\Local\Temp\ccuIvOTG.s:5786   .debug_str:00000000000007c2 .LASF48
C:\Users\stapi\AppData\Local\Temp\ccuIvOTG.s:5782   .debug_str:00000000000007ac .LASF49
C:\Users\stapi\AppData\Local\Temp\ccuIvOTG.s:5596   .debug_str:0000000000000164 .LASF50
C:\Users\stapi\AppData\Local\Temp\ccuIvOTG.s:5574   .debug_str:00000000000000b3 .LASF130
C:\Users\stapi\AppData\Local\Temp\ccuIvOTG.s:5656   .debug_str:0000000000000435 .LASF51
C:\Users\stapi\AppData\Local\Temp\ccuIvOTG.s:5764   .debug_str:000000000000072d .LASF52
C:\Users\stapi\AppData\Local\Temp\ccuIvOTG.s:5766   .debug_str:0000000000000738 .LASF53
C:\Users\stapi\AppData\Local\Temp\ccuIvOTG.s:5664   .debug_str:000000000000046a .LASF54
C:\Users\stapi\AppData\Local\Temp\ccuIvOTG.s:5666   .debug_str:000000000000047c .LASF55
C:\Users\stapi\AppData\Local\Temp\ccuIvOTG.s:5746   .debug_str:00000000000006c7 .LASF56
C:\Users\stapi\AppData\Local\Temp\ccuIvOTG.s:5646   .debug_str:0000000000000371 .LASF57
C:\Users\stapi\AppData\Local\Temp\ccuIvOTG.s:5598   .debug_str:0000000000000175 .LASF58
C:\Users\stapi\AppData\Local\Temp\ccuIvOTG.s:5722   .debug_str:000000000000060b .LASF59
C:\Users\stapi\AppData\Local\Temp\ccuIvOTG.s:5772   .debug_str:0000000000000760 .LASF61
C:\Users\stapi\AppData\Local\Temp\ccuIvOTG.s:1390   .text.vTimerSetTimerNumber:0000000000000000 .LFB23
C:\Users\stapi\AppData\Local\Temp\ccuIvOTG.s:1400   .text.vTimerSetTimerNumber:0000000000000004 .LFE23
C:\Users\stapi\AppData\Local\Temp\ccuIvOTG.s:5660   .debug_str:000000000000045c .LASF60
C:\Users\stapi\AppData\Local\Temp\ccuIvOTG.s:5622   .debug_str:0000000000000250 .LASF64
C:\Users\stapi\AppData\Local\Temp\ccuIvOTG.s:1373   .text.uxTimerGetTimerNumber:0000000000000000 .LFB22
C:\Users\stapi\AppData\Local\Temp\ccuIvOTG.s:1383   .text.uxTimerGetTimerNumber:0000000000000004 .LFE22
C:\Users\stapi\AppData\Local\Temp\ccuIvOTG.s:4181   .debug_loc:0000000000000000 .LLST65
C:\Users\stapi\AppData\Local\Temp\ccuIvOTG.s:5692   .debug_str:0000000000000531 .LASF62
C:\Users\stapi\AppData\Local\Temp\ccuIvOTG.s:1333   .text.vTimerSetTimerID:0000000000000000 .LFB21
C:\Users\stapi\AppData\Local\Temp\ccuIvOTG.s:1366   .text.vTimerSetTimerID:0000000000000026 .LFE21
C:\Users\stapi\AppData\Local\Temp\ccuIvOTG.s:4195   .debug_loc:0000000000000021 .LLST62
C:\Users\stapi\AppData\Local\Temp\ccuIvOTG.s:5702   .debug_str:000000000000058e .LASF63
C:\Users\stapi\AppData\Local\Temp\ccuIvOTG.s:4206   .debug_loc:000000000000003f .LLST63
C:\Users\stapi\AppData\Local\Temp\ccuIvOTG.s:4217   .debug_loc:000000000000005d .LLST64
C:\Users\stapi\AppData\Local\Temp\ccuIvOTG.s:1352   .text.vTimerSetTimerID:0000000000000014 .LVL135
C:\Users\stapi\AppData\Local\Temp\ccuIvOTG.s:1358   .text.vTimerSetTimerID:000000000000001e .LVL136
C:\Users\stapi\AppData\Local\Temp\ccuIvOTG.s:5640   .debug_str:0000000000000345 .LASF65
C:\Users\stapi\AppData\Local\Temp\ccuIvOTG.s:1287   .text.pvTimerGetTimerID:0000000000000000 .LFB20
C:\Users\stapi\AppData\Local\Temp\ccuIvOTG.s:1326   .text.pvTimerGetTimerID:000000000000002c .LFE20
C:\Users\stapi\AppData\Local\Temp\ccuIvOTG.s:4228   .debug_loc:000000000000007b .LLST59
C:\Users\stapi\AppData\Local\Temp\ccuIvOTG.s:4239   .debug_loc:0000000000000099 .LLST60
C:\Users\stapi\AppData\Local\Temp\ccuIvOTG.s:5628   .debug_str:000000000000027c .LASF66
C:\Users\stapi\AppData\Local\Temp\ccuIvOTG.s:4250   .debug_loc:00000000000000b7 .LLST61
C:\Users\stapi\AppData\Local\Temp\ccuIvOTG.s:1306   .text.pvTimerGetTimerID:0000000000000014 .LVL129
C:\Users\stapi\AppData\Local\Temp\ccuIvOTG.s:1314   .text.pvTimerGetTimerID:0000000000000020 .LVL131
C:\Users\stapi\AppData\Local\Temp\ccuIvOTG.s:5636   .debug_str:00000000000002a9 .LASF67
C:\Users\stapi\AppData\Local\Temp\ccuIvOTG.s:1240   .text.xTimerIsTimerActive:0000000000000000 .LFB19
C:\Users\stapi\AppData\Local\Temp\ccuIvOTG.s:1280   .text.xTimerIsTimerActive:0000000000000030 .LFE19
C:\Users\stapi\AppData\Local\Temp\ccuIvOTG.s:4267   .debug_loc:00000000000000e2 .LLST56
C:\Users\stapi\AppData\Local\Temp\ccuIvOTG.s:5770   .debug_str:0000000000000758 .LASF68
C:\Users\stapi\AppData\Local\Temp\ccuIvOTG.s:4278   .debug_loc:0000000000000100 .LLST57
C:\Users\stapi\AppData\Local\Temp\ccuIvOTG.s:4295   .debug_loc:000000000000012b .LLST58
C:\Users\stapi\AppData\Local\Temp\ccuIvOTG.s:1259   .text.xTimerIsTimerActive:0000000000000014 .LVL123
C:\Users\stapi\AppData\Local\Temp\ccuIvOTG.s:1268   .text.xTimerIsTimerActive:0000000000000024 .LVL125
C:\Users\stapi\AppData\Local\Temp\ccuIvOTG.s:5788   .debug_str:00000000000007d0 .LASF88
C:\Users\stapi\AppData\Local\Temp\ccuIvOTG.s:13     .text.prvCheckForValidListAndQueue:0000000000000000 .LFB18
C:\Users\stapi\AppData\Local\Temp\ccuIvOTG.s:80     .text.prvCheckForValidListAndQueue:0000000000000074 .LFE18
C:\Users\stapi\AppData\Local\Temp\ccuIvOTG.s:28     .text.prvCheckForValidListAndQueue:0000000000000014 .LVL0
C:\Users\stapi\AppData\Local\Temp\ccuIvOTG.s:40     .text.prvCheckForValidListAndQueue:0000000000000030 .LVL1
C:\Users\stapi\AppData\Local\Temp\ccuIvOTG.s:46     .text.prvCheckForValidListAndQueue:0000000000000044 .LVL2
C:\Users\stapi\AppData\Local\Temp\ccuIvOTG.s:64     .text.prvCheckForValidListAndQueue:0000000000000062 .LVL3
C:\Users\stapi\AppData\Local\Temp\ccuIvOTG.s:71     .text.prvCheckForValidListAndQueue:000000000000006c .LVL4
C:\Users\stapi\AppData\Local\Temp\ccuIvOTG.s:5706   .debug_str:00000000000005a1 .LASF73
C:\Users\stapi\AppData\Local\Temp\ccuIvOTG.s:5726   .debug_str:0000000000000629 .LASF69
C:\Users\stapi\AppData\Local\Temp\ccuIvOTG.s:5768   .debug_str:000000000000074c .LASF70
C:\Users\stapi\AppData\Local\Temp\ccuIvOTG.s:5630   .debug_str:0000000000000285 .LASF71
C:\Users\stapi\AppData\Local\Temp\ccuIvOTG.s:5778   .debug_str:0000000000000794 .LASF72
C:\Users\stapi\AppData\Local\Temp\ccuIvOTG.s:5738   .debug_str:000000000000068a .LASF74
C:\Users\stapi\AppData\Local\Temp\ccuIvOTG.s:5750   .debug_str:00000000000006e3 .LASF75
C:\Users\stapi\AppData\Local\Temp\ccuIvOTG.s:5694   .debug_str:0000000000000542 .LASF76
C:\Users\stapi\AppData\Local\Temp\ccuIvOTG.s:5570   .debug_str:0000000000000096 .LASF77
C:\Users\stapi\AppData\Local\Temp\ccuIvOTG.s:5668   .debug_str:000000000000048e .LASF83
C:\Users\stapi\AppData\Local\Temp\ccuIvOTG.s:5806   .debug_str:000000000000086c .LASF78
C:\Users\stapi\AppData\Local\Temp\ccuIvOTG.s:5556   .debug_str:0000000000000023 .LASF79
C:\Users\stapi\AppData\Local\Temp\ccuIvOTG.s:5610   .debug_str:00000000000001d6 .LASF80
C:\Users\stapi\AppData\Local\Temp\ccuIvOTG.s:5682   .debug_str:00000000000004f4 .LASF131
C:\Users\stapi\AppData\Local\Temp\ccuIvOTG.s:439    .text.prvSampleTimeNow:0000000000000000 .LFB14
C:\Users\stapi\AppData\Local\Temp\ccuIvOTG.s:633    .text.prvSampleTimeNow:00000000000000ea .LFE14
C:\Users\stapi\AppData\Local\Temp\ccuIvOTG.s:5816   .debug_str:00000000000009b0 .LASF81
C:\Users\stapi\AppData\Local\Temp\ccuIvOTG.s:4306   .debug_loc:0000000000000149 .LLST25
C:\Users\stapi\AppData\Local\Temp\ccuIvOTG.s:4317   .debug_loc:0000000000000167 .LLST26
C:\Users\stapi\AppData\Local\Temp\ccuIvOTG.s:5742   .debug_str:00000000000006ae .LASF82
C:\Users\stapi\AppData\Local\Temp\ccuIvOTG.s:482    .text.prvSampleTimeNow:0000000000000036 .LBB12
C:\Users\stapi\AppData\Local\Temp\ccuIvOTG.s:4347   .debug_loc:000000000000019f .LLST27
C:\Users\stapi\AppData\Local\Temp\ccuIvOTG.s:4381   .debug_loc:00000000000001db .LLST28
C:\Users\stapi\AppData\Local\Temp\ccuIvOTG.s:4402   .debug_loc:0000000000000203 .LLST29
C:\Users\stapi\AppData\Local\Temp\ccuIvOTG.s:4409   .debug_loc:0000000000000216 .LLST30
C:\Users\stapi\AppData\Local\Temp\ccuIvOTG.s:509    .text.prvSampleTimeNow:0000000000000058 .LVL48
C:\Users\stapi\AppData\Local\Temp\ccuIvOTG.s:515    .text.prvSampleTimeNow:000000000000005e .LVL49
C:\Users\stapi\AppData\Local\Temp\ccuIvOTG.s:549    .text.prvSampleTimeNow:0000000000000098 .LVL51
C:\Users\stapi\AppData\Local\Temp\ccuIvOTG.s:622    .text.prvSampleTimeNow:00000000000000e2 .LVL58
C:\Users\stapi\AppData\Local\Temp\ccuIvOTG.s:465    .text.prvSampleTimeNow:0000000000000018 .LVL44
C:\Users\stapi\AppData\Local\Temp\ccuIvOTG.s:5814   .debug_str:000000000000099b .LASF84
C:\Users\stapi\AppData\Local\Temp\ccuIvOTG.s:5566   .debug_str:0000000000000079 .LASF85
C:\Users\stapi\AppData\Local\Temp\ccuIvOTG.s:5800   .debug_str:0000000000000831 .LASF86
C:\Users\stapi\AppData\Local\Temp\ccuIvOTG.s:5754   .debug_str:00000000000006f6 .LASF87
C:\Users\stapi\AppData\Local\Temp\ccuIvOTG.s:5724   .debug_str:000000000000061c .LASF89
C:\Users\stapi\AppData\Local\Temp\ccuIvOTG.s:639    .text.prvTimerTask:0000000000000000 .LFB11
C:\Users\stapi\AppData\Local\Temp\ccuIvOTG.s:1060   .text.prvTimerTask:000000000000021e .LFE11
C:\Users\stapi\AppData\Local\Temp\ccuIvOTG.s:5594   .debug_str:0000000000000157 .LASF90
C:\Users\stapi\AppData\Local\Temp\ccuIvOTG.s:4420   .debug_loc:0000000000000234 .LLST31
C:\Users\stapi\AppData\Local\Temp\ccuIvOTG.s:4434   .debug_loc:0000000000000255 .LLST32
C:\Users\stapi\AppData\Local\Temp\ccuIvOTG.s:4464   .debug_loc:000000000000028d .LLST33
C:\Users\stapi\AppData\Local\Temp\ccuIvOTG.s:658    .text.prvTimerTask:000000000000000e .LBB26
C:\Users\stapi\AppData\Local\Temp\ccuIvOTG.s:4472   .debug_loc:00000000000002a1 .LLST34
C:\Users\stapi\AppData\Local\Temp\ccuIvOTG.s:665    .text.prvTimerTask:0000000000000016 .LBB30
C:\Users\stapi\AppData\Local\Temp\ccuIvOTG.s:4487   .debug_loc:00000000000002c9 .LLST35
C:\Users\stapi\AppData\Local\Temp\ccuIvOTG.s:4513   .debug_loc:000000000000030b .LLST37
C:\Users\stapi\AppData\Local\Temp\ccuIvOTG.s:744    .text.prvTimerTask:000000000000006e .LBB32
C:\Users\stapi\AppData\Local\Temp\ccuIvOTG.s:4581   .debug_loc:0000000000000385 .LLST38
C:\Users\stapi\AppData\Local\Temp\ccuIvOTG.s:4604   .debug_loc:00000000000003af .LLST39
C:\Users\stapi\AppData\Local\Temp\ccuIvOTG.s:4625   .debug_loc:00000000000003d7 .LLST40
C:\Users\stapi\AppData\Local\Temp\ccuIvOTG.s:758    .text.prvTimerTask:0000000000000084 .LVL71
C:\Users\stapi\AppData\Local\Temp\ccuIvOTG.s:780    .text.prvTimerTask:00000000000000b2 .LVL72
C:\Users\stapi\AppData\Local\Temp\ccuIvOTG.s:793    .text.prvTimerTask:00000000000000ca .LVL73
C:\Users\stapi\AppData\Local\Temp\ccuIvOTG.s:802    .text.prvTimerTask:00000000000000d2 .LVL74
C:\Users\stapi\AppData\Local\Temp\ccuIvOTG.s:712    .text.prvTimerTask:000000000000003c .LVL65
C:\Users\stapi\AppData\Local\Temp\ccuIvOTG.s:717    .text.prvTimerTask:0000000000000046 .LVL66
C:\Users\stapi\AppData\Local\Temp\ccuIvOTG.s:742    .text.prvTimerTask:000000000000006e .LVL69
C:\Users\stapi\AppData\Local\Temp\ccuIvOTG.s:918    .text.prvTimerTask:0000000000000150 .LVL87
C:\Users\stapi\AppData\Local\Temp\ccuIvOTG.s:922    .text.prvTimerTask:0000000000000158 .LVL88
C:\Users\stapi\AppData\Local\Temp\ccuIvOTG.s:927    .text.prvTimerTask:0000000000000162 .LVL89
C:\Users\stapi\AppData\Local\Temp\ccuIvOTG.s:934    .text.prvTimerTask:000000000000016c .LVL91
C:\Users\stapi\AppData\Local\Temp\ccuIvOTG.s:810    .text.prvTimerTask:00000000000000d4 .LBB40
C:\Users\stapi\AppData\Local\Temp\ccuIvOTG.s:4636   .debug_loc:00000000000003f5 .LLST41
C:\Users\stapi\AppData\Local\Temp\ccuIvOTG.s:4647   .debug_loc:0000000000000413 .LLST42
C:\Users\stapi\AppData\Local\Temp\ccuIvOTG.s:819    .text.prvTimerTask:00000000000000e6 .LVL75
C:\Users\stapi\AppData\Local\Temp\ccuIvOTG.s:838    .text.prvTimerTask:0000000000000100 .LVL77
C:\Users\stapi\AppData\Local\Temp\ccuIvOTG.s:846    .text.prvTimerTask:000000000000010a .LVL78
C:\Users\stapi\AppData\Local\Temp\ccuIvOTG.s:964    .text.prvTimerTask:0000000000000196 .LVL95
C:\Users\stapi\AppData\Local\Temp\ccuIvOTG.s:971    .text.prvTimerTask:000000000000019e .LVL96
C:\Users\stapi\AppData\Local\Temp\ccuIvOTG.s:994    .text.prvTimerTask:00000000000001ca .LVL97
C:\Users\stapi\AppData\Local\Temp\ccuIvOTG.s:1040   .text.prvTimerTask:0000000000000206 .LVL101
C:\Users\stapi\AppData\Local\Temp\ccuIvOTG.s:1055   .text.prvTimerTask:000000000000021c .LVL104
C:\Users\stapi\AppData\Local\Temp\ccuIvOTG.s:5554   .debug_str:000000000000000c .LASF91
C:\Users\stapi\AppData\Local\Temp\ccuIvOTG.s:5794   .debug_str:000000000000080d .LASF92
C:\Users\stapi\AppData\Local\Temp\ccuIvOTG.s:1221   .text.pcTimerGetName:0000000000000000 .LFB9
C:\Users\stapi\AppData\Local\Temp\ccuIvOTG.s:1233   .text.pcTimerGetName:0000000000000004 .LFE9
C:\Users\stapi\AppData\Local\Temp\ccuIvOTG.s:4731   .debug_loc:00000000000004ab .LLST54
C:\Users\stapi\AppData\Local\Temp\ccuIvOTG.s:4745   .debug_loc:00000000000004cc .LLST55
C:\Users\stapi\AppData\Local\Temp\ccuIvOTG.s:5676   .debug_str:00000000000004c5 .LASF93
C:\Users\stapi\AppData\Local\Temp\ccuIvOTG.s:1199   .text.xTimerGetExpiryTime:0000000000000000 .LFB8
C:\Users\stapi\AppData\Local\Temp\ccuIvOTG.s:1214   .text.xTimerGetExpiryTime:0000000000000006 .LFE8
C:\Users\stapi\AppData\Local\Temp\ccuIvOTG.s:4759   .debug_loc:00000000000004ed .LLST51
C:\Users\stapi\AppData\Local\Temp\ccuIvOTG.s:4773   .debug_loc:000000000000050e .LLST52
C:\Users\stapi\AppData\Local\Temp\ccuIvOTG.s:4787   .debug_loc:000000000000052f .LLST53
C:\Users\stapi\AppData\Local\Temp\ccuIvOTG.s:5612   .debug_str:00000000000001e7 .LASF94
C:\Users\stapi\AppData\Local\Temp\ccuIvOTG.s:1152   .text.uxTimerGetReloadMode:0000000000000000 .LFB7
C:\Users\stapi\AppData\Local\Temp\ccuIvOTG.s:1192   .text.uxTimerGetReloadMode:0000000000000032 .LFE7
C:\Users\stapi\AppData\Local\Temp\ccuIvOTG.s:4803   .debug_loc:0000000000000552 .LLST48
C:\Users\stapi\AppData\Local\Temp\ccuIvOTG.s:4814   .debug_loc:0000000000000570 .LLST49
C:\Users\stapi\AppData\Local\Temp\ccuIvOTG.s:5606   .debug_str:00000000000001b7 .LASF95
C:\Users\stapi\AppData\Local\Temp\ccuIvOTG.s:4825   .debug_loc:000000000000058e .LLST50
C:\Users\stapi\AppData\Local\Temp\ccuIvOTG.s:1171   .text.uxTimerGetReloadMode:0000000000000014 .LVL113
C:\Users\stapi\AppData\Local\Temp\ccuIvOTG.s:1180   .text.uxTimerGetReloadMode:0000000000000026 .LVL115
C:\Users\stapi\AppData\Local\Temp\ccuIvOTG.s:5802   .debug_str:000000000000084c .LASF96
C:\Users\stapi\AppData\Local\Temp\ccuIvOTG.s:1104   .text.vTimerSetReloadMode:0000000000000000 .LFB6
C:\Users\stapi\AppData\Local\Temp\ccuIvOTG.s:1145   .text.vTimerSetReloadMode:000000000000003a .LFE6
C:\Users\stapi\AppData\Local\Temp\ccuIvOTG.s:4842   .debug_loc:00000000000005b9 .LLST45
C:\Users\stapi\AppData\Local\Temp\ccuIvOTG.s:5758   .debug_str:000000000000070e .LASF97
C:\Users\stapi\AppData\Local\Temp\ccuIvOTG.s:4853   .debug_loc:00000000000005d7 .LLST46
C:\Users\stapi\AppData\Local\Temp\ccuIvOTG.s:4864   .debug_loc:00000000000005f5 .LLST47
C:\Users\stapi\AppData\Local\Temp\ccuIvOTG.s:1123   .text.vTimerSetReloadMode:0000000000000014 .LVL109
C:\Users\stapi\AppData\Local\Temp\ccuIvOTG.s:1137   .text.vTimerSetReloadMode:0000000000000032 .LVL110
C:\Users\stapi\AppData\Local\Temp\ccuIvOTG.s:5780   .debug_str:000000000000079c .LASF98
C:\Users\stapi\AppData\Local\Temp\ccuIvOTG.s:1084   .text.xTimerGetPeriod:0000000000000000 .LFB5
C:\Users\stapi\AppData\Local\Temp\ccuIvOTG.s:1097   .text.xTimerGetPeriod:0000000000000006 .LFE5
C:\Users\stapi\AppData\Local\Temp\ccuIvOTG.s:4875   .debug_loc:0000000000000613 .LLST43
C:\Users\stapi\AppData\Local\Temp\ccuIvOTG.s:4889   .debug_loc:0000000000000634 .LLST44
C:\Users\stapi\AppData\Local\Temp\ccuIvOTG.s:5614   .debug_str:00000000000001fc .LASF132
C:\Users\stapi\AppData\Local\Temp\ccuIvOTG.s:1067   .text.xTimerGetTimerDaemonTaskHandle:0000000000000000 .LFB4
C:\Users\stapi\AppData\Local\Temp\ccuIvOTG.s:1077   .text.xTimerGetTimerDaemonTaskHandle:000000000000000a .LFE4
C:\Users\stapi\AppData\Local\Temp\ccuIvOTG.s:5718   .debug_str:00000000000005ea .LASF99
C:\Users\stapi\AppData\Local\Temp\ccuIvOTG.s:328    .text.xTimerGenericCommand:0000000000000000 .LFB3
C:\Users\stapi\AppData\Local\Temp\ccuIvOTG.s:433    .text.xTimerGenericCommand:0000000000000072 .LFE3
C:\Users\stapi\AppData\Local\Temp\ccuIvOTG.s:4903   .debug_loc:0000000000000655 .LLST19
C:\Users\stapi\AppData\Local\Temp\ccuIvOTG.s:5604   .debug_str:00000000000001ac .LASF100
C:\Users\stapi\AppData\Local\Temp\ccuIvOTG.s:4936   .debug_loc:00000000000006a5 .LLST20
C:\Users\stapi\AppData\Local\Temp\ccuIvOTG.s:5576   .debug_str:00000000000000c4 .LASF101
C:\Users\stapi\AppData\Local\Temp\ccuIvOTG.s:4970   .debug_loc:00000000000006f6 .LLST21
C:\Users\stapi\AppData\Local\Temp\ccuIvOTG.s:5582   .debug_str:00000000000000f8 .LASF102
C:\Users\stapi\AppData\Local\Temp\ccuIvOTG.s:5018   .debug_loc:000000000000074e .LLST22
C:\Users\stapi\AppData\Local\Temp\ccuIvOTG.s:5796   .debug_str:000000000000081c .LASF103
C:\Users\stapi\AppData\Local\Temp\ccuIvOTG.s:5047   .debug_loc:0000000000000793 .LLST23
C:\Users\stapi\AppData\Local\Temp\ccuIvOTG.s:5077   .debug_loc:00000000000007cb .LLST24
C:\Users\stapi\AppData\Local\Temp\ccuIvOTG.s:376    .text.xTimerGenericCommand:0000000000000032 .LVL35
C:\Users\stapi\AppData\Local\Temp\ccuIvOTG.s:391    .text.xTimerGenericCommand:000000000000004c .LVL36
C:\Users\stapi\AppData\Local\Temp\ccuIvOTG.s:422    .text.xTimerGenericCommand:000000000000006c .LVL41
C:\Users\stapi\AppData\Local\Temp\ccuIvOTG.s:5654   .debug_str:000000000000041f .LASF104
C:\Users\stapi\AppData\Local\Temp\ccuIvOTG.s:5624   .debug_str:0000000000000266 .LASF105
C:\Users\stapi\AppData\Local\Temp\ccuIvOTG.s:5680   .debug_str:00000000000004e7 .LASF106
C:\Users\stapi\AppData\Local\Temp\ccuIvOTG.s:230    .text.xTimerCreate:0000000000000000 .LFB1
C:\Users\stapi\AppData\Local\Temp\ccuIvOTG.s:321    .text.xTimerCreate:0000000000000068 .LFE1
C:\Users\stapi\AppData\Local\Temp\ccuIvOTG.s:5099   .debug_loc:0000000000000802 .LLST8
C:\Users\stapi\AppData\Local\Temp\ccuIvOTG.s:5110   .debug_loc:0000000000000820 .LLST9
C:\Users\stapi\AppData\Local\Temp\ccuIvOTG.s:5131   .debug_loc:0000000000000848 .LLST10
C:\Users\stapi\AppData\Local\Temp\ccuIvOTG.s:5142   .debug_loc:0000000000000866 .LLST11
C:\Users\stapi\AppData\Local\Temp\ccuIvOTG.s:5153   .debug_loc:0000000000000884 .LLST12
C:\Users\stapi\AppData\Local\Temp\ccuIvOTG.s:270    .text.xTimerCreate:0000000000000028 .LBB8
C:\Users\stapi\AppData\Local\Temp\ccuIvOTG.s:305    .text.xTimerCreate:000000000000005e .LBE8
C:\Users\stapi\AppData\Local\Temp\ccuIvOTG.s:5164   .debug_loc:00000000000008a2 .LLST13
C:\Users\stapi\AppData\Local\Temp\ccuIvOTG.s:5171   .debug_loc:00000000000008b5 .LLST14
C:\Users\stapi\AppData\Local\Temp\ccuIvOTG.s:5178   .debug_loc:00000000000008c8 .LLST15
C:\Users\stapi\AppData\Local\Temp\ccuIvOTG.s:5185   .debug_loc:00000000000008db .LLST16
C:\Users\stapi\AppData\Local\Temp\ccuIvOTG.s:5192   .debug_loc:00000000000008ee .LLST17
C:\Users\stapi\AppData\Local\Temp\ccuIvOTG.s:5204   .debug_loc:0000000000000906 .LLST18
C:\Users\stapi\AppData\Local\Temp\ccuIvOTG.s:276    .text.xTimerCreate:0000000000000030 .LVL28
C:\Users\stapi\AppData\Local\Temp\ccuIvOTG.s:294    .text.xTimerCreate:0000000000000050 .LVL29
C:\Users\stapi\AppData\Local\Temp\ccuIvOTG.s:259    .text.xTimerCreate:0000000000000020 .LVL25
C:\Users\stapi\AppData\Local\Temp\ccuIvOTG.s:5608   .debug_str:00000000000001c0 .LASF107
C:\Users\stapi\AppData\Local\Temp\ccuIvOTG.s:187    .text.xTimerCreateTimerTask:0000000000000000 .LFB0
C:\Users\stapi\AppData\Local\Temp\ccuIvOTG.s:223    .text.xTimerCreateTimerTask:000000000000004c .LFE0
C:\Users\stapi\AppData\Local\Temp\ccuIvOTG.s:5211   .debug_loc:0000000000000919 .LLST7
C:\Users\stapi\AppData\Local\Temp\ccuIvOTG.s:197    .text.xTimerCreateTimerTask:0000000000000010 .LVL21
C:\Users\stapi\AppData\Local\Temp\ccuIvOTG.s:216    .text.xTimerCreateTimerTask:0000000000000044 .LVL22
C:\Users\stapi\AppData\Local\Temp\ccuIvOTG.s:86     .text.prvInsertTimerInActiveList:0000000000000000 .LFB15
C:\Users\stapi\AppData\Local\Temp\ccuIvOTG.s:176    .text.prvInsertTimerInActiveList:0000000000000080 .LFE15
C:\Users\stapi\AppData\Local\Temp\ccuIvOTG.s:5219   .debug_loc:000000000000092d .LLST0
C:\Users\stapi\AppData\Local\Temp\ccuIvOTG.s:5254   .debug_loc:000000000000097f .LLST1
C:\Users\stapi\AppData\Local\Temp\ccuIvOTG.s:5302   .debug_loc:00000000000009d7 .LLST2
C:\Users\stapi\AppData\Local\Temp\ccuIvOTG.s:5341   .debug_loc:0000000000000a1f .LLST3
C:\Users\stapi\AppData\Local\Temp\ccuIvOTG.s:5380   .debug_loc:0000000000000a67 .LLST4
C:\Users\stapi\AppData\Local\Temp\ccuIvOTG.s:122    .text.prvInsertTimerInActiveList:0000000000000038 .LBB4
C:\Users\stapi\AppData\Local\Temp\ccuIvOTG.s:132    .text.prvInsertTimerInActiveList:0000000000000044 .LBE4
C:\Users\stapi\AppData\Local\Temp\ccuIvOTG.s:5398   .debug_loc:0000000000000a93 .LLST5
C:\Users\stapi\AppData\Local\Temp\ccuIvOTG.s:5420   .debug_loc:0000000000000abc .LLST6
C:\Users\stapi\AppData\Local\Temp\ccuIvOTG.s:135    .text.prvInsertTimerInActiveList:000000000000004c .LVL12
C:\Users\stapi\AppData\Local\Temp\ccuIvOTG.s:5600   .debug_str:0000000000000181 .LASF108
C:\Users\stapi\AppData\Local\Temp\ccuIvOTG.s:5562   .debug_str:0000000000000054 .LASF109
C:\Users\stapi\AppData\Local\Temp\ccuIvOTG.s:5790   .debug_str:00000000000007ed .LASF110
C:\Users\stapi\AppData\Local\Temp\ccuIvOTG.s:5696   .debug_str:000000000000055a .LASF111
C:\Users\stapi\AppData\Local\Temp\ccuIvOTG.s:5776   .debug_str:0000000000000787 .LASF112
C:\Users\stapi\AppData\Local\Temp\ccuIvOTG.s:5552   .debug_str:0000000000000000 .LASF113
C:\Users\stapi\AppData\Local\Temp\ccuIvOTG.s:5698   .debug_str:000000000000056e .LASF114
C:\Users\stapi\AppData\Local\Temp\ccuIvOTG.s:5634   .debug_str:0000000000000299 .LASF115
C:\Users\stapi\AppData\Local\Temp\ccuIvOTG.s:5744   .debug_str:00000000000006b8 .LASF116
C:\Users\stapi\AppData\Local\Temp\ccuIvOTG.s:5728   .debug_str:0000000000000639 .LASF117
C:\Users\stapi\AppData\Local\Temp\ccuIvOTG.s:5644   .debug_str:0000000000000367 .LASF118
C:\Users\stapi\AppData\Local\Temp\ccuIvOTG.s:5578   .debug_str:00000000000000d3 .LASF119
C:\Users\stapi\AppData\Local\Temp\ccuIvOTG.s:5752   .debug_str:00000000000006ec .LASF120
C:\Users\stapi\AppData\Local\Temp\ccuIvOTG.s:5580   .debug_str:00000000000000e1 .LASF121
C:\Users\stapi\AppData\Local\Temp\ccuIvOTG.s:5658   .debug_str:000000000000044a .LASF122
C:\Users\stapi\AppData\Local\Temp\ccuIvOTG.s:5592   .debug_str:000000000000013e .LASF123
C:\Users\stapi\AppData\Local\Temp\ccuIvOTG.s:5732   .debug_str:0000000000000662 .LASF124
C:\Users\stapi\AppData\Local\Temp\ccuIvOTG.s:5632   .debug_str:000000000000028c .LASF125
C:\Users\stapi\AppData\Local\Temp\ccuIvOTG.s:5688   .debug_str:000000000000051d .LASF126
C:\Users\stapi\AppData\Local\Temp\ccuIvOTG.s:1376   .text.uxTimerGetTimerNumber:0000000000000000 .LVL137
C:\Users\stapi\AppData\Local\Temp\ccuIvOTG.s:1380   .text.uxTimerGetTimerNumber:0000000000000002 .LVL138
C:\Users\stapi\AppData\Local\Temp\ccuIvOTG.s:1336   .text.vTimerSetTimerID:0000000000000000 .LVL133
C:\Users\stapi\AppData\Local\Temp\ccuIvOTG.s:1345   .text.vTimerSetTimerID:000000000000000a .LVL134
C:\Users\stapi\AppData\Local\Temp\ccuIvOTG.s:1290   .text.pvTimerGetTimerID:0000000000000000 .LVL127
C:\Users\stapi\AppData\Local\Temp\ccuIvOTG.s:1301   .text.pvTimerGetTimerID:000000000000000c .LVL128
C:\Users\stapi\AppData\Local\Temp\ccuIvOTG.s:1311   .text.pvTimerGetTimerID:0000000000000018 .LVL130
C:\Users\stapi\AppData\Local\Temp\ccuIvOTG.s:1320   .text.pvTimerGetTimerID:0000000000000024 .LVL132
C:\Users\stapi\AppData\Local\Temp\ccuIvOTG.s:1243   .text.xTimerIsTimerActive:0000000000000000 .LVL121
C:\Users\stapi\AppData\Local\Temp\ccuIvOTG.s:1265   .text.xTimerIsTimerActive:000000000000001c .LVL124
C:\Users\stapi\AppData\Local\Temp\ccuIvOTG.s:1274   .text.xTimerIsTimerActive:0000000000000028 .LVL126
C:\Users\stapi\AppData\Local\Temp\ccuIvOTG.s:1255   .text.xTimerIsTimerActive:000000000000000c .LVL122
C:\Users\stapi\AppData\Local\Temp\ccuIvOTG.s:442    .text.prvSampleTimeNow:0000000000000000 .LVL43
C:\Users\stapi\AppData\Local\Temp\ccuIvOTG.s:473    .text.prvSampleTimeNow:0000000000000022 .LVL45
C:\Users\stapi\AppData\Local\Temp\ccuIvOTG.s:487    .text.prvSampleTimeNow:000000000000003c .LVL46
C:\Users\stapi\AppData\Local\Temp\ccuIvOTG.s:624    .text.prvSampleTimeNow:00000000000000e4 .LVL59
C:\Users\stapi\AppData\Local\Temp\ccuIvOTG.s:503    .text.prvSampleTimeNow:000000000000004e .LVL47
C:\Users\stapi\AppData\Local\Temp\ccuIvOTG.s:606    .text.prvSampleTimeNow:00000000000000d0 .LVL54
C:\Users\stapi\AppData\Local\Temp\ccuIvOTG.s:532    .text.prvSampleTimeNow:000000000000007a .LVL50
C:\Users\stapi\AppData\Local\Temp\ccuIvOTG.s:614    .text.prvSampleTimeNow:00000000000000d2 .LVL55
C:\Users\stapi\AppData\Local\Temp\ccuIvOTG.s:561    .text.prvSampleTimeNow:00000000000000a6 .LVL52
C:\Users\stapi\AppData\Local\Temp\ccuIvOTG.s:583    .text.prvSampleTimeNow:00000000000000ba .LVL53
C:\Users\stapi\AppData\Local\Temp\ccuIvOTG.s:642    .text.prvTimerTask:0000000000000000 .LVL60
C:\Users\stapi\AppData\Local\Temp\ccuIvOTG.s:670    .text.prvTimerTask:000000000000001e .LVL61
C:\Users\stapi\AppData\Local\Temp\ccuIvOTG.s:701    .text.prvTimerTask:0000000000000034 .LVL64
C:\Users\stapi\AppData\Local\Temp\ccuIvOTG.s:883    .text.prvTimerTask:0000000000000124 .LVL81
C:\Users\stapi\AppData\Local\Temp\ccuIvOTG.s:914    .text.prvTimerTask:0000000000000142 .LVL86
C:\Users\stapi\AppData\Local\Temp\ccuIvOTG.s:929    .text.prvTimerTask:0000000000000164 .LVL90
C:\Users\stapi\AppData\Local\Temp\ccuIvOTG.s:936    .text.prvTimerTask:000000000000016e .LVL92
C:\Users\stapi\AppData\Local\Temp\ccuIvOTG.s:688    .text.prvTimerTask:000000000000002a .LVL62
C:\Users\stapi\AppData\Local\Temp\ccuIvOTG.s:698    .text.prvTimerTask:0000000000000032 .LVL63
C:\Users\stapi\AppData\Local\Temp\ccuIvOTG.s:1462   .debug_info:0000000000000000 .Ldebug_info0
C:\Users\stapi\AppData\Local\Temp\ccuIvOTG.s:871    .text.prvTimerTask:000000000000011c .LVL80
C:\Users\stapi\AppData\Local\Temp\ccuIvOTG.s:738    .text.prvTimerTask:0000000000000066 .LVL68
C:\Users\stapi\AppData\Local\Temp\ccuIvOTG.s:896    .text.prvTimerTask:000000000000012c .LVL82
C:\Users\stapi\AppData\Local\Temp\ccuIvOTG.s:907    .text.prvTimerTask:0000000000000136 .LVL83
C:\Users\stapi\AppData\Local\Temp\ccuIvOTG.s:723    .text.prvTimerTask:000000000000004c .LVL67
C:\Users\stapi\AppData\Local\Temp\ccuIvOTG.s:910    .text.prvTimerTask:000000000000013a .LVL84
C:\Users\stapi\AppData\Local\Temp\ccuIvOTG.s:912    .text.prvTimerTask:000000000000013e .LVL85
C:\Users\stapi\AppData\Local\Temp\ccuIvOTG.s:753    .text.prvTimerTask:0000000000000078 .LVL70
C:\Users\stapi\AppData\Local\Temp\ccuIvOTG.s:829    .text.prvTimerTask:00000000000000f0 .LVL76
C:\Users\stapi\AppData\Local\Temp\ccuIvOTG.s:850    .text.prvTimerTask:0000000000000110 .LVL79
C:\Users\stapi\AppData\Local\Temp\ccuIvOTG.s:947    .text.prvTimerTask:0000000000000174 .LVL93
C:\Users\stapi\AppData\Local\Temp\ccuIvOTG.s:959    .text.prvTimerTask:0000000000000188 .LVL94
C:\Users\stapi\AppData\Local\Temp\ccuIvOTG.s:998    .text.prvTimerTask:00000000000001cc .LVL98
C:\Users\stapi\AppData\Local\Temp\ccuIvOTG.s:1022   .text.prvTimerTask:00000000000001ea .LVL99
C:\Users\stapi\AppData\Local\Temp\ccuIvOTG.s:1025   .text.prvTimerTask:00000000000001ee .LVL100
C:\Users\stapi\AppData\Local\Temp\ccuIvOTG.s:1043   .text.prvTimerTask:0000000000000208 .LVL102
C:\Users\stapi\AppData\Local\Temp\ccuIvOTG.s:1053   .text.prvTimerTask:0000000000000214 .LVL103
C:\Users\stapi\AppData\Local\Temp\ccuIvOTG.s:1224   .text.pcTimerGetName:0000000000000000 .LVL119
C:\Users\stapi\AppData\Local\Temp\ccuIvOTG.s:1230   .text.pcTimerGetName:0000000000000002 .LVL120
C:\Users\stapi\AppData\Local\Temp\ccuIvOTG.s:1202   .text.xTimerGetExpiryTime:0000000000000000 .LVL117
C:\Users\stapi\AppData\Local\Temp\ccuIvOTG.s:1211   .text.xTimerGetExpiryTime:0000000000000004 .LVL118
C:\Users\stapi\AppData\Local\Temp\ccuIvOTG.s:1155   .text.uxTimerGetReloadMode:0000000000000000 .LVL111
C:\Users\stapi\AppData\Local\Temp\ccuIvOTG.s:1166   .text.uxTimerGetReloadMode:000000000000000c .LVL112
C:\Users\stapi\AppData\Local\Temp\ccuIvOTG.s:1177   .text.uxTimerGetReloadMode:000000000000001e .LVL114
C:\Users\stapi\AppData\Local\Temp\ccuIvOTG.s:1186   .text.uxTimerGetReloadMode:000000000000002a .LVL116
C:\Users\stapi\AppData\Local\Temp\ccuIvOTG.s:1107   .text.vTimerSetReloadMode:0000000000000000 .LVL107
C:\Users\stapi\AppData\Local\Temp\ccuIvOTG.s:1116   .text.vTimerSetReloadMode:000000000000000a .LVL108
C:\Users\stapi\AppData\Local\Temp\ccuIvOTG.s:1087   .text.xTimerGetPeriod:0000000000000000 .LVL105
C:\Users\stapi\AppData\Local\Temp\ccuIvOTG.s:1094   .text.xTimerGetPeriod:0000000000000004 .LVL106
C:\Users\stapi\AppData\Local\Temp\ccuIvOTG.s:331    .text.xTimerGenericCommand:0000000000000000 .LVL31
C:\Users\stapi\AppData\Local\Temp\ccuIvOTG.s:350    .text.xTimerGenericCommand:0000000000000014 .LVL33
C:\Users\stapi\AppData\Local\Temp\ccuIvOTG.s:412    .text.xTimerGenericCommand:000000000000005e .LVL38
C:\Users\stapi\AppData\Local\Temp\ccuIvOTG.s:424    .text.xTimerGenericCommand:000000000000006e .LVL42
C:\Users\stapi\AppData\Local\Temp\ccuIvOTG.s:420    .text.xTimerGenericCommand:0000000000000064 .LVL40
C:\Users\stapi\AppData\Local\Temp\ccuIvOTG.s:418    .text.xTimerGenericCommand:0000000000000062 .LVL39
C:\Users\stapi\AppData\Local\Temp\ccuIvOTG.s:370    .text.xTimerGenericCommand:0000000000000024 .LVL34
C:\Users\stapi\AppData\Local\Temp\ccuIvOTG.s:339    .text.xTimerGenericCommand:0000000000000008 .LVL32
C:\Users\stapi\AppData\Local\Temp\ccuIvOTG.s:403    .text.xTimerGenericCommand:0000000000000056 .LVL37
C:\Users\stapi\AppData\Local\Temp\ccuIvOTG.s:233    .text.xTimerCreate:0000000000000000 .LVL23
C:\Users\stapi\AppData\Local\Temp\ccuIvOTG.s:250    .text.xTimerCreate:000000000000000e .LVL24
C:\Users\stapi\AppData\Local\Temp\ccuIvOTG.s:269    .text.xTimerCreate:0000000000000028 .LVL27
C:\Users\stapi\AppData\Local\Temp\ccuIvOTG.s:303    .text.xTimerCreate:000000000000005e .LVL30
C:\Users\stapi\AppData\Local\Temp\ccuIvOTG.s:194    .text.xTimerCreateTimerTask:0000000000000008 .LVL20
C:\Users\stapi\AppData\Local\Temp\ccuIvOTG.s:89     .text.prvInsertTimerInActiveList:0000000000000000 .LVL5
C:\Users\stapi\AppData\Local\Temp\ccuIvOTG.s:129    .text.prvInsertTimerInActiveList:0000000000000044 .LVL11
C:\Users\stapi\AppData\Local\Temp\ccuIvOTG.s:145    .text.prvInsertTimerInActiveList:0000000000000056 .LVL14
C:\Users\stapi\AppData\Local\Temp\ccuIvOTG.s:165    .text.prvInsertTimerInActiveList:000000000000007a .LVL17
C:\Users\stapi\AppData\Local\Temp\ccuIvOTG.s:167    .text.prvInsertTimerInActiveList:000000000000007c .LVL18
C:\Users\stapi\AppData\Local\Temp\ccuIvOTG.s:171    .text.prvInsertTimerInActiveList:000000000000007e .LVL19
C:\Users\stapi\AppData\Local\Temp\ccuIvOTG.s:127    .text.prvInsertTimerInActiveList:0000000000000040 .LVL10
C:\Users\stapi\AppData\Local\Temp\ccuIvOTG.s:163    .text.prvInsertTimerInActiveList:0000000000000076 .LVL16
C:\Users\stapi\AppData\Local\Temp\ccuIvOTG.s:111    .text.prvInsertTimerInActiveList:0000000000000022 .LVL8
C:\Users\stapi\AppData\Local\Temp\ccuIvOTG.s:109    .text.prvInsertTimerInActiveList:000000000000001e .LVL7
C:\Users\stapi\AppData\Local\Temp\ccuIvOTG.s:161    .text.prvInsertTimerInActiveList:0000000000000072 .LVL15
C:\Users\stapi\AppData\Local\Temp\ccuIvOTG.s:94     .text.prvInsertTimerInActiveList:0000000000000008 .LVL6
C:\Users\stapi\AppData\Local\Temp\ccuIvOTG.s:138    .text.prvInsertTimerInActiveList:000000000000004e .LVL13
C:\Users\stapi\AppData\Local\Temp\ccuIvOTG.s:121    .text.prvInsertTimerInActiveList:0000000000000038 .LVL9
C:\Users\stapi\AppData\Local\Temp\ccuIvOTG.s:570    .text.prvSampleTimeNow:00000000000000b2 .LBE12
C:\Users\stapi\AppData\Local\Temp\ccuIvOTG.s:573    .text.prvSampleTimeNow:00000000000000b4 .LBB16
C:\Users\stapi\AppData\Local\Temp\ccuIvOTG.s:579    .text.prvSampleTimeNow:00000000000000b6 .LBE16
C:\Users\stapi\AppData\Local\Temp\ccuIvOTG.s:609    .text.prvSampleTimeNow:00000000000000d0 .LBB17
C:\Users\stapi\AppData\Local\Temp\ccuIvOTG.s:627    .text.prvSampleTimeNow:00000000000000e4 .LBE17
C:\Users\stapi\AppData\Local\Temp\ccuIvOTG.s:664    .text.prvTimerTask:0000000000000016 .LBE26
C:\Users\stapi\AppData\Local\Temp\ccuIvOTG.s:679    .text.prvTimerTask:000000000000001e .LBB38
C:\Users\stapi\AppData\Local\Temp\ccuIvOTG.s:704    .text.prvTimerTask:0000000000000034 .LBE38
C:\Users\stapi\AppData\Local\Temp\ccuIvOTG.s:875    .text.prvTimerTask:000000000000011c .LBB43
C:\Users\stapi\AppData\Local\Temp\ccuIvOTG.s:886    .text.prvTimerTask:0000000000000124 .LBE43
C:\Users\stapi\AppData\Local\Temp\ccuIvOTG.s:673    .text.prvTimerTask:000000000000001e .LBE30
C:\Users\stapi\AppData\Local\Temp\ccuIvOTG.s:706    .text.prvTimerTask:0000000000000034 .LBB39
C:\Users\stapi\AppData\Local\Temp\ccuIvOTG.s:809    .text.prvTimerTask:00000000000000d4 .LBE39
C:\Users\stapi\AppData\Local\Temp\ccuIvOTG.s:887    .text.prvTimerTask:0000000000000124 .LBB44
C:\Users\stapi\AppData\Local\Temp\ccuIvOTG.s:939    .text.prvTimerTask:000000000000016e .LBE44
C:\Users\stapi\AppData\Local\Temp\ccuIvOTG.s:807    .text.prvTimerTask:00000000000000d4 .LBE32
C:\Users\stapi\AppData\Local\Temp\ccuIvOTG.s:889    .text.prvTimerTask:0000000000000124 .LBB35
C:\Users\stapi\AppData\Local\Temp\ccuIvOTG.s:899    .text.prvTimerTask:000000000000012c .LBE35
C:\Users\stapi\AppData\Local\Temp\ccuIvOTG.s:874    .text.prvTimerTask:000000000000011c .LBE40
C:\Users\stapi\AppData\Local\Temp\ccuIvOTG.s:940    .text.prvTimerTask:000000000000016e .LBB45
C:\Users\stapi\AppData\Local\Temp\ccuIvOTG.s:1058   .text.prvTimerTask:000000000000021e .LBE45

UNDEFINED SYMBOLS
__riscv_save_3
vPortEnterCritical
vListInitialise
xQueueGenericCreate
vPortExitCritical
__riscv_restore_3
__riscv_save_0
vListInsert
__riscv_restore_0
xTaskCreate
__riscv_save_7
pvPortMalloc
vListInitialiseItem
__riscv_restore_7
xTaskGetSchedulerState
xQueueGenericSend
xQueueGenericSendFromISR
xTaskGetTickCount
uxListRemove
__riscv_save_9
vTaskSuspendAll
xTaskResumeAll
xQueueReceive
vQueueWaitForMessageRestricted
portYIELD
vPortFree
__riscv_save_2
__riscv_restore_2
__riscv_save_1
__riscv_restore_1
