   1              		.file	"gd32vw55x_usart.c"
   2              		.option nopic
   3              		.attribute arch, "rv32i2p0_m2p0_a2p0_f2p0_c2p0_b_p0p94"
   4              		.attribute unaligned_access, 0
   5              		.attribute stack_align, 16
   6              		.text
   7              	.Ltext0:
   8              		.cfi_sections	.debug_frame
   9              		.section	.text.usart_deinit,"ax",@progbits
  10              		.align	1
  11              		.globl	usart_deinit
  13              	usart_deinit:
  14              	.LFB365:
  15              		.file 1 "C:/Users/stapi/OneDrive/Desktop/GD32VW553/GD32VW55X_Wifi_BLE_SDK/GD32VW55x_RELEASE_V1.0.2
   1:C:/Users/stapi/OneDrive/Desktop/GD32VW553/GD32VW55X_Wifi_BLE_SDK/GD32VW55x_RELEASE_V1.0.2/MSDK/plf/GD32VW55x_standard_peripheral/Source\gd32vw55x_usart.c **** /*!
   2:C:/Users/stapi/OneDrive/Desktop/GD32VW553/GD32VW55X_Wifi_BLE_SDK/GD32VW55x_RELEASE_V1.0.2/MSDK/plf/GD32VW55x_standard_peripheral/Source\gd32vw55x_usart.c ****     \file    gd32vw55x_usart.c
   3:C:/Users/stapi/OneDrive/Desktop/GD32VW553/GD32VW55X_Wifi_BLE_SDK/GD32VW55x_RELEASE_V1.0.2/MSDK/plf/GD32VW55x_standard_peripheral/Source\gd32vw55x_usart.c ****     \brief   USART driver
   4:C:/Users/stapi/OneDrive/Desktop/GD32VW553/GD32VW55X_Wifi_BLE_SDK/GD32VW55x_RELEASE_V1.0.2/MSDK/plf/GD32VW55x_standard_peripheral/Source\gd32vw55x_usart.c **** 
   5:C:/Users/stapi/OneDrive/Desktop/GD32VW553/GD32VW55X_Wifi_BLE_SDK/GD32VW55x_RELEASE_V1.0.2/MSDK/plf/GD32VW55x_standard_peripheral/Source\gd32vw55x_usart.c ****     \version 2023-07-20, V1.0.0, firmware for GD32VW55x
   6:C:/Users/stapi/OneDrive/Desktop/GD32VW553/GD32VW55X_Wifi_BLE_SDK/GD32VW55x_RELEASE_V1.0.2/MSDK/plf/GD32VW55x_standard_peripheral/Source\gd32vw55x_usart.c **** */
   7:C:/Users/stapi/OneDrive/Desktop/GD32VW553/GD32VW55X_Wifi_BLE_SDK/GD32VW55x_RELEASE_V1.0.2/MSDK/plf/GD32VW55x_standard_peripheral/Source\gd32vw55x_usart.c **** 
   8:C:/Users/stapi/OneDrive/Desktop/GD32VW553/GD32VW55X_Wifi_BLE_SDK/GD32VW55x_RELEASE_V1.0.2/MSDK/plf/GD32VW55x_standard_peripheral/Source\gd32vw55x_usart.c **** /*
   9:C:/Users/stapi/OneDrive/Desktop/GD32VW553/GD32VW55X_Wifi_BLE_SDK/GD32VW55x_RELEASE_V1.0.2/MSDK/plf/GD32VW55x_standard_peripheral/Source\gd32vw55x_usart.c ****     Copyright (c) 2023, GigaDevice Semiconductor Inc.
  10:C:/Users/stapi/OneDrive/Desktop/GD32VW553/GD32VW55X_Wifi_BLE_SDK/GD32VW55x_RELEASE_V1.0.2/MSDK/plf/GD32VW55x_standard_peripheral/Source\gd32vw55x_usart.c **** 
  11:C:/Users/stapi/OneDrive/Desktop/GD32VW553/GD32VW55X_Wifi_BLE_SDK/GD32VW55x_RELEASE_V1.0.2/MSDK/plf/GD32VW55x_standard_peripheral/Source\gd32vw55x_usart.c ****     Redistribution and use in source and binary forms, with or without modification,
  12:C:/Users/stapi/OneDrive/Desktop/GD32VW553/GD32VW55X_Wifi_BLE_SDK/GD32VW55x_RELEASE_V1.0.2/MSDK/plf/GD32VW55x_standard_peripheral/Source\gd32vw55x_usart.c **** are permitted provided that the following conditions are met:
  13:C:/Users/stapi/OneDrive/Desktop/GD32VW553/GD32VW55X_Wifi_BLE_SDK/GD32VW55x_RELEASE_V1.0.2/MSDK/plf/GD32VW55x_standard_peripheral/Source\gd32vw55x_usart.c **** 
  14:C:/Users/stapi/OneDrive/Desktop/GD32VW553/GD32VW55X_Wifi_BLE_SDK/GD32VW55x_RELEASE_V1.0.2/MSDK/plf/GD32VW55x_standard_peripheral/Source\gd32vw55x_usart.c ****     1. Redistributions of source code must retain the above copyright notice, this
  15:C:/Users/stapi/OneDrive/Desktop/GD32VW553/GD32VW55X_Wifi_BLE_SDK/GD32VW55x_RELEASE_V1.0.2/MSDK/plf/GD32VW55x_standard_peripheral/Source\gd32vw55x_usart.c ****        list of conditions and the following disclaimer.
  16:C:/Users/stapi/OneDrive/Desktop/GD32VW553/GD32VW55X_Wifi_BLE_SDK/GD32VW55x_RELEASE_V1.0.2/MSDK/plf/GD32VW55x_standard_peripheral/Source\gd32vw55x_usart.c ****     2. Redistributions in binary form must reproduce the above copyright notice,
  17:C:/Users/stapi/OneDrive/Desktop/GD32VW553/GD32VW55X_Wifi_BLE_SDK/GD32VW55x_RELEASE_V1.0.2/MSDK/plf/GD32VW55x_standard_peripheral/Source\gd32vw55x_usart.c ****        this list of conditions and the following disclaimer in the documentation
  18:C:/Users/stapi/OneDrive/Desktop/GD32VW553/GD32VW55X_Wifi_BLE_SDK/GD32VW55x_RELEASE_V1.0.2/MSDK/plf/GD32VW55x_standard_peripheral/Source\gd32vw55x_usart.c ****        and/or other materials provided with the distribution.
  19:C:/Users/stapi/OneDrive/Desktop/GD32VW553/GD32VW55X_Wifi_BLE_SDK/GD32VW55x_RELEASE_V1.0.2/MSDK/plf/GD32VW55x_standard_peripheral/Source\gd32vw55x_usart.c ****     3. Neither the name of the copyright holder nor the names of its contributors
  20:C:/Users/stapi/OneDrive/Desktop/GD32VW553/GD32VW55X_Wifi_BLE_SDK/GD32VW55x_RELEASE_V1.0.2/MSDK/plf/GD32VW55x_standard_peripheral/Source\gd32vw55x_usart.c ****        may be used to endorse or promote products derived from this software without
  21:C:/Users/stapi/OneDrive/Desktop/GD32VW553/GD32VW55X_Wifi_BLE_SDK/GD32VW55x_RELEASE_V1.0.2/MSDK/plf/GD32VW55x_standard_peripheral/Source\gd32vw55x_usart.c ****        specific prior written permission.
  22:C:/Users/stapi/OneDrive/Desktop/GD32VW553/GD32VW55X_Wifi_BLE_SDK/GD32VW55x_RELEASE_V1.0.2/MSDK/plf/GD32VW55x_standard_peripheral/Source\gd32vw55x_usart.c **** 
  23:C:/Users/stapi/OneDrive/Desktop/GD32VW553/GD32VW55X_Wifi_BLE_SDK/GD32VW55x_RELEASE_V1.0.2/MSDK/plf/GD32VW55x_standard_peripheral/Source\gd32vw55x_usart.c ****     THIS SOFTWARE IS PROVIDED BY THE COPYRIGHT HOLDERS AND CONTRIBUTORS "AS IS"
  24:C:/Users/stapi/OneDrive/Desktop/GD32VW553/GD32VW55X_Wifi_BLE_SDK/GD32VW55x_RELEASE_V1.0.2/MSDK/plf/GD32VW55x_standard_peripheral/Source\gd32vw55x_usart.c **** AND ANY EXPRESS OR IMPLIED WARRANTIES, INCLUDING, BUT NOT LIMITED TO, THE IMPLIED
  25:C:/Users/stapi/OneDrive/Desktop/GD32VW553/GD32VW55X_Wifi_BLE_SDK/GD32VW55x_RELEASE_V1.0.2/MSDK/plf/GD32VW55x_standard_peripheral/Source\gd32vw55x_usart.c **** WARRANTIES OF MERCHANTABILITY AND FITNESS FOR A PARTICULAR PURPOSE ARE DISCLAIMED.
  26:C:/Users/stapi/OneDrive/Desktop/GD32VW553/GD32VW55X_Wifi_BLE_SDK/GD32VW55x_RELEASE_V1.0.2/MSDK/plf/GD32VW55x_standard_peripheral/Source\gd32vw55x_usart.c **** IN NO EVENT SHALL THE COPYRIGHT HOLDER OR CONTRIBUTORS BE LIABLE FOR ANY DIRECT,
  27:C:/Users/stapi/OneDrive/Desktop/GD32VW553/GD32VW55X_Wifi_BLE_SDK/GD32VW55x_RELEASE_V1.0.2/MSDK/plf/GD32VW55x_standard_peripheral/Source\gd32vw55x_usart.c **** INDIRECT, INCIDENTAL, SPECIAL, EXEMPLARY, OR CONSEQUENTIAL DAMAGES (INCLUDING, BUT
  28:C:/Users/stapi/OneDrive/Desktop/GD32VW553/GD32VW55X_Wifi_BLE_SDK/GD32VW55x_RELEASE_V1.0.2/MSDK/plf/GD32VW55x_standard_peripheral/Source\gd32vw55x_usart.c **** NOT LIMITED TO, PROCUREMENT OF SUBSTITUTE GOODS OR SERVICES; LOSS OF USE, DATA, OR
  29:C:/Users/stapi/OneDrive/Desktop/GD32VW553/GD32VW55X_Wifi_BLE_SDK/GD32VW55x_RELEASE_V1.0.2/MSDK/plf/GD32VW55x_standard_peripheral/Source\gd32vw55x_usart.c **** PROFITS; OR BUSINESS INTERRUPTION) HOWEVER CAUSED AND ON ANY THEORY OF LIABILITY,
  30:C:/Users/stapi/OneDrive/Desktop/GD32VW553/GD32VW55X_Wifi_BLE_SDK/GD32VW55x_RELEASE_V1.0.2/MSDK/plf/GD32VW55x_standard_peripheral/Source\gd32vw55x_usart.c **** WHETHER IN CONTRACT, STRICT LIABILITY, OR TORT (INCLUDING NEGLIGENCE OR OTHERWISE)
  31:C:/Users/stapi/OneDrive/Desktop/GD32VW553/GD32VW55X_Wifi_BLE_SDK/GD32VW55x_RELEASE_V1.0.2/MSDK/plf/GD32VW55x_standard_peripheral/Source\gd32vw55x_usart.c **** ARISING IN ANY WAY OUT OF THE USE OF THIS SOFTWARE, EVEN IF ADVISED OF THE POSSIBILITY
  32:C:/Users/stapi/OneDrive/Desktop/GD32VW553/GD32VW55X_Wifi_BLE_SDK/GD32VW55x_RELEASE_V1.0.2/MSDK/plf/GD32VW55x_standard_peripheral/Source\gd32vw55x_usart.c **** OF SUCH DAMAGE.
  33:C:/Users/stapi/OneDrive/Desktop/GD32VW553/GD32VW55X_Wifi_BLE_SDK/GD32VW55x_RELEASE_V1.0.2/MSDK/plf/GD32VW55x_standard_peripheral/Source\gd32vw55x_usart.c **** */
  34:C:/Users/stapi/OneDrive/Desktop/GD32VW553/GD32VW55X_Wifi_BLE_SDK/GD32VW55x_RELEASE_V1.0.2/MSDK/plf/GD32VW55x_standard_peripheral/Source\gd32vw55x_usart.c **** 
  35:C:/Users/stapi/OneDrive/Desktop/GD32VW553/GD32VW55X_Wifi_BLE_SDK/GD32VW55x_RELEASE_V1.0.2/MSDK/plf/GD32VW55x_standard_peripheral/Source\gd32vw55x_usart.c **** #include "gd32vw55x_usart.h"
  36:C:/Users/stapi/OneDrive/Desktop/GD32VW553/GD32VW55X_Wifi_BLE_SDK/GD32VW55x_RELEASE_V1.0.2/MSDK/plf/GD32VW55x_standard_peripheral/Source\gd32vw55x_usart.c **** 
  37:C:/Users/stapi/OneDrive/Desktop/GD32VW553/GD32VW55X_Wifi_BLE_SDK/GD32VW55x_RELEASE_V1.0.2/MSDK/plf/GD32VW55x_standard_peripheral/Source\gd32vw55x_usart.c **** /* USART register bit offset */
  38:C:/Users/stapi/OneDrive/Desktop/GD32VW553/GD32VW55X_Wifi_BLE_SDK/GD32VW55x_RELEASE_V1.0.2/MSDK/plf/GD32VW55x_standard_peripheral/Source\gd32vw55x_usart.c **** #define GP_GUAT_OFFSET            ((uint32_t)8U)       /* bit offset of GUAT in USART_GP */
  39:C:/Users/stapi/OneDrive/Desktop/GD32VW553/GD32VW55X_Wifi_BLE_SDK/GD32VW55x_RELEASE_V1.0.2/MSDK/plf/GD32VW55x_standard_peripheral/Source\gd32vw55x_usart.c **** #define CTL0_DED_OFFSET           ((uint32_t)16U)      /* bit offset of DED in USART_CTL0 */
  40:C:/Users/stapi/OneDrive/Desktop/GD32VW553/GD32VW55X_Wifi_BLE_SDK/GD32VW55x_RELEASE_V1.0.2/MSDK/plf/GD32VW55x_standard_peripheral/Source\gd32vw55x_usart.c **** #define CTL0_DEA_OFFSET           ((uint32_t)21U)      /* bit offset of DEA in USART_CTL0 */
  41:C:/Users/stapi/OneDrive/Desktop/GD32VW553/GD32VW55X_Wifi_BLE_SDK/GD32VW55x_RELEASE_V1.0.2/MSDK/plf/GD32VW55x_standard_peripheral/Source\gd32vw55x_usart.c **** #define CTL1_ADDR_OFFSET          ((uint32_t)24U)      /* bit offset of ADDR in USART_CTL1 */
  42:C:/Users/stapi/OneDrive/Desktop/GD32VW553/GD32VW55X_Wifi_BLE_SDK/GD32VW55x_RELEASE_V1.0.2/MSDK/plf/GD32VW55x_standard_peripheral/Source\gd32vw55x_usart.c **** #define CTL2_SCRTNUM_OFFSET       ((uint32_t)17U)       /* bit offset of SCRTNUM in USART_CTL2 */
  43:C:/Users/stapi/OneDrive/Desktop/GD32VW553/GD32VW55X_Wifi_BLE_SDK/GD32VW55x_RELEASE_V1.0.2/MSDK/plf/GD32VW55x_standard_peripheral/Source\gd32vw55x_usart.c **** #define RT_BL_OFFSET              ((uint32_t)24U)      /* bit offset of BL in USART_RT */
  44:C:/Users/stapi/OneDrive/Desktop/GD32VW553/GD32VW55X_Wifi_BLE_SDK/GD32VW55x_RELEASE_V1.0.2/MSDK/plf/GD32VW55x_standard_peripheral/Source\gd32vw55x_usart.c **** 
  45:C:/Users/stapi/OneDrive/Desktop/GD32VW553/GD32VW55X_Wifi_BLE_SDK/GD32VW55x_RELEASE_V1.0.2/MSDK/plf/GD32VW55x_standard_peripheral/Source\gd32vw55x_usart.c **** /*!
  46:C:/Users/stapi/OneDrive/Desktop/GD32VW553/GD32VW55X_Wifi_BLE_SDK/GD32VW55x_RELEASE_V1.0.2/MSDK/plf/GD32VW55x_standard_peripheral/Source\gd32vw55x_usart.c ****     \brief      reset USART
  47:C:/Users/stapi/OneDrive/Desktop/GD32VW553/GD32VW55X_Wifi_BLE_SDK/GD32VW55x_RELEASE_V1.0.2/MSDK/plf/GD32VW55x_standard_peripheral/Source\gd32vw55x_usart.c ****     \param[in]  usart_periph: USART0/UARTx(x=1,2)
  48:C:/Users/stapi/OneDrive/Desktop/GD32VW553/GD32VW55X_Wifi_BLE_SDK/GD32VW55x_RELEASE_V1.0.2/MSDK/plf/GD32VW55x_standard_peripheral/Source\gd32vw55x_usart.c ****     \param[out] none
  49:C:/Users/stapi/OneDrive/Desktop/GD32VW553/GD32VW55X_Wifi_BLE_SDK/GD32VW55x_RELEASE_V1.0.2/MSDK/plf/GD32VW55x_standard_peripheral/Source\gd32vw55x_usart.c ****     \retval     none
  50:C:/Users/stapi/OneDrive/Desktop/GD32VW553/GD32VW55X_Wifi_BLE_SDK/GD32VW55x_RELEASE_V1.0.2/MSDK/plf/GD32VW55x_standard_peripheral/Source\gd32vw55x_usart.c **** */
  51:C:/Users/stapi/OneDrive/Desktop/GD32VW553/GD32VW55X_Wifi_BLE_SDK/GD32VW55x_RELEASE_V1.0.2/MSDK/plf/GD32VW55x_standard_peripheral/Source\gd32vw55x_usart.c **** void usart_deinit(uint32_t usart_periph)
  52:C:/Users/stapi/OneDrive/Desktop/GD32VW553/GD32VW55X_Wifi_BLE_SDK/GD32VW55x_RELEASE_V1.0.2/MSDK/plf/GD32VW55x_standard_peripheral/Source\gd32vw55x_usart.c **** {
  16              		.loc 1 52 1
  17              		.cfi_startproc
  18              	.LVL0:
  19 0000 17030000 		call	t0,__riscv_save_1
  19      E7020300 
  20              		.cfi_offset 8, -8
  21              		.cfi_offset 1, -4
  22              		.cfi_def_cfa_offset 16
  53:C:/Users/stapi/OneDrive/Desktop/GD32VW553/GD32VW55X_Wifi_BLE_SDK/GD32VW55x_RELEASE_V1.0.2/MSDK/plf/GD32VW55x_standard_peripheral/Source\gd32vw55x_usart.c ****     switch(usart_periph){
  23              		.loc 1 53 5
  24 0008 B7570040 		li	a5,1073762304
  25 000c 93870780 		addi	a5,a5,-2048
  26 0010 6300F502 		beq	a0,a5,.L2
  27 0014 B7170140 		li	a5,1073811456
  28 0018 630EF504 		beq	a0,a5,.L3
  29 001c B7470040 		li	a5,1073758208
  30 0020 93870740 		addi	a5,a5,1024
  31 0024 6307F502 		beq	a0,a5,.L8
  54:C:/Users/stapi/OneDrive/Desktop/GD32VW553/GD32VW55X_Wifi_BLE_SDK/GD32VW55x_RELEASE_V1.0.2/MSDK/plf/GD32VW55x_standard_peripheral/Source\gd32vw55x_usart.c ****     case USART0:
  55:C:/Users/stapi/OneDrive/Desktop/GD32VW553/GD32VW55X_Wifi_BLE_SDK/GD32VW55x_RELEASE_V1.0.2/MSDK/plf/GD32VW55x_standard_peripheral/Source\gd32vw55x_usart.c ****         /* reset USART0 */
  56:C:/Users/stapi/OneDrive/Desktop/GD32VW553/GD32VW55X_Wifi_BLE_SDK/GD32VW55x_RELEASE_V1.0.2/MSDK/plf/GD32VW55x_standard_peripheral/Source\gd32vw55x_usart.c ****         rcu_periph_reset_enable(RCU_USART0RST);
  57:C:/Users/stapi/OneDrive/Desktop/GD32VW553/GD32VW55X_Wifi_BLE_SDK/GD32VW55x_RELEASE_V1.0.2/MSDK/plf/GD32VW55x_standard_peripheral/Source\gd32vw55x_usart.c ****         rcu_periph_reset_disable(RCU_USART0RST);
  58:C:/Users/stapi/OneDrive/Desktop/GD32VW553/GD32VW55X_Wifi_BLE_SDK/GD32VW55x_RELEASE_V1.0.2/MSDK/plf/GD32VW55x_standard_peripheral/Source\gd32vw55x_usart.c ****         break;
  59:C:/Users/stapi/OneDrive/Desktop/GD32VW553/GD32VW55X_Wifi_BLE_SDK/GD32VW55x_RELEASE_V1.0.2/MSDK/plf/GD32VW55x_standard_peripheral/Source\gd32vw55x_usart.c ****     case UART1:
  60:C:/Users/stapi/OneDrive/Desktop/GD32VW553/GD32VW55X_Wifi_BLE_SDK/GD32VW55x_RELEASE_V1.0.2/MSDK/plf/GD32VW55x_standard_peripheral/Source\gd32vw55x_usart.c ****         /* reset UART1 */
  61:C:/Users/stapi/OneDrive/Desktop/GD32VW553/GD32VW55X_Wifi_BLE_SDK/GD32VW55x_RELEASE_V1.0.2/MSDK/plf/GD32VW55x_standard_peripheral/Source\gd32vw55x_usart.c ****         rcu_periph_reset_enable(RCU_UART1RST);
  62:C:/Users/stapi/OneDrive/Desktop/GD32VW553/GD32VW55X_Wifi_BLE_SDK/GD32VW55x_RELEASE_V1.0.2/MSDK/plf/GD32VW55x_standard_peripheral/Source\gd32vw55x_usart.c ****         rcu_periph_reset_disable(RCU_UART1RST);
  63:C:/Users/stapi/OneDrive/Desktop/GD32VW553/GD32VW55X_Wifi_BLE_SDK/GD32VW55x_RELEASE_V1.0.2/MSDK/plf/GD32VW55x_standard_peripheral/Source\gd32vw55x_usart.c ****         break;
  64:C:/Users/stapi/OneDrive/Desktop/GD32VW553/GD32VW55X_Wifi_BLE_SDK/GD32VW55x_RELEASE_V1.0.2/MSDK/plf/GD32VW55x_standard_peripheral/Source\gd32vw55x_usart.c ****     case UART2:
  65:C:/Users/stapi/OneDrive/Desktop/GD32VW553/GD32VW55X_Wifi_BLE_SDK/GD32VW55x_RELEASE_V1.0.2/MSDK/plf/GD32VW55x_standard_peripheral/Source\gd32vw55x_usart.c ****         /* reset UART2 */
  66:C:/Users/stapi/OneDrive/Desktop/GD32VW553/GD32VW55X_Wifi_BLE_SDK/GD32VW55x_RELEASE_V1.0.2/MSDK/plf/GD32VW55x_standard_peripheral/Source\gd32vw55x_usart.c ****         rcu_periph_reset_enable(RCU_UART2RST);
  67:C:/Users/stapi/OneDrive/Desktop/GD32VW553/GD32VW55X_Wifi_BLE_SDK/GD32VW55x_RELEASE_V1.0.2/MSDK/plf/GD32VW55x_standard_peripheral/Source\gd32vw55x_usart.c ****         rcu_periph_reset_disable(RCU_UART2RST);
  68:C:/Users/stapi/OneDrive/Desktop/GD32VW553/GD32VW55X_Wifi_BLE_SDK/GD32VW55x_RELEASE_V1.0.2/MSDK/plf/GD32VW55x_standard_peripheral/Source\gd32vw55x_usart.c ****         break;
  69:C:/Users/stapi/OneDrive/Desktop/GD32VW553/GD32VW55X_Wifi_BLE_SDK/GD32VW55x_RELEASE_V1.0.2/MSDK/plf/GD32VW55x_standard_peripheral/Source\gd32vw55x_usart.c ****     default:
  70:C:/Users/stapi/OneDrive/Desktop/GD32VW553/GD32VW55X_Wifi_BLE_SDK/GD32VW55x_RELEASE_V1.0.2/MSDK/plf/GD32VW55x_standard_peripheral/Source\gd32vw55x_usart.c ****         break;
  71:C:/Users/stapi/OneDrive/Desktop/GD32VW553/GD32VW55X_Wifi_BLE_SDK/GD32VW55x_RELEASE_V1.0.2/MSDK/plf/GD32VW55x_standard_peripheral/Source\gd32vw55x_usart.c ****     }
  72:C:/Users/stapi/OneDrive/Desktop/GD32VW553/GD32VW55X_Wifi_BLE_SDK/GD32VW55x_RELEASE_V1.0.2/MSDK/plf/GD32VW55x_standard_peripheral/Source\gd32vw55x_usart.c **** }
  32              		.loc 1 72 1 is_stmt 0
  33 0028 17030000 		tail	__riscv_restore_1
  33      67000300 
  34              		.cfi_remember_state
  35              		.cfi_restore 8
  36              		.cfi_restore 1
  37              		.cfi_def_cfa_offset 0
  38              	.L2:
  39              		.cfi_restore_state
  56:C:/Users/stapi/OneDrive/Desktop/GD32VW553/GD32VW55X_Wifi_BLE_SDK/GD32VW55x_RELEASE_V1.0.2/MSDK/plf/GD32VW55x_standard_peripheral/Source\gd32vw55x_usart.c ****         rcu_periph_reset_disable(RCU_USART0RST);
  40              		.loc 1 56 9 is_stmt 1
  41 0030 0564     		li	s0,4096
  42 0032 13052481 		addi	a0,s0,-2030
  43              	.LVL1:
  44 0036 97000000 		call	rcu_periph_reset_enable
  44      E7800000 
  45              	.LVL2:
  57:C:/Users/stapi/OneDrive/Desktop/GD32VW553/GD32VW55X_Wifi_BLE_SDK/GD32VW55x_RELEASE_V1.0.2/MSDK/plf/GD32VW55x_standard_peripheral/Source\gd32vw55x_usart.c ****         break;
  46              		.loc 1 57 9
  47 003e 13052481 		addi	a0,s0,-2030
  48 0042 97000000 		call	rcu_periph_reset_disable
  48      E7800000 
  49              	.LVL3:
  58:C:/Users/stapi/OneDrive/Desktop/GD32VW553/GD32VW55X_Wifi_BLE_SDK/GD32VW55x_RELEASE_V1.0.2/MSDK/plf/GD32VW55x_standard_peripheral/Source\gd32vw55x_usart.c ****     case UART1:
  50              		.loc 1 58 9
  51              		.loc 1 72 1 is_stmt 0
  52 004a 17030000 		tail	__riscv_restore_1
  52      67000300 
  53              		.cfi_remember_state
  54              		.cfi_restore 8
  55              		.cfi_restore 1
  56              		.cfi_def_cfa_offset 0
  57              	.LVL4:
  58              	.L8:
  59              		.cfi_restore_state
  61:C:/Users/stapi/OneDrive/Desktop/GD32VW553/GD32VW55X_Wifi_BLE_SDK/GD32VW55x_RELEASE_V1.0.2/MSDK/plf/GD32VW55x_standard_peripheral/Source\gd32vw55x_usart.c ****         rcu_periph_reset_disable(RCU_UART1RST);
  60              		.loc 1 61 9 is_stmt 1
  61 0052 0564     		li	s0,4096
  62 0054 13051481 		addi	a0,s0,-2031
  63              	.LVL5:
  64 0058 97000000 		call	rcu_periph_reset_enable
  64      E7800000 
  65              	.LVL6:
  62:C:/Users/stapi/OneDrive/Desktop/GD32VW553/GD32VW55X_Wifi_BLE_SDK/GD32VW55x_RELEASE_V1.0.2/MSDK/plf/GD32VW55x_standard_peripheral/Source\gd32vw55x_usart.c ****         break;
  66              		.loc 1 62 9
  67 0060 13051481 		addi	a0,s0,-2031
  68 0064 97000000 		call	rcu_periph_reset_disable
  68      E7800000 
  69              	.LVL7:
  63:C:/Users/stapi/OneDrive/Desktop/GD32VW553/GD32VW55X_Wifi_BLE_SDK/GD32VW55x_RELEASE_V1.0.2/MSDK/plf/GD32VW55x_standard_peripheral/Source\gd32vw55x_usart.c ****     case UART2:
  70              		.loc 1 63 9
  71              		.loc 1 72 1 is_stmt 0
  72 006c 17030000 		tail	__riscv_restore_1
  72      67000300 
  73              		.cfi_remember_state
  74              		.cfi_restore 8
  75              		.cfi_restore 1
  76              		.cfi_def_cfa_offset 0
  77              	.LVL8:
  78              	.L3:
  79              		.cfi_restore_state
  66:C:/Users/stapi/OneDrive/Desktop/GD32VW553/GD32VW55X_Wifi_BLE_SDK/GD32VW55x_RELEASE_V1.0.2/MSDK/plf/GD32VW55x_standard_peripheral/Source\gd32vw55x_usart.c ****         rcu_periph_reset_disable(RCU_UART2RST);
  80              		.loc 1 66 9 is_stmt 1
  81 0074 0564     		li	s0,4096
  82 0076 13054490 		addi	a0,s0,-1788
  83              	.LVL9:
  84 007a 97000000 		call	rcu_periph_reset_enable
  84      E7800000 
  85              	.LVL10:
  67:C:/Users/stapi/OneDrive/Desktop/GD32VW553/GD32VW55X_Wifi_BLE_SDK/GD32VW55x_RELEASE_V1.0.2/MSDK/plf/GD32VW55x_standard_peripheral/Source\gd32vw55x_usart.c ****         break;
  86              		.loc 1 67 9
  87 0082 13054490 		addi	a0,s0,-1788
  88 0086 97000000 		call	rcu_periph_reset_disable
  88      E7800000 
  89              	.LVL11:
  68:C:/Users/stapi/OneDrive/Desktop/GD32VW553/GD32VW55X_Wifi_BLE_SDK/GD32VW55x_RELEASE_V1.0.2/MSDK/plf/GD32VW55x_standard_peripheral/Source\gd32vw55x_usart.c ****     default:
  90              		.loc 1 68 9
  91              		.loc 1 72 1 is_stmt 0
  92 008e 17030000 		tail	__riscv_restore_1
  92      67000300 
  93              		.cfi_restore 8
  94              		.cfi_restore 1
  95              		.cfi_def_cfa_offset 0
  96              		.cfi_endproc
  97              	.LFE365:
  99              		.section	.text.usart_baudrate_set,"ax",@progbits
 100              		.align	1
 101              		.globl	usart_baudrate_set
 103              	usart_baudrate_set:
 104              	.LFB366:
  73:C:/Users/stapi/OneDrive/Desktop/GD32VW553/GD32VW55X_Wifi_BLE_SDK/GD32VW55x_RELEASE_V1.0.2/MSDK/plf/GD32VW55x_standard_peripheral/Source\gd32vw55x_usart.c **** 
  74:C:/Users/stapi/OneDrive/Desktop/GD32VW553/GD32VW55X_Wifi_BLE_SDK/GD32VW55x_RELEASE_V1.0.2/MSDK/plf/GD32VW55x_standard_peripheral/Source\gd32vw55x_usart.c **** /*!
  75:C:/Users/stapi/OneDrive/Desktop/GD32VW553/GD32VW55X_Wifi_BLE_SDK/GD32VW55x_RELEASE_V1.0.2/MSDK/plf/GD32VW55x_standard_peripheral/Source\gd32vw55x_usart.c ****     \brief      configure USART baud rate value
  76:C:/Users/stapi/OneDrive/Desktop/GD32VW553/GD32VW55X_Wifi_BLE_SDK/GD32VW55x_RELEASE_V1.0.2/MSDK/plf/GD32VW55x_standard_peripheral/Source\gd32vw55x_usart.c ****     \param[in]  usart_periph: USART0/UARTx(x=1,2)
  77:C:/Users/stapi/OneDrive/Desktop/GD32VW553/GD32VW55X_Wifi_BLE_SDK/GD32VW55x_RELEASE_V1.0.2/MSDK/plf/GD32VW55x_standard_peripheral/Source\gd32vw55x_usart.c ****     \param[in]  baudval: baud rate value
  78:C:/Users/stapi/OneDrive/Desktop/GD32VW553/GD32VW55X_Wifi_BLE_SDK/GD32VW55x_RELEASE_V1.0.2/MSDK/plf/GD32VW55x_standard_peripheral/Source\gd32vw55x_usart.c ****     \param[out] none
  79:C:/Users/stapi/OneDrive/Desktop/GD32VW553/GD32VW55X_Wifi_BLE_SDK/GD32VW55x_RELEASE_V1.0.2/MSDK/plf/GD32VW55x_standard_peripheral/Source\gd32vw55x_usart.c ****     \retval     none
  80:C:/Users/stapi/OneDrive/Desktop/GD32VW553/GD32VW55X_Wifi_BLE_SDK/GD32VW55x_RELEASE_V1.0.2/MSDK/plf/GD32VW55x_standard_peripheral/Source\gd32vw55x_usart.c **** */
  81:C:/Users/stapi/OneDrive/Desktop/GD32VW553/GD32VW55X_Wifi_BLE_SDK/GD32VW55x_RELEASE_V1.0.2/MSDK/plf/GD32VW55x_standard_peripheral/Source\gd32vw55x_usart.c **** void usart_baudrate_set(uint32_t usart_periph, uint32_t baudval)
  82:C:/Users/stapi/OneDrive/Desktop/GD32VW553/GD32VW55X_Wifi_BLE_SDK/GD32VW55x_RELEASE_V1.0.2/MSDK/plf/GD32VW55x_standard_peripheral/Source\gd32vw55x_usart.c **** {
 105              		.loc 1 82 1 is_stmt 1
 106              		.cfi_startproc
 107              	.LVL12:
 108 0000 17030000 		call	t0,__riscv_save_2
 108      E7020300 
 109              		.cfi_offset 9, -12
 110              		.cfi_offset 8, -8
 111              		.cfi_offset 1, -4
 112              		.cfi_def_cfa_offset 16
  83:C:/Users/stapi/OneDrive/Desktop/GD32VW553/GD32VW55X_Wifi_BLE_SDK/GD32VW55x_RELEASE_V1.0.2/MSDK/plf/GD32VW55x_standard_peripheral/Source\gd32vw55x_usart.c ****     uint32_t uclk = 0U, intdiv = 0U, fradiv = 0U, udiv = 0U;
 113              		.loc 1 83 5
 114              	.LVL13:
  84:C:/Users/stapi/OneDrive/Desktop/GD32VW553/GD32VW55X_Wifi_BLE_SDK/GD32VW55x_RELEASE_V1.0.2/MSDK/plf/GD32VW55x_standard_peripheral/Source\gd32vw55x_usart.c ****     switch(usart_periph){
 115              		.loc 1 84 5
 116 0008 B7570040 		li	a5,1073762304
 117 000c 93870780 		addi	a5,a5,-2048
  82:C:/Users/stapi/OneDrive/Desktop/GD32VW553/GD32VW55X_Wifi_BLE_SDK/GD32VW55x_RELEASE_V1.0.2/MSDK/plf/GD32VW55x_standard_peripheral/Source\gd32vw55x_usart.c ****     uint32_t uclk = 0U, intdiv = 0U, fradiv = 0U, udiv = 0U;
 118              		.loc 1 82 1 is_stmt 0
 119 0010 2A84     		mv	s0,a0
 120 0012 AE84     		mv	s1,a1
 121              		.loc 1 84 5
 122 0014 630EF504 		beq	a0,a5,.L10
 123 0018 B7170140 		li	a5,1073811456
 124 001c 6306F506 		beq	a0,a5,.L11
 125 0020 B7470040 		li	a5,1073758208
 126 0024 93870740 		addi	a5,a5,1024
 127 0028 0145     		li	a0,0
 128              	.LVL14:
 129 002a 6309F404 		beq	s0,a5,.L17
 130              	.LVL15:
 131              	.L13:
  85:C:/Users/stapi/OneDrive/Desktop/GD32VW553/GD32VW55X_Wifi_BLE_SDK/GD32VW55x_RELEASE_V1.0.2/MSDK/plf/GD32VW55x_standard_peripheral/Source\gd32vw55x_usart.c ****          /* get clock frequency */
  86:C:/Users/stapi/OneDrive/Desktop/GD32VW553/GD32VW55X_Wifi_BLE_SDK/GD32VW55x_RELEASE_V1.0.2/MSDK/plf/GD32VW55x_standard_peripheral/Source\gd32vw55x_usart.c ****     case USART0:
  87:C:/Users/stapi/OneDrive/Desktop/GD32VW553/GD32VW55X_Wifi_BLE_SDK/GD32VW55x_RELEASE_V1.0.2/MSDK/plf/GD32VW55x_standard_peripheral/Source\gd32vw55x_usart.c ****          /* get USART0 clock */
  88:C:/Users/stapi/OneDrive/Desktop/GD32VW553/GD32VW55X_Wifi_BLE_SDK/GD32VW55x_RELEASE_V1.0.2/MSDK/plf/GD32VW55x_standard_peripheral/Source\gd32vw55x_usart.c ****          uclk = rcu_clock_freq_get(CK_USART0);
  89:C:/Users/stapi/OneDrive/Desktop/GD32VW553/GD32VW55X_Wifi_BLE_SDK/GD32VW55x_RELEASE_V1.0.2/MSDK/plf/GD32VW55x_standard_peripheral/Source\gd32vw55x_usart.c ****          break;
  90:C:/Users/stapi/OneDrive/Desktop/GD32VW553/GD32VW55X_Wifi_BLE_SDK/GD32VW55x_RELEASE_V1.0.2/MSDK/plf/GD32VW55x_standard_peripheral/Source\gd32vw55x_usart.c ****     case UART1:
  91:C:/Users/stapi/OneDrive/Desktop/GD32VW553/GD32VW55X_Wifi_BLE_SDK/GD32VW55x_RELEASE_V1.0.2/MSDK/plf/GD32VW55x_standard_peripheral/Source\gd32vw55x_usart.c ****          /* get UART1 clock */
  92:C:/Users/stapi/OneDrive/Desktop/GD32VW553/GD32VW55X_Wifi_BLE_SDK/GD32VW55x_RELEASE_V1.0.2/MSDK/plf/GD32VW55x_standard_peripheral/Source\gd32vw55x_usart.c ****          uclk = rcu_clock_freq_get(CK_APB1);
  93:C:/Users/stapi/OneDrive/Desktop/GD32VW553/GD32VW55X_Wifi_BLE_SDK/GD32VW55x_RELEASE_V1.0.2/MSDK/plf/GD32VW55x_standard_peripheral/Source\gd32vw55x_usart.c ****          break;
  94:C:/Users/stapi/OneDrive/Desktop/GD32VW553/GD32VW55X_Wifi_BLE_SDK/GD32VW55x_RELEASE_V1.0.2/MSDK/plf/GD32VW55x_standard_peripheral/Source\gd32vw55x_usart.c ****     case UART2:
  95:C:/Users/stapi/OneDrive/Desktop/GD32VW553/GD32VW55X_Wifi_BLE_SDK/GD32VW55x_RELEASE_V1.0.2/MSDK/plf/GD32VW55x_standard_peripheral/Source\gd32vw55x_usart.c ****          /* get UART2 clock */
  96:C:/Users/stapi/OneDrive/Desktop/GD32VW553/GD32VW55X_Wifi_BLE_SDK/GD32VW55x_RELEASE_V1.0.2/MSDK/plf/GD32VW55x_standard_peripheral/Source\gd32vw55x_usart.c ****          uclk = rcu_clock_freq_get(CK_APB2);
  97:C:/Users/stapi/OneDrive/Desktop/GD32VW553/GD32VW55X_Wifi_BLE_SDK/GD32VW55x_RELEASE_V1.0.2/MSDK/plf/GD32VW55x_standard_peripheral/Source\gd32vw55x_usart.c ****          break;
  98:C:/Users/stapi/OneDrive/Desktop/GD32VW553/GD32VW55X_Wifi_BLE_SDK/GD32VW55x_RELEASE_V1.0.2/MSDK/plf/GD32VW55x_standard_peripheral/Source\gd32vw55x_usart.c ****     default:
  99:C:/Users/stapi/OneDrive/Desktop/GD32VW553/GD32VW55X_Wifi_BLE_SDK/GD32VW55x_RELEASE_V1.0.2/MSDK/plf/GD32VW55x_standard_peripheral/Source\gd32vw55x_usart.c ****          break;
 100:C:/Users/stapi/OneDrive/Desktop/GD32VW553/GD32VW55X_Wifi_BLE_SDK/GD32VW55x_RELEASE_V1.0.2/MSDK/plf/GD32VW55x_standard_peripheral/Source\gd32vw55x_usart.c ****     }
 101:C:/Users/stapi/OneDrive/Desktop/GD32VW553/GD32VW55X_Wifi_BLE_SDK/GD32VW55x_RELEASE_V1.0.2/MSDK/plf/GD32VW55x_standard_peripheral/Source\gd32vw55x_usart.c ****     if(USART_CTL0(usart_periph) & USART_CTL0_OVSMOD){
 132              		.loc 1 101 5 is_stmt 1
 133              		.loc 1 101 8 is_stmt 0
 134 002e 1840     		lw	a4,0(s0)
 135              		.loc 1 101 33
 136 0030 A167     		li	a5,32768
 102:C:/Users/stapi/OneDrive/Desktop/GD32VW553/GD32VW55X_Wifi_BLE_SDK/GD32VW55x_RELEASE_V1.0.2/MSDK/plf/GD32VW55x_standard_peripheral/Source\gd32vw55x_usart.c ****         /* oversampling by 8, configure the value of USART_BAUD */
 103:C:/Users/stapi/OneDrive/Desktop/GD32VW553/GD32VW55X_Wifi_BLE_SDK/GD32VW55x_RELEASE_V1.0.2/MSDK/plf/GD32VW55x_standard_peripheral/Source\gd32vw55x_usart.c ****         udiv = ((2U * uclk) + (baudval / 2U)) / baudval;
 137              		.loc 1 103 40
 138 0032 93D51400 		srli	a1,s1,1
 101:C:/Users/stapi/OneDrive/Desktop/GD32VW553/GD32VW55X_Wifi_BLE_SDK/GD32VW55x_RELEASE_V1.0.2/MSDK/plf/GD32VW55x_standard_peripheral/Source\gd32vw55x_usart.c ****         /* oversampling by 8, configure the value of USART_BAUD */
 139              		.loc 1 101 33
 140 0036 7D8F     		and	a4,a4,a5
 101:C:/Users/stapi/OneDrive/Desktop/GD32VW553/GD32VW55X_Wifi_BLE_SDK/GD32VW55x_RELEASE_V1.0.2/MSDK/plf/GD32VW55x_standard_peripheral/Source\gd32vw55x_usart.c ****         /* oversampling by 8, configure the value of USART_BAUD */
 141              		.loc 1 101 7
 142 0038 0DC3     		beq	a4,zero,.L14
 143              		.loc 1 103 9 is_stmt 1
 144              		.loc 1 103 29 is_stmt 0
 145 003a B327B520 		sh1add	a5,a0,a1
 146              		.loc 1 103 14
 147 003e B3D59702 		divu	a1,a5,s1
 148              	.LVL16:
 104:C:/Users/stapi/OneDrive/Desktop/GD32VW553/GD32VW55X_Wifi_BLE_SDK/GD32VW55x_RELEASE_V1.0.2/MSDK/plf/GD32VW55x_standard_peripheral/Source\gd32vw55x_usart.c ****         intdiv = udiv & 0x0000fff0U;
 149              		.loc 1 104 9 is_stmt 1
 105:C:/Users/stapi/OneDrive/Desktop/GD32VW553/GD32VW55X_Wifi_BLE_SDK/GD32VW55x_RELEASE_V1.0.2/MSDK/plf/GD32VW55x_standard_peripheral/Source\gd32vw55x_usart.c ****         fradiv = (udiv >> 1U) & 0x00000007U;
 150              		.loc 1 105 9
 106:C:/Users/stapi/OneDrive/Desktop/GD32VW553/GD32VW55X_Wifi_BLE_SDK/GD32VW55x_RELEASE_V1.0.2/MSDK/plf/GD32VW55x_standard_peripheral/Source\gd32vw55x_usart.c ****         USART_BAUD(usart_periph) = ((USART_BAUD_FRADIV | USART_BAUD_INTDIV) & (intdiv | fradiv));
 151              		.loc 1 106 9
 104:C:/Users/stapi/OneDrive/Desktop/GD32VW553/GD32VW55X_Wifi_BLE_SDK/GD32VW55x_RELEASE_V1.0.2/MSDK/plf/GD32VW55x_standard_peripheral/Source\gd32vw55x_usart.c ****         intdiv = udiv & 0x0000fff0U;
 152              		.loc 1 104 16 is_stmt 0
 153 0042 4165     		li	a0,65536
 154              	.LVL17:
 155 0044 4115     		addi	a0,a0,-16
 105:C:/Users/stapi/OneDrive/Desktop/GD32VW553/GD32VW55X_Wifi_BLE_SDK/GD32VW55x_RELEASE_V1.0.2/MSDK/plf/GD32VW55x_standard_peripheral/Source\gd32vw55x_usart.c ****         fradiv = (udiv >> 1U) & 0x00000007U;
 156              		.loc 1 105 24
 157 0046 93D71500 		srli	a5,a1,1
 105:C:/Users/stapi/OneDrive/Desktop/GD32VW553/GD32VW55X_Wifi_BLE_SDK/GD32VW55x_RELEASE_V1.0.2/MSDK/plf/GD32VW55x_standard_peripheral/Source\gd32vw55x_usart.c ****         fradiv = (udiv >> 1U) & 0x00000007U;
 158              		.loc 1 105 16
 159 004a 9D8B     		andi	a5,a5,7
 160              	.LVL18:
 104:C:/Users/stapi/OneDrive/Desktop/GD32VW553/GD32VW55X_Wifi_BLE_SDK/GD32VW55x_RELEASE_V1.0.2/MSDK/plf/GD32VW55x_standard_peripheral/Source\gd32vw55x_usart.c ****         intdiv = udiv & 0x0000fff0U;
 161              		.loc 1 104 16
 162 004c E98D     		and	a1,a1,a0
 163              	.LVL19:
 164              		.loc 1 106 87
 165 004e DD8D     		or	a1,a5,a1
 166              		.loc 1 106 34
 167 0050 4CC4     		sw	a1,12(s0)
 107:C:/Users/stapi/OneDrive/Desktop/GD32VW553/GD32VW55X_Wifi_BLE_SDK/GD32VW55x_RELEASE_V1.0.2/MSDK/plf/GD32VW55x_standard_peripheral/Source\gd32vw55x_usart.c ****     }else{
 108:C:/Users/stapi/OneDrive/Desktop/GD32VW553/GD32VW55X_Wifi_BLE_SDK/GD32VW55x_RELEASE_V1.0.2/MSDK/plf/GD32VW55x_standard_peripheral/Source\gd32vw55x_usart.c ****         /* oversampling by 16, configure the value of USART_BAUD */
 109:C:/Users/stapi/OneDrive/Desktop/GD32VW553/GD32VW55X_Wifi_BLE_SDK/GD32VW55x_RELEASE_V1.0.2/MSDK/plf/GD32VW55x_standard_peripheral/Source\gd32vw55x_usart.c ****         udiv = (uclk + (baudval / 2U)) / baudval;
 110:C:/Users/stapi/OneDrive/Desktop/GD32VW553/GD32VW55X_Wifi_BLE_SDK/GD32VW55x_RELEASE_V1.0.2/MSDK/plf/GD32VW55x_standard_peripheral/Source\gd32vw55x_usart.c ****         intdiv = udiv & 0x0000fff0U;
 111:C:/Users/stapi/OneDrive/Desktop/GD32VW553/GD32VW55X_Wifi_BLE_SDK/GD32VW55x_RELEASE_V1.0.2/MSDK/plf/GD32VW55x_standard_peripheral/Source\gd32vw55x_usart.c ****         fradiv = udiv & 0x0000000fU;
 112:C:/Users/stapi/OneDrive/Desktop/GD32VW553/GD32VW55X_Wifi_BLE_SDK/GD32VW55x_RELEASE_V1.0.2/MSDK/plf/GD32VW55x_standard_peripheral/Source\gd32vw55x_usart.c ****         USART_BAUD(usart_periph) = ((USART_BAUD_FRADIV | USART_BAUD_INTDIV) & (intdiv | fradiv));
 113:C:/Users/stapi/OneDrive/Desktop/GD32VW553/GD32VW55X_Wifi_BLE_SDK/GD32VW55x_RELEASE_V1.0.2/MSDK/plf/GD32VW55x_standard_peripheral/Source\gd32vw55x_usart.c ****     }
 114:C:/Users/stapi/OneDrive/Desktop/GD32VW553/GD32VW55X_Wifi_BLE_SDK/GD32VW55x_RELEASE_V1.0.2/MSDK/plf/GD32VW55x_standard_peripheral/Source\gd32vw55x_usart.c **** }
 168              		.loc 1 114 1
 169 0052 17030000 		tail	__riscv_restore_2
 169      67000300 
 170              		.cfi_remember_state
 171              		.cfi_restore 9
 172              		.cfi_restore 8
 173              		.cfi_restore 1
 174              		.cfi_def_cfa_offset 0
 175              	.LVL20:
 176              	.L14:
 177              		.cfi_restore_state
 109:C:/Users/stapi/OneDrive/Desktop/GD32VW553/GD32VW55X_Wifi_BLE_SDK/GD32VW55x_RELEASE_V1.0.2/MSDK/plf/GD32VW55x_standard_peripheral/Source\gd32vw55x_usart.c ****         intdiv = udiv & 0x0000fff0U;
 178              		.loc 1 109 9 is_stmt 1
 110:C:/Users/stapi/OneDrive/Desktop/GD32VW553/GD32VW55X_Wifi_BLE_SDK/GD32VW55x_RELEASE_V1.0.2/MSDK/plf/GD32VW55x_standard_peripheral/Source\gd32vw55x_usart.c ****         fradiv = udiv & 0x0000000fU;
 179              		.loc 1 110 9
 111:C:/Users/stapi/OneDrive/Desktop/GD32VW553/GD32VW55X_Wifi_BLE_SDK/GD32VW55x_RELEASE_V1.0.2/MSDK/plf/GD32VW55x_standard_peripheral/Source\gd32vw55x_usart.c ****         USART_BAUD(usart_periph) = ((USART_BAUD_FRADIV | USART_BAUD_INTDIV) & (intdiv | fradiv));
 180              		.loc 1 111 9
 112:C:/Users/stapi/OneDrive/Desktop/GD32VW553/GD32VW55X_Wifi_BLE_SDK/GD32VW55x_RELEASE_V1.0.2/MSDK/plf/GD32VW55x_standard_peripheral/Source\gd32vw55x_usart.c ****     }
 181              		.loc 1 112 9
 109:C:/Users/stapi/OneDrive/Desktop/GD32VW553/GD32VW55X_Wifi_BLE_SDK/GD32VW55x_RELEASE_V1.0.2/MSDK/plf/GD32VW55x_standard_peripheral/Source\gd32vw55x_usart.c ****         intdiv = udiv & 0x0000fff0U;
 182              		.loc 1 109 22 is_stmt 0
 183 005a B307B500 		add	a5,a0,a1
 109:C:/Users/stapi/OneDrive/Desktop/GD32VW553/GD32VW55X_Wifi_BLE_SDK/GD32VW55x_RELEASE_V1.0.2/MSDK/plf/GD32VW55x_standard_peripheral/Source\gd32vw55x_usart.c ****         intdiv = udiv & 0x0000fff0U;
 184              		.loc 1 109 14
 185 005e B3D59702 		divu	a1,a5,s1
 186              	.LVL21:
 112:C:/Users/stapi/OneDrive/Desktop/GD32VW553/GD32VW55X_Wifi_BLE_SDK/GD32VW55x_RELEASE_V1.0.2/MSDK/plf/GD32VW55x_standard_peripheral/Source\gd32vw55x_usart.c ****     }
 187              		.loc 1 112 87
 188 0062 B3C50508 		zext.h	a1,a1
 189              	.LVL22:
 112:C:/Users/stapi/OneDrive/Desktop/GD32VW553/GD32VW55X_Wifi_BLE_SDK/GD32VW55x_RELEASE_V1.0.2/MSDK/plf/GD32VW55x_standard_peripheral/Source\gd32vw55x_usart.c ****     }
 190              		.loc 1 112 34
 191 0066 4CC4     		sw	a1,12(s0)
 192              		.loc 1 114 1
 193 0068 17030000 		tail	__riscv_restore_2
 193      67000300 
 194              		.cfi_remember_state
 195              		.cfi_restore 9
 196              		.cfi_restore 8
 197              		.cfi_restore 1
 198              		.cfi_def_cfa_offset 0
 199              	.LVL23:
 200              	.L10:
 201              		.cfi_restore_state
  88:C:/Users/stapi/OneDrive/Desktop/GD32VW553/GD32VW55X_Wifi_BLE_SDK/GD32VW55x_RELEASE_V1.0.2/MSDK/plf/GD32VW55x_standard_peripheral/Source\gd32vw55x_usart.c ****          break;
 202              		.loc 1 88 10 is_stmt 1
  88:C:/Users/stapi/OneDrive/Desktop/GD32VW553/GD32VW55X_Wifi_BLE_SDK/GD32VW55x_RELEASE_V1.0.2/MSDK/plf/GD32VW55x_standard_peripheral/Source\gd32vw55x_usart.c ****          break;
 203              		.loc 1 88 17 is_stmt 0
 204 0070 1145     		li	a0,4
 205 0072 97000000 		call	rcu_clock_freq_get
 205      E7800000 
 206              	.LVL24:
  89:C:/Users/stapi/OneDrive/Desktop/GD32VW553/GD32VW55X_Wifi_BLE_SDK/GD32VW55x_RELEASE_V1.0.2/MSDK/plf/GD32VW55x_standard_peripheral/Source\gd32vw55x_usart.c ****     case UART1:
 207              		.loc 1 89 10 is_stmt 1
 208 007a 55BF     		j	.L13
 209              	.LVL25:
 210              	.L17:
  92:C:/Users/stapi/OneDrive/Desktop/GD32VW553/GD32VW55X_Wifi_BLE_SDK/GD32VW55x_RELEASE_V1.0.2/MSDK/plf/GD32VW55x_standard_peripheral/Source\gd32vw55x_usart.c ****          break;
 211              		.loc 1 92 10
  92:C:/Users/stapi/OneDrive/Desktop/GD32VW553/GD32VW55X_Wifi_BLE_SDK/GD32VW55x_RELEASE_V1.0.2/MSDK/plf/GD32VW55x_standard_peripheral/Source\gd32vw55x_usart.c ****          break;
 212              		.loc 1 92 17 is_stmt 0
 213 007c 0945     		li	a0,2
 214 007e 97000000 		call	rcu_clock_freq_get
 214      E7800000 
 215              	.LVL26:
  93:C:/Users/stapi/OneDrive/Desktop/GD32VW553/GD32VW55X_Wifi_BLE_SDK/GD32VW55x_RELEASE_V1.0.2/MSDK/plf/GD32VW55x_standard_peripheral/Source\gd32vw55x_usart.c ****     case UART2:
 216              		.loc 1 93 10 is_stmt 1
 217 0086 65B7     		j	.L13
 218              	.LVL27:
 219              	.L11:
  96:C:/Users/stapi/OneDrive/Desktop/GD32VW553/GD32VW55X_Wifi_BLE_SDK/GD32VW55x_RELEASE_V1.0.2/MSDK/plf/GD32VW55x_standard_peripheral/Source\gd32vw55x_usart.c ****          break;
 220              		.loc 1 96 10
  96:C:/Users/stapi/OneDrive/Desktop/GD32VW553/GD32VW55X_Wifi_BLE_SDK/GD32VW55x_RELEASE_V1.0.2/MSDK/plf/GD32VW55x_standard_peripheral/Source\gd32vw55x_usart.c ****          break;
 221              		.loc 1 96 17 is_stmt 0
 222 0088 0D45     		li	a0,3
 223 008a 97000000 		call	rcu_clock_freq_get
 223      E7800000 
 224              	.LVL28:
  97:C:/Users/stapi/OneDrive/Desktop/GD32VW553/GD32VW55X_Wifi_BLE_SDK/GD32VW55x_RELEASE_V1.0.2/MSDK/plf/GD32VW55x_standard_peripheral/Source\gd32vw55x_usart.c ****     default:
 225              		.loc 1 97 10 is_stmt 1
 226 0092 71BF     		j	.L13
 227              		.cfi_endproc
 228              	.LFE366:
 230              		.section	.text.usart_parity_config,"ax",@progbits
 231              		.align	1
 232              		.globl	usart_parity_config
 234              	usart_parity_config:
 235              	.LFB367:
 115:C:/Users/stapi/OneDrive/Desktop/GD32VW553/GD32VW55X_Wifi_BLE_SDK/GD32VW55x_RELEASE_V1.0.2/MSDK/plf/GD32VW55x_standard_peripheral/Source\gd32vw55x_usart.c **** 
 116:C:/Users/stapi/OneDrive/Desktop/GD32VW553/GD32VW55X_Wifi_BLE_SDK/GD32VW55x_RELEASE_V1.0.2/MSDK/plf/GD32VW55x_standard_peripheral/Source\gd32vw55x_usart.c **** /*!
 117:C:/Users/stapi/OneDrive/Desktop/GD32VW553/GD32VW55X_Wifi_BLE_SDK/GD32VW55x_RELEASE_V1.0.2/MSDK/plf/GD32VW55x_standard_peripheral/Source\gd32vw55x_usart.c ****     \brief      configure USART parity function
 118:C:/Users/stapi/OneDrive/Desktop/GD32VW553/GD32VW55X_Wifi_BLE_SDK/GD32VW55x_RELEASE_V1.0.2/MSDK/plf/GD32VW55x_standard_peripheral/Source\gd32vw55x_usart.c ****     \param[in]  usart_periph: USART0/UARTx(x=1,2)
 119:C:/Users/stapi/OneDrive/Desktop/GD32VW553/GD32VW55X_Wifi_BLE_SDK/GD32VW55x_RELEASE_V1.0.2/MSDK/plf/GD32VW55x_standard_peripheral/Source\gd32vw55x_usart.c ****     \param[in]  paritycfg: USART parity configure
 120:C:/Users/stapi/OneDrive/Desktop/GD32VW553/GD32VW55X_Wifi_BLE_SDK/GD32VW55x_RELEASE_V1.0.2/MSDK/plf/GD32VW55x_standard_peripheral/Source\gd32vw55x_usart.c ****                 only one parameter can be selected which is shown as below:
 121:C:/Users/stapi/OneDrive/Desktop/GD32VW553/GD32VW55X_Wifi_BLE_SDK/GD32VW55x_RELEASE_V1.0.2/MSDK/plf/GD32VW55x_standard_peripheral/Source\gd32vw55x_usart.c ****       \arg        USART_PM_NONE: no parity
 122:C:/Users/stapi/OneDrive/Desktop/GD32VW553/GD32VW55X_Wifi_BLE_SDK/GD32VW55x_RELEASE_V1.0.2/MSDK/plf/GD32VW55x_standard_peripheral/Source\gd32vw55x_usart.c ****       \arg        USART_PM_ODD: odd parity
 123:C:/Users/stapi/OneDrive/Desktop/GD32VW553/GD32VW55X_Wifi_BLE_SDK/GD32VW55x_RELEASE_V1.0.2/MSDK/plf/GD32VW55x_standard_peripheral/Source\gd32vw55x_usart.c ****       \arg        USART_PM_EVEN: even parity
 124:C:/Users/stapi/OneDrive/Desktop/GD32VW553/GD32VW55X_Wifi_BLE_SDK/GD32VW55x_RELEASE_V1.0.2/MSDK/plf/GD32VW55x_standard_peripheral/Source\gd32vw55x_usart.c ****     \param[out] none
 125:C:/Users/stapi/OneDrive/Desktop/GD32VW553/GD32VW55X_Wifi_BLE_SDK/GD32VW55x_RELEASE_V1.0.2/MSDK/plf/GD32VW55x_standard_peripheral/Source\gd32vw55x_usart.c ****     \retval     none
 126:C:/Users/stapi/OneDrive/Desktop/GD32VW553/GD32VW55X_Wifi_BLE_SDK/GD32VW55x_RELEASE_V1.0.2/MSDK/plf/GD32VW55x_standard_peripheral/Source\gd32vw55x_usart.c **** */
 127:C:/Users/stapi/OneDrive/Desktop/GD32VW553/GD32VW55X_Wifi_BLE_SDK/GD32VW55x_RELEASE_V1.0.2/MSDK/plf/GD32VW55x_standard_peripheral/Source\gd32vw55x_usart.c **** void usart_parity_config(uint32_t usart_periph, uint32_t paritycfg)
 128:C:/Users/stapi/OneDrive/Desktop/GD32VW553/GD32VW55X_Wifi_BLE_SDK/GD32VW55x_RELEASE_V1.0.2/MSDK/plf/GD32VW55x_standard_peripheral/Source\gd32vw55x_usart.c **** {
 236              		.loc 1 128 1
 237              		.cfi_startproc
 238              	.LVL29:
 129:C:/Users/stapi/OneDrive/Desktop/GD32VW553/GD32VW55X_Wifi_BLE_SDK/GD32VW55x_RELEASE_V1.0.2/MSDK/plf/GD32VW55x_standard_peripheral/Source\gd32vw55x_usart.c ****     /* disable USART */
 130:C:/Users/stapi/OneDrive/Desktop/GD32VW553/GD32VW55X_Wifi_BLE_SDK/GD32VW55x_RELEASE_V1.0.2/MSDK/plf/GD32VW55x_standard_peripheral/Source\gd32vw55x_usart.c ****     USART_CTL0(usart_periph) &= ~(USART_CTL0_UEN);
 239              		.loc 1 130 5
 240              		.loc 1 130 30 is_stmt 0
 241 0000 1841     		lw	a4,0(a0)
 242 0002 799B     		andi	a4,a4,-2
 243 0004 18C1     		sw	a4,0(a0)
 131:C:/Users/stapi/OneDrive/Desktop/GD32VW553/GD32VW55X_Wifi_BLE_SDK/GD32VW55x_RELEASE_V1.0.2/MSDK/plf/GD32VW55x_standard_peripheral/Source\gd32vw55x_usart.c ****     /* clear USART_CTL0 PM,PCEN bits */
 132:C:/Users/stapi/OneDrive/Desktop/GD32VW553/GD32VW55X_Wifi_BLE_SDK/GD32VW55x_RELEASE_V1.0.2/MSDK/plf/GD32VW55x_standard_peripheral/Source\gd32vw55x_usart.c ****     USART_CTL0(usart_periph) &= ~(USART_CTL0_PM | USART_CTL0_PCEN);
 244              		.loc 1 132 5 is_stmt 1
 245              		.loc 1 132 30 is_stmt 0
 246 0006 1841     		lw	a4,0(a0)
 247 0008 1377F79F 		andi	a4,a4,-1537
 248 000c 18C1     		sw	a4,0(a0)
 133:C:/Users/stapi/OneDrive/Desktop/GD32VW553/GD32VW55X_Wifi_BLE_SDK/GD32VW55x_RELEASE_V1.0.2/MSDK/plf/GD32VW55x_standard_peripheral/Source\gd32vw55x_usart.c ****     /* configure USART parity mode */
 134:C:/Users/stapi/OneDrive/Desktop/GD32VW553/GD32VW55X_Wifi_BLE_SDK/GD32VW55x_RELEASE_V1.0.2/MSDK/plf/GD32VW55x_standard_peripheral/Source\gd32vw55x_usart.c ****     USART_CTL0(usart_periph) |= paritycfg;
 249              		.loc 1 134 5 is_stmt 1
 250              		.loc 1 134 30 is_stmt 0
 251 000e 1C41     		lw	a5,0(a0)
 252 0010 CD8F     		or	a5,a5,a1
 253 0012 1CC1     		sw	a5,0(a0)
 135:C:/Users/stapi/OneDrive/Desktop/GD32VW553/GD32VW55X_Wifi_BLE_SDK/GD32VW55x_RELEASE_V1.0.2/MSDK/plf/GD32VW55x_standard_peripheral/Source\gd32vw55x_usart.c **** }
 254              		.loc 1 135 1
 255 0014 8280     		ret
 256              		.cfi_endproc
 257              	.LFE367:
 259              		.section	.text.usart_word_length_set,"ax",@progbits
 260              		.align	1
 261              		.globl	usart_word_length_set
 263              	usart_word_length_set:
 264              	.LFB368:
 136:C:/Users/stapi/OneDrive/Desktop/GD32VW553/GD32VW55X_Wifi_BLE_SDK/GD32VW55x_RELEASE_V1.0.2/MSDK/plf/GD32VW55x_standard_peripheral/Source\gd32vw55x_usart.c **** 
 137:C:/Users/stapi/OneDrive/Desktop/GD32VW553/GD32VW55X_Wifi_BLE_SDK/GD32VW55x_RELEASE_V1.0.2/MSDK/plf/GD32VW55x_standard_peripheral/Source\gd32vw55x_usart.c **** /*!
 138:C:/Users/stapi/OneDrive/Desktop/GD32VW553/GD32VW55X_Wifi_BLE_SDK/GD32VW55x_RELEASE_V1.0.2/MSDK/plf/GD32VW55x_standard_peripheral/Source\gd32vw55x_usart.c ****     \brief      configure USART word length
 139:C:/Users/stapi/OneDrive/Desktop/GD32VW553/GD32VW55X_Wifi_BLE_SDK/GD32VW55x_RELEASE_V1.0.2/MSDK/plf/GD32VW55x_standard_peripheral/Source\gd32vw55x_usart.c ****     \param[in]  usart_periph: USART0/UARTx(x=1,2)
 140:C:/Users/stapi/OneDrive/Desktop/GD32VW553/GD32VW55X_Wifi_BLE_SDK/GD32VW55x_RELEASE_V1.0.2/MSDK/plf/GD32VW55x_standard_peripheral/Source\gd32vw55x_usart.c ****     \param[in]  wlen: USART word length configure
 141:C:/Users/stapi/OneDrive/Desktop/GD32VW553/GD32VW55X_Wifi_BLE_SDK/GD32VW55x_RELEASE_V1.0.2/MSDK/plf/GD32VW55x_standard_peripheral/Source\gd32vw55x_usart.c ****                 only one parameter can be selected which is shown as below:
 142:C:/Users/stapi/OneDrive/Desktop/GD32VW553/GD32VW55X_Wifi_BLE_SDK/GD32VW55x_RELEASE_V1.0.2/MSDK/plf/GD32VW55x_standard_peripheral/Source\gd32vw55x_usart.c ****       \arg        USART_WL_8BIT: 8 bits
 143:C:/Users/stapi/OneDrive/Desktop/GD32VW553/GD32VW55X_Wifi_BLE_SDK/GD32VW55x_RELEASE_V1.0.2/MSDK/plf/GD32VW55x_standard_peripheral/Source\gd32vw55x_usart.c ****       \arg        USART_WL_9BIT: 9 bits
 144:C:/Users/stapi/OneDrive/Desktop/GD32VW553/GD32VW55X_Wifi_BLE_SDK/GD32VW55x_RELEASE_V1.0.2/MSDK/plf/GD32VW55x_standard_peripheral/Source\gd32vw55x_usart.c ****     \param[out] none
 145:C:/Users/stapi/OneDrive/Desktop/GD32VW553/GD32VW55X_Wifi_BLE_SDK/GD32VW55x_RELEASE_V1.0.2/MSDK/plf/GD32VW55x_standard_peripheral/Source\gd32vw55x_usart.c ****     \retval     none
 146:C:/Users/stapi/OneDrive/Desktop/GD32VW553/GD32VW55X_Wifi_BLE_SDK/GD32VW55x_RELEASE_V1.0.2/MSDK/plf/GD32VW55x_standard_peripheral/Source\gd32vw55x_usart.c **** */
 147:C:/Users/stapi/OneDrive/Desktop/GD32VW553/GD32VW55X_Wifi_BLE_SDK/GD32VW55x_RELEASE_V1.0.2/MSDK/plf/GD32VW55x_standard_peripheral/Source\gd32vw55x_usart.c **** void usart_word_length_set(uint32_t usart_periph, uint32_t wlen)
 148:C:/Users/stapi/OneDrive/Desktop/GD32VW553/GD32VW55X_Wifi_BLE_SDK/GD32VW55x_RELEASE_V1.0.2/MSDK/plf/GD32VW55x_standard_peripheral/Source\gd32vw55x_usart.c **** {
 265              		.loc 1 148 1 is_stmt 1
 266              		.cfi_startproc
 267              	.LVL30:
 149:C:/Users/stapi/OneDrive/Desktop/GD32VW553/GD32VW55X_Wifi_BLE_SDK/GD32VW55x_RELEASE_V1.0.2/MSDK/plf/GD32VW55x_standard_peripheral/Source\gd32vw55x_usart.c ****     /* disable USART */
 150:C:/Users/stapi/OneDrive/Desktop/GD32VW553/GD32VW55X_Wifi_BLE_SDK/GD32VW55x_RELEASE_V1.0.2/MSDK/plf/GD32VW55x_standard_peripheral/Source\gd32vw55x_usart.c ****     USART_CTL0(usart_periph) &= ~(USART_CTL0_UEN);
 268              		.loc 1 150 5
 269              		.loc 1 150 30 is_stmt 0
 270 0000 1841     		lw	a4,0(a0)
 271 0002 799B     		andi	a4,a4,-2
 272 0004 18C1     		sw	a4,0(a0)
 151:C:/Users/stapi/OneDrive/Desktop/GD32VW553/GD32VW55X_Wifi_BLE_SDK/GD32VW55x_RELEASE_V1.0.2/MSDK/plf/GD32VW55x_standard_peripheral/Source\gd32vw55x_usart.c ****     /* clear USART_CTL0 WL bit */
 152:C:/Users/stapi/OneDrive/Desktop/GD32VW553/GD32VW55X_Wifi_BLE_SDK/GD32VW55x_RELEASE_V1.0.2/MSDK/plf/GD32VW55x_standard_peripheral/Source\gd32vw55x_usart.c ****     USART_CTL0(usart_periph) &= ~USART_CTL0_WL;
 273              		.loc 1 152 5 is_stmt 1
 274              		.loc 1 152 30 is_stmt 0
 275 0006 1841     		lw	a4,0(a0)
 276 0008 1317C748 		bclri	a4,a4,12
 277 000c 18C1     		sw	a4,0(a0)
 153:C:/Users/stapi/OneDrive/Desktop/GD32VW553/GD32VW55X_Wifi_BLE_SDK/GD32VW55x_RELEASE_V1.0.2/MSDK/plf/GD32VW55x_standard_peripheral/Source\gd32vw55x_usart.c ****     /* configure USART word length */
 154:C:/Users/stapi/OneDrive/Desktop/GD32VW553/GD32VW55X_Wifi_BLE_SDK/GD32VW55x_RELEASE_V1.0.2/MSDK/plf/GD32VW55x_standard_peripheral/Source\gd32vw55x_usart.c ****     USART_CTL0(usart_periph) |= wlen;
 278              		.loc 1 154 5 is_stmt 1
 279              		.loc 1 154 30 is_stmt 0
 280 000e 1C41     		lw	a5,0(a0)
 281 0010 CD8F     		or	a5,a5,a1
 282 0012 1CC1     		sw	a5,0(a0)
 155:C:/Users/stapi/OneDrive/Desktop/GD32VW553/GD32VW55X_Wifi_BLE_SDK/GD32VW55x_RELEASE_V1.0.2/MSDK/plf/GD32VW55x_standard_peripheral/Source\gd32vw55x_usart.c **** }
 283              		.loc 1 155 1
 284 0014 8280     		ret
 285              		.cfi_endproc
 286              	.LFE368:
 288              		.section	.text.usart_stop_bit_set,"ax",@progbits
 289              		.align	1
 290              		.globl	usart_stop_bit_set
 292              	usart_stop_bit_set:
 293              	.LFB369:
 156:C:/Users/stapi/OneDrive/Desktop/GD32VW553/GD32VW55X_Wifi_BLE_SDK/GD32VW55x_RELEASE_V1.0.2/MSDK/plf/GD32VW55x_standard_peripheral/Source\gd32vw55x_usart.c **** 
 157:C:/Users/stapi/OneDrive/Desktop/GD32VW553/GD32VW55X_Wifi_BLE_SDK/GD32VW55x_RELEASE_V1.0.2/MSDK/plf/GD32VW55x_standard_peripheral/Source\gd32vw55x_usart.c **** /*!
 158:C:/Users/stapi/OneDrive/Desktop/GD32VW553/GD32VW55X_Wifi_BLE_SDK/GD32VW55x_RELEASE_V1.0.2/MSDK/plf/GD32VW55x_standard_peripheral/Source\gd32vw55x_usart.c ****     \brief      configure USART stop bit length
 159:C:/Users/stapi/OneDrive/Desktop/GD32VW553/GD32VW55X_Wifi_BLE_SDK/GD32VW55x_RELEASE_V1.0.2/MSDK/plf/GD32VW55x_standard_peripheral/Source\gd32vw55x_usart.c ****     \param[in]  usart_periph: USART0/UARTx(x=1,2)
 160:C:/Users/stapi/OneDrive/Desktop/GD32VW553/GD32VW55X_Wifi_BLE_SDK/GD32VW55x_RELEASE_V1.0.2/MSDK/plf/GD32VW55x_standard_peripheral/Source\gd32vw55x_usart.c ****     \param[in]  stblen: USART stop bit configure
 161:C:/Users/stapi/OneDrive/Desktop/GD32VW553/GD32VW55X_Wifi_BLE_SDK/GD32VW55x_RELEASE_V1.0.2/MSDK/plf/GD32VW55x_standard_peripheral/Source\gd32vw55x_usart.c ****                 only one parameter can be selected which is shown as below:
 162:C:/Users/stapi/OneDrive/Desktop/GD32VW553/GD32VW55X_Wifi_BLE_SDK/GD32VW55x_RELEASE_V1.0.2/MSDK/plf/GD32VW55x_standard_peripheral/Source\gd32vw55x_usart.c ****       \arg        USART_STB_1BIT: 1 bit
 163:C:/Users/stapi/OneDrive/Desktop/GD32VW553/GD32VW55X_Wifi_BLE_SDK/GD32VW55x_RELEASE_V1.0.2/MSDK/plf/GD32VW55x_standard_peripheral/Source\gd32vw55x_usart.c ****       \arg        USART_STB_0_5BIT: 0.5bit
 164:C:/Users/stapi/OneDrive/Desktop/GD32VW553/GD32VW55X_Wifi_BLE_SDK/GD32VW55x_RELEASE_V1.0.2/MSDK/plf/GD32VW55x_standard_peripheral/Source\gd32vw55x_usart.c ****       \arg        USART_STB_2BIT: 2 bits
 165:C:/Users/stapi/OneDrive/Desktop/GD32VW553/GD32VW55X_Wifi_BLE_SDK/GD32VW55x_RELEASE_V1.0.2/MSDK/plf/GD32VW55x_standard_peripheral/Source\gd32vw55x_usart.c ****       \arg        USART_STB_1_5BIT: 1.5bit
 166:C:/Users/stapi/OneDrive/Desktop/GD32VW553/GD32VW55X_Wifi_BLE_SDK/GD32VW55x_RELEASE_V1.0.2/MSDK/plf/GD32VW55x_standard_peripheral/Source\gd32vw55x_usart.c ****     \param[out] none
 167:C:/Users/stapi/OneDrive/Desktop/GD32VW553/GD32VW55X_Wifi_BLE_SDK/GD32VW55x_RELEASE_V1.0.2/MSDK/plf/GD32VW55x_standard_peripheral/Source\gd32vw55x_usart.c ****     \retval     none
 168:C:/Users/stapi/OneDrive/Desktop/GD32VW553/GD32VW55X_Wifi_BLE_SDK/GD32VW55x_RELEASE_V1.0.2/MSDK/plf/GD32VW55x_standard_peripheral/Source\gd32vw55x_usart.c **** */
 169:C:/Users/stapi/OneDrive/Desktop/GD32VW553/GD32VW55X_Wifi_BLE_SDK/GD32VW55x_RELEASE_V1.0.2/MSDK/plf/GD32VW55x_standard_peripheral/Source\gd32vw55x_usart.c **** void usart_stop_bit_set(uint32_t usart_periph, uint32_t stblen)
 170:C:/Users/stapi/OneDrive/Desktop/GD32VW553/GD32VW55X_Wifi_BLE_SDK/GD32VW55x_RELEASE_V1.0.2/MSDK/plf/GD32VW55x_standard_peripheral/Source\gd32vw55x_usart.c **** {
 294              		.loc 1 170 1 is_stmt 1
 295              		.cfi_startproc
 296              	.LVL31:
 171:C:/Users/stapi/OneDrive/Desktop/GD32VW553/GD32VW55X_Wifi_BLE_SDK/GD32VW55x_RELEASE_V1.0.2/MSDK/plf/GD32VW55x_standard_peripheral/Source\gd32vw55x_usart.c ****     /* disable USART */
 172:C:/Users/stapi/OneDrive/Desktop/GD32VW553/GD32VW55X_Wifi_BLE_SDK/GD32VW55x_RELEASE_V1.0.2/MSDK/plf/GD32VW55x_standard_peripheral/Source\gd32vw55x_usart.c ****     USART_CTL0(usart_periph) &= ~(USART_CTL0_UEN);
 297              		.loc 1 172 5
 298              		.loc 1 172 30 is_stmt 0
 299 0000 1C41     		lw	a5,0(a0)
 173:C:/Users/stapi/OneDrive/Desktop/GD32VW553/GD32VW55X_Wifi_BLE_SDK/GD32VW55x_RELEASE_V1.0.2/MSDK/plf/GD32VW55x_standard_peripheral/Source\gd32vw55x_usart.c ****     /* clear USART_CTL1 STB bits */
 174:C:/Users/stapi/OneDrive/Desktop/GD32VW553/GD32VW55X_Wifi_BLE_SDK/GD32VW55x_RELEASE_V1.0.2/MSDK/plf/GD32VW55x_standard_peripheral/Source\gd32vw55x_usart.c ****     USART_CTL1(usart_periph) &= ~USART_CTL1_STB;
 300              		.loc 1 174 30
 301 0002 F576     		li	a3,-12288
 302 0004 FD16     		addi	a3,a3,-1
 172:C:/Users/stapi/OneDrive/Desktop/GD32VW553/GD32VW55X_Wifi_BLE_SDK/GD32VW55x_RELEASE_V1.0.2/MSDK/plf/GD32VW55x_standard_peripheral/Source\gd32vw55x_usart.c ****     /* clear USART_CTL1 STB bits */
 303              		.loc 1 172 30
 304 0006 F99B     		andi	a5,a5,-2
 305 0008 1CC1     		sw	a5,0(a0)
 306              		.loc 1 174 5 is_stmt 1
 307              		.loc 1 174 30 is_stmt 0
 308 000a 5841     		lw	a4,4(a0)
 309 000c 758F     		and	a4,a4,a3
 310 000e 58C1     		sw	a4,4(a0)
 175:C:/Users/stapi/OneDrive/Desktop/GD32VW553/GD32VW55X_Wifi_BLE_SDK/GD32VW55x_RELEASE_V1.0.2/MSDK/plf/GD32VW55x_standard_peripheral/Source\gd32vw55x_usart.c ****     USART_CTL1(usart_periph) |= stblen;
 311              		.loc 1 175 5 is_stmt 1
 312              		.loc 1 175 30 is_stmt 0
 313 0010 5C41     		lw	a5,4(a0)
 314 0012 CD8F     		or	a5,a5,a1
 315 0014 5CC1     		sw	a5,4(a0)
 176:C:/Users/stapi/OneDrive/Desktop/GD32VW553/GD32VW55X_Wifi_BLE_SDK/GD32VW55x_RELEASE_V1.0.2/MSDK/plf/GD32VW55x_standard_peripheral/Source\gd32vw55x_usart.c **** }
 316              		.loc 1 176 1
 317 0016 8280     		ret
 318              		.cfi_endproc
 319              	.LFE369:
 321              		.section	.text.usart_enable,"ax",@progbits
 322              		.align	1
 323              		.globl	usart_enable
 325              	usart_enable:
 326              	.LFB370:
 177:C:/Users/stapi/OneDrive/Desktop/GD32VW553/GD32VW55X_Wifi_BLE_SDK/GD32VW55x_RELEASE_V1.0.2/MSDK/plf/GD32VW55x_standard_peripheral/Source\gd32vw55x_usart.c **** 
 178:C:/Users/stapi/OneDrive/Desktop/GD32VW553/GD32VW55X_Wifi_BLE_SDK/GD32VW55x_RELEASE_V1.0.2/MSDK/plf/GD32VW55x_standard_peripheral/Source\gd32vw55x_usart.c **** /*!
 179:C:/Users/stapi/OneDrive/Desktop/GD32VW553/GD32VW55X_Wifi_BLE_SDK/GD32VW55x_RELEASE_V1.0.2/MSDK/plf/GD32VW55x_standard_peripheral/Source\gd32vw55x_usart.c ****     \brief      enable USART
 180:C:/Users/stapi/OneDrive/Desktop/GD32VW553/GD32VW55X_Wifi_BLE_SDK/GD32VW55x_RELEASE_V1.0.2/MSDK/plf/GD32VW55x_standard_peripheral/Source\gd32vw55x_usart.c ****     \param[in]  usart_periph: USART0/UARTx(x=1,2)
 181:C:/Users/stapi/OneDrive/Desktop/GD32VW553/GD32VW55X_Wifi_BLE_SDK/GD32VW55x_RELEASE_V1.0.2/MSDK/plf/GD32VW55x_standard_peripheral/Source\gd32vw55x_usart.c ****     \param[out] none
 182:C:/Users/stapi/OneDrive/Desktop/GD32VW553/GD32VW55X_Wifi_BLE_SDK/GD32VW55x_RELEASE_V1.0.2/MSDK/plf/GD32VW55x_standard_peripheral/Source\gd32vw55x_usart.c ****     \retval     none
 183:C:/Users/stapi/OneDrive/Desktop/GD32VW553/GD32VW55X_Wifi_BLE_SDK/GD32VW55x_RELEASE_V1.0.2/MSDK/plf/GD32VW55x_standard_peripheral/Source\gd32vw55x_usart.c **** */
 184:C:/Users/stapi/OneDrive/Desktop/GD32VW553/GD32VW55X_Wifi_BLE_SDK/GD32VW55x_RELEASE_V1.0.2/MSDK/plf/GD32VW55x_standard_peripheral/Source\gd32vw55x_usart.c **** void usart_enable(uint32_t usart_periph)
 185:C:/Users/stapi/OneDrive/Desktop/GD32VW553/GD32VW55X_Wifi_BLE_SDK/GD32VW55x_RELEASE_V1.0.2/MSDK/plf/GD32VW55x_standard_peripheral/Source\gd32vw55x_usart.c **** {
 327              		.loc 1 185 1 is_stmt 1
 328              		.cfi_startproc
 329              	.LVL32:
 186:C:/Users/stapi/OneDrive/Desktop/GD32VW553/GD32VW55X_Wifi_BLE_SDK/GD32VW55x_RELEASE_V1.0.2/MSDK/plf/GD32VW55x_standard_peripheral/Source\gd32vw55x_usart.c ****     USART_CTL0(usart_periph) |= USART_CTL0_UEN;
 330              		.loc 1 186 5
 331              		.loc 1 186 30 is_stmt 0
 332 0000 1C41     		lw	a5,0(a0)
 333 0002 93E71700 		ori	a5,a5,1
 334 0006 1CC1     		sw	a5,0(a0)
 187:C:/Users/stapi/OneDrive/Desktop/GD32VW553/GD32VW55X_Wifi_BLE_SDK/GD32VW55x_RELEASE_V1.0.2/MSDK/plf/GD32VW55x_standard_peripheral/Source\gd32vw55x_usart.c **** }
 335              		.loc 1 187 1
 336 0008 8280     		ret
 337              		.cfi_endproc
 338              	.LFE370:
 340              		.section	.text.usart_disable,"ax",@progbits
 341              		.align	1
 342              		.globl	usart_disable
 344              	usart_disable:
 345              	.LFB371:
 188:C:/Users/stapi/OneDrive/Desktop/GD32VW553/GD32VW55X_Wifi_BLE_SDK/GD32VW55x_RELEASE_V1.0.2/MSDK/plf/GD32VW55x_standard_peripheral/Source\gd32vw55x_usart.c **** 
 189:C:/Users/stapi/OneDrive/Desktop/GD32VW553/GD32VW55X_Wifi_BLE_SDK/GD32VW55x_RELEASE_V1.0.2/MSDK/plf/GD32VW55x_standard_peripheral/Source\gd32vw55x_usart.c **** /*!
 190:C:/Users/stapi/OneDrive/Desktop/GD32VW553/GD32VW55X_Wifi_BLE_SDK/GD32VW55x_RELEASE_V1.0.2/MSDK/plf/GD32VW55x_standard_peripheral/Source\gd32vw55x_usart.c ****     \brief      disable USART
 191:C:/Users/stapi/OneDrive/Desktop/GD32VW553/GD32VW55X_Wifi_BLE_SDK/GD32VW55x_RELEASE_V1.0.2/MSDK/plf/GD32VW55x_standard_peripheral/Source\gd32vw55x_usart.c ****     \param[in]  usart_periph: USART0/UARTx(x=1,2)
 192:C:/Users/stapi/OneDrive/Desktop/GD32VW553/GD32VW55X_Wifi_BLE_SDK/GD32VW55x_RELEASE_V1.0.2/MSDK/plf/GD32VW55x_standard_peripheral/Source\gd32vw55x_usart.c ****     \param[out] none
 193:C:/Users/stapi/OneDrive/Desktop/GD32VW553/GD32VW55X_Wifi_BLE_SDK/GD32VW55x_RELEASE_V1.0.2/MSDK/plf/GD32VW55x_standard_peripheral/Source\gd32vw55x_usart.c ****     \retval     none
 194:C:/Users/stapi/OneDrive/Desktop/GD32VW553/GD32VW55X_Wifi_BLE_SDK/GD32VW55x_RELEASE_V1.0.2/MSDK/plf/GD32VW55x_standard_peripheral/Source\gd32vw55x_usart.c **** */
 195:C:/Users/stapi/OneDrive/Desktop/GD32VW553/GD32VW55X_Wifi_BLE_SDK/GD32VW55x_RELEASE_V1.0.2/MSDK/plf/GD32VW55x_standard_peripheral/Source\gd32vw55x_usart.c **** void usart_disable(uint32_t usart_periph)
 196:C:/Users/stapi/OneDrive/Desktop/GD32VW553/GD32VW55X_Wifi_BLE_SDK/GD32VW55x_RELEASE_V1.0.2/MSDK/plf/GD32VW55x_standard_peripheral/Source\gd32vw55x_usart.c **** {
 346              		.loc 1 196 1 is_stmt 1
 347              		.cfi_startproc
 348              	.LVL33:
 197:C:/Users/stapi/OneDrive/Desktop/GD32VW553/GD32VW55X_Wifi_BLE_SDK/GD32VW55x_RELEASE_V1.0.2/MSDK/plf/GD32VW55x_standard_peripheral/Source\gd32vw55x_usart.c ****     USART_CTL0(usart_periph) &= ~(USART_CTL0_UEN);
 349              		.loc 1 197 5
 350              		.loc 1 197 30 is_stmt 0
 351 0000 1C41     		lw	a5,0(a0)
 352 0002 F99B     		andi	a5,a5,-2
 353 0004 1CC1     		sw	a5,0(a0)
 198:C:/Users/stapi/OneDrive/Desktop/GD32VW553/GD32VW55X_Wifi_BLE_SDK/GD32VW55x_RELEASE_V1.0.2/MSDK/plf/GD32VW55x_standard_peripheral/Source\gd32vw55x_usart.c **** }
 354              		.loc 1 198 1
 355 0006 8280     		ret
 356              		.cfi_endproc
 357              	.LFE371:
 359              		.section	.text.usart_transmit_config,"ax",@progbits
 360              		.align	1
 361              		.globl	usart_transmit_config
 363              	usart_transmit_config:
 364              	.LFB372:
 199:C:/Users/stapi/OneDrive/Desktop/GD32VW553/GD32VW55X_Wifi_BLE_SDK/GD32VW55x_RELEASE_V1.0.2/MSDK/plf/GD32VW55x_standard_peripheral/Source\gd32vw55x_usart.c **** 
 200:C:/Users/stapi/OneDrive/Desktop/GD32VW553/GD32VW55X_Wifi_BLE_SDK/GD32VW55x_RELEASE_V1.0.2/MSDK/plf/GD32VW55x_standard_peripheral/Source\gd32vw55x_usart.c **** /*!
 201:C:/Users/stapi/OneDrive/Desktop/GD32VW553/GD32VW55X_Wifi_BLE_SDK/GD32VW55x_RELEASE_V1.0.2/MSDK/plf/GD32VW55x_standard_peripheral/Source\gd32vw55x_usart.c ****     \brief      configure USART transmitter
 202:C:/Users/stapi/OneDrive/Desktop/GD32VW553/GD32VW55X_Wifi_BLE_SDK/GD32VW55x_RELEASE_V1.0.2/MSDK/plf/GD32VW55x_standard_peripheral/Source\gd32vw55x_usart.c ****     \param[in]  usart_periph: USART0/UARTx(x=1,2)
 203:C:/Users/stapi/OneDrive/Desktop/GD32VW553/GD32VW55X_Wifi_BLE_SDK/GD32VW55x_RELEASE_V1.0.2/MSDK/plf/GD32VW55x_standard_peripheral/Source\gd32vw55x_usart.c ****     \param[in]  txconfig: enable or disable USART transmitter
 204:C:/Users/stapi/OneDrive/Desktop/GD32VW553/GD32VW55X_Wifi_BLE_SDK/GD32VW55x_RELEASE_V1.0.2/MSDK/plf/GD32VW55x_standard_peripheral/Source\gd32vw55x_usart.c ****                 only one parameter can be selected which is shown as below:
 205:C:/Users/stapi/OneDrive/Desktop/GD32VW553/GD32VW55X_Wifi_BLE_SDK/GD32VW55x_RELEASE_V1.0.2/MSDK/plf/GD32VW55x_standard_peripheral/Source\gd32vw55x_usart.c ****       \arg        USART_TRANSMIT_ENABLE: enable USART transmission
 206:C:/Users/stapi/OneDrive/Desktop/GD32VW553/GD32VW55X_Wifi_BLE_SDK/GD32VW55x_RELEASE_V1.0.2/MSDK/plf/GD32VW55x_standard_peripheral/Source\gd32vw55x_usart.c ****       \arg        USART_TRANSMIT_DISABLE: enable USART transmission
 207:C:/Users/stapi/OneDrive/Desktop/GD32VW553/GD32VW55X_Wifi_BLE_SDK/GD32VW55x_RELEASE_V1.0.2/MSDK/plf/GD32VW55x_standard_peripheral/Source\gd32vw55x_usart.c ****     \param[out] none
 208:C:/Users/stapi/OneDrive/Desktop/GD32VW553/GD32VW55X_Wifi_BLE_SDK/GD32VW55x_RELEASE_V1.0.2/MSDK/plf/GD32VW55x_standard_peripheral/Source\gd32vw55x_usart.c ****     \retval     none
 209:C:/Users/stapi/OneDrive/Desktop/GD32VW553/GD32VW55X_Wifi_BLE_SDK/GD32VW55x_RELEASE_V1.0.2/MSDK/plf/GD32VW55x_standard_peripheral/Source\gd32vw55x_usart.c **** */
 210:C:/Users/stapi/OneDrive/Desktop/GD32VW553/GD32VW55X_Wifi_BLE_SDK/GD32VW55x_RELEASE_V1.0.2/MSDK/plf/GD32VW55x_standard_peripheral/Source\gd32vw55x_usart.c **** void usart_transmit_config(uint32_t usart_periph, uint32_t txconfig)
 211:C:/Users/stapi/OneDrive/Desktop/GD32VW553/GD32VW55X_Wifi_BLE_SDK/GD32VW55x_RELEASE_V1.0.2/MSDK/plf/GD32VW55x_standard_peripheral/Source\gd32vw55x_usart.c **** {
 365              		.loc 1 211 1 is_stmt 1
 366              		.cfi_startproc
 367              	.LVL34:
 212:C:/Users/stapi/OneDrive/Desktop/GD32VW553/GD32VW55X_Wifi_BLE_SDK/GD32VW55x_RELEASE_V1.0.2/MSDK/plf/GD32VW55x_standard_peripheral/Source\gd32vw55x_usart.c ****     USART_CTL0(usart_periph) &= ~USART_CTL0_TEN;
 368              		.loc 1 212 5
 369              		.loc 1 212 30 is_stmt 0
 370 0000 1841     		lw	a4,0(a0)
 371 0002 5D9B     		andi	a4,a4,-9
 372 0004 18C1     		sw	a4,0(a0)
 213:C:/Users/stapi/OneDrive/Desktop/GD32VW553/GD32VW55X_Wifi_BLE_SDK/GD32VW55x_RELEASE_V1.0.2/MSDK/plf/GD32VW55x_standard_peripheral/Source\gd32vw55x_usart.c ****     /* configure transfer mode */
 214:C:/Users/stapi/OneDrive/Desktop/GD32VW553/GD32VW55X_Wifi_BLE_SDK/GD32VW55x_RELEASE_V1.0.2/MSDK/plf/GD32VW55x_standard_peripheral/Source\gd32vw55x_usart.c ****     USART_CTL0(usart_periph) |= txconfig;
 373              		.loc 1 214 5 is_stmt 1
 374              		.loc 1 214 30 is_stmt 0
 375 0006 1C41     		lw	a5,0(a0)
 376 0008 CD8F     		or	a5,a5,a1
 377 000a 1CC1     		sw	a5,0(a0)
 215:C:/Users/stapi/OneDrive/Desktop/GD32VW553/GD32VW55X_Wifi_BLE_SDK/GD32VW55x_RELEASE_V1.0.2/MSDK/plf/GD32VW55x_standard_peripheral/Source\gd32vw55x_usart.c **** }
 378              		.loc 1 215 1
 379 000c 8280     		ret
 380              		.cfi_endproc
 381              	.LFE372:
 383              		.section	.text.usart_receive_config,"ax",@progbits
 384              		.align	1
 385              		.globl	usart_receive_config
 387              	usart_receive_config:
 388              	.LFB373:
 216:C:/Users/stapi/OneDrive/Desktop/GD32VW553/GD32VW55X_Wifi_BLE_SDK/GD32VW55x_RELEASE_V1.0.2/MSDK/plf/GD32VW55x_standard_peripheral/Source\gd32vw55x_usart.c **** 
 217:C:/Users/stapi/OneDrive/Desktop/GD32VW553/GD32VW55X_Wifi_BLE_SDK/GD32VW55x_RELEASE_V1.0.2/MSDK/plf/GD32VW55x_standard_peripheral/Source\gd32vw55x_usart.c **** /*!
 218:C:/Users/stapi/OneDrive/Desktop/GD32VW553/GD32VW55X_Wifi_BLE_SDK/GD32VW55x_RELEASE_V1.0.2/MSDK/plf/GD32VW55x_standard_peripheral/Source\gd32vw55x_usart.c ****     \brief      configure USART receiver
 219:C:/Users/stapi/OneDrive/Desktop/GD32VW553/GD32VW55X_Wifi_BLE_SDK/GD32VW55x_RELEASE_V1.0.2/MSDK/plf/GD32VW55x_standard_peripheral/Source\gd32vw55x_usart.c ****     \param[in]  usart_periph: USART0/UARTx(x=1,2)
 220:C:/Users/stapi/OneDrive/Desktop/GD32VW553/GD32VW55X_Wifi_BLE_SDK/GD32VW55x_RELEASE_V1.0.2/MSDK/plf/GD32VW55x_standard_peripheral/Source\gd32vw55x_usart.c ****     \param[in]  rxconfig: enable or disable USART receiver
 221:C:/Users/stapi/OneDrive/Desktop/GD32VW553/GD32VW55X_Wifi_BLE_SDK/GD32VW55x_RELEASE_V1.0.2/MSDK/plf/GD32VW55x_standard_peripheral/Source\gd32vw55x_usart.c ****                 only one parameter can be selected which is shown as below:
 222:C:/Users/stapi/OneDrive/Desktop/GD32VW553/GD32VW55X_Wifi_BLE_SDK/GD32VW55x_RELEASE_V1.0.2/MSDK/plf/GD32VW55x_standard_peripheral/Source\gd32vw55x_usart.c ****       \arg        USART_RECEIVE_ENABLE: enable USART reception
 223:C:/Users/stapi/OneDrive/Desktop/GD32VW553/GD32VW55X_Wifi_BLE_SDK/GD32VW55x_RELEASE_V1.0.2/MSDK/plf/GD32VW55x_standard_peripheral/Source\gd32vw55x_usart.c ****       \arg        USART_RECEIVE_DISABLE: disable USART reception
 224:C:/Users/stapi/OneDrive/Desktop/GD32VW553/GD32VW55X_Wifi_BLE_SDK/GD32VW55x_RELEASE_V1.0.2/MSDK/plf/GD32VW55x_standard_peripheral/Source\gd32vw55x_usart.c ****     \param[out] none
 225:C:/Users/stapi/OneDrive/Desktop/GD32VW553/GD32VW55X_Wifi_BLE_SDK/GD32VW55x_RELEASE_V1.0.2/MSDK/plf/GD32VW55x_standard_peripheral/Source\gd32vw55x_usart.c ****     \retval     none
 226:C:/Users/stapi/OneDrive/Desktop/GD32VW553/GD32VW55X_Wifi_BLE_SDK/GD32VW55x_RELEASE_V1.0.2/MSDK/plf/GD32VW55x_standard_peripheral/Source\gd32vw55x_usart.c **** */
 227:C:/Users/stapi/OneDrive/Desktop/GD32VW553/GD32VW55X_Wifi_BLE_SDK/GD32VW55x_RELEASE_V1.0.2/MSDK/plf/GD32VW55x_standard_peripheral/Source\gd32vw55x_usart.c **** void usart_receive_config(uint32_t usart_periph, uint32_t rxconfig)
 228:C:/Users/stapi/OneDrive/Desktop/GD32VW553/GD32VW55X_Wifi_BLE_SDK/GD32VW55x_RELEASE_V1.0.2/MSDK/plf/GD32VW55x_standard_peripheral/Source\gd32vw55x_usart.c **** {
 389              		.loc 1 228 1 is_stmt 1
 390              		.cfi_startproc
 391              	.LVL35:
 229:C:/Users/stapi/OneDrive/Desktop/GD32VW553/GD32VW55X_Wifi_BLE_SDK/GD32VW55x_RELEASE_V1.0.2/MSDK/plf/GD32VW55x_standard_peripheral/Source\gd32vw55x_usart.c ****     USART_CTL0(usart_periph) &= ~USART_CTL0_REN;
 392              		.loc 1 229 5
 393              		.loc 1 229 30 is_stmt 0
 394 0000 1841     		lw	a4,0(a0)
 395 0002 6D9B     		andi	a4,a4,-5
 396 0004 18C1     		sw	a4,0(a0)
 230:C:/Users/stapi/OneDrive/Desktop/GD32VW553/GD32VW55X_Wifi_BLE_SDK/GD32VW55x_RELEASE_V1.0.2/MSDK/plf/GD32VW55x_standard_peripheral/Source\gd32vw55x_usart.c ****     /* configure receiver mode */
 231:C:/Users/stapi/OneDrive/Desktop/GD32VW553/GD32VW55X_Wifi_BLE_SDK/GD32VW55x_RELEASE_V1.0.2/MSDK/plf/GD32VW55x_standard_peripheral/Source\gd32vw55x_usart.c ****     USART_CTL0(usart_periph) |= rxconfig;
 397              		.loc 1 231 5 is_stmt 1
 398              		.loc 1 231 30 is_stmt 0
 399 0006 1C41     		lw	a5,0(a0)
 400 0008 CD8F     		or	a5,a5,a1
 401 000a 1CC1     		sw	a5,0(a0)
 232:C:/Users/stapi/OneDrive/Desktop/GD32VW553/GD32VW55X_Wifi_BLE_SDK/GD32VW55x_RELEASE_V1.0.2/MSDK/plf/GD32VW55x_standard_peripheral/Source\gd32vw55x_usart.c **** }
 402              		.loc 1 232 1
 403 000c 8280     		ret
 404              		.cfi_endproc
 405              	.LFE373:
 407              		.section	.text.usart_data_first_config,"ax",@progbits
 408              		.align	1
 409              		.globl	usart_data_first_config
 411              	usart_data_first_config:
 412              	.LFB374:
 233:C:/Users/stapi/OneDrive/Desktop/GD32VW553/GD32VW55X_Wifi_BLE_SDK/GD32VW55x_RELEASE_V1.0.2/MSDK/plf/GD32VW55x_standard_peripheral/Source\gd32vw55x_usart.c **** 
 234:C:/Users/stapi/OneDrive/Desktop/GD32VW553/GD32VW55X_Wifi_BLE_SDK/GD32VW55x_RELEASE_V1.0.2/MSDK/plf/GD32VW55x_standard_peripheral/Source\gd32vw55x_usart.c **** /*!
 235:C:/Users/stapi/OneDrive/Desktop/GD32VW553/GD32VW55X_Wifi_BLE_SDK/GD32VW55x_RELEASE_V1.0.2/MSDK/plf/GD32VW55x_standard_peripheral/Source\gd32vw55x_usart.c ****     \brief      data is transmitted/received with the LSB/MSB first
 236:C:/Users/stapi/OneDrive/Desktop/GD32VW553/GD32VW55X_Wifi_BLE_SDK/GD32VW55x_RELEASE_V1.0.2/MSDK/plf/GD32VW55x_standard_peripheral/Source\gd32vw55x_usart.c ****     \param[in]  usart_periph: USART0/UARTx(x=1,2)
 237:C:/Users/stapi/OneDrive/Desktop/GD32VW553/GD32VW55X_Wifi_BLE_SDK/GD32VW55x_RELEASE_V1.0.2/MSDK/plf/GD32VW55x_standard_peripheral/Source\gd32vw55x_usart.c ****     \param[in]  msbf: LSB/MSB
 238:C:/Users/stapi/OneDrive/Desktop/GD32VW553/GD32VW55X_Wifi_BLE_SDK/GD32VW55x_RELEASE_V1.0.2/MSDK/plf/GD32VW55x_standard_peripheral/Source\gd32vw55x_usart.c ****                 only one parameter can be selected which is shown as below:
 239:C:/Users/stapi/OneDrive/Desktop/GD32VW553/GD32VW55X_Wifi_BLE_SDK/GD32VW55x_RELEASE_V1.0.2/MSDK/plf/GD32VW55x_standard_peripheral/Source\gd32vw55x_usart.c ****       \arg        USART_MSBF_LSB: LSB first
 240:C:/Users/stapi/OneDrive/Desktop/GD32VW553/GD32VW55X_Wifi_BLE_SDK/GD32VW55x_RELEASE_V1.0.2/MSDK/plf/GD32VW55x_standard_peripheral/Source\gd32vw55x_usart.c ****       \arg        USART_MSBF_MSB: MSB first
 241:C:/Users/stapi/OneDrive/Desktop/GD32VW553/GD32VW55X_Wifi_BLE_SDK/GD32VW55x_RELEASE_V1.0.2/MSDK/plf/GD32VW55x_standard_peripheral/Source\gd32vw55x_usart.c ****     \param[out] none
 242:C:/Users/stapi/OneDrive/Desktop/GD32VW553/GD32VW55X_Wifi_BLE_SDK/GD32VW55x_RELEASE_V1.0.2/MSDK/plf/GD32VW55x_standard_peripheral/Source\gd32vw55x_usart.c ****     \retval     none
 243:C:/Users/stapi/OneDrive/Desktop/GD32VW553/GD32VW55X_Wifi_BLE_SDK/GD32VW55x_RELEASE_V1.0.2/MSDK/plf/GD32VW55x_standard_peripheral/Source\gd32vw55x_usart.c **** */
 244:C:/Users/stapi/OneDrive/Desktop/GD32VW553/GD32VW55X_Wifi_BLE_SDK/GD32VW55x_RELEASE_V1.0.2/MSDK/plf/GD32VW55x_standard_peripheral/Source\gd32vw55x_usart.c **** void usart_data_first_config(uint32_t usart_periph, uint32_t msbf)
 245:C:/Users/stapi/OneDrive/Desktop/GD32VW553/GD32VW55X_Wifi_BLE_SDK/GD32VW55x_RELEASE_V1.0.2/MSDK/plf/GD32VW55x_standard_peripheral/Source\gd32vw55x_usart.c **** {
 413              		.loc 1 245 1 is_stmt 1
 414              		.cfi_startproc
 415              	.LVL36:
 246:C:/Users/stapi/OneDrive/Desktop/GD32VW553/GD32VW55X_Wifi_BLE_SDK/GD32VW55x_RELEASE_V1.0.2/MSDK/plf/GD32VW55x_standard_peripheral/Source\gd32vw55x_usart.c ****     USART_CTL0(usart_periph) &= ~(USART_CTL0_UEN);
 416              		.loc 1 246 5
 417              		.loc 1 246 30 is_stmt 0
 418 0000 1841     		lw	a4,0(a0)
 419 0002 799B     		andi	a4,a4,-2
 420 0004 18C1     		sw	a4,0(a0)
 247:C:/Users/stapi/OneDrive/Desktop/GD32VW553/GD32VW55X_Wifi_BLE_SDK/GD32VW55x_RELEASE_V1.0.2/MSDK/plf/GD32VW55x_standard_peripheral/Source\gd32vw55x_usart.c ****     /* configure LSB or MSB first */
 248:C:/Users/stapi/OneDrive/Desktop/GD32VW553/GD32VW55X_Wifi_BLE_SDK/GD32VW55x_RELEASE_V1.0.2/MSDK/plf/GD32VW55x_standard_peripheral/Source\gd32vw55x_usart.c ****     USART_CTL1(usart_periph) &= ~(USART_CTL1_MSBF);
 421              		.loc 1 248 5 is_stmt 1
 422              		.loc 1 248 30 is_stmt 0
 423 0006 5841     		lw	a4,4(a0)
 424 0008 13173749 		bclri	a4,a4,19
 425 000c 58C1     		sw	a4,4(a0)
 249:C:/Users/stapi/OneDrive/Desktop/GD32VW553/GD32VW55X_Wifi_BLE_SDK/GD32VW55x_RELEASE_V1.0.2/MSDK/plf/GD32VW55x_standard_peripheral/Source\gd32vw55x_usart.c ****     USART_CTL1(usart_periph) |= msbf;
 426              		.loc 1 249 5 is_stmt 1
 427              		.loc 1 249 30 is_stmt 0
 428 000e 5C41     		lw	a5,4(a0)
 429 0010 CD8F     		or	a5,a5,a1
 430 0012 5CC1     		sw	a5,4(a0)
 250:C:/Users/stapi/OneDrive/Desktop/GD32VW553/GD32VW55X_Wifi_BLE_SDK/GD32VW55x_RELEASE_V1.0.2/MSDK/plf/GD32VW55x_standard_peripheral/Source\gd32vw55x_usart.c **** }
 431              		.loc 1 250 1
 432 0014 8280     		ret
 433              		.cfi_endproc
 434              	.LFE374:
 436              		.section	.text.usart_invert_config,"ax",@progbits
 437              		.align	1
 438              		.globl	usart_invert_config
 440              	usart_invert_config:
 441              	.LFB375:
 251:C:/Users/stapi/OneDrive/Desktop/GD32VW553/GD32VW55X_Wifi_BLE_SDK/GD32VW55x_RELEASE_V1.0.2/MSDK/plf/GD32VW55x_standard_peripheral/Source\gd32vw55x_usart.c **** 
 252:C:/Users/stapi/OneDrive/Desktop/GD32VW553/GD32VW55X_Wifi_BLE_SDK/GD32VW55x_RELEASE_V1.0.2/MSDK/plf/GD32VW55x_standard_peripheral/Source\gd32vw55x_usart.c **** /*!
 253:C:/Users/stapi/OneDrive/Desktop/GD32VW553/GD32VW55X_Wifi_BLE_SDK/GD32VW55x_RELEASE_V1.0.2/MSDK/plf/GD32VW55x_standard_peripheral/Source\gd32vw55x_usart.c ****     \brief      configure USART inverted
 254:C:/Users/stapi/OneDrive/Desktop/GD32VW553/GD32VW55X_Wifi_BLE_SDK/GD32VW55x_RELEASE_V1.0.2/MSDK/plf/GD32VW55x_standard_peripheral/Source\gd32vw55x_usart.c ****     \param[in]  usart_periph: USART0/UARTx(x=1,2)
 255:C:/Users/stapi/OneDrive/Desktop/GD32VW553/GD32VW55X_Wifi_BLE_SDK/GD32VW55x_RELEASE_V1.0.2/MSDK/plf/GD32VW55x_standard_peripheral/Source\gd32vw55x_usart.c ****     \param[in]  invertpara: refer to usart_invert_enum
 256:C:/Users/stapi/OneDrive/Desktop/GD32VW553/GD32VW55X_Wifi_BLE_SDK/GD32VW55x_RELEASE_V1.0.2/MSDK/plf/GD32VW55x_standard_peripheral/Source\gd32vw55x_usart.c ****                 only one parameter can be selected which is shown as below:
 257:C:/Users/stapi/OneDrive/Desktop/GD32VW553/GD32VW55X_Wifi_BLE_SDK/GD32VW55x_RELEASE_V1.0.2/MSDK/plf/GD32VW55x_standard_peripheral/Source\gd32vw55x_usart.c ****       \arg        USART_DINV_ENABLE: data bit level inversion
 258:C:/Users/stapi/OneDrive/Desktop/GD32VW553/GD32VW55X_Wifi_BLE_SDK/GD32VW55x_RELEASE_V1.0.2/MSDK/plf/GD32VW55x_standard_peripheral/Source\gd32vw55x_usart.c ****       \arg        USART_DINV_DISABLE: data bit level not inversion
 259:C:/Users/stapi/OneDrive/Desktop/GD32VW553/GD32VW55X_Wifi_BLE_SDK/GD32VW55x_RELEASE_V1.0.2/MSDK/plf/GD32VW55x_standard_peripheral/Source\gd32vw55x_usart.c ****       \arg        USART_TXPIN_ENABLE: TX pin level inversion
 260:C:/Users/stapi/OneDrive/Desktop/GD32VW553/GD32VW55X_Wifi_BLE_SDK/GD32VW55x_RELEASE_V1.0.2/MSDK/plf/GD32VW55x_standard_peripheral/Source\gd32vw55x_usart.c ****       \arg        USART_TXPIN_DISABLE: TX pin level not inversion
 261:C:/Users/stapi/OneDrive/Desktop/GD32VW553/GD32VW55X_Wifi_BLE_SDK/GD32VW55x_RELEASE_V1.0.2/MSDK/plf/GD32VW55x_standard_peripheral/Source\gd32vw55x_usart.c ****       \arg        USART_RXPIN_ENABLE: RX pin level inversion
 262:C:/Users/stapi/OneDrive/Desktop/GD32VW553/GD32VW55X_Wifi_BLE_SDK/GD32VW55x_RELEASE_V1.0.2/MSDK/plf/GD32VW55x_standard_peripheral/Source\gd32vw55x_usart.c ****       \arg        USART_RXPIN_DISABLE: RX pin level not inversion
 263:C:/Users/stapi/OneDrive/Desktop/GD32VW553/GD32VW55X_Wifi_BLE_SDK/GD32VW55x_RELEASE_V1.0.2/MSDK/plf/GD32VW55x_standard_peripheral/Source\gd32vw55x_usart.c ****       \arg        USART_SWAP_ENABLE: swap TX/RX pins
 264:C:/Users/stapi/OneDrive/Desktop/GD32VW553/GD32VW55X_Wifi_BLE_SDK/GD32VW55x_RELEASE_V1.0.2/MSDK/plf/GD32VW55x_standard_peripheral/Source\gd32vw55x_usart.c ****       \arg        USART_SWAP_DISABLE: not swap TX/RX pins
 265:C:/Users/stapi/OneDrive/Desktop/GD32VW553/GD32VW55X_Wifi_BLE_SDK/GD32VW55x_RELEASE_V1.0.2/MSDK/plf/GD32VW55x_standard_peripheral/Source\gd32vw55x_usart.c ****     \param[out] none
 266:C:/Users/stapi/OneDrive/Desktop/GD32VW553/GD32VW55X_Wifi_BLE_SDK/GD32VW55x_RELEASE_V1.0.2/MSDK/plf/GD32VW55x_standard_peripheral/Source\gd32vw55x_usart.c ****     \retval     none
 267:C:/Users/stapi/OneDrive/Desktop/GD32VW553/GD32VW55X_Wifi_BLE_SDK/GD32VW55x_RELEASE_V1.0.2/MSDK/plf/GD32VW55x_standard_peripheral/Source\gd32vw55x_usart.c **** */
 268:C:/Users/stapi/OneDrive/Desktop/GD32VW553/GD32VW55X_Wifi_BLE_SDK/GD32VW55x_RELEASE_V1.0.2/MSDK/plf/GD32VW55x_standard_peripheral/Source\gd32vw55x_usart.c **** void usart_invert_config(uint32_t usart_periph, usart_invert_enum invertpara)
 269:C:/Users/stapi/OneDrive/Desktop/GD32VW553/GD32VW55X_Wifi_BLE_SDK/GD32VW55x_RELEASE_V1.0.2/MSDK/plf/GD32VW55x_standard_peripheral/Source\gd32vw55x_usart.c **** {
 442              		.loc 1 269 1 is_stmt 1
 443              		.cfi_startproc
 444              	.LVL37:
 270:C:/Users/stapi/OneDrive/Desktop/GD32VW553/GD32VW55X_Wifi_BLE_SDK/GD32VW55x_RELEASE_V1.0.2/MSDK/plf/GD32VW55x_standard_peripheral/Source\gd32vw55x_usart.c ****     USART_CTL0(usart_periph) &= ~(USART_CTL0_UEN);
 445              		.loc 1 270 5
 446              		.loc 1 270 30 is_stmt 0
 447 0000 1C41     		lw	a5,0(a0)
 448 0002 F99B     		andi	a5,a5,-2
 449 0004 1CC1     		sw	a5,0(a0)
 271:C:/Users/stapi/OneDrive/Desktop/GD32VW553/GD32VW55X_Wifi_BLE_SDK/GD32VW55x_RELEASE_V1.0.2/MSDK/plf/GD32VW55x_standard_peripheral/Source\gd32vw55x_usart.c ****     /* inverted or not the specified signal */
 272:C:/Users/stapi/OneDrive/Desktop/GD32VW553/GD32VW55X_Wifi_BLE_SDK/GD32VW55x_RELEASE_V1.0.2/MSDK/plf/GD32VW55x_standard_peripheral/Source\gd32vw55x_usart.c ****     switch(invertpara){
 450              		.loc 1 272 5 is_stmt 1
 451 0006 9D47     		li	a5,7
 452 0008 63EEB700 		bgtu	a1,a5,.L26
 453 000c B7070000 		lui	a5,%hi(.L29)
 454 0010 93870700 		addi	a5,a5,%lo(.L29)
 455 0014 B3C5F520 		sh2add	a1,a1,a5
 456              	.LVL38:
 457 0018 9C41     		lw	a5,0(a1)
 458 001a 8287     		jr	a5
 459              		.section	.rodata.usart_invert_config,"a",@progbits
 460              		.align	2
 461              		.align	2
 462              	.L29:
 463 0000 00000000 		.word	.L36
 464 0004 00000000 		.word	.L35
 465 0008 00000000 		.word	.L34
 466 000c 00000000 		.word	.L33
 467 0010 00000000 		.word	.L32
 468 0014 00000000 		.word	.L31
 469 0018 00000000 		.word	.L30
 470 001c 00000000 		.word	.L28
 471              		.section	.text.usart_invert_config
 472              	.L28:
 273:C:/Users/stapi/OneDrive/Desktop/GD32VW553/GD32VW55X_Wifi_BLE_SDK/GD32VW55x_RELEASE_V1.0.2/MSDK/plf/GD32VW55x_standard_peripheral/Source\gd32vw55x_usart.c ****     case USART_DINV_ENABLE:
 274:C:/Users/stapi/OneDrive/Desktop/GD32VW553/GD32VW55X_Wifi_BLE_SDK/GD32VW55x_RELEASE_V1.0.2/MSDK/plf/GD32VW55x_standard_peripheral/Source\gd32vw55x_usart.c ****         USART_CTL1(usart_periph) |= USART_CTL1_DINV;
 275:C:/Users/stapi/OneDrive/Desktop/GD32VW553/GD32VW55X_Wifi_BLE_SDK/GD32VW55x_RELEASE_V1.0.2/MSDK/plf/GD32VW55x_standard_peripheral/Source\gd32vw55x_usart.c ****         break;
 276:C:/Users/stapi/OneDrive/Desktop/GD32VW553/GD32VW55X_Wifi_BLE_SDK/GD32VW55x_RELEASE_V1.0.2/MSDK/plf/GD32VW55x_standard_peripheral/Source\gd32vw55x_usart.c ****     case USART_DINV_DISABLE:
 277:C:/Users/stapi/OneDrive/Desktop/GD32VW553/GD32VW55X_Wifi_BLE_SDK/GD32VW55x_RELEASE_V1.0.2/MSDK/plf/GD32VW55x_standard_peripheral/Source\gd32vw55x_usart.c ****         USART_CTL1(usart_periph) &= ~(USART_CTL1_DINV);
 278:C:/Users/stapi/OneDrive/Desktop/GD32VW553/GD32VW55X_Wifi_BLE_SDK/GD32VW55x_RELEASE_V1.0.2/MSDK/plf/GD32VW55x_standard_peripheral/Source\gd32vw55x_usart.c ****         break;
 279:C:/Users/stapi/OneDrive/Desktop/GD32VW553/GD32VW55X_Wifi_BLE_SDK/GD32VW55x_RELEASE_V1.0.2/MSDK/plf/GD32VW55x_standard_peripheral/Source\gd32vw55x_usart.c ****     case USART_TXPIN_ENABLE:
 280:C:/Users/stapi/OneDrive/Desktop/GD32VW553/GD32VW55X_Wifi_BLE_SDK/GD32VW55x_RELEASE_V1.0.2/MSDK/plf/GD32VW55x_standard_peripheral/Source\gd32vw55x_usart.c ****         USART_CTL1(usart_periph) |= USART_CTL1_TINV;
 281:C:/Users/stapi/OneDrive/Desktop/GD32VW553/GD32VW55X_Wifi_BLE_SDK/GD32VW55x_RELEASE_V1.0.2/MSDK/plf/GD32VW55x_standard_peripheral/Source\gd32vw55x_usart.c ****         break;
 282:C:/Users/stapi/OneDrive/Desktop/GD32VW553/GD32VW55X_Wifi_BLE_SDK/GD32VW55x_RELEASE_V1.0.2/MSDK/plf/GD32VW55x_standard_peripheral/Source\gd32vw55x_usart.c ****     case USART_TXPIN_DISABLE:
 283:C:/Users/stapi/OneDrive/Desktop/GD32VW553/GD32VW55X_Wifi_BLE_SDK/GD32VW55x_RELEASE_V1.0.2/MSDK/plf/GD32VW55x_standard_peripheral/Source\gd32vw55x_usart.c ****         USART_CTL1(usart_periph) &= ~(USART_CTL1_TINV);
 284:C:/Users/stapi/OneDrive/Desktop/GD32VW553/GD32VW55X_Wifi_BLE_SDK/GD32VW55x_RELEASE_V1.0.2/MSDK/plf/GD32VW55x_standard_peripheral/Source\gd32vw55x_usart.c ****         break;
 285:C:/Users/stapi/OneDrive/Desktop/GD32VW553/GD32VW55X_Wifi_BLE_SDK/GD32VW55x_RELEASE_V1.0.2/MSDK/plf/GD32VW55x_standard_peripheral/Source\gd32vw55x_usart.c ****     case USART_RXPIN_ENABLE:
 286:C:/Users/stapi/OneDrive/Desktop/GD32VW553/GD32VW55X_Wifi_BLE_SDK/GD32VW55x_RELEASE_V1.0.2/MSDK/plf/GD32VW55x_standard_peripheral/Source\gd32vw55x_usart.c ****         USART_CTL1(usart_periph) |= USART_CTL1_RINV;
 287:C:/Users/stapi/OneDrive/Desktop/GD32VW553/GD32VW55X_Wifi_BLE_SDK/GD32VW55x_RELEASE_V1.0.2/MSDK/plf/GD32VW55x_standard_peripheral/Source\gd32vw55x_usart.c ****         break;
 288:C:/Users/stapi/OneDrive/Desktop/GD32VW553/GD32VW55X_Wifi_BLE_SDK/GD32VW55x_RELEASE_V1.0.2/MSDK/plf/GD32VW55x_standard_peripheral/Source\gd32vw55x_usart.c ****     case USART_RXPIN_DISABLE:
 289:C:/Users/stapi/OneDrive/Desktop/GD32VW553/GD32VW55X_Wifi_BLE_SDK/GD32VW55x_RELEASE_V1.0.2/MSDK/plf/GD32VW55x_standard_peripheral/Source\gd32vw55x_usart.c ****         USART_CTL1(usart_periph) &= ~(USART_CTL1_RINV);
 290:C:/Users/stapi/OneDrive/Desktop/GD32VW553/GD32VW55X_Wifi_BLE_SDK/GD32VW55x_RELEASE_V1.0.2/MSDK/plf/GD32VW55x_standard_peripheral/Source\gd32vw55x_usart.c ****         break;
 291:C:/Users/stapi/OneDrive/Desktop/GD32VW553/GD32VW55X_Wifi_BLE_SDK/GD32VW55x_RELEASE_V1.0.2/MSDK/plf/GD32VW55x_standard_peripheral/Source\gd32vw55x_usart.c ****     case USART_SWAP_ENABLE:
 292:C:/Users/stapi/OneDrive/Desktop/GD32VW553/GD32VW55X_Wifi_BLE_SDK/GD32VW55x_RELEASE_V1.0.2/MSDK/plf/GD32VW55x_standard_peripheral/Source\gd32vw55x_usart.c ****         USART_CTL1(usart_periph) |= USART_CTL1_STRP;
 293:C:/Users/stapi/OneDrive/Desktop/GD32VW553/GD32VW55X_Wifi_BLE_SDK/GD32VW55x_RELEASE_V1.0.2/MSDK/plf/GD32VW55x_standard_peripheral/Source\gd32vw55x_usart.c ****         break;
 294:C:/Users/stapi/OneDrive/Desktop/GD32VW553/GD32VW55X_Wifi_BLE_SDK/GD32VW55x_RELEASE_V1.0.2/MSDK/plf/GD32VW55x_standard_peripheral/Source\gd32vw55x_usart.c ****     case USART_SWAP_DISABLE:
 295:C:/Users/stapi/OneDrive/Desktop/GD32VW553/GD32VW55X_Wifi_BLE_SDK/GD32VW55x_RELEASE_V1.0.2/MSDK/plf/GD32VW55x_standard_peripheral/Source\gd32vw55x_usart.c ****         USART_CTL1(usart_periph) &= ~(USART_CTL1_STRP);
 473              		.loc 1 295 9
 474              		.loc 1 295 34 is_stmt 0
 475 001c 5C41     		lw	a5,4(a0)
 476 001e 9397F748 		bclri	a5,a5,15
 477 0022 5CC1     		sw	a5,4(a0)
 296:C:/Users/stapi/OneDrive/Desktop/GD32VW553/GD32VW55X_Wifi_BLE_SDK/GD32VW55x_RELEASE_V1.0.2/MSDK/plf/GD32VW55x_standard_peripheral/Source\gd32vw55x_usart.c ****         break;
 478              		.loc 1 296 9 is_stmt 1
 479              	.L26:
 297:C:/Users/stapi/OneDrive/Desktop/GD32VW553/GD32VW55X_Wifi_BLE_SDK/GD32VW55x_RELEASE_V1.0.2/MSDK/plf/GD32VW55x_standard_peripheral/Source\gd32vw55x_usart.c ****     default:
 298:C:/Users/stapi/OneDrive/Desktop/GD32VW553/GD32VW55X_Wifi_BLE_SDK/GD32VW55x_RELEASE_V1.0.2/MSDK/plf/GD32VW55x_standard_peripheral/Source\gd32vw55x_usart.c ****         break;
 299:C:/Users/stapi/OneDrive/Desktop/GD32VW553/GD32VW55X_Wifi_BLE_SDK/GD32VW55x_RELEASE_V1.0.2/MSDK/plf/GD32VW55x_standard_peripheral/Source\gd32vw55x_usart.c ****     }
 300:C:/Users/stapi/OneDrive/Desktop/GD32VW553/GD32VW55X_Wifi_BLE_SDK/GD32VW55x_RELEASE_V1.0.2/MSDK/plf/GD32VW55x_standard_peripheral/Source\gd32vw55x_usart.c **** }
 480              		.loc 1 300 1 is_stmt 0
 481 0024 8280     		ret
 482              	.L30:
 292:C:/Users/stapi/OneDrive/Desktop/GD32VW553/GD32VW55X_Wifi_BLE_SDK/GD32VW55x_RELEASE_V1.0.2/MSDK/plf/GD32VW55x_standard_peripheral/Source\gd32vw55x_usart.c ****         break;
 483              		.loc 1 292 9 is_stmt 1
 292:C:/Users/stapi/OneDrive/Desktop/GD32VW553/GD32VW55X_Wifi_BLE_SDK/GD32VW55x_RELEASE_V1.0.2/MSDK/plf/GD32VW55x_standard_peripheral/Source\gd32vw55x_usart.c ****         break;
 484              		.loc 1 292 34 is_stmt 0
 485 0026 5C41     		lw	a5,4(a0)
 486 0028 9397F728 		bseti	a5,a5,15
 487 002c 5CC1     		sw	a5,4(a0)
 293:C:/Users/stapi/OneDrive/Desktop/GD32VW553/GD32VW55X_Wifi_BLE_SDK/GD32VW55x_RELEASE_V1.0.2/MSDK/plf/GD32VW55x_standard_peripheral/Source\gd32vw55x_usart.c ****     case USART_SWAP_DISABLE:
 488              		.loc 1 293 9 is_stmt 1
 489 002e 8280     		ret
 490              	.L36:
 274:C:/Users/stapi/OneDrive/Desktop/GD32VW553/GD32VW55X_Wifi_BLE_SDK/GD32VW55x_RELEASE_V1.0.2/MSDK/plf/GD32VW55x_standard_peripheral/Source\gd32vw55x_usart.c ****         break;
 491              		.loc 1 274 9
 274:C:/Users/stapi/OneDrive/Desktop/GD32VW553/GD32VW55X_Wifi_BLE_SDK/GD32VW55x_RELEASE_V1.0.2/MSDK/plf/GD32VW55x_standard_peripheral/Source\gd32vw55x_usart.c ****         break;
 492              		.loc 1 274 34 is_stmt 0
 493 0030 5C41     		lw	a5,4(a0)
 494 0032 93972729 		bseti	a5,a5,18
 495 0036 5CC1     		sw	a5,4(a0)
 275:C:/Users/stapi/OneDrive/Desktop/GD32VW553/GD32VW55X_Wifi_BLE_SDK/GD32VW55x_RELEASE_V1.0.2/MSDK/plf/GD32VW55x_standard_peripheral/Source\gd32vw55x_usart.c ****     case USART_DINV_DISABLE:
 496              		.loc 1 275 9 is_stmt 1
 497 0038 8280     		ret
 498              	.L35:
 277:C:/Users/stapi/OneDrive/Desktop/GD32VW553/GD32VW55X_Wifi_BLE_SDK/GD32VW55x_RELEASE_V1.0.2/MSDK/plf/GD32VW55x_standard_peripheral/Source\gd32vw55x_usart.c ****         break;
 499              		.loc 1 277 9
 277:C:/Users/stapi/OneDrive/Desktop/GD32VW553/GD32VW55X_Wifi_BLE_SDK/GD32VW55x_RELEASE_V1.0.2/MSDK/plf/GD32VW55x_standard_peripheral/Source\gd32vw55x_usart.c ****         break;
 500              		.loc 1 277 34 is_stmt 0
 501 003a 5C41     		lw	a5,4(a0)
 502 003c 93972749 		bclri	a5,a5,18
 503 0040 5CC1     		sw	a5,4(a0)
 278:C:/Users/stapi/OneDrive/Desktop/GD32VW553/GD32VW55X_Wifi_BLE_SDK/GD32VW55x_RELEASE_V1.0.2/MSDK/plf/GD32VW55x_standard_peripheral/Source\gd32vw55x_usart.c ****     case USART_TXPIN_ENABLE:
 504              		.loc 1 278 9 is_stmt 1
 505 0042 8280     		ret
 506              	.L34:
 280:C:/Users/stapi/OneDrive/Desktop/GD32VW553/GD32VW55X_Wifi_BLE_SDK/GD32VW55x_RELEASE_V1.0.2/MSDK/plf/GD32VW55x_standard_peripheral/Source\gd32vw55x_usart.c ****         break;
 507              		.loc 1 280 9
 280:C:/Users/stapi/OneDrive/Desktop/GD32VW553/GD32VW55X_Wifi_BLE_SDK/GD32VW55x_RELEASE_V1.0.2/MSDK/plf/GD32VW55x_standard_peripheral/Source\gd32vw55x_usart.c ****         break;
 508              		.loc 1 280 34 is_stmt 0
 509 0044 5C41     		lw	a5,4(a0)
 510 0046 93971729 		bseti	a5,a5,17
 511 004a 5CC1     		sw	a5,4(a0)
 281:C:/Users/stapi/OneDrive/Desktop/GD32VW553/GD32VW55X_Wifi_BLE_SDK/GD32VW55x_RELEASE_V1.0.2/MSDK/plf/GD32VW55x_standard_peripheral/Source\gd32vw55x_usart.c ****     case USART_TXPIN_DISABLE:
 512              		.loc 1 281 9 is_stmt 1
 513 004c 8280     		ret
 514              	.L33:
 283:C:/Users/stapi/OneDrive/Desktop/GD32VW553/GD32VW55X_Wifi_BLE_SDK/GD32VW55x_RELEASE_V1.0.2/MSDK/plf/GD32VW55x_standard_peripheral/Source\gd32vw55x_usart.c ****         break;
 515              		.loc 1 283 9
 283:C:/Users/stapi/OneDrive/Desktop/GD32VW553/GD32VW55X_Wifi_BLE_SDK/GD32VW55x_RELEASE_V1.0.2/MSDK/plf/GD32VW55x_standard_peripheral/Source\gd32vw55x_usart.c ****         break;
 516              		.loc 1 283 34 is_stmt 0
 517 004e 5C41     		lw	a5,4(a0)
 518 0050 93971749 		bclri	a5,a5,17
 519 0054 5CC1     		sw	a5,4(a0)
 284:C:/Users/stapi/OneDrive/Desktop/GD32VW553/GD32VW55X_Wifi_BLE_SDK/GD32VW55x_RELEASE_V1.0.2/MSDK/plf/GD32VW55x_standard_peripheral/Source\gd32vw55x_usart.c ****     case USART_RXPIN_ENABLE:
 520              		.loc 1 284 9 is_stmt 1
 521 0056 8280     		ret
 522              	.L32:
 286:C:/Users/stapi/OneDrive/Desktop/GD32VW553/GD32VW55X_Wifi_BLE_SDK/GD32VW55x_RELEASE_V1.0.2/MSDK/plf/GD32VW55x_standard_peripheral/Source\gd32vw55x_usart.c ****         break;
 523              		.loc 1 286 9
 286:C:/Users/stapi/OneDrive/Desktop/GD32VW553/GD32VW55X_Wifi_BLE_SDK/GD32VW55x_RELEASE_V1.0.2/MSDK/plf/GD32VW55x_standard_peripheral/Source\gd32vw55x_usart.c ****         break;
 524              		.loc 1 286 34 is_stmt 0
 525 0058 5C41     		lw	a5,4(a0)
 526 005a 93970729 		bseti	a5,a5,16
 527 005e 5CC1     		sw	a5,4(a0)
 287:C:/Users/stapi/OneDrive/Desktop/GD32VW553/GD32VW55X_Wifi_BLE_SDK/GD32VW55x_RELEASE_V1.0.2/MSDK/plf/GD32VW55x_standard_peripheral/Source\gd32vw55x_usart.c ****     case USART_RXPIN_DISABLE:
 528              		.loc 1 287 9 is_stmt 1
 529 0060 8280     		ret
 530              	.L31:
 289:C:/Users/stapi/OneDrive/Desktop/GD32VW553/GD32VW55X_Wifi_BLE_SDK/GD32VW55x_RELEASE_V1.0.2/MSDK/plf/GD32VW55x_standard_peripheral/Source\gd32vw55x_usart.c ****         break;
 531              		.loc 1 289 9
 289:C:/Users/stapi/OneDrive/Desktop/GD32VW553/GD32VW55X_Wifi_BLE_SDK/GD32VW55x_RELEASE_V1.0.2/MSDK/plf/GD32VW55x_standard_peripheral/Source\gd32vw55x_usart.c ****         break;
 532              		.loc 1 289 34 is_stmt 0
 533 0062 5C41     		lw	a5,4(a0)
 534 0064 93970749 		bclri	a5,a5,16
 535 0068 5CC1     		sw	a5,4(a0)
 290:C:/Users/stapi/OneDrive/Desktop/GD32VW553/GD32VW55X_Wifi_BLE_SDK/GD32VW55x_RELEASE_V1.0.2/MSDK/plf/GD32VW55x_standard_peripheral/Source\gd32vw55x_usart.c ****     case USART_SWAP_ENABLE:
 536              		.loc 1 290 9 is_stmt 1
 537 006a 8280     		ret
 538              		.cfi_endproc
 539              	.LFE375:
 541              		.section	.text.usart_overrun_enable,"ax",@progbits
 542              		.align	1
 543              		.globl	usart_overrun_enable
 545              	usart_overrun_enable:
 546              	.LFB376:
 301:C:/Users/stapi/OneDrive/Desktop/GD32VW553/GD32VW55X_Wifi_BLE_SDK/GD32VW55x_RELEASE_V1.0.2/MSDK/plf/GD32VW55x_standard_peripheral/Source\gd32vw55x_usart.c **** 
 302:C:/Users/stapi/OneDrive/Desktop/GD32VW553/GD32VW55X_Wifi_BLE_SDK/GD32VW55x_RELEASE_V1.0.2/MSDK/plf/GD32VW55x_standard_peripheral/Source\gd32vw55x_usart.c **** /*!
 303:C:/Users/stapi/OneDrive/Desktop/GD32VW553/GD32VW55X_Wifi_BLE_SDK/GD32VW55x_RELEASE_V1.0.2/MSDK/plf/GD32VW55x_standard_peripheral/Source\gd32vw55x_usart.c ****     \brief      enable the USART overrun function
 304:C:/Users/stapi/OneDrive/Desktop/GD32VW553/GD32VW55X_Wifi_BLE_SDK/GD32VW55x_RELEASE_V1.0.2/MSDK/plf/GD32VW55x_standard_peripheral/Source\gd32vw55x_usart.c ****     \param[in]  usart_periph: USART0/UARTx(x=1,2)
 305:C:/Users/stapi/OneDrive/Desktop/GD32VW553/GD32VW55X_Wifi_BLE_SDK/GD32VW55x_RELEASE_V1.0.2/MSDK/plf/GD32VW55x_standard_peripheral/Source\gd32vw55x_usart.c ****     \param[out] none
 306:C:/Users/stapi/OneDrive/Desktop/GD32VW553/GD32VW55X_Wifi_BLE_SDK/GD32VW55x_RELEASE_V1.0.2/MSDK/plf/GD32VW55x_standard_peripheral/Source\gd32vw55x_usart.c ****     \retval     none
 307:C:/Users/stapi/OneDrive/Desktop/GD32VW553/GD32VW55X_Wifi_BLE_SDK/GD32VW55x_RELEASE_V1.0.2/MSDK/plf/GD32VW55x_standard_peripheral/Source\gd32vw55x_usart.c **** */
 308:C:/Users/stapi/OneDrive/Desktop/GD32VW553/GD32VW55X_Wifi_BLE_SDK/GD32VW55x_RELEASE_V1.0.2/MSDK/plf/GD32VW55x_standard_peripheral/Source\gd32vw55x_usart.c **** void usart_overrun_enable(uint32_t usart_periph)
 309:C:/Users/stapi/OneDrive/Desktop/GD32VW553/GD32VW55X_Wifi_BLE_SDK/GD32VW55x_RELEASE_V1.0.2/MSDK/plf/GD32VW55x_standard_peripheral/Source\gd32vw55x_usart.c **** {
 547              		.loc 1 309 1
 548              		.cfi_startproc
 549              	.LVL39:
 310:C:/Users/stapi/OneDrive/Desktop/GD32VW553/GD32VW55X_Wifi_BLE_SDK/GD32VW55x_RELEASE_V1.0.2/MSDK/plf/GD32VW55x_standard_peripheral/Source\gd32vw55x_usart.c ****     USART_CTL0(usart_periph) &= ~(USART_CTL0_UEN);
 550              		.loc 1 310 5
 551              		.loc 1 310 30 is_stmt 0
 552 0000 1C41     		lw	a5,0(a0)
 553 0002 F99B     		andi	a5,a5,-2
 554 0004 1CC1     		sw	a5,0(a0)
 311:C:/Users/stapi/OneDrive/Desktop/GD32VW553/GD32VW55X_Wifi_BLE_SDK/GD32VW55x_RELEASE_V1.0.2/MSDK/plf/GD32VW55x_standard_peripheral/Source\gd32vw55x_usart.c ****     /* enable overrun function */
 312:C:/Users/stapi/OneDrive/Desktop/GD32VW553/GD32VW55X_Wifi_BLE_SDK/GD32VW55x_RELEASE_V1.0.2/MSDK/plf/GD32VW55x_standard_peripheral/Source\gd32vw55x_usart.c ****     USART_CTL2(usart_periph) &= ~(USART_CTL2_OVRD);
 555              		.loc 1 312 5 is_stmt 1
 556              		.loc 1 312 30 is_stmt 0
 557 0006 1C45     		lw	a5,8(a0)
 558 0008 9397C748 		bclri	a5,a5,12
 559 000c 1CC5     		sw	a5,8(a0)
 313:C:/Users/stapi/OneDrive/Desktop/GD32VW553/GD32VW55X_Wifi_BLE_SDK/GD32VW55x_RELEASE_V1.0.2/MSDK/plf/GD32VW55x_standard_peripheral/Source\gd32vw55x_usart.c **** }
 560              		.loc 1 313 1
 561 000e 8280     		ret
 562              		.cfi_endproc
 563              	.LFE376:
 565              		.section	.text.usart_overrun_disable,"ax",@progbits
 566              		.align	1
 567              		.globl	usart_overrun_disable
 569              	usart_overrun_disable:
 570              	.LFB377:
 314:C:/Users/stapi/OneDrive/Desktop/GD32VW553/GD32VW55X_Wifi_BLE_SDK/GD32VW55x_RELEASE_V1.0.2/MSDK/plf/GD32VW55x_standard_peripheral/Source\gd32vw55x_usart.c **** 
 315:C:/Users/stapi/OneDrive/Desktop/GD32VW553/GD32VW55X_Wifi_BLE_SDK/GD32VW55x_RELEASE_V1.0.2/MSDK/plf/GD32VW55x_standard_peripheral/Source\gd32vw55x_usart.c **** /*!
 316:C:/Users/stapi/OneDrive/Desktop/GD32VW553/GD32VW55X_Wifi_BLE_SDK/GD32VW55x_RELEASE_V1.0.2/MSDK/plf/GD32VW55x_standard_peripheral/Source\gd32vw55x_usart.c ****     \brief      disable the USART overrun function
 317:C:/Users/stapi/OneDrive/Desktop/GD32VW553/GD32VW55X_Wifi_BLE_SDK/GD32VW55x_RELEASE_V1.0.2/MSDK/plf/GD32VW55x_standard_peripheral/Source\gd32vw55x_usart.c ****     \param[in]  usart_periph: USART0/UARTx(x=1,2)
 318:C:/Users/stapi/OneDrive/Desktop/GD32VW553/GD32VW55X_Wifi_BLE_SDK/GD32VW55x_RELEASE_V1.0.2/MSDK/plf/GD32VW55x_standard_peripheral/Source\gd32vw55x_usart.c ****     \param[out] none
 319:C:/Users/stapi/OneDrive/Desktop/GD32VW553/GD32VW55X_Wifi_BLE_SDK/GD32VW55x_RELEASE_V1.0.2/MSDK/plf/GD32VW55x_standard_peripheral/Source\gd32vw55x_usart.c ****     \retval     none
 320:C:/Users/stapi/OneDrive/Desktop/GD32VW553/GD32VW55X_Wifi_BLE_SDK/GD32VW55x_RELEASE_V1.0.2/MSDK/plf/GD32VW55x_standard_peripheral/Source\gd32vw55x_usart.c **** */
 321:C:/Users/stapi/OneDrive/Desktop/GD32VW553/GD32VW55X_Wifi_BLE_SDK/GD32VW55x_RELEASE_V1.0.2/MSDK/plf/GD32VW55x_standard_peripheral/Source\gd32vw55x_usart.c **** void usart_overrun_disable(uint32_t usart_periph)
 322:C:/Users/stapi/OneDrive/Desktop/GD32VW553/GD32VW55X_Wifi_BLE_SDK/GD32VW55x_RELEASE_V1.0.2/MSDK/plf/GD32VW55x_standard_peripheral/Source\gd32vw55x_usart.c **** {
 571              		.loc 1 322 1 is_stmt 1
 572              		.cfi_startproc
 573              	.LVL40:
 323:C:/Users/stapi/OneDrive/Desktop/GD32VW553/GD32VW55X_Wifi_BLE_SDK/GD32VW55x_RELEASE_V1.0.2/MSDK/plf/GD32VW55x_standard_peripheral/Source\gd32vw55x_usart.c ****     USART_CTL0(usart_periph) &= ~(USART_CTL0_UEN);
 574              		.loc 1 323 5
 575              		.loc 1 323 30 is_stmt 0
 576 0000 1C41     		lw	a5,0(a0)
 577 0002 F99B     		andi	a5,a5,-2
 578 0004 1CC1     		sw	a5,0(a0)
 324:C:/Users/stapi/OneDrive/Desktop/GD32VW553/GD32VW55X_Wifi_BLE_SDK/GD32VW55x_RELEASE_V1.0.2/MSDK/plf/GD32VW55x_standard_peripheral/Source\gd32vw55x_usart.c ****     /* disable overrun function */
 325:C:/Users/stapi/OneDrive/Desktop/GD32VW553/GD32VW55X_Wifi_BLE_SDK/GD32VW55x_RELEASE_V1.0.2/MSDK/plf/GD32VW55x_standard_peripheral/Source\gd32vw55x_usart.c ****     USART_CTL2(usart_periph) |= USART_CTL2_OVRD;
 579              		.loc 1 325 5 is_stmt 1
 580              		.loc 1 325 30 is_stmt 0
 581 0006 1C45     		lw	a5,8(a0)
 582 0008 9397C728 		bseti	a5,a5,12
 583 000c 1CC5     		sw	a5,8(a0)
 326:C:/Users/stapi/OneDrive/Desktop/GD32VW553/GD32VW55X_Wifi_BLE_SDK/GD32VW55x_RELEASE_V1.0.2/MSDK/plf/GD32VW55x_standard_peripheral/Source\gd32vw55x_usart.c **** }
 584              		.loc 1 326 1
 585 000e 8280     		ret
 586              		.cfi_endproc
 587              	.LFE377:
 589              		.section	.text.usart_oversample_config,"ax",@progbits
 590              		.align	1
 591              		.globl	usart_oversample_config
 593              	usart_oversample_config:
 594              	.LFB378:
 327:C:/Users/stapi/OneDrive/Desktop/GD32VW553/GD32VW55X_Wifi_BLE_SDK/GD32VW55x_RELEASE_V1.0.2/MSDK/plf/GD32VW55x_standard_peripheral/Source\gd32vw55x_usart.c **** 
 328:C:/Users/stapi/OneDrive/Desktop/GD32VW553/GD32VW55X_Wifi_BLE_SDK/GD32VW55x_RELEASE_V1.0.2/MSDK/plf/GD32VW55x_standard_peripheral/Source\gd32vw55x_usart.c **** /*!
 329:C:/Users/stapi/OneDrive/Desktop/GD32VW553/GD32VW55X_Wifi_BLE_SDK/GD32VW55x_RELEASE_V1.0.2/MSDK/plf/GD32VW55x_standard_peripheral/Source\gd32vw55x_usart.c ****     \brief      configure the USART oversample mode
 330:C:/Users/stapi/OneDrive/Desktop/GD32VW553/GD32VW55X_Wifi_BLE_SDK/GD32VW55x_RELEASE_V1.0.2/MSDK/plf/GD32VW55x_standard_peripheral/Source\gd32vw55x_usart.c ****     \param[in]  usart_periph: USART0/UARTx(x=1,2)
 331:C:/Users/stapi/OneDrive/Desktop/GD32VW553/GD32VW55X_Wifi_BLE_SDK/GD32VW55x_RELEASE_V1.0.2/MSDK/plf/GD32VW55x_standard_peripheral/Source\gd32vw55x_usart.c ****     \param[in]  oversamp: oversample value
 332:C:/Users/stapi/OneDrive/Desktop/GD32VW553/GD32VW55X_Wifi_BLE_SDK/GD32VW55x_RELEASE_V1.0.2/MSDK/plf/GD32VW55x_standard_peripheral/Source\gd32vw55x_usart.c ****                 only one parameter can be selected which is shown as below:
 333:C:/Users/stapi/OneDrive/Desktop/GD32VW553/GD32VW55X_Wifi_BLE_SDK/GD32VW55x_RELEASE_V1.0.2/MSDK/plf/GD32VW55x_standard_peripheral/Source\gd32vw55x_usart.c ****       \arg        USART_OVSMOD_8: oversampling by 8
 334:C:/Users/stapi/OneDrive/Desktop/GD32VW553/GD32VW55X_Wifi_BLE_SDK/GD32VW55x_RELEASE_V1.0.2/MSDK/plf/GD32VW55x_standard_peripheral/Source\gd32vw55x_usart.c ****       \arg        USART_OVSMOD_16: oversampling by 16
 335:C:/Users/stapi/OneDrive/Desktop/GD32VW553/GD32VW55X_Wifi_BLE_SDK/GD32VW55x_RELEASE_V1.0.2/MSDK/plf/GD32VW55x_standard_peripheral/Source\gd32vw55x_usart.c ****     \param[out] none
 336:C:/Users/stapi/OneDrive/Desktop/GD32VW553/GD32VW55X_Wifi_BLE_SDK/GD32VW55x_RELEASE_V1.0.2/MSDK/plf/GD32VW55x_standard_peripheral/Source\gd32vw55x_usart.c ****     \retval     none
 337:C:/Users/stapi/OneDrive/Desktop/GD32VW553/GD32VW55X_Wifi_BLE_SDK/GD32VW55x_RELEASE_V1.0.2/MSDK/plf/GD32VW55x_standard_peripheral/Source\gd32vw55x_usart.c **** */
 338:C:/Users/stapi/OneDrive/Desktop/GD32VW553/GD32VW55X_Wifi_BLE_SDK/GD32VW55x_RELEASE_V1.0.2/MSDK/plf/GD32VW55x_standard_peripheral/Source\gd32vw55x_usart.c **** void usart_oversample_config(uint32_t usart_periph, uint32_t oversamp)
 339:C:/Users/stapi/OneDrive/Desktop/GD32VW553/GD32VW55X_Wifi_BLE_SDK/GD32VW55x_RELEASE_V1.0.2/MSDK/plf/GD32VW55x_standard_peripheral/Source\gd32vw55x_usart.c **** {
 595              		.loc 1 339 1 is_stmt 1
 596              		.cfi_startproc
 597              	.LVL41:
 340:C:/Users/stapi/OneDrive/Desktop/GD32VW553/GD32VW55X_Wifi_BLE_SDK/GD32VW55x_RELEASE_V1.0.2/MSDK/plf/GD32VW55x_standard_peripheral/Source\gd32vw55x_usart.c ****     /* disable USART */
 341:C:/Users/stapi/OneDrive/Desktop/GD32VW553/GD32VW55X_Wifi_BLE_SDK/GD32VW55x_RELEASE_V1.0.2/MSDK/plf/GD32VW55x_standard_peripheral/Source\gd32vw55x_usart.c ****     USART_CTL0(usart_periph) &= ~(USART_CTL0_UEN);
 598              		.loc 1 341 5
 599              		.loc 1 341 30 is_stmt 0
 600 0000 1841     		lw	a4,0(a0)
 601 0002 799B     		andi	a4,a4,-2
 602 0004 18C1     		sw	a4,0(a0)
 342:C:/Users/stapi/OneDrive/Desktop/GD32VW553/GD32VW55X_Wifi_BLE_SDK/GD32VW55x_RELEASE_V1.0.2/MSDK/plf/GD32VW55x_standard_peripheral/Source\gd32vw55x_usart.c ****     /* clear OVSMOD bit */
 343:C:/Users/stapi/OneDrive/Desktop/GD32VW553/GD32VW55X_Wifi_BLE_SDK/GD32VW55x_RELEASE_V1.0.2/MSDK/plf/GD32VW55x_standard_peripheral/Source\gd32vw55x_usart.c ****     USART_CTL0(usart_periph) &= ~(USART_CTL0_OVSMOD);
 603              		.loc 1 343 5 is_stmt 1
 604              		.loc 1 343 30 is_stmt 0
 605 0006 1841     		lw	a4,0(a0)
 606 0008 1317F748 		bclri	a4,a4,15
 607 000c 18C1     		sw	a4,0(a0)
 344:C:/Users/stapi/OneDrive/Desktop/GD32VW553/GD32VW55X_Wifi_BLE_SDK/GD32VW55x_RELEASE_V1.0.2/MSDK/plf/GD32VW55x_standard_peripheral/Source\gd32vw55x_usart.c ****     USART_CTL0(usart_periph) |= oversamp;
 608              		.loc 1 344 5 is_stmt 1
 609              		.loc 1 344 30 is_stmt 0
 610 000e 1C41     		lw	a5,0(a0)
 611 0010 CD8F     		or	a5,a5,a1
 612 0012 1CC1     		sw	a5,0(a0)
 345:C:/Users/stapi/OneDrive/Desktop/GD32VW553/GD32VW55X_Wifi_BLE_SDK/GD32VW55x_RELEASE_V1.0.2/MSDK/plf/GD32VW55x_standard_peripheral/Source\gd32vw55x_usart.c **** }
 613              		.loc 1 345 1
 614 0014 8280     		ret
 615              		.cfi_endproc
 616              	.LFE378:
 618              		.section	.text.usart_sample_bit_config,"ax",@progbits
 619              		.align	1
 620              		.globl	usart_sample_bit_config
 622              	usart_sample_bit_config:
 623              	.LFB379:
 346:C:/Users/stapi/OneDrive/Desktop/GD32VW553/GD32VW55X_Wifi_BLE_SDK/GD32VW55x_RELEASE_V1.0.2/MSDK/plf/GD32VW55x_standard_peripheral/Source\gd32vw55x_usart.c **** 
 347:C:/Users/stapi/OneDrive/Desktop/GD32VW553/GD32VW55X_Wifi_BLE_SDK/GD32VW55x_RELEASE_V1.0.2/MSDK/plf/GD32VW55x_standard_peripheral/Source\gd32vw55x_usart.c **** /*!
 348:C:/Users/stapi/OneDrive/Desktop/GD32VW553/GD32VW55X_Wifi_BLE_SDK/GD32VW55x_RELEASE_V1.0.2/MSDK/plf/GD32VW55x_standard_peripheral/Source\gd32vw55x_usart.c ****     \brief      configure the sample bit method
 349:C:/Users/stapi/OneDrive/Desktop/GD32VW553/GD32VW55X_Wifi_BLE_SDK/GD32VW55x_RELEASE_V1.0.2/MSDK/plf/GD32VW55x_standard_peripheral/Source\gd32vw55x_usart.c ****     \param[in]  usart_periph: USART0/UARTx(x=1,2)
 350:C:/Users/stapi/OneDrive/Desktop/GD32VW553/GD32VW55X_Wifi_BLE_SDK/GD32VW55x_RELEASE_V1.0.2/MSDK/plf/GD32VW55x_standard_peripheral/Source\gd32vw55x_usart.c ****     \param[in]  osb: sample bit
 351:C:/Users/stapi/OneDrive/Desktop/GD32VW553/GD32VW55X_Wifi_BLE_SDK/GD32VW55x_RELEASE_V1.0.2/MSDK/plf/GD32VW55x_standard_peripheral/Source\gd32vw55x_usart.c ****                 only one parameter can be selected which is shown as below:
 352:C:/Users/stapi/OneDrive/Desktop/GD32VW553/GD32VW55X_Wifi_BLE_SDK/GD32VW55x_RELEASE_V1.0.2/MSDK/plf/GD32VW55x_standard_peripheral/Source\gd32vw55x_usart.c ****       \arg        USART_OSB_1BIT: 1 bit
 353:C:/Users/stapi/OneDrive/Desktop/GD32VW553/GD32VW55X_Wifi_BLE_SDK/GD32VW55x_RELEASE_V1.0.2/MSDK/plf/GD32VW55x_standard_peripheral/Source\gd32vw55x_usart.c ****       \arg        USART_OSB_3BIT: 3 bits
 354:C:/Users/stapi/OneDrive/Desktop/GD32VW553/GD32VW55X_Wifi_BLE_SDK/GD32VW55x_RELEASE_V1.0.2/MSDK/plf/GD32VW55x_standard_peripheral/Source\gd32vw55x_usart.c ****     \param[out] none
 355:C:/Users/stapi/OneDrive/Desktop/GD32VW553/GD32VW55X_Wifi_BLE_SDK/GD32VW55x_RELEASE_V1.0.2/MSDK/plf/GD32VW55x_standard_peripheral/Source\gd32vw55x_usart.c ****     \retval     none
 356:C:/Users/stapi/OneDrive/Desktop/GD32VW553/GD32VW55X_Wifi_BLE_SDK/GD32VW55x_RELEASE_V1.0.2/MSDK/plf/GD32VW55x_standard_peripheral/Source\gd32vw55x_usart.c **** */
 357:C:/Users/stapi/OneDrive/Desktop/GD32VW553/GD32VW55X_Wifi_BLE_SDK/GD32VW55x_RELEASE_V1.0.2/MSDK/plf/GD32VW55x_standard_peripheral/Source\gd32vw55x_usart.c **** void usart_sample_bit_config(uint32_t usart_periph, uint32_t osb)
 358:C:/Users/stapi/OneDrive/Desktop/GD32VW553/GD32VW55X_Wifi_BLE_SDK/GD32VW55x_RELEASE_V1.0.2/MSDK/plf/GD32VW55x_standard_peripheral/Source\gd32vw55x_usart.c **** {
 624              		.loc 1 358 1 is_stmt 1
 625              		.cfi_startproc
 626              	.LVL42:
 359:C:/Users/stapi/OneDrive/Desktop/GD32VW553/GD32VW55X_Wifi_BLE_SDK/GD32VW55x_RELEASE_V1.0.2/MSDK/plf/GD32VW55x_standard_peripheral/Source\gd32vw55x_usart.c ****     /* disable USART */
 360:C:/Users/stapi/OneDrive/Desktop/GD32VW553/GD32VW55X_Wifi_BLE_SDK/GD32VW55x_RELEASE_V1.0.2/MSDK/plf/GD32VW55x_standard_peripheral/Source\gd32vw55x_usart.c ****     USART_CTL0(usart_periph) &= ~(USART_CTL0_UEN);
 627              		.loc 1 360 5
 628              		.loc 1 360 30 is_stmt 0
 629 0000 1841     		lw	a4,0(a0)
 630 0002 799B     		andi	a4,a4,-2
 631 0004 18C1     		sw	a4,0(a0)
 361:C:/Users/stapi/OneDrive/Desktop/GD32VW553/GD32VW55X_Wifi_BLE_SDK/GD32VW55x_RELEASE_V1.0.2/MSDK/plf/GD32VW55x_standard_peripheral/Source\gd32vw55x_usart.c **** 
 362:C:/Users/stapi/OneDrive/Desktop/GD32VW553/GD32VW55X_Wifi_BLE_SDK/GD32VW55x_RELEASE_V1.0.2/MSDK/plf/GD32VW55x_standard_peripheral/Source\gd32vw55x_usart.c ****     USART_CTL2(usart_periph) &= ~(USART_CTL2_OSB);
 632              		.loc 1 362 5 is_stmt 1
 633              		.loc 1 362 30 is_stmt 0
 634 0006 1845     		lw	a4,8(a0)
 635 0008 1317B748 		bclri	a4,a4,11
 636 000c 18C5     		sw	a4,8(a0)
 363:C:/Users/stapi/OneDrive/Desktop/GD32VW553/GD32VW55X_Wifi_BLE_SDK/GD32VW55x_RELEASE_V1.0.2/MSDK/plf/GD32VW55x_standard_peripheral/Source\gd32vw55x_usart.c ****     USART_CTL2(usart_periph) |= osb;
 637              		.loc 1 363 5 is_stmt 1
 638              		.loc 1 363 30 is_stmt 0
 639 000e 1C45     		lw	a5,8(a0)
 640 0010 CD8F     		or	a5,a5,a1
 641 0012 1CC5     		sw	a5,8(a0)
 364:C:/Users/stapi/OneDrive/Desktop/GD32VW553/GD32VW55X_Wifi_BLE_SDK/GD32VW55x_RELEASE_V1.0.2/MSDK/plf/GD32VW55x_standard_peripheral/Source\gd32vw55x_usart.c **** }
 642              		.loc 1 364 1
 643 0014 8280     		ret
 644              		.cfi_endproc
 645              	.LFE379:
 647              		.section	.text.usart_receiver_timeout_enable,"ax",@progbits
 648              		.align	1
 649              		.globl	usart_receiver_timeout_enable
 651              	usart_receiver_timeout_enable:
 652              	.LFB380:
 365:C:/Users/stapi/OneDrive/Desktop/GD32VW553/GD32VW55X_Wifi_BLE_SDK/GD32VW55x_RELEASE_V1.0.2/MSDK/plf/GD32VW55x_standard_peripheral/Source\gd32vw55x_usart.c **** 
 366:C:/Users/stapi/OneDrive/Desktop/GD32VW553/GD32VW55X_Wifi_BLE_SDK/GD32VW55x_RELEASE_V1.0.2/MSDK/plf/GD32VW55x_standard_peripheral/Source\gd32vw55x_usart.c **** /*!
 367:C:/Users/stapi/OneDrive/Desktop/GD32VW553/GD32VW55X_Wifi_BLE_SDK/GD32VW55x_RELEASE_V1.0.2/MSDK/plf/GD32VW55x_standard_peripheral/Source\gd32vw55x_usart.c ****     \brief      enable receiver timeout
 368:C:/Users/stapi/OneDrive/Desktop/GD32VW553/GD32VW55X_Wifi_BLE_SDK/GD32VW55x_RELEASE_V1.0.2/MSDK/plf/GD32VW55x_standard_peripheral/Source\gd32vw55x_usart.c ****     \param[in]  usart_periph: USART0
 369:C:/Users/stapi/OneDrive/Desktop/GD32VW553/GD32VW55X_Wifi_BLE_SDK/GD32VW55x_RELEASE_V1.0.2/MSDK/plf/GD32VW55x_standard_peripheral/Source\gd32vw55x_usart.c ****     \param[out] none
 370:C:/Users/stapi/OneDrive/Desktop/GD32VW553/GD32VW55X_Wifi_BLE_SDK/GD32VW55x_RELEASE_V1.0.2/MSDK/plf/GD32VW55x_standard_peripheral/Source\gd32vw55x_usart.c ****     \retval     none
 371:C:/Users/stapi/OneDrive/Desktop/GD32VW553/GD32VW55X_Wifi_BLE_SDK/GD32VW55x_RELEASE_V1.0.2/MSDK/plf/GD32VW55x_standard_peripheral/Source\gd32vw55x_usart.c **** */
 372:C:/Users/stapi/OneDrive/Desktop/GD32VW553/GD32VW55X_Wifi_BLE_SDK/GD32VW55x_RELEASE_V1.0.2/MSDK/plf/GD32VW55x_standard_peripheral/Source\gd32vw55x_usart.c **** void usart_receiver_timeout_enable(uint32_t usart_periph)
 373:C:/Users/stapi/OneDrive/Desktop/GD32VW553/GD32VW55X_Wifi_BLE_SDK/GD32VW55x_RELEASE_V1.0.2/MSDK/plf/GD32VW55x_standard_peripheral/Source\gd32vw55x_usart.c **** {
 653              		.loc 1 373 1 is_stmt 1
 654              		.cfi_startproc
 655              	.LVL43:
 374:C:/Users/stapi/OneDrive/Desktop/GD32VW553/GD32VW55X_Wifi_BLE_SDK/GD32VW55x_RELEASE_V1.0.2/MSDK/plf/GD32VW55x_standard_peripheral/Source\gd32vw55x_usart.c ****     USART_CTL1(usart_periph) |= USART_CTL1_RTEN;
 656              		.loc 1 374 5
 657              		.loc 1 374 30 is_stmt 0
 658 0000 5C41     		lw	a5,4(a0)
 659 0002 93977729 		bseti	a5,a5,23
 660 0006 5CC1     		sw	a5,4(a0)
 375:C:/Users/stapi/OneDrive/Desktop/GD32VW553/GD32VW55X_Wifi_BLE_SDK/GD32VW55x_RELEASE_V1.0.2/MSDK/plf/GD32VW55x_standard_peripheral/Source\gd32vw55x_usart.c **** }
 661              		.loc 1 375 1
 662 0008 8280     		ret
 663              		.cfi_endproc
 664              	.LFE380:
 666              		.section	.text.usart_receiver_timeout_disable,"ax",@progbits
 667              		.align	1
 668              		.globl	usart_receiver_timeout_disable
 670              	usart_receiver_timeout_disable:
 671              	.LFB381:
 376:C:/Users/stapi/OneDrive/Desktop/GD32VW553/GD32VW55X_Wifi_BLE_SDK/GD32VW55x_RELEASE_V1.0.2/MSDK/plf/GD32VW55x_standard_peripheral/Source\gd32vw55x_usart.c **** 
 377:C:/Users/stapi/OneDrive/Desktop/GD32VW553/GD32VW55X_Wifi_BLE_SDK/GD32VW55x_RELEASE_V1.0.2/MSDK/plf/GD32VW55x_standard_peripheral/Source\gd32vw55x_usart.c **** /*!
 378:C:/Users/stapi/OneDrive/Desktop/GD32VW553/GD32VW55X_Wifi_BLE_SDK/GD32VW55x_RELEASE_V1.0.2/MSDK/plf/GD32VW55x_standard_peripheral/Source\gd32vw55x_usart.c ****     \brief      disable receiver timeout
 379:C:/Users/stapi/OneDrive/Desktop/GD32VW553/GD32VW55X_Wifi_BLE_SDK/GD32VW55x_RELEASE_V1.0.2/MSDK/plf/GD32VW55x_standard_peripheral/Source\gd32vw55x_usart.c ****     \param[in]  usart_periph: USART0
 380:C:/Users/stapi/OneDrive/Desktop/GD32VW553/GD32VW55X_Wifi_BLE_SDK/GD32VW55x_RELEASE_V1.0.2/MSDK/plf/GD32VW55x_standard_peripheral/Source\gd32vw55x_usart.c ****     \param[out] none
 381:C:/Users/stapi/OneDrive/Desktop/GD32VW553/GD32VW55X_Wifi_BLE_SDK/GD32VW55x_RELEASE_V1.0.2/MSDK/plf/GD32VW55x_standard_peripheral/Source\gd32vw55x_usart.c ****     \retval     none
 382:C:/Users/stapi/OneDrive/Desktop/GD32VW553/GD32VW55X_Wifi_BLE_SDK/GD32VW55x_RELEASE_V1.0.2/MSDK/plf/GD32VW55x_standard_peripheral/Source\gd32vw55x_usart.c **** */
 383:C:/Users/stapi/OneDrive/Desktop/GD32VW553/GD32VW55X_Wifi_BLE_SDK/GD32VW55x_RELEASE_V1.0.2/MSDK/plf/GD32VW55x_standard_peripheral/Source\gd32vw55x_usart.c **** void usart_receiver_timeout_disable(uint32_t usart_periph)
 384:C:/Users/stapi/OneDrive/Desktop/GD32VW553/GD32VW55X_Wifi_BLE_SDK/GD32VW55x_RELEASE_V1.0.2/MSDK/plf/GD32VW55x_standard_peripheral/Source\gd32vw55x_usart.c **** {
 672              		.loc 1 384 1 is_stmt 1
 673              		.cfi_startproc
 674              	.LVL44:
 385:C:/Users/stapi/OneDrive/Desktop/GD32VW553/GD32VW55X_Wifi_BLE_SDK/GD32VW55x_RELEASE_V1.0.2/MSDK/plf/GD32VW55x_standard_peripheral/Source\gd32vw55x_usart.c ****     USART_CTL1(usart_periph) &= ~(USART_CTL1_RTEN);
 675              		.loc 1 385 5
 676              		.loc 1 385 30 is_stmt 0
 677 0000 5C41     		lw	a5,4(a0)
 678 0002 93977749 		bclri	a5,a5,23
 679 0006 5CC1     		sw	a5,4(a0)
 386:C:/Users/stapi/OneDrive/Desktop/GD32VW553/GD32VW55X_Wifi_BLE_SDK/GD32VW55x_RELEASE_V1.0.2/MSDK/plf/GD32VW55x_standard_peripheral/Source\gd32vw55x_usart.c **** }
 680              		.loc 1 386 1
 681 0008 8280     		ret
 682              		.cfi_endproc
 683              	.LFE381:
 685              		.section	.text.usart_receiver_timeout_threshold_config,"ax",@progbits
 686              		.align	1
 687              		.globl	usart_receiver_timeout_threshold_config
 689              	usart_receiver_timeout_threshold_config:
 690              	.LFB382:
 387:C:/Users/stapi/OneDrive/Desktop/GD32VW553/GD32VW55X_Wifi_BLE_SDK/GD32VW55x_RELEASE_V1.0.2/MSDK/plf/GD32VW55x_standard_peripheral/Source\gd32vw55x_usart.c **** 
 388:C:/Users/stapi/OneDrive/Desktop/GD32VW553/GD32VW55X_Wifi_BLE_SDK/GD32VW55x_RELEASE_V1.0.2/MSDK/plf/GD32VW55x_standard_peripheral/Source\gd32vw55x_usart.c **** /*!
 389:C:/Users/stapi/OneDrive/Desktop/GD32VW553/GD32VW55X_Wifi_BLE_SDK/GD32VW55x_RELEASE_V1.0.2/MSDK/plf/GD32VW55x_standard_peripheral/Source\gd32vw55x_usart.c ****     \brief      configure receiver timeout threshold
 390:C:/Users/stapi/OneDrive/Desktop/GD32VW553/GD32VW55X_Wifi_BLE_SDK/GD32VW55x_RELEASE_V1.0.2/MSDK/plf/GD32VW55x_standard_peripheral/Source\gd32vw55x_usart.c ****     \param[in]  usart_periph: USART0
 391:C:/Users/stapi/OneDrive/Desktop/GD32VW553/GD32VW55X_Wifi_BLE_SDK/GD32VW55x_RELEASE_V1.0.2/MSDK/plf/GD32VW55x_standard_peripheral/Source\gd32vw55x_usart.c ****     \param[in]  rtimeout: 0x00000000-0x00FFFFFF, receiver timeout value in terms of number of baud 
 392:C:/Users/stapi/OneDrive/Desktop/GD32VW553/GD32VW55X_Wifi_BLE_SDK/GD32VW55x_RELEASE_V1.0.2/MSDK/plf/GD32VW55x_standard_peripheral/Source\gd32vw55x_usart.c ****     \param[out] none
 393:C:/Users/stapi/OneDrive/Desktop/GD32VW553/GD32VW55X_Wifi_BLE_SDK/GD32VW55x_RELEASE_V1.0.2/MSDK/plf/GD32VW55x_standard_peripheral/Source\gd32vw55x_usart.c ****     \retval     none
 394:C:/Users/stapi/OneDrive/Desktop/GD32VW553/GD32VW55X_Wifi_BLE_SDK/GD32VW55x_RELEASE_V1.0.2/MSDK/plf/GD32VW55x_standard_peripheral/Source\gd32vw55x_usart.c **** */
 395:C:/Users/stapi/OneDrive/Desktop/GD32VW553/GD32VW55X_Wifi_BLE_SDK/GD32VW55x_RELEASE_V1.0.2/MSDK/plf/GD32VW55x_standard_peripheral/Source\gd32vw55x_usart.c **** void usart_receiver_timeout_threshold_config(uint32_t usart_periph, uint32_t rtimeout)
 396:C:/Users/stapi/OneDrive/Desktop/GD32VW553/GD32VW55X_Wifi_BLE_SDK/GD32VW55x_RELEASE_V1.0.2/MSDK/plf/GD32VW55x_standard_peripheral/Source\gd32vw55x_usart.c **** {
 691              		.loc 1 396 1 is_stmt 1
 692              		.cfi_startproc
 693              	.LVL45:
 397:C:/Users/stapi/OneDrive/Desktop/GD32VW553/GD32VW55X_Wifi_BLE_SDK/GD32VW55x_RELEASE_V1.0.2/MSDK/plf/GD32VW55x_standard_peripheral/Source\gd32vw55x_usart.c ****     USART_RT(usart_periph) &= ~(USART_RT_RT);
 694              		.loc 1 397 5
 695              		.loc 1 397 28 is_stmt 0
 696 0000 5849     		lw	a4,20(a0)
 697 0002 B70700FF 		li	a5,-16777216
 698 0006 7D8F     		and	a4,a4,a5
 699 0008 58C9     		sw	a4,20(a0)
 398:C:/Users/stapi/OneDrive/Desktop/GD32VW553/GD32VW55X_Wifi_BLE_SDK/GD32VW55x_RELEASE_V1.0.2/MSDK/plf/GD32VW55x_standard_peripheral/Source\gd32vw55x_usart.c ****     USART_RT(usart_periph) |= rtimeout;
 700              		.loc 1 398 5 is_stmt 1
 701              		.loc 1 398 28 is_stmt 0
 702 000a 5C49     		lw	a5,20(a0)
 703 000c CD8F     		or	a5,a5,a1
 704 000e 5CC9     		sw	a5,20(a0)
 399:C:/Users/stapi/OneDrive/Desktop/GD32VW553/GD32VW55X_Wifi_BLE_SDK/GD32VW55x_RELEASE_V1.0.2/MSDK/plf/GD32VW55x_standard_peripheral/Source\gd32vw55x_usart.c **** }
 705              		.loc 1 399 1
 706 0010 8280     		ret
 707              		.cfi_endproc
 708              	.LFE382:
 710              		.section	.text.usart_data_transmit,"ax",@progbits
 711              		.align	1
 712              		.globl	usart_data_transmit
 714              	usart_data_transmit:
 715              	.LFB383:
 400:C:/Users/stapi/OneDrive/Desktop/GD32VW553/GD32VW55X_Wifi_BLE_SDK/GD32VW55x_RELEASE_V1.0.2/MSDK/plf/GD32VW55x_standard_peripheral/Source\gd32vw55x_usart.c **** 
 401:C:/Users/stapi/OneDrive/Desktop/GD32VW553/GD32VW55X_Wifi_BLE_SDK/GD32VW55x_RELEASE_V1.0.2/MSDK/plf/GD32VW55x_standard_peripheral/Source\gd32vw55x_usart.c **** /*!
 402:C:/Users/stapi/OneDrive/Desktop/GD32VW553/GD32VW55X_Wifi_BLE_SDK/GD32VW55x_RELEASE_V1.0.2/MSDK/plf/GD32VW55x_standard_peripheral/Source\gd32vw55x_usart.c ****     \brief      USART transmit data function
 403:C:/Users/stapi/OneDrive/Desktop/GD32VW553/GD32VW55X_Wifi_BLE_SDK/GD32VW55x_RELEASE_V1.0.2/MSDK/plf/GD32VW55x_standard_peripheral/Source\gd32vw55x_usart.c ****     \param[in]  usart_periph: USART0/UARTx(x=1,2)
 404:C:/Users/stapi/OneDrive/Desktop/GD32VW553/GD32VW55X_Wifi_BLE_SDK/GD32VW55x_RELEASE_V1.0.2/MSDK/plf/GD32VW55x_standard_peripheral/Source\gd32vw55x_usart.c ****     \param[in]  data: data of transmission
 405:C:/Users/stapi/OneDrive/Desktop/GD32VW553/GD32VW55X_Wifi_BLE_SDK/GD32VW55x_RELEASE_V1.0.2/MSDK/plf/GD32VW55x_standard_peripheral/Source\gd32vw55x_usart.c ****     \param[out] none
 406:C:/Users/stapi/OneDrive/Desktop/GD32VW553/GD32VW55X_Wifi_BLE_SDK/GD32VW55x_RELEASE_V1.0.2/MSDK/plf/GD32VW55x_standard_peripheral/Source\gd32vw55x_usart.c ****     \retval     none
 407:C:/Users/stapi/OneDrive/Desktop/GD32VW553/GD32VW55X_Wifi_BLE_SDK/GD32VW55x_RELEASE_V1.0.2/MSDK/plf/GD32VW55x_standard_peripheral/Source\gd32vw55x_usart.c **** */
 408:C:/Users/stapi/OneDrive/Desktop/GD32VW553/GD32VW55X_Wifi_BLE_SDK/GD32VW55x_RELEASE_V1.0.2/MSDK/plf/GD32VW55x_standard_peripheral/Source\gd32vw55x_usart.c **** void usart_data_transmit(uint32_t usart_periph, uint16_t data)
 409:C:/Users/stapi/OneDrive/Desktop/GD32VW553/GD32VW55X_Wifi_BLE_SDK/GD32VW55x_RELEASE_V1.0.2/MSDK/plf/GD32VW55x_standard_peripheral/Source\gd32vw55x_usart.c **** {
 716              		.loc 1 409 1 is_stmt 1
 717              		.cfi_startproc
 718              	.LVL46:
 410:C:/Users/stapi/OneDrive/Desktop/GD32VW553/GD32VW55X_Wifi_BLE_SDK/GD32VW55x_RELEASE_V1.0.2/MSDK/plf/GD32VW55x_standard_peripheral/Source\gd32vw55x_usart.c ****     USART_TDATA(usart_periph) = (uint32_t)((uint16_t)USART_TDATA_TDATA & data);
 719              		.loc 1 410 5
 720              		.loc 1 410 33 is_stmt 0
 721 0000 93F5F51F 		andi	a1,a1,511
 722              	.LVL47:
 723              		.loc 1 410 31
 724 0004 0CD5     		sw	a1,40(a0)
 411:C:/Users/stapi/OneDrive/Desktop/GD32VW553/GD32VW55X_Wifi_BLE_SDK/GD32VW55x_RELEASE_V1.0.2/MSDK/plf/GD32VW55x_standard_peripheral/Source\gd32vw55x_usart.c **** }
 725              		.loc 1 411 1
 726 0006 8280     		ret
 727              		.cfi_endproc
 728              	.LFE383:
 730              		.section	.text.usart_data_receive,"ax",@progbits
 731              		.align	1
 732              		.globl	usart_data_receive
 734              	usart_data_receive:
 735              	.LFB384:
 412:C:/Users/stapi/OneDrive/Desktop/GD32VW553/GD32VW55X_Wifi_BLE_SDK/GD32VW55x_RELEASE_V1.0.2/MSDK/plf/GD32VW55x_standard_peripheral/Source\gd32vw55x_usart.c **** 
 413:C:/Users/stapi/OneDrive/Desktop/GD32VW553/GD32VW55X_Wifi_BLE_SDK/GD32VW55x_RELEASE_V1.0.2/MSDK/plf/GD32VW55x_standard_peripheral/Source\gd32vw55x_usart.c **** /*!
 414:C:/Users/stapi/OneDrive/Desktop/GD32VW553/GD32VW55X_Wifi_BLE_SDK/GD32VW55x_RELEASE_V1.0.2/MSDK/plf/GD32VW55x_standard_peripheral/Source\gd32vw55x_usart.c ****     \brief      USART receive data function
 415:C:/Users/stapi/OneDrive/Desktop/GD32VW553/GD32VW55X_Wifi_BLE_SDK/GD32VW55x_RELEASE_V1.0.2/MSDK/plf/GD32VW55x_standard_peripheral/Source\gd32vw55x_usart.c ****     \param[in]  usart_periph: USART0/UARTx(x=1,2)
 416:C:/Users/stapi/OneDrive/Desktop/GD32VW553/GD32VW55X_Wifi_BLE_SDK/GD32VW55x_RELEASE_V1.0.2/MSDK/plf/GD32VW55x_standard_peripheral/Source\gd32vw55x_usart.c ****     \param[out] none
 417:C:/Users/stapi/OneDrive/Desktop/GD32VW553/GD32VW55X_Wifi_BLE_SDK/GD32VW55x_RELEASE_V1.0.2/MSDK/plf/GD32VW55x_standard_peripheral/Source\gd32vw55x_usart.c ****     \retval     data of received
 418:C:/Users/stapi/OneDrive/Desktop/GD32VW553/GD32VW55X_Wifi_BLE_SDK/GD32VW55x_RELEASE_V1.0.2/MSDK/plf/GD32VW55x_standard_peripheral/Source\gd32vw55x_usart.c **** */
 419:C:/Users/stapi/OneDrive/Desktop/GD32VW553/GD32VW55X_Wifi_BLE_SDK/GD32VW55x_RELEASE_V1.0.2/MSDK/plf/GD32VW55x_standard_peripheral/Source\gd32vw55x_usart.c **** uint16_t usart_data_receive(uint32_t usart_periph)
 420:C:/Users/stapi/OneDrive/Desktop/GD32VW553/GD32VW55X_Wifi_BLE_SDK/GD32VW55x_RELEASE_V1.0.2/MSDK/plf/GD32VW55x_standard_peripheral/Source\gd32vw55x_usart.c **** {
 736              		.loc 1 420 1 is_stmt 1
 737              		.cfi_startproc
 738              	.LVL48:
 421:C:/Users/stapi/OneDrive/Desktop/GD32VW553/GD32VW55X_Wifi_BLE_SDK/GD32VW55x_RELEASE_V1.0.2/MSDK/plf/GD32VW55x_standard_peripheral/Source\gd32vw55x_usart.c ****     return (uint16_t)(GET_BITS(USART_RDATA(usart_periph), 0U, 8U));
 739              		.loc 1 421 5
 740              		.loc 1 421 23 is_stmt 0
 741 0000 4851     		lw	a0,36(a0)
 742              	.LVL49:
 422:C:/Users/stapi/OneDrive/Desktop/GD32VW553/GD32VW55X_Wifi_BLE_SDK/GD32VW55x_RELEASE_V1.0.2/MSDK/plf/GD32VW55x_standard_peripheral/Source\gd32vw55x_usart.c **** }
 743              		.loc 1 422 1
 744 0002 1375F51F 		andi	a0,a0,511
 745 0006 8280     		ret
 746              		.cfi_endproc
 747              	.LFE384:
 749              		.section	.text.usart_command_enable,"ax",@progbits
 750              		.align	1
 751              		.globl	usart_command_enable
 753              	usart_command_enable:
 754              	.LFB385:
 423:C:/Users/stapi/OneDrive/Desktop/GD32VW553/GD32VW55X_Wifi_BLE_SDK/GD32VW55x_RELEASE_V1.0.2/MSDK/plf/GD32VW55x_standard_peripheral/Source\gd32vw55x_usart.c **** 
 424:C:/Users/stapi/OneDrive/Desktop/GD32VW553/GD32VW55X_Wifi_BLE_SDK/GD32VW55x_RELEASE_V1.0.2/MSDK/plf/GD32VW55x_standard_peripheral/Source\gd32vw55x_usart.c **** /*!
 425:C:/Users/stapi/OneDrive/Desktop/GD32VW553/GD32VW55X_Wifi_BLE_SDK/GD32VW55x_RELEASE_V1.0.2/MSDK/plf/GD32VW55x_standard_peripheral/Source\gd32vw55x_usart.c ****     \brief      enable USART command
 426:C:/Users/stapi/OneDrive/Desktop/GD32VW553/GD32VW55X_Wifi_BLE_SDK/GD32VW55x_RELEASE_V1.0.2/MSDK/plf/GD32VW55x_standard_peripheral/Source\gd32vw55x_usart.c ****     \param[in]  usart_periph: USART0/UARTx(x=1,2)
 427:C:/Users/stapi/OneDrive/Desktop/GD32VW553/GD32VW55X_Wifi_BLE_SDK/GD32VW55x_RELEASE_V1.0.2/MSDK/plf/GD32VW55x_standard_peripheral/Source\gd32vw55x_usart.c ****     \param[in]  cmdtype: command type
 428:C:/Users/stapi/OneDrive/Desktop/GD32VW553/GD32VW55X_Wifi_BLE_SDK/GD32VW55x_RELEASE_V1.0.2/MSDK/plf/GD32VW55x_standard_peripheral/Source\gd32vw55x_usart.c ****                 only one parameter can be selected which is shown as below:
 429:C:/Users/stapi/OneDrive/Desktop/GD32VW553/GD32VW55X_Wifi_BLE_SDK/GD32VW55x_RELEASE_V1.0.2/MSDK/plf/GD32VW55x_standard_peripheral/Source\gd32vw55x_usart.c ****       \arg        USART_CMD_SBKCMD: send break command
 430:C:/Users/stapi/OneDrive/Desktop/GD32VW553/GD32VW55X_Wifi_BLE_SDK/GD32VW55x_RELEASE_V1.0.2/MSDK/plf/GD32VW55x_standard_peripheral/Source\gd32vw55x_usart.c ****       \arg        USART_CMD_MMCMD: mute mode command
 431:C:/Users/stapi/OneDrive/Desktop/GD32VW553/GD32VW55X_Wifi_BLE_SDK/GD32VW55x_RELEASE_V1.0.2/MSDK/plf/GD32VW55x_standard_peripheral/Source\gd32vw55x_usart.c ****       \arg        USART_CMD_RXFCMD: receive data flush command
 432:C:/Users/stapi/OneDrive/Desktop/GD32VW553/GD32VW55X_Wifi_BLE_SDK/GD32VW55x_RELEASE_V1.0.2/MSDK/plf/GD32VW55x_standard_peripheral/Source\gd32vw55x_usart.c ****       \arg        USART_CMD_TXFCMD: transmit data flush request
 433:C:/Users/stapi/OneDrive/Desktop/GD32VW553/GD32VW55X_Wifi_BLE_SDK/GD32VW55x_RELEASE_V1.0.2/MSDK/plf/GD32VW55x_standard_peripheral/Source\gd32vw55x_usart.c ****     \param[out] none
 434:C:/Users/stapi/OneDrive/Desktop/GD32VW553/GD32VW55X_Wifi_BLE_SDK/GD32VW55x_RELEASE_V1.0.2/MSDK/plf/GD32VW55x_standard_peripheral/Source\gd32vw55x_usart.c ****     \retval     none
 435:C:/Users/stapi/OneDrive/Desktop/GD32VW553/GD32VW55X_Wifi_BLE_SDK/GD32VW55x_RELEASE_V1.0.2/MSDK/plf/GD32VW55x_standard_peripheral/Source\gd32vw55x_usart.c **** */
 436:C:/Users/stapi/OneDrive/Desktop/GD32VW553/GD32VW55X_Wifi_BLE_SDK/GD32VW55x_RELEASE_V1.0.2/MSDK/plf/GD32VW55x_standard_peripheral/Source\gd32vw55x_usart.c **** void usart_command_enable(uint32_t usart_periph, uint32_t cmdtype)
 437:C:/Users/stapi/OneDrive/Desktop/GD32VW553/GD32VW55X_Wifi_BLE_SDK/GD32VW55x_RELEASE_V1.0.2/MSDK/plf/GD32VW55x_standard_peripheral/Source\gd32vw55x_usart.c **** {
 755              		.loc 1 437 1 is_stmt 1
 756              		.cfi_startproc
 757              	.LVL50:
 438:C:/Users/stapi/OneDrive/Desktop/GD32VW553/GD32VW55X_Wifi_BLE_SDK/GD32VW55x_RELEASE_V1.0.2/MSDK/plf/GD32VW55x_standard_peripheral/Source\gd32vw55x_usart.c ****     USART_CMD(usart_periph) |= (cmdtype);
 758              		.loc 1 438 5
 759              		.loc 1 438 29 is_stmt 0
 760 0000 1C4D     		lw	a5,24(a0)
 761 0002 CD8F     		or	a5,a5,a1
 762 0004 1CCD     		sw	a5,24(a0)
 439:C:/Users/stapi/OneDrive/Desktop/GD32VW553/GD32VW55X_Wifi_BLE_SDK/GD32VW55x_RELEASE_V1.0.2/MSDK/plf/GD32VW55x_standard_peripheral/Source\gd32vw55x_usart.c **** }
 763              		.loc 1 439 1
 764 0006 8280     		ret
 765              		.cfi_endproc
 766              	.LFE385:
 768              		.section	.text.usart_address_config,"ax",@progbits
 769              		.align	1
 770              		.globl	usart_address_config
 772              	usart_address_config:
 773              	.LFB386:
 440:C:/Users/stapi/OneDrive/Desktop/GD32VW553/GD32VW55X_Wifi_BLE_SDK/GD32VW55x_RELEASE_V1.0.2/MSDK/plf/GD32VW55x_standard_peripheral/Source\gd32vw55x_usart.c **** 
 441:C:/Users/stapi/OneDrive/Desktop/GD32VW553/GD32VW55X_Wifi_BLE_SDK/GD32VW55x_RELEASE_V1.0.2/MSDK/plf/GD32VW55x_standard_peripheral/Source\gd32vw55x_usart.c **** /*!
 442:C:/Users/stapi/OneDrive/Desktop/GD32VW553/GD32VW55X_Wifi_BLE_SDK/GD32VW55x_RELEASE_V1.0.2/MSDK/plf/GD32VW55x_standard_peripheral/Source\gd32vw55x_usart.c ****     \brief      configure address of the USART
 443:C:/Users/stapi/OneDrive/Desktop/GD32VW553/GD32VW55X_Wifi_BLE_SDK/GD32VW55x_RELEASE_V1.0.2/MSDK/plf/GD32VW55x_standard_peripheral/Source\gd32vw55x_usart.c ****     \param[in]  usart_periph: USART0/UARTx(x=1,2)
 444:C:/Users/stapi/OneDrive/Desktop/GD32VW553/GD32VW55X_Wifi_BLE_SDK/GD32VW55x_RELEASE_V1.0.2/MSDK/plf/GD32VW55x_standard_peripheral/Source\gd32vw55x_usart.c ****     \param[in]  addr: 0x00-0xFF, address of USART terminal
 445:C:/Users/stapi/OneDrive/Desktop/GD32VW553/GD32VW55X_Wifi_BLE_SDK/GD32VW55x_RELEASE_V1.0.2/MSDK/plf/GD32VW55x_standard_peripheral/Source\gd32vw55x_usart.c ****     \param[out] none
 446:C:/Users/stapi/OneDrive/Desktop/GD32VW553/GD32VW55X_Wifi_BLE_SDK/GD32VW55x_RELEASE_V1.0.2/MSDK/plf/GD32VW55x_standard_peripheral/Source\gd32vw55x_usart.c ****     \retval     none
 447:C:/Users/stapi/OneDrive/Desktop/GD32VW553/GD32VW55X_Wifi_BLE_SDK/GD32VW55x_RELEASE_V1.0.2/MSDK/plf/GD32VW55x_standard_peripheral/Source\gd32vw55x_usart.c **** */
 448:C:/Users/stapi/OneDrive/Desktop/GD32VW553/GD32VW55X_Wifi_BLE_SDK/GD32VW55x_RELEASE_V1.0.2/MSDK/plf/GD32VW55x_standard_peripheral/Source\gd32vw55x_usart.c **** void usart_address_config(uint32_t usart_periph, uint8_t addr)
 449:C:/Users/stapi/OneDrive/Desktop/GD32VW553/GD32VW55X_Wifi_BLE_SDK/GD32VW55x_RELEASE_V1.0.2/MSDK/plf/GD32VW55x_standard_peripheral/Source\gd32vw55x_usart.c **** {
 774              		.loc 1 449 1 is_stmt 1
 775              		.cfi_startproc
 776              	.LVL51:
 450:C:/Users/stapi/OneDrive/Desktop/GD32VW553/GD32VW55X_Wifi_BLE_SDK/GD32VW55x_RELEASE_V1.0.2/MSDK/plf/GD32VW55x_standard_peripheral/Source\gd32vw55x_usart.c ****     /* disable USART */
 451:C:/Users/stapi/OneDrive/Desktop/GD32VW553/GD32VW55X_Wifi_BLE_SDK/GD32VW55x_RELEASE_V1.0.2/MSDK/plf/GD32VW55x_standard_peripheral/Source\gd32vw55x_usart.c ****     USART_CTL0(usart_periph) &= ~(USART_CTL0_UEN);
 777              		.loc 1 451 5
 778              		.loc 1 451 30 is_stmt 0
 779 0000 1C41     		lw	a5,0(a0)
 452:C:/Users/stapi/OneDrive/Desktop/GD32VW553/GD32VW55X_Wifi_BLE_SDK/GD32VW55x_RELEASE_V1.0.2/MSDK/plf/GD32VW55x_standard_peripheral/Source\gd32vw55x_usart.c **** 
 453:C:/Users/stapi/OneDrive/Desktop/GD32VW553/GD32VW55X_Wifi_BLE_SDK/GD32VW55x_RELEASE_V1.0.2/MSDK/plf/GD32VW55x_standard_peripheral/Source\gd32vw55x_usart.c ****     USART_CTL1(usart_periph) &= ~(USART_CTL1_ADDR);
 454:C:/Users/stapi/OneDrive/Desktop/GD32VW553/GD32VW55X_Wifi_BLE_SDK/GD32VW55x_RELEASE_V1.0.2/MSDK/plf/GD32VW55x_standard_peripheral/Source\gd32vw55x_usart.c ****     USART_CTL1(usart_periph) |= (USART_CTL1_ADDR & (((uint32_t)addr) << CTL1_ADDR_OFFSET));
 780              		.loc 1 454 50
 781 0002 E205     		slli	a1,a1,24
 782              	.LVL52:
 451:C:/Users/stapi/OneDrive/Desktop/GD32VW553/GD32VW55X_Wifi_BLE_SDK/GD32VW55x_RELEASE_V1.0.2/MSDK/plf/GD32VW55x_standard_peripheral/Source\gd32vw55x_usart.c **** 
 783              		.loc 1 451 30
 784 0004 F99B     		andi	a5,a5,-2
 785 0006 1CC1     		sw	a5,0(a0)
 453:C:/Users/stapi/OneDrive/Desktop/GD32VW553/GD32VW55X_Wifi_BLE_SDK/GD32VW55x_RELEASE_V1.0.2/MSDK/plf/GD32VW55x_standard_peripheral/Source\gd32vw55x_usart.c ****     USART_CTL1(usart_periph) |= (USART_CTL1_ADDR & (((uint32_t)addr) << CTL1_ADDR_OFFSET));
 786              		.loc 1 453 5 is_stmt 1
 453:C:/Users/stapi/OneDrive/Desktop/GD32VW553/GD32VW55X_Wifi_BLE_SDK/GD32VW55x_RELEASE_V1.0.2/MSDK/plf/GD32VW55x_standard_peripheral/Source\gd32vw55x_usart.c ****     USART_CTL1(usart_periph) |= (USART_CTL1_ADDR & (((uint32_t)addr) << CTL1_ADDR_OFFSET));
 787              		.loc 1 453 30 is_stmt 0
 788 0008 5C41     		lw	a5,4(a0)
 789 000a A207     		slli	a5,a5,8
 790 000c A183     		srli	a5,a5,8
 791 000e 5CC1     		sw	a5,4(a0)
 792              		.loc 1 454 5 is_stmt 1
 793              		.loc 1 454 30 is_stmt 0
 794 0010 5C41     		lw	a5,4(a0)
 795 0012 DD8D     		or	a1,a1,a5
 796 0014 4CC1     		sw	a1,4(a0)
 455:C:/Users/stapi/OneDrive/Desktop/GD32VW553/GD32VW55X_Wifi_BLE_SDK/GD32VW55x_RELEASE_V1.0.2/MSDK/plf/GD32VW55x_standard_peripheral/Source\gd32vw55x_usart.c **** }
 797              		.loc 1 455 1
 798 0016 8280     		ret
 799              		.cfi_endproc
 800              	.LFE386:
 802              		.section	.text.usart_address_detection_mode_config,"ax",@progbits
 803              		.align	1
 804              		.globl	usart_address_detection_mode_config
 806              	usart_address_detection_mode_config:
 807              	.LFB387:
 456:C:/Users/stapi/OneDrive/Desktop/GD32VW553/GD32VW55X_Wifi_BLE_SDK/GD32VW55x_RELEASE_V1.0.2/MSDK/plf/GD32VW55x_standard_peripheral/Source\gd32vw55x_usart.c **** 
 457:C:/Users/stapi/OneDrive/Desktop/GD32VW553/GD32VW55X_Wifi_BLE_SDK/GD32VW55x_RELEASE_V1.0.2/MSDK/plf/GD32VW55x_standard_peripheral/Source\gd32vw55x_usart.c **** /*!
 458:C:/Users/stapi/OneDrive/Desktop/GD32VW553/GD32VW55X_Wifi_BLE_SDK/GD32VW55x_RELEASE_V1.0.2/MSDK/plf/GD32VW55x_standard_peripheral/Source\gd32vw55x_usart.c ****     \brief      configure address detection mode
 459:C:/Users/stapi/OneDrive/Desktop/GD32VW553/GD32VW55X_Wifi_BLE_SDK/GD32VW55x_RELEASE_V1.0.2/MSDK/plf/GD32VW55x_standard_peripheral/Source\gd32vw55x_usart.c ****     \param[in]  usart_periph: USART0/UARTx(x=1,2)
 460:C:/Users/stapi/OneDrive/Desktop/GD32VW553/GD32VW55X_Wifi_BLE_SDK/GD32VW55x_RELEASE_V1.0.2/MSDK/plf/GD32VW55x_standard_peripheral/Source\gd32vw55x_usart.c ****     \param[in]  addmod: address detection mode
 461:C:/Users/stapi/OneDrive/Desktop/GD32VW553/GD32VW55X_Wifi_BLE_SDK/GD32VW55x_RELEASE_V1.0.2/MSDK/plf/GD32VW55x_standard_peripheral/Source\gd32vw55x_usart.c ****                 only one parameter can be selected which is shown as below:
 462:C:/Users/stapi/OneDrive/Desktop/GD32VW553/GD32VW55X_Wifi_BLE_SDK/GD32VW55x_RELEASE_V1.0.2/MSDK/plf/GD32VW55x_standard_peripheral/Source\gd32vw55x_usart.c ****       \arg        USART_ADDM_4BIT: 4 bits
 463:C:/Users/stapi/OneDrive/Desktop/GD32VW553/GD32VW55X_Wifi_BLE_SDK/GD32VW55x_RELEASE_V1.0.2/MSDK/plf/GD32VW55x_standard_peripheral/Source\gd32vw55x_usart.c ****       \arg        USART_ADDM_FULLBIT: full bits
 464:C:/Users/stapi/OneDrive/Desktop/GD32VW553/GD32VW55X_Wifi_BLE_SDK/GD32VW55x_RELEASE_V1.0.2/MSDK/plf/GD32VW55x_standard_peripheral/Source\gd32vw55x_usart.c ****     \param[out] none
 465:C:/Users/stapi/OneDrive/Desktop/GD32VW553/GD32VW55X_Wifi_BLE_SDK/GD32VW55x_RELEASE_V1.0.2/MSDK/plf/GD32VW55x_standard_peripheral/Source\gd32vw55x_usart.c ****     \retval     none
 466:C:/Users/stapi/OneDrive/Desktop/GD32VW553/GD32VW55X_Wifi_BLE_SDK/GD32VW55x_RELEASE_V1.0.2/MSDK/plf/GD32VW55x_standard_peripheral/Source\gd32vw55x_usart.c **** */
 467:C:/Users/stapi/OneDrive/Desktop/GD32VW553/GD32VW55X_Wifi_BLE_SDK/GD32VW55x_RELEASE_V1.0.2/MSDK/plf/GD32VW55x_standard_peripheral/Source\gd32vw55x_usart.c **** void usart_address_detection_mode_config(uint32_t usart_periph, uint32_t addmod)
 468:C:/Users/stapi/OneDrive/Desktop/GD32VW553/GD32VW55X_Wifi_BLE_SDK/GD32VW55x_RELEASE_V1.0.2/MSDK/plf/GD32VW55x_standard_peripheral/Source\gd32vw55x_usart.c **** {
 808              		.loc 1 468 1 is_stmt 1
 809              		.cfi_startproc
 810              	.LVL53:
 469:C:/Users/stapi/OneDrive/Desktop/GD32VW553/GD32VW55X_Wifi_BLE_SDK/GD32VW55x_RELEASE_V1.0.2/MSDK/plf/GD32VW55x_standard_peripheral/Source\gd32vw55x_usart.c ****     /* disable USART */
 470:C:/Users/stapi/OneDrive/Desktop/GD32VW553/GD32VW55X_Wifi_BLE_SDK/GD32VW55x_RELEASE_V1.0.2/MSDK/plf/GD32VW55x_standard_peripheral/Source\gd32vw55x_usart.c ****     USART_CTL0(usart_periph) &= ~(USART_CTL0_UEN);
 811              		.loc 1 470 5
 812              		.loc 1 470 30 is_stmt 0
 813 0000 1C41     		lw	a5,0(a0)
 471:C:/Users/stapi/OneDrive/Desktop/GD32VW553/GD32VW55X_Wifi_BLE_SDK/GD32VW55x_RELEASE_V1.0.2/MSDK/plf/GD32VW55x_standard_peripheral/Source\gd32vw55x_usart.c **** 
 472:C:/Users/stapi/OneDrive/Desktop/GD32VW553/GD32VW55X_Wifi_BLE_SDK/GD32VW55x_RELEASE_V1.0.2/MSDK/plf/GD32VW55x_standard_peripheral/Source\gd32vw55x_usart.c ****     USART_CTL1(usart_periph) &= ~(USART_CTL1_ADDM);
 473:C:/Users/stapi/OneDrive/Desktop/GD32VW553/GD32VW55X_Wifi_BLE_SDK/GD32VW55x_RELEASE_V1.0.2/MSDK/plf/GD32VW55x_standard_peripheral/Source\gd32vw55x_usart.c ****     USART_CTL1(usart_periph) |= USART_CTL1_ADDM & (addmod);
 814              		.loc 1 473 49
 815 0002 C189     		andi	a1,a1,16
 816              	.LVL54:
 470:C:/Users/stapi/OneDrive/Desktop/GD32VW553/GD32VW55X_Wifi_BLE_SDK/GD32VW55x_RELEASE_V1.0.2/MSDK/plf/GD32VW55x_standard_peripheral/Source\gd32vw55x_usart.c **** 
 817              		.loc 1 470 30
 818 0004 F99B     		andi	a5,a5,-2
 819 0006 1CC1     		sw	a5,0(a0)
 472:C:/Users/stapi/OneDrive/Desktop/GD32VW553/GD32VW55X_Wifi_BLE_SDK/GD32VW55x_RELEASE_V1.0.2/MSDK/plf/GD32VW55x_standard_peripheral/Source\gd32vw55x_usart.c ****     USART_CTL1(usart_periph) |= USART_CTL1_ADDM & (addmod);
 820              		.loc 1 472 5 is_stmt 1
 472:C:/Users/stapi/OneDrive/Desktop/GD32VW553/GD32VW55X_Wifi_BLE_SDK/GD32VW55x_RELEASE_V1.0.2/MSDK/plf/GD32VW55x_standard_peripheral/Source\gd32vw55x_usart.c ****     USART_CTL1(usart_periph) |= USART_CTL1_ADDM & (addmod);
 821              		.loc 1 472 30 is_stmt 0
 822 0008 5C41     		lw	a5,4(a0)
 823 000a BD9B     		andi	a5,a5,-17
 824 000c 5CC1     		sw	a5,4(a0)
 825              		.loc 1 473 5 is_stmt 1
 826              		.loc 1 473 30 is_stmt 0
 827 000e 5C41     		lw	a5,4(a0)
 828 0010 DD8D     		or	a1,a1,a5
 829 0012 4CC1     		sw	a1,4(a0)
 474:C:/Users/stapi/OneDrive/Desktop/GD32VW553/GD32VW55X_Wifi_BLE_SDK/GD32VW55x_RELEASE_V1.0.2/MSDK/plf/GD32VW55x_standard_peripheral/Source\gd32vw55x_usart.c **** }
 830              		.loc 1 474 1
 831 0014 8280     		ret
 832              		.cfi_endproc
 833              	.LFE387:
 835              		.section	.text.usart_mute_mode_enable,"ax",@progbits
 836              		.align	1
 837              		.globl	usart_mute_mode_enable
 839              	usart_mute_mode_enable:
 840              	.LFB388:
 475:C:/Users/stapi/OneDrive/Desktop/GD32VW553/GD32VW55X_Wifi_BLE_SDK/GD32VW55x_RELEASE_V1.0.2/MSDK/plf/GD32VW55x_standard_peripheral/Source\gd32vw55x_usart.c **** 
 476:C:/Users/stapi/OneDrive/Desktop/GD32VW553/GD32VW55X_Wifi_BLE_SDK/GD32VW55x_RELEASE_V1.0.2/MSDK/plf/GD32VW55x_standard_peripheral/Source\gd32vw55x_usart.c **** /*!
 477:C:/Users/stapi/OneDrive/Desktop/GD32VW553/GD32VW55X_Wifi_BLE_SDK/GD32VW55x_RELEASE_V1.0.2/MSDK/plf/GD32VW55x_standard_peripheral/Source\gd32vw55x_usart.c ****     \brief      enable mute mode
 478:C:/Users/stapi/OneDrive/Desktop/GD32VW553/GD32VW55X_Wifi_BLE_SDK/GD32VW55x_RELEASE_V1.0.2/MSDK/plf/GD32VW55x_standard_peripheral/Source\gd32vw55x_usart.c ****     \param[in]  usart_periph: USART0/UARTx(x=1,2)
 479:C:/Users/stapi/OneDrive/Desktop/GD32VW553/GD32VW55X_Wifi_BLE_SDK/GD32VW55x_RELEASE_V1.0.2/MSDK/plf/GD32VW55x_standard_peripheral/Source\gd32vw55x_usart.c ****     \param[out] none
 480:C:/Users/stapi/OneDrive/Desktop/GD32VW553/GD32VW55X_Wifi_BLE_SDK/GD32VW55x_RELEASE_V1.0.2/MSDK/plf/GD32VW55x_standard_peripheral/Source\gd32vw55x_usart.c ****     \retval     none
 481:C:/Users/stapi/OneDrive/Desktop/GD32VW553/GD32VW55X_Wifi_BLE_SDK/GD32VW55x_RELEASE_V1.0.2/MSDK/plf/GD32VW55x_standard_peripheral/Source\gd32vw55x_usart.c **** */
 482:C:/Users/stapi/OneDrive/Desktop/GD32VW553/GD32VW55X_Wifi_BLE_SDK/GD32VW55x_RELEASE_V1.0.2/MSDK/plf/GD32VW55x_standard_peripheral/Source\gd32vw55x_usart.c **** void usart_mute_mode_enable(uint32_t usart_periph)
 483:C:/Users/stapi/OneDrive/Desktop/GD32VW553/GD32VW55X_Wifi_BLE_SDK/GD32VW55x_RELEASE_V1.0.2/MSDK/plf/GD32VW55x_standard_peripheral/Source\gd32vw55x_usart.c **** {
 841              		.loc 1 483 1 is_stmt 1
 842              		.cfi_startproc
 843              	.LVL55:
 484:C:/Users/stapi/OneDrive/Desktop/GD32VW553/GD32VW55X_Wifi_BLE_SDK/GD32VW55x_RELEASE_V1.0.2/MSDK/plf/GD32VW55x_standard_peripheral/Source\gd32vw55x_usart.c ****     USART_CTL0(usart_periph) |= USART_CTL0_MEN;
 844              		.loc 1 484 5
 845              		.loc 1 484 30 is_stmt 0
 846 0000 1C41     		lw	a5,0(a0)
 847 0002 9397D728 		bseti	a5,a5,13
 848 0006 1CC1     		sw	a5,0(a0)
 485:C:/Users/stapi/OneDrive/Desktop/GD32VW553/GD32VW55X_Wifi_BLE_SDK/GD32VW55x_RELEASE_V1.0.2/MSDK/plf/GD32VW55x_standard_peripheral/Source\gd32vw55x_usart.c **** }
 849              		.loc 1 485 1
 850 0008 8280     		ret
 851              		.cfi_endproc
 852              	.LFE388:
 854              		.section	.text.usart_mute_mode_disable,"ax",@progbits
 855              		.align	1
 856              		.globl	usart_mute_mode_disable
 858              	usart_mute_mode_disable:
 859              	.LFB389:
 486:C:/Users/stapi/OneDrive/Desktop/GD32VW553/GD32VW55X_Wifi_BLE_SDK/GD32VW55x_RELEASE_V1.0.2/MSDK/plf/GD32VW55x_standard_peripheral/Source\gd32vw55x_usart.c **** 
 487:C:/Users/stapi/OneDrive/Desktop/GD32VW553/GD32VW55X_Wifi_BLE_SDK/GD32VW55x_RELEASE_V1.0.2/MSDK/plf/GD32VW55x_standard_peripheral/Source\gd32vw55x_usart.c **** /*!
 488:C:/Users/stapi/OneDrive/Desktop/GD32VW553/GD32VW55X_Wifi_BLE_SDK/GD32VW55x_RELEASE_V1.0.2/MSDK/plf/GD32VW55x_standard_peripheral/Source\gd32vw55x_usart.c ****     \brief      disable mute mode
 489:C:/Users/stapi/OneDrive/Desktop/GD32VW553/GD32VW55X_Wifi_BLE_SDK/GD32VW55x_RELEASE_V1.0.2/MSDK/plf/GD32VW55x_standard_peripheral/Source\gd32vw55x_usart.c ****     \param[in]  usart_periph: USART0/UARTx(x=1,2)
 490:C:/Users/stapi/OneDrive/Desktop/GD32VW553/GD32VW55X_Wifi_BLE_SDK/GD32VW55x_RELEASE_V1.0.2/MSDK/plf/GD32VW55x_standard_peripheral/Source\gd32vw55x_usart.c ****     \param[out] none
 491:C:/Users/stapi/OneDrive/Desktop/GD32VW553/GD32VW55X_Wifi_BLE_SDK/GD32VW55x_RELEASE_V1.0.2/MSDK/plf/GD32VW55x_standard_peripheral/Source\gd32vw55x_usart.c ****     \retval     none
 492:C:/Users/stapi/OneDrive/Desktop/GD32VW553/GD32VW55X_Wifi_BLE_SDK/GD32VW55x_RELEASE_V1.0.2/MSDK/plf/GD32VW55x_standard_peripheral/Source\gd32vw55x_usart.c **** */
 493:C:/Users/stapi/OneDrive/Desktop/GD32VW553/GD32VW55X_Wifi_BLE_SDK/GD32VW55x_RELEASE_V1.0.2/MSDK/plf/GD32VW55x_standard_peripheral/Source\gd32vw55x_usart.c **** void usart_mute_mode_disable(uint32_t usart_periph)
 494:C:/Users/stapi/OneDrive/Desktop/GD32VW553/GD32VW55X_Wifi_BLE_SDK/GD32VW55x_RELEASE_V1.0.2/MSDK/plf/GD32VW55x_standard_peripheral/Source\gd32vw55x_usart.c **** {
 860              		.loc 1 494 1 is_stmt 1
 861              		.cfi_startproc
 862              	.LVL56:
 495:C:/Users/stapi/OneDrive/Desktop/GD32VW553/GD32VW55X_Wifi_BLE_SDK/GD32VW55x_RELEASE_V1.0.2/MSDK/plf/GD32VW55x_standard_peripheral/Source\gd32vw55x_usart.c ****     USART_CTL0(usart_periph) &= ~(USART_CTL0_MEN);
 863              		.loc 1 495 5
 864              		.loc 1 495 30 is_stmt 0
 865 0000 1C41     		lw	a5,0(a0)
 866 0002 9397D748 		bclri	a5,a5,13
 867 0006 1CC1     		sw	a5,0(a0)
 496:C:/Users/stapi/OneDrive/Desktop/GD32VW553/GD32VW55X_Wifi_BLE_SDK/GD32VW55x_RELEASE_V1.0.2/MSDK/plf/GD32VW55x_standard_peripheral/Source\gd32vw55x_usart.c **** }
 868              		.loc 1 496 1
 869 0008 8280     		ret
 870              		.cfi_endproc
 871              	.LFE389:
 873              		.section	.text.usart_mute_mode_wakeup_config,"ax",@progbits
 874              		.align	1
 875              		.globl	usart_mute_mode_wakeup_config
 877              	usart_mute_mode_wakeup_config:
 878              	.LFB390:
 497:C:/Users/stapi/OneDrive/Desktop/GD32VW553/GD32VW55X_Wifi_BLE_SDK/GD32VW55x_RELEASE_V1.0.2/MSDK/plf/GD32VW55x_standard_peripheral/Source\gd32vw55x_usart.c **** 
 498:C:/Users/stapi/OneDrive/Desktop/GD32VW553/GD32VW55X_Wifi_BLE_SDK/GD32VW55x_RELEASE_V1.0.2/MSDK/plf/GD32VW55x_standard_peripheral/Source\gd32vw55x_usart.c **** /*!
 499:C:/Users/stapi/OneDrive/Desktop/GD32VW553/GD32VW55X_Wifi_BLE_SDK/GD32VW55x_RELEASE_V1.0.2/MSDK/plf/GD32VW55x_standard_peripheral/Source\gd32vw55x_usart.c ****     \brief      configure wakeup method in mute mode
 500:C:/Users/stapi/OneDrive/Desktop/GD32VW553/GD32VW55X_Wifi_BLE_SDK/GD32VW55x_RELEASE_V1.0.2/MSDK/plf/GD32VW55x_standard_peripheral/Source\gd32vw55x_usart.c ****     \param[in]  usart_periph: USART0/UARTx(x=1,2)
 501:C:/Users/stapi/OneDrive/Desktop/GD32VW553/GD32VW55X_Wifi_BLE_SDK/GD32VW55x_RELEASE_V1.0.2/MSDK/plf/GD32VW55x_standard_peripheral/Source\gd32vw55x_usart.c ****     \param[in]  wmethod: two methods be used to enter or exit the mute mode
 502:C:/Users/stapi/OneDrive/Desktop/GD32VW553/GD32VW55X_Wifi_BLE_SDK/GD32VW55x_RELEASE_V1.0.2/MSDK/plf/GD32VW55x_standard_peripheral/Source\gd32vw55x_usart.c ****                 only one parameter can be selected which is shown as below:
 503:C:/Users/stapi/OneDrive/Desktop/GD32VW553/GD32VW55X_Wifi_BLE_SDK/GD32VW55x_RELEASE_V1.0.2/MSDK/plf/GD32VW55x_standard_peripheral/Source\gd32vw55x_usart.c ****       \arg        USART_WM_IDLE: idle line
 504:C:/Users/stapi/OneDrive/Desktop/GD32VW553/GD32VW55X_Wifi_BLE_SDK/GD32VW55x_RELEASE_V1.0.2/MSDK/plf/GD32VW55x_standard_peripheral/Source\gd32vw55x_usart.c ****       \arg        USART_WM_ADDR: address mark
 505:C:/Users/stapi/OneDrive/Desktop/GD32VW553/GD32VW55X_Wifi_BLE_SDK/GD32VW55x_RELEASE_V1.0.2/MSDK/plf/GD32VW55x_standard_peripheral/Source\gd32vw55x_usart.c ****     \param[out] none
 506:C:/Users/stapi/OneDrive/Desktop/GD32VW553/GD32VW55X_Wifi_BLE_SDK/GD32VW55x_RELEASE_V1.0.2/MSDK/plf/GD32VW55x_standard_peripheral/Source\gd32vw55x_usart.c ****     \retval     none
 507:C:/Users/stapi/OneDrive/Desktop/GD32VW553/GD32VW55X_Wifi_BLE_SDK/GD32VW55x_RELEASE_V1.0.2/MSDK/plf/GD32VW55x_standard_peripheral/Source\gd32vw55x_usart.c **** */
 508:C:/Users/stapi/OneDrive/Desktop/GD32VW553/GD32VW55X_Wifi_BLE_SDK/GD32VW55x_RELEASE_V1.0.2/MSDK/plf/GD32VW55x_standard_peripheral/Source\gd32vw55x_usart.c **** void usart_mute_mode_wakeup_config(uint32_t usart_periph, uint32_t wmethod)
 509:C:/Users/stapi/OneDrive/Desktop/GD32VW553/GD32VW55X_Wifi_BLE_SDK/GD32VW55x_RELEASE_V1.0.2/MSDK/plf/GD32VW55x_standard_peripheral/Source\gd32vw55x_usart.c **** {
 879              		.loc 1 509 1 is_stmt 1
 880              		.cfi_startproc
 881              	.LVL57:
 510:C:/Users/stapi/OneDrive/Desktop/GD32VW553/GD32VW55X_Wifi_BLE_SDK/GD32VW55x_RELEASE_V1.0.2/MSDK/plf/GD32VW55x_standard_peripheral/Source\gd32vw55x_usart.c ****     /* disable USART */
 511:C:/Users/stapi/OneDrive/Desktop/GD32VW553/GD32VW55X_Wifi_BLE_SDK/GD32VW55x_RELEASE_V1.0.2/MSDK/plf/GD32VW55x_standard_peripheral/Source\gd32vw55x_usart.c ****     USART_CTL0(usart_periph) &= ~(USART_CTL0_UEN);
 882              		.loc 1 511 5
 883              		.loc 1 511 30 is_stmt 0
 884 0000 1841     		lw	a4,0(a0)
 885 0002 799B     		andi	a4,a4,-2
 886 0004 18C1     		sw	a4,0(a0)
 512:C:/Users/stapi/OneDrive/Desktop/GD32VW553/GD32VW55X_Wifi_BLE_SDK/GD32VW55x_RELEASE_V1.0.2/MSDK/plf/GD32VW55x_standard_peripheral/Source\gd32vw55x_usart.c **** 
 513:C:/Users/stapi/OneDrive/Desktop/GD32VW553/GD32VW55X_Wifi_BLE_SDK/GD32VW55x_RELEASE_V1.0.2/MSDK/plf/GD32VW55x_standard_peripheral/Source\gd32vw55x_usart.c ****     USART_CTL0(usart_periph) &= ~(USART_CTL0_WM);
 887              		.loc 1 513 5 is_stmt 1
 888              		.loc 1 513 30 is_stmt 0
 889 0006 1841     		lw	a4,0(a0)
 890 0008 1317B748 		bclri	a4,a4,11
 891 000c 18C1     		sw	a4,0(a0)
 514:C:/Users/stapi/OneDrive/Desktop/GD32VW553/GD32VW55X_Wifi_BLE_SDK/GD32VW55x_RELEASE_V1.0.2/MSDK/plf/GD32VW55x_standard_peripheral/Source\gd32vw55x_usart.c ****     USART_CTL0(usart_periph) |= wmethod;
 892              		.loc 1 514 5 is_stmt 1
 893              		.loc 1 514 30 is_stmt 0
 894 000e 1C41     		lw	a5,0(a0)
 895 0010 CD8F     		or	a5,a5,a1
 896 0012 1CC1     		sw	a5,0(a0)
 515:C:/Users/stapi/OneDrive/Desktop/GD32VW553/GD32VW55X_Wifi_BLE_SDK/GD32VW55x_RELEASE_V1.0.2/MSDK/plf/GD32VW55x_standard_peripheral/Source\gd32vw55x_usart.c **** }
 897              		.loc 1 515 1
 898 0014 8280     		ret
 899              		.cfi_endproc
 900              	.LFE390:
 902              		.section	.text.usart_lin_mode_enable,"ax",@progbits
 903              		.align	1
 904              		.globl	usart_lin_mode_enable
 906              	usart_lin_mode_enable:
 907              	.LFB391:
 516:C:/Users/stapi/OneDrive/Desktop/GD32VW553/GD32VW55X_Wifi_BLE_SDK/GD32VW55x_RELEASE_V1.0.2/MSDK/plf/GD32VW55x_standard_peripheral/Source\gd32vw55x_usart.c **** 
 517:C:/Users/stapi/OneDrive/Desktop/GD32VW553/GD32VW55X_Wifi_BLE_SDK/GD32VW55x_RELEASE_V1.0.2/MSDK/plf/GD32VW55x_standard_peripheral/Source\gd32vw55x_usart.c **** /*!
 518:C:/Users/stapi/OneDrive/Desktop/GD32VW553/GD32VW55X_Wifi_BLE_SDK/GD32VW55x_RELEASE_V1.0.2/MSDK/plf/GD32VW55x_standard_peripheral/Source\gd32vw55x_usart.c ****     \brief      enable LIN mode
 519:C:/Users/stapi/OneDrive/Desktop/GD32VW553/GD32VW55X_Wifi_BLE_SDK/GD32VW55x_RELEASE_V1.0.2/MSDK/plf/GD32VW55x_standard_peripheral/Source\gd32vw55x_usart.c ****     \param[in]  usart_periph: USART0
 520:C:/Users/stapi/OneDrive/Desktop/GD32VW553/GD32VW55X_Wifi_BLE_SDK/GD32VW55x_RELEASE_V1.0.2/MSDK/plf/GD32VW55x_standard_peripheral/Source\gd32vw55x_usart.c ****     \param[out] none
 521:C:/Users/stapi/OneDrive/Desktop/GD32VW553/GD32VW55X_Wifi_BLE_SDK/GD32VW55x_RELEASE_V1.0.2/MSDK/plf/GD32VW55x_standard_peripheral/Source\gd32vw55x_usart.c ****     \retval     none
 522:C:/Users/stapi/OneDrive/Desktop/GD32VW553/GD32VW55X_Wifi_BLE_SDK/GD32VW55x_RELEASE_V1.0.2/MSDK/plf/GD32VW55x_standard_peripheral/Source\gd32vw55x_usart.c **** */
 523:C:/Users/stapi/OneDrive/Desktop/GD32VW553/GD32VW55X_Wifi_BLE_SDK/GD32VW55x_RELEASE_V1.0.2/MSDK/plf/GD32VW55x_standard_peripheral/Source\gd32vw55x_usart.c **** void usart_lin_mode_enable(uint32_t usart_periph)
 524:C:/Users/stapi/OneDrive/Desktop/GD32VW553/GD32VW55X_Wifi_BLE_SDK/GD32VW55x_RELEASE_V1.0.2/MSDK/plf/GD32VW55x_standard_peripheral/Source\gd32vw55x_usart.c **** {
 908              		.loc 1 524 1 is_stmt 1
 909              		.cfi_startproc
 910              	.LVL58:
 525:C:/Users/stapi/OneDrive/Desktop/GD32VW553/GD32VW55X_Wifi_BLE_SDK/GD32VW55x_RELEASE_V1.0.2/MSDK/plf/GD32VW55x_standard_peripheral/Source\gd32vw55x_usart.c ****     /* disable USART */
 526:C:/Users/stapi/OneDrive/Desktop/GD32VW553/GD32VW55X_Wifi_BLE_SDK/GD32VW55x_RELEASE_V1.0.2/MSDK/plf/GD32VW55x_standard_peripheral/Source\gd32vw55x_usart.c ****     USART_CTL0(usart_periph) &= ~(USART_CTL0_UEN);
 911              		.loc 1 526 5
 912              		.loc 1 526 30 is_stmt 0
 913 0000 1C41     		lw	a5,0(a0)
 914 0002 F99B     		andi	a5,a5,-2
 915 0004 1CC1     		sw	a5,0(a0)
 527:C:/Users/stapi/OneDrive/Desktop/GD32VW553/GD32VW55X_Wifi_BLE_SDK/GD32VW55x_RELEASE_V1.0.2/MSDK/plf/GD32VW55x_standard_peripheral/Source\gd32vw55x_usart.c **** 
 528:C:/Users/stapi/OneDrive/Desktop/GD32VW553/GD32VW55X_Wifi_BLE_SDK/GD32VW55x_RELEASE_V1.0.2/MSDK/plf/GD32VW55x_standard_peripheral/Source\gd32vw55x_usart.c ****     USART_CTL1(usart_periph) |= USART_CTL1_LMEN;
 916              		.loc 1 528 5 is_stmt 1
 917              		.loc 1 528 30 is_stmt 0
 918 0006 5C41     		lw	a5,4(a0)
 919 0008 9397E728 		bseti	a5,a5,14
 920 000c 5CC1     		sw	a5,4(a0)
 529:C:/Users/stapi/OneDrive/Desktop/GD32VW553/GD32VW55X_Wifi_BLE_SDK/GD32VW55x_RELEASE_V1.0.2/MSDK/plf/GD32VW55x_standard_peripheral/Source\gd32vw55x_usart.c **** }
 921              		.loc 1 529 1
 922 000e 8280     		ret
 923              		.cfi_endproc
 924              	.LFE391:
 926              		.section	.text.usart_lin_mode_disable,"ax",@progbits
 927              		.align	1
 928              		.globl	usart_lin_mode_disable
 930              	usart_lin_mode_disable:
 931              	.LFB392:
 530:C:/Users/stapi/OneDrive/Desktop/GD32VW553/GD32VW55X_Wifi_BLE_SDK/GD32VW55x_RELEASE_V1.0.2/MSDK/plf/GD32VW55x_standard_peripheral/Source\gd32vw55x_usart.c **** 
 531:C:/Users/stapi/OneDrive/Desktop/GD32VW553/GD32VW55X_Wifi_BLE_SDK/GD32VW55x_RELEASE_V1.0.2/MSDK/plf/GD32VW55x_standard_peripheral/Source\gd32vw55x_usart.c **** /*!
 532:C:/Users/stapi/OneDrive/Desktop/GD32VW553/GD32VW55X_Wifi_BLE_SDK/GD32VW55x_RELEASE_V1.0.2/MSDK/plf/GD32VW55x_standard_peripheral/Source\gd32vw55x_usart.c ****     \brief      disable LIN mode
 533:C:/Users/stapi/OneDrive/Desktop/GD32VW553/GD32VW55X_Wifi_BLE_SDK/GD32VW55x_RELEASE_V1.0.2/MSDK/plf/GD32VW55x_standard_peripheral/Source\gd32vw55x_usart.c ****     \param[in]  usart_periph: USART0
 534:C:/Users/stapi/OneDrive/Desktop/GD32VW553/GD32VW55X_Wifi_BLE_SDK/GD32VW55x_RELEASE_V1.0.2/MSDK/plf/GD32VW55x_standard_peripheral/Source\gd32vw55x_usart.c ****     \param[out] none
 535:C:/Users/stapi/OneDrive/Desktop/GD32VW553/GD32VW55X_Wifi_BLE_SDK/GD32VW55x_RELEASE_V1.0.2/MSDK/plf/GD32VW55x_standard_peripheral/Source\gd32vw55x_usart.c ****     \retval     none
 536:C:/Users/stapi/OneDrive/Desktop/GD32VW553/GD32VW55X_Wifi_BLE_SDK/GD32VW55x_RELEASE_V1.0.2/MSDK/plf/GD32VW55x_standard_peripheral/Source\gd32vw55x_usart.c **** */
 537:C:/Users/stapi/OneDrive/Desktop/GD32VW553/GD32VW55X_Wifi_BLE_SDK/GD32VW55x_RELEASE_V1.0.2/MSDK/plf/GD32VW55x_standard_peripheral/Source\gd32vw55x_usart.c **** void usart_lin_mode_disable(uint32_t usart_periph)
 538:C:/Users/stapi/OneDrive/Desktop/GD32VW553/GD32VW55X_Wifi_BLE_SDK/GD32VW55x_RELEASE_V1.0.2/MSDK/plf/GD32VW55x_standard_peripheral/Source\gd32vw55x_usart.c **** {
 932              		.loc 1 538 1 is_stmt 1
 933              		.cfi_startproc
 934              	.LVL59:
 539:C:/Users/stapi/OneDrive/Desktop/GD32VW553/GD32VW55X_Wifi_BLE_SDK/GD32VW55x_RELEASE_V1.0.2/MSDK/plf/GD32VW55x_standard_peripheral/Source\gd32vw55x_usart.c ****     /* disable USART */
 540:C:/Users/stapi/OneDrive/Desktop/GD32VW553/GD32VW55X_Wifi_BLE_SDK/GD32VW55x_RELEASE_V1.0.2/MSDK/plf/GD32VW55x_standard_peripheral/Source\gd32vw55x_usart.c ****     USART_CTL0(usart_periph) &= ~(USART_CTL0_UEN);
 935              		.loc 1 540 5
 936              		.loc 1 540 30 is_stmt 0
 937 0000 1C41     		lw	a5,0(a0)
 938 0002 F99B     		andi	a5,a5,-2
 939 0004 1CC1     		sw	a5,0(a0)
 541:C:/Users/stapi/OneDrive/Desktop/GD32VW553/GD32VW55X_Wifi_BLE_SDK/GD32VW55x_RELEASE_V1.0.2/MSDK/plf/GD32VW55x_standard_peripheral/Source\gd32vw55x_usart.c **** 
 542:C:/Users/stapi/OneDrive/Desktop/GD32VW553/GD32VW55X_Wifi_BLE_SDK/GD32VW55x_RELEASE_V1.0.2/MSDK/plf/GD32VW55x_standard_peripheral/Source\gd32vw55x_usart.c ****     USART_CTL1(usart_periph) &= ~(USART_CTL1_LMEN);
 940              		.loc 1 542 5 is_stmt 1
 941              		.loc 1 542 30 is_stmt 0
 942 0006 5C41     		lw	a5,4(a0)
 943 0008 9397E748 		bclri	a5,a5,14
 944 000c 5CC1     		sw	a5,4(a0)
 543:C:/Users/stapi/OneDrive/Desktop/GD32VW553/GD32VW55X_Wifi_BLE_SDK/GD32VW55x_RELEASE_V1.0.2/MSDK/plf/GD32VW55x_standard_peripheral/Source\gd32vw55x_usart.c **** }
 945              		.loc 1 543 1
 946 000e 8280     		ret
 947              		.cfi_endproc
 948              	.LFE392:
 950              		.section	.text.usart_lin_break_detection_length_config,"ax",@progbits
 951              		.align	1
 952              		.globl	usart_lin_break_detection_length_config
 954              	usart_lin_break_detection_length_config:
 955              	.LFB393:
 544:C:/Users/stapi/OneDrive/Desktop/GD32VW553/GD32VW55X_Wifi_BLE_SDK/GD32VW55x_RELEASE_V1.0.2/MSDK/plf/GD32VW55x_standard_peripheral/Source\gd32vw55x_usart.c **** 
 545:C:/Users/stapi/OneDrive/Desktop/GD32VW553/GD32VW55X_Wifi_BLE_SDK/GD32VW55x_RELEASE_V1.0.2/MSDK/plf/GD32VW55x_standard_peripheral/Source\gd32vw55x_usart.c **** /*!
 546:C:/Users/stapi/OneDrive/Desktop/GD32VW553/GD32VW55X_Wifi_BLE_SDK/GD32VW55x_RELEASE_V1.0.2/MSDK/plf/GD32VW55x_standard_peripheral/Source\gd32vw55x_usart.c ****     \brief      LIN break detection length
 547:C:/Users/stapi/OneDrive/Desktop/GD32VW553/GD32VW55X_Wifi_BLE_SDK/GD32VW55x_RELEASE_V1.0.2/MSDK/plf/GD32VW55x_standard_peripheral/Source\gd32vw55x_usart.c ****     \param[in]  usart_periph: USART0
 548:C:/Users/stapi/OneDrive/Desktop/GD32VW553/GD32VW55X_Wifi_BLE_SDK/GD32VW55x_RELEASE_V1.0.2/MSDK/plf/GD32VW55x_standard_peripheral/Source\gd32vw55x_usart.c ****     \param[in]  lblen: LIN break detection length
 549:C:/Users/stapi/OneDrive/Desktop/GD32VW553/GD32VW55X_Wifi_BLE_SDK/GD32VW55x_RELEASE_V1.0.2/MSDK/plf/GD32VW55x_standard_peripheral/Source\gd32vw55x_usart.c ****                 only one parameter can be selected which is shown as below:
 550:C:/Users/stapi/OneDrive/Desktop/GD32VW553/GD32VW55X_Wifi_BLE_SDK/GD32VW55x_RELEASE_V1.0.2/MSDK/plf/GD32VW55x_standard_peripheral/Source\gd32vw55x_usart.c ****       \arg        USART_LBLEN_10B: 10 bits break detection
 551:C:/Users/stapi/OneDrive/Desktop/GD32VW553/GD32VW55X_Wifi_BLE_SDK/GD32VW55x_RELEASE_V1.0.2/MSDK/plf/GD32VW55x_standard_peripheral/Source\gd32vw55x_usart.c ****       \arg        USART_LBLEN_11B: 11 bits break detection
 552:C:/Users/stapi/OneDrive/Desktop/GD32VW553/GD32VW55X_Wifi_BLE_SDK/GD32VW55x_RELEASE_V1.0.2/MSDK/plf/GD32VW55x_standard_peripheral/Source\gd32vw55x_usart.c ****     \param[out] none
 553:C:/Users/stapi/OneDrive/Desktop/GD32VW553/GD32VW55X_Wifi_BLE_SDK/GD32VW55x_RELEASE_V1.0.2/MSDK/plf/GD32VW55x_standard_peripheral/Source\gd32vw55x_usart.c ****     \retval     none
 554:C:/Users/stapi/OneDrive/Desktop/GD32VW553/GD32VW55X_Wifi_BLE_SDK/GD32VW55x_RELEASE_V1.0.2/MSDK/plf/GD32VW55x_standard_peripheral/Source\gd32vw55x_usart.c **** */
 555:C:/Users/stapi/OneDrive/Desktop/GD32VW553/GD32VW55X_Wifi_BLE_SDK/GD32VW55x_RELEASE_V1.0.2/MSDK/plf/GD32VW55x_standard_peripheral/Source\gd32vw55x_usart.c **** void usart_lin_break_detection_length_config(uint32_t usart_periph, uint32_t lblen)
 556:C:/Users/stapi/OneDrive/Desktop/GD32VW553/GD32VW55X_Wifi_BLE_SDK/GD32VW55x_RELEASE_V1.0.2/MSDK/plf/GD32VW55x_standard_peripheral/Source\gd32vw55x_usart.c **** {
 956              		.loc 1 556 1 is_stmt 1
 957              		.cfi_startproc
 958              	.LVL60:
 557:C:/Users/stapi/OneDrive/Desktop/GD32VW553/GD32VW55X_Wifi_BLE_SDK/GD32VW55x_RELEASE_V1.0.2/MSDK/plf/GD32VW55x_standard_peripheral/Source\gd32vw55x_usart.c ****     /* disable USART */
 558:C:/Users/stapi/OneDrive/Desktop/GD32VW553/GD32VW55X_Wifi_BLE_SDK/GD32VW55x_RELEASE_V1.0.2/MSDK/plf/GD32VW55x_standard_peripheral/Source\gd32vw55x_usart.c ****     USART_CTL0(usart_periph) &= ~(USART_CTL0_UEN);
 959              		.loc 1 558 5
 960              		.loc 1 558 30 is_stmt 0
 961 0000 1C41     		lw	a5,0(a0)
 559:C:/Users/stapi/OneDrive/Desktop/GD32VW553/GD32VW55X_Wifi_BLE_SDK/GD32VW55x_RELEASE_V1.0.2/MSDK/plf/GD32VW55x_standard_peripheral/Source\gd32vw55x_usart.c ****     USART_CTL1(usart_periph) &= ~(USART_CTL1_LBLEN);
 560:C:/Users/stapi/OneDrive/Desktop/GD32VW553/GD32VW55X_Wifi_BLE_SDK/GD32VW55x_RELEASE_V1.0.2/MSDK/plf/GD32VW55x_standard_peripheral/Source\gd32vw55x_usart.c ****     USART_CTL1(usart_periph) |= USART_CTL1_LBLEN & (lblen);
 962              		.loc 1 560 50
 963 0002 93F50502 		andi	a1,a1,32
 964              	.LVL61:
 558:C:/Users/stapi/OneDrive/Desktop/GD32VW553/GD32VW55X_Wifi_BLE_SDK/GD32VW55x_RELEASE_V1.0.2/MSDK/plf/GD32VW55x_standard_peripheral/Source\gd32vw55x_usart.c ****     USART_CTL1(usart_periph) &= ~(USART_CTL1_LBLEN);
 965              		.loc 1 558 30
 966 0006 F99B     		andi	a5,a5,-2
 967 0008 1CC1     		sw	a5,0(a0)
 559:C:/Users/stapi/OneDrive/Desktop/GD32VW553/GD32VW55X_Wifi_BLE_SDK/GD32VW55x_RELEASE_V1.0.2/MSDK/plf/GD32VW55x_standard_peripheral/Source\gd32vw55x_usart.c ****     USART_CTL1(usart_periph) &= ~(USART_CTL1_LBLEN);
 968              		.loc 1 559 5 is_stmt 1
 559:C:/Users/stapi/OneDrive/Desktop/GD32VW553/GD32VW55X_Wifi_BLE_SDK/GD32VW55x_RELEASE_V1.0.2/MSDK/plf/GD32VW55x_standard_peripheral/Source\gd32vw55x_usart.c ****     USART_CTL1(usart_periph) &= ~(USART_CTL1_LBLEN);
 969              		.loc 1 559 30 is_stmt 0
 970 000a 5C41     		lw	a5,4(a0)
 971 000c 93F7F7FD 		andi	a5,a5,-33
 972 0010 5CC1     		sw	a5,4(a0)
 973              		.loc 1 560 5 is_stmt 1
 974              		.loc 1 560 30 is_stmt 0
 975 0012 5C41     		lw	a5,4(a0)
 976 0014 DD8D     		or	a1,a1,a5
 977 0016 4CC1     		sw	a1,4(a0)
 561:C:/Users/stapi/OneDrive/Desktop/GD32VW553/GD32VW55X_Wifi_BLE_SDK/GD32VW55x_RELEASE_V1.0.2/MSDK/plf/GD32VW55x_standard_peripheral/Source\gd32vw55x_usart.c **** }
 978              		.loc 1 561 1
 979 0018 8280     		ret
 980              		.cfi_endproc
 981              	.LFE393:
 983              		.section	.text.usart_halfduplex_enable,"ax",@progbits
 984              		.align	1
 985              		.globl	usart_halfduplex_enable
 987              	usart_halfduplex_enable:
 988              	.LFB394:
 562:C:/Users/stapi/OneDrive/Desktop/GD32VW553/GD32VW55X_Wifi_BLE_SDK/GD32VW55x_RELEASE_V1.0.2/MSDK/plf/GD32VW55x_standard_peripheral/Source\gd32vw55x_usart.c **** 
 563:C:/Users/stapi/OneDrive/Desktop/GD32VW553/GD32VW55X_Wifi_BLE_SDK/GD32VW55x_RELEASE_V1.0.2/MSDK/plf/GD32VW55x_standard_peripheral/Source\gd32vw55x_usart.c **** /*!
 564:C:/Users/stapi/OneDrive/Desktop/GD32VW553/GD32VW55X_Wifi_BLE_SDK/GD32VW55x_RELEASE_V1.0.2/MSDK/plf/GD32VW55x_standard_peripheral/Source\gd32vw55x_usart.c ****     \brief      enable half-duplex mode
 565:C:/Users/stapi/OneDrive/Desktop/GD32VW553/GD32VW55X_Wifi_BLE_SDK/GD32VW55x_RELEASE_V1.0.2/MSDK/plf/GD32VW55x_standard_peripheral/Source\gd32vw55x_usart.c ****     \param[in]  usart_periph: USART0/UARTx(x=1,2)
 566:C:/Users/stapi/OneDrive/Desktop/GD32VW553/GD32VW55X_Wifi_BLE_SDK/GD32VW55x_RELEASE_V1.0.2/MSDK/plf/GD32VW55x_standard_peripheral/Source\gd32vw55x_usart.c ****     \param[out] none
 567:C:/Users/stapi/OneDrive/Desktop/GD32VW553/GD32VW55X_Wifi_BLE_SDK/GD32VW55x_RELEASE_V1.0.2/MSDK/plf/GD32VW55x_standard_peripheral/Source\gd32vw55x_usart.c ****     \retval     none
 568:C:/Users/stapi/OneDrive/Desktop/GD32VW553/GD32VW55X_Wifi_BLE_SDK/GD32VW55x_RELEASE_V1.0.2/MSDK/plf/GD32VW55x_standard_peripheral/Source\gd32vw55x_usart.c **** */
 569:C:/Users/stapi/OneDrive/Desktop/GD32VW553/GD32VW55X_Wifi_BLE_SDK/GD32VW55x_RELEASE_V1.0.2/MSDK/plf/GD32VW55x_standard_peripheral/Source\gd32vw55x_usart.c **** void usart_halfduplex_enable(uint32_t usart_periph)
 570:C:/Users/stapi/OneDrive/Desktop/GD32VW553/GD32VW55X_Wifi_BLE_SDK/GD32VW55x_RELEASE_V1.0.2/MSDK/plf/GD32VW55x_standard_peripheral/Source\gd32vw55x_usart.c **** {
 989              		.loc 1 570 1 is_stmt 1
 990              		.cfi_startproc
 991              	.LVL62:
 571:C:/Users/stapi/OneDrive/Desktop/GD32VW553/GD32VW55X_Wifi_BLE_SDK/GD32VW55x_RELEASE_V1.0.2/MSDK/plf/GD32VW55x_standard_peripheral/Source\gd32vw55x_usart.c ****     /* disable USART */
 572:C:/Users/stapi/OneDrive/Desktop/GD32VW553/GD32VW55X_Wifi_BLE_SDK/GD32VW55x_RELEASE_V1.0.2/MSDK/plf/GD32VW55x_standard_peripheral/Source\gd32vw55x_usart.c ****     USART_CTL0(usart_periph) &= ~(USART_CTL0_UEN);
 992              		.loc 1 572 5
 993              		.loc 1 572 30 is_stmt 0
 994 0000 1C41     		lw	a5,0(a0)
 995 0002 F99B     		andi	a5,a5,-2
 996 0004 1CC1     		sw	a5,0(a0)
 573:C:/Users/stapi/OneDrive/Desktop/GD32VW553/GD32VW55X_Wifi_BLE_SDK/GD32VW55x_RELEASE_V1.0.2/MSDK/plf/GD32VW55x_standard_peripheral/Source\gd32vw55x_usart.c **** 
 574:C:/Users/stapi/OneDrive/Desktop/GD32VW553/GD32VW55X_Wifi_BLE_SDK/GD32VW55x_RELEASE_V1.0.2/MSDK/plf/GD32VW55x_standard_peripheral/Source\gd32vw55x_usart.c ****     USART_CTL2(usart_periph) |= USART_CTL2_HDEN;
 997              		.loc 1 574 5 is_stmt 1
 998              		.loc 1 574 30 is_stmt 0
 999 0006 1C45     		lw	a5,8(a0)
 1000 0008 93E78700 		ori	a5,a5,8
 1001 000c 1CC5     		sw	a5,8(a0)
 575:C:/Users/stapi/OneDrive/Desktop/GD32VW553/GD32VW55X_Wifi_BLE_SDK/GD32VW55x_RELEASE_V1.0.2/MSDK/plf/GD32VW55x_standard_peripheral/Source\gd32vw55x_usart.c **** }
 1002              		.loc 1 575 1
 1003 000e 8280     		ret
 1004              		.cfi_endproc
 1005              	.LFE394:
 1007              		.section	.text.usart_halfduplex_disable,"ax",@progbits
 1008              		.align	1
 1009              		.globl	usart_halfduplex_disable
 1011              	usart_halfduplex_disable:
 1012              	.LFB395:
 576:C:/Users/stapi/OneDrive/Desktop/GD32VW553/GD32VW55X_Wifi_BLE_SDK/GD32VW55x_RELEASE_V1.0.2/MSDK/plf/GD32VW55x_standard_peripheral/Source\gd32vw55x_usart.c **** 
 577:C:/Users/stapi/OneDrive/Desktop/GD32VW553/GD32VW55X_Wifi_BLE_SDK/GD32VW55x_RELEASE_V1.0.2/MSDK/plf/GD32VW55x_standard_peripheral/Source\gd32vw55x_usart.c **** /*!
 578:C:/Users/stapi/OneDrive/Desktop/GD32VW553/GD32VW55X_Wifi_BLE_SDK/GD32VW55x_RELEASE_V1.0.2/MSDK/plf/GD32VW55x_standard_peripheral/Source\gd32vw55x_usart.c ****     \brief      disable half-duplex mode
 579:C:/Users/stapi/OneDrive/Desktop/GD32VW553/GD32VW55X_Wifi_BLE_SDK/GD32VW55x_RELEASE_V1.0.2/MSDK/plf/GD32VW55x_standard_peripheral/Source\gd32vw55x_usart.c ****     \param[in]  usart_periph: USART0/UARTx(x=1,2)
 580:C:/Users/stapi/OneDrive/Desktop/GD32VW553/GD32VW55X_Wifi_BLE_SDK/GD32VW55x_RELEASE_V1.0.2/MSDK/plf/GD32VW55x_standard_peripheral/Source\gd32vw55x_usart.c ****     \param[out] none
 581:C:/Users/stapi/OneDrive/Desktop/GD32VW553/GD32VW55X_Wifi_BLE_SDK/GD32VW55x_RELEASE_V1.0.2/MSDK/plf/GD32VW55x_standard_peripheral/Source\gd32vw55x_usart.c ****     \retval     none
 582:C:/Users/stapi/OneDrive/Desktop/GD32VW553/GD32VW55X_Wifi_BLE_SDK/GD32VW55x_RELEASE_V1.0.2/MSDK/plf/GD32VW55x_standard_peripheral/Source\gd32vw55x_usart.c **** */
 583:C:/Users/stapi/OneDrive/Desktop/GD32VW553/GD32VW55X_Wifi_BLE_SDK/GD32VW55x_RELEASE_V1.0.2/MSDK/plf/GD32VW55x_standard_peripheral/Source\gd32vw55x_usart.c **** void usart_halfduplex_disable(uint32_t usart_periph)
 584:C:/Users/stapi/OneDrive/Desktop/GD32VW553/GD32VW55X_Wifi_BLE_SDK/GD32VW55x_RELEASE_V1.0.2/MSDK/plf/GD32VW55x_standard_peripheral/Source\gd32vw55x_usart.c **** {
 1013              		.loc 1 584 1 is_stmt 1
 1014              		.cfi_startproc
 1015              	.LVL63:
 585:C:/Users/stapi/OneDrive/Desktop/GD32VW553/GD32VW55X_Wifi_BLE_SDK/GD32VW55x_RELEASE_V1.0.2/MSDK/plf/GD32VW55x_standard_peripheral/Source\gd32vw55x_usart.c ****     /* disable USART */
 586:C:/Users/stapi/OneDrive/Desktop/GD32VW553/GD32VW55X_Wifi_BLE_SDK/GD32VW55x_RELEASE_V1.0.2/MSDK/plf/GD32VW55x_standard_peripheral/Source\gd32vw55x_usart.c ****     USART_CTL0(usart_periph) &= ~(USART_CTL0_UEN);
 1016              		.loc 1 586 5
 1017              		.loc 1 586 30 is_stmt 0
 1018 0000 1C41     		lw	a5,0(a0)
 1019 0002 F99B     		andi	a5,a5,-2
 1020 0004 1CC1     		sw	a5,0(a0)
 587:C:/Users/stapi/OneDrive/Desktop/GD32VW553/GD32VW55X_Wifi_BLE_SDK/GD32VW55x_RELEASE_V1.0.2/MSDK/plf/GD32VW55x_standard_peripheral/Source\gd32vw55x_usart.c **** 
 588:C:/Users/stapi/OneDrive/Desktop/GD32VW553/GD32VW55X_Wifi_BLE_SDK/GD32VW55x_RELEASE_V1.0.2/MSDK/plf/GD32VW55x_standard_peripheral/Source\gd32vw55x_usart.c ****     USART_CTL2(usart_periph) &= ~(USART_CTL2_HDEN);
 1021              		.loc 1 588 5 is_stmt 1
 1022              		.loc 1 588 30 is_stmt 0
 1023 0006 1C45     		lw	a5,8(a0)
 1024 0008 DD9B     		andi	a5,a5,-9
 1025 000a 1CC5     		sw	a5,8(a0)
 589:C:/Users/stapi/OneDrive/Desktop/GD32VW553/GD32VW55X_Wifi_BLE_SDK/GD32VW55x_RELEASE_V1.0.2/MSDK/plf/GD32VW55x_standard_peripheral/Source\gd32vw55x_usart.c **** }
 1026              		.loc 1 589 1
 1027 000c 8280     		ret
 1028              		.cfi_endproc
 1029              	.LFE395:
 1031              		.section	.text.usart_clock_enable,"ax",@progbits
 1032              		.align	1
 1033              		.globl	usart_clock_enable
 1035              	usart_clock_enable:
 1036              	.LFB396:
 590:C:/Users/stapi/OneDrive/Desktop/GD32VW553/GD32VW55X_Wifi_BLE_SDK/GD32VW55x_RELEASE_V1.0.2/MSDK/plf/GD32VW55x_standard_peripheral/Source\gd32vw55x_usart.c **** 
 591:C:/Users/stapi/OneDrive/Desktop/GD32VW553/GD32VW55X_Wifi_BLE_SDK/GD32VW55x_RELEASE_V1.0.2/MSDK/plf/GD32VW55x_standard_peripheral/Source\gd32vw55x_usart.c **** /*!
 592:C:/Users/stapi/OneDrive/Desktop/GD32VW553/GD32VW55X_Wifi_BLE_SDK/GD32VW55x_RELEASE_V1.0.2/MSDK/plf/GD32VW55x_standard_peripheral/Source\gd32vw55x_usart.c ****     \brief      enable clock
 593:C:/Users/stapi/OneDrive/Desktop/GD32VW553/GD32VW55X_Wifi_BLE_SDK/GD32VW55x_RELEASE_V1.0.2/MSDK/plf/GD32VW55x_standard_peripheral/Source\gd32vw55x_usart.c ****     \param[in]  usart_periph: USART0
 594:C:/Users/stapi/OneDrive/Desktop/GD32VW553/GD32VW55X_Wifi_BLE_SDK/GD32VW55x_RELEASE_V1.0.2/MSDK/plf/GD32VW55x_standard_peripheral/Source\gd32vw55x_usart.c ****     \param[out] none
 595:C:/Users/stapi/OneDrive/Desktop/GD32VW553/GD32VW55X_Wifi_BLE_SDK/GD32VW55x_RELEASE_V1.0.2/MSDK/plf/GD32VW55x_standard_peripheral/Source\gd32vw55x_usart.c ****     \retval     none
 596:C:/Users/stapi/OneDrive/Desktop/GD32VW553/GD32VW55X_Wifi_BLE_SDK/GD32VW55x_RELEASE_V1.0.2/MSDK/plf/GD32VW55x_standard_peripheral/Source\gd32vw55x_usart.c **** */
 597:C:/Users/stapi/OneDrive/Desktop/GD32VW553/GD32VW55X_Wifi_BLE_SDK/GD32VW55x_RELEASE_V1.0.2/MSDK/plf/GD32VW55x_standard_peripheral/Source\gd32vw55x_usart.c **** void usart_clock_enable(uint32_t usart_periph)
 598:C:/Users/stapi/OneDrive/Desktop/GD32VW553/GD32VW55X_Wifi_BLE_SDK/GD32VW55x_RELEASE_V1.0.2/MSDK/plf/GD32VW55x_standard_peripheral/Source\gd32vw55x_usart.c **** {
 1037              		.loc 1 598 1 is_stmt 1
 1038              		.cfi_startproc
 1039              	.LVL64:
 599:C:/Users/stapi/OneDrive/Desktop/GD32VW553/GD32VW55X_Wifi_BLE_SDK/GD32VW55x_RELEASE_V1.0.2/MSDK/plf/GD32VW55x_standard_peripheral/Source\gd32vw55x_usart.c ****     /* disable USART */
 600:C:/Users/stapi/OneDrive/Desktop/GD32VW553/GD32VW55X_Wifi_BLE_SDK/GD32VW55x_RELEASE_V1.0.2/MSDK/plf/GD32VW55x_standard_peripheral/Source\gd32vw55x_usart.c ****     USART_CTL0(usart_periph) &= ~(USART_CTL0_UEN);
 1040              		.loc 1 600 5
 1041              		.loc 1 600 30 is_stmt 0
 1042 0000 1C41     		lw	a5,0(a0)
 1043 0002 F99B     		andi	a5,a5,-2
 1044 0004 1CC1     		sw	a5,0(a0)
 601:C:/Users/stapi/OneDrive/Desktop/GD32VW553/GD32VW55X_Wifi_BLE_SDK/GD32VW55x_RELEASE_V1.0.2/MSDK/plf/GD32VW55x_standard_peripheral/Source\gd32vw55x_usart.c **** 
 602:C:/Users/stapi/OneDrive/Desktop/GD32VW553/GD32VW55X_Wifi_BLE_SDK/GD32VW55x_RELEASE_V1.0.2/MSDK/plf/GD32VW55x_standard_peripheral/Source\gd32vw55x_usart.c ****     USART_CTL1(usart_periph) |= USART_CTL1_CKEN;
 1045              		.loc 1 602 5 is_stmt 1
 1046              		.loc 1 602 30 is_stmt 0
 1047 0006 5C41     		lw	a5,4(a0)
 1048 0008 9397B728 		bseti	a5,a5,11
 1049 000c 5CC1     		sw	a5,4(a0)
 603:C:/Users/stapi/OneDrive/Desktop/GD32VW553/GD32VW55X_Wifi_BLE_SDK/GD32VW55x_RELEASE_V1.0.2/MSDK/plf/GD32VW55x_standard_peripheral/Source\gd32vw55x_usart.c **** }
 1050              		.loc 1 603 1
 1051 000e 8280     		ret
 1052              		.cfi_endproc
 1053              	.LFE396:
 1055              		.section	.text.usart_clock_disable,"ax",@progbits
 1056              		.align	1
 1057              		.globl	usart_clock_disable
 1059              	usart_clock_disable:
 1060              	.LFB397:
 604:C:/Users/stapi/OneDrive/Desktop/GD32VW553/GD32VW55X_Wifi_BLE_SDK/GD32VW55x_RELEASE_V1.0.2/MSDK/plf/GD32VW55x_standard_peripheral/Source\gd32vw55x_usart.c **** 
 605:C:/Users/stapi/OneDrive/Desktop/GD32VW553/GD32VW55X_Wifi_BLE_SDK/GD32VW55x_RELEASE_V1.0.2/MSDK/plf/GD32VW55x_standard_peripheral/Source\gd32vw55x_usart.c **** /*!
 606:C:/Users/stapi/OneDrive/Desktop/GD32VW553/GD32VW55X_Wifi_BLE_SDK/GD32VW55x_RELEASE_V1.0.2/MSDK/plf/GD32VW55x_standard_peripheral/Source\gd32vw55x_usart.c ****     \brief      disable clock
 607:C:/Users/stapi/OneDrive/Desktop/GD32VW553/GD32VW55X_Wifi_BLE_SDK/GD32VW55x_RELEASE_V1.0.2/MSDK/plf/GD32VW55x_standard_peripheral/Source\gd32vw55x_usart.c ****     \param[in]  usart_periph: USART0
 608:C:/Users/stapi/OneDrive/Desktop/GD32VW553/GD32VW55X_Wifi_BLE_SDK/GD32VW55x_RELEASE_V1.0.2/MSDK/plf/GD32VW55x_standard_peripheral/Source\gd32vw55x_usart.c ****     \param[out] none
 609:C:/Users/stapi/OneDrive/Desktop/GD32VW553/GD32VW55X_Wifi_BLE_SDK/GD32VW55x_RELEASE_V1.0.2/MSDK/plf/GD32VW55x_standard_peripheral/Source\gd32vw55x_usart.c ****     \retval     none
 610:C:/Users/stapi/OneDrive/Desktop/GD32VW553/GD32VW55X_Wifi_BLE_SDK/GD32VW55x_RELEASE_V1.0.2/MSDK/plf/GD32VW55x_standard_peripheral/Source\gd32vw55x_usart.c **** */
 611:C:/Users/stapi/OneDrive/Desktop/GD32VW553/GD32VW55X_Wifi_BLE_SDK/GD32VW55x_RELEASE_V1.0.2/MSDK/plf/GD32VW55x_standard_peripheral/Source\gd32vw55x_usart.c **** void usart_clock_disable(uint32_t usart_periph)
 612:C:/Users/stapi/OneDrive/Desktop/GD32VW553/GD32VW55X_Wifi_BLE_SDK/GD32VW55x_RELEASE_V1.0.2/MSDK/plf/GD32VW55x_standard_peripheral/Source\gd32vw55x_usart.c **** {
 1061              		.loc 1 612 1 is_stmt 1
 1062              		.cfi_startproc
 1063              	.LVL65:
 613:C:/Users/stapi/OneDrive/Desktop/GD32VW553/GD32VW55X_Wifi_BLE_SDK/GD32VW55x_RELEASE_V1.0.2/MSDK/plf/GD32VW55x_standard_peripheral/Source\gd32vw55x_usart.c ****     /* disable USART */
 614:C:/Users/stapi/OneDrive/Desktop/GD32VW553/GD32VW55X_Wifi_BLE_SDK/GD32VW55x_RELEASE_V1.0.2/MSDK/plf/GD32VW55x_standard_peripheral/Source\gd32vw55x_usart.c ****     USART_CTL0(usart_periph) &= ~(USART_CTL0_UEN);
 1064              		.loc 1 614 5
 1065              		.loc 1 614 30 is_stmt 0
 1066 0000 1C41     		lw	a5,0(a0)
 1067 0002 F99B     		andi	a5,a5,-2
 1068 0004 1CC1     		sw	a5,0(a0)
 615:C:/Users/stapi/OneDrive/Desktop/GD32VW553/GD32VW55X_Wifi_BLE_SDK/GD32VW55x_RELEASE_V1.0.2/MSDK/plf/GD32VW55x_standard_peripheral/Source\gd32vw55x_usart.c **** 
 616:C:/Users/stapi/OneDrive/Desktop/GD32VW553/GD32VW55X_Wifi_BLE_SDK/GD32VW55x_RELEASE_V1.0.2/MSDK/plf/GD32VW55x_standard_peripheral/Source\gd32vw55x_usart.c ****     USART_CTL1(usart_periph) &= ~(USART_CTL1_CKEN);
 1069              		.loc 1 616 5 is_stmt 1
 1070              		.loc 1 616 30 is_stmt 0
 1071 0006 5C41     		lw	a5,4(a0)
 1072 0008 9397B748 		bclri	a5,a5,11
 1073 000c 5CC1     		sw	a5,4(a0)
 617:C:/Users/stapi/OneDrive/Desktop/GD32VW553/GD32VW55X_Wifi_BLE_SDK/GD32VW55x_RELEASE_V1.0.2/MSDK/plf/GD32VW55x_standard_peripheral/Source\gd32vw55x_usart.c **** }
 1074              		.loc 1 617 1
 1075 000e 8280     		ret
 1076              		.cfi_endproc
 1077              	.LFE397:
 1079              		.section	.text.usart_synchronous_clock_config,"ax",@progbits
 1080              		.align	1
 1081              		.globl	usart_synchronous_clock_config
 1083              	usart_synchronous_clock_config:
 1084              	.LFB398:
 618:C:/Users/stapi/OneDrive/Desktop/GD32VW553/GD32VW55X_Wifi_BLE_SDK/GD32VW55x_RELEASE_V1.0.2/MSDK/plf/GD32VW55x_standard_peripheral/Source\gd32vw55x_usart.c **** 
 619:C:/Users/stapi/OneDrive/Desktop/GD32VW553/GD32VW55X_Wifi_BLE_SDK/GD32VW55x_RELEASE_V1.0.2/MSDK/plf/GD32VW55x_standard_peripheral/Source\gd32vw55x_usart.c **** /*!
 620:C:/Users/stapi/OneDrive/Desktop/GD32VW553/GD32VW55X_Wifi_BLE_SDK/GD32VW55x_RELEASE_V1.0.2/MSDK/plf/GD32VW55x_standard_peripheral/Source\gd32vw55x_usart.c ****     \brief      configure USART synchronous mode parameters
 621:C:/Users/stapi/OneDrive/Desktop/GD32VW553/GD32VW55X_Wifi_BLE_SDK/GD32VW55x_RELEASE_V1.0.2/MSDK/plf/GD32VW55x_standard_peripheral/Source\gd32vw55x_usart.c ****     \param[in]  usart_periph: USART0
 622:C:/Users/stapi/OneDrive/Desktop/GD32VW553/GD32VW55X_Wifi_BLE_SDK/GD32VW55x_RELEASE_V1.0.2/MSDK/plf/GD32VW55x_standard_peripheral/Source\gd32vw55x_usart.c ****     \param[in]  clen: last bit clock pulse
 623:C:/Users/stapi/OneDrive/Desktop/GD32VW553/GD32VW55X_Wifi_BLE_SDK/GD32VW55x_RELEASE_V1.0.2/MSDK/plf/GD32VW55x_standard_peripheral/Source\gd32vw55x_usart.c ****                 only one parameter can be selected which is shown as below:
 624:C:/Users/stapi/OneDrive/Desktop/GD32VW553/GD32VW55X_Wifi_BLE_SDK/GD32VW55x_RELEASE_V1.0.2/MSDK/plf/GD32VW55x_standard_peripheral/Source\gd32vw55x_usart.c ****       \arg        USART_CLEN_NONE: clock pulse of the last data bit (MSB) is not output to the CK p
 625:C:/Users/stapi/OneDrive/Desktop/GD32VW553/GD32VW55X_Wifi_BLE_SDK/GD32VW55x_RELEASE_V1.0.2/MSDK/plf/GD32VW55x_standard_peripheral/Source\gd32vw55x_usart.c ****       \arg        USART_CLEN_EN: clock pulse of the last data bit (MSB) is output to the CK pin
 626:C:/Users/stapi/OneDrive/Desktop/GD32VW553/GD32VW55X_Wifi_BLE_SDK/GD32VW55x_RELEASE_V1.0.2/MSDK/plf/GD32VW55x_standard_peripheral/Source\gd32vw55x_usart.c ****     \param[in]  cph: clock phase
 627:C:/Users/stapi/OneDrive/Desktop/GD32VW553/GD32VW55X_Wifi_BLE_SDK/GD32VW55x_RELEASE_V1.0.2/MSDK/plf/GD32VW55x_standard_peripheral/Source\gd32vw55x_usart.c ****                 only one parameter can be selected which is shown as below:
 628:C:/Users/stapi/OneDrive/Desktop/GD32VW553/GD32VW55X_Wifi_BLE_SDK/GD32VW55x_RELEASE_V1.0.2/MSDK/plf/GD32VW55x_standard_peripheral/Source\gd32vw55x_usart.c ****       \arg        USART_CPH_1CK: first clock transition is the first data capture edge
 629:C:/Users/stapi/OneDrive/Desktop/GD32VW553/GD32VW55X_Wifi_BLE_SDK/GD32VW55x_RELEASE_V1.0.2/MSDK/plf/GD32VW55x_standard_peripheral/Source\gd32vw55x_usart.c ****       \arg        USART_CPH_2CK: second clock transition is the first data capture edge
 630:C:/Users/stapi/OneDrive/Desktop/GD32VW553/GD32VW55X_Wifi_BLE_SDK/GD32VW55x_RELEASE_V1.0.2/MSDK/plf/GD32VW55x_standard_peripheral/Source\gd32vw55x_usart.c ****     \param[in]  cpl: clock polarity
 631:C:/Users/stapi/OneDrive/Desktop/GD32VW553/GD32VW55X_Wifi_BLE_SDK/GD32VW55x_RELEASE_V1.0.2/MSDK/plf/GD32VW55x_standard_peripheral/Source\gd32vw55x_usart.c ****                 only one parameter can be selected which is shown as below:
 632:C:/Users/stapi/OneDrive/Desktop/GD32VW553/GD32VW55X_Wifi_BLE_SDK/GD32VW55x_RELEASE_V1.0.2/MSDK/plf/GD32VW55x_standard_peripheral/Source\gd32vw55x_usart.c ****       \arg        USART_CPL_LOW: steady low value on CK pin
 633:C:/Users/stapi/OneDrive/Desktop/GD32VW553/GD32VW55X_Wifi_BLE_SDK/GD32VW55x_RELEASE_V1.0.2/MSDK/plf/GD32VW55x_standard_peripheral/Source\gd32vw55x_usart.c ****       \arg        USART_CPL_HIGH: steady high value on CK pin
 634:C:/Users/stapi/OneDrive/Desktop/GD32VW553/GD32VW55X_Wifi_BLE_SDK/GD32VW55x_RELEASE_V1.0.2/MSDK/plf/GD32VW55x_standard_peripheral/Source\gd32vw55x_usart.c ****     \param[out] none
 635:C:/Users/stapi/OneDrive/Desktop/GD32VW553/GD32VW55X_Wifi_BLE_SDK/GD32VW55x_RELEASE_V1.0.2/MSDK/plf/GD32VW55x_standard_peripheral/Source\gd32vw55x_usart.c ****     \retval     none
 636:C:/Users/stapi/OneDrive/Desktop/GD32VW553/GD32VW55X_Wifi_BLE_SDK/GD32VW55x_RELEASE_V1.0.2/MSDK/plf/GD32VW55x_standard_peripheral/Source\gd32vw55x_usart.c **** */
 637:C:/Users/stapi/OneDrive/Desktop/GD32VW553/GD32VW55X_Wifi_BLE_SDK/GD32VW55x_RELEASE_V1.0.2/MSDK/plf/GD32VW55x_standard_peripheral/Source\gd32vw55x_usart.c **** void usart_synchronous_clock_config(uint32_t usart_periph, uint32_t clen, uint32_t cph, uint32_t cp
 638:C:/Users/stapi/OneDrive/Desktop/GD32VW553/GD32VW55X_Wifi_BLE_SDK/GD32VW55x_RELEASE_V1.0.2/MSDK/plf/GD32VW55x_standard_peripheral/Source\gd32vw55x_usart.c **** {
 1085              		.loc 1 638 1 is_stmt 1
 1086              		.cfi_startproc
 1087              	.LVL66:
 639:C:/Users/stapi/OneDrive/Desktop/GD32VW553/GD32VW55X_Wifi_BLE_SDK/GD32VW55x_RELEASE_V1.0.2/MSDK/plf/GD32VW55x_standard_peripheral/Source\gd32vw55x_usart.c ****     /* disable USART */
 640:C:/Users/stapi/OneDrive/Desktop/GD32VW553/GD32VW55X_Wifi_BLE_SDK/GD32VW55x_RELEASE_V1.0.2/MSDK/plf/GD32VW55x_standard_peripheral/Source\gd32vw55x_usart.c ****     USART_CTL0(usart_periph) &= ~(USART_CTL0_UEN);
 1088              		.loc 1 640 5
 1089              		.loc 1 640 30 is_stmt 0
 1090 0000 1C41     		lw	a5,0(a0)
 641:C:/Users/stapi/OneDrive/Desktop/GD32VW553/GD32VW55X_Wifi_BLE_SDK/GD32VW55x_RELEASE_V1.0.2/MSDK/plf/GD32VW55x_standard_peripheral/Source\gd32vw55x_usart.c ****     /* reset USART_CTL1 CLEN,CPH,CPL bits */
 642:C:/Users/stapi/OneDrive/Desktop/GD32VW553/GD32VW55X_Wifi_BLE_SDK/GD32VW55x_RELEASE_V1.0.2/MSDK/plf/GD32VW55x_standard_peripheral/Source\gd32vw55x_usart.c ****     USART_CTL1(usart_periph) &= ~(USART_CTL1_CLEN | USART_CTL1_CPH | USART_CTL1_CPL);
 643:C:/Users/stapi/OneDrive/Desktop/GD32VW553/GD32VW55X_Wifi_BLE_SDK/GD32VW55x_RELEASE_V1.0.2/MSDK/plf/GD32VW55x_standard_peripheral/Source\gd32vw55x_usart.c **** 
 644:C:/Users/stapi/OneDrive/Desktop/GD32VW553/GD32VW55X_Wifi_BLE_SDK/GD32VW55x_RELEASE_V1.0.2/MSDK/plf/GD32VW55x_standard_peripheral/Source\gd32vw55x_usart.c ****     USART_CTL1(usart_periph) |= (USART_CTL1_CLEN & clen) | (USART_CTL1_CPH & cph) | (USART_CTL1_CPL
 1091              		.loc 1 644 76
 1092 0002 13760620 		andi	a2,a2,512
 1093              	.LVL67:
 1094              		.loc 1 644 101
 1095 0006 93F60640 		andi	a3,a3,1024
 1096              	.LVL68:
 640:C:/Users/stapi/OneDrive/Desktop/GD32VW553/GD32VW55X_Wifi_BLE_SDK/GD32VW55x_RELEASE_V1.0.2/MSDK/plf/GD32VW55x_standard_peripheral/Source\gd32vw55x_usart.c ****     /* reset USART_CTL1 CLEN,CPH,CPL bits */
 1097              		.loc 1 640 30
 1098 000a F99B     		andi	a5,a5,-2
 1099 000c 1CC1     		sw	a5,0(a0)
 642:C:/Users/stapi/OneDrive/Desktop/GD32VW553/GD32VW55X_Wifi_BLE_SDK/GD32VW55x_RELEASE_V1.0.2/MSDK/plf/GD32VW55x_standard_peripheral/Source\gd32vw55x_usart.c **** 
 1100              		.loc 1 642 5 is_stmt 1
 642:C:/Users/stapi/OneDrive/Desktop/GD32VW553/GD32VW55X_Wifi_BLE_SDK/GD32VW55x_RELEASE_V1.0.2/MSDK/plf/GD32VW55x_standard_peripheral/Source\gd32vw55x_usart.c **** 
 1101              		.loc 1 642 30 is_stmt 0
 1102 000e 5C41     		lw	a5,4(a0)
 1103              		.loc 1 644 83
 1104 0010 558E     		or	a2,a2,a3
 1105              		.loc 1 644 50
 1106 0012 93F50510 		andi	a1,a1,256
 1107              	.LVL69:
 642:C:/Users/stapi/OneDrive/Desktop/GD32VW553/GD32VW55X_Wifi_BLE_SDK/GD32VW55x_RELEASE_V1.0.2/MSDK/plf/GD32VW55x_standard_peripheral/Source\gd32vw55x_usart.c **** 
 1108              		.loc 1 642 30
 1109 0016 93F7F78F 		andi	a5,a5,-1793
 1110 001a 5CC1     		sw	a5,4(a0)
 1111              		.loc 1 644 5 is_stmt 1
 1112              		.loc 1 644 30 is_stmt 0
 1113 001c 5C41     		lw	a5,4(a0)
 1114              		.loc 1 644 83
 1115 001e 4D8E     		or	a2,a2,a1
 1116              		.loc 1 644 30
 1117 0020 5D8E     		or	a2,a2,a5
 1118 0022 50C1     		sw	a2,4(a0)
 645:C:/Users/stapi/OneDrive/Desktop/GD32VW553/GD32VW55X_Wifi_BLE_SDK/GD32VW55x_RELEASE_V1.0.2/MSDK/plf/GD32VW55x_standard_peripheral/Source\gd32vw55x_usart.c **** }
 1119              		.loc 1 645 1
 1120 0024 8280     		ret
 1121              		.cfi_endproc
 1122              	.LFE398:
 1124              		.section	.text.usart_guard_time_config,"ax",@progbits
 1125              		.align	1
 1126              		.globl	usart_guard_time_config
 1128              	usart_guard_time_config:
 1129              	.LFB399:
 646:C:/Users/stapi/OneDrive/Desktop/GD32VW553/GD32VW55X_Wifi_BLE_SDK/GD32VW55x_RELEASE_V1.0.2/MSDK/plf/GD32VW55x_standard_peripheral/Source\gd32vw55x_usart.c **** 
 647:C:/Users/stapi/OneDrive/Desktop/GD32VW553/GD32VW55X_Wifi_BLE_SDK/GD32VW55x_RELEASE_V1.0.2/MSDK/plf/GD32VW55x_standard_peripheral/Source\gd32vw55x_usart.c **** /*!
 648:C:/Users/stapi/OneDrive/Desktop/GD32VW553/GD32VW55X_Wifi_BLE_SDK/GD32VW55x_RELEASE_V1.0.2/MSDK/plf/GD32VW55x_standard_peripheral/Source\gd32vw55x_usart.c ****     \brief      configure guard time value in smartcard mode
 649:C:/Users/stapi/OneDrive/Desktop/GD32VW553/GD32VW55X_Wifi_BLE_SDK/GD32VW55x_RELEASE_V1.0.2/MSDK/plf/GD32VW55x_standard_peripheral/Source\gd32vw55x_usart.c ****     \param[in]  usart_periph: USART0
 650:C:/Users/stapi/OneDrive/Desktop/GD32VW553/GD32VW55X_Wifi_BLE_SDK/GD32VW55x_RELEASE_V1.0.2/MSDK/plf/GD32VW55x_standard_peripheral/Source\gd32vw55x_usart.c ****     \param[in]  guat: 0x00-0xFF
 651:C:/Users/stapi/OneDrive/Desktop/GD32VW553/GD32VW55X_Wifi_BLE_SDK/GD32VW55x_RELEASE_V1.0.2/MSDK/plf/GD32VW55x_standard_peripheral/Source\gd32vw55x_usart.c ****     \param[out] none
 652:C:/Users/stapi/OneDrive/Desktop/GD32VW553/GD32VW55X_Wifi_BLE_SDK/GD32VW55x_RELEASE_V1.0.2/MSDK/plf/GD32VW55x_standard_peripheral/Source\gd32vw55x_usart.c ****     \retval     none
 653:C:/Users/stapi/OneDrive/Desktop/GD32VW553/GD32VW55X_Wifi_BLE_SDK/GD32VW55x_RELEASE_V1.0.2/MSDK/plf/GD32VW55x_standard_peripheral/Source\gd32vw55x_usart.c **** */
 654:C:/Users/stapi/OneDrive/Desktop/GD32VW553/GD32VW55X_Wifi_BLE_SDK/GD32VW55x_RELEASE_V1.0.2/MSDK/plf/GD32VW55x_standard_peripheral/Source\gd32vw55x_usart.c **** void usart_guard_time_config(uint32_t usart_periph, uint8_t guat)
 655:C:/Users/stapi/OneDrive/Desktop/GD32VW553/GD32VW55X_Wifi_BLE_SDK/GD32VW55x_RELEASE_V1.0.2/MSDK/plf/GD32VW55x_standard_peripheral/Source\gd32vw55x_usart.c **** {
 1130              		.loc 1 655 1 is_stmt 1
 1131              		.cfi_startproc
 1132              	.LVL70:
 656:C:/Users/stapi/OneDrive/Desktop/GD32VW553/GD32VW55X_Wifi_BLE_SDK/GD32VW55x_RELEASE_V1.0.2/MSDK/plf/GD32VW55x_standard_peripheral/Source\gd32vw55x_usart.c ****     /* disable USART */
 657:C:/Users/stapi/OneDrive/Desktop/GD32VW553/GD32VW55X_Wifi_BLE_SDK/GD32VW55x_RELEASE_V1.0.2/MSDK/plf/GD32VW55x_standard_peripheral/Source\gd32vw55x_usart.c ****     USART_CTL0(usart_periph) &= ~(USART_CTL0_UEN);
 1133              		.loc 1 657 5
 1134              		.loc 1 657 30 is_stmt 0
 1135 0000 1C41     		lw	a5,0(a0)
 658:C:/Users/stapi/OneDrive/Desktop/GD32VW553/GD32VW55X_Wifi_BLE_SDK/GD32VW55x_RELEASE_V1.0.2/MSDK/plf/GD32VW55x_standard_peripheral/Source\gd32vw55x_usart.c **** 
 659:C:/Users/stapi/OneDrive/Desktop/GD32VW553/GD32VW55X_Wifi_BLE_SDK/GD32VW55x_RELEASE_V1.0.2/MSDK/plf/GD32VW55x_standard_peripheral/Source\gd32vw55x_usart.c ****     USART_GP(usart_periph) &= ~(USART_GP_GUAT);
 1136              		.loc 1 659 28
 1137 0002 4177     		li	a4,-65536
 1138 0004 1307F70F 		addi	a4,a4,255
 657:C:/Users/stapi/OneDrive/Desktop/GD32VW553/GD32VW55X_Wifi_BLE_SDK/GD32VW55x_RELEASE_V1.0.2/MSDK/plf/GD32VW55x_standard_peripheral/Source\gd32vw55x_usart.c **** 
 1139              		.loc 1 657 30
 1140 0008 F99B     		andi	a5,a5,-2
 1141 000a 1CC1     		sw	a5,0(a0)
 1142              		.loc 1 659 5 is_stmt 1
 1143              		.loc 1 659 28 is_stmt 0
 1144 000c 1C49     		lw	a5,16(a0)
 660:C:/Users/stapi/OneDrive/Desktop/GD32VW553/GD32VW55X_Wifi_BLE_SDK/GD32VW55x_RELEASE_V1.0.2/MSDK/plf/GD32VW55x_standard_peripheral/Source\gd32vw55x_usart.c ****     USART_GP(usart_periph) |= (USART_GP_GUAT & ((uint32_t)guat << GP_GUAT_OFFSET));
 1145              		.loc 1 660 64
 1146 000e A205     		slli	a1,a1,8
 1147              	.LVL71:
 659:C:/Users/stapi/OneDrive/Desktop/GD32VW553/GD32VW55X_Wifi_BLE_SDK/GD32VW55x_RELEASE_V1.0.2/MSDK/plf/GD32VW55x_standard_peripheral/Source\gd32vw55x_usart.c ****     USART_GP(usart_periph) |= (USART_GP_GUAT & ((uint32_t)guat << GP_GUAT_OFFSET));
 1148              		.loc 1 659 28
 1149 0010 F98F     		and	a5,a5,a4
 1150 0012 1CC9     		sw	a5,16(a0)
 1151              		.loc 1 660 5 is_stmt 1
 1152              		.loc 1 660 28 is_stmt 0
 1153 0014 1C49     		lw	a5,16(a0)
 1154 0016 DD8D     		or	a1,a1,a5
 1155 0018 0CC9     		sw	a1,16(a0)
 661:C:/Users/stapi/OneDrive/Desktop/GD32VW553/GD32VW55X_Wifi_BLE_SDK/GD32VW55x_RELEASE_V1.0.2/MSDK/plf/GD32VW55x_standard_peripheral/Source\gd32vw55x_usart.c **** }
 1156              		.loc 1 661 1
 1157 001a 8280     		ret
 1158              		.cfi_endproc
 1159              	.LFE399:
 1161              		.section	.text.usart_smartcard_mode_enable,"ax",@progbits
 1162              		.align	1
 1163              		.globl	usart_smartcard_mode_enable
 1165              	usart_smartcard_mode_enable:
 1166              	.LFB400:
 662:C:/Users/stapi/OneDrive/Desktop/GD32VW553/GD32VW55X_Wifi_BLE_SDK/GD32VW55x_RELEASE_V1.0.2/MSDK/plf/GD32VW55x_standard_peripheral/Source\gd32vw55x_usart.c **** 
 663:C:/Users/stapi/OneDrive/Desktop/GD32VW553/GD32VW55X_Wifi_BLE_SDK/GD32VW55x_RELEASE_V1.0.2/MSDK/plf/GD32VW55x_standard_peripheral/Source\gd32vw55x_usart.c **** /*!
 664:C:/Users/stapi/OneDrive/Desktop/GD32VW553/GD32VW55X_Wifi_BLE_SDK/GD32VW55x_RELEASE_V1.0.2/MSDK/plf/GD32VW55x_standard_peripheral/Source\gd32vw55x_usart.c ****     \brief      enable smartcard mode
 665:C:/Users/stapi/OneDrive/Desktop/GD32VW553/GD32VW55X_Wifi_BLE_SDK/GD32VW55x_RELEASE_V1.0.2/MSDK/plf/GD32VW55x_standard_peripheral/Source\gd32vw55x_usart.c ****     \param[in]  usart_periph: USART0
 666:C:/Users/stapi/OneDrive/Desktop/GD32VW553/GD32VW55X_Wifi_BLE_SDK/GD32VW55x_RELEASE_V1.0.2/MSDK/plf/GD32VW55x_standard_peripheral/Source\gd32vw55x_usart.c ****     \param[out] none
 667:C:/Users/stapi/OneDrive/Desktop/GD32VW553/GD32VW55X_Wifi_BLE_SDK/GD32VW55x_RELEASE_V1.0.2/MSDK/plf/GD32VW55x_standard_peripheral/Source\gd32vw55x_usart.c ****     \retval     none
 668:C:/Users/stapi/OneDrive/Desktop/GD32VW553/GD32VW55X_Wifi_BLE_SDK/GD32VW55x_RELEASE_V1.0.2/MSDK/plf/GD32VW55x_standard_peripheral/Source\gd32vw55x_usart.c **** */
 669:C:/Users/stapi/OneDrive/Desktop/GD32VW553/GD32VW55X_Wifi_BLE_SDK/GD32VW55x_RELEASE_V1.0.2/MSDK/plf/GD32VW55x_standard_peripheral/Source\gd32vw55x_usart.c **** void usart_smartcard_mode_enable(uint32_t usart_periph)
 670:C:/Users/stapi/OneDrive/Desktop/GD32VW553/GD32VW55X_Wifi_BLE_SDK/GD32VW55x_RELEASE_V1.0.2/MSDK/plf/GD32VW55x_standard_peripheral/Source\gd32vw55x_usart.c **** {
 1167              		.loc 1 670 1 is_stmt 1
 1168              		.cfi_startproc
 1169              	.LVL72:
 671:C:/Users/stapi/OneDrive/Desktop/GD32VW553/GD32VW55X_Wifi_BLE_SDK/GD32VW55x_RELEASE_V1.0.2/MSDK/plf/GD32VW55x_standard_peripheral/Source\gd32vw55x_usart.c ****     /* disable USART */
 672:C:/Users/stapi/OneDrive/Desktop/GD32VW553/GD32VW55X_Wifi_BLE_SDK/GD32VW55x_RELEASE_V1.0.2/MSDK/plf/GD32VW55x_standard_peripheral/Source\gd32vw55x_usart.c ****     USART_CTL0(usart_periph) &= ~(USART_CTL0_UEN);
 1170              		.loc 1 672 5
 1171              		.loc 1 672 30 is_stmt 0
 1172 0000 1C41     		lw	a5,0(a0)
 1173 0002 F99B     		andi	a5,a5,-2
 1174 0004 1CC1     		sw	a5,0(a0)
 673:C:/Users/stapi/OneDrive/Desktop/GD32VW553/GD32VW55X_Wifi_BLE_SDK/GD32VW55x_RELEASE_V1.0.2/MSDK/plf/GD32VW55x_standard_peripheral/Source\gd32vw55x_usart.c **** 
 674:C:/Users/stapi/OneDrive/Desktop/GD32VW553/GD32VW55X_Wifi_BLE_SDK/GD32VW55x_RELEASE_V1.0.2/MSDK/plf/GD32VW55x_standard_peripheral/Source\gd32vw55x_usart.c ****     USART_CTL2(usart_periph) |= USART_CTL2_SCEN;
 1175              		.loc 1 674 5 is_stmt 1
 1176              		.loc 1 674 30 is_stmt 0
 1177 0006 1C45     		lw	a5,8(a0)
 1178 0008 93E70702 		ori	a5,a5,32
 1179 000c 1CC5     		sw	a5,8(a0)
 675:C:/Users/stapi/OneDrive/Desktop/GD32VW553/GD32VW55X_Wifi_BLE_SDK/GD32VW55x_RELEASE_V1.0.2/MSDK/plf/GD32VW55x_standard_peripheral/Source\gd32vw55x_usart.c **** }
 1180              		.loc 1 675 1
 1181 000e 8280     		ret
 1182              		.cfi_endproc
 1183              	.LFE400:
 1185              		.section	.text.usart_smartcard_mode_disable,"ax",@progbits
 1186              		.align	1
 1187              		.globl	usart_smartcard_mode_disable
 1189              	usart_smartcard_mode_disable:
 1190              	.LFB401:
 676:C:/Users/stapi/OneDrive/Desktop/GD32VW553/GD32VW55X_Wifi_BLE_SDK/GD32VW55x_RELEASE_V1.0.2/MSDK/plf/GD32VW55x_standard_peripheral/Source\gd32vw55x_usart.c **** 
 677:C:/Users/stapi/OneDrive/Desktop/GD32VW553/GD32VW55X_Wifi_BLE_SDK/GD32VW55x_RELEASE_V1.0.2/MSDK/plf/GD32VW55x_standard_peripheral/Source\gd32vw55x_usart.c **** /*!
 678:C:/Users/stapi/OneDrive/Desktop/GD32VW553/GD32VW55X_Wifi_BLE_SDK/GD32VW55x_RELEASE_V1.0.2/MSDK/plf/GD32VW55x_standard_peripheral/Source\gd32vw55x_usart.c ****     \brief      disable smartcard mode
 679:C:/Users/stapi/OneDrive/Desktop/GD32VW553/GD32VW55X_Wifi_BLE_SDK/GD32VW55x_RELEASE_V1.0.2/MSDK/plf/GD32VW55x_standard_peripheral/Source\gd32vw55x_usart.c ****     \param[in]  usart_periph: USART0
 680:C:/Users/stapi/OneDrive/Desktop/GD32VW553/GD32VW55X_Wifi_BLE_SDK/GD32VW55x_RELEASE_V1.0.2/MSDK/plf/GD32VW55x_standard_peripheral/Source\gd32vw55x_usart.c ****     \param[out] none
 681:C:/Users/stapi/OneDrive/Desktop/GD32VW553/GD32VW55X_Wifi_BLE_SDK/GD32VW55x_RELEASE_V1.0.2/MSDK/plf/GD32VW55x_standard_peripheral/Source\gd32vw55x_usart.c ****     \retval     none
 682:C:/Users/stapi/OneDrive/Desktop/GD32VW553/GD32VW55X_Wifi_BLE_SDK/GD32VW55x_RELEASE_V1.0.2/MSDK/plf/GD32VW55x_standard_peripheral/Source\gd32vw55x_usart.c **** */
 683:C:/Users/stapi/OneDrive/Desktop/GD32VW553/GD32VW55X_Wifi_BLE_SDK/GD32VW55x_RELEASE_V1.0.2/MSDK/plf/GD32VW55x_standard_peripheral/Source\gd32vw55x_usart.c **** void usart_smartcard_mode_disable(uint32_t usart_periph)
 684:C:/Users/stapi/OneDrive/Desktop/GD32VW553/GD32VW55X_Wifi_BLE_SDK/GD32VW55x_RELEASE_V1.0.2/MSDK/plf/GD32VW55x_standard_peripheral/Source\gd32vw55x_usart.c **** {
 1191              		.loc 1 684 1 is_stmt 1
 1192              		.cfi_startproc
 1193              	.LVL73:
 685:C:/Users/stapi/OneDrive/Desktop/GD32VW553/GD32VW55X_Wifi_BLE_SDK/GD32VW55x_RELEASE_V1.0.2/MSDK/plf/GD32VW55x_standard_peripheral/Source\gd32vw55x_usart.c ****     /* disable USART */
 686:C:/Users/stapi/OneDrive/Desktop/GD32VW553/GD32VW55X_Wifi_BLE_SDK/GD32VW55x_RELEASE_V1.0.2/MSDK/plf/GD32VW55x_standard_peripheral/Source\gd32vw55x_usart.c ****     USART_CTL0(usart_periph) &= ~(USART_CTL0_UEN);
 1194              		.loc 1 686 5
 1195              		.loc 1 686 30 is_stmt 0
 1196 0000 1C41     		lw	a5,0(a0)
 1197 0002 F99B     		andi	a5,a5,-2
 1198 0004 1CC1     		sw	a5,0(a0)
 687:C:/Users/stapi/OneDrive/Desktop/GD32VW553/GD32VW55X_Wifi_BLE_SDK/GD32VW55x_RELEASE_V1.0.2/MSDK/plf/GD32VW55x_standard_peripheral/Source\gd32vw55x_usart.c **** 
 688:C:/Users/stapi/OneDrive/Desktop/GD32VW553/GD32VW55X_Wifi_BLE_SDK/GD32VW55x_RELEASE_V1.0.2/MSDK/plf/GD32VW55x_standard_peripheral/Source\gd32vw55x_usart.c ****     USART_CTL2(usart_periph) &= ~(USART_CTL2_SCEN);
 1199              		.loc 1 688 5 is_stmt 1
 1200              		.loc 1 688 30 is_stmt 0
 1201 0006 1C45     		lw	a5,8(a0)
 1202 0008 93F7F7FD 		andi	a5,a5,-33
 1203 000c 1CC5     		sw	a5,8(a0)
 689:C:/Users/stapi/OneDrive/Desktop/GD32VW553/GD32VW55X_Wifi_BLE_SDK/GD32VW55x_RELEASE_V1.0.2/MSDK/plf/GD32VW55x_standard_peripheral/Source\gd32vw55x_usart.c **** }
 1204              		.loc 1 689 1
 1205 000e 8280     		ret
 1206              		.cfi_endproc
 1207              	.LFE401:
 1209              		.section	.text.usart_smartcard_mode_nack_enable,"ax",@progbits
 1210              		.align	1
 1211              		.globl	usart_smartcard_mode_nack_enable
 1213              	usart_smartcard_mode_nack_enable:
 1214              	.LFB402:
 690:C:/Users/stapi/OneDrive/Desktop/GD32VW553/GD32VW55X_Wifi_BLE_SDK/GD32VW55x_RELEASE_V1.0.2/MSDK/plf/GD32VW55x_standard_peripheral/Source\gd32vw55x_usart.c **** 
 691:C:/Users/stapi/OneDrive/Desktop/GD32VW553/GD32VW55X_Wifi_BLE_SDK/GD32VW55x_RELEASE_V1.0.2/MSDK/plf/GD32VW55x_standard_peripheral/Source\gd32vw55x_usart.c **** /*!
 692:C:/Users/stapi/OneDrive/Desktop/GD32VW553/GD32VW55X_Wifi_BLE_SDK/GD32VW55x_RELEASE_V1.0.2/MSDK/plf/GD32VW55x_standard_peripheral/Source\gd32vw55x_usart.c ****     \brief      enable NACK in smartcard mode
 693:C:/Users/stapi/OneDrive/Desktop/GD32VW553/GD32VW55X_Wifi_BLE_SDK/GD32VW55x_RELEASE_V1.0.2/MSDK/plf/GD32VW55x_standard_peripheral/Source\gd32vw55x_usart.c ****     \param[in]  usart_periph: USART0
 694:C:/Users/stapi/OneDrive/Desktop/GD32VW553/GD32VW55X_Wifi_BLE_SDK/GD32VW55x_RELEASE_V1.0.2/MSDK/plf/GD32VW55x_standard_peripheral/Source\gd32vw55x_usart.c ****     \param[out] none
 695:C:/Users/stapi/OneDrive/Desktop/GD32VW553/GD32VW55X_Wifi_BLE_SDK/GD32VW55x_RELEASE_V1.0.2/MSDK/plf/GD32VW55x_standard_peripheral/Source\gd32vw55x_usart.c ****     \retval     none
 696:C:/Users/stapi/OneDrive/Desktop/GD32VW553/GD32VW55X_Wifi_BLE_SDK/GD32VW55x_RELEASE_V1.0.2/MSDK/plf/GD32VW55x_standard_peripheral/Source\gd32vw55x_usart.c **** */
 697:C:/Users/stapi/OneDrive/Desktop/GD32VW553/GD32VW55X_Wifi_BLE_SDK/GD32VW55x_RELEASE_V1.0.2/MSDK/plf/GD32VW55x_standard_peripheral/Source\gd32vw55x_usart.c **** void usart_smartcard_mode_nack_enable(uint32_t usart_periph)
 698:C:/Users/stapi/OneDrive/Desktop/GD32VW553/GD32VW55X_Wifi_BLE_SDK/GD32VW55x_RELEASE_V1.0.2/MSDK/plf/GD32VW55x_standard_peripheral/Source\gd32vw55x_usart.c **** {
 1215              		.loc 1 698 1 is_stmt 1
 1216              		.cfi_startproc
 1217              	.LVL74:
 699:C:/Users/stapi/OneDrive/Desktop/GD32VW553/GD32VW55X_Wifi_BLE_SDK/GD32VW55x_RELEASE_V1.0.2/MSDK/plf/GD32VW55x_standard_peripheral/Source\gd32vw55x_usart.c ****     /* disable USART */
 700:C:/Users/stapi/OneDrive/Desktop/GD32VW553/GD32VW55X_Wifi_BLE_SDK/GD32VW55x_RELEASE_V1.0.2/MSDK/plf/GD32VW55x_standard_peripheral/Source\gd32vw55x_usart.c ****     USART_CTL0(usart_periph) &= ~(USART_CTL0_UEN);
 1218              		.loc 1 700 5
 1219              		.loc 1 700 30 is_stmt 0
 1220 0000 1C41     		lw	a5,0(a0)
 1221 0002 F99B     		andi	a5,a5,-2
 1222 0004 1CC1     		sw	a5,0(a0)
 701:C:/Users/stapi/OneDrive/Desktop/GD32VW553/GD32VW55X_Wifi_BLE_SDK/GD32VW55x_RELEASE_V1.0.2/MSDK/plf/GD32VW55x_standard_peripheral/Source\gd32vw55x_usart.c **** 
 702:C:/Users/stapi/OneDrive/Desktop/GD32VW553/GD32VW55X_Wifi_BLE_SDK/GD32VW55x_RELEASE_V1.0.2/MSDK/plf/GD32VW55x_standard_peripheral/Source\gd32vw55x_usart.c ****     USART_CTL2(usart_periph) |= USART_CTL2_NKEN;
 1223              		.loc 1 702 5 is_stmt 1
 1224              		.loc 1 702 30 is_stmt 0
 1225 0006 1C45     		lw	a5,8(a0)
 1226 0008 93E70701 		ori	a5,a5,16
 1227 000c 1CC5     		sw	a5,8(a0)
 703:C:/Users/stapi/OneDrive/Desktop/GD32VW553/GD32VW55X_Wifi_BLE_SDK/GD32VW55x_RELEASE_V1.0.2/MSDK/plf/GD32VW55x_standard_peripheral/Source\gd32vw55x_usart.c **** }
 1228              		.loc 1 703 1
 1229 000e 8280     		ret
 1230              		.cfi_endproc
 1231              	.LFE402:
 1233              		.section	.text.usart_smartcard_mode_nack_disable,"ax",@progbits
 1234              		.align	1
 1235              		.globl	usart_smartcard_mode_nack_disable
 1237              	usart_smartcard_mode_nack_disable:
 1238              	.LFB403:
 704:C:/Users/stapi/OneDrive/Desktop/GD32VW553/GD32VW55X_Wifi_BLE_SDK/GD32VW55x_RELEASE_V1.0.2/MSDK/plf/GD32VW55x_standard_peripheral/Source\gd32vw55x_usart.c **** 
 705:C:/Users/stapi/OneDrive/Desktop/GD32VW553/GD32VW55X_Wifi_BLE_SDK/GD32VW55x_RELEASE_V1.0.2/MSDK/plf/GD32VW55x_standard_peripheral/Source\gd32vw55x_usart.c **** /*!
 706:C:/Users/stapi/OneDrive/Desktop/GD32VW553/GD32VW55X_Wifi_BLE_SDK/GD32VW55x_RELEASE_V1.0.2/MSDK/plf/GD32VW55x_standard_peripheral/Source\gd32vw55x_usart.c ****     \brief      disable NACK in smartcard mode
 707:C:/Users/stapi/OneDrive/Desktop/GD32VW553/GD32VW55X_Wifi_BLE_SDK/GD32VW55x_RELEASE_V1.0.2/MSDK/plf/GD32VW55x_standard_peripheral/Source\gd32vw55x_usart.c ****     \param[in]  usart_periph: USART0
 708:C:/Users/stapi/OneDrive/Desktop/GD32VW553/GD32VW55X_Wifi_BLE_SDK/GD32VW55x_RELEASE_V1.0.2/MSDK/plf/GD32VW55x_standard_peripheral/Source\gd32vw55x_usart.c ****     \param[out] none
 709:C:/Users/stapi/OneDrive/Desktop/GD32VW553/GD32VW55X_Wifi_BLE_SDK/GD32VW55x_RELEASE_V1.0.2/MSDK/plf/GD32VW55x_standard_peripheral/Source\gd32vw55x_usart.c ****     \retval     none
 710:C:/Users/stapi/OneDrive/Desktop/GD32VW553/GD32VW55X_Wifi_BLE_SDK/GD32VW55x_RELEASE_V1.0.2/MSDK/plf/GD32VW55x_standard_peripheral/Source\gd32vw55x_usart.c **** */
 711:C:/Users/stapi/OneDrive/Desktop/GD32VW553/GD32VW55X_Wifi_BLE_SDK/GD32VW55x_RELEASE_V1.0.2/MSDK/plf/GD32VW55x_standard_peripheral/Source\gd32vw55x_usart.c **** void usart_smartcard_mode_nack_disable(uint32_t usart_periph)
 712:C:/Users/stapi/OneDrive/Desktop/GD32VW553/GD32VW55X_Wifi_BLE_SDK/GD32VW55x_RELEASE_V1.0.2/MSDK/plf/GD32VW55x_standard_peripheral/Source\gd32vw55x_usart.c **** {
 1239              		.loc 1 712 1 is_stmt 1
 1240              		.cfi_startproc
 1241              	.LVL75:
 713:C:/Users/stapi/OneDrive/Desktop/GD32VW553/GD32VW55X_Wifi_BLE_SDK/GD32VW55x_RELEASE_V1.0.2/MSDK/plf/GD32VW55x_standard_peripheral/Source\gd32vw55x_usart.c ****     /* disable USART */
 714:C:/Users/stapi/OneDrive/Desktop/GD32VW553/GD32VW55X_Wifi_BLE_SDK/GD32VW55x_RELEASE_V1.0.2/MSDK/plf/GD32VW55x_standard_peripheral/Source\gd32vw55x_usart.c ****     USART_CTL0(usart_periph) &= ~(USART_CTL0_UEN);
 1242              		.loc 1 714 5
 1243              		.loc 1 714 30 is_stmt 0
 1244 0000 1C41     		lw	a5,0(a0)
 1245 0002 F99B     		andi	a5,a5,-2
 1246 0004 1CC1     		sw	a5,0(a0)
 715:C:/Users/stapi/OneDrive/Desktop/GD32VW553/GD32VW55X_Wifi_BLE_SDK/GD32VW55x_RELEASE_V1.0.2/MSDK/plf/GD32VW55x_standard_peripheral/Source\gd32vw55x_usart.c **** 
 716:C:/Users/stapi/OneDrive/Desktop/GD32VW553/GD32VW55X_Wifi_BLE_SDK/GD32VW55x_RELEASE_V1.0.2/MSDK/plf/GD32VW55x_standard_peripheral/Source\gd32vw55x_usart.c ****     USART_CTL2(usart_periph) &= ~(USART_CTL2_NKEN);
 1247              		.loc 1 716 5 is_stmt 1
 1248              		.loc 1 716 30 is_stmt 0
 1249 0006 1C45     		lw	a5,8(a0)
 1250 0008 BD9B     		andi	a5,a5,-17
 1251 000a 1CC5     		sw	a5,8(a0)
 717:C:/Users/stapi/OneDrive/Desktop/GD32VW553/GD32VW55X_Wifi_BLE_SDK/GD32VW55x_RELEASE_V1.0.2/MSDK/plf/GD32VW55x_standard_peripheral/Source\gd32vw55x_usart.c **** }
 1252              		.loc 1 717 1
 1253 000c 8280     		ret
 1254              		.cfi_endproc
 1255              	.LFE403:
 1257              		.section	.text.usart_smartcard_mode_early_nack_enable,"ax",@progbits
 1258              		.align	1
 1259              		.globl	usart_smartcard_mode_early_nack_enable
 1261              	usart_smartcard_mode_early_nack_enable:
 1262              	.LFB404:
 718:C:/Users/stapi/OneDrive/Desktop/GD32VW553/GD32VW55X_Wifi_BLE_SDK/GD32VW55x_RELEASE_V1.0.2/MSDK/plf/GD32VW55x_standard_peripheral/Source\gd32vw55x_usart.c **** 
 719:C:/Users/stapi/OneDrive/Desktop/GD32VW553/GD32VW55X_Wifi_BLE_SDK/GD32VW55x_RELEASE_V1.0.2/MSDK/plf/GD32VW55x_standard_peripheral/Source\gd32vw55x_usart.c **** /*!
 720:C:/Users/stapi/OneDrive/Desktop/GD32VW553/GD32VW55X_Wifi_BLE_SDK/GD32VW55x_RELEASE_V1.0.2/MSDK/plf/GD32VW55x_standard_peripheral/Source\gd32vw55x_usart.c ****     \brief      enable early NACK in smartcard mode
 721:C:/Users/stapi/OneDrive/Desktop/GD32VW553/GD32VW55X_Wifi_BLE_SDK/GD32VW55x_RELEASE_V1.0.2/MSDK/plf/GD32VW55x_standard_peripheral/Source\gd32vw55x_usart.c ****     \param[in]  usart_periph: USART0
 722:C:/Users/stapi/OneDrive/Desktop/GD32VW553/GD32VW55X_Wifi_BLE_SDK/GD32VW55x_RELEASE_V1.0.2/MSDK/plf/GD32VW55x_standard_peripheral/Source\gd32vw55x_usart.c ****     \param[out] none
 723:C:/Users/stapi/OneDrive/Desktop/GD32VW553/GD32VW55X_Wifi_BLE_SDK/GD32VW55x_RELEASE_V1.0.2/MSDK/plf/GD32VW55x_standard_peripheral/Source\gd32vw55x_usart.c ****     \retval     none
 724:C:/Users/stapi/OneDrive/Desktop/GD32VW553/GD32VW55X_Wifi_BLE_SDK/GD32VW55x_RELEASE_V1.0.2/MSDK/plf/GD32VW55x_standard_peripheral/Source\gd32vw55x_usart.c **** */
 725:C:/Users/stapi/OneDrive/Desktop/GD32VW553/GD32VW55X_Wifi_BLE_SDK/GD32VW55x_RELEASE_V1.0.2/MSDK/plf/GD32VW55x_standard_peripheral/Source\gd32vw55x_usart.c **** void usart_smartcard_mode_early_nack_enable(uint32_t usart_periph)
 726:C:/Users/stapi/OneDrive/Desktop/GD32VW553/GD32VW55X_Wifi_BLE_SDK/GD32VW55x_RELEASE_V1.0.2/MSDK/plf/GD32VW55x_standard_peripheral/Source\gd32vw55x_usart.c **** {
 1263              		.loc 1 726 1 is_stmt 1
 1264              		.cfi_startproc
 1265              	.LVL76:
 727:C:/Users/stapi/OneDrive/Desktop/GD32VW553/GD32VW55X_Wifi_BLE_SDK/GD32VW55x_RELEASE_V1.0.2/MSDK/plf/GD32VW55x_standard_peripheral/Source\gd32vw55x_usart.c ****     USART_RFCS(usart_periph) |= USART_RFCS_ELNACK;
 1266              		.loc 1 727 5
 1267              		.loc 1 727 30 is_stmt 0
 1268 0000 8327050D 		lw	a5,208(a0)
 1269 0004 93E71700 		ori	a5,a5,1
 1270 0008 2328F50C 		sw	a5,208(a0)
 728:C:/Users/stapi/OneDrive/Desktop/GD32VW553/GD32VW55X_Wifi_BLE_SDK/GD32VW55x_RELEASE_V1.0.2/MSDK/plf/GD32VW55x_standard_peripheral/Source\gd32vw55x_usart.c **** }
 1271              		.loc 1 728 1
 1272 000c 8280     		ret
 1273              		.cfi_endproc
 1274              	.LFE404:
 1276              		.section	.text.usart_smartcard_mode_early_nack_disable,"ax",@progbits
 1277              		.align	1
 1278              		.globl	usart_smartcard_mode_early_nack_disable
 1280              	usart_smartcard_mode_early_nack_disable:
 1281              	.LFB405:
 729:C:/Users/stapi/OneDrive/Desktop/GD32VW553/GD32VW55X_Wifi_BLE_SDK/GD32VW55x_RELEASE_V1.0.2/MSDK/plf/GD32VW55x_standard_peripheral/Source\gd32vw55x_usart.c **** 
 730:C:/Users/stapi/OneDrive/Desktop/GD32VW553/GD32VW55X_Wifi_BLE_SDK/GD32VW55x_RELEASE_V1.0.2/MSDK/plf/GD32VW55x_standard_peripheral/Source\gd32vw55x_usart.c **** /*!
 731:C:/Users/stapi/OneDrive/Desktop/GD32VW553/GD32VW55X_Wifi_BLE_SDK/GD32VW55x_RELEASE_V1.0.2/MSDK/plf/GD32VW55x_standard_peripheral/Source\gd32vw55x_usart.c ****     \brief      disable early NACK in smartcard mode
 732:C:/Users/stapi/OneDrive/Desktop/GD32VW553/GD32VW55X_Wifi_BLE_SDK/GD32VW55x_RELEASE_V1.0.2/MSDK/plf/GD32VW55x_standard_peripheral/Source\gd32vw55x_usart.c ****     \param[in]  usart_periph: USART0
 733:C:/Users/stapi/OneDrive/Desktop/GD32VW553/GD32VW55X_Wifi_BLE_SDK/GD32VW55x_RELEASE_V1.0.2/MSDK/plf/GD32VW55x_standard_peripheral/Source\gd32vw55x_usart.c ****     \param[out] none
 734:C:/Users/stapi/OneDrive/Desktop/GD32VW553/GD32VW55X_Wifi_BLE_SDK/GD32VW55x_RELEASE_V1.0.2/MSDK/plf/GD32VW55x_standard_peripheral/Source\gd32vw55x_usart.c ****     \retval     none
 735:C:/Users/stapi/OneDrive/Desktop/GD32VW553/GD32VW55X_Wifi_BLE_SDK/GD32VW55x_RELEASE_V1.0.2/MSDK/plf/GD32VW55x_standard_peripheral/Source\gd32vw55x_usart.c **** */
 736:C:/Users/stapi/OneDrive/Desktop/GD32VW553/GD32VW55X_Wifi_BLE_SDK/GD32VW55x_RELEASE_V1.0.2/MSDK/plf/GD32VW55x_standard_peripheral/Source\gd32vw55x_usart.c **** void usart_smartcard_mode_early_nack_disable(uint32_t usart_periph)
 737:C:/Users/stapi/OneDrive/Desktop/GD32VW553/GD32VW55X_Wifi_BLE_SDK/GD32VW55x_RELEASE_V1.0.2/MSDK/plf/GD32VW55x_standard_peripheral/Source\gd32vw55x_usart.c **** {
 1282              		.loc 1 737 1 is_stmt 1
 1283              		.cfi_startproc
 1284              	.LVL77:
 738:C:/Users/stapi/OneDrive/Desktop/GD32VW553/GD32VW55X_Wifi_BLE_SDK/GD32VW55x_RELEASE_V1.0.2/MSDK/plf/GD32VW55x_standard_peripheral/Source\gd32vw55x_usart.c ****     USART_RFCS(usart_periph) &= ~USART_RFCS_ELNACK;
 1285              		.loc 1 738 5
 1286              		.loc 1 738 30 is_stmt 0
 1287 0000 8327050D 		lw	a5,208(a0)
 1288 0004 F99B     		andi	a5,a5,-2
 1289 0006 2328F50C 		sw	a5,208(a0)
 739:C:/Users/stapi/OneDrive/Desktop/GD32VW553/GD32VW55X_Wifi_BLE_SDK/GD32VW55x_RELEASE_V1.0.2/MSDK/plf/GD32VW55x_standard_peripheral/Source\gd32vw55x_usart.c **** }
 1290              		.loc 1 739 1
 1291 000a 8280     		ret
 1292              		.cfi_endproc
 1293              	.LFE405:
 1295              		.section	.text.usart_smartcard_autoretry_config,"ax",@progbits
 1296              		.align	1
 1297              		.globl	usart_smartcard_autoretry_config
 1299              	usart_smartcard_autoretry_config:
 1300              	.LFB406:
 740:C:/Users/stapi/OneDrive/Desktop/GD32VW553/GD32VW55X_Wifi_BLE_SDK/GD32VW55x_RELEASE_V1.0.2/MSDK/plf/GD32VW55x_standard_peripheral/Source\gd32vw55x_usart.c **** 
 741:C:/Users/stapi/OneDrive/Desktop/GD32VW553/GD32VW55X_Wifi_BLE_SDK/GD32VW55x_RELEASE_V1.0.2/MSDK/plf/GD32VW55x_standard_peripheral/Source\gd32vw55x_usart.c **** /*!
 742:C:/Users/stapi/OneDrive/Desktop/GD32VW553/GD32VW55X_Wifi_BLE_SDK/GD32VW55x_RELEASE_V1.0.2/MSDK/plf/GD32VW55x_standard_peripheral/Source\gd32vw55x_usart.c ****     \brief      configure smartcard auto-retry number
 743:C:/Users/stapi/OneDrive/Desktop/GD32VW553/GD32VW55X_Wifi_BLE_SDK/GD32VW55x_RELEASE_V1.0.2/MSDK/plf/GD32VW55x_standard_peripheral/Source\gd32vw55x_usart.c ****     \param[in]  usart_periph: USART0
 744:C:/Users/stapi/OneDrive/Desktop/GD32VW553/GD32VW55X_Wifi_BLE_SDK/GD32VW55x_RELEASE_V1.0.2/MSDK/plf/GD32VW55x_standard_peripheral/Source\gd32vw55x_usart.c ****     \param[in]  scrtnum: 0x00-0x07, smartcard auto-retry number
 745:C:/Users/stapi/OneDrive/Desktop/GD32VW553/GD32VW55X_Wifi_BLE_SDK/GD32VW55x_RELEASE_V1.0.2/MSDK/plf/GD32VW55x_standard_peripheral/Source\gd32vw55x_usart.c ****     \param[out] none
 746:C:/Users/stapi/OneDrive/Desktop/GD32VW553/GD32VW55X_Wifi_BLE_SDK/GD32VW55x_RELEASE_V1.0.2/MSDK/plf/GD32VW55x_standard_peripheral/Source\gd32vw55x_usart.c ****     \retval     none
 747:C:/Users/stapi/OneDrive/Desktop/GD32VW553/GD32VW55X_Wifi_BLE_SDK/GD32VW55x_RELEASE_V1.0.2/MSDK/plf/GD32VW55x_standard_peripheral/Source\gd32vw55x_usart.c **** */
 748:C:/Users/stapi/OneDrive/Desktop/GD32VW553/GD32VW55X_Wifi_BLE_SDK/GD32VW55x_RELEASE_V1.0.2/MSDK/plf/GD32VW55x_standard_peripheral/Source\gd32vw55x_usart.c **** void usart_smartcard_autoretry_config(uint32_t usart_periph, uint8_t scrtnum)
 749:C:/Users/stapi/OneDrive/Desktop/GD32VW553/GD32VW55X_Wifi_BLE_SDK/GD32VW55x_RELEASE_V1.0.2/MSDK/plf/GD32VW55x_standard_peripheral/Source\gd32vw55x_usart.c **** {
 1301              		.loc 1 749 1 is_stmt 1
 1302              		.cfi_startproc
 1303              	.LVL78:
 750:C:/Users/stapi/OneDrive/Desktop/GD32VW553/GD32VW55X_Wifi_BLE_SDK/GD32VW55x_RELEASE_V1.0.2/MSDK/plf/GD32VW55x_standard_peripheral/Source\gd32vw55x_usart.c ****     /* disable USART */
 751:C:/Users/stapi/OneDrive/Desktop/GD32VW553/GD32VW55X_Wifi_BLE_SDK/GD32VW55x_RELEASE_V1.0.2/MSDK/plf/GD32VW55x_standard_peripheral/Source\gd32vw55x_usart.c ****     USART_CTL0(usart_periph) &= ~(USART_CTL0_UEN);
 1304              		.loc 1 751 5
 1305              		.loc 1 751 30 is_stmt 0
 1306 0000 1C41     		lw	a5,0(a0)
 752:C:/Users/stapi/OneDrive/Desktop/GD32VW553/GD32VW55X_Wifi_BLE_SDK/GD32VW55x_RELEASE_V1.0.2/MSDK/plf/GD32VW55x_standard_peripheral/Source\gd32vw55x_usart.c ****     USART_CTL2(usart_periph) &= ~(USART_CTL2_SCRTNUM);
 1307              		.loc 1 752 30
 1308 0002 3707F2FF 		li	a4,-917504
 1309 0006 7D17     		addi	a4,a4,-1
 751:C:/Users/stapi/OneDrive/Desktop/GD32VW553/GD32VW55X_Wifi_BLE_SDK/GD32VW55x_RELEASE_V1.0.2/MSDK/plf/GD32VW55x_standard_peripheral/Source\gd32vw55x_usart.c ****     USART_CTL2(usart_periph) &= ~(USART_CTL2_SCRTNUM);
 1310              		.loc 1 751 30
 1311 0008 F99B     		andi	a5,a5,-2
 1312 000a 1CC1     		sw	a5,0(a0)
 1313              		.loc 1 752 5 is_stmt 1
 1314              		.loc 1 752 30 is_stmt 0
 1315 000c 1C45     		lw	a5,8(a0)
 753:C:/Users/stapi/OneDrive/Desktop/GD32VW553/GD32VW55X_Wifi_BLE_SDK/GD32VW55x_RELEASE_V1.0.2/MSDK/plf/GD32VW55x_standard_peripheral/Source\gd32vw55x_usart.c ****     USART_CTL2(usart_periph) |= (USART_CTL2_SCRTNUM & ((uint32_t)scrtnum << CTL2_SCRTNUM_OFFSET));
 1316              		.loc 1 753 74
 1317 000e C605     		slli	a1,a1,17
 1318              	.LVL79:
 752:C:/Users/stapi/OneDrive/Desktop/GD32VW553/GD32VW55X_Wifi_BLE_SDK/GD32VW55x_RELEASE_V1.0.2/MSDK/plf/GD32VW55x_standard_peripheral/Source\gd32vw55x_usart.c ****     USART_CTL2(usart_periph) &= ~(USART_CTL2_SCRTNUM);
 1319              		.loc 1 752 30
 1320 0010 F98F     		and	a5,a5,a4
 1321 0012 1CC5     		sw	a5,8(a0)
 1322              		.loc 1 753 5 is_stmt 1
 1323              		.loc 1 753 30 is_stmt 0
 1324 0014 1C45     		lw	a5,8(a0)
 1325              		.loc 1 753 53
 1326 0016 37070E00 		li	a4,917504
 1327 001a F98D     		and	a1,a1,a4
 1328              		.loc 1 753 30
 1329 001c DD8D     		or	a1,a1,a5
 1330 001e 0CC5     		sw	a1,8(a0)
 754:C:/Users/stapi/OneDrive/Desktop/GD32VW553/GD32VW55X_Wifi_BLE_SDK/GD32VW55x_RELEASE_V1.0.2/MSDK/plf/GD32VW55x_standard_peripheral/Source\gd32vw55x_usart.c **** }
 1331              		.loc 1 754 1
 1332 0020 8280     		ret
 1333              		.cfi_endproc
 1334              	.LFE406:
 1336              		.section	.text.usart_block_length_config,"ax",@progbits
 1337              		.align	1
 1338              		.globl	usart_block_length_config
 1340              	usart_block_length_config:
 1341              	.LFB407:
 755:C:/Users/stapi/OneDrive/Desktop/GD32VW553/GD32VW55X_Wifi_BLE_SDK/GD32VW55x_RELEASE_V1.0.2/MSDK/plf/GD32VW55x_standard_peripheral/Source\gd32vw55x_usart.c **** 
 756:C:/Users/stapi/OneDrive/Desktop/GD32VW553/GD32VW55X_Wifi_BLE_SDK/GD32VW55x_RELEASE_V1.0.2/MSDK/plf/GD32VW55x_standard_peripheral/Source\gd32vw55x_usart.c **** /*!
 757:C:/Users/stapi/OneDrive/Desktop/GD32VW553/GD32VW55X_Wifi_BLE_SDK/GD32VW55x_RELEASE_V1.0.2/MSDK/plf/GD32VW55x_standard_peripheral/Source\gd32vw55x_usart.c ****     \brief      configure block length
 758:C:/Users/stapi/OneDrive/Desktop/GD32VW553/GD32VW55X_Wifi_BLE_SDK/GD32VW55x_RELEASE_V1.0.2/MSDK/plf/GD32VW55x_standard_peripheral/Source\gd32vw55x_usart.c ****     \param[in]  usart_periph: USART0
 759:C:/Users/stapi/OneDrive/Desktop/GD32VW553/GD32VW55X_Wifi_BLE_SDK/GD32VW55x_RELEASE_V1.0.2/MSDK/plf/GD32VW55x_standard_peripheral/Source\gd32vw55x_usart.c ****     \param[in]  bl: 0x00000000-0x000000FF
 760:C:/Users/stapi/OneDrive/Desktop/GD32VW553/GD32VW55X_Wifi_BLE_SDK/GD32VW55x_RELEASE_V1.0.2/MSDK/plf/GD32VW55x_standard_peripheral/Source\gd32vw55x_usart.c ****     \param[out] none
 761:C:/Users/stapi/OneDrive/Desktop/GD32VW553/GD32VW55X_Wifi_BLE_SDK/GD32VW55x_RELEASE_V1.0.2/MSDK/plf/GD32VW55x_standard_peripheral/Source\gd32vw55x_usart.c ****     \retval     none
 762:C:/Users/stapi/OneDrive/Desktop/GD32VW553/GD32VW55X_Wifi_BLE_SDK/GD32VW55x_RELEASE_V1.0.2/MSDK/plf/GD32VW55x_standard_peripheral/Source\gd32vw55x_usart.c **** */
 763:C:/Users/stapi/OneDrive/Desktop/GD32VW553/GD32VW55X_Wifi_BLE_SDK/GD32VW55x_RELEASE_V1.0.2/MSDK/plf/GD32VW55x_standard_peripheral/Source\gd32vw55x_usart.c **** void usart_block_length_config(uint32_t usart_periph, uint8_t bl)
 764:C:/Users/stapi/OneDrive/Desktop/GD32VW553/GD32VW55X_Wifi_BLE_SDK/GD32VW55x_RELEASE_V1.0.2/MSDK/plf/GD32VW55x_standard_peripheral/Source\gd32vw55x_usart.c **** {
 1342              		.loc 1 764 1 is_stmt 1
 1343              		.cfi_startproc
 1344              	.LVL80:
 765:C:/Users/stapi/OneDrive/Desktop/GD32VW553/GD32VW55X_Wifi_BLE_SDK/GD32VW55x_RELEASE_V1.0.2/MSDK/plf/GD32VW55x_standard_peripheral/Source\gd32vw55x_usart.c ****     USART_RT(usart_periph) &= ~(USART_RT_BL);
 1345              		.loc 1 765 5
 1346              		.loc 1 765 28 is_stmt 0
 1347 0000 5C49     		lw	a5,20(a0)
 766:C:/Users/stapi/OneDrive/Desktop/GD32VW553/GD32VW55X_Wifi_BLE_SDK/GD32VW55x_RELEASE_V1.0.2/MSDK/plf/GD32VW55x_standard_peripheral/Source\gd32vw55x_usart.c ****     USART_RT(usart_periph) |= (USART_RT_BL & ((uint32_t)bl << RT_BL_OFFSET));
 1348              		.loc 1 766 44
 1349 0002 E205     		slli	a1,a1,24
 1350              	.LVL81:
 765:C:/Users/stapi/OneDrive/Desktop/GD32VW553/GD32VW55X_Wifi_BLE_SDK/GD32VW55x_RELEASE_V1.0.2/MSDK/plf/GD32VW55x_standard_peripheral/Source\gd32vw55x_usart.c ****     USART_RT(usart_periph) &= ~(USART_RT_BL);
 1351              		.loc 1 765 28
 1352 0004 A207     		slli	a5,a5,8
 1353 0006 A183     		srli	a5,a5,8
 1354 0008 5CC9     		sw	a5,20(a0)
 1355              		.loc 1 766 5 is_stmt 1
 1356              		.loc 1 766 28 is_stmt 0
 1357 000a 5C49     		lw	a5,20(a0)
 1358 000c DD8D     		or	a1,a1,a5
 1359 000e 4CC9     		sw	a1,20(a0)
 767:C:/Users/stapi/OneDrive/Desktop/GD32VW553/GD32VW55X_Wifi_BLE_SDK/GD32VW55x_RELEASE_V1.0.2/MSDK/plf/GD32VW55x_standard_peripheral/Source\gd32vw55x_usart.c **** }
 1360              		.loc 1 767 1
 1361 0010 8280     		ret
 1362              		.cfi_endproc
 1363              	.LFE407:
 1365              		.section	.text.usart_irda_mode_enable,"ax",@progbits
 1366              		.align	1
 1367              		.globl	usart_irda_mode_enable
 1369              	usart_irda_mode_enable:
 1370              	.LFB408:
 768:C:/Users/stapi/OneDrive/Desktop/GD32VW553/GD32VW55X_Wifi_BLE_SDK/GD32VW55x_RELEASE_V1.0.2/MSDK/plf/GD32VW55x_standard_peripheral/Source\gd32vw55x_usart.c **** 
 769:C:/Users/stapi/OneDrive/Desktop/GD32VW553/GD32VW55X_Wifi_BLE_SDK/GD32VW55x_RELEASE_V1.0.2/MSDK/plf/GD32VW55x_standard_peripheral/Source\gd32vw55x_usart.c **** /*!
 770:C:/Users/stapi/OneDrive/Desktop/GD32VW553/GD32VW55X_Wifi_BLE_SDK/GD32VW55x_RELEASE_V1.0.2/MSDK/plf/GD32VW55x_standard_peripheral/Source\gd32vw55x_usart.c ****     \brief      enable IrDA mode
 771:C:/Users/stapi/OneDrive/Desktop/GD32VW553/GD32VW55X_Wifi_BLE_SDK/GD32VW55x_RELEASE_V1.0.2/MSDK/plf/GD32VW55x_standard_peripheral/Source\gd32vw55x_usart.c ****     \param[in]  usart_periph: USART0
 772:C:/Users/stapi/OneDrive/Desktop/GD32VW553/GD32VW55X_Wifi_BLE_SDK/GD32VW55x_RELEASE_V1.0.2/MSDK/plf/GD32VW55x_standard_peripheral/Source\gd32vw55x_usart.c ****     \param[out] none
 773:C:/Users/stapi/OneDrive/Desktop/GD32VW553/GD32VW55X_Wifi_BLE_SDK/GD32VW55x_RELEASE_V1.0.2/MSDK/plf/GD32VW55x_standard_peripheral/Source\gd32vw55x_usart.c ****     \retval     none
 774:C:/Users/stapi/OneDrive/Desktop/GD32VW553/GD32VW55X_Wifi_BLE_SDK/GD32VW55x_RELEASE_V1.0.2/MSDK/plf/GD32VW55x_standard_peripheral/Source\gd32vw55x_usart.c **** */
 775:C:/Users/stapi/OneDrive/Desktop/GD32VW553/GD32VW55X_Wifi_BLE_SDK/GD32VW55x_RELEASE_V1.0.2/MSDK/plf/GD32VW55x_standard_peripheral/Source\gd32vw55x_usart.c **** void usart_irda_mode_enable(uint32_t usart_periph)
 776:C:/Users/stapi/OneDrive/Desktop/GD32VW553/GD32VW55X_Wifi_BLE_SDK/GD32VW55x_RELEASE_V1.0.2/MSDK/plf/GD32VW55x_standard_peripheral/Source\gd32vw55x_usart.c **** {
 1371              		.loc 1 776 1 is_stmt 1
 1372              		.cfi_startproc
 1373              	.LVL82:
 777:C:/Users/stapi/OneDrive/Desktop/GD32VW553/GD32VW55X_Wifi_BLE_SDK/GD32VW55x_RELEASE_V1.0.2/MSDK/plf/GD32VW55x_standard_peripheral/Source\gd32vw55x_usart.c ****     /* disable USART */
 778:C:/Users/stapi/OneDrive/Desktop/GD32VW553/GD32VW55X_Wifi_BLE_SDK/GD32VW55x_RELEASE_V1.0.2/MSDK/plf/GD32VW55x_standard_peripheral/Source\gd32vw55x_usart.c ****     USART_CTL0(usart_periph) &= ~(USART_CTL0_UEN);
 1374              		.loc 1 778 5
 1375              		.loc 1 778 30 is_stmt 0
 1376 0000 1C41     		lw	a5,0(a0)
 1377 0002 F99B     		andi	a5,a5,-2
 1378 0004 1CC1     		sw	a5,0(a0)
 779:C:/Users/stapi/OneDrive/Desktop/GD32VW553/GD32VW55X_Wifi_BLE_SDK/GD32VW55x_RELEASE_V1.0.2/MSDK/plf/GD32VW55x_standard_peripheral/Source\gd32vw55x_usart.c **** 
 780:C:/Users/stapi/OneDrive/Desktop/GD32VW553/GD32VW55X_Wifi_BLE_SDK/GD32VW55x_RELEASE_V1.0.2/MSDK/plf/GD32VW55x_standard_peripheral/Source\gd32vw55x_usart.c ****     USART_CTL2(usart_periph) |= USART_CTL2_IREN;
 1379              		.loc 1 780 5 is_stmt 1
 1380              		.loc 1 780 30 is_stmt 0
 1381 0006 1C45     		lw	a5,8(a0)
 1382 0008 93E72700 		ori	a5,a5,2
 1383 000c 1CC5     		sw	a5,8(a0)
 781:C:/Users/stapi/OneDrive/Desktop/GD32VW553/GD32VW55X_Wifi_BLE_SDK/GD32VW55x_RELEASE_V1.0.2/MSDK/plf/GD32VW55x_standard_peripheral/Source\gd32vw55x_usart.c **** }
 1384              		.loc 1 781 1
 1385 000e 8280     		ret
 1386              		.cfi_endproc
 1387              	.LFE408:
 1389              		.section	.text.usart_irda_mode_disable,"ax",@progbits
 1390              		.align	1
 1391              		.globl	usart_irda_mode_disable
 1393              	usart_irda_mode_disable:
 1394              	.LFB409:
 782:C:/Users/stapi/OneDrive/Desktop/GD32VW553/GD32VW55X_Wifi_BLE_SDK/GD32VW55x_RELEASE_V1.0.2/MSDK/plf/GD32VW55x_standard_peripheral/Source\gd32vw55x_usart.c **** 
 783:C:/Users/stapi/OneDrive/Desktop/GD32VW553/GD32VW55X_Wifi_BLE_SDK/GD32VW55x_RELEASE_V1.0.2/MSDK/plf/GD32VW55x_standard_peripheral/Source\gd32vw55x_usart.c **** /*!
 784:C:/Users/stapi/OneDrive/Desktop/GD32VW553/GD32VW55X_Wifi_BLE_SDK/GD32VW55x_RELEASE_V1.0.2/MSDK/plf/GD32VW55x_standard_peripheral/Source\gd32vw55x_usart.c ****     \brief      disable IrDA mode
 785:C:/Users/stapi/OneDrive/Desktop/GD32VW553/GD32VW55X_Wifi_BLE_SDK/GD32VW55x_RELEASE_V1.0.2/MSDK/plf/GD32VW55x_standard_peripheral/Source\gd32vw55x_usart.c ****     \param[in]  usart_periph: USART0
 786:C:/Users/stapi/OneDrive/Desktop/GD32VW553/GD32VW55X_Wifi_BLE_SDK/GD32VW55x_RELEASE_V1.0.2/MSDK/plf/GD32VW55x_standard_peripheral/Source\gd32vw55x_usart.c ****     \param[out] none
 787:C:/Users/stapi/OneDrive/Desktop/GD32VW553/GD32VW55X_Wifi_BLE_SDK/GD32VW55x_RELEASE_V1.0.2/MSDK/plf/GD32VW55x_standard_peripheral/Source\gd32vw55x_usart.c ****     \retval     none
 788:C:/Users/stapi/OneDrive/Desktop/GD32VW553/GD32VW55X_Wifi_BLE_SDK/GD32VW55x_RELEASE_V1.0.2/MSDK/plf/GD32VW55x_standard_peripheral/Source\gd32vw55x_usart.c **** */
 789:C:/Users/stapi/OneDrive/Desktop/GD32VW553/GD32VW55X_Wifi_BLE_SDK/GD32VW55x_RELEASE_V1.0.2/MSDK/plf/GD32VW55x_standard_peripheral/Source\gd32vw55x_usart.c **** void usart_irda_mode_disable(uint32_t usart_periph)
 790:C:/Users/stapi/OneDrive/Desktop/GD32VW553/GD32VW55X_Wifi_BLE_SDK/GD32VW55x_RELEASE_V1.0.2/MSDK/plf/GD32VW55x_standard_peripheral/Source\gd32vw55x_usart.c **** {
 1395              		.loc 1 790 1 is_stmt 1
 1396              		.cfi_startproc
 1397              	.LVL83:
 791:C:/Users/stapi/OneDrive/Desktop/GD32VW553/GD32VW55X_Wifi_BLE_SDK/GD32VW55x_RELEASE_V1.0.2/MSDK/plf/GD32VW55x_standard_peripheral/Source\gd32vw55x_usart.c ****     /* disable USART */
 792:C:/Users/stapi/OneDrive/Desktop/GD32VW553/GD32VW55X_Wifi_BLE_SDK/GD32VW55x_RELEASE_V1.0.2/MSDK/plf/GD32VW55x_standard_peripheral/Source\gd32vw55x_usart.c ****     USART_CTL0(usart_periph) &= ~(USART_CTL0_UEN);
 1398              		.loc 1 792 5
 1399              		.loc 1 792 30 is_stmt 0
 1400 0000 1C41     		lw	a5,0(a0)
 1401 0002 F99B     		andi	a5,a5,-2
 1402 0004 1CC1     		sw	a5,0(a0)
 793:C:/Users/stapi/OneDrive/Desktop/GD32VW553/GD32VW55X_Wifi_BLE_SDK/GD32VW55x_RELEASE_V1.0.2/MSDK/plf/GD32VW55x_standard_peripheral/Source\gd32vw55x_usart.c **** 
 794:C:/Users/stapi/OneDrive/Desktop/GD32VW553/GD32VW55X_Wifi_BLE_SDK/GD32VW55x_RELEASE_V1.0.2/MSDK/plf/GD32VW55x_standard_peripheral/Source\gd32vw55x_usart.c ****     USART_CTL2(usart_periph) &= ~(USART_CTL2_IREN);
 1403              		.loc 1 794 5 is_stmt 1
 1404              		.loc 1 794 30 is_stmt 0
 1405 0006 1C45     		lw	a5,8(a0)
 1406 0008 F59B     		andi	a5,a5,-3
 1407 000a 1CC5     		sw	a5,8(a0)
 795:C:/Users/stapi/OneDrive/Desktop/GD32VW553/GD32VW55X_Wifi_BLE_SDK/GD32VW55x_RELEASE_V1.0.2/MSDK/plf/GD32VW55x_standard_peripheral/Source\gd32vw55x_usart.c **** }
 1408              		.loc 1 795 1
 1409 000c 8280     		ret
 1410              		.cfi_endproc
 1411              	.LFE409:
 1413              		.section	.text.usart_prescaler_config,"ax",@progbits
 1414              		.align	1
 1415              		.globl	usart_prescaler_config
 1417              	usart_prescaler_config:
 1418              	.LFB410:
 796:C:/Users/stapi/OneDrive/Desktop/GD32VW553/GD32VW55X_Wifi_BLE_SDK/GD32VW55x_RELEASE_V1.0.2/MSDK/plf/GD32VW55x_standard_peripheral/Source\gd32vw55x_usart.c **** 
 797:C:/Users/stapi/OneDrive/Desktop/GD32VW553/GD32VW55X_Wifi_BLE_SDK/GD32VW55x_RELEASE_V1.0.2/MSDK/plf/GD32VW55x_standard_peripheral/Source\gd32vw55x_usart.c **** /*!
 798:C:/Users/stapi/OneDrive/Desktop/GD32VW553/GD32VW55X_Wifi_BLE_SDK/GD32VW55x_RELEASE_V1.0.2/MSDK/plf/GD32VW55x_standard_peripheral/Source\gd32vw55x_usart.c ****     \brief      configure the peripheral clock prescaler in USART IrDA low-power or smartcard mode
 799:C:/Users/stapi/OneDrive/Desktop/GD32VW553/GD32VW55X_Wifi_BLE_SDK/GD32VW55x_RELEASE_V1.0.2/MSDK/plf/GD32VW55x_standard_peripheral/Source\gd32vw55x_usart.c ****     \param[in]  usart_periph: USART0
 800:C:/Users/stapi/OneDrive/Desktop/GD32VW553/GD32VW55X_Wifi_BLE_SDK/GD32VW55x_RELEASE_V1.0.2/MSDK/plf/GD32VW55x_standard_peripheral/Source\gd32vw55x_usart.c ****     \param[in]  psc: 0x00000000-0x000000FF
 801:C:/Users/stapi/OneDrive/Desktop/GD32VW553/GD32VW55X_Wifi_BLE_SDK/GD32VW55x_RELEASE_V1.0.2/MSDK/plf/GD32VW55x_standard_peripheral/Source\gd32vw55x_usart.c ****     \param[out] none
 802:C:/Users/stapi/OneDrive/Desktop/GD32VW553/GD32VW55X_Wifi_BLE_SDK/GD32VW55x_RELEASE_V1.0.2/MSDK/plf/GD32VW55x_standard_peripheral/Source\gd32vw55x_usart.c ****     \retval     none
 803:C:/Users/stapi/OneDrive/Desktop/GD32VW553/GD32VW55X_Wifi_BLE_SDK/GD32VW55x_RELEASE_V1.0.2/MSDK/plf/GD32VW55x_standard_peripheral/Source\gd32vw55x_usart.c **** */
 804:C:/Users/stapi/OneDrive/Desktop/GD32VW553/GD32VW55X_Wifi_BLE_SDK/GD32VW55x_RELEASE_V1.0.2/MSDK/plf/GD32VW55x_standard_peripheral/Source\gd32vw55x_usart.c **** void usart_prescaler_config(uint32_t usart_periph, uint8_t psc)
 805:C:/Users/stapi/OneDrive/Desktop/GD32VW553/GD32VW55X_Wifi_BLE_SDK/GD32VW55x_RELEASE_V1.0.2/MSDK/plf/GD32VW55x_standard_peripheral/Source\gd32vw55x_usart.c **** {
 1419              		.loc 1 805 1 is_stmt 1
 1420              		.cfi_startproc
 1421              	.LVL84:
 806:C:/Users/stapi/OneDrive/Desktop/GD32VW553/GD32VW55X_Wifi_BLE_SDK/GD32VW55x_RELEASE_V1.0.2/MSDK/plf/GD32VW55x_standard_peripheral/Source\gd32vw55x_usart.c ****     /* disable USART */
 807:C:/Users/stapi/OneDrive/Desktop/GD32VW553/GD32VW55X_Wifi_BLE_SDK/GD32VW55x_RELEASE_V1.0.2/MSDK/plf/GD32VW55x_standard_peripheral/Source\gd32vw55x_usart.c ****     USART_CTL0(usart_periph) &= ~(USART_CTL0_UEN);
 1422              		.loc 1 807 5
 1423              		.loc 1 807 30 is_stmt 0
 1424 0000 1C41     		lw	a5,0(a0)
 1425 0002 F99B     		andi	a5,a5,-2
 1426 0004 1CC1     		sw	a5,0(a0)
 808:C:/Users/stapi/OneDrive/Desktop/GD32VW553/GD32VW55X_Wifi_BLE_SDK/GD32VW55x_RELEASE_V1.0.2/MSDK/plf/GD32VW55x_standard_peripheral/Source\gd32vw55x_usart.c ****     USART_GP(usart_periph) &= ~(USART_GP_PSC);
 1427              		.loc 1 808 5 is_stmt 1
 1428              		.loc 1 808 28 is_stmt 0
 1429 0006 1C49     		lw	a5,16(a0)
 1430 0008 93F707F0 		andi	a5,a5,-256
 1431 000c 1CC9     		sw	a5,16(a0)
 809:C:/Users/stapi/OneDrive/Desktop/GD32VW553/GD32VW55X_Wifi_BLE_SDK/GD32VW55x_RELEASE_V1.0.2/MSDK/plf/GD32VW55x_standard_peripheral/Source\gd32vw55x_usart.c ****     USART_GP(usart_periph) |= (uint32_t)psc;
 1432              		.loc 1 809 5 is_stmt 1
 1433              		.loc 1 809 28 is_stmt 0
 1434 000e 1C49     		lw	a5,16(a0)
 1435 0010 DD8D     		or	a1,a1,a5
 1436              	.LVL85:
 1437 0012 0CC9     		sw	a1,16(a0)
 810:C:/Users/stapi/OneDrive/Desktop/GD32VW553/GD32VW55X_Wifi_BLE_SDK/GD32VW55x_RELEASE_V1.0.2/MSDK/plf/GD32VW55x_standard_peripheral/Source\gd32vw55x_usart.c **** }
 1438              		.loc 1 810 1
 1439 0014 8280     		ret
 1440              		.cfi_endproc
 1441              	.LFE410:
 1443              		.section	.text.usart_irda_lowpower_config,"ax",@progbits
 1444              		.align	1
 1445              		.globl	usart_irda_lowpower_config
 1447              	usart_irda_lowpower_config:
 1448              	.LFB411:
 811:C:/Users/stapi/OneDrive/Desktop/GD32VW553/GD32VW55X_Wifi_BLE_SDK/GD32VW55x_RELEASE_V1.0.2/MSDK/plf/GD32VW55x_standard_peripheral/Source\gd32vw55x_usart.c **** 
 812:C:/Users/stapi/OneDrive/Desktop/GD32VW553/GD32VW55X_Wifi_BLE_SDK/GD32VW55x_RELEASE_V1.0.2/MSDK/plf/GD32VW55x_standard_peripheral/Source\gd32vw55x_usart.c **** /*!
 813:C:/Users/stapi/OneDrive/Desktop/GD32VW553/GD32VW55X_Wifi_BLE_SDK/GD32VW55x_RELEASE_V1.0.2/MSDK/plf/GD32VW55x_standard_peripheral/Source\gd32vw55x_usart.c ****     \brief      configure IrDA low-power
 814:C:/Users/stapi/OneDrive/Desktop/GD32VW553/GD32VW55X_Wifi_BLE_SDK/GD32VW55x_RELEASE_V1.0.2/MSDK/plf/GD32VW55x_standard_peripheral/Source\gd32vw55x_usart.c ****     \param[in]  usart_periph: USART0
 815:C:/Users/stapi/OneDrive/Desktop/GD32VW553/GD32VW55X_Wifi_BLE_SDK/GD32VW55x_RELEASE_V1.0.2/MSDK/plf/GD32VW55x_standard_peripheral/Source\gd32vw55x_usart.c ****     \param[in]  irlp: IrDA low-power or normal
 816:C:/Users/stapi/OneDrive/Desktop/GD32VW553/GD32VW55X_Wifi_BLE_SDK/GD32VW55x_RELEASE_V1.0.2/MSDK/plf/GD32VW55x_standard_peripheral/Source\gd32vw55x_usart.c ****                 only one parameter can be selected which is shown as below:
 817:C:/Users/stapi/OneDrive/Desktop/GD32VW553/GD32VW55X_Wifi_BLE_SDK/GD32VW55x_RELEASE_V1.0.2/MSDK/plf/GD32VW55x_standard_peripheral/Source\gd32vw55x_usart.c ****       \arg        USART_IRLP_LOW: low-power
 818:C:/Users/stapi/OneDrive/Desktop/GD32VW553/GD32VW55X_Wifi_BLE_SDK/GD32VW55x_RELEASE_V1.0.2/MSDK/plf/GD32VW55x_standard_peripheral/Source\gd32vw55x_usart.c ****       \arg        USART_IRLP_NORMAL: normal
 819:C:/Users/stapi/OneDrive/Desktop/GD32VW553/GD32VW55X_Wifi_BLE_SDK/GD32VW55x_RELEASE_V1.0.2/MSDK/plf/GD32VW55x_standard_peripheral/Source\gd32vw55x_usart.c ****     \param[out] none
 820:C:/Users/stapi/OneDrive/Desktop/GD32VW553/GD32VW55X_Wifi_BLE_SDK/GD32VW55x_RELEASE_V1.0.2/MSDK/plf/GD32VW55x_standard_peripheral/Source\gd32vw55x_usart.c ****     \retval     none
 821:C:/Users/stapi/OneDrive/Desktop/GD32VW553/GD32VW55X_Wifi_BLE_SDK/GD32VW55x_RELEASE_V1.0.2/MSDK/plf/GD32VW55x_standard_peripheral/Source\gd32vw55x_usart.c **** */
 822:C:/Users/stapi/OneDrive/Desktop/GD32VW553/GD32VW55X_Wifi_BLE_SDK/GD32VW55x_RELEASE_V1.0.2/MSDK/plf/GD32VW55x_standard_peripheral/Source\gd32vw55x_usart.c **** void usart_irda_lowpower_config(uint32_t usart_periph, uint32_t irlp)
 823:C:/Users/stapi/OneDrive/Desktop/GD32VW553/GD32VW55X_Wifi_BLE_SDK/GD32VW55x_RELEASE_V1.0.2/MSDK/plf/GD32VW55x_standard_peripheral/Source\gd32vw55x_usart.c **** {
 1449              		.loc 1 823 1 is_stmt 1
 1450              		.cfi_startproc
 1451              	.LVL86:
 824:C:/Users/stapi/OneDrive/Desktop/GD32VW553/GD32VW55X_Wifi_BLE_SDK/GD32VW55x_RELEASE_V1.0.2/MSDK/plf/GD32VW55x_standard_peripheral/Source\gd32vw55x_usart.c ****     /* disable USART */
 825:C:/Users/stapi/OneDrive/Desktop/GD32VW553/GD32VW55X_Wifi_BLE_SDK/GD32VW55x_RELEASE_V1.0.2/MSDK/plf/GD32VW55x_standard_peripheral/Source\gd32vw55x_usart.c ****     USART_CTL0(usart_periph) &= ~(USART_CTL0_UEN);
 1452              		.loc 1 825 5
 1453              		.loc 1 825 30 is_stmt 0
 1454 0000 1C41     		lw	a5,0(a0)
 826:C:/Users/stapi/OneDrive/Desktop/GD32VW553/GD32VW55X_Wifi_BLE_SDK/GD32VW55x_RELEASE_V1.0.2/MSDK/plf/GD32VW55x_standard_peripheral/Source\gd32vw55x_usart.c ****     USART_CTL2(usart_periph) &= ~(USART_CTL2_IRLP);
 827:C:/Users/stapi/OneDrive/Desktop/GD32VW553/GD32VW55X_Wifi_BLE_SDK/GD32VW55x_RELEASE_V1.0.2/MSDK/plf/GD32VW55x_standard_peripheral/Source\gd32vw55x_usart.c ****     USART_CTL2(usart_periph) |= (USART_CTL2_IRLP & irlp);
 1455              		.loc 1 827 50
 1456 0002 9189     		andi	a1,a1,4
 1457              	.LVL87:
 825:C:/Users/stapi/OneDrive/Desktop/GD32VW553/GD32VW55X_Wifi_BLE_SDK/GD32VW55x_RELEASE_V1.0.2/MSDK/plf/GD32VW55x_standard_peripheral/Source\gd32vw55x_usart.c ****     USART_CTL2(usart_periph) &= ~(USART_CTL2_IRLP);
 1458              		.loc 1 825 30
 1459 0004 F99B     		andi	a5,a5,-2
 1460 0006 1CC1     		sw	a5,0(a0)
 826:C:/Users/stapi/OneDrive/Desktop/GD32VW553/GD32VW55X_Wifi_BLE_SDK/GD32VW55x_RELEASE_V1.0.2/MSDK/plf/GD32VW55x_standard_peripheral/Source\gd32vw55x_usart.c ****     USART_CTL2(usart_periph) &= ~(USART_CTL2_IRLP);
 1461              		.loc 1 826 5 is_stmt 1
 826:C:/Users/stapi/OneDrive/Desktop/GD32VW553/GD32VW55X_Wifi_BLE_SDK/GD32VW55x_RELEASE_V1.0.2/MSDK/plf/GD32VW55x_standard_peripheral/Source\gd32vw55x_usart.c ****     USART_CTL2(usart_periph) &= ~(USART_CTL2_IRLP);
 1462              		.loc 1 826 30 is_stmt 0
 1463 0008 1C45     		lw	a5,8(a0)
 1464 000a ED9B     		andi	a5,a5,-5
 1465 000c 1CC5     		sw	a5,8(a0)
 1466              		.loc 1 827 5 is_stmt 1
 1467              		.loc 1 827 30 is_stmt 0
 1468 000e 1C45     		lw	a5,8(a0)
 1469 0010 DD8D     		or	a1,a1,a5
 1470 0012 0CC5     		sw	a1,8(a0)
 828:C:/Users/stapi/OneDrive/Desktop/GD32VW553/GD32VW55X_Wifi_BLE_SDK/GD32VW55x_RELEASE_V1.0.2/MSDK/plf/GD32VW55x_standard_peripheral/Source\gd32vw55x_usart.c **** }
 1471              		.loc 1 828 1
 1472 0014 8280     		ret
 1473              		.cfi_endproc
 1474              	.LFE411:
 1476              		.section	.text.usart_hardware_flow_rts_config,"ax",@progbits
 1477              		.align	1
 1478              		.globl	usart_hardware_flow_rts_config
 1480              	usart_hardware_flow_rts_config:
 1481              	.LFB412:
 829:C:/Users/stapi/OneDrive/Desktop/GD32VW553/GD32VW55X_Wifi_BLE_SDK/GD32VW55x_RELEASE_V1.0.2/MSDK/plf/GD32VW55x_standard_peripheral/Source\gd32vw55x_usart.c **** 
 830:C:/Users/stapi/OneDrive/Desktop/GD32VW553/GD32VW55X_Wifi_BLE_SDK/GD32VW55x_RELEASE_V1.0.2/MSDK/plf/GD32VW55x_standard_peripheral/Source\gd32vw55x_usart.c **** /*!
 831:C:/Users/stapi/OneDrive/Desktop/GD32VW553/GD32VW55X_Wifi_BLE_SDK/GD32VW55x_RELEASE_V1.0.2/MSDK/plf/GD32VW55x_standard_peripheral/Source\gd32vw55x_usart.c ****     \brief      configure hardware flow control RTS
 832:C:/Users/stapi/OneDrive/Desktop/GD32VW553/GD32VW55X_Wifi_BLE_SDK/GD32VW55x_RELEASE_V1.0.2/MSDK/plf/GD32VW55x_standard_peripheral/Source\gd32vw55x_usart.c ****     \param[in]  usart_periph: USART0/UARTx(x=1,2)
 833:C:/Users/stapi/OneDrive/Desktop/GD32VW553/GD32VW55X_Wifi_BLE_SDK/GD32VW55x_RELEASE_V1.0.2/MSDK/plf/GD32VW55x_standard_peripheral/Source\gd32vw55x_usart.c ****     \param[in]  rtsconfig: enable or disable RTS
 834:C:/Users/stapi/OneDrive/Desktop/GD32VW553/GD32VW55X_Wifi_BLE_SDK/GD32VW55x_RELEASE_V1.0.2/MSDK/plf/GD32VW55x_standard_peripheral/Source\gd32vw55x_usart.c ****                 only one parameter can be selected which is shown as below:
 835:C:/Users/stapi/OneDrive/Desktop/GD32VW553/GD32VW55X_Wifi_BLE_SDK/GD32VW55x_RELEASE_V1.0.2/MSDK/plf/GD32VW55x_standard_peripheral/Source\gd32vw55x_usart.c ****       \arg        USART_RTS_ENABLE: enable RTS
 836:C:/Users/stapi/OneDrive/Desktop/GD32VW553/GD32VW55X_Wifi_BLE_SDK/GD32VW55x_RELEASE_V1.0.2/MSDK/plf/GD32VW55x_standard_peripheral/Source\gd32vw55x_usart.c ****       \arg        USART_RTS_DISABLE: disable RTS
 837:C:/Users/stapi/OneDrive/Desktop/GD32VW553/GD32VW55X_Wifi_BLE_SDK/GD32VW55x_RELEASE_V1.0.2/MSDK/plf/GD32VW55x_standard_peripheral/Source\gd32vw55x_usart.c ****     \param[out] none
 838:C:/Users/stapi/OneDrive/Desktop/GD32VW553/GD32VW55X_Wifi_BLE_SDK/GD32VW55x_RELEASE_V1.0.2/MSDK/plf/GD32VW55x_standard_peripheral/Source\gd32vw55x_usart.c ****     \retval     none
 839:C:/Users/stapi/OneDrive/Desktop/GD32VW553/GD32VW55X_Wifi_BLE_SDK/GD32VW55x_RELEASE_V1.0.2/MSDK/plf/GD32VW55x_standard_peripheral/Source\gd32vw55x_usart.c **** */
 840:C:/Users/stapi/OneDrive/Desktop/GD32VW553/GD32VW55X_Wifi_BLE_SDK/GD32VW55x_RELEASE_V1.0.2/MSDK/plf/GD32VW55x_standard_peripheral/Source\gd32vw55x_usart.c **** void usart_hardware_flow_rts_config(uint32_t usart_periph, uint32_t rtsconfig)
 841:C:/Users/stapi/OneDrive/Desktop/GD32VW553/GD32VW55X_Wifi_BLE_SDK/GD32VW55x_RELEASE_V1.0.2/MSDK/plf/GD32VW55x_standard_peripheral/Source\gd32vw55x_usart.c **** {
 1482              		.loc 1 841 1 is_stmt 1
 1483              		.cfi_startproc
 1484              	.LVL88:
 842:C:/Users/stapi/OneDrive/Desktop/GD32VW553/GD32VW55X_Wifi_BLE_SDK/GD32VW55x_RELEASE_V1.0.2/MSDK/plf/GD32VW55x_standard_peripheral/Source\gd32vw55x_usart.c ****     /* disable USART */
 843:C:/Users/stapi/OneDrive/Desktop/GD32VW553/GD32VW55X_Wifi_BLE_SDK/GD32VW55x_RELEASE_V1.0.2/MSDK/plf/GD32VW55x_standard_peripheral/Source\gd32vw55x_usart.c ****     USART_CTL0(usart_periph) &= ~(USART_CTL0_UEN);
 1485              		.loc 1 843 5
 1486              		.loc 1 843 30 is_stmt 0
 1487 0000 1C41     		lw	a5,0(a0)
 844:C:/Users/stapi/OneDrive/Desktop/GD32VW553/GD32VW55X_Wifi_BLE_SDK/GD32VW55x_RELEASE_V1.0.2/MSDK/plf/GD32VW55x_standard_peripheral/Source\gd32vw55x_usart.c **** 
 845:C:/Users/stapi/OneDrive/Desktop/GD32VW553/GD32VW55X_Wifi_BLE_SDK/GD32VW55x_RELEASE_V1.0.2/MSDK/plf/GD32VW55x_standard_peripheral/Source\gd32vw55x_usart.c ****     USART_CTL2(usart_periph) &= ~(USART_CTL2_RTSEN);
 846:C:/Users/stapi/OneDrive/Desktop/GD32VW553/GD32VW55X_Wifi_BLE_SDK/GD32VW55x_RELEASE_V1.0.2/MSDK/plf/GD32VW55x_standard_peripheral/Source\gd32vw55x_usart.c ****     USART_CTL2(usart_periph) |= (USART_CTL2_RTSEN & rtsconfig);
 1488              		.loc 1 846 51
 1489 0002 93F50510 		andi	a1,a1,256
 1490              	.LVL89:
 843:C:/Users/stapi/OneDrive/Desktop/GD32VW553/GD32VW55X_Wifi_BLE_SDK/GD32VW55x_RELEASE_V1.0.2/MSDK/plf/GD32VW55x_standard_peripheral/Source\gd32vw55x_usart.c **** 
 1491              		.loc 1 843 30
 1492 0006 F99B     		andi	a5,a5,-2
 1493 0008 1CC1     		sw	a5,0(a0)
 845:C:/Users/stapi/OneDrive/Desktop/GD32VW553/GD32VW55X_Wifi_BLE_SDK/GD32VW55x_RELEASE_V1.0.2/MSDK/plf/GD32VW55x_standard_peripheral/Source\gd32vw55x_usart.c ****     USART_CTL2(usart_periph) |= (USART_CTL2_RTSEN & rtsconfig);
 1494              		.loc 1 845 5 is_stmt 1
 845:C:/Users/stapi/OneDrive/Desktop/GD32VW553/GD32VW55X_Wifi_BLE_SDK/GD32VW55x_RELEASE_V1.0.2/MSDK/plf/GD32VW55x_standard_peripheral/Source\gd32vw55x_usart.c ****     USART_CTL2(usart_periph) |= (USART_CTL2_RTSEN & rtsconfig);
 1495              		.loc 1 845 30 is_stmt 0
 1496 000a 1C45     		lw	a5,8(a0)
 1497 000c 93F7F7EF 		andi	a5,a5,-257
 1498 0010 1CC5     		sw	a5,8(a0)
 1499              		.loc 1 846 5 is_stmt 1
 1500              		.loc 1 846 30 is_stmt 0
 1501 0012 1C45     		lw	a5,8(a0)
 1502 0014 DD8D     		or	a1,a1,a5
 1503 0016 0CC5     		sw	a1,8(a0)
 847:C:/Users/stapi/OneDrive/Desktop/GD32VW553/GD32VW55X_Wifi_BLE_SDK/GD32VW55x_RELEASE_V1.0.2/MSDK/plf/GD32VW55x_standard_peripheral/Source\gd32vw55x_usart.c **** }
 1504              		.loc 1 847 1
 1505 0018 8280     		ret
 1506              		.cfi_endproc
 1507              	.LFE412:
 1509              		.section	.text.usart_hardware_flow_cts_config,"ax",@progbits
 1510              		.align	1
 1511              		.globl	usart_hardware_flow_cts_config
 1513              	usart_hardware_flow_cts_config:
 1514              	.LFB413:
 848:C:/Users/stapi/OneDrive/Desktop/GD32VW553/GD32VW55X_Wifi_BLE_SDK/GD32VW55x_RELEASE_V1.0.2/MSDK/plf/GD32VW55x_standard_peripheral/Source\gd32vw55x_usart.c **** 
 849:C:/Users/stapi/OneDrive/Desktop/GD32VW553/GD32VW55X_Wifi_BLE_SDK/GD32VW55x_RELEASE_V1.0.2/MSDK/plf/GD32VW55x_standard_peripheral/Source\gd32vw55x_usart.c **** /*!
 850:C:/Users/stapi/OneDrive/Desktop/GD32VW553/GD32VW55X_Wifi_BLE_SDK/GD32VW55x_RELEASE_V1.0.2/MSDK/plf/GD32VW55x_standard_peripheral/Source\gd32vw55x_usart.c ****     \brief      configure hardware flow control CTS
 851:C:/Users/stapi/OneDrive/Desktop/GD32VW553/GD32VW55X_Wifi_BLE_SDK/GD32VW55x_RELEASE_V1.0.2/MSDK/plf/GD32VW55x_standard_peripheral/Source\gd32vw55x_usart.c ****     \param[in]  usart_periph: USART0/UARTx(x=1,2)
 852:C:/Users/stapi/OneDrive/Desktop/GD32VW553/GD32VW55X_Wifi_BLE_SDK/GD32VW55x_RELEASE_V1.0.2/MSDK/plf/GD32VW55x_standard_peripheral/Source\gd32vw55x_usart.c ****     \param[in]  ctsconfig:  enable or disable CTS
 853:C:/Users/stapi/OneDrive/Desktop/GD32VW553/GD32VW55X_Wifi_BLE_SDK/GD32VW55x_RELEASE_V1.0.2/MSDK/plf/GD32VW55x_standard_peripheral/Source\gd32vw55x_usart.c ****                 only one parameter can be selected which is shown as below:
 854:C:/Users/stapi/OneDrive/Desktop/GD32VW553/GD32VW55X_Wifi_BLE_SDK/GD32VW55x_RELEASE_V1.0.2/MSDK/plf/GD32VW55x_standard_peripheral/Source\gd32vw55x_usart.c ****       \arg        USART_CTS_ENABLE:  enable CTS
 855:C:/Users/stapi/OneDrive/Desktop/GD32VW553/GD32VW55X_Wifi_BLE_SDK/GD32VW55x_RELEASE_V1.0.2/MSDK/plf/GD32VW55x_standard_peripheral/Source\gd32vw55x_usart.c ****       \arg        USART_CTS_DISABLE: disable CTS
 856:C:/Users/stapi/OneDrive/Desktop/GD32VW553/GD32VW55X_Wifi_BLE_SDK/GD32VW55x_RELEASE_V1.0.2/MSDK/plf/GD32VW55x_standard_peripheral/Source\gd32vw55x_usart.c ****     \param[out] none
 857:C:/Users/stapi/OneDrive/Desktop/GD32VW553/GD32VW55X_Wifi_BLE_SDK/GD32VW55x_RELEASE_V1.0.2/MSDK/plf/GD32VW55x_standard_peripheral/Source\gd32vw55x_usart.c ****     \retval     none
 858:C:/Users/stapi/OneDrive/Desktop/GD32VW553/GD32VW55X_Wifi_BLE_SDK/GD32VW55x_RELEASE_V1.0.2/MSDK/plf/GD32VW55x_standard_peripheral/Source\gd32vw55x_usart.c **** */
 859:C:/Users/stapi/OneDrive/Desktop/GD32VW553/GD32VW55X_Wifi_BLE_SDK/GD32VW55x_RELEASE_V1.0.2/MSDK/plf/GD32VW55x_standard_peripheral/Source\gd32vw55x_usart.c **** void usart_hardware_flow_cts_config(uint32_t usart_periph, uint32_t ctsconfig)
 860:C:/Users/stapi/OneDrive/Desktop/GD32VW553/GD32VW55X_Wifi_BLE_SDK/GD32VW55x_RELEASE_V1.0.2/MSDK/plf/GD32VW55x_standard_peripheral/Source\gd32vw55x_usart.c **** {
 1515              		.loc 1 860 1 is_stmt 1
 1516              		.cfi_startproc
 1517              	.LVL90:
 861:C:/Users/stapi/OneDrive/Desktop/GD32VW553/GD32VW55X_Wifi_BLE_SDK/GD32VW55x_RELEASE_V1.0.2/MSDK/plf/GD32VW55x_standard_peripheral/Source\gd32vw55x_usart.c ****     /* disable USART */
 862:C:/Users/stapi/OneDrive/Desktop/GD32VW553/GD32VW55X_Wifi_BLE_SDK/GD32VW55x_RELEASE_V1.0.2/MSDK/plf/GD32VW55x_standard_peripheral/Source\gd32vw55x_usart.c ****     USART_CTL0(usart_periph) &= ~(USART_CTL0_UEN);
 1518              		.loc 1 862 5
 1519              		.loc 1 862 30 is_stmt 0
 1520 0000 1C41     		lw	a5,0(a0)
 863:C:/Users/stapi/OneDrive/Desktop/GD32VW553/GD32VW55X_Wifi_BLE_SDK/GD32VW55x_RELEASE_V1.0.2/MSDK/plf/GD32VW55x_standard_peripheral/Source\gd32vw55x_usart.c **** 
 864:C:/Users/stapi/OneDrive/Desktop/GD32VW553/GD32VW55X_Wifi_BLE_SDK/GD32VW55x_RELEASE_V1.0.2/MSDK/plf/GD32VW55x_standard_peripheral/Source\gd32vw55x_usart.c ****     USART_CTL2(usart_periph) &= ~(USART_CTL2_CTSEN);
 865:C:/Users/stapi/OneDrive/Desktop/GD32VW553/GD32VW55X_Wifi_BLE_SDK/GD32VW55x_RELEASE_V1.0.2/MSDK/plf/GD32VW55x_standard_peripheral/Source\gd32vw55x_usart.c ****     USART_CTL2(usart_periph) |= (USART_CTL2_CTSEN & ctsconfig);
 1521              		.loc 1 865 51
 1522 0002 93F50520 		andi	a1,a1,512
 1523              	.LVL91:
 862:C:/Users/stapi/OneDrive/Desktop/GD32VW553/GD32VW55X_Wifi_BLE_SDK/GD32VW55x_RELEASE_V1.0.2/MSDK/plf/GD32VW55x_standard_peripheral/Source\gd32vw55x_usart.c **** 
 1524              		.loc 1 862 30
 1525 0006 F99B     		andi	a5,a5,-2
 1526 0008 1CC1     		sw	a5,0(a0)
 864:C:/Users/stapi/OneDrive/Desktop/GD32VW553/GD32VW55X_Wifi_BLE_SDK/GD32VW55x_RELEASE_V1.0.2/MSDK/plf/GD32VW55x_standard_peripheral/Source\gd32vw55x_usart.c ****     USART_CTL2(usart_periph) |= (USART_CTL2_CTSEN & ctsconfig);
 1527              		.loc 1 864 5 is_stmt 1
 864:C:/Users/stapi/OneDrive/Desktop/GD32VW553/GD32VW55X_Wifi_BLE_SDK/GD32VW55x_RELEASE_V1.0.2/MSDK/plf/GD32VW55x_standard_peripheral/Source\gd32vw55x_usart.c ****     USART_CTL2(usart_periph) |= (USART_CTL2_CTSEN & ctsconfig);
 1528              		.loc 1 864 30 is_stmt 0
 1529 000a 1C45     		lw	a5,8(a0)
 1530 000c 93F7F7DF 		andi	a5,a5,-513
 1531 0010 1CC5     		sw	a5,8(a0)
 1532              		.loc 1 865 5 is_stmt 1
 1533              		.loc 1 865 30 is_stmt 0
 1534 0012 1C45     		lw	a5,8(a0)
 1535 0014 DD8D     		or	a1,a1,a5
 1536 0016 0CC5     		sw	a1,8(a0)
 866:C:/Users/stapi/OneDrive/Desktop/GD32VW553/GD32VW55X_Wifi_BLE_SDK/GD32VW55x_RELEASE_V1.0.2/MSDK/plf/GD32VW55x_standard_peripheral/Source\gd32vw55x_usart.c **** }
 1537              		.loc 1 866 1
 1538 0018 8280     		ret
 1539              		.cfi_endproc
 1540              	.LFE413:
 1542              		.section	.text.usart_hardware_flow_coherence_config,"ax",@progbits
 1543              		.align	1
 1544              		.globl	usart_hardware_flow_coherence_config
 1546              	usart_hardware_flow_coherence_config:
 1547              	.LFB414:
 867:C:/Users/stapi/OneDrive/Desktop/GD32VW553/GD32VW55X_Wifi_BLE_SDK/GD32VW55x_RELEASE_V1.0.2/MSDK/plf/GD32VW55x_standard_peripheral/Source\gd32vw55x_usart.c **** 
 868:C:/Users/stapi/OneDrive/Desktop/GD32VW553/GD32VW55X_Wifi_BLE_SDK/GD32VW55x_RELEASE_V1.0.2/MSDK/plf/GD32VW55x_standard_peripheral/Source\gd32vw55x_usart.c ****  /*!
 869:C:/Users/stapi/OneDrive/Desktop/GD32VW553/GD32VW55X_Wifi_BLE_SDK/GD32VW55x_RELEASE_V1.0.2/MSDK/plf/GD32VW55x_standard_peripheral/Source\gd32vw55x_usart.c ****     \brief      configure hardware flow control coherence mode
 870:C:/Users/stapi/OneDrive/Desktop/GD32VW553/GD32VW55X_Wifi_BLE_SDK/GD32VW55x_RELEASE_V1.0.2/MSDK/plf/GD32VW55x_standard_peripheral/Source\gd32vw55x_usart.c ****     \param[in]  usart_periph:USART0/UARTx(x=1,2)
 871:C:/Users/stapi/OneDrive/Desktop/GD32VW553/GD32VW55X_Wifi_BLE_SDK/GD32VW55x_RELEASE_V1.0.2/MSDK/plf/GD32VW55x_standard_peripheral/Source\gd32vw55x_usart.c ****     \param[in]  hcm:
 872:C:/Users/stapi/OneDrive/Desktop/GD32VW553/GD32VW55X_Wifi_BLE_SDK/GD32VW55x_RELEASE_V1.0.2/MSDK/plf/GD32VW55x_standard_peripheral/Source\gd32vw55x_usart.c ****                 only one parameter can be selected which is shown as below:
 873:C:/Users/stapi/OneDrive/Desktop/GD32VW553/GD32VW55X_Wifi_BLE_SDK/GD32VW55x_RELEASE_V1.0.2/MSDK/plf/GD32VW55x_standard_peripheral/Source\gd32vw55x_usart.c ****       \arg        USART_HCM_NONE: nRTS signal equals to the rbne status register
 874:C:/Users/stapi/OneDrive/Desktop/GD32VW553/GD32VW55X_Wifi_BLE_SDK/GD32VW55x_RELEASE_V1.0.2/MSDK/plf/GD32VW55x_standard_peripheral/Source\gd32vw55x_usart.c ****       \arg        USART_HCM_EN: nRTS signal is set when the last data bit has been sampled
 875:C:/Users/stapi/OneDrive/Desktop/GD32VW553/GD32VW55X_Wifi_BLE_SDK/GD32VW55x_RELEASE_V1.0.2/MSDK/plf/GD32VW55x_standard_peripheral/Source\gd32vw55x_usart.c ****     \param[out] none
 876:C:/Users/stapi/OneDrive/Desktop/GD32VW553/GD32VW55X_Wifi_BLE_SDK/GD32VW55x_RELEASE_V1.0.2/MSDK/plf/GD32VW55x_standard_peripheral/Source\gd32vw55x_usart.c ****     \retval     none
 877:C:/Users/stapi/OneDrive/Desktop/GD32VW553/GD32VW55X_Wifi_BLE_SDK/GD32VW55x_RELEASE_V1.0.2/MSDK/plf/GD32VW55x_standard_peripheral/Source\gd32vw55x_usart.c **** */
 878:C:/Users/stapi/OneDrive/Desktop/GD32VW553/GD32VW55X_Wifi_BLE_SDK/GD32VW55x_RELEASE_V1.0.2/MSDK/plf/GD32VW55x_standard_peripheral/Source\gd32vw55x_usart.c **** void usart_hardware_flow_coherence_config(uint32_t usart_periph, uint32_t hcm)
 879:C:/Users/stapi/OneDrive/Desktop/GD32VW553/GD32VW55X_Wifi_BLE_SDK/GD32VW55x_RELEASE_V1.0.2/MSDK/plf/GD32VW55x_standard_peripheral/Source\gd32vw55x_usart.c **** {
 1548              		.loc 1 879 1 is_stmt 1
 1549              		.cfi_startproc
 1550              	.LVL92:
 880:C:/Users/stapi/OneDrive/Desktop/GD32VW553/GD32VW55X_Wifi_BLE_SDK/GD32VW55x_RELEASE_V1.0.2/MSDK/plf/GD32VW55x_standard_peripheral/Source\gd32vw55x_usart.c ****     USART_CHC(usart_periph) &= ~(USART_CHC_HCM);
 1551              		.loc 1 880 5
 1552              		.loc 1 880 29 is_stmt 0
 1553 0000 0327050C 		lw	a4,192(a0)
 1554 0004 799B     		andi	a4,a4,-2
 1555 0006 2320E50C 		sw	a4,192(a0)
 881:C:/Users/stapi/OneDrive/Desktop/GD32VW553/GD32VW55X_Wifi_BLE_SDK/GD32VW55x_RELEASE_V1.0.2/MSDK/plf/GD32VW55x_standard_peripheral/Source\gd32vw55x_usart.c ****     USART_CHC(usart_periph) |= hcm;
 1556              		.loc 1 881 5 is_stmt 1
 1557              		.loc 1 881 29 is_stmt 0
 1558 000a 8327050C 		lw	a5,192(a0)
 1559 000e CD8F     		or	a5,a5,a1
 1560 0010 2320F50C 		sw	a5,192(a0)
 882:C:/Users/stapi/OneDrive/Desktop/GD32VW553/GD32VW55X_Wifi_BLE_SDK/GD32VW55x_RELEASE_V1.0.2/MSDK/plf/GD32VW55x_standard_peripheral/Source\gd32vw55x_usart.c **** }
 1561              		.loc 1 882 1
 1562 0014 8280     		ret
 1563              		.cfi_endproc
 1564              	.LFE414:
 1566              		.section	.text.usart_rs485_driver_enable,"ax",@progbits
 1567              		.align	1
 1568              		.globl	usart_rs485_driver_enable
 1570              	usart_rs485_driver_enable:
 1571              	.LFB415:
 883:C:/Users/stapi/OneDrive/Desktop/GD32VW553/GD32VW55X_Wifi_BLE_SDK/GD32VW55x_RELEASE_V1.0.2/MSDK/plf/GD32VW55x_standard_peripheral/Source\gd32vw55x_usart.c **** 
 884:C:/Users/stapi/OneDrive/Desktop/GD32VW553/GD32VW55X_Wifi_BLE_SDK/GD32VW55x_RELEASE_V1.0.2/MSDK/plf/GD32VW55x_standard_peripheral/Source\gd32vw55x_usart.c **** /*!
 885:C:/Users/stapi/OneDrive/Desktop/GD32VW553/GD32VW55X_Wifi_BLE_SDK/GD32VW55x_RELEASE_V1.0.2/MSDK/plf/GD32VW55x_standard_peripheral/Source\gd32vw55x_usart.c ****     \brief      enable RS485 driver
 886:C:/Users/stapi/OneDrive/Desktop/GD32VW553/GD32VW55X_Wifi_BLE_SDK/GD32VW55x_RELEASE_V1.0.2/MSDK/plf/GD32VW55x_standard_peripheral/Source\gd32vw55x_usart.c ****     \param[in]  usart_periph: USART0/UARTx(x=1,2)
 887:C:/Users/stapi/OneDrive/Desktop/GD32VW553/GD32VW55X_Wifi_BLE_SDK/GD32VW55x_RELEASE_V1.0.2/MSDK/plf/GD32VW55x_standard_peripheral/Source\gd32vw55x_usart.c ****     \param[out] none
 888:C:/Users/stapi/OneDrive/Desktop/GD32VW553/GD32VW55X_Wifi_BLE_SDK/GD32VW55x_RELEASE_V1.0.2/MSDK/plf/GD32VW55x_standard_peripheral/Source\gd32vw55x_usart.c ****     \retval     none
 889:C:/Users/stapi/OneDrive/Desktop/GD32VW553/GD32VW55X_Wifi_BLE_SDK/GD32VW55x_RELEASE_V1.0.2/MSDK/plf/GD32VW55x_standard_peripheral/Source\gd32vw55x_usart.c **** */
 890:C:/Users/stapi/OneDrive/Desktop/GD32VW553/GD32VW55X_Wifi_BLE_SDK/GD32VW55x_RELEASE_V1.0.2/MSDK/plf/GD32VW55x_standard_peripheral/Source\gd32vw55x_usart.c **** void usart_rs485_driver_enable(uint32_t usart_periph)
 891:C:/Users/stapi/OneDrive/Desktop/GD32VW553/GD32VW55X_Wifi_BLE_SDK/GD32VW55x_RELEASE_V1.0.2/MSDK/plf/GD32VW55x_standard_peripheral/Source\gd32vw55x_usart.c **** {
 1572              		.loc 1 891 1 is_stmt 1
 1573              		.cfi_startproc
 1574              	.LVL93:
 892:C:/Users/stapi/OneDrive/Desktop/GD32VW553/GD32VW55X_Wifi_BLE_SDK/GD32VW55x_RELEASE_V1.0.2/MSDK/plf/GD32VW55x_standard_peripheral/Source\gd32vw55x_usart.c ****     /* disable USART */
 893:C:/Users/stapi/OneDrive/Desktop/GD32VW553/GD32VW55X_Wifi_BLE_SDK/GD32VW55x_RELEASE_V1.0.2/MSDK/plf/GD32VW55x_standard_peripheral/Source\gd32vw55x_usart.c ****     USART_CTL0(usart_periph) &= ~(USART_CTL0_UEN);
 1575              		.loc 1 893 5
 1576              		.loc 1 893 30 is_stmt 0
 1577 0000 1C41     		lw	a5,0(a0)
 1578 0002 F99B     		andi	a5,a5,-2
 1579 0004 1CC1     		sw	a5,0(a0)
 894:C:/Users/stapi/OneDrive/Desktop/GD32VW553/GD32VW55X_Wifi_BLE_SDK/GD32VW55x_RELEASE_V1.0.2/MSDK/plf/GD32VW55x_standard_peripheral/Source\gd32vw55x_usart.c **** 
 895:C:/Users/stapi/OneDrive/Desktop/GD32VW553/GD32VW55X_Wifi_BLE_SDK/GD32VW55x_RELEASE_V1.0.2/MSDK/plf/GD32VW55x_standard_peripheral/Source\gd32vw55x_usart.c ****     USART_CTL2(usart_periph) |= USART_CTL2_DEM;
 1580              		.loc 1 895 5 is_stmt 1
 1581              		.loc 1 895 30 is_stmt 0
 1582 0006 1C45     		lw	a5,8(a0)
 1583 0008 9397E728 		bseti	a5,a5,14
 1584 000c 1CC5     		sw	a5,8(a0)
 896:C:/Users/stapi/OneDrive/Desktop/GD32VW553/GD32VW55X_Wifi_BLE_SDK/GD32VW55x_RELEASE_V1.0.2/MSDK/plf/GD32VW55x_standard_peripheral/Source\gd32vw55x_usart.c **** }
 1585              		.loc 1 896 1
 1586 000e 8280     		ret
 1587              		.cfi_endproc
 1588              	.LFE415:
 1590              		.section	.text.usart_rs485_driver_disable,"ax",@progbits
 1591              		.align	1
 1592              		.globl	usart_rs485_driver_disable
 1594              	usart_rs485_driver_disable:
 1595              	.LFB416:
 897:C:/Users/stapi/OneDrive/Desktop/GD32VW553/GD32VW55X_Wifi_BLE_SDK/GD32VW55x_RELEASE_V1.0.2/MSDK/plf/GD32VW55x_standard_peripheral/Source\gd32vw55x_usart.c **** 
 898:C:/Users/stapi/OneDrive/Desktop/GD32VW553/GD32VW55X_Wifi_BLE_SDK/GD32VW55x_RELEASE_V1.0.2/MSDK/plf/GD32VW55x_standard_peripheral/Source\gd32vw55x_usart.c **** /*!
 899:C:/Users/stapi/OneDrive/Desktop/GD32VW553/GD32VW55X_Wifi_BLE_SDK/GD32VW55x_RELEASE_V1.0.2/MSDK/plf/GD32VW55x_standard_peripheral/Source\gd32vw55x_usart.c ****     \brief      disable RS485 driver
 900:C:/Users/stapi/OneDrive/Desktop/GD32VW553/GD32VW55X_Wifi_BLE_SDK/GD32VW55x_RELEASE_V1.0.2/MSDK/plf/GD32VW55x_standard_peripheral/Source\gd32vw55x_usart.c ****     \param[in]  usart_periph: USART0/UARTx(x=1,2)
 901:C:/Users/stapi/OneDrive/Desktop/GD32VW553/GD32VW55X_Wifi_BLE_SDK/GD32VW55x_RELEASE_V1.0.2/MSDK/plf/GD32VW55x_standard_peripheral/Source\gd32vw55x_usart.c ****     \param[out] none
 902:C:/Users/stapi/OneDrive/Desktop/GD32VW553/GD32VW55X_Wifi_BLE_SDK/GD32VW55x_RELEASE_V1.0.2/MSDK/plf/GD32VW55x_standard_peripheral/Source\gd32vw55x_usart.c ****     \retval     none
 903:C:/Users/stapi/OneDrive/Desktop/GD32VW553/GD32VW55X_Wifi_BLE_SDK/GD32VW55x_RELEASE_V1.0.2/MSDK/plf/GD32VW55x_standard_peripheral/Source\gd32vw55x_usart.c **** */
 904:C:/Users/stapi/OneDrive/Desktop/GD32VW553/GD32VW55X_Wifi_BLE_SDK/GD32VW55x_RELEASE_V1.0.2/MSDK/plf/GD32VW55x_standard_peripheral/Source\gd32vw55x_usart.c **** void usart_rs485_driver_disable(uint32_t usart_periph)
 905:C:/Users/stapi/OneDrive/Desktop/GD32VW553/GD32VW55X_Wifi_BLE_SDK/GD32VW55x_RELEASE_V1.0.2/MSDK/plf/GD32VW55x_standard_peripheral/Source\gd32vw55x_usart.c **** {
 1596              		.loc 1 905 1 is_stmt 1
 1597              		.cfi_startproc
 1598              	.LVL94:
 906:C:/Users/stapi/OneDrive/Desktop/GD32VW553/GD32VW55X_Wifi_BLE_SDK/GD32VW55x_RELEASE_V1.0.2/MSDK/plf/GD32VW55x_standard_peripheral/Source\gd32vw55x_usart.c ****     /* disable USART */
 907:C:/Users/stapi/OneDrive/Desktop/GD32VW553/GD32VW55X_Wifi_BLE_SDK/GD32VW55x_RELEASE_V1.0.2/MSDK/plf/GD32VW55x_standard_peripheral/Source\gd32vw55x_usart.c ****     USART_CTL0(usart_periph) &= ~(USART_CTL0_UEN);
 1599              		.loc 1 907 5
 1600              		.loc 1 907 30 is_stmt 0
 1601 0000 1C41     		lw	a5,0(a0)
 1602 0002 F99B     		andi	a5,a5,-2
 1603 0004 1CC1     		sw	a5,0(a0)
 908:C:/Users/stapi/OneDrive/Desktop/GD32VW553/GD32VW55X_Wifi_BLE_SDK/GD32VW55x_RELEASE_V1.0.2/MSDK/plf/GD32VW55x_standard_peripheral/Source\gd32vw55x_usart.c **** 
 909:C:/Users/stapi/OneDrive/Desktop/GD32VW553/GD32VW55X_Wifi_BLE_SDK/GD32VW55x_RELEASE_V1.0.2/MSDK/plf/GD32VW55x_standard_peripheral/Source\gd32vw55x_usart.c ****     USART_CTL2(usart_periph) &= ~(USART_CTL2_DEM);
 1604              		.loc 1 909 5 is_stmt 1
 1605              		.loc 1 909 30 is_stmt 0
 1606 0006 1C45     		lw	a5,8(a0)
 1607 0008 9397E748 		bclri	a5,a5,14
 1608 000c 1CC5     		sw	a5,8(a0)
 910:C:/Users/stapi/OneDrive/Desktop/GD32VW553/GD32VW55X_Wifi_BLE_SDK/GD32VW55x_RELEASE_V1.0.2/MSDK/plf/GD32VW55x_standard_peripheral/Source\gd32vw55x_usart.c **** }
 1609              		.loc 1 910 1
 1610 000e 8280     		ret
 1611              		.cfi_endproc
 1612              	.LFE416:
 1614              		.section	.text.usart_driver_assertime_config,"ax",@progbits
 1615              		.align	1
 1616              		.globl	usart_driver_assertime_config
 1618              	usart_driver_assertime_config:
 1619              	.LFB417:
 911:C:/Users/stapi/OneDrive/Desktop/GD32VW553/GD32VW55X_Wifi_BLE_SDK/GD32VW55x_RELEASE_V1.0.2/MSDK/plf/GD32VW55x_standard_peripheral/Source\gd32vw55x_usart.c **** 
 912:C:/Users/stapi/OneDrive/Desktop/GD32VW553/GD32VW55X_Wifi_BLE_SDK/GD32VW55x_RELEASE_V1.0.2/MSDK/plf/GD32VW55x_standard_peripheral/Source\gd32vw55x_usart.c **** /*!
 913:C:/Users/stapi/OneDrive/Desktop/GD32VW553/GD32VW55X_Wifi_BLE_SDK/GD32VW55x_RELEASE_V1.0.2/MSDK/plf/GD32VW55x_standard_peripheral/Source\gd32vw55x_usart.c ****     \brief      configure driver enable assertion time
 914:C:/Users/stapi/OneDrive/Desktop/GD32VW553/GD32VW55X_Wifi_BLE_SDK/GD32VW55x_RELEASE_V1.0.2/MSDK/plf/GD32VW55x_standard_peripheral/Source\gd32vw55x_usart.c ****     \param[in]  usart_periph: USART0/UARTx(x=1,2)
 915:C:/Users/stapi/OneDrive/Desktop/GD32VW553/GD32VW55X_Wifi_BLE_SDK/GD32VW55x_RELEASE_V1.0.2/MSDK/plf/GD32VW55x_standard_peripheral/Source\gd32vw55x_usart.c ****     \param[in]  deatime: 0x00-0x1F
 916:C:/Users/stapi/OneDrive/Desktop/GD32VW553/GD32VW55X_Wifi_BLE_SDK/GD32VW55x_RELEASE_V1.0.2/MSDK/plf/GD32VW55x_standard_peripheral/Source\gd32vw55x_usart.c ****     \param[out] none
 917:C:/Users/stapi/OneDrive/Desktop/GD32VW553/GD32VW55X_Wifi_BLE_SDK/GD32VW55x_RELEASE_V1.0.2/MSDK/plf/GD32VW55x_standard_peripheral/Source\gd32vw55x_usart.c ****     \retval     none
 918:C:/Users/stapi/OneDrive/Desktop/GD32VW553/GD32VW55X_Wifi_BLE_SDK/GD32VW55x_RELEASE_V1.0.2/MSDK/plf/GD32VW55x_standard_peripheral/Source\gd32vw55x_usart.c **** */
 919:C:/Users/stapi/OneDrive/Desktop/GD32VW553/GD32VW55X_Wifi_BLE_SDK/GD32VW55x_RELEASE_V1.0.2/MSDK/plf/GD32VW55x_standard_peripheral/Source\gd32vw55x_usart.c **** void usart_driver_assertime_config(uint32_t usart_periph, uint32_t deatime)
 920:C:/Users/stapi/OneDrive/Desktop/GD32VW553/GD32VW55X_Wifi_BLE_SDK/GD32VW55x_RELEASE_V1.0.2/MSDK/plf/GD32VW55x_standard_peripheral/Source\gd32vw55x_usart.c **** {
 1620              		.loc 1 920 1 is_stmt 1
 1621              		.cfi_startproc
 1622              	.LVL95:
 921:C:/Users/stapi/OneDrive/Desktop/GD32VW553/GD32VW55X_Wifi_BLE_SDK/GD32VW55x_RELEASE_V1.0.2/MSDK/plf/GD32VW55x_standard_peripheral/Source\gd32vw55x_usart.c ****     /* disable USART */
 922:C:/Users/stapi/OneDrive/Desktop/GD32VW553/GD32VW55X_Wifi_BLE_SDK/GD32VW55x_RELEASE_V1.0.2/MSDK/plf/GD32VW55x_standard_peripheral/Source\gd32vw55x_usart.c ****     USART_CTL0(usart_periph) &= ~(USART_CTL0_UEN);
 1623              		.loc 1 922 5
 1624              		.loc 1 922 30 is_stmt 0
 1625 0000 1C41     		lw	a5,0(a0)
 923:C:/Users/stapi/OneDrive/Desktop/GD32VW553/GD32VW55X_Wifi_BLE_SDK/GD32VW55x_RELEASE_V1.0.2/MSDK/plf/GD32VW55x_standard_peripheral/Source\gd32vw55x_usart.c **** 
 924:C:/Users/stapi/OneDrive/Desktop/GD32VW553/GD32VW55X_Wifi_BLE_SDK/GD32VW55x_RELEASE_V1.0.2/MSDK/plf/GD32VW55x_standard_peripheral/Source\gd32vw55x_usart.c ****     USART_CTL0(usart_periph) &= ~(USART_CTL0_DEA);
 1626              		.loc 1 924 30
 1627 0002 370720FC 		li	a4,-65011712
 1628 0006 7D17     		addi	a4,a4,-1
 922:C:/Users/stapi/OneDrive/Desktop/GD32VW553/GD32VW55X_Wifi_BLE_SDK/GD32VW55x_RELEASE_V1.0.2/MSDK/plf/GD32VW55x_standard_peripheral/Source\gd32vw55x_usart.c **** 
 1629              		.loc 1 922 30
 1630 0008 F99B     		andi	a5,a5,-2
 1631 000a 1CC1     		sw	a5,0(a0)
 1632              		.loc 1 924 5 is_stmt 1
 1633              		.loc 1 924 30 is_stmt 0
 1634 000c 1C41     		lw	a5,0(a0)
 925:C:/Users/stapi/OneDrive/Desktop/GD32VW553/GD32VW55X_Wifi_BLE_SDK/GD32VW55x_RELEASE_V1.0.2/MSDK/plf/GD32VW55x_standard_peripheral/Source\gd32vw55x_usart.c ****     USART_CTL0(usart_periph) |= (USART_CTL0_DEA & ((deatime) << CTL0_DEA_OFFSET));
 1635              		.loc 1 925 62
 1636 000e D605     		slli	a1,a1,21
 1637              	.LVL96:
 924:C:/Users/stapi/OneDrive/Desktop/GD32VW553/GD32VW55X_Wifi_BLE_SDK/GD32VW55x_RELEASE_V1.0.2/MSDK/plf/GD32VW55x_standard_peripheral/Source\gd32vw55x_usart.c ****     USART_CTL0(usart_periph) |= (USART_CTL0_DEA & ((deatime) << CTL0_DEA_OFFSET));
 1638              		.loc 1 924 30
 1639 0010 F98F     		and	a5,a5,a4
 1640 0012 1CC1     		sw	a5,0(a0)
 1641              		.loc 1 925 5 is_stmt 1
 1642              		.loc 1 925 30 is_stmt 0
 1643 0014 1C41     		lw	a5,0(a0)
 1644              		.loc 1 925 49
 1645 0016 3707E003 		li	a4,65011712
 1646 001a F98D     		and	a1,a1,a4
 1647              		.loc 1 925 30
 1648 001c DD8D     		or	a1,a1,a5
 1649 001e 0CC1     		sw	a1,0(a0)
 926:C:/Users/stapi/OneDrive/Desktop/GD32VW553/GD32VW55X_Wifi_BLE_SDK/GD32VW55x_RELEASE_V1.0.2/MSDK/plf/GD32VW55x_standard_peripheral/Source\gd32vw55x_usart.c **** }
 1650              		.loc 1 926 1
 1651 0020 8280     		ret
 1652              		.cfi_endproc
 1653              	.LFE417:
 1655              		.section	.text.usart_driver_deassertime_config,"ax",@progbits
 1656              		.align	1
 1657              		.globl	usart_driver_deassertime_config
 1659              	usart_driver_deassertime_config:
 1660              	.LFB418:
 927:C:/Users/stapi/OneDrive/Desktop/GD32VW553/GD32VW55X_Wifi_BLE_SDK/GD32VW55x_RELEASE_V1.0.2/MSDK/plf/GD32VW55x_standard_peripheral/Source\gd32vw55x_usart.c **** 
 928:C:/Users/stapi/OneDrive/Desktop/GD32VW553/GD32VW55X_Wifi_BLE_SDK/GD32VW55x_RELEASE_V1.0.2/MSDK/plf/GD32VW55x_standard_peripheral/Source\gd32vw55x_usart.c **** /*!
 929:C:/Users/stapi/OneDrive/Desktop/GD32VW553/GD32VW55X_Wifi_BLE_SDK/GD32VW55x_RELEASE_V1.0.2/MSDK/plf/GD32VW55x_standard_peripheral/Source\gd32vw55x_usart.c ****     \brief      configure driver enable de-assertion time
 930:C:/Users/stapi/OneDrive/Desktop/GD32VW553/GD32VW55X_Wifi_BLE_SDK/GD32VW55x_RELEASE_V1.0.2/MSDK/plf/GD32VW55x_standard_peripheral/Source\gd32vw55x_usart.c ****     \param[in]  usart_periph: USART0/UARTx(x=1,2)
 931:C:/Users/stapi/OneDrive/Desktop/GD32VW553/GD32VW55X_Wifi_BLE_SDK/GD32VW55x_RELEASE_V1.0.2/MSDK/plf/GD32VW55x_standard_peripheral/Source\gd32vw55x_usart.c ****     \param[in]  dedtime: 0x00-0x1F
 932:C:/Users/stapi/OneDrive/Desktop/GD32VW553/GD32VW55X_Wifi_BLE_SDK/GD32VW55x_RELEASE_V1.0.2/MSDK/plf/GD32VW55x_standard_peripheral/Source\gd32vw55x_usart.c ****     \param[out] none
 933:C:/Users/stapi/OneDrive/Desktop/GD32VW553/GD32VW55X_Wifi_BLE_SDK/GD32VW55x_RELEASE_V1.0.2/MSDK/plf/GD32VW55x_standard_peripheral/Source\gd32vw55x_usart.c ****     \retval     none
 934:C:/Users/stapi/OneDrive/Desktop/GD32VW553/GD32VW55X_Wifi_BLE_SDK/GD32VW55x_RELEASE_V1.0.2/MSDK/plf/GD32VW55x_standard_peripheral/Source\gd32vw55x_usart.c **** */
 935:C:/Users/stapi/OneDrive/Desktop/GD32VW553/GD32VW55X_Wifi_BLE_SDK/GD32VW55x_RELEASE_V1.0.2/MSDK/plf/GD32VW55x_standard_peripheral/Source\gd32vw55x_usart.c **** void usart_driver_deassertime_config(uint32_t usart_periph, uint32_t dedtime)
 936:C:/Users/stapi/OneDrive/Desktop/GD32VW553/GD32VW55X_Wifi_BLE_SDK/GD32VW55x_RELEASE_V1.0.2/MSDK/plf/GD32VW55x_standard_peripheral/Source\gd32vw55x_usart.c **** {
 1661              		.loc 1 936 1 is_stmt 1
 1662              		.cfi_startproc
 1663              	.LVL97:
 937:C:/Users/stapi/OneDrive/Desktop/GD32VW553/GD32VW55X_Wifi_BLE_SDK/GD32VW55x_RELEASE_V1.0.2/MSDK/plf/GD32VW55x_standard_peripheral/Source\gd32vw55x_usart.c ****     /* disable USART */
 938:C:/Users/stapi/OneDrive/Desktop/GD32VW553/GD32VW55X_Wifi_BLE_SDK/GD32VW55x_RELEASE_V1.0.2/MSDK/plf/GD32VW55x_standard_peripheral/Source\gd32vw55x_usart.c ****     USART_CTL0(usart_periph) &= ~(USART_CTL0_UEN);
 1664              		.loc 1 938 5
 1665              		.loc 1 938 30 is_stmt 0
 1666 0000 1C41     		lw	a5,0(a0)
 939:C:/Users/stapi/OneDrive/Desktop/GD32VW553/GD32VW55X_Wifi_BLE_SDK/GD32VW55x_RELEASE_V1.0.2/MSDK/plf/GD32VW55x_standard_peripheral/Source\gd32vw55x_usart.c **** 
 940:C:/Users/stapi/OneDrive/Desktop/GD32VW553/GD32VW55X_Wifi_BLE_SDK/GD32VW55x_RELEASE_V1.0.2/MSDK/plf/GD32VW55x_standard_peripheral/Source\gd32vw55x_usart.c ****     USART_CTL0(usart_periph) &= ~(USART_CTL0_DED);
 1667              		.loc 1 940 30
 1668 0002 3707E1FF 		li	a4,-2031616
 1669 0006 7D17     		addi	a4,a4,-1
 938:C:/Users/stapi/OneDrive/Desktop/GD32VW553/GD32VW55X_Wifi_BLE_SDK/GD32VW55x_RELEASE_V1.0.2/MSDK/plf/GD32VW55x_standard_peripheral/Source\gd32vw55x_usart.c **** 
 1670              		.loc 1 938 30
 1671 0008 F99B     		andi	a5,a5,-2
 1672 000a 1CC1     		sw	a5,0(a0)
 1673              		.loc 1 940 5 is_stmt 1
 1674              		.loc 1 940 30 is_stmt 0
 1675 000c 1C41     		lw	a5,0(a0)
 941:C:/Users/stapi/OneDrive/Desktop/GD32VW553/GD32VW55X_Wifi_BLE_SDK/GD32VW55x_RELEASE_V1.0.2/MSDK/plf/GD32VW55x_standard_peripheral/Source\gd32vw55x_usart.c ****     USART_CTL0(usart_periph) |= (USART_CTL0_DED & ((dedtime) << CTL0_DED_OFFSET));
 1676              		.loc 1 941 62
 1677 000e C205     		slli	a1,a1,16
 1678              	.LVL98:
 940:C:/Users/stapi/OneDrive/Desktop/GD32VW553/GD32VW55X_Wifi_BLE_SDK/GD32VW55x_RELEASE_V1.0.2/MSDK/plf/GD32VW55x_standard_peripheral/Source\gd32vw55x_usart.c ****     USART_CTL0(usart_periph) |= (USART_CTL0_DED & ((dedtime) << CTL0_DED_OFFSET));
 1679              		.loc 1 940 30
 1680 0010 F98F     		and	a5,a5,a4
 1681 0012 1CC1     		sw	a5,0(a0)
 1682              		.loc 1 941 5 is_stmt 1
 1683              		.loc 1 941 30 is_stmt 0
 1684 0014 1C41     		lw	a5,0(a0)
 1685              		.loc 1 941 49
 1686 0016 37071F00 		li	a4,2031616
 1687 001a F98D     		and	a1,a1,a4
 1688              		.loc 1 941 30
 1689 001c DD8D     		or	a1,a1,a5
 1690 001e 0CC1     		sw	a1,0(a0)
 942:C:/Users/stapi/OneDrive/Desktop/GD32VW553/GD32VW55X_Wifi_BLE_SDK/GD32VW55x_RELEASE_V1.0.2/MSDK/plf/GD32VW55x_standard_peripheral/Source\gd32vw55x_usart.c **** }
 1691              		.loc 1 942 1
 1692 0020 8280     		ret
 1693              		.cfi_endproc
 1694              	.LFE418:
 1696              		.section	.text.usart_depolarity_config,"ax",@progbits
 1697              		.align	1
 1698              		.globl	usart_depolarity_config
 1700              	usart_depolarity_config:
 1701              	.LFB419:
 943:C:/Users/stapi/OneDrive/Desktop/GD32VW553/GD32VW55X_Wifi_BLE_SDK/GD32VW55x_RELEASE_V1.0.2/MSDK/plf/GD32VW55x_standard_peripheral/Source\gd32vw55x_usart.c **** 
 944:C:/Users/stapi/OneDrive/Desktop/GD32VW553/GD32VW55X_Wifi_BLE_SDK/GD32VW55x_RELEASE_V1.0.2/MSDK/plf/GD32VW55x_standard_peripheral/Source\gd32vw55x_usart.c **** /*!
 945:C:/Users/stapi/OneDrive/Desktop/GD32VW553/GD32VW55X_Wifi_BLE_SDK/GD32VW55x_RELEASE_V1.0.2/MSDK/plf/GD32VW55x_standard_peripheral/Source\gd32vw55x_usart.c ****     \brief      configure driver enable polarity mode
 946:C:/Users/stapi/OneDrive/Desktop/GD32VW553/GD32VW55X_Wifi_BLE_SDK/GD32VW55x_RELEASE_V1.0.2/MSDK/plf/GD32VW55x_standard_peripheral/Source\gd32vw55x_usart.c ****     \param[in]  usart_periph: USART0/UARTx(x=1,2)
 947:C:/Users/stapi/OneDrive/Desktop/GD32VW553/GD32VW55X_Wifi_BLE_SDK/GD32VW55x_RELEASE_V1.0.2/MSDK/plf/GD32VW55x_standard_peripheral/Source\gd32vw55x_usart.c ****     \param[in]  dep: DE signal
 948:C:/Users/stapi/OneDrive/Desktop/GD32VW553/GD32VW55X_Wifi_BLE_SDK/GD32VW55x_RELEASE_V1.0.2/MSDK/plf/GD32VW55x_standard_peripheral/Source\gd32vw55x_usart.c ****                 only one parameter can be selected which is shown as below:
 949:C:/Users/stapi/OneDrive/Desktop/GD32VW553/GD32VW55X_Wifi_BLE_SDK/GD32VW55x_RELEASE_V1.0.2/MSDK/plf/GD32VW55x_standard_peripheral/Source\gd32vw55x_usart.c ****       \arg        USART_DEP_HIGH: DE signal is active high
 950:C:/Users/stapi/OneDrive/Desktop/GD32VW553/GD32VW55X_Wifi_BLE_SDK/GD32VW55x_RELEASE_V1.0.2/MSDK/plf/GD32VW55x_standard_peripheral/Source\gd32vw55x_usart.c ****       \arg        USART_DEP_LOW: DE signal is active low
 951:C:/Users/stapi/OneDrive/Desktop/GD32VW553/GD32VW55X_Wifi_BLE_SDK/GD32VW55x_RELEASE_V1.0.2/MSDK/plf/GD32VW55x_standard_peripheral/Source\gd32vw55x_usart.c ****     \param[out] none
 952:C:/Users/stapi/OneDrive/Desktop/GD32VW553/GD32VW55X_Wifi_BLE_SDK/GD32VW55x_RELEASE_V1.0.2/MSDK/plf/GD32VW55x_standard_peripheral/Source\gd32vw55x_usart.c ****     \retval     none
 953:C:/Users/stapi/OneDrive/Desktop/GD32VW553/GD32VW55X_Wifi_BLE_SDK/GD32VW55x_RELEASE_V1.0.2/MSDK/plf/GD32VW55x_standard_peripheral/Source\gd32vw55x_usart.c **** */
 954:C:/Users/stapi/OneDrive/Desktop/GD32VW553/GD32VW55X_Wifi_BLE_SDK/GD32VW55x_RELEASE_V1.0.2/MSDK/plf/GD32VW55x_standard_peripheral/Source\gd32vw55x_usart.c **** void usart_depolarity_config(uint32_t usart_periph, uint32_t dep)
 955:C:/Users/stapi/OneDrive/Desktop/GD32VW553/GD32VW55X_Wifi_BLE_SDK/GD32VW55x_RELEASE_V1.0.2/MSDK/plf/GD32VW55x_standard_peripheral/Source\gd32vw55x_usart.c **** {
 1702              		.loc 1 955 1 is_stmt 1
 1703              		.cfi_startproc
 1704              	.LVL99:
 956:C:/Users/stapi/OneDrive/Desktop/GD32VW553/GD32VW55X_Wifi_BLE_SDK/GD32VW55x_RELEASE_V1.0.2/MSDK/plf/GD32VW55x_standard_peripheral/Source\gd32vw55x_usart.c ****     /* disable USART */
 957:C:/Users/stapi/OneDrive/Desktop/GD32VW553/GD32VW55X_Wifi_BLE_SDK/GD32VW55x_RELEASE_V1.0.2/MSDK/plf/GD32VW55x_standard_peripheral/Source\gd32vw55x_usart.c ****     USART_CTL0(usart_periph) &= ~(USART_CTL0_UEN);
 1705              		.loc 1 957 5
 1706              		.loc 1 957 30 is_stmt 0
 1707 0000 1C41     		lw	a5,0(a0)
 958:C:/Users/stapi/OneDrive/Desktop/GD32VW553/GD32VW55X_Wifi_BLE_SDK/GD32VW55x_RELEASE_V1.0.2/MSDK/plf/GD32VW55x_standard_peripheral/Source\gd32vw55x_usart.c ****     /* reset DEP bit */
 959:C:/Users/stapi/OneDrive/Desktop/GD32VW553/GD32VW55X_Wifi_BLE_SDK/GD32VW55x_RELEASE_V1.0.2/MSDK/plf/GD32VW55x_standard_peripheral/Source\gd32vw55x_usart.c ****     USART_CTL2(usart_periph) &= ~(USART_CTL2_DEP);
 960:C:/Users/stapi/OneDrive/Desktop/GD32VW553/GD32VW55X_Wifi_BLE_SDK/GD32VW55x_RELEASE_V1.0.2/MSDK/plf/GD32VW55x_standard_peripheral/Source\gd32vw55x_usart.c ****     USART_CTL2(usart_periph) |= (USART_CTL2_DEP & dep);
 1708              		.loc 1 960 49
 1709 0002 2167     		li	a4,32768
 1710 0004 F98D     		and	a1,a1,a4
 1711              	.LVL100:
 957:C:/Users/stapi/OneDrive/Desktop/GD32VW553/GD32VW55X_Wifi_BLE_SDK/GD32VW55x_RELEASE_V1.0.2/MSDK/plf/GD32VW55x_standard_peripheral/Source\gd32vw55x_usart.c ****     /* reset DEP bit */
 1712              		.loc 1 957 30
 1713 0006 F99B     		andi	a5,a5,-2
 1714 0008 1CC1     		sw	a5,0(a0)
 959:C:/Users/stapi/OneDrive/Desktop/GD32VW553/GD32VW55X_Wifi_BLE_SDK/GD32VW55x_RELEASE_V1.0.2/MSDK/plf/GD32VW55x_standard_peripheral/Source\gd32vw55x_usart.c ****     USART_CTL2(usart_periph) |= (USART_CTL2_DEP & dep);
 1715              		.loc 1 959 5 is_stmt 1
 959:C:/Users/stapi/OneDrive/Desktop/GD32VW553/GD32VW55X_Wifi_BLE_SDK/GD32VW55x_RELEASE_V1.0.2/MSDK/plf/GD32VW55x_standard_peripheral/Source\gd32vw55x_usart.c ****     USART_CTL2(usart_periph) |= (USART_CTL2_DEP & dep);
 1716              		.loc 1 959 30 is_stmt 0
 1717 000a 1C45     		lw	a5,8(a0)
 1718 000c 9397F748 		bclri	a5,a5,15
 1719 0010 1CC5     		sw	a5,8(a0)
 1720              		.loc 1 960 5 is_stmt 1
 1721              		.loc 1 960 30 is_stmt 0
 1722 0012 1C45     		lw	a5,8(a0)
 1723 0014 DD8D     		or	a1,a1,a5
 1724 0016 0CC5     		sw	a1,8(a0)
 961:C:/Users/stapi/OneDrive/Desktop/GD32VW553/GD32VW55X_Wifi_BLE_SDK/GD32VW55x_RELEASE_V1.0.2/MSDK/plf/GD32VW55x_standard_peripheral/Source\gd32vw55x_usart.c **** }
 1725              		.loc 1 961 1
 1726 0018 8280     		ret
 1727              		.cfi_endproc
 1728              	.LFE419:
 1730              		.section	.text.usart_dma_receive_config,"ax",@progbits
 1731              		.align	1
 1732              		.globl	usart_dma_receive_config
 1734              	usart_dma_receive_config:
 1735              	.LFB420:
 962:C:/Users/stapi/OneDrive/Desktop/GD32VW553/GD32VW55X_Wifi_BLE_SDK/GD32VW55x_RELEASE_V1.0.2/MSDK/plf/GD32VW55x_standard_peripheral/Source\gd32vw55x_usart.c **** 
 963:C:/Users/stapi/OneDrive/Desktop/GD32VW553/GD32VW55X_Wifi_BLE_SDK/GD32VW55x_RELEASE_V1.0.2/MSDK/plf/GD32VW55x_standard_peripheral/Source\gd32vw55x_usart.c **** /*!
 964:C:/Users/stapi/OneDrive/Desktop/GD32VW553/GD32VW55X_Wifi_BLE_SDK/GD32VW55x_RELEASE_V1.0.2/MSDK/plf/GD32VW55x_standard_peripheral/Source\gd32vw55x_usart.c ****     \brief      configure USART DMA reception
 965:C:/Users/stapi/OneDrive/Desktop/GD32VW553/GD32VW55X_Wifi_BLE_SDK/GD32VW55x_RELEASE_V1.0.2/MSDK/plf/GD32VW55x_standard_peripheral/Source\gd32vw55x_usart.c ****     \param[in]  usart_periph: USART0/UARTx(x=1,2)
 966:C:/Users/stapi/OneDrive/Desktop/GD32VW553/GD32VW55X_Wifi_BLE_SDK/GD32VW55x_RELEASE_V1.0.2/MSDK/plf/GD32VW55x_standard_peripheral/Source\gd32vw55x_usart.c ****     \param[in]  dmacmd: enable or disable DMA for reception
 967:C:/Users/stapi/OneDrive/Desktop/GD32VW553/GD32VW55X_Wifi_BLE_SDK/GD32VW55x_RELEASE_V1.0.2/MSDK/plf/GD32VW55x_standard_peripheral/Source\gd32vw55x_usart.c ****                 only one parameter can be selected which is shown as below:
 968:C:/Users/stapi/OneDrive/Desktop/GD32VW553/GD32VW55X_Wifi_BLE_SDK/GD32VW55x_RELEASE_V1.0.2/MSDK/plf/GD32VW55x_standard_peripheral/Source\gd32vw55x_usart.c ****       \arg        USART_RECEIVE_DMA_ENABLE: enable USART DMA for reception
 969:C:/Users/stapi/OneDrive/Desktop/GD32VW553/GD32VW55X_Wifi_BLE_SDK/GD32VW55x_RELEASE_V1.0.2/MSDK/plf/GD32VW55x_standard_peripheral/Source\gd32vw55x_usart.c ****       \arg        USART_RECEIVE_DMA_DISABLE: disable USART DMA for reception
 970:C:/Users/stapi/OneDrive/Desktop/GD32VW553/GD32VW55X_Wifi_BLE_SDK/GD32VW55x_RELEASE_V1.0.2/MSDK/plf/GD32VW55x_standard_peripheral/Source\gd32vw55x_usart.c ****     \param[out] none
 971:C:/Users/stapi/OneDrive/Desktop/GD32VW553/GD32VW55X_Wifi_BLE_SDK/GD32VW55x_RELEASE_V1.0.2/MSDK/plf/GD32VW55x_standard_peripheral/Source\gd32vw55x_usart.c ****     \retval     none
 972:C:/Users/stapi/OneDrive/Desktop/GD32VW553/GD32VW55X_Wifi_BLE_SDK/GD32VW55x_RELEASE_V1.0.2/MSDK/plf/GD32VW55x_standard_peripheral/Source\gd32vw55x_usart.c **** */
 973:C:/Users/stapi/OneDrive/Desktop/GD32VW553/GD32VW55X_Wifi_BLE_SDK/GD32VW55x_RELEASE_V1.0.2/MSDK/plf/GD32VW55x_standard_peripheral/Source\gd32vw55x_usart.c **** void usart_dma_receive_config(uint32_t usart_periph, uint8_t dmacmd)
 974:C:/Users/stapi/OneDrive/Desktop/GD32VW553/GD32VW55X_Wifi_BLE_SDK/GD32VW55x_RELEASE_V1.0.2/MSDK/plf/GD32VW55x_standard_peripheral/Source\gd32vw55x_usart.c **** {
 1736              		.loc 1 974 1 is_stmt 1
 1737              		.cfi_startproc
 1738              	.LVL101:
 975:C:/Users/stapi/OneDrive/Desktop/GD32VW553/GD32VW55X_Wifi_BLE_SDK/GD32VW55x_RELEASE_V1.0.2/MSDK/plf/GD32VW55x_standard_peripheral/Source\gd32vw55x_usart.c ****     uint32_t ctl = 0U;
 1739              		.loc 1 975 5
 976:C:/Users/stapi/OneDrive/Desktop/GD32VW553/GD32VW55X_Wifi_BLE_SDK/GD32VW55x_RELEASE_V1.0.2/MSDK/plf/GD32VW55x_standard_peripheral/Source\gd32vw55x_usart.c **** 
 977:C:/Users/stapi/OneDrive/Desktop/GD32VW553/GD32VW55X_Wifi_BLE_SDK/GD32VW55x_RELEASE_V1.0.2/MSDK/plf/GD32VW55x_standard_peripheral/Source\gd32vw55x_usart.c ****     ctl = USART_CTL2(usart_periph);
 1740              		.loc 1 977 5
 1741              		.loc 1 977 9 is_stmt 0
 1742 0000 1C45     		lw	a5,8(a0)
 1743              	.LVL102:
 978:C:/Users/stapi/OneDrive/Desktop/GD32VW553/GD32VW55X_Wifi_BLE_SDK/GD32VW55x_RELEASE_V1.0.2/MSDK/plf/GD32VW55x_standard_peripheral/Source\gd32vw55x_usart.c ****     ctl &= ~(USART_CTL2_DENR);
 1744              		.loc 1 978 5 is_stmt 1
 1745              		.loc 1 978 9 is_stmt 0
 1746 0002 93F7F7FB 		andi	a5,a5,-65
 1747              	.LVL103:
 979:C:/Users/stapi/OneDrive/Desktop/GD32VW553/GD32VW55X_Wifi_BLE_SDK/GD32VW55x_RELEASE_V1.0.2/MSDK/plf/GD32VW55x_standard_peripheral/Source\gd32vw55x_usart.c ****     ctl |= dmacmd;
 1748              		.loc 1 979 5 is_stmt 1
 1749              		.loc 1 979 9 is_stmt 0
 1750 0006 DD8D     		or	a1,a1,a5
 1751              	.LVL104:
 980:C:/Users/stapi/OneDrive/Desktop/GD32VW553/GD32VW55X_Wifi_BLE_SDK/GD32VW55x_RELEASE_V1.0.2/MSDK/plf/GD32VW55x_standard_peripheral/Source\gd32vw55x_usart.c ****     /* configure DMA reception */
 981:C:/Users/stapi/OneDrive/Desktop/GD32VW553/GD32VW55X_Wifi_BLE_SDK/GD32VW55x_RELEASE_V1.0.2/MSDK/plf/GD32VW55x_standard_peripheral/Source\gd32vw55x_usart.c ****     USART_CTL2(usart_periph) = ctl;
 1752              		.loc 1 981 5 is_stmt 1
 1753              		.loc 1 981 30 is_stmt 0
 1754 0008 0CC5     		sw	a1,8(a0)
 982:C:/Users/stapi/OneDrive/Desktop/GD32VW553/GD32VW55X_Wifi_BLE_SDK/GD32VW55x_RELEASE_V1.0.2/MSDK/plf/GD32VW55x_standard_peripheral/Source\gd32vw55x_usart.c **** }
 1755              		.loc 1 982 1
 1756 000a 8280     		ret
 1757              		.cfi_endproc
 1758              	.LFE420:
 1760              		.section	.text.usart_dma_transmit_config,"ax",@progbits
 1761              		.align	1
 1762              		.globl	usart_dma_transmit_config
 1764              	usart_dma_transmit_config:
 1765              	.LFB421:
 983:C:/Users/stapi/OneDrive/Desktop/GD32VW553/GD32VW55X_Wifi_BLE_SDK/GD32VW55x_RELEASE_V1.0.2/MSDK/plf/GD32VW55x_standard_peripheral/Source\gd32vw55x_usart.c **** 
 984:C:/Users/stapi/OneDrive/Desktop/GD32VW553/GD32VW55X_Wifi_BLE_SDK/GD32VW55x_RELEASE_V1.0.2/MSDK/plf/GD32VW55x_standard_peripheral/Source\gd32vw55x_usart.c **** /*!
 985:C:/Users/stapi/OneDrive/Desktop/GD32VW553/GD32VW55X_Wifi_BLE_SDK/GD32VW55x_RELEASE_V1.0.2/MSDK/plf/GD32VW55x_standard_peripheral/Source\gd32vw55x_usart.c ****     \brief      configure USART DMA transmission
 986:C:/Users/stapi/OneDrive/Desktop/GD32VW553/GD32VW55X_Wifi_BLE_SDK/GD32VW55x_RELEASE_V1.0.2/MSDK/plf/GD32VW55x_standard_peripheral/Source\gd32vw55x_usart.c ****     \param[in]  usart_periph: USART0/UARTx(x=1,2)
 987:C:/Users/stapi/OneDrive/Desktop/GD32VW553/GD32VW55X_Wifi_BLE_SDK/GD32VW55x_RELEASE_V1.0.2/MSDK/plf/GD32VW55x_standard_peripheral/Source\gd32vw55x_usart.c ****     \param[in]  dmacmd: enable or disable DMA for transmission
 988:C:/Users/stapi/OneDrive/Desktop/GD32VW553/GD32VW55X_Wifi_BLE_SDK/GD32VW55x_RELEASE_V1.0.2/MSDK/plf/GD32VW55x_standard_peripheral/Source\gd32vw55x_usart.c ****                 only one parameter can be selected which is shown as below:
 989:C:/Users/stapi/OneDrive/Desktop/GD32VW553/GD32VW55X_Wifi_BLE_SDK/GD32VW55x_RELEASE_V1.0.2/MSDK/plf/GD32VW55x_standard_peripheral/Source\gd32vw55x_usart.c ****       \arg        USART_TRANSMIT_DMA_ENABLE: enable USART DMA for transmission
 990:C:/Users/stapi/OneDrive/Desktop/GD32VW553/GD32VW55X_Wifi_BLE_SDK/GD32VW55x_RELEASE_V1.0.2/MSDK/plf/GD32VW55x_standard_peripheral/Source\gd32vw55x_usart.c ****       \arg        USART_TRANSMIT_DMA_DISABLE: disable USART DMA for transmission
 991:C:/Users/stapi/OneDrive/Desktop/GD32VW553/GD32VW55X_Wifi_BLE_SDK/GD32VW55x_RELEASE_V1.0.2/MSDK/plf/GD32VW55x_standard_peripheral/Source\gd32vw55x_usart.c ****     \param[out] none
 992:C:/Users/stapi/OneDrive/Desktop/GD32VW553/GD32VW55X_Wifi_BLE_SDK/GD32VW55x_RELEASE_V1.0.2/MSDK/plf/GD32VW55x_standard_peripheral/Source\gd32vw55x_usart.c ****     \retval     none
 993:C:/Users/stapi/OneDrive/Desktop/GD32VW553/GD32VW55X_Wifi_BLE_SDK/GD32VW55x_RELEASE_V1.0.2/MSDK/plf/GD32VW55x_standard_peripheral/Source\gd32vw55x_usart.c **** */
 994:C:/Users/stapi/OneDrive/Desktop/GD32VW553/GD32VW55X_Wifi_BLE_SDK/GD32VW55x_RELEASE_V1.0.2/MSDK/plf/GD32VW55x_standard_peripheral/Source\gd32vw55x_usart.c **** void usart_dma_transmit_config(uint32_t usart_periph, uint8_t dmacmd)
 995:C:/Users/stapi/OneDrive/Desktop/GD32VW553/GD32VW55X_Wifi_BLE_SDK/GD32VW55x_RELEASE_V1.0.2/MSDK/plf/GD32VW55x_standard_peripheral/Source\gd32vw55x_usart.c **** {
 1766              		.loc 1 995 1 is_stmt 1
 1767              		.cfi_startproc
 1768              	.LVL105:
 996:C:/Users/stapi/OneDrive/Desktop/GD32VW553/GD32VW55X_Wifi_BLE_SDK/GD32VW55x_RELEASE_V1.0.2/MSDK/plf/GD32VW55x_standard_peripheral/Source\gd32vw55x_usart.c ****     uint32_t ctl = 0U;
 1769              		.loc 1 996 5
 997:C:/Users/stapi/OneDrive/Desktop/GD32VW553/GD32VW55X_Wifi_BLE_SDK/GD32VW55x_RELEASE_V1.0.2/MSDK/plf/GD32VW55x_standard_peripheral/Source\gd32vw55x_usart.c **** 
 998:C:/Users/stapi/OneDrive/Desktop/GD32VW553/GD32VW55X_Wifi_BLE_SDK/GD32VW55x_RELEASE_V1.0.2/MSDK/plf/GD32VW55x_standard_peripheral/Source\gd32vw55x_usart.c ****     ctl = USART_CTL2(usart_periph);
 1770              		.loc 1 998 5
 1771              		.loc 1 998 9 is_stmt 0
 1772 0000 1C45     		lw	a5,8(a0)
 1773              	.LVL106:
 999:C:/Users/stapi/OneDrive/Desktop/GD32VW553/GD32VW55X_Wifi_BLE_SDK/GD32VW55x_RELEASE_V1.0.2/MSDK/plf/GD32VW55x_standard_peripheral/Source\gd32vw55x_usart.c ****     ctl &= ~(USART_CTL2_DENT);
 1774              		.loc 1 999 5 is_stmt 1
 1775              		.loc 1 999 9 is_stmt 0
 1776 0002 93F7F7F7 		andi	a5,a5,-129
 1777              	.LVL107:
1000:C:/Users/stapi/OneDrive/Desktop/GD32VW553/GD32VW55X_Wifi_BLE_SDK/GD32VW55x_RELEASE_V1.0.2/MSDK/plf/GD32VW55x_standard_peripheral/Source\gd32vw55x_usart.c ****     ctl |= dmacmd;
 1778              		.loc 1 1000 5 is_stmt 1
 1779              		.loc 1 1000 9 is_stmt 0
 1780 0006 DD8D     		or	a1,a1,a5
 1781              	.LVL108:
1001:C:/Users/stapi/OneDrive/Desktop/GD32VW553/GD32VW55X_Wifi_BLE_SDK/GD32VW55x_RELEASE_V1.0.2/MSDK/plf/GD32VW55x_standard_peripheral/Source\gd32vw55x_usart.c ****     /* configure DMA transmission */
1002:C:/Users/stapi/OneDrive/Desktop/GD32VW553/GD32VW55X_Wifi_BLE_SDK/GD32VW55x_RELEASE_V1.0.2/MSDK/plf/GD32VW55x_standard_peripheral/Source\gd32vw55x_usart.c ****     USART_CTL2(usart_periph) = ctl;
 1782              		.loc 1 1002 5 is_stmt 1
 1783              		.loc 1 1002 30 is_stmt 0
 1784 0008 0CC5     		sw	a1,8(a0)
1003:C:/Users/stapi/OneDrive/Desktop/GD32VW553/GD32VW55X_Wifi_BLE_SDK/GD32VW55x_RELEASE_V1.0.2/MSDK/plf/GD32VW55x_standard_peripheral/Source\gd32vw55x_usart.c **** }
 1785              		.loc 1 1003 1
 1786 000a 8280     		ret
 1787              		.cfi_endproc
 1788              	.LFE421:
 1790              		.section	.text.usart_reception_error_dma_disable,"ax",@progbits
 1791              		.align	1
 1792              		.globl	usart_reception_error_dma_disable
 1794              	usart_reception_error_dma_disable:
 1795              	.LFB422:
1004:C:/Users/stapi/OneDrive/Desktop/GD32VW553/GD32VW55X_Wifi_BLE_SDK/GD32VW55x_RELEASE_V1.0.2/MSDK/plf/GD32VW55x_standard_peripheral/Source\gd32vw55x_usart.c **** 
1005:C:/Users/stapi/OneDrive/Desktop/GD32VW553/GD32VW55X_Wifi_BLE_SDK/GD32VW55x_RELEASE_V1.0.2/MSDK/plf/GD32VW55x_standard_peripheral/Source\gd32vw55x_usart.c **** /*!
1006:C:/Users/stapi/OneDrive/Desktop/GD32VW553/GD32VW55X_Wifi_BLE_SDK/GD32VW55x_RELEASE_V1.0.2/MSDK/plf/GD32VW55x_standard_peripheral/Source\gd32vw55x_usart.c ****     \brief      disable DMA on reception error
1007:C:/Users/stapi/OneDrive/Desktop/GD32VW553/GD32VW55X_Wifi_BLE_SDK/GD32VW55x_RELEASE_V1.0.2/MSDK/plf/GD32VW55x_standard_peripheral/Source\gd32vw55x_usart.c ****     \param[in]  usart_periph: USART0/UARTx(x=1,2)
1008:C:/Users/stapi/OneDrive/Desktop/GD32VW553/GD32VW55X_Wifi_BLE_SDK/GD32VW55x_RELEASE_V1.0.2/MSDK/plf/GD32VW55x_standard_peripheral/Source\gd32vw55x_usart.c ****     \param[out] none
1009:C:/Users/stapi/OneDrive/Desktop/GD32VW553/GD32VW55X_Wifi_BLE_SDK/GD32VW55x_RELEASE_V1.0.2/MSDK/plf/GD32VW55x_standard_peripheral/Source\gd32vw55x_usart.c ****     \retval     none
1010:C:/Users/stapi/OneDrive/Desktop/GD32VW553/GD32VW55X_Wifi_BLE_SDK/GD32VW55x_RELEASE_V1.0.2/MSDK/plf/GD32VW55x_standard_peripheral/Source\gd32vw55x_usart.c **** */
1011:C:/Users/stapi/OneDrive/Desktop/GD32VW553/GD32VW55X_Wifi_BLE_SDK/GD32VW55x_RELEASE_V1.0.2/MSDK/plf/GD32VW55x_standard_peripheral/Source\gd32vw55x_usart.c **** void usart_reception_error_dma_disable(uint32_t usart_periph)
1012:C:/Users/stapi/OneDrive/Desktop/GD32VW553/GD32VW55X_Wifi_BLE_SDK/GD32VW55x_RELEASE_V1.0.2/MSDK/plf/GD32VW55x_standard_peripheral/Source\gd32vw55x_usart.c **** {
 1796              		.loc 1 1012 1 is_stmt 1
 1797              		.cfi_startproc
 1798              	.LVL109:
1013:C:/Users/stapi/OneDrive/Desktop/GD32VW553/GD32VW55X_Wifi_BLE_SDK/GD32VW55x_RELEASE_V1.0.2/MSDK/plf/GD32VW55x_standard_peripheral/Source\gd32vw55x_usart.c ****     /* disable USART */
1014:C:/Users/stapi/OneDrive/Desktop/GD32VW553/GD32VW55X_Wifi_BLE_SDK/GD32VW55x_RELEASE_V1.0.2/MSDK/plf/GD32VW55x_standard_peripheral/Source\gd32vw55x_usart.c ****     USART_CTL0(usart_periph) &= ~(USART_CTL0_UEN);
 1799              		.loc 1 1014 5
 1800              		.loc 1 1014 30 is_stmt 0
 1801 0000 1C41     		lw	a5,0(a0)
 1802 0002 F99B     		andi	a5,a5,-2
 1803 0004 1CC1     		sw	a5,0(a0)
1015:C:/Users/stapi/OneDrive/Desktop/GD32VW553/GD32VW55X_Wifi_BLE_SDK/GD32VW55x_RELEASE_V1.0.2/MSDK/plf/GD32VW55x_standard_peripheral/Source\gd32vw55x_usart.c **** 
1016:C:/Users/stapi/OneDrive/Desktop/GD32VW553/GD32VW55X_Wifi_BLE_SDK/GD32VW55x_RELEASE_V1.0.2/MSDK/plf/GD32VW55x_standard_peripheral/Source\gd32vw55x_usart.c ****     USART_CTL2(usart_periph) |= USART_CTL2_DDRE;
 1804              		.loc 1 1016 5 is_stmt 1
 1805              		.loc 1 1016 30 is_stmt 0
 1806 0006 1C45     		lw	a5,8(a0)
 1807 0008 9397D728 		bseti	a5,a5,13
 1808 000c 1CC5     		sw	a5,8(a0)
1017:C:/Users/stapi/OneDrive/Desktop/GD32VW553/GD32VW55X_Wifi_BLE_SDK/GD32VW55x_RELEASE_V1.0.2/MSDK/plf/GD32VW55x_standard_peripheral/Source\gd32vw55x_usart.c **** }
 1809              		.loc 1 1017 1
 1810 000e 8280     		ret
 1811              		.cfi_endproc
 1812              	.LFE422:
 1814              		.section	.text.usart_reception_error_dma_enable,"ax",@progbits
 1815              		.align	1
 1816              		.globl	usart_reception_error_dma_enable
 1818              	usart_reception_error_dma_enable:
 1819              	.LFB423:
1018:C:/Users/stapi/OneDrive/Desktop/GD32VW553/GD32VW55X_Wifi_BLE_SDK/GD32VW55x_RELEASE_V1.0.2/MSDK/plf/GD32VW55x_standard_peripheral/Source\gd32vw55x_usart.c **** 
1019:C:/Users/stapi/OneDrive/Desktop/GD32VW553/GD32VW55X_Wifi_BLE_SDK/GD32VW55x_RELEASE_V1.0.2/MSDK/plf/GD32VW55x_standard_peripheral/Source\gd32vw55x_usart.c **** /*!
1020:C:/Users/stapi/OneDrive/Desktop/GD32VW553/GD32VW55X_Wifi_BLE_SDK/GD32VW55x_RELEASE_V1.0.2/MSDK/plf/GD32VW55x_standard_peripheral/Source\gd32vw55x_usart.c ****     \brief      enable DMA on reception error
1021:C:/Users/stapi/OneDrive/Desktop/GD32VW553/GD32VW55X_Wifi_BLE_SDK/GD32VW55x_RELEASE_V1.0.2/MSDK/plf/GD32VW55x_standard_peripheral/Source\gd32vw55x_usart.c ****     \param[in]  usart_periph: USART0/UARTx(x=1,2)
1022:C:/Users/stapi/OneDrive/Desktop/GD32VW553/GD32VW55X_Wifi_BLE_SDK/GD32VW55x_RELEASE_V1.0.2/MSDK/plf/GD32VW55x_standard_peripheral/Source\gd32vw55x_usart.c ****     \param[out] none
1023:C:/Users/stapi/OneDrive/Desktop/GD32VW553/GD32VW55X_Wifi_BLE_SDK/GD32VW55x_RELEASE_V1.0.2/MSDK/plf/GD32VW55x_standard_peripheral/Source\gd32vw55x_usart.c ****     \retval     none
1024:C:/Users/stapi/OneDrive/Desktop/GD32VW553/GD32VW55X_Wifi_BLE_SDK/GD32VW55x_RELEASE_V1.0.2/MSDK/plf/GD32VW55x_standard_peripheral/Source\gd32vw55x_usart.c **** */
1025:C:/Users/stapi/OneDrive/Desktop/GD32VW553/GD32VW55X_Wifi_BLE_SDK/GD32VW55x_RELEASE_V1.0.2/MSDK/plf/GD32VW55x_standard_peripheral/Source\gd32vw55x_usart.c **** void usart_reception_error_dma_enable(uint32_t usart_periph)
1026:C:/Users/stapi/OneDrive/Desktop/GD32VW553/GD32VW55X_Wifi_BLE_SDK/GD32VW55x_RELEASE_V1.0.2/MSDK/plf/GD32VW55x_standard_peripheral/Source\gd32vw55x_usart.c **** {
 1820              		.loc 1 1026 1 is_stmt 1
 1821              		.cfi_startproc
 1822              	.LVL110:
1027:C:/Users/stapi/OneDrive/Desktop/GD32VW553/GD32VW55X_Wifi_BLE_SDK/GD32VW55x_RELEASE_V1.0.2/MSDK/plf/GD32VW55x_standard_peripheral/Source\gd32vw55x_usart.c ****     /* disable USART */
1028:C:/Users/stapi/OneDrive/Desktop/GD32VW553/GD32VW55X_Wifi_BLE_SDK/GD32VW55x_RELEASE_V1.0.2/MSDK/plf/GD32VW55x_standard_peripheral/Source\gd32vw55x_usart.c ****     USART_CTL0(usart_periph) &= ~(USART_CTL0_UEN);
 1823              		.loc 1 1028 5
 1824              		.loc 1 1028 30 is_stmt 0
 1825 0000 1C41     		lw	a5,0(a0)
 1826 0002 F99B     		andi	a5,a5,-2
 1827 0004 1CC1     		sw	a5,0(a0)
1029:C:/Users/stapi/OneDrive/Desktop/GD32VW553/GD32VW55X_Wifi_BLE_SDK/GD32VW55x_RELEASE_V1.0.2/MSDK/plf/GD32VW55x_standard_peripheral/Source\gd32vw55x_usart.c **** 
1030:C:/Users/stapi/OneDrive/Desktop/GD32VW553/GD32VW55X_Wifi_BLE_SDK/GD32VW55x_RELEASE_V1.0.2/MSDK/plf/GD32VW55x_standard_peripheral/Source\gd32vw55x_usart.c ****     USART_CTL2(usart_periph) &= ~(USART_CTL2_DDRE);
 1828              		.loc 1 1030 5 is_stmt 1
 1829              		.loc 1 1030 30 is_stmt 0
 1830 0006 1C45     		lw	a5,8(a0)
 1831 0008 9397D748 		bclri	a5,a5,13
 1832 000c 1CC5     		sw	a5,8(a0)
1031:C:/Users/stapi/OneDrive/Desktop/GD32VW553/GD32VW55X_Wifi_BLE_SDK/GD32VW55x_RELEASE_V1.0.2/MSDK/plf/GD32VW55x_standard_peripheral/Source\gd32vw55x_usart.c **** }
 1833              		.loc 1 1031 1
 1834 000e 8280     		ret
 1835              		.cfi_endproc
 1836              	.LFE423:
 1838              		.section	.text.usart_wakeup_enable,"ax",@progbits
 1839              		.align	1
 1840              		.globl	usart_wakeup_enable
 1842              	usart_wakeup_enable:
 1843              	.LFB424:
1032:C:/Users/stapi/OneDrive/Desktop/GD32VW553/GD32VW55X_Wifi_BLE_SDK/GD32VW55x_RELEASE_V1.0.2/MSDK/plf/GD32VW55x_standard_peripheral/Source\gd32vw55x_usart.c **** 
1033:C:/Users/stapi/OneDrive/Desktop/GD32VW553/GD32VW55X_Wifi_BLE_SDK/GD32VW55x_RELEASE_V1.0.2/MSDK/plf/GD32VW55x_standard_peripheral/Source\gd32vw55x_usart.c **** /*!
1034:C:/Users/stapi/OneDrive/Desktop/GD32VW553/GD32VW55X_Wifi_BLE_SDK/GD32VW55x_RELEASE_V1.0.2/MSDK/plf/GD32VW55x_standard_peripheral/Source\gd32vw55x_usart.c ****     \brief      enable USART to wakeup the MCU from deep-sleep mode
1035:C:/Users/stapi/OneDrive/Desktop/GD32VW553/GD32VW55X_Wifi_BLE_SDK/GD32VW55x_RELEASE_V1.0.2/MSDK/plf/GD32VW55x_standard_peripheral/Source\gd32vw55x_usart.c ****     \param[in]  usart_periph: USART0
1036:C:/Users/stapi/OneDrive/Desktop/GD32VW553/GD32VW55X_Wifi_BLE_SDK/GD32VW55x_RELEASE_V1.0.2/MSDK/plf/GD32VW55x_standard_peripheral/Source\gd32vw55x_usart.c ****     \param[out] none
1037:C:/Users/stapi/OneDrive/Desktop/GD32VW553/GD32VW55X_Wifi_BLE_SDK/GD32VW55x_RELEASE_V1.0.2/MSDK/plf/GD32VW55x_standard_peripheral/Source\gd32vw55x_usart.c ****     \retval     none
1038:C:/Users/stapi/OneDrive/Desktop/GD32VW553/GD32VW55X_Wifi_BLE_SDK/GD32VW55x_RELEASE_V1.0.2/MSDK/plf/GD32VW55x_standard_peripheral/Source\gd32vw55x_usart.c **** */
1039:C:/Users/stapi/OneDrive/Desktop/GD32VW553/GD32VW55X_Wifi_BLE_SDK/GD32VW55x_RELEASE_V1.0.2/MSDK/plf/GD32VW55x_standard_peripheral/Source\gd32vw55x_usart.c **** void usart_wakeup_enable(uint32_t usart_periph)
1040:C:/Users/stapi/OneDrive/Desktop/GD32VW553/GD32VW55X_Wifi_BLE_SDK/GD32VW55x_RELEASE_V1.0.2/MSDK/plf/GD32VW55x_standard_peripheral/Source\gd32vw55x_usart.c **** {
 1844              		.loc 1 1040 1 is_stmt 1
 1845              		.cfi_startproc
 1846              	.LVL111:
1041:C:/Users/stapi/OneDrive/Desktop/GD32VW553/GD32VW55X_Wifi_BLE_SDK/GD32VW55x_RELEASE_V1.0.2/MSDK/plf/GD32VW55x_standard_peripheral/Source\gd32vw55x_usart.c ****     USART_CTL0(usart_periph) |= USART_CTL0_UESM;
 1847              		.loc 1 1041 5
 1848              		.loc 1 1041 30 is_stmt 0
 1849 0000 1C41     		lw	a5,0(a0)
 1850 0002 93E72700 		ori	a5,a5,2
 1851 0006 1CC1     		sw	a5,0(a0)
1042:C:/Users/stapi/OneDrive/Desktop/GD32VW553/GD32VW55X_Wifi_BLE_SDK/GD32VW55x_RELEASE_V1.0.2/MSDK/plf/GD32VW55x_standard_peripheral/Source\gd32vw55x_usart.c **** }
 1852              		.loc 1 1042 1
 1853 0008 8280     		ret
 1854              		.cfi_endproc
 1855              	.LFE424:
 1857              		.section	.text.usart_wakeup_disable,"ax",@progbits
 1858              		.align	1
 1859              		.globl	usart_wakeup_disable
 1861              	usart_wakeup_disable:
 1862              	.LFB425:
1043:C:/Users/stapi/OneDrive/Desktop/GD32VW553/GD32VW55X_Wifi_BLE_SDK/GD32VW55x_RELEASE_V1.0.2/MSDK/plf/GD32VW55x_standard_peripheral/Source\gd32vw55x_usart.c **** 
1044:C:/Users/stapi/OneDrive/Desktop/GD32VW553/GD32VW55X_Wifi_BLE_SDK/GD32VW55x_RELEASE_V1.0.2/MSDK/plf/GD32VW55x_standard_peripheral/Source\gd32vw55x_usart.c **** /*!
1045:C:/Users/stapi/OneDrive/Desktop/GD32VW553/GD32VW55X_Wifi_BLE_SDK/GD32VW55x_RELEASE_V1.0.2/MSDK/plf/GD32VW55x_standard_peripheral/Source\gd32vw55x_usart.c ****     \brief      disable USART to wakeup the MCU from deep-sleep mode
1046:C:/Users/stapi/OneDrive/Desktop/GD32VW553/GD32VW55X_Wifi_BLE_SDK/GD32VW55x_RELEASE_V1.0.2/MSDK/plf/GD32VW55x_standard_peripheral/Source\gd32vw55x_usart.c ****     \param[in]  usart_periph: USART0
1047:C:/Users/stapi/OneDrive/Desktop/GD32VW553/GD32VW55X_Wifi_BLE_SDK/GD32VW55x_RELEASE_V1.0.2/MSDK/plf/GD32VW55x_standard_peripheral/Source\gd32vw55x_usart.c ****     \param[out] none
1048:C:/Users/stapi/OneDrive/Desktop/GD32VW553/GD32VW55X_Wifi_BLE_SDK/GD32VW55x_RELEASE_V1.0.2/MSDK/plf/GD32VW55x_standard_peripheral/Source\gd32vw55x_usart.c ****     \retval     none
1049:C:/Users/stapi/OneDrive/Desktop/GD32VW553/GD32VW55X_Wifi_BLE_SDK/GD32VW55x_RELEASE_V1.0.2/MSDK/plf/GD32VW55x_standard_peripheral/Source\gd32vw55x_usart.c **** */
1050:C:/Users/stapi/OneDrive/Desktop/GD32VW553/GD32VW55X_Wifi_BLE_SDK/GD32VW55x_RELEASE_V1.0.2/MSDK/plf/GD32VW55x_standard_peripheral/Source\gd32vw55x_usart.c **** void usart_wakeup_disable(uint32_t usart_periph)
1051:C:/Users/stapi/OneDrive/Desktop/GD32VW553/GD32VW55X_Wifi_BLE_SDK/GD32VW55x_RELEASE_V1.0.2/MSDK/plf/GD32VW55x_standard_peripheral/Source\gd32vw55x_usart.c **** {
 1863              		.loc 1 1051 1 is_stmt 1
 1864              		.cfi_startproc
 1865              	.LVL112:
1052:C:/Users/stapi/OneDrive/Desktop/GD32VW553/GD32VW55X_Wifi_BLE_SDK/GD32VW55x_RELEASE_V1.0.2/MSDK/plf/GD32VW55x_standard_peripheral/Source\gd32vw55x_usart.c ****     USART_CTL0(usart_periph) &= ~(USART_CTL0_UESM);
 1866              		.loc 1 1052 5
 1867              		.loc 1 1052 30 is_stmt 0
 1868 0000 1C41     		lw	a5,0(a0)
 1869 0002 F59B     		andi	a5,a5,-3
 1870 0004 1CC1     		sw	a5,0(a0)
1053:C:/Users/stapi/OneDrive/Desktop/GD32VW553/GD32VW55X_Wifi_BLE_SDK/GD32VW55x_RELEASE_V1.0.2/MSDK/plf/GD32VW55x_standard_peripheral/Source\gd32vw55x_usart.c **** }
 1871              		.loc 1 1053 1
 1872 0006 8280     		ret
 1873              		.cfi_endproc
 1874              	.LFE425:
 1876              		.section	.text.usart_wakeup_mode_config,"ax",@progbits
 1877              		.align	1
 1878              		.globl	usart_wakeup_mode_config
 1880              	usart_wakeup_mode_config:
 1881              	.LFB426:
1054:C:/Users/stapi/OneDrive/Desktop/GD32VW553/GD32VW55X_Wifi_BLE_SDK/GD32VW55x_RELEASE_V1.0.2/MSDK/plf/GD32VW55x_standard_peripheral/Source\gd32vw55x_usart.c **** 
1055:C:/Users/stapi/OneDrive/Desktop/GD32VW553/GD32VW55X_Wifi_BLE_SDK/GD32VW55x_RELEASE_V1.0.2/MSDK/plf/GD32VW55x_standard_peripheral/Source\gd32vw55x_usart.c **** /*!
1056:C:/Users/stapi/OneDrive/Desktop/GD32VW553/GD32VW55X_Wifi_BLE_SDK/GD32VW55x_RELEASE_V1.0.2/MSDK/plf/GD32VW55x_standard_peripheral/Source\gd32vw55x_usart.c ****     \brief      configure the USART wakeup mode from deep-sleep mode
1057:C:/Users/stapi/OneDrive/Desktop/GD32VW553/GD32VW55X_Wifi_BLE_SDK/GD32VW55x_RELEASE_V1.0.2/MSDK/plf/GD32VW55x_standard_peripheral/Source\gd32vw55x_usart.c ****     \param[in]  usart_periph: USART0
1058:C:/Users/stapi/OneDrive/Desktop/GD32VW553/GD32VW55X_Wifi_BLE_SDK/GD32VW55x_RELEASE_V1.0.2/MSDK/plf/GD32VW55x_standard_peripheral/Source\gd32vw55x_usart.c ****     \param[in]  wum: wakeup mode
1059:C:/Users/stapi/OneDrive/Desktop/GD32VW553/GD32VW55X_Wifi_BLE_SDK/GD32VW55x_RELEASE_V1.0.2/MSDK/plf/GD32VW55x_standard_peripheral/Source\gd32vw55x_usart.c ****                 only one parameter can be selected which is shown as below:
1060:C:/Users/stapi/OneDrive/Desktop/GD32VW553/GD32VW55X_Wifi_BLE_SDK/GD32VW55x_RELEASE_V1.0.2/MSDK/plf/GD32VW55x_standard_peripheral/Source\gd32vw55x_usart.c ****       \arg        USART_WUM_ADDR: WUF active on address match
1061:C:/Users/stapi/OneDrive/Desktop/GD32VW553/GD32VW55X_Wifi_BLE_SDK/GD32VW55x_RELEASE_V1.0.2/MSDK/plf/GD32VW55x_standard_peripheral/Source\gd32vw55x_usart.c ****       \arg        USART_WUM_STARTB: WUF active on start bit
1062:C:/Users/stapi/OneDrive/Desktop/GD32VW553/GD32VW55X_Wifi_BLE_SDK/GD32VW55x_RELEASE_V1.0.2/MSDK/plf/GD32VW55x_standard_peripheral/Source\gd32vw55x_usart.c ****       \arg        USART_WUM_RBNE: WUF active on RBNE
1063:C:/Users/stapi/OneDrive/Desktop/GD32VW553/GD32VW55X_Wifi_BLE_SDK/GD32VW55x_RELEASE_V1.0.2/MSDK/plf/GD32VW55x_standard_peripheral/Source\gd32vw55x_usart.c ****     \param[out] none
1064:C:/Users/stapi/OneDrive/Desktop/GD32VW553/GD32VW55X_Wifi_BLE_SDK/GD32VW55x_RELEASE_V1.0.2/MSDK/plf/GD32VW55x_standard_peripheral/Source\gd32vw55x_usart.c ****     \retval     none
1065:C:/Users/stapi/OneDrive/Desktop/GD32VW553/GD32VW55X_Wifi_BLE_SDK/GD32VW55x_RELEASE_V1.0.2/MSDK/plf/GD32VW55x_standard_peripheral/Source\gd32vw55x_usart.c **** */
1066:C:/Users/stapi/OneDrive/Desktop/GD32VW553/GD32VW55X_Wifi_BLE_SDK/GD32VW55x_RELEASE_V1.0.2/MSDK/plf/GD32VW55x_standard_peripheral/Source\gd32vw55x_usart.c **** void usart_wakeup_mode_config(uint32_t usart_periph, uint32_t wum)
1067:C:/Users/stapi/OneDrive/Desktop/GD32VW553/GD32VW55X_Wifi_BLE_SDK/GD32VW55x_RELEASE_V1.0.2/MSDK/plf/GD32VW55x_standard_peripheral/Source\gd32vw55x_usart.c **** {
 1882              		.loc 1 1067 1 is_stmt 1
 1883              		.cfi_startproc
 1884              	.LVL113:
1068:C:/Users/stapi/OneDrive/Desktop/GD32VW553/GD32VW55X_Wifi_BLE_SDK/GD32VW55x_RELEASE_V1.0.2/MSDK/plf/GD32VW55x_standard_peripheral/Source\gd32vw55x_usart.c ****     /* disable USART */
1069:C:/Users/stapi/OneDrive/Desktop/GD32VW553/GD32VW55X_Wifi_BLE_SDK/GD32VW55x_RELEASE_V1.0.2/MSDK/plf/GD32VW55x_standard_peripheral/Source\gd32vw55x_usart.c ****     USART_CTL0(usart_periph) &= ~(USART_CTL0_UEN);
 1885              		.loc 1 1069 5
 1886              		.loc 1 1069 30 is_stmt 0
 1887 0000 1C41     		lw	a5,0(a0)
1070:C:/Users/stapi/OneDrive/Desktop/GD32VW553/GD32VW55X_Wifi_BLE_SDK/GD32VW55x_RELEASE_V1.0.2/MSDK/plf/GD32VW55x_standard_peripheral/Source\gd32vw55x_usart.c ****     /* reset WUM bit */
1071:C:/Users/stapi/OneDrive/Desktop/GD32VW553/GD32VW55X_Wifi_BLE_SDK/GD32VW55x_RELEASE_V1.0.2/MSDK/plf/GD32VW55x_standard_peripheral/Source\gd32vw55x_usart.c ****     USART_CTL2(usart_periph) &= ~(USART_CTL2_WUM);
 1888              		.loc 1 1071 30
 1889 0002 3707D0FF 		li	a4,-3145728
 1890 0006 7D17     		addi	a4,a4,-1
1069:C:/Users/stapi/OneDrive/Desktop/GD32VW553/GD32VW55X_Wifi_BLE_SDK/GD32VW55x_RELEASE_V1.0.2/MSDK/plf/GD32VW55x_standard_peripheral/Source\gd32vw55x_usart.c ****     /* reset WUM bit */
 1891              		.loc 1 1069 30
 1892 0008 F99B     		andi	a5,a5,-2
 1893 000a 1CC1     		sw	a5,0(a0)
 1894              		.loc 1 1071 5 is_stmt 1
 1895              		.loc 1 1071 30 is_stmt 0
 1896 000c 1C45     		lw	a5,8(a0)
 1897 000e F98F     		and	a5,a5,a4
 1898 0010 1CC5     		sw	a5,8(a0)
1072:C:/Users/stapi/OneDrive/Desktop/GD32VW553/GD32VW55X_Wifi_BLE_SDK/GD32VW55x_RELEASE_V1.0.2/MSDK/plf/GD32VW55x_standard_peripheral/Source\gd32vw55x_usart.c ****     USART_CTL2(usart_periph) |= USART_CTL2_WUM & (wum);
 1899              		.loc 1 1072 5 is_stmt 1
 1900              		.loc 1 1072 30 is_stmt 0
 1901 0012 1C45     		lw	a5,8(a0)
 1902              		.loc 1 1072 48
 1903 0014 37073000 		li	a4,3145728
 1904 0018 F98D     		and	a1,a1,a4
 1905              	.LVL114:
 1906              		.loc 1 1072 30
 1907 001a DD8D     		or	a1,a1,a5
 1908 001c 0CC5     		sw	a1,8(a0)
1073:C:/Users/stapi/OneDrive/Desktop/GD32VW553/GD32VW55X_Wifi_BLE_SDK/GD32VW55x_RELEASE_V1.0.2/MSDK/plf/GD32VW55x_standard_peripheral/Source\gd32vw55x_usart.c **** }
 1909              		.loc 1 1073 1
 1910 001e 8280     		ret
 1911              		.cfi_endproc
 1912              	.LFE426:
 1914              		.section	.text.usart_receive_fifo_enable,"ax",@progbits
 1915              		.align	1
 1916              		.globl	usart_receive_fifo_enable
 1918              	usart_receive_fifo_enable:
 1919              	.LFB427:
1074:C:/Users/stapi/OneDrive/Desktop/GD32VW553/GD32VW55X_Wifi_BLE_SDK/GD32VW55x_RELEASE_V1.0.2/MSDK/plf/GD32VW55x_standard_peripheral/Source\gd32vw55x_usart.c **** 
1075:C:/Users/stapi/OneDrive/Desktop/GD32VW553/GD32VW55X_Wifi_BLE_SDK/GD32VW55x_RELEASE_V1.0.2/MSDK/plf/GD32VW55x_standard_peripheral/Source\gd32vw55x_usart.c **** /*!
1076:C:/Users/stapi/OneDrive/Desktop/GD32VW553/GD32VW55X_Wifi_BLE_SDK/GD32VW55x_RELEASE_V1.0.2/MSDK/plf/GD32VW55x_standard_peripheral/Source\gd32vw55x_usart.c ****     \brief      enable receive FIFO
1077:C:/Users/stapi/OneDrive/Desktop/GD32VW553/GD32VW55X_Wifi_BLE_SDK/GD32VW55x_RELEASE_V1.0.2/MSDK/plf/GD32VW55x_standard_peripheral/Source\gd32vw55x_usart.c ****     \param[in]  usart_periph: USART0/UARTx(x=1,2)
1078:C:/Users/stapi/OneDrive/Desktop/GD32VW553/GD32VW55X_Wifi_BLE_SDK/GD32VW55x_RELEASE_V1.0.2/MSDK/plf/GD32VW55x_standard_peripheral/Source\gd32vw55x_usart.c ****     \param[out] none
1079:C:/Users/stapi/OneDrive/Desktop/GD32VW553/GD32VW55X_Wifi_BLE_SDK/GD32VW55x_RELEASE_V1.0.2/MSDK/plf/GD32VW55x_standard_peripheral/Source\gd32vw55x_usart.c ****     \retval     none
1080:C:/Users/stapi/OneDrive/Desktop/GD32VW553/GD32VW55X_Wifi_BLE_SDK/GD32VW55x_RELEASE_V1.0.2/MSDK/plf/GD32VW55x_standard_peripheral/Source\gd32vw55x_usart.c **** */
1081:C:/Users/stapi/OneDrive/Desktop/GD32VW553/GD32VW55X_Wifi_BLE_SDK/GD32VW55x_RELEASE_V1.0.2/MSDK/plf/GD32VW55x_standard_peripheral/Source\gd32vw55x_usart.c **** void usart_receive_fifo_enable(uint32_t usart_periph)
1082:C:/Users/stapi/OneDrive/Desktop/GD32VW553/GD32VW55X_Wifi_BLE_SDK/GD32VW55x_RELEASE_V1.0.2/MSDK/plf/GD32VW55x_standard_peripheral/Source\gd32vw55x_usart.c **** {
 1920              		.loc 1 1082 1 is_stmt 1
 1921              		.cfi_startproc
 1922              	.LVL115:
1083:C:/Users/stapi/OneDrive/Desktop/GD32VW553/GD32VW55X_Wifi_BLE_SDK/GD32VW55x_RELEASE_V1.0.2/MSDK/plf/GD32VW55x_standard_peripheral/Source\gd32vw55x_usart.c ****     USART_RFCS(usart_periph) |= USART_RFCS_RFEN;
 1923              		.loc 1 1083 5
 1924              		.loc 1 1083 30 is_stmt 0
 1925 0000 8327050D 		lw	a5,208(a0)
 1926 0004 93E70710 		ori	a5,a5,256
 1927 0008 2328F50C 		sw	a5,208(a0)
1084:C:/Users/stapi/OneDrive/Desktop/GD32VW553/GD32VW55X_Wifi_BLE_SDK/GD32VW55x_RELEASE_V1.0.2/MSDK/plf/GD32VW55x_standard_peripheral/Source\gd32vw55x_usart.c **** }
 1928              		.loc 1 1084 1
 1929 000c 8280     		ret
 1930              		.cfi_endproc
 1931              	.LFE427:
 1933              		.section	.text.usart_receive_fifo_disable,"ax",@progbits
 1934              		.align	1
 1935              		.globl	usart_receive_fifo_disable
 1937              	usart_receive_fifo_disable:
 1938              	.LFB428:
1085:C:/Users/stapi/OneDrive/Desktop/GD32VW553/GD32VW55X_Wifi_BLE_SDK/GD32VW55x_RELEASE_V1.0.2/MSDK/plf/GD32VW55x_standard_peripheral/Source\gd32vw55x_usart.c **** 
1086:C:/Users/stapi/OneDrive/Desktop/GD32VW553/GD32VW55X_Wifi_BLE_SDK/GD32VW55x_RELEASE_V1.0.2/MSDK/plf/GD32VW55x_standard_peripheral/Source\gd32vw55x_usart.c **** /*!
1087:C:/Users/stapi/OneDrive/Desktop/GD32VW553/GD32VW55X_Wifi_BLE_SDK/GD32VW55x_RELEASE_V1.0.2/MSDK/plf/GD32VW55x_standard_peripheral/Source\gd32vw55x_usart.c ****     \brief      disable receive FIFO
1088:C:/Users/stapi/OneDrive/Desktop/GD32VW553/GD32VW55X_Wifi_BLE_SDK/GD32VW55x_RELEASE_V1.0.2/MSDK/plf/GD32VW55x_standard_peripheral/Source\gd32vw55x_usart.c ****     \param[in]  usart_periph: USART0/UARTx(x=1,2)
1089:C:/Users/stapi/OneDrive/Desktop/GD32VW553/GD32VW55X_Wifi_BLE_SDK/GD32VW55x_RELEASE_V1.0.2/MSDK/plf/GD32VW55x_standard_peripheral/Source\gd32vw55x_usart.c ****     \param[out] none
1090:C:/Users/stapi/OneDrive/Desktop/GD32VW553/GD32VW55X_Wifi_BLE_SDK/GD32VW55x_RELEASE_V1.0.2/MSDK/plf/GD32VW55x_standard_peripheral/Source\gd32vw55x_usart.c ****     \retval     none
1091:C:/Users/stapi/OneDrive/Desktop/GD32VW553/GD32VW55X_Wifi_BLE_SDK/GD32VW55x_RELEASE_V1.0.2/MSDK/plf/GD32VW55x_standard_peripheral/Source\gd32vw55x_usart.c **** */
1092:C:/Users/stapi/OneDrive/Desktop/GD32VW553/GD32VW55X_Wifi_BLE_SDK/GD32VW55x_RELEASE_V1.0.2/MSDK/plf/GD32VW55x_standard_peripheral/Source\gd32vw55x_usart.c **** void usart_receive_fifo_disable(uint32_t usart_periph)
1093:C:/Users/stapi/OneDrive/Desktop/GD32VW553/GD32VW55X_Wifi_BLE_SDK/GD32VW55x_RELEASE_V1.0.2/MSDK/plf/GD32VW55x_standard_peripheral/Source\gd32vw55x_usart.c **** {
 1939              		.loc 1 1093 1 is_stmt 1
 1940              		.cfi_startproc
 1941              	.LVL116:
1094:C:/Users/stapi/OneDrive/Desktop/GD32VW553/GD32VW55X_Wifi_BLE_SDK/GD32VW55x_RELEASE_V1.0.2/MSDK/plf/GD32VW55x_standard_peripheral/Source\gd32vw55x_usart.c ****     USART_RFCS(usart_periph) &= ~(USART_RFCS_RFEN);
 1942              		.loc 1 1094 5
 1943              		.loc 1 1094 30 is_stmt 0
 1944 0000 8327050D 		lw	a5,208(a0)
 1945 0004 93F7F7EF 		andi	a5,a5,-257
 1946 0008 2328F50C 		sw	a5,208(a0)
1095:C:/Users/stapi/OneDrive/Desktop/GD32VW553/GD32VW55X_Wifi_BLE_SDK/GD32VW55x_RELEASE_V1.0.2/MSDK/plf/GD32VW55x_standard_peripheral/Source\gd32vw55x_usart.c **** }
 1947              		.loc 1 1095 1
 1948 000c 8280     		ret
 1949              		.cfi_endproc
 1950              	.LFE428:
 1952              		.section	.text.usart_receive_fifo_counter_number,"ax",@progbits
 1953              		.align	1
 1954              		.globl	usart_receive_fifo_counter_number
 1956              	usart_receive_fifo_counter_number:
 1957              	.LFB429:
1096:C:/Users/stapi/OneDrive/Desktop/GD32VW553/GD32VW55X_Wifi_BLE_SDK/GD32VW55x_RELEASE_V1.0.2/MSDK/plf/GD32VW55x_standard_peripheral/Source\gd32vw55x_usart.c **** 
1097:C:/Users/stapi/OneDrive/Desktop/GD32VW553/GD32VW55X_Wifi_BLE_SDK/GD32VW55x_RELEASE_V1.0.2/MSDK/plf/GD32VW55x_standard_peripheral/Source\gd32vw55x_usart.c **** /*!
1098:C:/Users/stapi/OneDrive/Desktop/GD32VW553/GD32VW55X_Wifi_BLE_SDK/GD32VW55x_RELEASE_V1.0.2/MSDK/plf/GD32VW55x_standard_peripheral/Source\gd32vw55x_usart.c ****     \brief      read receive FIFO counter number
1099:C:/Users/stapi/OneDrive/Desktop/GD32VW553/GD32VW55X_Wifi_BLE_SDK/GD32VW55x_RELEASE_V1.0.2/MSDK/plf/GD32VW55x_standard_peripheral/Source\gd32vw55x_usart.c ****     \param[in]  usart_periph: USART0/UARTx(x=1,2)
1100:C:/Users/stapi/OneDrive/Desktop/GD32VW553/GD32VW55X_Wifi_BLE_SDK/GD32VW55x_RELEASE_V1.0.2/MSDK/plf/GD32VW55x_standard_peripheral/Source\gd32vw55x_usart.c ****     \param[out] none
1101:C:/Users/stapi/OneDrive/Desktop/GD32VW553/GD32VW55X_Wifi_BLE_SDK/GD32VW55x_RELEASE_V1.0.2/MSDK/plf/GD32VW55x_standard_peripheral/Source\gd32vw55x_usart.c ****     \retval     receive FIFO counter number
1102:C:/Users/stapi/OneDrive/Desktop/GD32VW553/GD32VW55X_Wifi_BLE_SDK/GD32VW55x_RELEASE_V1.0.2/MSDK/plf/GD32VW55x_standard_peripheral/Source\gd32vw55x_usart.c **** */
1103:C:/Users/stapi/OneDrive/Desktop/GD32VW553/GD32VW55X_Wifi_BLE_SDK/GD32VW55x_RELEASE_V1.0.2/MSDK/plf/GD32VW55x_standard_peripheral/Source\gd32vw55x_usart.c **** uint8_t usart_receive_fifo_counter_number(uint32_t usart_periph)
1104:C:/Users/stapi/OneDrive/Desktop/GD32VW553/GD32VW55X_Wifi_BLE_SDK/GD32VW55x_RELEASE_V1.0.2/MSDK/plf/GD32VW55x_standard_peripheral/Source\gd32vw55x_usart.c **** {
 1958              		.loc 1 1104 1 is_stmt 1
 1959              		.cfi_startproc
 1960              	.LVL117:
1105:C:/Users/stapi/OneDrive/Desktop/GD32VW553/GD32VW55X_Wifi_BLE_SDK/GD32VW55x_RELEASE_V1.0.2/MSDK/plf/GD32VW55x_standard_peripheral/Source\gd32vw55x_usart.c ****     return (uint8_t)(GET_BITS(USART_RFCS(usart_periph), 12U, 14U));
 1961              		.loc 1 1105 5
 1962              		.loc 1 1105 22 is_stmt 0
 1963 0000 0325050D 		lw	a0,208(a0)
 1964              	.LVL118:
 1965 0004 3181     		srli	a0,a0,12
1106:C:/Users/stapi/OneDrive/Desktop/GD32VW553/GD32VW55X_Wifi_BLE_SDK/GD32VW55x_RELEASE_V1.0.2/MSDK/plf/GD32VW55x_standard_peripheral/Source\gd32vw55x_usart.c **** }
 1966              		.loc 1 1106 1
 1967 0006 1D89     		andi	a0,a0,7
 1968 0008 8280     		ret
 1969              		.cfi_endproc
 1970              	.LFE429:
 1972              		.section	.text.usart_flag_get,"ax",@progbits
 1973              		.align	1
 1974              		.globl	usart_flag_get
 1976              	usart_flag_get:
 1977              	.LFB430:
1107:C:/Users/stapi/OneDrive/Desktop/GD32VW553/GD32VW55X_Wifi_BLE_SDK/GD32VW55x_RELEASE_V1.0.2/MSDK/plf/GD32VW55x_standard_peripheral/Source\gd32vw55x_usart.c **** 
1108:C:/Users/stapi/OneDrive/Desktop/GD32VW553/GD32VW55X_Wifi_BLE_SDK/GD32VW55x_RELEASE_V1.0.2/MSDK/plf/GD32VW55x_standard_peripheral/Source\gd32vw55x_usart.c **** /*!
1109:C:/Users/stapi/OneDrive/Desktop/GD32VW553/GD32VW55X_Wifi_BLE_SDK/GD32VW55x_RELEASE_V1.0.2/MSDK/plf/GD32VW55x_standard_peripheral/Source\gd32vw55x_usart.c ****     \brief      get flag in STAT/RFCS register
1110:C:/Users/stapi/OneDrive/Desktop/GD32VW553/GD32VW55X_Wifi_BLE_SDK/GD32VW55x_RELEASE_V1.0.2/MSDK/plf/GD32VW55x_standard_peripheral/Source\gd32vw55x_usart.c ****     \param[in]  usart_periph: USART0/UARTx(x=1,2)
1111:C:/Users/stapi/OneDrive/Desktop/GD32VW553/GD32VW55X_Wifi_BLE_SDK/GD32VW55x_RELEASE_V1.0.2/MSDK/plf/GD32VW55x_standard_peripheral/Source\gd32vw55x_usart.c ****     \param[in]  flag: flag type
1112:C:/Users/stapi/OneDrive/Desktop/GD32VW553/GD32VW55X_Wifi_BLE_SDK/GD32VW55x_RELEASE_V1.0.2/MSDK/plf/GD32VW55x_standard_peripheral/Source\gd32vw55x_usart.c ****                 only one parameter can be selected which is shown as below:
1113:C:/Users/stapi/OneDrive/Desktop/GD32VW553/GD32VW55X_Wifi_BLE_SDK/GD32VW55x_RELEASE_V1.0.2/MSDK/plf/GD32VW55x_standard_peripheral/Source\gd32vw55x_usart.c ****       \arg        USART_FLAG_PERR: parity error flag
1114:C:/Users/stapi/OneDrive/Desktop/GD32VW553/GD32VW55X_Wifi_BLE_SDK/GD32VW55x_RELEASE_V1.0.2/MSDK/plf/GD32VW55x_standard_peripheral/Source\gd32vw55x_usart.c ****       \arg        USART_FLAG_FERR: frame error flag
1115:C:/Users/stapi/OneDrive/Desktop/GD32VW553/GD32VW55X_Wifi_BLE_SDK/GD32VW55x_RELEASE_V1.0.2/MSDK/plf/GD32VW55x_standard_peripheral/Source\gd32vw55x_usart.c ****       \arg        USART_FLAG_NERR: noise error flag
1116:C:/Users/stapi/OneDrive/Desktop/GD32VW553/GD32VW55X_Wifi_BLE_SDK/GD32VW55x_RELEASE_V1.0.2/MSDK/plf/GD32VW55x_standard_peripheral/Source\gd32vw55x_usart.c ****       \arg        USART_FLAG_ORERR: overrun error
1117:C:/Users/stapi/OneDrive/Desktop/GD32VW553/GD32VW55X_Wifi_BLE_SDK/GD32VW55x_RELEASE_V1.0.2/MSDK/plf/GD32VW55x_standard_peripheral/Source\gd32vw55x_usart.c ****       \arg        USART_FLAG_IDLE: idle line detected flag
1118:C:/Users/stapi/OneDrive/Desktop/GD32VW553/GD32VW55X_Wifi_BLE_SDK/GD32VW55x_RELEASE_V1.0.2/MSDK/plf/GD32VW55x_standard_peripheral/Source\gd32vw55x_usart.c ****       \arg        USART_FLAG_RBNE: read data buffer not empty
1119:C:/Users/stapi/OneDrive/Desktop/GD32VW553/GD32VW55X_Wifi_BLE_SDK/GD32VW55x_RELEASE_V1.0.2/MSDK/plf/GD32VW55x_standard_peripheral/Source\gd32vw55x_usart.c ****       \arg        USART_FLAG_TC: transmission completed
1120:C:/Users/stapi/OneDrive/Desktop/GD32VW553/GD32VW55X_Wifi_BLE_SDK/GD32VW55x_RELEASE_V1.0.2/MSDK/plf/GD32VW55x_standard_peripheral/Source\gd32vw55x_usart.c ****       \arg        USART_FLAG_TBE: transmit data register empty
1121:C:/Users/stapi/OneDrive/Desktop/GD32VW553/GD32VW55X_Wifi_BLE_SDK/GD32VW55x_RELEASE_V1.0.2/MSDK/plf/GD32VW55x_standard_peripheral/Source\gd32vw55x_usart.c ****       \arg        USART_FLAG_LBD: LIN break detected flag, not available for UARTx(x=1,2)
1122:C:/Users/stapi/OneDrive/Desktop/GD32VW553/GD32VW55X_Wifi_BLE_SDK/GD32VW55x_RELEASE_V1.0.2/MSDK/plf/GD32VW55x_standard_peripheral/Source\gd32vw55x_usart.c ****       \arg        USART_FLAG_CTSF: CTS change flag
1123:C:/Users/stapi/OneDrive/Desktop/GD32VW553/GD32VW55X_Wifi_BLE_SDK/GD32VW55x_RELEASE_V1.0.2/MSDK/plf/GD32VW55x_standard_peripheral/Source\gd32vw55x_usart.c ****       \arg        USART_FLAG_CTS: CTS level
1124:C:/Users/stapi/OneDrive/Desktop/GD32VW553/GD32VW55X_Wifi_BLE_SDK/GD32VW55x_RELEASE_V1.0.2/MSDK/plf/GD32VW55x_standard_peripheral/Source\gd32vw55x_usart.c ****       \arg        USART_FLAG_RT: receiver timeout flag
1125:C:/Users/stapi/OneDrive/Desktop/GD32VW553/GD32VW55X_Wifi_BLE_SDK/GD32VW55x_RELEASE_V1.0.2/MSDK/plf/GD32VW55x_standard_peripheral/Source\gd32vw55x_usart.c ****       \arg        USART_FLAG_EB: end of block flag, not available for UARTx(x=1,2)
1126:C:/Users/stapi/OneDrive/Desktop/GD32VW553/GD32VW55X_Wifi_BLE_SDK/GD32VW55x_RELEASE_V1.0.2/MSDK/plf/GD32VW55x_standard_peripheral/Source\gd32vw55x_usart.c ****       \arg        USART_FLAG_BSY: busy flag
1127:C:/Users/stapi/OneDrive/Desktop/GD32VW553/GD32VW55X_Wifi_BLE_SDK/GD32VW55x_RELEASE_V1.0.2/MSDK/plf/GD32VW55x_standard_peripheral/Source\gd32vw55x_usart.c ****       \arg        USART_FLAG_AM: address match flag
1128:C:/Users/stapi/OneDrive/Desktop/GD32VW553/GD32VW55X_Wifi_BLE_SDK/GD32VW55x_RELEASE_V1.0.2/MSDK/plf/GD32VW55x_standard_peripheral/Source\gd32vw55x_usart.c ****       \arg        USART_FLAG_SB: send break flag
1129:C:/Users/stapi/OneDrive/Desktop/GD32VW553/GD32VW55X_Wifi_BLE_SDK/GD32VW55x_RELEASE_V1.0.2/MSDK/plf/GD32VW55x_standard_peripheral/Source\gd32vw55x_usart.c ****       \arg        USART_FLAG_RWU: receiver wakeup from mute mode
1130:C:/Users/stapi/OneDrive/Desktop/GD32VW553/GD32VW55X_Wifi_BLE_SDK/GD32VW55x_RELEASE_V1.0.2/MSDK/plf/GD32VW55x_standard_peripheral/Source\gd32vw55x_usart.c ****       \arg        USART_FLAG_WU: wakeup from deep-sleep mode flag
1131:C:/Users/stapi/OneDrive/Desktop/GD32VW553/GD32VW55X_Wifi_BLE_SDK/GD32VW55x_RELEASE_V1.0.2/MSDK/plf/GD32VW55x_standard_peripheral/Source\gd32vw55x_usart.c ****       \arg        USART_FLAG_TEA: transmit enable acknowledge flag
1132:C:/Users/stapi/OneDrive/Desktop/GD32VW553/GD32VW55X_Wifi_BLE_SDK/GD32VW55x_RELEASE_V1.0.2/MSDK/plf/GD32VW55x_standard_peripheral/Source\gd32vw55x_usart.c ****       \arg        USART_FLAG_REA: receive enable acknowledge flag
1133:C:/Users/stapi/OneDrive/Desktop/GD32VW553/GD32VW55X_Wifi_BLE_SDK/GD32VW55x_RELEASE_V1.0.2/MSDK/plf/GD32VW55x_standard_peripheral/Source\gd32vw55x_usart.c ****       \arg        USART_FLAG_EPERR: early parity error flag
1134:C:/Users/stapi/OneDrive/Desktop/GD32VW553/GD32VW55X_Wifi_BLE_SDK/GD32VW55x_RELEASE_V1.0.2/MSDK/plf/GD32VW55x_standard_peripheral/Source\gd32vw55x_usart.c ****       \arg        USART_FLAG_RFE: receive FIFO empty flag
1135:C:/Users/stapi/OneDrive/Desktop/GD32VW553/GD32VW55X_Wifi_BLE_SDK/GD32VW55x_RELEASE_V1.0.2/MSDK/plf/GD32VW55x_standard_peripheral/Source\gd32vw55x_usart.c ****       \arg        USART_FLAG_RFF: receive FIFO full flag
1136:C:/Users/stapi/OneDrive/Desktop/GD32VW553/GD32VW55X_Wifi_BLE_SDK/GD32VW55x_RELEASE_V1.0.2/MSDK/plf/GD32VW55x_standard_peripheral/Source\gd32vw55x_usart.c ****       \arg        USART_FLAG_RFFINT: receive FIFO full interrupt flag
1137:C:/Users/stapi/OneDrive/Desktop/GD32VW553/GD32VW55X_Wifi_BLE_SDK/GD32VW55x_RELEASE_V1.0.2/MSDK/plf/GD32VW55x_standard_peripheral/Source\gd32vw55x_usart.c ****     \param[out] none
1138:C:/Users/stapi/OneDrive/Desktop/GD32VW553/GD32VW55X_Wifi_BLE_SDK/GD32VW55x_RELEASE_V1.0.2/MSDK/plf/GD32VW55x_standard_peripheral/Source\gd32vw55x_usart.c ****     \retval     FlagStatus: SET or RESET
1139:C:/Users/stapi/OneDrive/Desktop/GD32VW553/GD32VW55X_Wifi_BLE_SDK/GD32VW55x_RELEASE_V1.0.2/MSDK/plf/GD32VW55x_standard_peripheral/Source\gd32vw55x_usart.c **** */
1140:C:/Users/stapi/OneDrive/Desktop/GD32VW553/GD32VW55X_Wifi_BLE_SDK/GD32VW55x_RELEASE_V1.0.2/MSDK/plf/GD32VW55x_standard_peripheral/Source\gd32vw55x_usart.c **** FlagStatus usart_flag_get(uint32_t usart_periph, usart_flag_enum flag)
1141:C:/Users/stapi/OneDrive/Desktop/GD32VW553/GD32VW55X_Wifi_BLE_SDK/GD32VW55x_RELEASE_V1.0.2/MSDK/plf/GD32VW55x_standard_peripheral/Source\gd32vw55x_usart.c **** {
 1978              		.loc 1 1141 1 is_stmt 1
 1979              		.cfi_startproc
 1980              	.LVL119:
1142:C:/Users/stapi/OneDrive/Desktop/GD32VW553/GD32VW55X_Wifi_BLE_SDK/GD32VW55x_RELEASE_V1.0.2/MSDK/plf/GD32VW55x_standard_peripheral/Source\gd32vw55x_usart.c ****     if(RESET != (USART_REG_VAL(usart_periph, flag) & BIT(USART_BIT_POS(flag)))){
 1981              		.loc 1 1142 5
 1982              		.loc 1 1142 18 is_stmt 0
 1983 0000 93D76500 		srli	a5,a1,6
 1984 0004 93F7F73F 		andi	a5,a5,1023
 1985 0008 AA97     		add	a5,a5,a0
 1986 000a 8843     		lw	a0,0(a5)
 1987              	.LVL120:
 1988              		.loc 1 1142 14
 1989 000c 3355B500 		srl	a0,a0,a1
1143:C:/Users/stapi/OneDrive/Desktop/GD32VW553/GD32VW55X_Wifi_BLE_SDK/GD32VW55x_RELEASE_V1.0.2/MSDK/plf/GD32VW55x_standard_peripheral/Source\gd32vw55x_usart.c ****         return SET;
1144:C:/Users/stapi/OneDrive/Desktop/GD32VW553/GD32VW55X_Wifi_BLE_SDK/GD32VW55x_RELEASE_V1.0.2/MSDK/plf/GD32VW55x_standard_peripheral/Source\gd32vw55x_usart.c ****     }else{
1145:C:/Users/stapi/OneDrive/Desktop/GD32VW553/GD32VW55X_Wifi_BLE_SDK/GD32VW55x_RELEASE_V1.0.2/MSDK/plf/GD32VW55x_standard_peripheral/Source\gd32vw55x_usart.c ****         return RESET;
1146:C:/Users/stapi/OneDrive/Desktop/GD32VW553/GD32VW55X_Wifi_BLE_SDK/GD32VW55x_RELEASE_V1.0.2/MSDK/plf/GD32VW55x_standard_peripheral/Source\gd32vw55x_usart.c ****     }
1147:C:/Users/stapi/OneDrive/Desktop/GD32VW553/GD32VW55X_Wifi_BLE_SDK/GD32VW55x_RELEASE_V1.0.2/MSDK/plf/GD32VW55x_standard_peripheral/Source\gd32vw55x_usart.c **** }
 1990              		.loc 1 1147 1
 1991 0010 0589     		andi	a0,a0,1
 1992 0012 8280     		ret
 1993              		.cfi_endproc
 1994              	.LFE430:
 1996              		.section	.text.usart_flag_clear,"ax",@progbits
 1997              		.align	1
 1998              		.globl	usart_flag_clear
 2000              	usart_flag_clear:
 2001              	.LFB431:
1148:C:/Users/stapi/OneDrive/Desktop/GD32VW553/GD32VW55X_Wifi_BLE_SDK/GD32VW55x_RELEASE_V1.0.2/MSDK/plf/GD32VW55x_standard_peripheral/Source\gd32vw55x_usart.c **** 
1149:C:/Users/stapi/OneDrive/Desktop/GD32VW553/GD32VW55X_Wifi_BLE_SDK/GD32VW55x_RELEASE_V1.0.2/MSDK/plf/GD32VW55x_standard_peripheral/Source\gd32vw55x_usart.c **** /*!
1150:C:/Users/stapi/OneDrive/Desktop/GD32VW553/GD32VW55X_Wifi_BLE_SDK/GD32VW55x_RELEASE_V1.0.2/MSDK/plf/GD32VW55x_standard_peripheral/Source\gd32vw55x_usart.c ****     \brief      clear USART status
1151:C:/Users/stapi/OneDrive/Desktop/GD32VW553/GD32VW55X_Wifi_BLE_SDK/GD32VW55x_RELEASE_V1.0.2/MSDK/plf/GD32VW55x_standard_peripheral/Source\gd32vw55x_usart.c ****     \param[in]  usart_periph: USART0/UARTx(x=1,2)
1152:C:/Users/stapi/OneDrive/Desktop/GD32VW553/GD32VW55X_Wifi_BLE_SDK/GD32VW55x_RELEASE_V1.0.2/MSDK/plf/GD32VW55x_standard_peripheral/Source\gd32vw55x_usart.c ****     \param[in]  flag: flag type
1153:C:/Users/stapi/OneDrive/Desktop/GD32VW553/GD32VW55X_Wifi_BLE_SDK/GD32VW55x_RELEASE_V1.0.2/MSDK/plf/GD32VW55x_standard_peripheral/Source\gd32vw55x_usart.c ****                 only one parameter can be selected which is shown as below:
1154:C:/Users/stapi/OneDrive/Desktop/GD32VW553/GD32VW55X_Wifi_BLE_SDK/GD32VW55x_RELEASE_V1.0.2/MSDK/plf/GD32VW55x_standard_peripheral/Source\gd32vw55x_usart.c ****       \arg        USART_FLAG_PERR: parity error flag
1155:C:/Users/stapi/OneDrive/Desktop/GD32VW553/GD32VW55X_Wifi_BLE_SDK/GD32VW55x_RELEASE_V1.0.2/MSDK/plf/GD32VW55x_standard_peripheral/Source\gd32vw55x_usart.c ****       \arg        USART_FLAG_FERR: frame error flag
1156:C:/Users/stapi/OneDrive/Desktop/GD32VW553/GD32VW55X_Wifi_BLE_SDK/GD32VW55x_RELEASE_V1.0.2/MSDK/plf/GD32VW55x_standard_peripheral/Source\gd32vw55x_usart.c ****       \arg        USART_FLAG_NERR: noise detected flag
1157:C:/Users/stapi/OneDrive/Desktop/GD32VW553/GD32VW55X_Wifi_BLE_SDK/GD32VW55x_RELEASE_V1.0.2/MSDK/plf/GD32VW55x_standard_peripheral/Source\gd32vw55x_usart.c ****       \arg        USART_FLAG_ORERR: overrun error flag
1158:C:/Users/stapi/OneDrive/Desktop/GD32VW553/GD32VW55X_Wifi_BLE_SDK/GD32VW55x_RELEASE_V1.0.2/MSDK/plf/GD32VW55x_standard_peripheral/Source\gd32vw55x_usart.c ****       \arg        USART_FLAG_IDLE: idle line detected flag
1159:C:/Users/stapi/OneDrive/Desktop/GD32VW553/GD32VW55X_Wifi_BLE_SDK/GD32VW55x_RELEASE_V1.0.2/MSDK/plf/GD32VW55x_standard_peripheral/Source\gd32vw55x_usart.c ****       \arg        USART_FLAG_TC: transmission complete flag
1160:C:/Users/stapi/OneDrive/Desktop/GD32VW553/GD32VW55X_Wifi_BLE_SDK/GD32VW55x_RELEASE_V1.0.2/MSDK/plf/GD32VW55x_standard_peripheral/Source\gd32vw55x_usart.c ****       \arg        USART_FLAG_LBD: LIN break detected flag, not available for UARTx(x=1,2)
1161:C:/Users/stapi/OneDrive/Desktop/GD32VW553/GD32VW55X_Wifi_BLE_SDK/GD32VW55x_RELEASE_V1.0.2/MSDK/plf/GD32VW55x_standard_peripheral/Source\gd32vw55x_usart.c ****       \arg        USART_FLAG_CTSF: CTS change flag
1162:C:/Users/stapi/OneDrive/Desktop/GD32VW553/GD32VW55X_Wifi_BLE_SDK/GD32VW55x_RELEASE_V1.0.2/MSDK/plf/GD32VW55x_standard_peripheral/Source\gd32vw55x_usart.c ****       \arg        USART_FLAG_RT: receiver timeout flag
1163:C:/Users/stapi/OneDrive/Desktop/GD32VW553/GD32VW55X_Wifi_BLE_SDK/GD32VW55x_RELEASE_V1.0.2/MSDK/plf/GD32VW55x_standard_peripheral/Source\gd32vw55x_usart.c ****       \arg        USART_FLAG_EB: end of block flag, not available for UARTx(x=1,2)
1164:C:/Users/stapi/OneDrive/Desktop/GD32VW553/GD32VW55X_Wifi_BLE_SDK/GD32VW55x_RELEASE_V1.0.2/MSDK/plf/GD32VW55x_standard_peripheral/Source\gd32vw55x_usart.c ****       \arg        USART_FLAG_AM: address match flag
1165:C:/Users/stapi/OneDrive/Desktop/GD32VW553/GD32VW55X_Wifi_BLE_SDK/GD32VW55x_RELEASE_V1.0.2/MSDK/plf/GD32VW55x_standard_peripheral/Source\gd32vw55x_usart.c ****       \arg        USART_FLAG_WU: wakeup from deep-sleep mode flag
1166:C:/Users/stapi/OneDrive/Desktop/GD32VW553/GD32VW55X_Wifi_BLE_SDK/GD32VW55x_RELEASE_V1.0.2/MSDK/plf/GD32VW55x_standard_peripheral/Source\gd32vw55x_usart.c ****       \arg        USART_FLAG_EPERR: early parity error flag
1167:C:/Users/stapi/OneDrive/Desktop/GD32VW553/GD32VW55X_Wifi_BLE_SDK/GD32VW55x_RELEASE_V1.0.2/MSDK/plf/GD32VW55x_standard_peripheral/Source\gd32vw55x_usart.c ****     \param[out] none
1168:C:/Users/stapi/OneDrive/Desktop/GD32VW553/GD32VW55X_Wifi_BLE_SDK/GD32VW55x_RELEASE_V1.0.2/MSDK/plf/GD32VW55x_standard_peripheral/Source\gd32vw55x_usart.c ****     \retval     none
1169:C:/Users/stapi/OneDrive/Desktop/GD32VW553/GD32VW55X_Wifi_BLE_SDK/GD32VW55x_RELEASE_V1.0.2/MSDK/plf/GD32VW55x_standard_peripheral/Source\gd32vw55x_usart.c **** */
1170:C:/Users/stapi/OneDrive/Desktop/GD32VW553/GD32VW55X_Wifi_BLE_SDK/GD32VW55x_RELEASE_V1.0.2/MSDK/plf/GD32VW55x_standard_peripheral/Source\gd32vw55x_usart.c **** void usart_flag_clear(uint32_t usart_periph, usart_flag_enum flag)
1171:C:/Users/stapi/OneDrive/Desktop/GD32VW553/GD32VW55X_Wifi_BLE_SDK/GD32VW55x_RELEASE_V1.0.2/MSDK/plf/GD32VW55x_standard_peripheral/Source\gd32vw55x_usart.c **** {
 2002              		.loc 1 1171 1 is_stmt 1
 2003              		.cfi_startproc
 2004              	.LVL121:
1172:C:/Users/stapi/OneDrive/Desktop/GD32VW553/GD32VW55X_Wifi_BLE_SDK/GD32VW55x_RELEASE_V1.0.2/MSDK/plf/GD32VW55x_standard_peripheral/Source\gd32vw55x_usart.c ****   if(flag == USART_FLAG_RBNE){
 2005              		.loc 1 1172 3
 2006              		.loc 1 1172 5 is_stmt 0
 2007 0000 93075070 		li	a5,1797
 2008 0004 6382F502 		beq	a1,a5,.L96
1173:C:/Users/stapi/OneDrive/Desktop/GD32VW553/GD32VW55X_Wifi_BLE_SDK/GD32VW55x_RELEASE_V1.0.2/MSDK/plf/GD32VW55x_standard_peripheral/Source\gd32vw55x_usart.c ****       USART_CMD(usart_periph) |= USART_CMD_RXFCMD;
1174:C:/Users/stapi/OneDrive/Desktop/GD32VW553/GD32VW55X_Wifi_BLE_SDK/GD32VW55x_RELEASE_V1.0.2/MSDK/plf/GD32VW55x_standard_peripheral/Source\gd32vw55x_usart.c ****   }else if(flag == USART_FLAG_EPERR){
 2009              		.loc 1 1174 9 is_stmt 1
 2010              		.loc 1 1174 11 is_stmt 0
 2011 0008 8D67     		li	a5,12288
 2012 000a A107     		addi	a5,a5,8
 2013 000c 6387F500 		beq	a1,a5,.L97
1175:C:/Users/stapi/OneDrive/Desktop/GD32VW553/GD32VW55X_Wifi_BLE_SDK/GD32VW55x_RELEASE_V1.0.2/MSDK/plf/GD32VW55x_standard_peripheral/Source\gd32vw55x_usart.c ****       USART_CHC(usart_periph) &= ~USART_CHC_EPERR;
1176:C:/Users/stapi/OneDrive/Desktop/GD32VW553/GD32VW55X_Wifi_BLE_SDK/GD32VW55x_RELEASE_V1.0.2/MSDK/plf/GD32VW55x_standard_peripheral/Source\gd32vw55x_usart.c ****   }else{
1177:C:/Users/stapi/OneDrive/Desktop/GD32VW553/GD32VW55X_Wifi_BLE_SDK/GD32VW55x_RELEASE_V1.0.2/MSDK/plf/GD32VW55x_standard_peripheral/Source\gd32vw55x_usart.c ****       USART_INTC(usart_periph) |= BIT(USART_BIT_POS(flag));
 2014              		.loc 1 1177 7 is_stmt 1
 2015              		.loc 1 1177 32 is_stmt 0
 2016 0010 1C51     		lw	a5,32(a0)
 2017 0012 B395B728 		bset	a1,a5,a1
 2018              	.LVL122:
 2019 0016 0CD1     		sw	a1,32(a0)
1178:C:/Users/stapi/OneDrive/Desktop/GD32VW553/GD32VW55X_Wifi_BLE_SDK/GD32VW55x_RELEASE_V1.0.2/MSDK/plf/GD32VW55x_standard_peripheral/Source\gd32vw55x_usart.c ****   }
1179:C:/Users/stapi/OneDrive/Desktop/GD32VW553/GD32VW55X_Wifi_BLE_SDK/GD32VW55x_RELEASE_V1.0.2/MSDK/plf/GD32VW55x_standard_peripheral/Source\gd32vw55x_usart.c **** 
1180:C:/Users/stapi/OneDrive/Desktop/GD32VW553/GD32VW55X_Wifi_BLE_SDK/GD32VW55x_RELEASE_V1.0.2/MSDK/plf/GD32VW55x_standard_peripheral/Source\gd32vw55x_usart.c **** }
 2020              		.loc 1 1180 1
 2021 0018 8280     		ret
 2022              	.LVL123:
 2023              	.L97:
1175:C:/Users/stapi/OneDrive/Desktop/GD32VW553/GD32VW55X_Wifi_BLE_SDK/GD32VW55x_RELEASE_V1.0.2/MSDK/plf/GD32VW55x_standard_peripheral/Source\gd32vw55x_usart.c ****       USART_CHC(usart_periph) &= ~USART_CHC_EPERR;
 2024              		.loc 1 1175 7 is_stmt 1
1175:C:/Users/stapi/OneDrive/Desktop/GD32VW553/GD32VW55X_Wifi_BLE_SDK/GD32VW55x_RELEASE_V1.0.2/MSDK/plf/GD32VW55x_standard_peripheral/Source\gd32vw55x_usart.c ****       USART_CHC(usart_periph) &= ~USART_CHC_EPERR;
 2025              		.loc 1 1175 31 is_stmt 0
 2026 001a 8327050C 		lw	a5,192(a0)
 2027 001e 93F7F7EF 		andi	a5,a5,-257
 2028 0022 2320F50C 		sw	a5,192(a0)
 2029 0026 8280     		ret
 2030              	.L96:
1173:C:/Users/stapi/OneDrive/Desktop/GD32VW553/GD32VW55X_Wifi_BLE_SDK/GD32VW55x_RELEASE_V1.0.2/MSDK/plf/GD32VW55x_standard_peripheral/Source\gd32vw55x_usart.c ****   }else if(flag == USART_FLAG_EPERR){
 2031              		.loc 1 1173 7 is_stmt 1
1173:C:/Users/stapi/OneDrive/Desktop/GD32VW553/GD32VW55X_Wifi_BLE_SDK/GD32VW55x_RELEASE_V1.0.2/MSDK/plf/GD32VW55x_standard_peripheral/Source\gd32vw55x_usart.c ****   }else if(flag == USART_FLAG_EPERR){
 2032              		.loc 1 1173 31 is_stmt 0
 2033 0028 1C4D     		lw	a5,24(a0)
 2034 002a 93E78700 		ori	a5,a5,8
 2035 002e 1CCD     		sw	a5,24(a0)
 2036 0030 8280     		ret
 2037              		.cfi_endproc
 2038              	.LFE431:
 2040              		.section	.text.usart_interrupt_enable,"ax",@progbits
 2041              		.align	1
 2042              		.globl	usart_interrupt_enable
 2044              	usart_interrupt_enable:
 2045              	.LFB432:
1181:C:/Users/stapi/OneDrive/Desktop/GD32VW553/GD32VW55X_Wifi_BLE_SDK/GD32VW55x_RELEASE_V1.0.2/MSDK/plf/GD32VW55x_standard_peripheral/Source\gd32vw55x_usart.c **** 
1182:C:/Users/stapi/OneDrive/Desktop/GD32VW553/GD32VW55X_Wifi_BLE_SDK/GD32VW55x_RELEASE_V1.0.2/MSDK/plf/GD32VW55x_standard_peripheral/Source\gd32vw55x_usart.c **** /*!
1183:C:/Users/stapi/OneDrive/Desktop/GD32VW553/GD32VW55X_Wifi_BLE_SDK/GD32VW55x_RELEASE_V1.0.2/MSDK/plf/GD32VW55x_standard_peripheral/Source\gd32vw55x_usart.c ****     \brief      enable USART interrupt
1184:C:/Users/stapi/OneDrive/Desktop/GD32VW553/GD32VW55X_Wifi_BLE_SDK/GD32VW55x_RELEASE_V1.0.2/MSDK/plf/GD32VW55x_standard_peripheral/Source\gd32vw55x_usart.c ****     \param[in]  usart_periph: USART0/UARTx(x=1,2)
1185:C:/Users/stapi/OneDrive/Desktop/GD32VW553/GD32VW55X_Wifi_BLE_SDK/GD32VW55x_RELEASE_V1.0.2/MSDK/plf/GD32VW55x_standard_peripheral/Source\gd32vw55x_usart.c ****     \param[in]  interrupt: interrupt type
1186:C:/Users/stapi/OneDrive/Desktop/GD32VW553/GD32VW55X_Wifi_BLE_SDK/GD32VW55x_RELEASE_V1.0.2/MSDK/plf/GD32VW55x_standard_peripheral/Source\gd32vw55x_usart.c ****                 only one parameter can be selected which is shown as below:
1187:C:/Users/stapi/OneDrive/Desktop/GD32VW553/GD32VW55X_Wifi_BLE_SDK/GD32VW55x_RELEASE_V1.0.2/MSDK/plf/GD32VW55x_standard_peripheral/Source\gd32vw55x_usart.c ****       \arg        USART_INT_IDLE: idle interrupt
1188:C:/Users/stapi/OneDrive/Desktop/GD32VW553/GD32VW55X_Wifi_BLE_SDK/GD32VW55x_RELEASE_V1.0.2/MSDK/plf/GD32VW55x_standard_peripheral/Source\gd32vw55x_usart.c ****       \arg        USART_INT_RBNE: read data buffer not empty interrupt and
1189:C:/Users/stapi/OneDrive/Desktop/GD32VW553/GD32VW55X_Wifi_BLE_SDK/GD32VW55x_RELEASE_V1.0.2/MSDK/plf/GD32VW55x_standard_peripheral/Source\gd32vw55x_usart.c ****                                   overrun error interrupt enable interrupt
1190:C:/Users/stapi/OneDrive/Desktop/GD32VW553/GD32VW55X_Wifi_BLE_SDK/GD32VW55x_RELEASE_V1.0.2/MSDK/plf/GD32VW55x_standard_peripheral/Source\gd32vw55x_usart.c ****       \arg        USART_INT_TC: transmission complete interrupt
1191:C:/Users/stapi/OneDrive/Desktop/GD32VW553/GD32VW55X_Wifi_BLE_SDK/GD32VW55x_RELEASE_V1.0.2/MSDK/plf/GD32VW55x_standard_peripheral/Source\gd32vw55x_usart.c ****       \arg        USART_INT_TBE: transmit data register empty interrupt
1192:C:/Users/stapi/OneDrive/Desktop/GD32VW553/GD32VW55X_Wifi_BLE_SDK/GD32VW55x_RELEASE_V1.0.2/MSDK/plf/GD32VW55x_standard_peripheral/Source\gd32vw55x_usart.c ****       \arg        USART_INT_PERR: parity error interrupt
1193:C:/Users/stapi/OneDrive/Desktop/GD32VW553/GD32VW55X_Wifi_BLE_SDK/GD32VW55x_RELEASE_V1.0.2/MSDK/plf/GD32VW55x_standard_peripheral/Source\gd32vw55x_usart.c ****       \arg        USART_INT_AM: address match interrupt
1194:C:/Users/stapi/OneDrive/Desktop/GD32VW553/GD32VW55X_Wifi_BLE_SDK/GD32VW55x_RELEASE_V1.0.2/MSDK/plf/GD32VW55x_standard_peripheral/Source\gd32vw55x_usart.c ****       \arg        USART_INT_RT: receiver timeout interrupt
1195:C:/Users/stapi/OneDrive/Desktop/GD32VW553/GD32VW55X_Wifi_BLE_SDK/GD32VW55x_RELEASE_V1.0.2/MSDK/plf/GD32VW55x_standard_peripheral/Source\gd32vw55x_usart.c ****       \arg        USART_INT_EB: end of block interrupt, not available for UARTx(x=1,2)
1196:C:/Users/stapi/OneDrive/Desktop/GD32VW553/GD32VW55X_Wifi_BLE_SDK/GD32VW55x_RELEASE_V1.0.2/MSDK/plf/GD32VW55x_standard_peripheral/Source\gd32vw55x_usart.c ****       \arg        USART_INT_LBD: LIN break detection interrupt, not available for UARTx(x=1,2)
1197:C:/Users/stapi/OneDrive/Desktop/GD32VW553/GD32VW55X_Wifi_BLE_SDK/GD32VW55x_RELEASE_V1.0.2/MSDK/plf/GD32VW55x_standard_peripheral/Source\gd32vw55x_usart.c ****       \arg        USART_INT_ERR: error interrupt enable in multibuffer communication
1198:C:/Users/stapi/OneDrive/Desktop/GD32VW553/GD32VW55X_Wifi_BLE_SDK/GD32VW55x_RELEASE_V1.0.2/MSDK/plf/GD32VW55x_standard_peripheral/Source\gd32vw55x_usart.c ****       \arg        USART_INT_CTS: CTS interrupt
1199:C:/Users/stapi/OneDrive/Desktop/GD32VW553/GD32VW55X_Wifi_BLE_SDK/GD32VW55x_RELEASE_V1.0.2/MSDK/plf/GD32VW55x_standard_peripheral/Source\gd32vw55x_usart.c ****       \arg        USART_INT_WU: wakeup from deep-sleep mode interrupt
1200:C:/Users/stapi/OneDrive/Desktop/GD32VW553/GD32VW55X_Wifi_BLE_SDK/GD32VW55x_RELEASE_V1.0.2/MSDK/plf/GD32VW55x_standard_peripheral/Source\gd32vw55x_usart.c ****       \arg        USART_INT_RFF: receive FIFO full interrupt enable
1201:C:/Users/stapi/OneDrive/Desktop/GD32VW553/GD32VW55X_Wifi_BLE_SDK/GD32VW55x_RELEASE_V1.0.2/MSDK/plf/GD32VW55x_standard_peripheral/Source\gd32vw55x_usart.c ****     \param[out] none
1202:C:/Users/stapi/OneDrive/Desktop/GD32VW553/GD32VW55X_Wifi_BLE_SDK/GD32VW55x_RELEASE_V1.0.2/MSDK/plf/GD32VW55x_standard_peripheral/Source\gd32vw55x_usart.c ****     \retval     none
1203:C:/Users/stapi/OneDrive/Desktop/GD32VW553/GD32VW55X_Wifi_BLE_SDK/GD32VW55x_RELEASE_V1.0.2/MSDK/plf/GD32VW55x_standard_peripheral/Source\gd32vw55x_usart.c **** */
1204:C:/Users/stapi/OneDrive/Desktop/GD32VW553/GD32VW55X_Wifi_BLE_SDK/GD32VW55x_RELEASE_V1.0.2/MSDK/plf/GD32VW55x_standard_peripheral/Source\gd32vw55x_usart.c **** void usart_interrupt_enable(uint32_t usart_periph, usart_interrupt_enum interrupt)
1205:C:/Users/stapi/OneDrive/Desktop/GD32VW553/GD32VW55X_Wifi_BLE_SDK/GD32VW55x_RELEASE_V1.0.2/MSDK/plf/GD32VW55x_standard_peripheral/Source\gd32vw55x_usart.c **** {
 2046              		.loc 1 1205 1 is_stmt 1
 2047              		.cfi_startproc
 2048              	.LVL124:
1206:C:/Users/stapi/OneDrive/Desktop/GD32VW553/GD32VW55X_Wifi_BLE_SDK/GD32VW55x_RELEASE_V1.0.2/MSDK/plf/GD32VW55x_standard_peripheral/Source\gd32vw55x_usart.c ****     USART_REG_VAL(usart_periph, interrupt) |= BIT(USART_BIT_POS(interrupt));
 2049              		.loc 1 1206 5
 2050              		.loc 1 1206 44 is_stmt 0
 2051 0000 93D76500 		srli	a5,a1,6
 2052 0004 93F7F73F 		andi	a5,a5,1023
 2053 0008 3E95     		add	a0,a5,a0
 2054              	.LVL125:
 2055 000a 1C41     		lw	a5,0(a0)
 2056 000c B395B728 		bset	a1,a5,a1
 2057              	.LVL126:
 2058 0010 0CC1     		sw	a1,0(a0)
1207:C:/Users/stapi/OneDrive/Desktop/GD32VW553/GD32VW55X_Wifi_BLE_SDK/GD32VW55x_RELEASE_V1.0.2/MSDK/plf/GD32VW55x_standard_peripheral/Source\gd32vw55x_usart.c **** }
 2059              		.loc 1 1207 1
 2060 0012 8280     		ret
 2061              		.cfi_endproc
 2062              	.LFE432:
 2064              		.section	.text.usart_interrupt_disable,"ax",@progbits
 2065              		.align	1
 2066              		.globl	usart_interrupt_disable
 2068              	usart_interrupt_disable:
 2069              	.LFB433:
1208:C:/Users/stapi/OneDrive/Desktop/GD32VW553/GD32VW55X_Wifi_BLE_SDK/GD32VW55x_RELEASE_V1.0.2/MSDK/plf/GD32VW55x_standard_peripheral/Source\gd32vw55x_usart.c **** 
1209:C:/Users/stapi/OneDrive/Desktop/GD32VW553/GD32VW55X_Wifi_BLE_SDK/GD32VW55x_RELEASE_V1.0.2/MSDK/plf/GD32VW55x_standard_peripheral/Source\gd32vw55x_usart.c **** /*!
1210:C:/Users/stapi/OneDrive/Desktop/GD32VW553/GD32VW55X_Wifi_BLE_SDK/GD32VW55x_RELEASE_V1.0.2/MSDK/plf/GD32VW55x_standard_peripheral/Source\gd32vw55x_usart.c ****     \brief      disable USART interrupt
1211:C:/Users/stapi/OneDrive/Desktop/GD32VW553/GD32VW55X_Wifi_BLE_SDK/GD32VW55x_RELEASE_V1.0.2/MSDK/plf/GD32VW55x_standard_peripheral/Source\gd32vw55x_usart.c ****     \param[in]  usart_periph: USART0/UARTx(x=1,2)
1212:C:/Users/stapi/OneDrive/Desktop/GD32VW553/GD32VW55X_Wifi_BLE_SDK/GD32VW55x_RELEASE_V1.0.2/MSDK/plf/GD32VW55x_standard_peripheral/Source\gd32vw55x_usart.c ****     \param[in]  interrupt: interrupt type
1213:C:/Users/stapi/OneDrive/Desktop/GD32VW553/GD32VW55X_Wifi_BLE_SDK/GD32VW55x_RELEASE_V1.0.2/MSDK/plf/GD32VW55x_standard_peripheral/Source\gd32vw55x_usart.c ****                 only one parameter can be selected which is shown as below:
1214:C:/Users/stapi/OneDrive/Desktop/GD32VW553/GD32VW55X_Wifi_BLE_SDK/GD32VW55x_RELEASE_V1.0.2/MSDK/plf/GD32VW55x_standard_peripheral/Source\gd32vw55x_usart.c ****       \arg        USART_INT_IDLE: idle interrupt
1215:C:/Users/stapi/OneDrive/Desktop/GD32VW553/GD32VW55X_Wifi_BLE_SDK/GD32VW55x_RELEASE_V1.0.2/MSDK/plf/GD32VW55x_standard_peripheral/Source\gd32vw55x_usart.c ****       \arg        USART_INT_RBNE: read data buffer not empty interrupt and
1216:C:/Users/stapi/OneDrive/Desktop/GD32VW553/GD32VW55X_Wifi_BLE_SDK/GD32VW55x_RELEASE_V1.0.2/MSDK/plf/GD32VW55x_standard_peripheral/Source\gd32vw55x_usart.c ****                                   overrun error interrupt
1217:C:/Users/stapi/OneDrive/Desktop/GD32VW553/GD32VW55X_Wifi_BLE_SDK/GD32VW55x_RELEASE_V1.0.2/MSDK/plf/GD32VW55x_standard_peripheral/Source\gd32vw55x_usart.c ****       \arg        USART_INT_TC: transmission complete interrupt
1218:C:/Users/stapi/OneDrive/Desktop/GD32VW553/GD32VW55X_Wifi_BLE_SDK/GD32VW55x_RELEASE_V1.0.2/MSDK/plf/GD32VW55x_standard_peripheral/Source\gd32vw55x_usart.c ****       \arg        USART_INT_TBE: transmit data register empty interrupt
1219:C:/Users/stapi/OneDrive/Desktop/GD32VW553/GD32VW55X_Wifi_BLE_SDK/GD32VW55x_RELEASE_V1.0.2/MSDK/plf/GD32VW55x_standard_peripheral/Source\gd32vw55x_usart.c ****       \arg        USART_INT_PERR: parity error interrupt
1220:C:/Users/stapi/OneDrive/Desktop/GD32VW553/GD32VW55X_Wifi_BLE_SDK/GD32VW55x_RELEASE_V1.0.2/MSDK/plf/GD32VW55x_standard_peripheral/Source\gd32vw55x_usart.c ****       \arg        USART_INT_AM: address match interrupt
1221:C:/Users/stapi/OneDrive/Desktop/GD32VW553/GD32VW55X_Wifi_BLE_SDK/GD32VW55x_RELEASE_V1.0.2/MSDK/plf/GD32VW55x_standard_peripheral/Source\gd32vw55x_usart.c ****       \arg        USART_INT_RT: receiver timeout interrupt
1222:C:/Users/stapi/OneDrive/Desktop/GD32VW553/GD32VW55X_Wifi_BLE_SDK/GD32VW55x_RELEASE_V1.0.2/MSDK/plf/GD32VW55x_standard_peripheral/Source\gd32vw55x_usart.c ****       \arg        USART_INT_EB: end of block interrupt, not available for UARTx(x=1,2)
1223:C:/Users/stapi/OneDrive/Desktop/GD32VW553/GD32VW55X_Wifi_BLE_SDK/GD32VW55x_RELEASE_V1.0.2/MSDK/plf/GD32VW55x_standard_peripheral/Source\gd32vw55x_usart.c ****       \arg        USART_INT_LBD: LIN break detection interrupt, not available for UARTx(x=1,2)
1224:C:/Users/stapi/OneDrive/Desktop/GD32VW553/GD32VW55X_Wifi_BLE_SDK/GD32VW55x_RELEASE_V1.0.2/MSDK/plf/GD32VW55x_standard_peripheral/Source\gd32vw55x_usart.c ****       \arg        USART_INT_ERR: error interrupt enable in multibuffer communication
1225:C:/Users/stapi/OneDrive/Desktop/GD32VW553/GD32VW55X_Wifi_BLE_SDK/GD32VW55x_RELEASE_V1.0.2/MSDK/plf/GD32VW55x_standard_peripheral/Source\gd32vw55x_usart.c ****       \arg        USART_INT_CTS: CTS interrupt
1226:C:/Users/stapi/OneDrive/Desktop/GD32VW553/GD32VW55X_Wifi_BLE_SDK/GD32VW55x_RELEASE_V1.0.2/MSDK/plf/GD32VW55x_standard_peripheral/Source\gd32vw55x_usart.c ****       \arg        USART_INT_WU: wakeup from deep-sleep mode interrupt
1227:C:/Users/stapi/OneDrive/Desktop/GD32VW553/GD32VW55X_Wifi_BLE_SDK/GD32VW55x_RELEASE_V1.0.2/MSDK/plf/GD32VW55x_standard_peripheral/Source\gd32vw55x_usart.c ****       \arg        USART_INT_RFF: receive FIFO full interrupt enable
1228:C:/Users/stapi/OneDrive/Desktop/GD32VW553/GD32VW55X_Wifi_BLE_SDK/GD32VW55x_RELEASE_V1.0.2/MSDK/plf/GD32VW55x_standard_peripheral/Source\gd32vw55x_usart.c ****     \param[out] none
1229:C:/Users/stapi/OneDrive/Desktop/GD32VW553/GD32VW55X_Wifi_BLE_SDK/GD32VW55x_RELEASE_V1.0.2/MSDK/plf/GD32VW55x_standard_peripheral/Source\gd32vw55x_usart.c ****     \retval     none
1230:C:/Users/stapi/OneDrive/Desktop/GD32VW553/GD32VW55X_Wifi_BLE_SDK/GD32VW55x_RELEASE_V1.0.2/MSDK/plf/GD32VW55x_standard_peripheral/Source\gd32vw55x_usart.c **** */
1231:C:/Users/stapi/OneDrive/Desktop/GD32VW553/GD32VW55X_Wifi_BLE_SDK/GD32VW55x_RELEASE_V1.0.2/MSDK/plf/GD32VW55x_standard_peripheral/Source\gd32vw55x_usart.c **** void usart_interrupt_disable(uint32_t usart_periph, usart_interrupt_enum interrupt)
1232:C:/Users/stapi/OneDrive/Desktop/GD32VW553/GD32VW55X_Wifi_BLE_SDK/GD32VW55x_RELEASE_V1.0.2/MSDK/plf/GD32VW55x_standard_peripheral/Source\gd32vw55x_usart.c **** {
 2070              		.loc 1 1232 1 is_stmt 1
 2071              		.cfi_startproc
 2072              	.LVL127:
1233:C:/Users/stapi/OneDrive/Desktop/GD32VW553/GD32VW55X_Wifi_BLE_SDK/GD32VW55x_RELEASE_V1.0.2/MSDK/plf/GD32VW55x_standard_peripheral/Source\gd32vw55x_usart.c ****     USART_REG_VAL(usart_periph, interrupt) &= ~BIT(USART_BIT_POS(interrupt));
 2073              		.loc 1 1233 5
 2074              		.loc 1 1233 44 is_stmt 0
 2075 0000 93D76500 		srli	a5,a1,6
 2076 0004 93F7F73F 		andi	a5,a5,1023
 2077 0008 3E95     		add	a0,a5,a0
 2078              	.LVL128:
 2079 000a 1C41     		lw	a5,0(a0)
 2080              		.loc 1 1233 48
 2081 000c B315B028 		bset	a1,x0,a1
 2082              	.LVL129:
 2083              		.loc 1 1233 44
 2084 0010 B3F5B740 		andn	a1,a5,a1
 2085 0014 0CC1     		sw	a1,0(a0)
1234:C:/Users/stapi/OneDrive/Desktop/GD32VW553/GD32VW55X_Wifi_BLE_SDK/GD32VW55x_RELEASE_V1.0.2/MSDK/plf/GD32VW55x_standard_peripheral/Source\gd32vw55x_usart.c **** }
 2086              		.loc 1 1234 1
 2087 0016 8280     		ret
 2088              		.cfi_endproc
 2089              	.LFE433:
 2091              		.section	.text.usart_interrupt_flag_get,"ax",@progbits
 2092              		.align	1
 2093              		.globl	usart_interrupt_flag_get
 2095              	usart_interrupt_flag_get:
 2096              	.LFB434:
1235:C:/Users/stapi/OneDrive/Desktop/GD32VW553/GD32VW55X_Wifi_BLE_SDK/GD32VW55x_RELEASE_V1.0.2/MSDK/plf/GD32VW55x_standard_peripheral/Source\gd32vw55x_usart.c **** 
1236:C:/Users/stapi/OneDrive/Desktop/GD32VW553/GD32VW55X_Wifi_BLE_SDK/GD32VW55x_RELEASE_V1.0.2/MSDK/plf/GD32VW55x_standard_peripheral/Source\gd32vw55x_usart.c **** /*!
1237:C:/Users/stapi/OneDrive/Desktop/GD32VW553/GD32VW55X_Wifi_BLE_SDK/GD32VW55x_RELEASE_V1.0.2/MSDK/plf/GD32VW55x_standard_peripheral/Source\gd32vw55x_usart.c ****     \brief      get USART interrupt and flag status
1238:C:/Users/stapi/OneDrive/Desktop/GD32VW553/GD32VW55X_Wifi_BLE_SDK/GD32VW55x_RELEASE_V1.0.2/MSDK/plf/GD32VW55x_standard_peripheral/Source\gd32vw55x_usart.c ****     \param[in]  usart_periph: USART0/UARTx(x=1,2)
1239:C:/Users/stapi/OneDrive/Desktop/GD32VW553/GD32VW55X_Wifi_BLE_SDK/GD32VW55x_RELEASE_V1.0.2/MSDK/plf/GD32VW55x_standard_peripheral/Source\gd32vw55x_usart.c ****     \param[in]  int_flag: interrupt and flag type, refer to usart_interrupt_flag_enum
1240:C:/Users/stapi/OneDrive/Desktop/GD32VW553/GD32VW55X_Wifi_BLE_SDK/GD32VW55x_RELEASE_V1.0.2/MSDK/plf/GD32VW55x_standard_peripheral/Source\gd32vw55x_usart.c ****                 only one parameter can be selected which is shown as below:
1241:C:/Users/stapi/OneDrive/Desktop/GD32VW553/GD32VW55X_Wifi_BLE_SDK/GD32VW55x_RELEASE_V1.0.2/MSDK/plf/GD32VW55x_standard_peripheral/Source\gd32vw55x_usart.c ****       \arg        USART_INT_FLAG_EB: end of block interrupt and flag, not available for UARTx(x=1,2
1242:C:/Users/stapi/OneDrive/Desktop/GD32VW553/GD32VW55X_Wifi_BLE_SDK/GD32VW55x_RELEASE_V1.0.2/MSDK/plf/GD32VW55x_standard_peripheral/Source\gd32vw55x_usart.c ****       \arg        USART_INT_FLAG_RT: receiver timeout interrupt and flag
1243:C:/Users/stapi/OneDrive/Desktop/GD32VW553/GD32VW55X_Wifi_BLE_SDK/GD32VW55x_RELEASE_V1.0.2/MSDK/plf/GD32VW55x_standard_peripheral/Source\gd32vw55x_usart.c ****       \arg        USART_INT_FLAG_AM: address match interrupt and flag
1244:C:/Users/stapi/OneDrive/Desktop/GD32VW553/GD32VW55X_Wifi_BLE_SDK/GD32VW55x_RELEASE_V1.0.2/MSDK/plf/GD32VW55x_standard_peripheral/Source\gd32vw55x_usart.c ****       \arg        USART_INT_FLAG_PERR: parity error interrupt and flag
1245:C:/Users/stapi/OneDrive/Desktop/GD32VW553/GD32VW55X_Wifi_BLE_SDK/GD32VW55x_RELEASE_V1.0.2/MSDK/plf/GD32VW55x_standard_peripheral/Source\gd32vw55x_usart.c ****       \arg        USART_INT_FLAG_TBE: transmitter buffer empty interrupt and flag
1246:C:/Users/stapi/OneDrive/Desktop/GD32VW553/GD32VW55X_Wifi_BLE_SDK/GD32VW55x_RELEASE_V1.0.2/MSDK/plf/GD32VW55x_standard_peripheral/Source\gd32vw55x_usart.c ****       \arg        USART_INT_FLAG_TC: transmission complete interrupt and flag
1247:C:/Users/stapi/OneDrive/Desktop/GD32VW553/GD32VW55X_Wifi_BLE_SDK/GD32VW55x_RELEASE_V1.0.2/MSDK/plf/GD32VW55x_standard_peripheral/Source\gd32vw55x_usart.c ****       \arg        USART_INT_FLAG_RBNE: read data buffer not empty interrupt and flag
1248:C:/Users/stapi/OneDrive/Desktop/GD32VW553/GD32VW55X_Wifi_BLE_SDK/GD32VW55x_RELEASE_V1.0.2/MSDK/plf/GD32VW55x_standard_peripheral/Source\gd32vw55x_usart.c ****       \arg        USART_INT_FLAG_RBNE_ORERR: read data buffer not empty interrupt and overrun error
1249:C:/Users/stapi/OneDrive/Desktop/GD32VW553/GD32VW55X_Wifi_BLE_SDK/GD32VW55x_RELEASE_V1.0.2/MSDK/plf/GD32VW55x_standard_peripheral/Source\gd32vw55x_usart.c ****       \arg        USART_INT_FLAG_IDLE: IDLE line detected interrupt and flag
1250:C:/Users/stapi/OneDrive/Desktop/GD32VW553/GD32VW55X_Wifi_BLE_SDK/GD32VW55x_RELEASE_V1.0.2/MSDK/plf/GD32VW55x_standard_peripheral/Source\gd32vw55x_usart.c ****       \arg        USART_INT_FLAG_LBD: LIN break detected interrupt and flag, not available for UART
1251:C:/Users/stapi/OneDrive/Desktop/GD32VW553/GD32VW55X_Wifi_BLE_SDK/GD32VW55x_RELEASE_V1.0.2/MSDK/plf/GD32VW55x_standard_peripheral/Source\gd32vw55x_usart.c ****       \arg        USART_INT_FLAG_WU: wakeup from deep-sleep mode interrupt and flag
1252:C:/Users/stapi/OneDrive/Desktop/GD32VW553/GD32VW55X_Wifi_BLE_SDK/GD32VW55x_RELEASE_V1.0.2/MSDK/plf/GD32VW55x_standard_peripheral/Source\gd32vw55x_usart.c ****       \arg        USART_INT_FLAG_CTS: CTS interrupt and flag
1253:C:/Users/stapi/OneDrive/Desktop/GD32VW553/GD32VW55X_Wifi_BLE_SDK/GD32VW55x_RELEASE_V1.0.2/MSDK/plf/GD32VW55x_standard_peripheral/Source\gd32vw55x_usart.c ****       \arg        USART_INT_FLAG_ERR_NERR: error interrupt and noise error flag
1254:C:/Users/stapi/OneDrive/Desktop/GD32VW553/GD32VW55X_Wifi_BLE_SDK/GD32VW55x_RELEASE_V1.0.2/MSDK/plf/GD32VW55x_standard_peripheral/Source\gd32vw55x_usart.c ****       \arg        USART_INT_FLAG_ERR_ORERR: error interrupt and overrun error
1255:C:/Users/stapi/OneDrive/Desktop/GD32VW553/GD32VW55X_Wifi_BLE_SDK/GD32VW55x_RELEASE_V1.0.2/MSDK/plf/GD32VW55x_standard_peripheral/Source\gd32vw55x_usart.c ****       \arg        USART_INT_FLAG_ERR_FERR: error interrupt and frame error flag
1256:C:/Users/stapi/OneDrive/Desktop/GD32VW553/GD32VW55X_Wifi_BLE_SDK/GD32VW55x_RELEASE_V1.0.2/MSDK/plf/GD32VW55x_standard_peripheral/Source\gd32vw55x_usart.c ****       \arg        USART_INT_FLAG_RFF: receive FIFO full interrupt and flag
1257:C:/Users/stapi/OneDrive/Desktop/GD32VW553/GD32VW55X_Wifi_BLE_SDK/GD32VW55x_RELEASE_V1.0.2/MSDK/plf/GD32VW55x_standard_peripheral/Source\gd32vw55x_usart.c ****     \param[out] none
1258:C:/Users/stapi/OneDrive/Desktop/GD32VW553/GD32VW55X_Wifi_BLE_SDK/GD32VW55x_RELEASE_V1.0.2/MSDK/plf/GD32VW55x_standard_peripheral/Source\gd32vw55x_usart.c ****     \retval     FlagStatus: SET or RESET
1259:C:/Users/stapi/OneDrive/Desktop/GD32VW553/GD32VW55X_Wifi_BLE_SDK/GD32VW55x_RELEASE_V1.0.2/MSDK/plf/GD32VW55x_standard_peripheral/Source\gd32vw55x_usart.c **** */
1260:C:/Users/stapi/OneDrive/Desktop/GD32VW553/GD32VW55X_Wifi_BLE_SDK/GD32VW55x_RELEASE_V1.0.2/MSDK/plf/GD32VW55x_standard_peripheral/Source\gd32vw55x_usart.c **** FlagStatus usart_interrupt_flag_get(uint32_t usart_periph, usart_interrupt_flag_enum int_flag)
1261:C:/Users/stapi/OneDrive/Desktop/GD32VW553/GD32VW55X_Wifi_BLE_SDK/GD32VW55x_RELEASE_V1.0.2/MSDK/plf/GD32VW55x_standard_peripheral/Source\gd32vw55x_usart.c **** {
 2097              		.loc 1 1261 1 is_stmt 1
 2098              		.cfi_startproc
 2099              	.LVL130:
1262:C:/Users/stapi/OneDrive/Desktop/GD32VW553/GD32VW55X_Wifi_BLE_SDK/GD32VW55x_RELEASE_V1.0.2/MSDK/plf/GD32VW55x_standard_peripheral/Source\gd32vw55x_usart.c ****     uint32_t intenable = 0U, flagstatus = 0U;
 2100              		.loc 1 1262 5
1263:C:/Users/stapi/OneDrive/Desktop/GD32VW553/GD32VW55X_Wifi_BLE_SDK/GD32VW55x_RELEASE_V1.0.2/MSDK/plf/GD32VW55x_standard_peripheral/Source\gd32vw55x_usart.c ****     /* get the interrupt enable bit status */
1264:C:/Users/stapi/OneDrive/Desktop/GD32VW553/GD32VW55X_Wifi_BLE_SDK/GD32VW55x_RELEASE_V1.0.2/MSDK/plf/GD32VW55x_standard_peripheral/Source\gd32vw55x_usart.c ****     intenable = (USART_REG_VAL(usart_periph, int_flag) & BIT(USART_BIT_POS(int_flag)));
 2101              		.loc 1 1264 5
 2102              		.loc 1 1264 18 is_stmt 0
 2103 0000 93D76500 		srli	a5,a1,6
1265:C:/Users/stapi/OneDrive/Desktop/GD32VW553/GD32VW55X_Wifi_BLE_SDK/GD32VW55x_RELEASE_V1.0.2/MSDK/plf/GD32VW55x_standard_peripheral/Source\gd32vw55x_usart.c ****     /* get the corresponding flag bit status */
1266:C:/Users/stapi/OneDrive/Desktop/GD32VW553/GD32VW55X_Wifi_BLE_SDK/GD32VW55x_RELEASE_V1.0.2/MSDK/plf/GD32VW55x_standard_peripheral/Source\gd32vw55x_usart.c ****     flagstatus = (USART_REG_VAL2(usart_periph, int_flag) & BIT(USART_BIT_POS2(int_flag)));
 2104              		.loc 1 1266 19
 2105 0004 13D76501 		srli	a4,a1,22
1264:C:/Users/stapi/OneDrive/Desktop/GD32VW553/GD32VW55X_Wifi_BLE_SDK/GD32VW55x_RELEASE_V1.0.2/MSDK/plf/GD32VW55x_standard_peripheral/Source\gd32vw55x_usart.c ****     /* get the corresponding flag bit status */
 2106              		.loc 1 1264 18
 2107 0008 93F7F73F 		andi	a5,a5,1023
 2108 000c AA97     		add	a5,a5,a0
 2109              		.loc 1 1266 19
 2110 000e 3A95     		add	a0,a4,a0
 2111              	.LVL131:
1264:C:/Users/stapi/OneDrive/Desktop/GD32VW553/GD32VW55X_Wifi_BLE_SDK/GD32VW55x_RELEASE_V1.0.2/MSDK/plf/GD32VW55x_standard_peripheral/Source\gd32vw55x_usart.c ****     /* get the corresponding flag bit status */
 2112              		.loc 1 1264 18
 2113 0010 9843     		lw	a4,0(a5)
 2114              	.LVL132:
 2115              		.loc 1 1266 5 is_stmt 1
 2116              		.loc 1 1266 19 is_stmt 0
 2117 0012 1C41     		lw	a5,0(a0)
 2118              		.loc 1 1266 60
 2119 0014 13D50501 		srli	a0,a1,16
 2120 0018 3315A028 		bset	a0,x0,a0
 2121              		.loc 1 1266 16
 2122 001c 7D8D     		and	a0,a0,a5
 2123              	.LVL133:
1267:C:/Users/stapi/OneDrive/Desktop/GD32VW553/GD32VW55X_Wifi_BLE_SDK/GD32VW55x_RELEASE_V1.0.2/MSDK/plf/GD32VW55x_standard_peripheral/Source\gd32vw55x_usart.c **** 
1268:C:/Users/stapi/OneDrive/Desktop/GD32VW553/GD32VW55X_Wifi_BLE_SDK/GD32VW55x_RELEASE_V1.0.2/MSDK/plf/GD32VW55x_standard_peripheral/Source\gd32vw55x_usart.c ****     if(flagstatus && intenable){
 2124              		.loc 1 1268 5 is_stmt 1
 2125              		.loc 1 1268 7 is_stmt 0
 2126 001e 19C5     		beq	a0,zero,.L100
1264:C:/Users/stapi/OneDrive/Desktop/GD32VW553/GD32VW55X_Wifi_BLE_SDK/GD32VW55x_RELEASE_V1.0.2/MSDK/plf/GD32VW55x_standard_peripheral/Source\gd32vw55x_usart.c ****     /* get the corresponding flag bit status */
 2127              		.loc 1 1264 58 discriminator 1
 2128 0020 B315B028 		bset	a1,x0,a1
 2129              	.LVL134:
1264:C:/Users/stapi/OneDrive/Desktop/GD32VW553/GD32VW55X_Wifi_BLE_SDK/GD32VW55x_RELEASE_V1.0.2/MSDK/plf/GD32VW55x_standard_peripheral/Source\gd32vw55x_usart.c ****     /* get the corresponding flag bit status */
 2130              		.loc 1 1264 15 discriminator 1
 2131 0024 33F5E500 		and	a0,a1,a4
 2132              	.LVL135:
 2133              		.loc 1 1268 19 discriminator 1
 2134 0028 3335A000 		snez	a0,a0
 2135              	.L100:
1269:C:/Users/stapi/OneDrive/Desktop/GD32VW553/GD32VW55X_Wifi_BLE_SDK/GD32VW55x_RELEASE_V1.0.2/MSDK/plf/GD32VW55x_standard_peripheral/Source\gd32vw55x_usart.c ****         return SET;
1270:C:/Users/stapi/OneDrive/Desktop/GD32VW553/GD32VW55X_Wifi_BLE_SDK/GD32VW55x_RELEASE_V1.0.2/MSDK/plf/GD32VW55x_standard_peripheral/Source\gd32vw55x_usart.c ****     }else{
1271:C:/Users/stapi/OneDrive/Desktop/GD32VW553/GD32VW55X_Wifi_BLE_SDK/GD32VW55x_RELEASE_V1.0.2/MSDK/plf/GD32VW55x_standard_peripheral/Source\gd32vw55x_usart.c ****         return RESET;
1272:C:/Users/stapi/OneDrive/Desktop/GD32VW553/GD32VW55X_Wifi_BLE_SDK/GD32VW55x_RELEASE_V1.0.2/MSDK/plf/GD32VW55x_standard_peripheral/Source\gd32vw55x_usart.c ****     }
1273:C:/Users/stapi/OneDrive/Desktop/GD32VW553/GD32VW55X_Wifi_BLE_SDK/GD32VW55x_RELEASE_V1.0.2/MSDK/plf/GD32VW55x_standard_peripheral/Source\gd32vw55x_usart.c **** }
 2136              		.loc 1 1273 1
 2137 002c 8280     		ret
 2138              		.cfi_endproc
 2139              	.LFE434:
 2141              		.section	.text.usart_interrupt_flag_clear,"ax",@progbits
 2142              		.align	1
 2143              		.globl	usart_interrupt_flag_clear
 2145              	usart_interrupt_flag_clear:
 2146              	.LFB435:
1274:C:/Users/stapi/OneDrive/Desktop/GD32VW553/GD32VW55X_Wifi_BLE_SDK/GD32VW55x_RELEASE_V1.0.2/MSDK/plf/GD32VW55x_standard_peripheral/Source\gd32vw55x_usart.c **** 
1275:C:/Users/stapi/OneDrive/Desktop/GD32VW553/GD32VW55X_Wifi_BLE_SDK/GD32VW55x_RELEASE_V1.0.2/MSDK/plf/GD32VW55x_standard_peripheral/Source\gd32vw55x_usart.c **** /*!
1276:C:/Users/stapi/OneDrive/Desktop/GD32VW553/GD32VW55X_Wifi_BLE_SDK/GD32VW55x_RELEASE_V1.0.2/MSDK/plf/GD32VW55x_standard_peripheral/Source\gd32vw55x_usart.c ****     \brief      clear USART interrupt flag
1277:C:/Users/stapi/OneDrive/Desktop/GD32VW553/GD32VW55X_Wifi_BLE_SDK/GD32VW55x_RELEASE_V1.0.2/MSDK/plf/GD32VW55x_standard_peripheral/Source\gd32vw55x_usart.c ****     \param[in]  usart_periph: USART0/UARTx(x=1,2)
1278:C:/Users/stapi/OneDrive/Desktop/GD32VW553/GD32VW55X_Wifi_BLE_SDK/GD32VW55x_RELEASE_V1.0.2/MSDK/plf/GD32VW55x_standard_peripheral/Source\gd32vw55x_usart.c ****     \param[in]  int_flag: USART interrupt flag
1279:C:/Users/stapi/OneDrive/Desktop/GD32VW553/GD32VW55X_Wifi_BLE_SDK/GD32VW55x_RELEASE_V1.0.2/MSDK/plf/GD32VW55x_standard_peripheral/Source\gd32vw55x_usart.c ****                 only one parameter can be selected which is shown as below:
1280:C:/Users/stapi/OneDrive/Desktop/GD32VW553/GD32VW55X_Wifi_BLE_SDK/GD32VW55x_RELEASE_V1.0.2/MSDK/plf/GD32VW55x_standard_peripheral/Source\gd32vw55x_usart.c ****       \arg        USART_INT_FLAG_PERR: parity error flag
1281:C:/Users/stapi/OneDrive/Desktop/GD32VW553/GD32VW55X_Wifi_BLE_SDK/GD32VW55x_RELEASE_V1.0.2/MSDK/plf/GD32VW55x_standard_peripheral/Source\gd32vw55x_usart.c ****       \arg        USART_INT_FLAG_ERR_FERR: frame error flag
1282:C:/Users/stapi/OneDrive/Desktop/GD32VW553/GD32VW55X_Wifi_BLE_SDK/GD32VW55x_RELEASE_V1.0.2/MSDK/plf/GD32VW55x_standard_peripheral/Source\gd32vw55x_usart.c ****       \arg        USART_INT_FLAG_ERR_NERR: noise detected flag
1283:C:/Users/stapi/OneDrive/Desktop/GD32VW553/GD32VW55X_Wifi_BLE_SDK/GD32VW55x_RELEASE_V1.0.2/MSDK/plf/GD32VW55x_standard_peripheral/Source\gd32vw55x_usart.c ****       \arg        USART_INT_FLAG_RBNE_ORERR: read data buffer not empty interrupt and overrun error
1284:C:/Users/stapi/OneDrive/Desktop/GD32VW553/GD32VW55X_Wifi_BLE_SDK/GD32VW55x_RELEASE_V1.0.2/MSDK/plf/GD32VW55x_standard_peripheral/Source\gd32vw55x_usart.c ****       \arg        USART_INT_FLAG_ERR_ORERR: error interrupt and overrun error
1285:C:/Users/stapi/OneDrive/Desktop/GD32VW553/GD32VW55X_Wifi_BLE_SDK/GD32VW55x_RELEASE_V1.0.2/MSDK/plf/GD32VW55x_standard_peripheral/Source\gd32vw55x_usart.c ****       \arg        USART_INT_FLAG_IDLE: idle line detected flag
1286:C:/Users/stapi/OneDrive/Desktop/GD32VW553/GD32VW55X_Wifi_BLE_SDK/GD32VW55x_RELEASE_V1.0.2/MSDK/plf/GD32VW55x_standard_peripheral/Source\gd32vw55x_usart.c ****       \arg        USART_INT_FLAG_TC: transmission complete flag
1287:C:/Users/stapi/OneDrive/Desktop/GD32VW553/GD32VW55X_Wifi_BLE_SDK/GD32VW55x_RELEASE_V1.0.2/MSDK/plf/GD32VW55x_standard_peripheral/Source\gd32vw55x_usart.c ****       \arg        USART_INT_FLAG_LBD: LIN break detected flag, not available for UARTx(x=1,2)
1288:C:/Users/stapi/OneDrive/Desktop/GD32VW553/GD32VW55X_Wifi_BLE_SDK/GD32VW55x_RELEASE_V1.0.2/MSDK/plf/GD32VW55x_standard_peripheral/Source\gd32vw55x_usart.c ****       \arg        USART_INT_FLAG_CTS: CTS change flag
1289:C:/Users/stapi/OneDrive/Desktop/GD32VW553/GD32VW55X_Wifi_BLE_SDK/GD32VW55x_RELEASE_V1.0.2/MSDK/plf/GD32VW55x_standard_peripheral/Source\gd32vw55x_usart.c ****       \arg        USART_INT_FLAG_RT: receiver timeout flag
1290:C:/Users/stapi/OneDrive/Desktop/GD32VW553/GD32VW55X_Wifi_BLE_SDK/GD32VW55x_RELEASE_V1.0.2/MSDK/plf/GD32VW55x_standard_peripheral/Source\gd32vw55x_usart.c ****       \arg        USART_INT_FLAG_EB: end of block flag, not available for UARTx(x=1,2)
1291:C:/Users/stapi/OneDrive/Desktop/GD32VW553/GD32VW55X_Wifi_BLE_SDK/GD32VW55x_RELEASE_V1.0.2/MSDK/plf/GD32VW55x_standard_peripheral/Source\gd32vw55x_usart.c ****       \arg        USART_INT_FLAG_AM: address match flag
1292:C:/Users/stapi/OneDrive/Desktop/GD32VW553/GD32VW55X_Wifi_BLE_SDK/GD32VW55x_RELEASE_V1.0.2/MSDK/plf/GD32VW55x_standard_peripheral/Source\gd32vw55x_usart.c ****       \arg        USART_INT_FLAG_WU: wakeup from deep-sleep mode flag
1293:C:/Users/stapi/OneDrive/Desktop/GD32VW553/GD32VW55X_Wifi_BLE_SDK/GD32VW55x_RELEASE_V1.0.2/MSDK/plf/GD32VW55x_standard_peripheral/Source\gd32vw55x_usart.c ****       \arg        USART_INT_FLAG_RFF: receive FIFO full interrupt and flag
1294:C:/Users/stapi/OneDrive/Desktop/GD32VW553/GD32VW55X_Wifi_BLE_SDK/GD32VW55x_RELEASE_V1.0.2/MSDK/plf/GD32VW55x_standard_peripheral/Source\gd32vw55x_usart.c ****     \param[out] none
1295:C:/Users/stapi/OneDrive/Desktop/GD32VW553/GD32VW55X_Wifi_BLE_SDK/GD32VW55x_RELEASE_V1.0.2/MSDK/plf/GD32VW55x_standard_peripheral/Source\gd32vw55x_usart.c ****     \retval     none
1296:C:/Users/stapi/OneDrive/Desktop/GD32VW553/GD32VW55X_Wifi_BLE_SDK/GD32VW55x_RELEASE_V1.0.2/MSDK/plf/GD32VW55x_standard_peripheral/Source\gd32vw55x_usart.c **** */
1297:C:/Users/stapi/OneDrive/Desktop/GD32VW553/GD32VW55X_Wifi_BLE_SDK/GD32VW55x_RELEASE_V1.0.2/MSDK/plf/GD32VW55x_standard_peripheral/Source\gd32vw55x_usart.c **** void usart_interrupt_flag_clear(uint32_t usart_periph, usart_interrupt_flag_enum int_flag)
1298:C:/Users/stapi/OneDrive/Desktop/GD32VW553/GD32VW55X_Wifi_BLE_SDK/GD32VW55x_RELEASE_V1.0.2/MSDK/plf/GD32VW55x_standard_peripheral/Source\gd32vw55x_usart.c **** {
 2147              		.loc 1 1298 1 is_stmt 1
 2148              		.cfi_startproc
 2149              	.LVL136:
1299:C:/Users/stapi/OneDrive/Desktop/GD32VW553/GD32VW55X_Wifi_BLE_SDK/GD32VW55x_RELEASE_V1.0.2/MSDK/plf/GD32VW55x_standard_peripheral/Source\gd32vw55x_usart.c ****     if(USART_INT_FLAG_RFF == int_flag){
 2150              		.loc 1 1299 5
 2151              		.loc 1 1299 7 is_stmt 0
 2152 0000 B7370F34 		li	a5,873410560
 2153 0004 93879740 		addi	a5,a5,1033
 2154 0008 6388F500 		beq	a1,a5,.L108
1300:C:/Users/stapi/OneDrive/Desktop/GD32VW553/GD32VW55X_Wifi_BLE_SDK/GD32VW55x_RELEASE_V1.0.2/MSDK/plf/GD32VW55x_standard_peripheral/Source\gd32vw55x_usart.c ****         USART_RFCS(usart_periph) &= (uint32_t)(~USART_RFCS_RFFINT);
1301:C:/Users/stapi/OneDrive/Desktop/GD32VW553/GD32VW55X_Wifi_BLE_SDK/GD32VW55x_RELEASE_V1.0.2/MSDK/plf/GD32VW55x_standard_peripheral/Source\gd32vw55x_usart.c ****     }else{
1302:C:/Users/stapi/OneDrive/Desktop/GD32VW553/GD32VW55X_Wifi_BLE_SDK/GD32VW55x_RELEASE_V1.0.2/MSDK/plf/GD32VW55x_standard_peripheral/Source\gd32vw55x_usart.c ****         USART_INTC(usart_periph) |= BIT(USART_BIT_POS2(int_flag));
 2155              		.loc 1 1302 9 is_stmt 1
 2156              		.loc 1 1302 34 is_stmt 0
 2157 000c 1C51     		lw	a5,32(a0)
 2158              		.loc 1 1302 37
 2159 000e C181     		srli	a1,a1,16
 2160              	.LVL137:
 2161              		.loc 1 1302 34
 2162 0010 B395B728 		bset	a1,a5,a1
 2163 0014 0CD1     		sw	a1,32(a0)
1303:C:/Users/stapi/OneDrive/Desktop/GD32VW553/GD32VW55X_Wifi_BLE_SDK/GD32VW55x_RELEASE_V1.0.2/MSDK/plf/GD32VW55x_standard_peripheral/Source\gd32vw55x_usart.c ****     }
1304:C:/Users/stapi/OneDrive/Desktop/GD32VW553/GD32VW55X_Wifi_BLE_SDK/GD32VW55x_RELEASE_V1.0.2/MSDK/plf/GD32VW55x_standard_peripheral/Source\gd32vw55x_usart.c **** }
 2164              		.loc 1 1304 1
 2165 0016 8280     		ret
 2166              	.LVL138:
 2167              	.L108:
1300:C:/Users/stapi/OneDrive/Desktop/GD32VW553/GD32VW55X_Wifi_BLE_SDK/GD32VW55x_RELEASE_V1.0.2/MSDK/plf/GD32VW55x_standard_peripheral/Source\gd32vw55x_usart.c ****         USART_RFCS(usart_periph) &= (uint32_t)(~USART_RFCS_RFFINT);
 2168              		.loc 1 1300 9 is_stmt 1
1300:C:/Users/stapi/OneDrive/Desktop/GD32VW553/GD32VW55X_Wifi_BLE_SDK/GD32VW55x_RELEASE_V1.0.2/MSDK/plf/GD32VW55x_standard_peripheral/Source\gd32vw55x_usart.c ****         USART_RFCS(usart_periph) &= (uint32_t)(~USART_RFCS_RFFINT);
 2169              		.loc 1 1300 34 is_stmt 0
 2170 0018 8327050D 		lw	a5,208(a0)
 2171 001c 9397F748 		bclri	a5,a5,15
 2172 0020 2328F50C 		sw	a5,208(a0)
 2173 0024 8280     		ret
 2174              		.cfi_endproc
 2175              	.LFE435:
 2177              		.text
 2178              	.Letext0:
 2179              		.file 2 "c:\\users\\stapi\\onedrive\\desktop\\gd32vw553\\embeddedbuilder_v1.4.7.26843\\tools\\nucl
 2180              		.file 3 "c:\\users\\stapi\\onedrive\\desktop\\gd32vw553\\embeddedbuilder_v1.4.7.26843\\tools\\nucl
 2181              		.file 4 "../../../../MSDK/plf/riscv/gd32vw55x/gd32vw55x.h"
 2182              		.file 5 "../../../../MSDK/plf/GD32VW55x_standard_peripheral/Include/gd32vw55x_rcu.h"
 2183              		.file 6 "../../../../MSDK/plf/GD32VW55x_standard_peripheral/Include/gd32vw55x_usart.h"
DEFINED SYMBOLS
                            *ABS*:0000000000000000 gd32vw55x_usart.c
C:\Users\stapi\AppData\Local\Temp\ccdJdmlr.s:13     .text.usart_deinit:0000000000000000 usart_deinit
C:\Users\stapi\AppData\Local\Temp\ccdJdmlr.s:17     .text.usart_deinit:0000000000000000 .L0 
C:\Users\stapi\AppData\Local\Temp\ccdJdmlr.s:19     .text.usart_deinit:0000000000000000 .L0 
C:\Users\stapi\AppData\Local\Temp\ccdJdmlr.s:20     .text.usart_deinit:0000000000000008 .L0 
C:\Users\stapi\AppData\Local\Temp\ccdJdmlr.s:21     .text.usart_deinit:0000000000000008 .L0 
C:\Users\stapi\AppData\Local\Temp\ccdJdmlr.s:22     .text.usart_deinit:0000000000000008 .L0 
C:\Users\stapi\AppData\Local\Temp\ccdJdmlr.s:24     .text.usart_deinit:0000000000000008 .L0 
C:\Users\stapi\AppData\Local\Temp\ccdJdmlr.s:33     .text.usart_deinit:0000000000000028 .L0 
C:\Users\stapi\AppData\Local\Temp\ccdJdmlr.s:34     .text.usart_deinit:0000000000000030 .L0 
C:\Users\stapi\AppData\Local\Temp\ccdJdmlr.s:35     .text.usart_deinit:0000000000000030 .L0 
C:\Users\stapi\AppData\Local\Temp\ccdJdmlr.s:36     .text.usart_deinit:0000000000000030 .L0 
C:\Users\stapi\AppData\Local\Temp\ccdJdmlr.s:37     .text.usart_deinit:0000000000000030 .L0 
C:\Users\stapi\AppData\Local\Temp\ccdJdmlr.s:39     .text.usart_deinit:0000000000000030 .L0 
C:\Users\stapi\AppData\Local\Temp\ccdJdmlr.s:41     .text.usart_deinit:0000000000000030 .L0 
C:\Users\stapi\AppData\Local\Temp\ccdJdmlr.s:47     .text.usart_deinit:000000000000003e .L0 
C:\Users\stapi\AppData\Local\Temp\ccdJdmlr.s:51     .text.usart_deinit:000000000000004a .L0 
C:\Users\stapi\AppData\Local\Temp\ccdJdmlr.s:52     .text.usart_deinit:000000000000004a .L0 
C:\Users\stapi\AppData\Local\Temp\ccdJdmlr.s:53     .text.usart_deinit:0000000000000052 .L0 
C:\Users\stapi\AppData\Local\Temp\ccdJdmlr.s:54     .text.usart_deinit:0000000000000052 .L0 
C:\Users\stapi\AppData\Local\Temp\ccdJdmlr.s:55     .text.usart_deinit:0000000000000052 .L0 
C:\Users\stapi\AppData\Local\Temp\ccdJdmlr.s:56     .text.usart_deinit:0000000000000052 .L0 
C:\Users\stapi\AppData\Local\Temp\ccdJdmlr.s:59     .text.usart_deinit:0000000000000052 .L0 
C:\Users\stapi\AppData\Local\Temp\ccdJdmlr.s:61     .text.usart_deinit:0000000000000052 .L0 
C:\Users\stapi\AppData\Local\Temp\ccdJdmlr.s:67     .text.usart_deinit:0000000000000060 .L0 
C:\Users\stapi\AppData\Local\Temp\ccdJdmlr.s:71     .text.usart_deinit:000000000000006c .L0 
C:\Users\stapi\AppData\Local\Temp\ccdJdmlr.s:72     .text.usart_deinit:000000000000006c .L0 
C:\Users\stapi\AppData\Local\Temp\ccdJdmlr.s:73     .text.usart_deinit:0000000000000074 .L0 
C:\Users\stapi\AppData\Local\Temp\ccdJdmlr.s:74     .text.usart_deinit:0000000000000074 .L0 
C:\Users\stapi\AppData\Local\Temp\ccdJdmlr.s:75     .text.usart_deinit:0000000000000074 .L0 
C:\Users\stapi\AppData\Local\Temp\ccdJdmlr.s:76     .text.usart_deinit:0000000000000074 .L0 
C:\Users\stapi\AppData\Local\Temp\ccdJdmlr.s:79     .text.usart_deinit:0000000000000074 .L0 
C:\Users\stapi\AppData\Local\Temp\ccdJdmlr.s:81     .text.usart_deinit:0000000000000074 .L0 
C:\Users\stapi\AppData\Local\Temp\ccdJdmlr.s:87     .text.usart_deinit:0000000000000082 .L0 
C:\Users\stapi\AppData\Local\Temp\ccdJdmlr.s:91     .text.usart_deinit:000000000000008e .L0 
C:\Users\stapi\AppData\Local\Temp\ccdJdmlr.s:92     .text.usart_deinit:000000000000008e .L0 
C:\Users\stapi\AppData\Local\Temp\ccdJdmlr.s:93     .text.usart_deinit:0000000000000096 .L0 
C:\Users\stapi\AppData\Local\Temp\ccdJdmlr.s:94     .text.usart_deinit:0000000000000096 .L0 
C:\Users\stapi\AppData\Local\Temp\ccdJdmlr.s:95     .text.usart_deinit:0000000000000096 .L0 
C:\Users\stapi\AppData\Local\Temp\ccdJdmlr.s:96     .text.usart_deinit:0000000000000096 .L0 
C:\Users\stapi\AppData\Local\Temp\ccdJdmlr.s:103    .text.usart_baudrate_set:0000000000000000 usart_baudrate_set
C:\Users\stapi\AppData\Local\Temp\ccdJdmlr.s:106    .text.usart_baudrate_set:0000000000000000 .L0 
C:\Users\stapi\AppData\Local\Temp\ccdJdmlr.s:108    .text.usart_baudrate_set:0000000000000000 .L0 
C:\Users\stapi\AppData\Local\Temp\ccdJdmlr.s:109    .text.usart_baudrate_set:0000000000000008 .L0 
C:\Users\stapi\AppData\Local\Temp\ccdJdmlr.s:110    .text.usart_baudrate_set:0000000000000008 .L0 
C:\Users\stapi\AppData\Local\Temp\ccdJdmlr.s:111    .text.usart_baudrate_set:0000000000000008 .L0 
C:\Users\stapi\AppData\Local\Temp\ccdJdmlr.s:112    .text.usart_baudrate_set:0000000000000008 .L0 
C:\Users\stapi\AppData\Local\Temp\ccdJdmlr.s:115    .text.usart_baudrate_set:0000000000000008 .L0 
C:\Users\stapi\AppData\Local\Temp\ccdJdmlr.s:116    .text.usart_baudrate_set:0000000000000008 .L0 
C:\Users\stapi\AppData\Local\Temp\ccdJdmlr.s:119    .text.usart_baudrate_set:0000000000000010 .L0 
C:\Users\stapi\AppData\Local\Temp\ccdJdmlr.s:122    .text.usart_baudrate_set:0000000000000014 .L0 
C:\Users\stapi\AppData\Local\Temp\ccdJdmlr.s:133    .text.usart_baudrate_set:000000000000002e .L0 
C:\Users\stapi\AppData\Local\Temp\ccdJdmlr.s:134    .text.usart_baudrate_set:000000000000002e .L0 
C:\Users\stapi\AppData\Local\Temp\ccdJdmlr.s:136    .text.usart_baudrate_set:0000000000000030 .L0 
C:\Users\stapi\AppData\Local\Temp\ccdJdmlr.s:138    .text.usart_baudrate_set:0000000000000032 .L0 
C:\Users\stapi\AppData\Local\Temp\ccdJdmlr.s:140    .text.usart_baudrate_set:0000000000000036 .L0 
C:\Users\stapi\AppData\Local\Temp\ccdJdmlr.s:142    .text.usart_baudrate_set:0000000000000038 .L0 
C:\Users\stapi\AppData\Local\Temp\ccdJdmlr.s:144    .text.usart_baudrate_set:000000000000003a .L0 
C:\Users\stapi\AppData\Local\Temp\ccdJdmlr.s:145    .text.usart_baudrate_set:000000000000003a .L0 
C:\Users\stapi\AppData\Local\Temp\ccdJdmlr.s:147    .text.usart_baudrate_set:000000000000003e .L0 
C:\Users\stapi\AppData\Local\Temp\ccdJdmlr.s:150    .text.usart_baudrate_set:0000000000000042 .L0 
C:\Users\stapi\AppData\Local\Temp\ccdJdmlr.s:151    .text.usart_baudrate_set:0000000000000042 .L0 
C:\Users\stapi\AppData\Local\Temp\ccdJdmlr.s:152    .text.usart_baudrate_set:0000000000000042 .L0 
C:\Users\stapi\AppData\Local\Temp\ccdJdmlr.s:153    .text.usart_baudrate_set:0000000000000042 .L0 
C:\Users\stapi\AppData\Local\Temp\ccdJdmlr.s:157    .text.usart_baudrate_set:0000000000000046 .L0 
C:\Users\stapi\AppData\Local\Temp\ccdJdmlr.s:159    .text.usart_baudrate_set:000000000000004a .L0 
C:\Users\stapi\AppData\Local\Temp\ccdJdmlr.s:162    .text.usart_baudrate_set:000000000000004c .L0 
C:\Users\stapi\AppData\Local\Temp\ccdJdmlr.s:165    .text.usart_baudrate_set:000000000000004e .L0 
C:\Users\stapi\AppData\Local\Temp\ccdJdmlr.s:167    .text.usart_baudrate_set:0000000000000050 .L0 
C:\Users\stapi\AppData\Local\Temp\ccdJdmlr.s:169    .text.usart_baudrate_set:0000000000000052 .L0 
C:\Users\stapi\AppData\Local\Temp\ccdJdmlr.s:170    .text.usart_baudrate_set:000000000000005a .L0 
C:\Users\stapi\AppData\Local\Temp\ccdJdmlr.s:171    .text.usart_baudrate_set:000000000000005a .L0 
C:\Users\stapi\AppData\Local\Temp\ccdJdmlr.s:172    .text.usart_baudrate_set:000000000000005a .L0 
C:\Users\stapi\AppData\Local\Temp\ccdJdmlr.s:173    .text.usart_baudrate_set:000000000000005a .L0 
C:\Users\stapi\AppData\Local\Temp\ccdJdmlr.s:174    .text.usart_baudrate_set:000000000000005a .L0 
C:\Users\stapi\AppData\Local\Temp\ccdJdmlr.s:177    .text.usart_baudrate_set:000000000000005a .L0 
C:\Users\stapi\AppData\Local\Temp\ccdJdmlr.s:179    .text.usart_baudrate_set:000000000000005a .L0 
C:\Users\stapi\AppData\Local\Temp\ccdJdmlr.s:180    .text.usart_baudrate_set:000000000000005a .L0 
C:\Users\stapi\AppData\Local\Temp\ccdJdmlr.s:181    .text.usart_baudrate_set:000000000000005a .L0 
C:\Users\stapi\AppData\Local\Temp\ccdJdmlr.s:182    .text.usart_baudrate_set:000000000000005a .L0 
C:\Users\stapi\AppData\Local\Temp\ccdJdmlr.s:183    .text.usart_baudrate_set:000000000000005a .L0 
C:\Users\stapi\AppData\Local\Temp\ccdJdmlr.s:185    .text.usart_baudrate_set:000000000000005e .L0 
C:\Users\stapi\AppData\Local\Temp\ccdJdmlr.s:188    .text.usart_baudrate_set:0000000000000062 .L0 
C:\Users\stapi\AppData\Local\Temp\ccdJdmlr.s:191    .text.usart_baudrate_set:0000000000000066 .L0 
C:\Users\stapi\AppData\Local\Temp\ccdJdmlr.s:193    .text.usart_baudrate_set:0000000000000068 .L0 
C:\Users\stapi\AppData\Local\Temp\ccdJdmlr.s:194    .text.usart_baudrate_set:0000000000000070 .L0 
C:\Users\stapi\AppData\Local\Temp\ccdJdmlr.s:195    .text.usart_baudrate_set:0000000000000070 .L0 
C:\Users\stapi\AppData\Local\Temp\ccdJdmlr.s:196    .text.usart_baudrate_set:0000000000000070 .L0 
C:\Users\stapi\AppData\Local\Temp\ccdJdmlr.s:197    .text.usart_baudrate_set:0000000000000070 .L0 
C:\Users\stapi\AppData\Local\Temp\ccdJdmlr.s:198    .text.usart_baudrate_set:0000000000000070 .L0 
C:\Users\stapi\AppData\Local\Temp\ccdJdmlr.s:201    .text.usart_baudrate_set:0000000000000070 .L0 
C:\Users\stapi\AppData\Local\Temp\ccdJdmlr.s:203    .text.usart_baudrate_set:0000000000000070 .L0 
C:\Users\stapi\AppData\Local\Temp\ccdJdmlr.s:204    .text.usart_baudrate_set:0000000000000070 .L0 
C:\Users\stapi\AppData\Local\Temp\ccdJdmlr.s:208    .text.usart_baudrate_set:000000000000007a .L0 
C:\Users\stapi\AppData\Local\Temp\ccdJdmlr.s:212    .text.usart_baudrate_set:000000000000007c .L0 
C:\Users\stapi\AppData\Local\Temp\ccdJdmlr.s:213    .text.usart_baudrate_set:000000000000007c .L0 
C:\Users\stapi\AppData\Local\Temp\ccdJdmlr.s:217    .text.usart_baudrate_set:0000000000000086 .L0 
C:\Users\stapi\AppData\Local\Temp\ccdJdmlr.s:221    .text.usart_baudrate_set:0000000000000088 .L0 
C:\Users\stapi\AppData\Local\Temp\ccdJdmlr.s:222    .text.usart_baudrate_set:0000000000000088 .L0 
C:\Users\stapi\AppData\Local\Temp\ccdJdmlr.s:226    .text.usart_baudrate_set:0000000000000092 .L0 
C:\Users\stapi\AppData\Local\Temp\ccdJdmlr.s:227    .text.usart_baudrate_set:0000000000000094 .L0 
C:\Users\stapi\AppData\Local\Temp\ccdJdmlr.s:234    .text.usart_parity_config:0000000000000000 usart_parity_config
C:\Users\stapi\AppData\Local\Temp\ccdJdmlr.s:237    .text.usart_parity_config:0000000000000000 .L0 
C:\Users\stapi\AppData\Local\Temp\ccdJdmlr.s:239    .text.usart_parity_config:0000000000000000 .L0 
C:\Users\stapi\AppData\Local\Temp\ccdJdmlr.s:240    .text.usart_parity_config:0000000000000000 .L0 
C:\Users\stapi\AppData\Local\Temp\ccdJdmlr.s:241    .text.usart_parity_config:0000000000000000 .L0 
C:\Users\stapi\AppData\Local\Temp\ccdJdmlr.s:245    .text.usart_parity_config:0000000000000006 .L0 
C:\Users\stapi\AppData\Local\Temp\ccdJdmlr.s:246    .text.usart_parity_config:0000000000000006 .L0 
C:\Users\stapi\AppData\Local\Temp\ccdJdmlr.s:250    .text.usart_parity_config:000000000000000e .L0 
C:\Users\stapi\AppData\Local\Temp\ccdJdmlr.s:251    .text.usart_parity_config:000000000000000e .L0 
C:\Users\stapi\AppData\Local\Temp\ccdJdmlr.s:255    .text.usart_parity_config:0000000000000014 .L0 
C:\Users\stapi\AppData\Local\Temp\ccdJdmlr.s:256    .text.usart_parity_config:0000000000000016 .L0 
C:\Users\stapi\AppData\Local\Temp\ccdJdmlr.s:263    .text.usart_word_length_set:0000000000000000 usart_word_length_set
C:\Users\stapi\AppData\Local\Temp\ccdJdmlr.s:266    .text.usart_word_length_set:0000000000000000 .L0 
C:\Users\stapi\AppData\Local\Temp\ccdJdmlr.s:268    .text.usart_word_length_set:0000000000000000 .L0 
C:\Users\stapi\AppData\Local\Temp\ccdJdmlr.s:269    .text.usart_word_length_set:0000000000000000 .L0 
C:\Users\stapi\AppData\Local\Temp\ccdJdmlr.s:270    .text.usart_word_length_set:0000000000000000 .L0 
C:\Users\stapi\AppData\Local\Temp\ccdJdmlr.s:274    .text.usart_word_length_set:0000000000000006 .L0 
C:\Users\stapi\AppData\Local\Temp\ccdJdmlr.s:275    .text.usart_word_length_set:0000000000000006 .L0 
C:\Users\stapi\AppData\Local\Temp\ccdJdmlr.s:279    .text.usart_word_length_set:000000000000000e .L0 
C:\Users\stapi\AppData\Local\Temp\ccdJdmlr.s:280    .text.usart_word_length_set:000000000000000e .L0 
C:\Users\stapi\AppData\Local\Temp\ccdJdmlr.s:284    .text.usart_word_length_set:0000000000000014 .L0 
C:\Users\stapi\AppData\Local\Temp\ccdJdmlr.s:285    .text.usart_word_length_set:0000000000000016 .L0 
C:\Users\stapi\AppData\Local\Temp\ccdJdmlr.s:292    .text.usart_stop_bit_set:0000000000000000 usart_stop_bit_set
C:\Users\stapi\AppData\Local\Temp\ccdJdmlr.s:295    .text.usart_stop_bit_set:0000000000000000 .L0 
C:\Users\stapi\AppData\Local\Temp\ccdJdmlr.s:297    .text.usart_stop_bit_set:0000000000000000 .L0 
C:\Users\stapi\AppData\Local\Temp\ccdJdmlr.s:298    .text.usart_stop_bit_set:0000000000000000 .L0 
C:\Users\stapi\AppData\Local\Temp\ccdJdmlr.s:299    .text.usart_stop_bit_set:0000000000000000 .L0 
C:\Users\stapi\AppData\Local\Temp\ccdJdmlr.s:301    .text.usart_stop_bit_set:0000000000000002 .L0 
C:\Users\stapi\AppData\Local\Temp\ccdJdmlr.s:304    .text.usart_stop_bit_set:0000000000000006 .L0 
C:\Users\stapi\AppData\Local\Temp\ccdJdmlr.s:307    .text.usart_stop_bit_set:000000000000000a .L0 
C:\Users\stapi\AppData\Local\Temp\ccdJdmlr.s:308    .text.usart_stop_bit_set:000000000000000a .L0 
C:\Users\stapi\AppData\Local\Temp\ccdJdmlr.s:312    .text.usart_stop_bit_set:0000000000000010 .L0 
C:\Users\stapi\AppData\Local\Temp\ccdJdmlr.s:313    .text.usart_stop_bit_set:0000000000000010 .L0 
C:\Users\stapi\AppData\Local\Temp\ccdJdmlr.s:317    .text.usart_stop_bit_set:0000000000000016 .L0 
C:\Users\stapi\AppData\Local\Temp\ccdJdmlr.s:318    .text.usart_stop_bit_set:0000000000000018 .L0 
C:\Users\stapi\AppData\Local\Temp\ccdJdmlr.s:325    .text.usart_enable:0000000000000000 usart_enable
C:\Users\stapi\AppData\Local\Temp\ccdJdmlr.s:328    .text.usart_enable:0000000000000000 .L0 
C:\Users\stapi\AppData\Local\Temp\ccdJdmlr.s:330    .text.usart_enable:0000000000000000 .L0 
C:\Users\stapi\AppData\Local\Temp\ccdJdmlr.s:331    .text.usart_enable:0000000000000000 .L0 
C:\Users\stapi\AppData\Local\Temp\ccdJdmlr.s:332    .text.usart_enable:0000000000000000 .L0 
C:\Users\stapi\AppData\Local\Temp\ccdJdmlr.s:336    .text.usart_enable:0000000000000008 .L0 
C:\Users\stapi\AppData\Local\Temp\ccdJdmlr.s:337    .text.usart_enable:000000000000000a .L0 
C:\Users\stapi\AppData\Local\Temp\ccdJdmlr.s:344    .text.usart_disable:0000000000000000 usart_disable
C:\Users\stapi\AppData\Local\Temp\ccdJdmlr.s:347    .text.usart_disable:0000000000000000 .L0 
C:\Users\stapi\AppData\Local\Temp\ccdJdmlr.s:349    .text.usart_disable:0000000000000000 .L0 
C:\Users\stapi\AppData\Local\Temp\ccdJdmlr.s:350    .text.usart_disable:0000000000000000 .L0 
C:\Users\stapi\AppData\Local\Temp\ccdJdmlr.s:351    .text.usart_disable:0000000000000000 .L0 
C:\Users\stapi\AppData\Local\Temp\ccdJdmlr.s:355    .text.usart_disable:0000000000000006 .L0 
C:\Users\stapi\AppData\Local\Temp\ccdJdmlr.s:356    .text.usart_disable:0000000000000008 .L0 
C:\Users\stapi\AppData\Local\Temp\ccdJdmlr.s:363    .text.usart_transmit_config:0000000000000000 usart_transmit_config
C:\Users\stapi\AppData\Local\Temp\ccdJdmlr.s:366    .text.usart_transmit_config:0000000000000000 .L0 
C:\Users\stapi\AppData\Local\Temp\ccdJdmlr.s:368    .text.usart_transmit_config:0000000000000000 .L0 
C:\Users\stapi\AppData\Local\Temp\ccdJdmlr.s:369    .text.usart_transmit_config:0000000000000000 .L0 
C:\Users\stapi\AppData\Local\Temp\ccdJdmlr.s:370    .text.usart_transmit_config:0000000000000000 .L0 
C:\Users\stapi\AppData\Local\Temp\ccdJdmlr.s:374    .text.usart_transmit_config:0000000000000006 .L0 
C:\Users\stapi\AppData\Local\Temp\ccdJdmlr.s:375    .text.usart_transmit_config:0000000000000006 .L0 
C:\Users\stapi\AppData\Local\Temp\ccdJdmlr.s:379    .text.usart_transmit_config:000000000000000c .L0 
C:\Users\stapi\AppData\Local\Temp\ccdJdmlr.s:380    .text.usart_transmit_config:000000000000000e .L0 
C:\Users\stapi\AppData\Local\Temp\ccdJdmlr.s:387    .text.usart_receive_config:0000000000000000 usart_receive_config
C:\Users\stapi\AppData\Local\Temp\ccdJdmlr.s:390    .text.usart_receive_config:0000000000000000 .L0 
C:\Users\stapi\AppData\Local\Temp\ccdJdmlr.s:392    .text.usart_receive_config:0000000000000000 .L0 
C:\Users\stapi\AppData\Local\Temp\ccdJdmlr.s:393    .text.usart_receive_config:0000000000000000 .L0 
C:\Users\stapi\AppData\Local\Temp\ccdJdmlr.s:394    .text.usart_receive_config:0000000000000000 .L0 
C:\Users\stapi\AppData\Local\Temp\ccdJdmlr.s:398    .text.usart_receive_config:0000000000000006 .L0 
C:\Users\stapi\AppData\Local\Temp\ccdJdmlr.s:399    .text.usart_receive_config:0000000000000006 .L0 
C:\Users\stapi\AppData\Local\Temp\ccdJdmlr.s:403    .text.usart_receive_config:000000000000000c .L0 
C:\Users\stapi\AppData\Local\Temp\ccdJdmlr.s:404    .text.usart_receive_config:000000000000000e .L0 
C:\Users\stapi\AppData\Local\Temp\ccdJdmlr.s:411    .text.usart_data_first_config:0000000000000000 usart_data_first_config
C:\Users\stapi\AppData\Local\Temp\ccdJdmlr.s:414    .text.usart_data_first_config:0000000000000000 .L0 
C:\Users\stapi\AppData\Local\Temp\ccdJdmlr.s:416    .text.usart_data_first_config:0000000000000000 .L0 
C:\Users\stapi\AppData\Local\Temp\ccdJdmlr.s:417    .text.usart_data_first_config:0000000000000000 .L0 
C:\Users\stapi\AppData\Local\Temp\ccdJdmlr.s:418    .text.usart_data_first_config:0000000000000000 .L0 
C:\Users\stapi\AppData\Local\Temp\ccdJdmlr.s:422    .text.usart_data_first_config:0000000000000006 .L0 
C:\Users\stapi\AppData\Local\Temp\ccdJdmlr.s:423    .text.usart_data_first_config:0000000000000006 .L0 
C:\Users\stapi\AppData\Local\Temp\ccdJdmlr.s:427    .text.usart_data_first_config:000000000000000e .L0 
C:\Users\stapi\AppData\Local\Temp\ccdJdmlr.s:428    .text.usart_data_first_config:000000000000000e .L0 
C:\Users\stapi\AppData\Local\Temp\ccdJdmlr.s:432    .text.usart_data_first_config:0000000000000014 .L0 
C:\Users\stapi\AppData\Local\Temp\ccdJdmlr.s:433    .text.usart_data_first_config:0000000000000016 .L0 
C:\Users\stapi\AppData\Local\Temp\ccdJdmlr.s:440    .text.usart_invert_config:0000000000000000 usart_invert_config
C:\Users\stapi\AppData\Local\Temp\ccdJdmlr.s:443    .text.usart_invert_config:0000000000000000 .L0 
C:\Users\stapi\AppData\Local\Temp\ccdJdmlr.s:445    .text.usart_invert_config:0000000000000000 .L0 
C:\Users\stapi\AppData\Local\Temp\ccdJdmlr.s:446    .text.usart_invert_config:0000000000000000 .L0 
C:\Users\stapi\AppData\Local\Temp\ccdJdmlr.s:447    .text.usart_invert_config:0000000000000000 .L0 
C:\Users\stapi\AppData\Local\Temp\ccdJdmlr.s:451    .text.usart_invert_config:0000000000000006 .L0 
C:\Users\stapi\AppData\Local\Temp\ccdJdmlr.s:474    .text.usart_invert_config:000000000000001c .L0 
C:\Users\stapi\AppData\Local\Temp\ccdJdmlr.s:475    .text.usart_invert_config:000000000000001c .L0 
C:\Users\stapi\AppData\Local\Temp\ccdJdmlr.s:480    .text.usart_invert_config:0000000000000024 .L0 
C:\Users\stapi\AppData\Local\Temp\ccdJdmlr.s:481    .text.usart_invert_config:0000000000000024 .L0 
C:\Users\stapi\AppData\Local\Temp\ccdJdmlr.s:484    .text.usart_invert_config:0000000000000026 .L0 
C:\Users\stapi\AppData\Local\Temp\ccdJdmlr.s:485    .text.usart_invert_config:0000000000000026 .L0 
C:\Users\stapi\AppData\Local\Temp\ccdJdmlr.s:489    .text.usart_invert_config:000000000000002e .L0 
C:\Users\stapi\AppData\Local\Temp\ccdJdmlr.s:492    .text.usart_invert_config:0000000000000030 .L0 
C:\Users\stapi\AppData\Local\Temp\ccdJdmlr.s:493    .text.usart_invert_config:0000000000000030 .L0 
C:\Users\stapi\AppData\Local\Temp\ccdJdmlr.s:497    .text.usart_invert_config:0000000000000038 .L0 
C:\Users\stapi\AppData\Local\Temp\ccdJdmlr.s:500    .text.usart_invert_config:000000000000003a .L0 
C:\Users\stapi\AppData\Local\Temp\ccdJdmlr.s:501    .text.usart_invert_config:000000000000003a .L0 
C:\Users\stapi\AppData\Local\Temp\ccdJdmlr.s:505    .text.usart_invert_config:0000000000000042 .L0 
C:\Users\stapi\AppData\Local\Temp\ccdJdmlr.s:508    .text.usart_invert_config:0000000000000044 .L0 
C:\Users\stapi\AppData\Local\Temp\ccdJdmlr.s:509    .text.usart_invert_config:0000000000000044 .L0 
C:\Users\stapi\AppData\Local\Temp\ccdJdmlr.s:513    .text.usart_invert_config:000000000000004c .L0 
C:\Users\stapi\AppData\Local\Temp\ccdJdmlr.s:516    .text.usart_invert_config:000000000000004e .L0 
C:\Users\stapi\AppData\Local\Temp\ccdJdmlr.s:517    .text.usart_invert_config:000000000000004e .L0 
C:\Users\stapi\AppData\Local\Temp\ccdJdmlr.s:521    .text.usart_invert_config:0000000000000056 .L0 
C:\Users\stapi\AppData\Local\Temp\ccdJdmlr.s:524    .text.usart_invert_config:0000000000000058 .L0 
C:\Users\stapi\AppData\Local\Temp\ccdJdmlr.s:525    .text.usart_invert_config:0000000000000058 .L0 
C:\Users\stapi\AppData\Local\Temp\ccdJdmlr.s:529    .text.usart_invert_config:0000000000000060 .L0 
C:\Users\stapi\AppData\Local\Temp\ccdJdmlr.s:532    .text.usart_invert_config:0000000000000062 .L0 
C:\Users\stapi\AppData\Local\Temp\ccdJdmlr.s:533    .text.usart_invert_config:0000000000000062 .L0 
C:\Users\stapi\AppData\Local\Temp\ccdJdmlr.s:537    .text.usart_invert_config:000000000000006a .L0 
C:\Users\stapi\AppData\Local\Temp\ccdJdmlr.s:538    .text.usart_invert_config:000000000000006c .L0 
C:\Users\stapi\AppData\Local\Temp\ccdJdmlr.s:545    .text.usart_overrun_enable:0000000000000000 usart_overrun_enable
C:\Users\stapi\AppData\Local\Temp\ccdJdmlr.s:548    .text.usart_overrun_enable:0000000000000000 .L0 
C:\Users\stapi\AppData\Local\Temp\ccdJdmlr.s:550    .text.usart_overrun_enable:0000000000000000 .L0 
C:\Users\stapi\AppData\Local\Temp\ccdJdmlr.s:551    .text.usart_overrun_enable:0000000000000000 .L0 
C:\Users\stapi\AppData\Local\Temp\ccdJdmlr.s:552    .text.usart_overrun_enable:0000000000000000 .L0 
C:\Users\stapi\AppData\Local\Temp\ccdJdmlr.s:556    .text.usart_overrun_enable:0000000000000006 .L0 
C:\Users\stapi\AppData\Local\Temp\ccdJdmlr.s:557    .text.usart_overrun_enable:0000000000000006 .L0 
C:\Users\stapi\AppData\Local\Temp\ccdJdmlr.s:561    .text.usart_overrun_enable:000000000000000e .L0 
C:\Users\stapi\AppData\Local\Temp\ccdJdmlr.s:562    .text.usart_overrun_enable:0000000000000010 .L0 
C:\Users\stapi\AppData\Local\Temp\ccdJdmlr.s:569    .text.usart_overrun_disable:0000000000000000 usart_overrun_disable
C:\Users\stapi\AppData\Local\Temp\ccdJdmlr.s:572    .text.usart_overrun_disable:0000000000000000 .L0 
C:\Users\stapi\AppData\Local\Temp\ccdJdmlr.s:574    .text.usart_overrun_disable:0000000000000000 .L0 
C:\Users\stapi\AppData\Local\Temp\ccdJdmlr.s:575    .text.usart_overrun_disable:0000000000000000 .L0 
C:\Users\stapi\AppData\Local\Temp\ccdJdmlr.s:576    .text.usart_overrun_disable:0000000000000000 .L0 
C:\Users\stapi\AppData\Local\Temp\ccdJdmlr.s:580    .text.usart_overrun_disable:0000000000000006 .L0 
C:\Users\stapi\AppData\Local\Temp\ccdJdmlr.s:581    .text.usart_overrun_disable:0000000000000006 .L0 
C:\Users\stapi\AppData\Local\Temp\ccdJdmlr.s:585    .text.usart_overrun_disable:000000000000000e .L0 
C:\Users\stapi\AppData\Local\Temp\ccdJdmlr.s:586    .text.usart_overrun_disable:0000000000000010 .L0 
C:\Users\stapi\AppData\Local\Temp\ccdJdmlr.s:593    .text.usart_oversample_config:0000000000000000 usart_oversample_config
C:\Users\stapi\AppData\Local\Temp\ccdJdmlr.s:596    .text.usart_oversample_config:0000000000000000 .L0 
C:\Users\stapi\AppData\Local\Temp\ccdJdmlr.s:598    .text.usart_oversample_config:0000000000000000 .L0 
C:\Users\stapi\AppData\Local\Temp\ccdJdmlr.s:599    .text.usart_oversample_config:0000000000000000 .L0 
C:\Users\stapi\AppData\Local\Temp\ccdJdmlr.s:600    .text.usart_oversample_config:0000000000000000 .L0 
C:\Users\stapi\AppData\Local\Temp\ccdJdmlr.s:604    .text.usart_oversample_config:0000000000000006 .L0 
C:\Users\stapi\AppData\Local\Temp\ccdJdmlr.s:605    .text.usart_oversample_config:0000000000000006 .L0 
C:\Users\stapi\AppData\Local\Temp\ccdJdmlr.s:609    .text.usart_oversample_config:000000000000000e .L0 
C:\Users\stapi\AppData\Local\Temp\ccdJdmlr.s:610    .text.usart_oversample_config:000000000000000e .L0 
C:\Users\stapi\AppData\Local\Temp\ccdJdmlr.s:614    .text.usart_oversample_config:0000000000000014 .L0 
C:\Users\stapi\AppData\Local\Temp\ccdJdmlr.s:615    .text.usart_oversample_config:0000000000000016 .L0 
C:\Users\stapi\AppData\Local\Temp\ccdJdmlr.s:622    .text.usart_sample_bit_config:0000000000000000 usart_sample_bit_config
C:\Users\stapi\AppData\Local\Temp\ccdJdmlr.s:625    .text.usart_sample_bit_config:0000000000000000 .L0 
C:\Users\stapi\AppData\Local\Temp\ccdJdmlr.s:627    .text.usart_sample_bit_config:0000000000000000 .L0 
C:\Users\stapi\AppData\Local\Temp\ccdJdmlr.s:628    .text.usart_sample_bit_config:0000000000000000 .L0 
C:\Users\stapi\AppData\Local\Temp\ccdJdmlr.s:629    .text.usart_sample_bit_config:0000000000000000 .L0 
C:\Users\stapi\AppData\Local\Temp\ccdJdmlr.s:633    .text.usart_sample_bit_config:0000000000000006 .L0 
C:\Users\stapi\AppData\Local\Temp\ccdJdmlr.s:634    .text.usart_sample_bit_config:0000000000000006 .L0 
C:\Users\stapi\AppData\Local\Temp\ccdJdmlr.s:638    .text.usart_sample_bit_config:000000000000000e .L0 
C:\Users\stapi\AppData\Local\Temp\ccdJdmlr.s:639    .text.usart_sample_bit_config:000000000000000e .L0 
C:\Users\stapi\AppData\Local\Temp\ccdJdmlr.s:643    .text.usart_sample_bit_config:0000000000000014 .L0 
C:\Users\stapi\AppData\Local\Temp\ccdJdmlr.s:644    .text.usart_sample_bit_config:0000000000000016 .L0 
C:\Users\stapi\AppData\Local\Temp\ccdJdmlr.s:651    .text.usart_receiver_timeout_enable:0000000000000000 usart_receiver_timeout_enable
C:\Users\stapi\AppData\Local\Temp\ccdJdmlr.s:654    .text.usart_receiver_timeout_enable:0000000000000000 .L0 
C:\Users\stapi\AppData\Local\Temp\ccdJdmlr.s:656    .text.usart_receiver_timeout_enable:0000000000000000 .L0 
C:\Users\stapi\AppData\Local\Temp\ccdJdmlr.s:657    .text.usart_receiver_timeout_enable:0000000000000000 .L0 
C:\Users\stapi\AppData\Local\Temp\ccdJdmlr.s:658    .text.usart_receiver_timeout_enable:0000000000000000 .L0 
C:\Users\stapi\AppData\Local\Temp\ccdJdmlr.s:662    .text.usart_receiver_timeout_enable:0000000000000008 .L0 
C:\Users\stapi\AppData\Local\Temp\ccdJdmlr.s:663    .text.usart_receiver_timeout_enable:000000000000000a .L0 
C:\Users\stapi\AppData\Local\Temp\ccdJdmlr.s:670    .text.usart_receiver_timeout_disable:0000000000000000 usart_receiver_timeout_disable
C:\Users\stapi\AppData\Local\Temp\ccdJdmlr.s:673    .text.usart_receiver_timeout_disable:0000000000000000 .L0 
C:\Users\stapi\AppData\Local\Temp\ccdJdmlr.s:675    .text.usart_receiver_timeout_disable:0000000000000000 .L0 
C:\Users\stapi\AppData\Local\Temp\ccdJdmlr.s:676    .text.usart_receiver_timeout_disable:0000000000000000 .L0 
C:\Users\stapi\AppData\Local\Temp\ccdJdmlr.s:677    .text.usart_receiver_timeout_disable:0000000000000000 .L0 
C:\Users\stapi\AppData\Local\Temp\ccdJdmlr.s:681    .text.usart_receiver_timeout_disable:0000000000000008 .L0 
C:\Users\stapi\AppData\Local\Temp\ccdJdmlr.s:682    .text.usart_receiver_timeout_disable:000000000000000a .L0 
C:\Users\stapi\AppData\Local\Temp\ccdJdmlr.s:689    .text.usart_receiver_timeout_threshold_config:0000000000000000 usart_receiver_timeout_threshold_config
C:\Users\stapi\AppData\Local\Temp\ccdJdmlr.s:692    .text.usart_receiver_timeout_threshold_config:0000000000000000 .L0 
C:\Users\stapi\AppData\Local\Temp\ccdJdmlr.s:694    .text.usart_receiver_timeout_threshold_config:0000000000000000 .L0 
C:\Users\stapi\AppData\Local\Temp\ccdJdmlr.s:695    .text.usart_receiver_timeout_threshold_config:0000000000000000 .L0 
C:\Users\stapi\AppData\Local\Temp\ccdJdmlr.s:696    .text.usart_receiver_timeout_threshold_config:0000000000000000 .L0 
C:\Users\stapi\AppData\Local\Temp\ccdJdmlr.s:701    .text.usart_receiver_timeout_threshold_config:000000000000000a .L0 
C:\Users\stapi\AppData\Local\Temp\ccdJdmlr.s:702    .text.usart_receiver_timeout_threshold_config:000000000000000a .L0 
C:\Users\stapi\AppData\Local\Temp\ccdJdmlr.s:706    .text.usart_receiver_timeout_threshold_config:0000000000000010 .L0 
C:\Users\stapi\AppData\Local\Temp\ccdJdmlr.s:707    .text.usart_receiver_timeout_threshold_config:0000000000000012 .L0 
C:\Users\stapi\AppData\Local\Temp\ccdJdmlr.s:714    .text.usart_data_transmit:0000000000000000 usart_data_transmit
C:\Users\stapi\AppData\Local\Temp\ccdJdmlr.s:717    .text.usart_data_transmit:0000000000000000 .L0 
C:\Users\stapi\AppData\Local\Temp\ccdJdmlr.s:719    .text.usart_data_transmit:0000000000000000 .L0 
C:\Users\stapi\AppData\Local\Temp\ccdJdmlr.s:720    .text.usart_data_transmit:0000000000000000 .L0 
C:\Users\stapi\AppData\Local\Temp\ccdJdmlr.s:721    .text.usart_data_transmit:0000000000000000 .L0 
C:\Users\stapi\AppData\Local\Temp\ccdJdmlr.s:724    .text.usart_data_transmit:0000000000000004 .L0 
C:\Users\stapi\AppData\Local\Temp\ccdJdmlr.s:726    .text.usart_data_transmit:0000000000000006 .L0 
C:\Users\stapi\AppData\Local\Temp\ccdJdmlr.s:727    .text.usart_data_transmit:0000000000000008 .L0 
C:\Users\stapi\AppData\Local\Temp\ccdJdmlr.s:734    .text.usart_data_receive:0000000000000000 usart_data_receive
C:\Users\stapi\AppData\Local\Temp\ccdJdmlr.s:737    .text.usart_data_receive:0000000000000000 .L0 
C:\Users\stapi\AppData\Local\Temp\ccdJdmlr.s:739    .text.usart_data_receive:0000000000000000 .L0 
C:\Users\stapi\AppData\Local\Temp\ccdJdmlr.s:740    .text.usart_data_receive:0000000000000000 .L0 
C:\Users\stapi\AppData\Local\Temp\ccdJdmlr.s:741    .text.usart_data_receive:0000000000000000 .L0 
C:\Users\stapi\AppData\Local\Temp\ccdJdmlr.s:744    .text.usart_data_receive:0000000000000002 .L0 
C:\Users\stapi\AppData\Local\Temp\ccdJdmlr.s:746    .text.usart_data_receive:0000000000000008 .L0 
C:\Users\stapi\AppData\Local\Temp\ccdJdmlr.s:753    .text.usart_command_enable:0000000000000000 usart_command_enable
C:\Users\stapi\AppData\Local\Temp\ccdJdmlr.s:756    .text.usart_command_enable:0000000000000000 .L0 
C:\Users\stapi\AppData\Local\Temp\ccdJdmlr.s:758    .text.usart_command_enable:0000000000000000 .L0 
C:\Users\stapi\AppData\Local\Temp\ccdJdmlr.s:759    .text.usart_command_enable:0000000000000000 .L0 
C:\Users\stapi\AppData\Local\Temp\ccdJdmlr.s:760    .text.usart_command_enable:0000000000000000 .L0 
C:\Users\stapi\AppData\Local\Temp\ccdJdmlr.s:764    .text.usart_command_enable:0000000000000006 .L0 
C:\Users\stapi\AppData\Local\Temp\ccdJdmlr.s:765    .text.usart_command_enable:0000000000000008 .L0 
C:\Users\stapi\AppData\Local\Temp\ccdJdmlr.s:772    .text.usart_address_config:0000000000000000 usart_address_config
C:\Users\stapi\AppData\Local\Temp\ccdJdmlr.s:775    .text.usart_address_config:0000000000000000 .L0 
C:\Users\stapi\AppData\Local\Temp\ccdJdmlr.s:777    .text.usart_address_config:0000000000000000 .L0 
C:\Users\stapi\AppData\Local\Temp\ccdJdmlr.s:778    .text.usart_address_config:0000000000000000 .L0 
C:\Users\stapi\AppData\Local\Temp\ccdJdmlr.s:779    .text.usart_address_config:0000000000000000 .L0 
C:\Users\stapi\AppData\Local\Temp\ccdJdmlr.s:781    .text.usart_address_config:0000000000000002 .L0 
C:\Users\stapi\AppData\Local\Temp\ccdJdmlr.s:784    .text.usart_address_config:0000000000000004 .L0 
C:\Users\stapi\AppData\Local\Temp\ccdJdmlr.s:787    .text.usart_address_config:0000000000000008 .L0 
C:\Users\stapi\AppData\Local\Temp\ccdJdmlr.s:788    .text.usart_address_config:0000000000000008 .L0 
C:\Users\stapi\AppData\Local\Temp\ccdJdmlr.s:793    .text.usart_address_config:0000000000000010 .L0 
C:\Users\stapi\AppData\Local\Temp\ccdJdmlr.s:794    .text.usart_address_config:0000000000000010 .L0 
C:\Users\stapi\AppData\Local\Temp\ccdJdmlr.s:798    .text.usart_address_config:0000000000000016 .L0 
C:\Users\stapi\AppData\Local\Temp\ccdJdmlr.s:799    .text.usart_address_config:0000000000000018 .L0 
C:\Users\stapi\AppData\Local\Temp\ccdJdmlr.s:806    .text.usart_address_detection_mode_config:0000000000000000 usart_address_detection_mode_config
C:\Users\stapi\AppData\Local\Temp\ccdJdmlr.s:809    .text.usart_address_detection_mode_config:0000000000000000 .L0 
C:\Users\stapi\AppData\Local\Temp\ccdJdmlr.s:811    .text.usart_address_detection_mode_config:0000000000000000 .L0 
C:\Users\stapi\AppData\Local\Temp\ccdJdmlr.s:812    .text.usart_address_detection_mode_config:0000000000000000 .L0 
C:\Users\stapi\AppData\Local\Temp\ccdJdmlr.s:813    .text.usart_address_detection_mode_config:0000000000000000 .L0 
C:\Users\stapi\AppData\Local\Temp\ccdJdmlr.s:815    .text.usart_address_detection_mode_config:0000000000000002 .L0 
C:\Users\stapi\AppData\Local\Temp\ccdJdmlr.s:818    .text.usart_address_detection_mode_config:0000000000000004 .L0 
C:\Users\stapi\AppData\Local\Temp\ccdJdmlr.s:821    .text.usart_address_detection_mode_config:0000000000000008 .L0 
C:\Users\stapi\AppData\Local\Temp\ccdJdmlr.s:822    .text.usart_address_detection_mode_config:0000000000000008 .L0 
C:\Users\stapi\AppData\Local\Temp\ccdJdmlr.s:826    .text.usart_address_detection_mode_config:000000000000000e .L0 
C:\Users\stapi\AppData\Local\Temp\ccdJdmlr.s:827    .text.usart_address_detection_mode_config:000000000000000e .L0 
C:\Users\stapi\AppData\Local\Temp\ccdJdmlr.s:831    .text.usart_address_detection_mode_config:0000000000000014 .L0 
C:\Users\stapi\AppData\Local\Temp\ccdJdmlr.s:832    .text.usart_address_detection_mode_config:0000000000000016 .L0 
C:\Users\stapi\AppData\Local\Temp\ccdJdmlr.s:839    .text.usart_mute_mode_enable:0000000000000000 usart_mute_mode_enable
C:\Users\stapi\AppData\Local\Temp\ccdJdmlr.s:842    .text.usart_mute_mode_enable:0000000000000000 .L0 
C:\Users\stapi\AppData\Local\Temp\ccdJdmlr.s:844    .text.usart_mute_mode_enable:0000000000000000 .L0 
C:\Users\stapi\AppData\Local\Temp\ccdJdmlr.s:845    .text.usart_mute_mode_enable:0000000000000000 .L0 
C:\Users\stapi\AppData\Local\Temp\ccdJdmlr.s:846    .text.usart_mute_mode_enable:0000000000000000 .L0 
C:\Users\stapi\AppData\Local\Temp\ccdJdmlr.s:850    .text.usart_mute_mode_enable:0000000000000008 .L0 
C:\Users\stapi\AppData\Local\Temp\ccdJdmlr.s:851    .text.usart_mute_mode_enable:000000000000000a .L0 
C:\Users\stapi\AppData\Local\Temp\ccdJdmlr.s:858    .text.usart_mute_mode_disable:0000000000000000 usart_mute_mode_disable
C:\Users\stapi\AppData\Local\Temp\ccdJdmlr.s:861    .text.usart_mute_mode_disable:0000000000000000 .L0 
C:\Users\stapi\AppData\Local\Temp\ccdJdmlr.s:863    .text.usart_mute_mode_disable:0000000000000000 .L0 
C:\Users\stapi\AppData\Local\Temp\ccdJdmlr.s:864    .text.usart_mute_mode_disable:0000000000000000 .L0 
C:\Users\stapi\AppData\Local\Temp\ccdJdmlr.s:865    .text.usart_mute_mode_disable:0000000000000000 .L0 
C:\Users\stapi\AppData\Local\Temp\ccdJdmlr.s:869    .text.usart_mute_mode_disable:0000000000000008 .L0 
C:\Users\stapi\AppData\Local\Temp\ccdJdmlr.s:870    .text.usart_mute_mode_disable:000000000000000a .L0 
C:\Users\stapi\AppData\Local\Temp\ccdJdmlr.s:877    .text.usart_mute_mode_wakeup_config:0000000000000000 usart_mute_mode_wakeup_config
C:\Users\stapi\AppData\Local\Temp\ccdJdmlr.s:880    .text.usart_mute_mode_wakeup_config:0000000000000000 .L0 
C:\Users\stapi\AppData\Local\Temp\ccdJdmlr.s:882    .text.usart_mute_mode_wakeup_config:0000000000000000 .L0 
C:\Users\stapi\AppData\Local\Temp\ccdJdmlr.s:883    .text.usart_mute_mode_wakeup_config:0000000000000000 .L0 
C:\Users\stapi\AppData\Local\Temp\ccdJdmlr.s:884    .text.usart_mute_mode_wakeup_config:0000000000000000 .L0 
C:\Users\stapi\AppData\Local\Temp\ccdJdmlr.s:888    .text.usart_mute_mode_wakeup_config:0000000000000006 .L0 
C:\Users\stapi\AppData\Local\Temp\ccdJdmlr.s:889    .text.usart_mute_mode_wakeup_config:0000000000000006 .L0 
C:\Users\stapi\AppData\Local\Temp\ccdJdmlr.s:893    .text.usart_mute_mode_wakeup_config:000000000000000e .L0 
C:\Users\stapi\AppData\Local\Temp\ccdJdmlr.s:894    .text.usart_mute_mode_wakeup_config:000000000000000e .L0 
C:\Users\stapi\AppData\Local\Temp\ccdJdmlr.s:898    .text.usart_mute_mode_wakeup_config:0000000000000014 .L0 
C:\Users\stapi\AppData\Local\Temp\ccdJdmlr.s:899    .text.usart_mute_mode_wakeup_config:0000000000000016 .L0 
C:\Users\stapi\AppData\Local\Temp\ccdJdmlr.s:906    .text.usart_lin_mode_enable:0000000000000000 usart_lin_mode_enable
C:\Users\stapi\AppData\Local\Temp\ccdJdmlr.s:909    .text.usart_lin_mode_enable:0000000000000000 .L0 
C:\Users\stapi\AppData\Local\Temp\ccdJdmlr.s:911    .text.usart_lin_mode_enable:0000000000000000 .L0 
C:\Users\stapi\AppData\Local\Temp\ccdJdmlr.s:912    .text.usart_lin_mode_enable:0000000000000000 .L0 
C:\Users\stapi\AppData\Local\Temp\ccdJdmlr.s:913    .text.usart_lin_mode_enable:0000000000000000 .L0 
C:\Users\stapi\AppData\Local\Temp\ccdJdmlr.s:917    .text.usart_lin_mode_enable:0000000000000006 .L0 
C:\Users\stapi\AppData\Local\Temp\ccdJdmlr.s:918    .text.usart_lin_mode_enable:0000000000000006 .L0 
C:\Users\stapi\AppData\Local\Temp\ccdJdmlr.s:922    .text.usart_lin_mode_enable:000000000000000e .L0 
C:\Users\stapi\AppData\Local\Temp\ccdJdmlr.s:923    .text.usart_lin_mode_enable:0000000000000010 .L0 
C:\Users\stapi\AppData\Local\Temp\ccdJdmlr.s:930    .text.usart_lin_mode_disable:0000000000000000 usart_lin_mode_disable
C:\Users\stapi\AppData\Local\Temp\ccdJdmlr.s:933    .text.usart_lin_mode_disable:0000000000000000 .L0 
C:\Users\stapi\AppData\Local\Temp\ccdJdmlr.s:935    .text.usart_lin_mode_disable:0000000000000000 .L0 
C:\Users\stapi\AppData\Local\Temp\ccdJdmlr.s:936    .text.usart_lin_mode_disable:0000000000000000 .L0 
C:\Users\stapi\AppData\Local\Temp\ccdJdmlr.s:937    .text.usart_lin_mode_disable:0000000000000000 .L0 
C:\Users\stapi\AppData\Local\Temp\ccdJdmlr.s:941    .text.usart_lin_mode_disable:0000000000000006 .L0 
C:\Users\stapi\AppData\Local\Temp\ccdJdmlr.s:942    .text.usart_lin_mode_disable:0000000000000006 .L0 
C:\Users\stapi\AppData\Local\Temp\ccdJdmlr.s:946    .text.usart_lin_mode_disable:000000000000000e .L0 
C:\Users\stapi\AppData\Local\Temp\ccdJdmlr.s:947    .text.usart_lin_mode_disable:0000000000000010 .L0 
C:\Users\stapi\AppData\Local\Temp\ccdJdmlr.s:954    .text.usart_lin_break_detection_length_config:0000000000000000 usart_lin_break_detection_length_config
C:\Users\stapi\AppData\Local\Temp\ccdJdmlr.s:957    .text.usart_lin_break_detection_length_config:0000000000000000 .L0 
C:\Users\stapi\AppData\Local\Temp\ccdJdmlr.s:959    .text.usart_lin_break_detection_length_config:0000000000000000 .L0 
C:\Users\stapi\AppData\Local\Temp\ccdJdmlr.s:960    .text.usart_lin_break_detection_length_config:0000000000000000 .L0 
C:\Users\stapi\AppData\Local\Temp\ccdJdmlr.s:961    .text.usart_lin_break_detection_length_config:0000000000000000 .L0 
C:\Users\stapi\AppData\Local\Temp\ccdJdmlr.s:963    .text.usart_lin_break_detection_length_config:0000000000000002 .L0 
C:\Users\stapi\AppData\Local\Temp\ccdJdmlr.s:966    .text.usart_lin_break_detection_length_config:0000000000000006 .L0 
C:\Users\stapi\AppData\Local\Temp\ccdJdmlr.s:969    .text.usart_lin_break_detection_length_config:000000000000000a .L0 
C:\Users\stapi\AppData\Local\Temp\ccdJdmlr.s:970    .text.usart_lin_break_detection_length_config:000000000000000a .L0 
C:\Users\stapi\AppData\Local\Temp\ccdJdmlr.s:974    .text.usart_lin_break_detection_length_config:0000000000000012 .L0 
C:\Users\stapi\AppData\Local\Temp\ccdJdmlr.s:975    .text.usart_lin_break_detection_length_config:0000000000000012 .L0 
C:\Users\stapi\AppData\Local\Temp\ccdJdmlr.s:979    .text.usart_lin_break_detection_length_config:0000000000000018 .L0 
C:\Users\stapi\AppData\Local\Temp\ccdJdmlr.s:980    .text.usart_lin_break_detection_length_config:000000000000001a .L0 
C:\Users\stapi\AppData\Local\Temp\ccdJdmlr.s:987    .text.usart_halfduplex_enable:0000000000000000 usart_halfduplex_enable
C:\Users\stapi\AppData\Local\Temp\ccdJdmlr.s:990    .text.usart_halfduplex_enable:0000000000000000 .L0 
C:\Users\stapi\AppData\Local\Temp\ccdJdmlr.s:992    .text.usart_halfduplex_enable:0000000000000000 .L0 
C:\Users\stapi\AppData\Local\Temp\ccdJdmlr.s:993    .text.usart_halfduplex_enable:0000000000000000 .L0 
C:\Users\stapi\AppData\Local\Temp\ccdJdmlr.s:994    .text.usart_halfduplex_enable:0000000000000000 .L0 
C:\Users\stapi\AppData\Local\Temp\ccdJdmlr.s:998    .text.usart_halfduplex_enable:0000000000000006 .L0 
C:\Users\stapi\AppData\Local\Temp\ccdJdmlr.s:999    .text.usart_halfduplex_enable:0000000000000006 .L0 
C:\Users\stapi\AppData\Local\Temp\ccdJdmlr.s:1003   .text.usart_halfduplex_enable:000000000000000e .L0 
C:\Users\stapi\AppData\Local\Temp\ccdJdmlr.s:1004   .text.usart_halfduplex_enable:0000000000000010 .L0 
C:\Users\stapi\AppData\Local\Temp\ccdJdmlr.s:1011   .text.usart_halfduplex_disable:0000000000000000 usart_halfduplex_disable
C:\Users\stapi\AppData\Local\Temp\ccdJdmlr.s:1014   .text.usart_halfduplex_disable:0000000000000000 .L0 
C:\Users\stapi\AppData\Local\Temp\ccdJdmlr.s:1016   .text.usart_halfduplex_disable:0000000000000000 .L0 
C:\Users\stapi\AppData\Local\Temp\ccdJdmlr.s:1017   .text.usart_halfduplex_disable:0000000000000000 .L0 
C:\Users\stapi\AppData\Local\Temp\ccdJdmlr.s:1018   .text.usart_halfduplex_disable:0000000000000000 .L0 
C:\Users\stapi\AppData\Local\Temp\ccdJdmlr.s:1022   .text.usart_halfduplex_disable:0000000000000006 .L0 
C:\Users\stapi\AppData\Local\Temp\ccdJdmlr.s:1023   .text.usart_halfduplex_disable:0000000000000006 .L0 
C:\Users\stapi\AppData\Local\Temp\ccdJdmlr.s:1027   .text.usart_halfduplex_disable:000000000000000c .L0 
C:\Users\stapi\AppData\Local\Temp\ccdJdmlr.s:1028   .text.usart_halfduplex_disable:000000000000000e .L0 
C:\Users\stapi\AppData\Local\Temp\ccdJdmlr.s:1035   .text.usart_clock_enable:0000000000000000 usart_clock_enable
C:\Users\stapi\AppData\Local\Temp\ccdJdmlr.s:1038   .text.usart_clock_enable:0000000000000000 .L0 
C:\Users\stapi\AppData\Local\Temp\ccdJdmlr.s:1040   .text.usart_clock_enable:0000000000000000 .L0 
C:\Users\stapi\AppData\Local\Temp\ccdJdmlr.s:1041   .text.usart_clock_enable:0000000000000000 .L0 
C:\Users\stapi\AppData\Local\Temp\ccdJdmlr.s:1042   .text.usart_clock_enable:0000000000000000 .L0 
C:\Users\stapi\AppData\Local\Temp\ccdJdmlr.s:1046   .text.usart_clock_enable:0000000000000006 .L0 
C:\Users\stapi\AppData\Local\Temp\ccdJdmlr.s:1047   .text.usart_clock_enable:0000000000000006 .L0 
C:\Users\stapi\AppData\Local\Temp\ccdJdmlr.s:1051   .text.usart_clock_enable:000000000000000e .L0 
C:\Users\stapi\AppData\Local\Temp\ccdJdmlr.s:1052   .text.usart_clock_enable:0000000000000010 .L0 
C:\Users\stapi\AppData\Local\Temp\ccdJdmlr.s:1059   .text.usart_clock_disable:0000000000000000 usart_clock_disable
C:\Users\stapi\AppData\Local\Temp\ccdJdmlr.s:1062   .text.usart_clock_disable:0000000000000000 .L0 
C:\Users\stapi\AppData\Local\Temp\ccdJdmlr.s:1064   .text.usart_clock_disable:0000000000000000 .L0 
C:\Users\stapi\AppData\Local\Temp\ccdJdmlr.s:1065   .text.usart_clock_disable:0000000000000000 .L0 
C:\Users\stapi\AppData\Local\Temp\ccdJdmlr.s:1066   .text.usart_clock_disable:0000000000000000 .L0 
C:\Users\stapi\AppData\Local\Temp\ccdJdmlr.s:1070   .text.usart_clock_disable:0000000000000006 .L0 
C:\Users\stapi\AppData\Local\Temp\ccdJdmlr.s:1071   .text.usart_clock_disable:0000000000000006 .L0 
C:\Users\stapi\AppData\Local\Temp\ccdJdmlr.s:1075   .text.usart_clock_disable:000000000000000e .L0 
C:\Users\stapi\AppData\Local\Temp\ccdJdmlr.s:1076   .text.usart_clock_disable:0000000000000010 .L0 
C:\Users\stapi\AppData\Local\Temp\ccdJdmlr.s:1083   .text.usart_synchronous_clock_config:0000000000000000 usart_synchronous_clock_config
C:\Users\stapi\AppData\Local\Temp\ccdJdmlr.s:1086   .text.usart_synchronous_clock_config:0000000000000000 .L0 
C:\Users\stapi\AppData\Local\Temp\ccdJdmlr.s:1088   .text.usart_synchronous_clock_config:0000000000000000 .L0 
C:\Users\stapi\AppData\Local\Temp\ccdJdmlr.s:1089   .text.usart_synchronous_clock_config:0000000000000000 .L0 
C:\Users\stapi\AppData\Local\Temp\ccdJdmlr.s:1090   .text.usart_synchronous_clock_config:0000000000000000 .L0 
C:\Users\stapi\AppData\Local\Temp\ccdJdmlr.s:1092   .text.usart_synchronous_clock_config:0000000000000002 .L0 
C:\Users\stapi\AppData\Local\Temp\ccdJdmlr.s:1095   .text.usart_synchronous_clock_config:0000000000000006 .L0 
C:\Users\stapi\AppData\Local\Temp\ccdJdmlr.s:1098   .text.usart_synchronous_clock_config:000000000000000a .L0 
C:\Users\stapi\AppData\Local\Temp\ccdJdmlr.s:1101   .text.usart_synchronous_clock_config:000000000000000e .L0 
C:\Users\stapi\AppData\Local\Temp\ccdJdmlr.s:1102   .text.usart_synchronous_clock_config:000000000000000e .L0 
C:\Users\stapi\AppData\Local\Temp\ccdJdmlr.s:1104   .text.usart_synchronous_clock_config:0000000000000010 .L0 
C:\Users\stapi\AppData\Local\Temp\ccdJdmlr.s:1106   .text.usart_synchronous_clock_config:0000000000000012 .L0 
C:\Users\stapi\AppData\Local\Temp\ccdJdmlr.s:1109   .text.usart_synchronous_clock_config:0000000000000016 .L0 
C:\Users\stapi\AppData\Local\Temp\ccdJdmlr.s:1112   .text.usart_synchronous_clock_config:000000000000001c .L0 
C:\Users\stapi\AppData\Local\Temp\ccdJdmlr.s:1113   .text.usart_synchronous_clock_config:000000000000001c .L0 
C:\Users\stapi\AppData\Local\Temp\ccdJdmlr.s:1115   .text.usart_synchronous_clock_config:000000000000001e .L0 
C:\Users\stapi\AppData\Local\Temp\ccdJdmlr.s:1117   .text.usart_synchronous_clock_config:0000000000000020 .L0 
C:\Users\stapi\AppData\Local\Temp\ccdJdmlr.s:1120   .text.usart_synchronous_clock_config:0000000000000024 .L0 
C:\Users\stapi\AppData\Local\Temp\ccdJdmlr.s:1121   .text.usart_synchronous_clock_config:0000000000000026 .L0 
C:\Users\stapi\AppData\Local\Temp\ccdJdmlr.s:1128   .text.usart_guard_time_config:0000000000000000 usart_guard_time_config
C:\Users\stapi\AppData\Local\Temp\ccdJdmlr.s:1131   .text.usart_guard_time_config:0000000000000000 .L0 
C:\Users\stapi\AppData\Local\Temp\ccdJdmlr.s:1133   .text.usart_guard_time_config:0000000000000000 .L0 
C:\Users\stapi\AppData\Local\Temp\ccdJdmlr.s:1134   .text.usart_guard_time_config:0000000000000000 .L0 
C:\Users\stapi\AppData\Local\Temp\ccdJdmlr.s:1135   .text.usart_guard_time_config:0000000000000000 .L0 
C:\Users\stapi\AppData\Local\Temp\ccdJdmlr.s:1137   .text.usart_guard_time_config:0000000000000002 .L0 
C:\Users\stapi\AppData\Local\Temp\ccdJdmlr.s:1140   .text.usart_guard_time_config:0000000000000008 .L0 
C:\Users\stapi\AppData\Local\Temp\ccdJdmlr.s:1143   .text.usart_guard_time_config:000000000000000c .L0 
C:\Users\stapi\AppData\Local\Temp\ccdJdmlr.s:1144   .text.usart_guard_time_config:000000000000000c .L0 
C:\Users\stapi\AppData\Local\Temp\ccdJdmlr.s:1146   .text.usart_guard_time_config:000000000000000e .L0 
C:\Users\stapi\AppData\Local\Temp\ccdJdmlr.s:1149   .text.usart_guard_time_config:0000000000000010 .L0 
C:\Users\stapi\AppData\Local\Temp\ccdJdmlr.s:1152   .text.usart_guard_time_config:0000000000000014 .L0 
C:\Users\stapi\AppData\Local\Temp\ccdJdmlr.s:1153   .text.usart_guard_time_config:0000000000000014 .L0 
C:\Users\stapi\AppData\Local\Temp\ccdJdmlr.s:1157   .text.usart_guard_time_config:000000000000001a .L0 
C:\Users\stapi\AppData\Local\Temp\ccdJdmlr.s:1158   .text.usart_guard_time_config:000000000000001c .L0 
C:\Users\stapi\AppData\Local\Temp\ccdJdmlr.s:1165   .text.usart_smartcard_mode_enable:0000000000000000 usart_smartcard_mode_enable
C:\Users\stapi\AppData\Local\Temp\ccdJdmlr.s:1168   .text.usart_smartcard_mode_enable:0000000000000000 .L0 
C:\Users\stapi\AppData\Local\Temp\ccdJdmlr.s:1170   .text.usart_smartcard_mode_enable:0000000000000000 .L0 
C:\Users\stapi\AppData\Local\Temp\ccdJdmlr.s:1171   .text.usart_smartcard_mode_enable:0000000000000000 .L0 
C:\Users\stapi\AppData\Local\Temp\ccdJdmlr.s:1172   .text.usart_smartcard_mode_enable:0000000000000000 .L0 
C:\Users\stapi\AppData\Local\Temp\ccdJdmlr.s:1176   .text.usart_smartcard_mode_enable:0000000000000006 .L0 
C:\Users\stapi\AppData\Local\Temp\ccdJdmlr.s:1177   .text.usart_smartcard_mode_enable:0000000000000006 .L0 
C:\Users\stapi\AppData\Local\Temp\ccdJdmlr.s:1181   .text.usart_smartcard_mode_enable:000000000000000e .L0 
C:\Users\stapi\AppData\Local\Temp\ccdJdmlr.s:1182   .text.usart_smartcard_mode_enable:0000000000000010 .L0 
C:\Users\stapi\AppData\Local\Temp\ccdJdmlr.s:1189   .text.usart_smartcard_mode_disable:0000000000000000 usart_smartcard_mode_disable
C:\Users\stapi\AppData\Local\Temp\ccdJdmlr.s:1192   .text.usart_smartcard_mode_disable:0000000000000000 .L0 
C:\Users\stapi\AppData\Local\Temp\ccdJdmlr.s:1194   .text.usart_smartcard_mode_disable:0000000000000000 .L0 
C:\Users\stapi\AppData\Local\Temp\ccdJdmlr.s:1195   .text.usart_smartcard_mode_disable:0000000000000000 .L0 
C:\Users\stapi\AppData\Local\Temp\ccdJdmlr.s:1196   .text.usart_smartcard_mode_disable:0000000000000000 .L0 
C:\Users\stapi\AppData\Local\Temp\ccdJdmlr.s:1200   .text.usart_smartcard_mode_disable:0000000000000006 .L0 
C:\Users\stapi\AppData\Local\Temp\ccdJdmlr.s:1201   .text.usart_smartcard_mode_disable:0000000000000006 .L0 
C:\Users\stapi\AppData\Local\Temp\ccdJdmlr.s:1205   .text.usart_smartcard_mode_disable:000000000000000e .L0 
C:\Users\stapi\AppData\Local\Temp\ccdJdmlr.s:1206   .text.usart_smartcard_mode_disable:0000000000000010 .L0 
C:\Users\stapi\AppData\Local\Temp\ccdJdmlr.s:1213   .text.usart_smartcard_mode_nack_enable:0000000000000000 usart_smartcard_mode_nack_enable
C:\Users\stapi\AppData\Local\Temp\ccdJdmlr.s:1216   .text.usart_smartcard_mode_nack_enable:0000000000000000 .L0 
C:\Users\stapi\AppData\Local\Temp\ccdJdmlr.s:1218   .text.usart_smartcard_mode_nack_enable:0000000000000000 .L0 
C:\Users\stapi\AppData\Local\Temp\ccdJdmlr.s:1219   .text.usart_smartcard_mode_nack_enable:0000000000000000 .L0 
C:\Users\stapi\AppData\Local\Temp\ccdJdmlr.s:1220   .text.usart_smartcard_mode_nack_enable:0000000000000000 .L0 
C:\Users\stapi\AppData\Local\Temp\ccdJdmlr.s:1224   .text.usart_smartcard_mode_nack_enable:0000000000000006 .L0 
C:\Users\stapi\AppData\Local\Temp\ccdJdmlr.s:1225   .text.usart_smartcard_mode_nack_enable:0000000000000006 .L0 
C:\Users\stapi\AppData\Local\Temp\ccdJdmlr.s:1229   .text.usart_smartcard_mode_nack_enable:000000000000000e .L0 
C:\Users\stapi\AppData\Local\Temp\ccdJdmlr.s:1230   .text.usart_smartcard_mode_nack_enable:0000000000000010 .L0 
C:\Users\stapi\AppData\Local\Temp\ccdJdmlr.s:1237   .text.usart_smartcard_mode_nack_disable:0000000000000000 usart_smartcard_mode_nack_disable
C:\Users\stapi\AppData\Local\Temp\ccdJdmlr.s:1240   .text.usart_smartcard_mode_nack_disable:0000000000000000 .L0 
C:\Users\stapi\AppData\Local\Temp\ccdJdmlr.s:1242   .text.usart_smartcard_mode_nack_disable:0000000000000000 .L0 
C:\Users\stapi\AppData\Local\Temp\ccdJdmlr.s:1243   .text.usart_smartcard_mode_nack_disable:0000000000000000 .L0 
C:\Users\stapi\AppData\Local\Temp\ccdJdmlr.s:1244   .text.usart_smartcard_mode_nack_disable:0000000000000000 .L0 
C:\Users\stapi\AppData\Local\Temp\ccdJdmlr.s:1248   .text.usart_smartcard_mode_nack_disable:0000000000000006 .L0 
C:\Users\stapi\AppData\Local\Temp\ccdJdmlr.s:1249   .text.usart_smartcard_mode_nack_disable:0000000000000006 .L0 
C:\Users\stapi\AppData\Local\Temp\ccdJdmlr.s:1253   .text.usart_smartcard_mode_nack_disable:000000000000000c .L0 
C:\Users\stapi\AppData\Local\Temp\ccdJdmlr.s:1254   .text.usart_smartcard_mode_nack_disable:000000000000000e .L0 
C:\Users\stapi\AppData\Local\Temp\ccdJdmlr.s:1261   .text.usart_smartcard_mode_early_nack_enable:0000000000000000 usart_smartcard_mode_early_nack_enable
C:\Users\stapi\AppData\Local\Temp\ccdJdmlr.s:1264   .text.usart_smartcard_mode_early_nack_enable:0000000000000000 .L0 
C:\Users\stapi\AppData\Local\Temp\ccdJdmlr.s:1266   .text.usart_smartcard_mode_early_nack_enable:0000000000000000 .L0 
C:\Users\stapi\AppData\Local\Temp\ccdJdmlr.s:1267   .text.usart_smartcard_mode_early_nack_enable:0000000000000000 .L0 
C:\Users\stapi\AppData\Local\Temp\ccdJdmlr.s:1268   .text.usart_smartcard_mode_early_nack_enable:0000000000000000 .L0 
C:\Users\stapi\AppData\Local\Temp\ccdJdmlr.s:1272   .text.usart_smartcard_mode_early_nack_enable:000000000000000c .L0 
C:\Users\stapi\AppData\Local\Temp\ccdJdmlr.s:1273   .text.usart_smartcard_mode_early_nack_enable:000000000000000e .L0 
C:\Users\stapi\AppData\Local\Temp\ccdJdmlr.s:1280   .text.usart_smartcard_mode_early_nack_disable:0000000000000000 usart_smartcard_mode_early_nack_disable
C:\Users\stapi\AppData\Local\Temp\ccdJdmlr.s:1283   .text.usart_smartcard_mode_early_nack_disable:0000000000000000 .L0 
C:\Users\stapi\AppData\Local\Temp\ccdJdmlr.s:1285   .text.usart_smartcard_mode_early_nack_disable:0000000000000000 .L0 
C:\Users\stapi\AppData\Local\Temp\ccdJdmlr.s:1286   .text.usart_smartcard_mode_early_nack_disable:0000000000000000 .L0 
C:\Users\stapi\AppData\Local\Temp\ccdJdmlr.s:1287   .text.usart_smartcard_mode_early_nack_disable:0000000000000000 .L0 
C:\Users\stapi\AppData\Local\Temp\ccdJdmlr.s:1291   .text.usart_smartcard_mode_early_nack_disable:000000000000000a .L0 
C:\Users\stapi\AppData\Local\Temp\ccdJdmlr.s:1292   .text.usart_smartcard_mode_early_nack_disable:000000000000000c .L0 
C:\Users\stapi\AppData\Local\Temp\ccdJdmlr.s:1299   .text.usart_smartcard_autoretry_config:0000000000000000 usart_smartcard_autoretry_config
C:\Users\stapi\AppData\Local\Temp\ccdJdmlr.s:1302   .text.usart_smartcard_autoretry_config:0000000000000000 .L0 
C:\Users\stapi\AppData\Local\Temp\ccdJdmlr.s:1304   .text.usart_smartcard_autoretry_config:0000000000000000 .L0 
C:\Users\stapi\AppData\Local\Temp\ccdJdmlr.s:1305   .text.usart_smartcard_autoretry_config:0000000000000000 .L0 
C:\Users\stapi\AppData\Local\Temp\ccdJdmlr.s:1306   .text.usart_smartcard_autoretry_config:0000000000000000 .L0 
C:\Users\stapi\AppData\Local\Temp\ccdJdmlr.s:1308   .text.usart_smartcard_autoretry_config:0000000000000002 .L0 
C:\Users\stapi\AppData\Local\Temp\ccdJdmlr.s:1311   .text.usart_smartcard_autoretry_config:0000000000000008 .L0 
C:\Users\stapi\AppData\Local\Temp\ccdJdmlr.s:1314   .text.usart_smartcard_autoretry_config:000000000000000c .L0 
C:\Users\stapi\AppData\Local\Temp\ccdJdmlr.s:1315   .text.usart_smartcard_autoretry_config:000000000000000c .L0 
C:\Users\stapi\AppData\Local\Temp\ccdJdmlr.s:1317   .text.usart_smartcard_autoretry_config:000000000000000e .L0 
C:\Users\stapi\AppData\Local\Temp\ccdJdmlr.s:1320   .text.usart_smartcard_autoretry_config:0000000000000010 .L0 
C:\Users\stapi\AppData\Local\Temp\ccdJdmlr.s:1323   .text.usart_smartcard_autoretry_config:0000000000000014 .L0 
C:\Users\stapi\AppData\Local\Temp\ccdJdmlr.s:1324   .text.usart_smartcard_autoretry_config:0000000000000014 .L0 
C:\Users\stapi\AppData\Local\Temp\ccdJdmlr.s:1326   .text.usart_smartcard_autoretry_config:0000000000000016 .L0 
C:\Users\stapi\AppData\Local\Temp\ccdJdmlr.s:1329   .text.usart_smartcard_autoretry_config:000000000000001c .L0 
C:\Users\stapi\AppData\Local\Temp\ccdJdmlr.s:1332   .text.usart_smartcard_autoretry_config:0000000000000020 .L0 
C:\Users\stapi\AppData\Local\Temp\ccdJdmlr.s:1333   .text.usart_smartcard_autoretry_config:0000000000000022 .L0 
C:\Users\stapi\AppData\Local\Temp\ccdJdmlr.s:1340   .text.usart_block_length_config:0000000000000000 usart_block_length_config
C:\Users\stapi\AppData\Local\Temp\ccdJdmlr.s:1343   .text.usart_block_length_config:0000000000000000 .L0 
C:\Users\stapi\AppData\Local\Temp\ccdJdmlr.s:1345   .text.usart_block_length_config:0000000000000000 .L0 
C:\Users\stapi\AppData\Local\Temp\ccdJdmlr.s:1346   .text.usart_block_length_config:0000000000000000 .L0 
C:\Users\stapi\AppData\Local\Temp\ccdJdmlr.s:1347   .text.usart_block_length_config:0000000000000000 .L0 
C:\Users\stapi\AppData\Local\Temp\ccdJdmlr.s:1349   .text.usart_block_length_config:0000000000000002 .L0 
C:\Users\stapi\AppData\Local\Temp\ccdJdmlr.s:1352   .text.usart_block_length_config:0000000000000004 .L0 
C:\Users\stapi\AppData\Local\Temp\ccdJdmlr.s:1356   .text.usart_block_length_config:000000000000000a .L0 
C:\Users\stapi\AppData\Local\Temp\ccdJdmlr.s:1357   .text.usart_block_length_config:000000000000000a .L0 
C:\Users\stapi\AppData\Local\Temp\ccdJdmlr.s:1361   .text.usart_block_length_config:0000000000000010 .L0 
C:\Users\stapi\AppData\Local\Temp\ccdJdmlr.s:1362   .text.usart_block_length_config:0000000000000012 .L0 
C:\Users\stapi\AppData\Local\Temp\ccdJdmlr.s:1369   .text.usart_irda_mode_enable:0000000000000000 usart_irda_mode_enable
C:\Users\stapi\AppData\Local\Temp\ccdJdmlr.s:1372   .text.usart_irda_mode_enable:0000000000000000 .L0 
C:\Users\stapi\AppData\Local\Temp\ccdJdmlr.s:1374   .text.usart_irda_mode_enable:0000000000000000 .L0 
C:\Users\stapi\AppData\Local\Temp\ccdJdmlr.s:1375   .text.usart_irda_mode_enable:0000000000000000 .L0 
C:\Users\stapi\AppData\Local\Temp\ccdJdmlr.s:1376   .text.usart_irda_mode_enable:0000000000000000 .L0 
C:\Users\stapi\AppData\Local\Temp\ccdJdmlr.s:1380   .text.usart_irda_mode_enable:0000000000000006 .L0 
C:\Users\stapi\AppData\Local\Temp\ccdJdmlr.s:1381   .text.usart_irda_mode_enable:0000000000000006 .L0 
C:\Users\stapi\AppData\Local\Temp\ccdJdmlr.s:1385   .text.usart_irda_mode_enable:000000000000000e .L0 
C:\Users\stapi\AppData\Local\Temp\ccdJdmlr.s:1386   .text.usart_irda_mode_enable:0000000000000010 .L0 
C:\Users\stapi\AppData\Local\Temp\ccdJdmlr.s:1393   .text.usart_irda_mode_disable:0000000000000000 usart_irda_mode_disable
C:\Users\stapi\AppData\Local\Temp\ccdJdmlr.s:1396   .text.usart_irda_mode_disable:0000000000000000 .L0 
C:\Users\stapi\AppData\Local\Temp\ccdJdmlr.s:1398   .text.usart_irda_mode_disable:0000000000000000 .L0 
C:\Users\stapi\AppData\Local\Temp\ccdJdmlr.s:1399   .text.usart_irda_mode_disable:0000000000000000 .L0 
C:\Users\stapi\AppData\Local\Temp\ccdJdmlr.s:1400   .text.usart_irda_mode_disable:0000000000000000 .L0 
C:\Users\stapi\AppData\Local\Temp\ccdJdmlr.s:1404   .text.usart_irda_mode_disable:0000000000000006 .L0 
C:\Users\stapi\AppData\Local\Temp\ccdJdmlr.s:1405   .text.usart_irda_mode_disable:0000000000000006 .L0 
C:\Users\stapi\AppData\Local\Temp\ccdJdmlr.s:1409   .text.usart_irda_mode_disable:000000000000000c .L0 
C:\Users\stapi\AppData\Local\Temp\ccdJdmlr.s:1410   .text.usart_irda_mode_disable:000000000000000e .L0 
C:\Users\stapi\AppData\Local\Temp\ccdJdmlr.s:1417   .text.usart_prescaler_config:0000000000000000 usart_prescaler_config
C:\Users\stapi\AppData\Local\Temp\ccdJdmlr.s:1420   .text.usart_prescaler_config:0000000000000000 .L0 
C:\Users\stapi\AppData\Local\Temp\ccdJdmlr.s:1422   .text.usart_prescaler_config:0000000000000000 .L0 
C:\Users\stapi\AppData\Local\Temp\ccdJdmlr.s:1423   .text.usart_prescaler_config:0000000000000000 .L0 
C:\Users\stapi\AppData\Local\Temp\ccdJdmlr.s:1424   .text.usart_prescaler_config:0000000000000000 .L0 
C:\Users\stapi\AppData\Local\Temp\ccdJdmlr.s:1428   .text.usart_prescaler_config:0000000000000006 .L0 
C:\Users\stapi\AppData\Local\Temp\ccdJdmlr.s:1429   .text.usart_prescaler_config:0000000000000006 .L0 
C:\Users\stapi\AppData\Local\Temp\ccdJdmlr.s:1433   .text.usart_prescaler_config:000000000000000e .L0 
C:\Users\stapi\AppData\Local\Temp\ccdJdmlr.s:1434   .text.usart_prescaler_config:000000000000000e .L0 
C:\Users\stapi\AppData\Local\Temp\ccdJdmlr.s:1439   .text.usart_prescaler_config:0000000000000014 .L0 
C:\Users\stapi\AppData\Local\Temp\ccdJdmlr.s:1440   .text.usart_prescaler_config:0000000000000016 .L0 
C:\Users\stapi\AppData\Local\Temp\ccdJdmlr.s:1447   .text.usart_irda_lowpower_config:0000000000000000 usart_irda_lowpower_config
C:\Users\stapi\AppData\Local\Temp\ccdJdmlr.s:1450   .text.usart_irda_lowpower_config:0000000000000000 .L0 
C:\Users\stapi\AppData\Local\Temp\ccdJdmlr.s:1452   .text.usart_irda_lowpower_config:0000000000000000 .L0 
C:\Users\stapi\AppData\Local\Temp\ccdJdmlr.s:1453   .text.usart_irda_lowpower_config:0000000000000000 .L0 
C:\Users\stapi\AppData\Local\Temp\ccdJdmlr.s:1454   .text.usart_irda_lowpower_config:0000000000000000 .L0 
C:\Users\stapi\AppData\Local\Temp\ccdJdmlr.s:1456   .text.usart_irda_lowpower_config:0000000000000002 .L0 
C:\Users\stapi\AppData\Local\Temp\ccdJdmlr.s:1459   .text.usart_irda_lowpower_config:0000000000000004 .L0 
C:\Users\stapi\AppData\Local\Temp\ccdJdmlr.s:1462   .text.usart_irda_lowpower_config:0000000000000008 .L0 
C:\Users\stapi\AppData\Local\Temp\ccdJdmlr.s:1463   .text.usart_irda_lowpower_config:0000000000000008 .L0 
C:\Users\stapi\AppData\Local\Temp\ccdJdmlr.s:1467   .text.usart_irda_lowpower_config:000000000000000e .L0 
C:\Users\stapi\AppData\Local\Temp\ccdJdmlr.s:1468   .text.usart_irda_lowpower_config:000000000000000e .L0 
C:\Users\stapi\AppData\Local\Temp\ccdJdmlr.s:1472   .text.usart_irda_lowpower_config:0000000000000014 .L0 
C:\Users\stapi\AppData\Local\Temp\ccdJdmlr.s:1473   .text.usart_irda_lowpower_config:0000000000000016 .L0 
C:\Users\stapi\AppData\Local\Temp\ccdJdmlr.s:1480   .text.usart_hardware_flow_rts_config:0000000000000000 usart_hardware_flow_rts_config
C:\Users\stapi\AppData\Local\Temp\ccdJdmlr.s:1483   .text.usart_hardware_flow_rts_config:0000000000000000 .L0 
C:\Users\stapi\AppData\Local\Temp\ccdJdmlr.s:1485   .text.usart_hardware_flow_rts_config:0000000000000000 .L0 
C:\Users\stapi\AppData\Local\Temp\ccdJdmlr.s:1486   .text.usart_hardware_flow_rts_config:0000000000000000 .L0 
C:\Users\stapi\AppData\Local\Temp\ccdJdmlr.s:1487   .text.usart_hardware_flow_rts_config:0000000000000000 .L0 
C:\Users\stapi\AppData\Local\Temp\ccdJdmlr.s:1489   .text.usart_hardware_flow_rts_config:0000000000000002 .L0 
C:\Users\stapi\AppData\Local\Temp\ccdJdmlr.s:1492   .text.usart_hardware_flow_rts_config:0000000000000006 .L0 
C:\Users\stapi\AppData\Local\Temp\ccdJdmlr.s:1495   .text.usart_hardware_flow_rts_config:000000000000000a .L0 
C:\Users\stapi\AppData\Local\Temp\ccdJdmlr.s:1496   .text.usart_hardware_flow_rts_config:000000000000000a .L0 
C:\Users\stapi\AppData\Local\Temp\ccdJdmlr.s:1500   .text.usart_hardware_flow_rts_config:0000000000000012 .L0 
C:\Users\stapi\AppData\Local\Temp\ccdJdmlr.s:1501   .text.usart_hardware_flow_rts_config:0000000000000012 .L0 
C:\Users\stapi\AppData\Local\Temp\ccdJdmlr.s:1505   .text.usart_hardware_flow_rts_config:0000000000000018 .L0 
C:\Users\stapi\AppData\Local\Temp\ccdJdmlr.s:1506   .text.usart_hardware_flow_rts_config:000000000000001a .L0 
C:\Users\stapi\AppData\Local\Temp\ccdJdmlr.s:1513   .text.usart_hardware_flow_cts_config:0000000000000000 usart_hardware_flow_cts_config
C:\Users\stapi\AppData\Local\Temp\ccdJdmlr.s:1516   .text.usart_hardware_flow_cts_config:0000000000000000 .L0 
C:\Users\stapi\AppData\Local\Temp\ccdJdmlr.s:1518   .text.usart_hardware_flow_cts_config:0000000000000000 .L0 
C:\Users\stapi\AppData\Local\Temp\ccdJdmlr.s:1519   .text.usart_hardware_flow_cts_config:0000000000000000 .L0 
C:\Users\stapi\AppData\Local\Temp\ccdJdmlr.s:1520   .text.usart_hardware_flow_cts_config:0000000000000000 .L0 
C:\Users\stapi\AppData\Local\Temp\ccdJdmlr.s:1522   .text.usart_hardware_flow_cts_config:0000000000000002 .L0 
C:\Users\stapi\AppData\Local\Temp\ccdJdmlr.s:1525   .text.usart_hardware_flow_cts_config:0000000000000006 .L0 
C:\Users\stapi\AppData\Local\Temp\ccdJdmlr.s:1528   .text.usart_hardware_flow_cts_config:000000000000000a .L0 
C:\Users\stapi\AppData\Local\Temp\ccdJdmlr.s:1529   .text.usart_hardware_flow_cts_config:000000000000000a .L0 
C:\Users\stapi\AppData\Local\Temp\ccdJdmlr.s:1533   .text.usart_hardware_flow_cts_config:0000000000000012 .L0 
C:\Users\stapi\AppData\Local\Temp\ccdJdmlr.s:1534   .text.usart_hardware_flow_cts_config:0000000000000012 .L0 
C:\Users\stapi\AppData\Local\Temp\ccdJdmlr.s:1538   .text.usart_hardware_flow_cts_config:0000000000000018 .L0 
C:\Users\stapi\AppData\Local\Temp\ccdJdmlr.s:1539   .text.usart_hardware_flow_cts_config:000000000000001a .L0 
C:\Users\stapi\AppData\Local\Temp\ccdJdmlr.s:1546   .text.usart_hardware_flow_coherence_config:0000000000000000 usart_hardware_flow_coherence_config
C:\Users\stapi\AppData\Local\Temp\ccdJdmlr.s:1549   .text.usart_hardware_flow_coherence_config:0000000000000000 .L0 
C:\Users\stapi\AppData\Local\Temp\ccdJdmlr.s:1551   .text.usart_hardware_flow_coherence_config:0000000000000000 .L0 
C:\Users\stapi\AppData\Local\Temp\ccdJdmlr.s:1552   .text.usart_hardware_flow_coherence_config:0000000000000000 .L0 
C:\Users\stapi\AppData\Local\Temp\ccdJdmlr.s:1553   .text.usart_hardware_flow_coherence_config:0000000000000000 .L0 
C:\Users\stapi\AppData\Local\Temp\ccdJdmlr.s:1557   .text.usart_hardware_flow_coherence_config:000000000000000a .L0 
C:\Users\stapi\AppData\Local\Temp\ccdJdmlr.s:1558   .text.usart_hardware_flow_coherence_config:000000000000000a .L0 
C:\Users\stapi\AppData\Local\Temp\ccdJdmlr.s:1562   .text.usart_hardware_flow_coherence_config:0000000000000014 .L0 
C:\Users\stapi\AppData\Local\Temp\ccdJdmlr.s:1563   .text.usart_hardware_flow_coherence_config:0000000000000016 .L0 
C:\Users\stapi\AppData\Local\Temp\ccdJdmlr.s:1570   .text.usart_rs485_driver_enable:0000000000000000 usart_rs485_driver_enable
C:\Users\stapi\AppData\Local\Temp\ccdJdmlr.s:1573   .text.usart_rs485_driver_enable:0000000000000000 .L0 
C:\Users\stapi\AppData\Local\Temp\ccdJdmlr.s:1575   .text.usart_rs485_driver_enable:0000000000000000 .L0 
C:\Users\stapi\AppData\Local\Temp\ccdJdmlr.s:1576   .text.usart_rs485_driver_enable:0000000000000000 .L0 
C:\Users\stapi\AppData\Local\Temp\ccdJdmlr.s:1577   .text.usart_rs485_driver_enable:0000000000000000 .L0 
C:\Users\stapi\AppData\Local\Temp\ccdJdmlr.s:1581   .text.usart_rs485_driver_enable:0000000000000006 .L0 
C:\Users\stapi\AppData\Local\Temp\ccdJdmlr.s:1582   .text.usart_rs485_driver_enable:0000000000000006 .L0 
C:\Users\stapi\AppData\Local\Temp\ccdJdmlr.s:1586   .text.usart_rs485_driver_enable:000000000000000e .L0 
C:\Users\stapi\AppData\Local\Temp\ccdJdmlr.s:1587   .text.usart_rs485_driver_enable:0000000000000010 .L0 
C:\Users\stapi\AppData\Local\Temp\ccdJdmlr.s:1594   .text.usart_rs485_driver_disable:0000000000000000 usart_rs485_driver_disable
C:\Users\stapi\AppData\Local\Temp\ccdJdmlr.s:1597   .text.usart_rs485_driver_disable:0000000000000000 .L0 
C:\Users\stapi\AppData\Local\Temp\ccdJdmlr.s:1599   .text.usart_rs485_driver_disable:0000000000000000 .L0 
C:\Users\stapi\AppData\Local\Temp\ccdJdmlr.s:1600   .text.usart_rs485_driver_disable:0000000000000000 .L0 
C:\Users\stapi\AppData\Local\Temp\ccdJdmlr.s:1601   .text.usart_rs485_driver_disable:0000000000000000 .L0 
C:\Users\stapi\AppData\Local\Temp\ccdJdmlr.s:1605   .text.usart_rs485_driver_disable:0000000000000006 .L0 
C:\Users\stapi\AppData\Local\Temp\ccdJdmlr.s:1606   .text.usart_rs485_driver_disable:0000000000000006 .L0 
C:\Users\stapi\AppData\Local\Temp\ccdJdmlr.s:1610   .text.usart_rs485_driver_disable:000000000000000e .L0 
C:\Users\stapi\AppData\Local\Temp\ccdJdmlr.s:1611   .text.usart_rs485_driver_disable:0000000000000010 .L0 
C:\Users\stapi\AppData\Local\Temp\ccdJdmlr.s:1618   .text.usart_driver_assertime_config:0000000000000000 usart_driver_assertime_config
C:\Users\stapi\AppData\Local\Temp\ccdJdmlr.s:1621   .text.usart_driver_assertime_config:0000000000000000 .L0 
C:\Users\stapi\AppData\Local\Temp\ccdJdmlr.s:1623   .text.usart_driver_assertime_config:0000000000000000 .L0 
C:\Users\stapi\AppData\Local\Temp\ccdJdmlr.s:1624   .text.usart_driver_assertime_config:0000000000000000 .L0 
C:\Users\stapi\AppData\Local\Temp\ccdJdmlr.s:1625   .text.usart_driver_assertime_config:0000000000000000 .L0 
C:\Users\stapi\AppData\Local\Temp\ccdJdmlr.s:1627   .text.usart_driver_assertime_config:0000000000000002 .L0 
C:\Users\stapi\AppData\Local\Temp\ccdJdmlr.s:1630   .text.usart_driver_assertime_config:0000000000000008 .L0 
C:\Users\stapi\AppData\Local\Temp\ccdJdmlr.s:1633   .text.usart_driver_assertime_config:000000000000000c .L0 
C:\Users\stapi\AppData\Local\Temp\ccdJdmlr.s:1634   .text.usart_driver_assertime_config:000000000000000c .L0 
C:\Users\stapi\AppData\Local\Temp\ccdJdmlr.s:1636   .text.usart_driver_assertime_config:000000000000000e .L0 
C:\Users\stapi\AppData\Local\Temp\ccdJdmlr.s:1639   .text.usart_driver_assertime_config:0000000000000010 .L0 
C:\Users\stapi\AppData\Local\Temp\ccdJdmlr.s:1642   .text.usart_driver_assertime_config:0000000000000014 .L0 
C:\Users\stapi\AppData\Local\Temp\ccdJdmlr.s:1643   .text.usart_driver_assertime_config:0000000000000014 .L0 
C:\Users\stapi\AppData\Local\Temp\ccdJdmlr.s:1645   .text.usart_driver_assertime_config:0000000000000016 .L0 
C:\Users\stapi\AppData\Local\Temp\ccdJdmlr.s:1648   .text.usart_driver_assertime_config:000000000000001c .L0 
C:\Users\stapi\AppData\Local\Temp\ccdJdmlr.s:1651   .text.usart_driver_assertime_config:0000000000000020 .L0 
C:\Users\stapi\AppData\Local\Temp\ccdJdmlr.s:1652   .text.usart_driver_assertime_config:0000000000000022 .L0 
C:\Users\stapi\AppData\Local\Temp\ccdJdmlr.s:1659   .text.usart_driver_deassertime_config:0000000000000000 usart_driver_deassertime_config
C:\Users\stapi\AppData\Local\Temp\ccdJdmlr.s:1662   .text.usart_driver_deassertime_config:0000000000000000 .L0 
C:\Users\stapi\AppData\Local\Temp\ccdJdmlr.s:1664   .text.usart_driver_deassertime_config:0000000000000000 .L0 
C:\Users\stapi\AppData\Local\Temp\ccdJdmlr.s:1665   .text.usart_driver_deassertime_config:0000000000000000 .L0 
C:\Users\stapi\AppData\Local\Temp\ccdJdmlr.s:1666   .text.usart_driver_deassertime_config:0000000000000000 .L0 
C:\Users\stapi\AppData\Local\Temp\ccdJdmlr.s:1668   .text.usart_driver_deassertime_config:0000000000000002 .L0 
C:\Users\stapi\AppData\Local\Temp\ccdJdmlr.s:1671   .text.usart_driver_deassertime_config:0000000000000008 .L0 
C:\Users\stapi\AppData\Local\Temp\ccdJdmlr.s:1674   .text.usart_driver_deassertime_config:000000000000000c .L0 
C:\Users\stapi\AppData\Local\Temp\ccdJdmlr.s:1675   .text.usart_driver_deassertime_config:000000000000000c .L0 
C:\Users\stapi\AppData\Local\Temp\ccdJdmlr.s:1677   .text.usart_driver_deassertime_config:000000000000000e .L0 
C:\Users\stapi\AppData\Local\Temp\ccdJdmlr.s:1680   .text.usart_driver_deassertime_config:0000000000000010 .L0 
C:\Users\stapi\AppData\Local\Temp\ccdJdmlr.s:1683   .text.usart_driver_deassertime_config:0000000000000014 .L0 
C:\Users\stapi\AppData\Local\Temp\ccdJdmlr.s:1684   .text.usart_driver_deassertime_config:0000000000000014 .L0 
C:\Users\stapi\AppData\Local\Temp\ccdJdmlr.s:1686   .text.usart_driver_deassertime_config:0000000000000016 .L0 
C:\Users\stapi\AppData\Local\Temp\ccdJdmlr.s:1689   .text.usart_driver_deassertime_config:000000000000001c .L0 
C:\Users\stapi\AppData\Local\Temp\ccdJdmlr.s:1692   .text.usart_driver_deassertime_config:0000000000000020 .L0 
C:\Users\stapi\AppData\Local\Temp\ccdJdmlr.s:1693   .text.usart_driver_deassertime_config:0000000000000022 .L0 
C:\Users\stapi\AppData\Local\Temp\ccdJdmlr.s:1700   .text.usart_depolarity_config:0000000000000000 usart_depolarity_config
C:\Users\stapi\AppData\Local\Temp\ccdJdmlr.s:1703   .text.usart_depolarity_config:0000000000000000 .L0 
C:\Users\stapi\AppData\Local\Temp\ccdJdmlr.s:1705   .text.usart_depolarity_config:0000000000000000 .L0 
C:\Users\stapi\AppData\Local\Temp\ccdJdmlr.s:1706   .text.usart_depolarity_config:0000000000000000 .L0 
C:\Users\stapi\AppData\Local\Temp\ccdJdmlr.s:1707   .text.usart_depolarity_config:0000000000000000 .L0 
C:\Users\stapi\AppData\Local\Temp\ccdJdmlr.s:1709   .text.usart_depolarity_config:0000000000000002 .L0 
C:\Users\stapi\AppData\Local\Temp\ccdJdmlr.s:1713   .text.usart_depolarity_config:0000000000000006 .L0 
C:\Users\stapi\AppData\Local\Temp\ccdJdmlr.s:1716   .text.usart_depolarity_config:000000000000000a .L0 
C:\Users\stapi\AppData\Local\Temp\ccdJdmlr.s:1717   .text.usart_depolarity_config:000000000000000a .L0 
C:\Users\stapi\AppData\Local\Temp\ccdJdmlr.s:1721   .text.usart_depolarity_config:0000000000000012 .L0 
C:\Users\stapi\AppData\Local\Temp\ccdJdmlr.s:1722   .text.usart_depolarity_config:0000000000000012 .L0 
C:\Users\stapi\AppData\Local\Temp\ccdJdmlr.s:1726   .text.usart_depolarity_config:0000000000000018 .L0 
C:\Users\stapi\AppData\Local\Temp\ccdJdmlr.s:1727   .text.usart_depolarity_config:000000000000001a .L0 
C:\Users\stapi\AppData\Local\Temp\ccdJdmlr.s:1734   .text.usart_dma_receive_config:0000000000000000 usart_dma_receive_config
C:\Users\stapi\AppData\Local\Temp\ccdJdmlr.s:1737   .text.usart_dma_receive_config:0000000000000000 .L0 
C:\Users\stapi\AppData\Local\Temp\ccdJdmlr.s:1739   .text.usart_dma_receive_config:0000000000000000 .L0 
C:\Users\stapi\AppData\Local\Temp\ccdJdmlr.s:1740   .text.usart_dma_receive_config:0000000000000000 .L0 
C:\Users\stapi\AppData\Local\Temp\ccdJdmlr.s:1741   .text.usart_dma_receive_config:0000000000000000 .L0 
C:\Users\stapi\AppData\Local\Temp\ccdJdmlr.s:1742   .text.usart_dma_receive_config:0000000000000000 .L0 
C:\Users\stapi\AppData\Local\Temp\ccdJdmlr.s:1745   .text.usart_dma_receive_config:0000000000000002 .L0 
C:\Users\stapi\AppData\Local\Temp\ccdJdmlr.s:1746   .text.usart_dma_receive_config:0000000000000002 .L0 
C:\Users\stapi\AppData\Local\Temp\ccdJdmlr.s:1749   .text.usart_dma_receive_config:0000000000000006 .L0 
C:\Users\stapi\AppData\Local\Temp\ccdJdmlr.s:1750   .text.usart_dma_receive_config:0000000000000006 .L0 
C:\Users\stapi\AppData\Local\Temp\ccdJdmlr.s:1753   .text.usart_dma_receive_config:0000000000000008 .L0 
C:\Users\stapi\AppData\Local\Temp\ccdJdmlr.s:1754   .text.usart_dma_receive_config:0000000000000008 .L0 
C:\Users\stapi\AppData\Local\Temp\ccdJdmlr.s:1756   .text.usart_dma_receive_config:000000000000000a .L0 
C:\Users\stapi\AppData\Local\Temp\ccdJdmlr.s:1757   .text.usart_dma_receive_config:000000000000000c .L0 
C:\Users\stapi\AppData\Local\Temp\ccdJdmlr.s:1764   .text.usart_dma_transmit_config:0000000000000000 usart_dma_transmit_config
C:\Users\stapi\AppData\Local\Temp\ccdJdmlr.s:1767   .text.usart_dma_transmit_config:0000000000000000 .L0 
C:\Users\stapi\AppData\Local\Temp\ccdJdmlr.s:1769   .text.usart_dma_transmit_config:0000000000000000 .L0 
C:\Users\stapi\AppData\Local\Temp\ccdJdmlr.s:1770   .text.usart_dma_transmit_config:0000000000000000 .L0 
C:\Users\stapi\AppData\Local\Temp\ccdJdmlr.s:1771   .text.usart_dma_transmit_config:0000000000000000 .L0 
C:\Users\stapi\AppData\Local\Temp\ccdJdmlr.s:1772   .text.usart_dma_transmit_config:0000000000000000 .L0 
C:\Users\stapi\AppData\Local\Temp\ccdJdmlr.s:1775   .text.usart_dma_transmit_config:0000000000000002 .L0 
C:\Users\stapi\AppData\Local\Temp\ccdJdmlr.s:1776   .text.usart_dma_transmit_config:0000000000000002 .L0 
C:\Users\stapi\AppData\Local\Temp\ccdJdmlr.s:1779   .text.usart_dma_transmit_config:0000000000000006 .L0 
C:\Users\stapi\AppData\Local\Temp\ccdJdmlr.s:1780   .text.usart_dma_transmit_config:0000000000000006 .L0 
C:\Users\stapi\AppData\Local\Temp\ccdJdmlr.s:1783   .text.usart_dma_transmit_config:0000000000000008 .L0 
C:\Users\stapi\AppData\Local\Temp\ccdJdmlr.s:1784   .text.usart_dma_transmit_config:0000000000000008 .L0 
C:\Users\stapi\AppData\Local\Temp\ccdJdmlr.s:1786   .text.usart_dma_transmit_config:000000000000000a .L0 
C:\Users\stapi\AppData\Local\Temp\ccdJdmlr.s:1787   .text.usart_dma_transmit_config:000000000000000c .L0 
C:\Users\stapi\AppData\Local\Temp\ccdJdmlr.s:1794   .text.usart_reception_error_dma_disable:0000000000000000 usart_reception_error_dma_disable
C:\Users\stapi\AppData\Local\Temp\ccdJdmlr.s:1797   .text.usart_reception_error_dma_disable:0000000000000000 .L0 
C:\Users\stapi\AppData\Local\Temp\ccdJdmlr.s:1799   .text.usart_reception_error_dma_disable:0000000000000000 .L0 
C:\Users\stapi\AppData\Local\Temp\ccdJdmlr.s:1800   .text.usart_reception_error_dma_disable:0000000000000000 .L0 
C:\Users\stapi\AppData\Local\Temp\ccdJdmlr.s:1801   .text.usart_reception_error_dma_disable:0000000000000000 .L0 
C:\Users\stapi\AppData\Local\Temp\ccdJdmlr.s:1805   .text.usart_reception_error_dma_disable:0000000000000006 .L0 
C:\Users\stapi\AppData\Local\Temp\ccdJdmlr.s:1806   .text.usart_reception_error_dma_disable:0000000000000006 .L0 
C:\Users\stapi\AppData\Local\Temp\ccdJdmlr.s:1810   .text.usart_reception_error_dma_disable:000000000000000e .L0 
C:\Users\stapi\AppData\Local\Temp\ccdJdmlr.s:1811   .text.usart_reception_error_dma_disable:0000000000000010 .L0 
C:\Users\stapi\AppData\Local\Temp\ccdJdmlr.s:1818   .text.usart_reception_error_dma_enable:0000000000000000 usart_reception_error_dma_enable
C:\Users\stapi\AppData\Local\Temp\ccdJdmlr.s:1821   .text.usart_reception_error_dma_enable:0000000000000000 .L0 
C:\Users\stapi\AppData\Local\Temp\ccdJdmlr.s:1823   .text.usart_reception_error_dma_enable:0000000000000000 .L0 
C:\Users\stapi\AppData\Local\Temp\ccdJdmlr.s:1824   .text.usart_reception_error_dma_enable:0000000000000000 .L0 
C:\Users\stapi\AppData\Local\Temp\ccdJdmlr.s:1825   .text.usart_reception_error_dma_enable:0000000000000000 .L0 
C:\Users\stapi\AppData\Local\Temp\ccdJdmlr.s:1829   .text.usart_reception_error_dma_enable:0000000000000006 .L0 
C:\Users\stapi\AppData\Local\Temp\ccdJdmlr.s:1830   .text.usart_reception_error_dma_enable:0000000000000006 .L0 
C:\Users\stapi\AppData\Local\Temp\ccdJdmlr.s:1834   .text.usart_reception_error_dma_enable:000000000000000e .L0 
C:\Users\stapi\AppData\Local\Temp\ccdJdmlr.s:1835   .text.usart_reception_error_dma_enable:0000000000000010 .L0 
C:\Users\stapi\AppData\Local\Temp\ccdJdmlr.s:1842   .text.usart_wakeup_enable:0000000000000000 usart_wakeup_enable
C:\Users\stapi\AppData\Local\Temp\ccdJdmlr.s:1845   .text.usart_wakeup_enable:0000000000000000 .L0 
C:\Users\stapi\AppData\Local\Temp\ccdJdmlr.s:1847   .text.usart_wakeup_enable:0000000000000000 .L0 
C:\Users\stapi\AppData\Local\Temp\ccdJdmlr.s:1848   .text.usart_wakeup_enable:0000000000000000 .L0 
C:\Users\stapi\AppData\Local\Temp\ccdJdmlr.s:1849   .text.usart_wakeup_enable:0000000000000000 .L0 
C:\Users\stapi\AppData\Local\Temp\ccdJdmlr.s:1853   .text.usart_wakeup_enable:0000000000000008 .L0 
C:\Users\stapi\AppData\Local\Temp\ccdJdmlr.s:1854   .text.usart_wakeup_enable:000000000000000a .L0 
C:\Users\stapi\AppData\Local\Temp\ccdJdmlr.s:1861   .text.usart_wakeup_disable:0000000000000000 usart_wakeup_disable
C:\Users\stapi\AppData\Local\Temp\ccdJdmlr.s:1864   .text.usart_wakeup_disable:0000000000000000 .L0 
C:\Users\stapi\AppData\Local\Temp\ccdJdmlr.s:1866   .text.usart_wakeup_disable:0000000000000000 .L0 
C:\Users\stapi\AppData\Local\Temp\ccdJdmlr.s:1867   .text.usart_wakeup_disable:0000000000000000 .L0 
C:\Users\stapi\AppData\Local\Temp\ccdJdmlr.s:1868   .text.usart_wakeup_disable:0000000000000000 .L0 
C:\Users\stapi\AppData\Local\Temp\ccdJdmlr.s:1872   .text.usart_wakeup_disable:0000000000000006 .L0 
C:\Users\stapi\AppData\Local\Temp\ccdJdmlr.s:1873   .text.usart_wakeup_disable:0000000000000008 .L0 
C:\Users\stapi\AppData\Local\Temp\ccdJdmlr.s:1880   .text.usart_wakeup_mode_config:0000000000000000 usart_wakeup_mode_config
C:\Users\stapi\AppData\Local\Temp\ccdJdmlr.s:1883   .text.usart_wakeup_mode_config:0000000000000000 .L0 
C:\Users\stapi\AppData\Local\Temp\ccdJdmlr.s:1885   .text.usart_wakeup_mode_config:0000000000000000 .L0 
C:\Users\stapi\AppData\Local\Temp\ccdJdmlr.s:1886   .text.usart_wakeup_mode_config:0000000000000000 .L0 
C:\Users\stapi\AppData\Local\Temp\ccdJdmlr.s:1887   .text.usart_wakeup_mode_config:0000000000000000 .L0 
C:\Users\stapi\AppData\Local\Temp\ccdJdmlr.s:1889   .text.usart_wakeup_mode_config:0000000000000002 .L0 
C:\Users\stapi\AppData\Local\Temp\ccdJdmlr.s:1892   .text.usart_wakeup_mode_config:0000000000000008 .L0 
C:\Users\stapi\AppData\Local\Temp\ccdJdmlr.s:1895   .text.usart_wakeup_mode_config:000000000000000c .L0 
C:\Users\stapi\AppData\Local\Temp\ccdJdmlr.s:1896   .text.usart_wakeup_mode_config:000000000000000c .L0 
C:\Users\stapi\AppData\Local\Temp\ccdJdmlr.s:1900   .text.usart_wakeup_mode_config:0000000000000012 .L0 
C:\Users\stapi\AppData\Local\Temp\ccdJdmlr.s:1901   .text.usart_wakeup_mode_config:0000000000000012 .L0 
C:\Users\stapi\AppData\Local\Temp\ccdJdmlr.s:1903   .text.usart_wakeup_mode_config:0000000000000014 .L0 
C:\Users\stapi\AppData\Local\Temp\ccdJdmlr.s:1907   .text.usart_wakeup_mode_config:000000000000001a .L0 
C:\Users\stapi\AppData\Local\Temp\ccdJdmlr.s:1910   .text.usart_wakeup_mode_config:000000000000001e .L0 
C:\Users\stapi\AppData\Local\Temp\ccdJdmlr.s:1911   .text.usart_wakeup_mode_config:0000000000000020 .L0 
C:\Users\stapi\AppData\Local\Temp\ccdJdmlr.s:1918   .text.usart_receive_fifo_enable:0000000000000000 usart_receive_fifo_enable
C:\Users\stapi\AppData\Local\Temp\ccdJdmlr.s:1921   .text.usart_receive_fifo_enable:0000000000000000 .L0 
C:\Users\stapi\AppData\Local\Temp\ccdJdmlr.s:1923   .text.usart_receive_fifo_enable:0000000000000000 .L0 
C:\Users\stapi\AppData\Local\Temp\ccdJdmlr.s:1924   .text.usart_receive_fifo_enable:0000000000000000 .L0 
C:\Users\stapi\AppData\Local\Temp\ccdJdmlr.s:1925   .text.usart_receive_fifo_enable:0000000000000000 .L0 
C:\Users\stapi\AppData\Local\Temp\ccdJdmlr.s:1929   .text.usart_receive_fifo_enable:000000000000000c .L0 
C:\Users\stapi\AppData\Local\Temp\ccdJdmlr.s:1930   .text.usart_receive_fifo_enable:000000000000000e .L0 
C:\Users\stapi\AppData\Local\Temp\ccdJdmlr.s:1937   .text.usart_receive_fifo_disable:0000000000000000 usart_receive_fifo_disable
C:\Users\stapi\AppData\Local\Temp\ccdJdmlr.s:1940   .text.usart_receive_fifo_disable:0000000000000000 .L0 
C:\Users\stapi\AppData\Local\Temp\ccdJdmlr.s:1942   .text.usart_receive_fifo_disable:0000000000000000 .L0 
C:\Users\stapi\AppData\Local\Temp\ccdJdmlr.s:1943   .text.usart_receive_fifo_disable:0000000000000000 .L0 
C:\Users\stapi\AppData\Local\Temp\ccdJdmlr.s:1944   .text.usart_receive_fifo_disable:0000000000000000 .L0 
C:\Users\stapi\AppData\Local\Temp\ccdJdmlr.s:1948   .text.usart_receive_fifo_disable:000000000000000c .L0 
C:\Users\stapi\AppData\Local\Temp\ccdJdmlr.s:1949   .text.usart_receive_fifo_disable:000000000000000e .L0 
C:\Users\stapi\AppData\Local\Temp\ccdJdmlr.s:1956   .text.usart_receive_fifo_counter_number:0000000000000000 usart_receive_fifo_counter_number
C:\Users\stapi\AppData\Local\Temp\ccdJdmlr.s:1959   .text.usart_receive_fifo_counter_number:0000000000000000 .L0 
C:\Users\stapi\AppData\Local\Temp\ccdJdmlr.s:1961   .text.usart_receive_fifo_counter_number:0000000000000000 .L0 
C:\Users\stapi\AppData\Local\Temp\ccdJdmlr.s:1962   .text.usart_receive_fifo_counter_number:0000000000000000 .L0 
C:\Users\stapi\AppData\Local\Temp\ccdJdmlr.s:1963   .text.usart_receive_fifo_counter_number:0000000000000000 .L0 
C:\Users\stapi\AppData\Local\Temp\ccdJdmlr.s:1967   .text.usart_receive_fifo_counter_number:0000000000000006 .L0 
C:\Users\stapi\AppData\Local\Temp\ccdJdmlr.s:1969   .text.usart_receive_fifo_counter_number:000000000000000a .L0 
C:\Users\stapi\AppData\Local\Temp\ccdJdmlr.s:1976   .text.usart_flag_get:0000000000000000 usart_flag_get
C:\Users\stapi\AppData\Local\Temp\ccdJdmlr.s:1979   .text.usart_flag_get:0000000000000000 .L0 
C:\Users\stapi\AppData\Local\Temp\ccdJdmlr.s:1981   .text.usart_flag_get:0000000000000000 .L0 
C:\Users\stapi\AppData\Local\Temp\ccdJdmlr.s:1982   .text.usart_flag_get:0000000000000000 .L0 
C:\Users\stapi\AppData\Local\Temp\ccdJdmlr.s:1983   .text.usart_flag_get:0000000000000000 .L0 
C:\Users\stapi\AppData\Local\Temp\ccdJdmlr.s:1989   .text.usart_flag_get:000000000000000c .L0 
C:\Users\stapi\AppData\Local\Temp\ccdJdmlr.s:1991   .text.usart_flag_get:0000000000000010 .L0 
C:\Users\stapi\AppData\Local\Temp\ccdJdmlr.s:1993   .text.usart_flag_get:0000000000000014 .L0 
C:\Users\stapi\AppData\Local\Temp\ccdJdmlr.s:2000   .text.usart_flag_clear:0000000000000000 usart_flag_clear
C:\Users\stapi\AppData\Local\Temp\ccdJdmlr.s:2003   .text.usart_flag_clear:0000000000000000 .L0 
C:\Users\stapi\AppData\Local\Temp\ccdJdmlr.s:2005   .text.usart_flag_clear:0000000000000000 .L0 
C:\Users\stapi\AppData\Local\Temp\ccdJdmlr.s:2006   .text.usart_flag_clear:0000000000000000 .L0 
C:\Users\stapi\AppData\Local\Temp\ccdJdmlr.s:2007   .text.usart_flag_clear:0000000000000000 .L0 
C:\Users\stapi\AppData\Local\Temp\ccdJdmlr.s:2010   .text.usart_flag_clear:0000000000000008 .L0 
C:\Users\stapi\AppData\Local\Temp\ccdJdmlr.s:2011   .text.usart_flag_clear:0000000000000008 .L0 
C:\Users\stapi\AppData\Local\Temp\ccdJdmlr.s:2015   .text.usart_flag_clear:0000000000000010 .L0 
C:\Users\stapi\AppData\Local\Temp\ccdJdmlr.s:2016   .text.usart_flag_clear:0000000000000010 .L0 
C:\Users\stapi\AppData\Local\Temp\ccdJdmlr.s:2021   .text.usart_flag_clear:0000000000000018 .L0 
C:\Users\stapi\AppData\Local\Temp\ccdJdmlr.s:2025   .text.usart_flag_clear:000000000000001a .L0 
C:\Users\stapi\AppData\Local\Temp\ccdJdmlr.s:2026   .text.usart_flag_clear:000000000000001a .L0 
C:\Users\stapi\AppData\Local\Temp\ccdJdmlr.s:2032   .text.usart_flag_clear:0000000000000028 .L0 
C:\Users\stapi\AppData\Local\Temp\ccdJdmlr.s:2033   .text.usart_flag_clear:0000000000000028 .L0 
C:\Users\stapi\AppData\Local\Temp\ccdJdmlr.s:2037   .text.usart_flag_clear:0000000000000032 .L0 
C:\Users\stapi\AppData\Local\Temp\ccdJdmlr.s:2044   .text.usart_interrupt_enable:0000000000000000 usart_interrupt_enable
C:\Users\stapi\AppData\Local\Temp\ccdJdmlr.s:2047   .text.usart_interrupt_enable:0000000000000000 .L0 
C:\Users\stapi\AppData\Local\Temp\ccdJdmlr.s:2049   .text.usart_interrupt_enable:0000000000000000 .L0 
C:\Users\stapi\AppData\Local\Temp\ccdJdmlr.s:2050   .text.usart_interrupt_enable:0000000000000000 .L0 
C:\Users\stapi\AppData\Local\Temp\ccdJdmlr.s:2051   .text.usart_interrupt_enable:0000000000000000 .L0 
C:\Users\stapi\AppData\Local\Temp\ccdJdmlr.s:2060   .text.usart_interrupt_enable:0000000000000012 .L0 
C:\Users\stapi\AppData\Local\Temp\ccdJdmlr.s:2061   .text.usart_interrupt_enable:0000000000000014 .L0 
C:\Users\stapi\AppData\Local\Temp\ccdJdmlr.s:2068   .text.usart_interrupt_disable:0000000000000000 usart_interrupt_disable
C:\Users\stapi\AppData\Local\Temp\ccdJdmlr.s:2071   .text.usart_interrupt_disable:0000000000000000 .L0 
C:\Users\stapi\AppData\Local\Temp\ccdJdmlr.s:2073   .text.usart_interrupt_disable:0000000000000000 .L0 
C:\Users\stapi\AppData\Local\Temp\ccdJdmlr.s:2074   .text.usart_interrupt_disable:0000000000000000 .L0 
C:\Users\stapi\AppData\Local\Temp\ccdJdmlr.s:2075   .text.usart_interrupt_disable:0000000000000000 .L0 
C:\Users\stapi\AppData\Local\Temp\ccdJdmlr.s:2081   .text.usart_interrupt_disable:000000000000000c .L0 
C:\Users\stapi\AppData\Local\Temp\ccdJdmlr.s:2084   .text.usart_interrupt_disable:0000000000000010 .L0 
C:\Users\stapi\AppData\Local\Temp\ccdJdmlr.s:2087   .text.usart_interrupt_disable:0000000000000016 .L0 
C:\Users\stapi\AppData\Local\Temp\ccdJdmlr.s:2088   .text.usart_interrupt_disable:0000000000000018 .L0 
C:\Users\stapi\AppData\Local\Temp\ccdJdmlr.s:2095   .text.usart_interrupt_flag_get:0000000000000000 usart_interrupt_flag_get
C:\Users\stapi\AppData\Local\Temp\ccdJdmlr.s:2098   .text.usart_interrupt_flag_get:0000000000000000 .L0 
C:\Users\stapi\AppData\Local\Temp\ccdJdmlr.s:2100   .text.usart_interrupt_flag_get:0000000000000000 .L0 
C:\Users\stapi\AppData\Local\Temp\ccdJdmlr.s:2101   .text.usart_interrupt_flag_get:0000000000000000 .L0 
C:\Users\stapi\AppData\Local\Temp\ccdJdmlr.s:2102   .text.usart_interrupt_flag_get:0000000000000000 .L0 
C:\Users\stapi\AppData\Local\Temp\ccdJdmlr.s:2103   .text.usart_interrupt_flag_get:0000000000000000 .L0 
C:\Users\stapi\AppData\Local\Temp\ccdJdmlr.s:2105   .text.usart_interrupt_flag_get:0000000000000004 .L0 
C:\Users\stapi\AppData\Local\Temp\ccdJdmlr.s:2107   .text.usart_interrupt_flag_get:0000000000000008 .L0 
C:\Users\stapi\AppData\Local\Temp\ccdJdmlr.s:2110   .text.usart_interrupt_flag_get:000000000000000e .L0 
C:\Users\stapi\AppData\Local\Temp\ccdJdmlr.s:2113   .text.usart_interrupt_flag_get:0000000000000010 .L0 
C:\Users\stapi\AppData\Local\Temp\ccdJdmlr.s:2116   .text.usart_interrupt_flag_get:0000000000000012 .L0 
C:\Users\stapi\AppData\Local\Temp\ccdJdmlr.s:2117   .text.usart_interrupt_flag_get:0000000000000012 .L0 
C:\Users\stapi\AppData\Local\Temp\ccdJdmlr.s:2119   .text.usart_interrupt_flag_get:0000000000000014 .L0 
C:\Users\stapi\AppData\Local\Temp\ccdJdmlr.s:2122   .text.usart_interrupt_flag_get:000000000000001c .L0 
C:\Users\stapi\AppData\Local\Temp\ccdJdmlr.s:2125   .text.usart_interrupt_flag_get:000000000000001e .L0 
C:\Users\stapi\AppData\Local\Temp\ccdJdmlr.s:2126   .text.usart_interrupt_flag_get:000000000000001e .L0 
C:\Users\stapi\AppData\Local\Temp\ccdJdmlr.s:2128   .text.usart_interrupt_flag_get:0000000000000020 .L0 
C:\Users\stapi\AppData\Local\Temp\ccdJdmlr.s:2131   .text.usart_interrupt_flag_get:0000000000000024 .L0 
C:\Users\stapi\AppData\Local\Temp\ccdJdmlr.s:2134   .text.usart_interrupt_flag_get:0000000000000028 .L0 
C:\Users\stapi\AppData\Local\Temp\ccdJdmlr.s:2137   .text.usart_interrupt_flag_get:000000000000002c .L0 
C:\Users\stapi\AppData\Local\Temp\ccdJdmlr.s:2138   .text.usart_interrupt_flag_get:000000000000002e .L0 
C:\Users\stapi\AppData\Local\Temp\ccdJdmlr.s:2145   .text.usart_interrupt_flag_clear:0000000000000000 usart_interrupt_flag_clear
C:\Users\stapi\AppData\Local\Temp\ccdJdmlr.s:2148   .text.usart_interrupt_flag_clear:0000000000000000 .L0 
C:\Users\stapi\AppData\Local\Temp\ccdJdmlr.s:2150   .text.usart_interrupt_flag_clear:0000000000000000 .L0 
C:\Users\stapi\AppData\Local\Temp\ccdJdmlr.s:2151   .text.usart_interrupt_flag_clear:0000000000000000 .L0 
C:\Users\stapi\AppData\Local\Temp\ccdJdmlr.s:2152   .text.usart_interrupt_flag_clear:0000000000000000 .L0 
C:\Users\stapi\AppData\Local\Temp\ccdJdmlr.s:2156   .text.usart_interrupt_flag_clear:000000000000000c .L0 
C:\Users\stapi\AppData\Local\Temp\ccdJdmlr.s:2157   .text.usart_interrupt_flag_clear:000000000000000c .L0 
C:\Users\stapi\AppData\Local\Temp\ccdJdmlr.s:2159   .text.usart_interrupt_flag_clear:000000000000000e .L0 
C:\Users\stapi\AppData\Local\Temp\ccdJdmlr.s:2162   .text.usart_interrupt_flag_clear:0000000000000010 .L0 
C:\Users\stapi\AppData\Local\Temp\ccdJdmlr.s:2165   .text.usart_interrupt_flag_clear:0000000000000016 .L0 
C:\Users\stapi\AppData\Local\Temp\ccdJdmlr.s:2169   .text.usart_interrupt_flag_clear:0000000000000018 .L0 
C:\Users\stapi\AppData\Local\Temp\ccdJdmlr.s:2170   .text.usart_interrupt_flag_clear:0000000000000018 .L0 
C:\Users\stapi\AppData\Local\Temp\ccdJdmlr.s:2174   .text.usart_interrupt_flag_clear:0000000000000026 .L0 
C:\Users\stapi\AppData\Local\Temp\ccdJdmlr.s:99     .text.usart_deinit:0000000000000096 .L0 
C:\Users\stapi\AppData\Local\Temp\ccdJdmlr.s:230    .text.usart_baudrate_set:0000000000000094 .L0 
C:\Users\stapi\AppData\Local\Temp\ccdJdmlr.s:259    .text.usart_parity_config:0000000000000016 .L0 
C:\Users\stapi\AppData\Local\Temp\ccdJdmlr.s:288    .text.usart_word_length_set:0000000000000016 .L0 
C:\Users\stapi\AppData\Local\Temp\ccdJdmlr.s:321    .text.usart_stop_bit_set:0000000000000018 .L0 
C:\Users\stapi\AppData\Local\Temp\ccdJdmlr.s:340    .text.usart_enable:000000000000000a .L0 
C:\Users\stapi\AppData\Local\Temp\ccdJdmlr.s:359    .text.usart_disable:0000000000000008 .L0 
C:\Users\stapi\AppData\Local\Temp\ccdJdmlr.s:383    .text.usart_transmit_config:000000000000000e .L0 
C:\Users\stapi\AppData\Local\Temp\ccdJdmlr.s:407    .text.usart_receive_config:000000000000000e .L0 
C:\Users\stapi\AppData\Local\Temp\ccdJdmlr.s:436    .text.usart_data_first_config:0000000000000016 .L0 
C:\Users\stapi\AppData\Local\Temp\ccdJdmlr.s:541    .text.usart_invert_config:000000000000006c .L0 
C:\Users\stapi\AppData\Local\Temp\ccdJdmlr.s:565    .text.usart_overrun_enable:0000000000000010 .L0 
C:\Users\stapi\AppData\Local\Temp\ccdJdmlr.s:589    .text.usart_overrun_disable:0000000000000010 .L0 
C:\Users\stapi\AppData\Local\Temp\ccdJdmlr.s:618    .text.usart_oversample_config:0000000000000016 .L0 
C:\Users\stapi\AppData\Local\Temp\ccdJdmlr.s:647    .text.usart_sample_bit_config:0000000000000016 .L0 
C:\Users\stapi\AppData\Local\Temp\ccdJdmlr.s:666    .text.usart_receiver_timeout_enable:000000000000000a .L0 
C:\Users\stapi\AppData\Local\Temp\ccdJdmlr.s:685    .text.usart_receiver_timeout_disable:000000000000000a .L0 
C:\Users\stapi\AppData\Local\Temp\ccdJdmlr.s:710    .text.usart_receiver_timeout_threshold_config:0000000000000012 .L0 
C:\Users\stapi\AppData\Local\Temp\ccdJdmlr.s:730    .text.usart_data_transmit:0000000000000008 .L0 
C:\Users\stapi\AppData\Local\Temp\ccdJdmlr.s:749    .text.usart_data_receive:0000000000000008 .L0 
C:\Users\stapi\AppData\Local\Temp\ccdJdmlr.s:768    .text.usart_command_enable:0000000000000008 .L0 
C:\Users\stapi\AppData\Local\Temp\ccdJdmlr.s:802    .text.usart_address_config:0000000000000018 .L0 
C:\Users\stapi\AppData\Local\Temp\ccdJdmlr.s:835    .text.usart_address_detection_mode_config:0000000000000016 .L0 
C:\Users\stapi\AppData\Local\Temp\ccdJdmlr.s:854    .text.usart_mute_mode_enable:000000000000000a .L0 
C:\Users\stapi\AppData\Local\Temp\ccdJdmlr.s:873    .text.usart_mute_mode_disable:000000000000000a .L0 
C:\Users\stapi\AppData\Local\Temp\ccdJdmlr.s:902    .text.usart_mute_mode_wakeup_config:0000000000000016 .L0 
C:\Users\stapi\AppData\Local\Temp\ccdJdmlr.s:926    .text.usart_lin_mode_enable:0000000000000010 .L0 
C:\Users\stapi\AppData\Local\Temp\ccdJdmlr.s:950    .text.usart_lin_mode_disable:0000000000000010 .L0 
C:\Users\stapi\AppData\Local\Temp\ccdJdmlr.s:983    .text.usart_lin_break_detection_length_config:000000000000001a .L0 
C:\Users\stapi\AppData\Local\Temp\ccdJdmlr.s:1007   .text.usart_halfduplex_enable:0000000000000010 .L0 
C:\Users\stapi\AppData\Local\Temp\ccdJdmlr.s:1031   .text.usart_halfduplex_disable:000000000000000e .L0 
C:\Users\stapi\AppData\Local\Temp\ccdJdmlr.s:1055   .text.usart_clock_enable:0000000000000010 .L0 
C:\Users\stapi\AppData\Local\Temp\ccdJdmlr.s:1079   .text.usart_clock_disable:0000000000000010 .L0 
C:\Users\stapi\AppData\Local\Temp\ccdJdmlr.s:1124   .text.usart_synchronous_clock_config:0000000000000026 .L0 
C:\Users\stapi\AppData\Local\Temp\ccdJdmlr.s:1161   .text.usart_guard_time_config:000000000000001c .L0 
C:\Users\stapi\AppData\Local\Temp\ccdJdmlr.s:1185   .text.usart_smartcard_mode_enable:0000000000000010 .L0 
C:\Users\stapi\AppData\Local\Temp\ccdJdmlr.s:1209   .text.usart_smartcard_mode_disable:0000000000000010 .L0 
C:\Users\stapi\AppData\Local\Temp\ccdJdmlr.s:1233   .text.usart_smartcard_mode_nack_enable:0000000000000010 .L0 
C:\Users\stapi\AppData\Local\Temp\ccdJdmlr.s:1257   .text.usart_smartcard_mode_nack_disable:000000000000000e .L0 
C:\Users\stapi\AppData\Local\Temp\ccdJdmlr.s:1276   .text.usart_smartcard_mode_early_nack_enable:000000000000000e .L0 
C:\Users\stapi\AppData\Local\Temp\ccdJdmlr.s:1295   .text.usart_smartcard_mode_early_nack_disable:000000000000000c .L0 
C:\Users\stapi\AppData\Local\Temp\ccdJdmlr.s:1336   .text.usart_smartcard_autoretry_config:0000000000000022 .L0 
C:\Users\stapi\AppData\Local\Temp\ccdJdmlr.s:1365   .text.usart_block_length_config:0000000000000012 .L0 
C:\Users\stapi\AppData\Local\Temp\ccdJdmlr.s:1389   .text.usart_irda_mode_enable:0000000000000010 .L0 
C:\Users\stapi\AppData\Local\Temp\ccdJdmlr.s:1413   .text.usart_irda_mode_disable:000000000000000e .L0 
C:\Users\stapi\AppData\Local\Temp\ccdJdmlr.s:1443   .text.usart_prescaler_config:0000000000000016 .L0 
C:\Users\stapi\AppData\Local\Temp\ccdJdmlr.s:1476   .text.usart_irda_lowpower_config:0000000000000016 .L0 
C:\Users\stapi\AppData\Local\Temp\ccdJdmlr.s:1509   .text.usart_hardware_flow_rts_config:000000000000001a .L0 
C:\Users\stapi\AppData\Local\Temp\ccdJdmlr.s:1542   .text.usart_hardware_flow_cts_config:000000000000001a .L0 
C:\Users\stapi\AppData\Local\Temp\ccdJdmlr.s:1566   .text.usart_hardware_flow_coherence_config:0000000000000016 .L0 
C:\Users\stapi\AppData\Local\Temp\ccdJdmlr.s:1590   .text.usart_rs485_driver_enable:0000000000000010 .L0 
C:\Users\stapi\AppData\Local\Temp\ccdJdmlr.s:1614   .text.usart_rs485_driver_disable:0000000000000010 .L0 
C:\Users\stapi\AppData\Local\Temp\ccdJdmlr.s:1655   .text.usart_driver_assertime_config:0000000000000022 .L0 
C:\Users\stapi\AppData\Local\Temp\ccdJdmlr.s:1696   .text.usart_driver_deassertime_config:0000000000000022 .L0 
C:\Users\stapi\AppData\Local\Temp\ccdJdmlr.s:1730   .text.usart_depolarity_config:000000000000001a .L0 
C:\Users\stapi\AppData\Local\Temp\ccdJdmlr.s:1760   .text.usart_dma_receive_config:000000000000000c .L0 
C:\Users\stapi\AppData\Local\Temp\ccdJdmlr.s:1790   .text.usart_dma_transmit_config:000000000000000c .L0 
C:\Users\stapi\AppData\Local\Temp\ccdJdmlr.s:1814   .text.usart_reception_error_dma_disable:0000000000000010 .L0 
C:\Users\stapi\AppData\Local\Temp\ccdJdmlr.s:1838   .text.usart_reception_error_dma_enable:0000000000000010 .L0 
C:\Users\stapi\AppData\Local\Temp\ccdJdmlr.s:1857   .text.usart_wakeup_enable:000000000000000a .L0 
C:\Users\stapi\AppData\Local\Temp\ccdJdmlr.s:1876   .text.usart_wakeup_disable:0000000000000008 .L0 
C:\Users\stapi\AppData\Local\Temp\ccdJdmlr.s:1914   .text.usart_wakeup_mode_config:0000000000000020 .L0 
C:\Users\stapi\AppData\Local\Temp\ccdJdmlr.s:1933   .text.usart_receive_fifo_enable:000000000000000e .L0 
C:\Users\stapi\AppData\Local\Temp\ccdJdmlr.s:1952   .text.usart_receive_fifo_disable:000000000000000e .L0 
C:\Users\stapi\AppData\Local\Temp\ccdJdmlr.s:1972   .text.usart_receive_fifo_counter_number:000000000000000a .L0 
C:\Users\stapi\AppData\Local\Temp\ccdJdmlr.s:1996   .text.usart_flag_get:0000000000000014 .L0 
C:\Users\stapi\AppData\Local\Temp\ccdJdmlr.s:2040   .text.usart_flag_clear:0000000000000032 .L0 
C:\Users\stapi\AppData\Local\Temp\ccdJdmlr.s:2064   .text.usart_interrupt_enable:0000000000000014 .L0 
C:\Users\stapi\AppData\Local\Temp\ccdJdmlr.s:2091   .text.usart_interrupt_disable:0000000000000018 .L0 
C:\Users\stapi\AppData\Local\Temp\ccdJdmlr.s:2141   .text.usart_interrupt_flag_get:000000000000002e .L0 
C:\Users\stapi\AppData\Local\Temp\ccdJdmlr.s:2177   .text.usart_interrupt_flag_clear:0000000000000026 .L0 
                     .debug_frame:0000000000000000 .L0 
C:\Users\stapi\AppData\Local\Temp\ccdJdmlr.s:38     .text.usart_deinit:0000000000000030 .L2
C:\Users\stapi\AppData\Local\Temp\ccdJdmlr.s:78     .text.usart_deinit:0000000000000074 .L3
C:\Users\stapi\AppData\Local\Temp\ccdJdmlr.s:58     .text.usart_deinit:0000000000000052 .L8
C:\Users\stapi\AppData\Local\Temp\ccdJdmlr.s:200    .text.usart_baudrate_set:0000000000000070 .L10
C:\Users\stapi\AppData\Local\Temp\ccdJdmlr.s:219    .text.usart_baudrate_set:0000000000000088 .L11
C:\Users\stapi\AppData\Local\Temp\ccdJdmlr.s:210    .text.usart_baudrate_set:000000000000007c .L17
C:\Users\stapi\AppData\Local\Temp\ccdJdmlr.s:176    .text.usart_baudrate_set:000000000000005a .L14
C:\Users\stapi\AppData\Local\Temp\ccdJdmlr.s:131    .text.usart_baudrate_set:000000000000002e .L13
C:\Users\stapi\AppData\Local\Temp\ccdJdmlr.s:462    .rodata.usart_invert_config:0000000000000000 .L29
C:\Users\stapi\AppData\Local\Temp\ccdJdmlr.s:479    .text.usart_invert_config:0000000000000024 .L26
C:\Users\stapi\AppData\Local\Temp\ccdJdmlr.s:490    .text.usart_invert_config:0000000000000030 .L36
C:\Users\stapi\AppData\Local\Temp\ccdJdmlr.s:498    .text.usart_invert_config:000000000000003a .L35
C:\Users\stapi\AppData\Local\Temp\ccdJdmlr.s:506    .text.usart_invert_config:0000000000000044 .L34
C:\Users\stapi\AppData\Local\Temp\ccdJdmlr.s:514    .text.usart_invert_config:000000000000004e .L33
C:\Users\stapi\AppData\Local\Temp\ccdJdmlr.s:522    .text.usart_invert_config:0000000000000058 .L32
C:\Users\stapi\AppData\Local\Temp\ccdJdmlr.s:530    .text.usart_invert_config:0000000000000062 .L31
C:\Users\stapi\AppData\Local\Temp\ccdJdmlr.s:482    .text.usart_invert_config:0000000000000026 .L30
C:\Users\stapi\AppData\Local\Temp\ccdJdmlr.s:472    .text.usart_invert_config:000000000000001c .L28
C:\Users\stapi\AppData\Local\Temp\ccdJdmlr.s:2030   .text.usart_flag_clear:0000000000000028 .L96
C:\Users\stapi\AppData\Local\Temp\ccdJdmlr.s:2023   .text.usart_flag_clear:000000000000001a .L97
C:\Users\stapi\AppData\Local\Temp\ccdJdmlr.s:2135   .text.usart_interrupt_flag_get:000000000000002c .L100
C:\Users\stapi\AppData\Local\Temp\ccdJdmlr.s:2167   .text.usart_interrupt_flag_clear:0000000000000018 .L108
C:\Users\stapi\AppData\Local\Temp\ccdJdmlr.s:4476   .debug_abbrev:0000000000000000 .Ldebug_abbrev0
C:\Users\stapi\AppData\Local\Temp\ccdJdmlr.s:6477   .debug_str:0000000000000ef0 .LASF228
C:\Users\stapi\AppData\Local\Temp\ccdJdmlr.s:6305   .debug_str:0000000000000873 .LASF229
C:\Users\stapi\AppData\Local\Temp\ccdJdmlr.s:6245   .debug_str:00000000000005ea .LASF230
C:\Users\stapi\AppData\Local\Temp\ccdJdmlr.s:5911   .debug_ranges:0000000000000000 .Ldebug_ranges0
C:\Users\stapi\AppData\Local\Temp\ccdJdmlr.s:6057   .debug_line:0000000000000000 .Ldebug_line0
C:\Users\stapi\AppData\Local\Temp\ccdJdmlr.s:6413   .debug_str:0000000000000cbd .LASF0
C:\Users\stapi\AppData\Local\Temp\ccdJdmlr.s:6133   .debug_str:0000000000000280 .LASF1
C:\Users\stapi\AppData\Local\Temp\ccdJdmlr.s:6091   .debug_str:0000000000000136 .LASF4
C:\Users\stapi\AppData\Local\Temp\ccdJdmlr.s:6357   .debug_str:0000000000000ae8 .LASF2
C:\Users\stapi\AppData\Local\Temp\ccdJdmlr.s:6269   .debug_str:0000000000000719 .LASF3
C:\Users\stapi\AppData\Local\Temp\ccdJdmlr.s:6419   .debug_str:0000000000000ce5 .LASF5
C:\Users\stapi\AppData\Local\Temp\ccdJdmlr.s:6243   .debug_str:00000000000005d7 .LASF6
C:\Users\stapi\AppData\Local\Temp\ccdJdmlr.s:6159   .debug_str:0000000000000351 .LASF7
C:\Users\stapi\AppData\Local\Temp\ccdJdmlr.s:6191   .debug_str:0000000000000444 .LASF8
C:\Users\stapi\AppData\Local\Temp\ccdJdmlr.s:6227   .debug_str:000000000000056c .LASF9
C:\Users\stapi\AppData\Local\Temp\ccdJdmlr.s:6131   .debug_str:0000000000000272 .LASF10
C:\Users\stapi\AppData\Local\Temp\ccdJdmlr.s:6143   .debug_str:00000000000002d4 .LASF11
C:\Users\stapi\AppData\Local\Temp\ccdJdmlr.s:6405   .debug_str:0000000000000c99 .LASF12
C:\Users\stapi\AppData\Local\Temp\ccdJdmlr.s:6483   .debug_str:0000000000000ffd .LASF13
C:\Users\stapi\AppData\Local\Temp\ccdJdmlr.s:6221   .debug_str:000000000000054a .LASF14
C:\Users\stapi\AppData\Local\Temp\ccdJdmlr.s:6173   .debug_str:00000000000003a3 .LASF15
C:\Users\stapi\AppData\Local\Temp\ccdJdmlr.s:6147   .debug_str:00000000000002f3 .LASF16
C:\Users\stapi\AppData\Local\Temp\ccdJdmlr.s:6085   .debug_str:000000000000010b .LASF17
C:\Users\stapi\AppData\Local\Temp\ccdJdmlr.s:6183   .debug_str:0000000000000404 .LASF18
C:\Users\stapi\AppData\Local\Temp\ccdJdmlr.s:6233   .debug_str:0000000000000598 .LASF19
C:\Users\stapi\AppData\Local\Temp\ccdJdmlr.s:6277   .debug_str:0000000000000759 .LASF20
C:\Users\stapi\AppData\Local\Temp\ccdJdmlr.s:6351   .debug_str:0000000000000aa9 .LASF21
C:\Users\stapi\AppData\Local\Temp\ccdJdmlr.s:6501   .debug_str:000000000000107e .LASF22
C:\Users\stapi\AppData\Local\Temp\ccdJdmlr.s:6445   .debug_str:0000000000000dc2 .LASF23
C:\Users\stapi\AppData\Local\Temp\ccdJdmlr.s:6307   .debug_str:000000000000090d .LASF24
C:\Users\stapi\AppData\Local\Temp\ccdJdmlr.s:6259   .debug_str:00000000000006ce .LASF25
C:\Users\stapi\AppData\Local\Temp\ccdJdmlr.s:6333   .debug_str:0000000000000a10 .LASF26
C:\Users\stapi\AppData\Local\Temp\ccdJdmlr.s:6153   .debug_str:0000000000000313 .LASF27
C:\Users\stapi\AppData\Local\Temp\ccdJdmlr.s:6361   .debug_str:0000000000000b09 .LASF28
C:\Users\stapi\AppData\Local\Temp\ccdJdmlr.s:6185   .debug_str:0000000000000411 .LASF29
C:\Users\stapi\AppData\Local\Temp\ccdJdmlr.s:6455   .debug_str:0000000000000e16 .LASF30
C:\Users\stapi\AppData\Local\Temp\ccdJdmlr.s:6401   .debug_str:0000000000000c77 .LASF31
C:\Users\stapi\AppData\Local\Temp\ccdJdmlr.s:6255   .debug_str:00000000000006bb .LASF32
C:\Users\stapi\AppData\Local\Temp\ccdJdmlr.s:6273   .debug_str:0000000000000736 .LASF33
C:\Users\stapi\AppData\Local\Temp\ccdJdmlr.s:6071   .debug_str:0000000000000074 .LASF34
C:\Users\stapi\AppData\Local\Temp\ccdJdmlr.s:6065   .debug_str:0000000000000041 .LASF35
C:\Users\stapi\AppData\Local\Temp\ccdJdmlr.s:6509   .debug_str:00000000000010c2 .LASF36
C:\Users\stapi\AppData\Local\Temp\ccdJdmlr.s:6241   .debug_str:00000000000005cb .LASF37
C:\Users\stapi\AppData\Local\Temp\ccdJdmlr.s:6187   .debug_str:000000000000041d .LASF38
C:\Users\stapi\AppData\Local\Temp\ccdJdmlr.s:6205   .debug_str:00000000000004b1 .LASF39
C:\Users\stapi\AppData\Local\Temp\ccdJdmlr.s:6325   .debug_str:00000000000009b1 .LASF40
C:\Users\stapi\AppData\Local\Temp\ccdJdmlr.s:6081   .debug_str:00000000000000e7 .LASF41
C:\Users\stapi\AppData\Local\Temp\ccdJdmlr.s:6199   .debug_str:0000000000000479 .LASF42
C:\Users\stapi\AppData\Local\Temp\ccdJdmlr.s:6151   .debug_str:0000000000000308 .LASF43
C:\Users\stapi\AppData\Local\Temp\ccdJdmlr.s:6089   .debug_str:0000000000000128 .LASF44
C:\Users\stapi\AppData\Local\Temp\ccdJdmlr.s:6453   .debug_str:0000000000000e07 .LASF45
C:\Users\stapi\AppData\Local\Temp\ccdJdmlr.s:6399   .debug_str:0000000000000c68 .LASF46
C:\Users\stapi\AppData\Local\Temp\ccdJdmlr.s:6331   .debug_str:0000000000000a06 .LASF47
C:\Users\stapi\AppData\Local\Temp\ccdJdmlr.s:6139   .debug_str:00000000000002bb .LASF48
C:\Users\stapi\AppData\Local\Temp\ccdJdmlr.s:6129   .debug_str:000000000000026b .LASF49
C:\Users\stapi\AppData\Local\Temp\ccdJdmlr.s:6415   .debug_str:0000000000000cca .LASF50
C:\Users\stapi\AppData\Local\Temp\ccdJdmlr.s:6505   .debug_str:00000000000010ab .LASF51
C:\Users\stapi\AppData\Local\Temp\ccdJdmlr.s:6287   .debug_str:00000000000007aa .LASF52
C:\Users\stapi\AppData\Local\Temp\ccdJdmlr.s:6267   .debug_str:0000000000000711 .LASF53
C:\Users\stapi\AppData\Local\Temp\ccdJdmlr.s:6149   .debug_str:00000000000002f9 .LASF54
C:\Users\stapi\AppData\Local\Temp\ccdJdmlr.s:6077   .debug_str:00000000000000b8 .LASF55
C:\Users\stapi\AppData\Local\Temp\ccdJdmlr.s:6265   .debug_str:0000000000000703 .LASF56
C:\Users\stapi\AppData\Local\Temp\ccdJdmlr.s:6487   .debug_str:0000000000001017 .LASF57
C:\Users\stapi\AppData\Local\Temp\ccdJdmlr.s:6349   .debug_str:0000000000000a9b .LASF58
C:\Users\stapi\AppData\Local\Temp\ccdJdmlr.s:6195   .debug_str:0000000000000462 .LASF59
C:\Users\stapi\AppData\Local\Temp\ccdJdmlr.s:6507   .debug_str:00000000000010b3 .LASF60
C:\Users\stapi\AppData\Local\Temp\ccdJdmlr.s:6341   .debug_str:0000000000000a54 .LASF61
C:\Users\stapi\AppData\Local\Temp\ccdJdmlr.s:6113   .debug_str:00000000000001d9 .LASF62
C:\Users\stapi\AppData\Local\Temp\ccdJdmlr.s:6109   .debug_str:00000000000001b6 .LASF63
C:\Users\stapi\AppData\Local\Temp\ccdJdmlr.s:6383   .debug_str:0000000000000bdd .LASF64
C:\Users\stapi\AppData\Local\Temp\ccdJdmlr.s:6465   .debug_str:0000000000000e74 .LASF65
C:\Users\stapi\AppData\Local\Temp\ccdJdmlr.s:6261   .debug_str:00000000000006db .LASF66
C:\Users\stapi\AppData\Local\Temp\ccdJdmlr.s:6409   .debug_str:0000000000000ca6 .LASF67
C:\Users\stapi\AppData\Local\Temp\ccdJdmlr.s:6353   .debug_str:0000000000000ab4 .LASF68
C:\Users\stapi\AppData\Local\Temp\ccdJdmlr.s:6063   .debug_str:0000000000000031 .LASF69
C:\Users\stapi\AppData\Local\Temp\ccdJdmlr.s:6303   .debug_str:0000000000000862 .LASF70
C:\Users\stapi\AppData\Local\Temp\ccdJdmlr.s:6101   .debug_str:0000000000000176 .LASF71
C:\Users\stapi\AppData\Local\Temp\ccdJdmlr.s:6513   .debug_str:00000000000010dd .LASF72
C:\Users\stapi\AppData\Local\Temp\ccdJdmlr.s:6461   .debug_str:0000000000000e51 .LASF73
C:\Users\stapi\AppData\Local\Temp\ccdJdmlr.s:6299   .debug_str:0000000000000839 .LASF74
C:\Users\stapi\AppData\Local\Temp\ccdJdmlr.s:6087   .debug_str:0000000000000116 .LASF75
C:\Users\stapi\AppData\Local\Temp\ccdJdmlr.s:6211   .debug_str:00000000000004e0 .LASF76
C:\Users\stapi\AppData\Local\Temp\ccdJdmlr.s:6209   .debug_str:00000000000004d1 .LASF77
C:\Users\stapi\AppData\Local\Temp\ccdJdmlr.s:6389   .debug_str:0000000000000c0d .LASF78
C:\Users\stapi\AppData\Local\Temp\ccdJdmlr.s:6491   .debug_str:000000000000103b .LASF79
C:\Users\stapi\AppData\Local\Temp\ccdJdmlr.s:6367   .debug_str:0000000000000b3a .LASF80
C:\Users\stapi\AppData\Local\Temp\ccdJdmlr.s:6253   .debug_str:00000000000006a9 .LASF81
C:\Users\stapi\AppData\Local\Temp\ccdJdmlr.s:6469   .debug_str:0000000000000e96 .LASF82
C:\Users\stapi\AppData\Local\Temp\ccdJdmlr.s:6463   .debug_str:0000000000000e61 .LASF83
C:\Users\stapi\AppData\Local\Temp\ccdJdmlr.s:6481   .debug_str:0000000000000feb .LASF84
C:\Users\stapi\AppData\Local\Temp\ccdJdmlr.s:6451   .debug_str:0000000000000df3 .LASF85
C:\Users\stapi\AppData\Local\Temp\ccdJdmlr.s:6499   .debug_str:0000000000001064 .LASF86
C:\Users\stapi\AppData\Local\Temp\ccdJdmlr.s:6403   .debug_str:0000000000000c85 .LASF87
C:\Users\stapi\AppData\Local\Temp\ccdJdmlr.s:6347   .debug_str:0000000000000a88 .LASF88
C:\Users\stapi\AppData\Local\Temp\ccdJdmlr.s:6217   .debug_str:0000000000000529 .LASF89
C:\Users\stapi\AppData\Local\Temp\ccdJdmlr.s:6359   .debug_str:0000000000000af6 .LASF90
C:\Users\stapi\AppData\Local\Temp\ccdJdmlr.s:6343   .debug_str:0000000000000a62 .LASF91
C:\Users\stapi\AppData\Local\Temp\ccdJdmlr.s:6135   .debug_str:000000000000028c .LASF92
C:\Users\stapi\AppData\Local\Temp\ccdJdmlr.s:6391   .debug_str:0000000000000c1d .LASF93
C:\Users\stapi\AppData\Local\Temp\ccdJdmlr.s:6099   .debug_str:0000000000000163 .LASF94
C:\Users\stapi\AppData\Local\Temp\ccdJdmlr.s:6315   .debug_str:000000000000095a .LASF95
C:\Users\stapi\AppData\Local\Temp\ccdJdmlr.s:6321   .debug_str:0000000000000995 .LASF96
C:\Users\stapi\AppData\Local\Temp\ccdJdmlr.s:6097   .debug_str:0000000000000156 .LASF97
C:\Users\stapi\AppData\Local\Temp\ccdJdmlr.s:6093   .debug_str:0000000000000140 .LASF98
C:\Users\stapi\AppData\Local\Temp\ccdJdmlr.s:6323   .debug_str:00000000000009a2 .LASF99
C:\Users\stapi\AppData\Local\Temp\ccdJdmlr.s:6423   .debug_str:0000000000000cf5 .LASF100
C:\Users\stapi\AppData\Local\Temp\ccdJdmlr.s:6313   .debug_str:000000000000094d .LASF101
C:\Users\stapi\AppData\Local\Temp\ccdJdmlr.s:6223   .debug_str:0000000000000553 .LASF102
C:\Users\stapi\AppData\Local\Temp\ccdJdmlr.s:6385   .debug_str:0000000000000bed .LASF103
C:\Users\stapi\AppData\Local\Temp\ccdJdmlr.s:6167   .debug_str:0000000000000388 .LASF104
C:\Users\stapi\AppData\Local\Temp\ccdJdmlr.s:6511   .debug_str:00000000000010d0 .LASF105
C:\Users\stapi\AppData\Local\Temp\ccdJdmlr.s:6177   .debug_str:00000000000003ce .LASF106
C:\Users\stapi\AppData\Local\Temp\ccdJdmlr.s:6345   .debug_str:0000000000000a7a .LASF107
C:\Users\stapi\AppData\Local\Temp\ccdJdmlr.s:6369   .debug_str:0000000000000b4c .LASF108
C:\Users\stapi\AppData\Local\Temp\ccdJdmlr.s:6229   .debug_str:000000000000057e .LASF109
C:\Users\stapi\AppData\Local\Temp\ccdJdmlr.s:6485   .debug_str:0000000000001005 .LASF110
C:\Users\stapi\AppData\Local\Temp\ccdJdmlr.s:6417   .debug_str:0000000000000cd2 .LASF111
C:\Users\stapi\AppData\Local\Temp\ccdJdmlr.s:6069   .debug_str:0000000000000061 .LASF112
C:\Users\stapi\AppData\Local\Temp\ccdJdmlr.s:6379   .debug_str:0000000000000bb3 .LASF113
C:\Users\stapi\AppData\Local\Temp\ccdJdmlr.s:6193   .debug_str:000000000000044f .LASF114
C:\Users\stapi\AppData\Local\Temp\ccdJdmlr.s:6479   .debug_str:0000000000000fd7 .LASF115
C:\Users\stapi\AppData\Local\Temp\ccdJdmlr.s:6141   .debug_str:00000000000002c2 .LASF116
C:\Users\stapi\AppData\Local\Temp\ccdJdmlr.s:6373   .debug_str:0000000000000b74 .LASF117
C:\Users\stapi\AppData\Local\Temp\ccdJdmlr.s:6517   .debug_str:0000000000001106 .LASF118
C:\Users\stapi\AppData\Local\Temp\ccdJdmlr.s:6115   .debug_str:00000000000001e7 .LASF123
C:\Users\stapi\AppData\Local\Temp\ccdJdmlr.s:2146   .text.usart_interrupt_flag_clear:0000000000000000 .LFB435
C:\Users\stapi\AppData\Local\Temp\ccdJdmlr.s:2175   .text.usart_interrupt_flag_clear:0000000000000026 .LFE435
C:\Users\stapi\AppData\Local\Temp\ccdJdmlr.s:6427   .debug_str:0000000000000d0d .LASF119
C:\Users\stapi\AppData\Local\Temp\ccdJdmlr.s:6339   .debug_str:0000000000000a4b .LASF120
C:\Users\stapi\AppData\Local\Temp\ccdJdmlr.s:4909   .debug_loc:0000000000000000 .LLST42
C:\Users\stapi\AppData\Local\Temp\ccdJdmlr.s:6291   .debug_str:00000000000007dc .LASF129
C:\Users\stapi\AppData\Local\Temp\ccdJdmlr.s:2096   .text.usart_interrupt_flag_get:0000000000000000 .LFB434
C:\Users\stapi\AppData\Local\Temp\ccdJdmlr.s:2139   .text.usart_interrupt_flag_get:000000000000002e .LFE434
C:\Users\stapi\AppData\Local\Temp\ccdJdmlr.s:4927   .debug_loc:000000000000002c .LLST38
C:\Users\stapi\AppData\Local\Temp\ccdJdmlr.s:4941   .debug_loc:000000000000004d .LLST39
C:\Users\stapi\AppData\Local\Temp\ccdJdmlr.s:6285   .debug_str:00000000000007a0 .LASF121
C:\Users\stapi\AppData\Local\Temp\ccdJdmlr.s:4955   .debug_loc:000000000000006e .LLST40
C:\Users\stapi\AppData\Local\Temp\ccdJdmlr.s:6279   .debug_str:0000000000000766 .LASF122
C:\Users\stapi\AppData\Local\Temp\ccdJdmlr.s:4990   .debug_loc:00000000000000ab .LLST41
C:\Users\stapi\AppData\Local\Temp\ccdJdmlr.s:6293   .debug_str:00000000000007f5 .LASF124
C:\Users\stapi\AppData\Local\Temp\ccdJdmlr.s:2069   .text.usart_interrupt_disable:0000000000000000 .LFB433
C:\Users\stapi\AppData\Local\Temp\ccdJdmlr.s:2089   .text.usart_interrupt_disable:0000000000000018 .LFE433
C:\Users\stapi\AppData\Local\Temp\ccdJdmlr.s:5021   .debug_loc:00000000000000e4 .LLST36
C:\Users\stapi\AppData\Local\Temp\ccdJdmlr.s:6181   .debug_str:00000000000003fa .LASF125
C:\Users\stapi\AppData\Local\Temp\ccdJdmlr.s:5035   .debug_loc:0000000000000105 .LLST37
C:\Users\stapi\AppData\Local\Temp\ccdJdmlr.s:6395   .debug_str:0000000000000c3d .LASF126
C:\Users\stapi\AppData\Local\Temp\ccdJdmlr.s:2045   .text.usart_interrupt_enable:0000000000000000 .LFB432
C:\Users\stapi\AppData\Local\Temp\ccdJdmlr.s:2062   .text.usart_interrupt_enable:0000000000000014 .LFE432
C:\Users\stapi\AppData\Local\Temp\ccdJdmlr.s:5049   .debug_loc:0000000000000126 .LLST34
C:\Users\stapi\AppData\Local\Temp\ccdJdmlr.s:5063   .debug_loc:0000000000000147 .LLST35
C:\Users\stapi\AppData\Local\Temp\ccdJdmlr.s:6387   .debug_str:0000000000000bfc .LASF127
C:\Users\stapi\AppData\Local\Temp\ccdJdmlr.s:2001   .text.usart_flag_clear:0000000000000000 .LFB431
C:\Users\stapi\AppData\Local\Temp\ccdJdmlr.s:2038   .text.usart_flag_clear:0000000000000032 .LFE431
C:\Users\stapi\AppData\Local\Temp\ccdJdmlr.s:6375   .debug_str:0000000000000b87 .LASF128
C:\Users\stapi\AppData\Local\Temp\ccdJdmlr.s:5077   .debug_loc:0000000000000168 .LLST33
C:\Users\stapi\AppData\Local\Temp\ccdJdmlr.s:6219   .debug_str:000000000000053b .LASF130
C:\Users\stapi\AppData\Local\Temp\ccdJdmlr.s:1977   .text.usart_flag_get:0000000000000000 .LFB430
C:\Users\stapi\AppData\Local\Temp\ccdJdmlr.s:1994   .text.usart_flag_get:0000000000000014 .LFE430
C:\Users\stapi\AppData\Local\Temp\ccdJdmlr.s:5095   .debug_loc:0000000000000194 .LLST32
C:\Users\stapi\AppData\Local\Temp\ccdJdmlr.s:6073   .debug_str:000000000000007f .LASF131
C:\Users\stapi\AppData\Local\Temp\ccdJdmlr.s:1957   .text.usart_receive_fifo_counter_number:0000000000000000 .LFB429
C:\Users\stapi\AppData\Local\Temp\ccdJdmlr.s:1970   .text.usart_receive_fifo_counter_number:000000000000000a .LFE429
C:\Users\stapi\AppData\Local\Temp\ccdJdmlr.s:5109   .debug_loc:00000000000001b5 .LLST31
C:\Users\stapi\AppData\Local\Temp\ccdJdmlr.s:6189   .debug_str:0000000000000429 .LASF132
C:\Users\stapi\AppData\Local\Temp\ccdJdmlr.s:1938   .text.usart_receive_fifo_disable:0000000000000000 .LFB428
C:\Users\stapi\AppData\Local\Temp\ccdJdmlr.s:1950   .text.usart_receive_fifo_disable:000000000000000e .LFE428
C:\Users\stapi\AppData\Local\Temp\ccdJdmlr.s:6249   .debug_str:0000000000000676 .LASF133
C:\Users\stapi\AppData\Local\Temp\ccdJdmlr.s:1919   .text.usart_receive_fifo_enable:0000000000000000 .LFB427
C:\Users\stapi\AppData\Local\Temp\ccdJdmlr.s:1931   .text.usart_receive_fifo_enable:000000000000000e .LFE427
C:\Users\stapi\AppData\Local\Temp\ccdJdmlr.s:6515   .debug_str:00000000000010ed .LASF134
C:\Users\stapi\AppData\Local\Temp\ccdJdmlr.s:1881   .text.usart_wakeup_mode_config:0000000000000000 .LFB426
C:\Users\stapi\AppData\Local\Temp\ccdJdmlr.s:1912   .text.usart_wakeup_mode_config:0000000000000020 .LFE426
C:\Users\stapi\AppData\Local\Temp\ccdJdmlr.s:5123   .debug_loc:00000000000001d6 .LLST30
C:\Users\stapi\AppData\Local\Temp\ccdJdmlr.s:6489   .debug_str:0000000000001026 .LASF135
C:\Users\stapi\AppData\Local\Temp\ccdJdmlr.s:1862   .text.usart_wakeup_disable:0000000000000000 .LFB425
C:\Users\stapi\AppData\Local\Temp\ccdJdmlr.s:1874   .text.usart_wakeup_disable:0000000000000008 .LFE425
C:\Users\stapi\AppData\Local\Temp\ccdJdmlr.s:6439   .debug_str:0000000000000d7c .LASF136
C:\Users\stapi\AppData\Local\Temp\ccdJdmlr.s:1843   .text.usart_wakeup_enable:0000000000000000 .LFB424
C:\Users\stapi\AppData\Local\Temp\ccdJdmlr.s:1855   .text.usart_wakeup_enable:000000000000000a .LFE424
C:\Users\stapi\AppData\Local\Temp\ccdJdmlr.s:6213   .debug_str:00000000000004ef .LASF137
C:\Users\stapi\AppData\Local\Temp\ccdJdmlr.s:1819   .text.usart_reception_error_dma_enable:0000000000000000 .LFB423
C:\Users\stapi\AppData\Local\Temp\ccdJdmlr.s:1836   .text.usart_reception_error_dma_enable:0000000000000010 .LFE423
C:\Users\stapi\AppData\Local\Temp\ccdJdmlr.s:6175   .debug_str:00000000000003ac .LASF138
C:\Users\stapi\AppData\Local\Temp\ccdJdmlr.s:1795   .text.usart_reception_error_dma_disable:0000000000000000 .LFB422
C:\Users\stapi\AppData\Local\Temp\ccdJdmlr.s:1812   .text.usart_reception_error_dma_disable:0000000000000010 .LFE422
C:\Users\stapi\AppData\Local\Temp\ccdJdmlr.s:6059   .debug_str:0000000000000000 .LASF139
C:\Users\stapi\AppData\Local\Temp\ccdJdmlr.s:1765   .text.usart_dma_transmit_config:0000000000000000 .LFB421
C:\Users\stapi\AppData\Local\Temp\ccdJdmlr.s:1788   .text.usart_dma_transmit_config:000000000000000c .LFE421
C:\Users\stapi\AppData\Local\Temp\ccdJdmlr.s:6447   .debug_str:0000000000000dcd .LASF140
C:\Users\stapi\AppData\Local\Temp\ccdJdmlr.s:5137   .debug_loc:00000000000001f7 .LLST28
C:\Users\stapi\AppData\Local\Temp\ccdJdmlr.s:5151   .debug_loc:0000000000000218 .LLST29
C:\Users\stapi\AppData\Local\Temp\ccdJdmlr.s:6215   .debug_str:0000000000000510 .LASF141
C:\Users\stapi\AppData\Local\Temp\ccdJdmlr.s:1735   .text.usart_dma_receive_config:0000000000000000 .LFB420
C:\Users\stapi\AppData\Local\Temp\ccdJdmlr.s:1758   .text.usart_dma_receive_config:000000000000000c .LFE420
C:\Users\stapi\AppData\Local\Temp\ccdJdmlr.s:5167   .debug_loc:0000000000000242 .LLST26
C:\Users\stapi\AppData\Local\Temp\ccdJdmlr.s:5181   .debug_loc:0000000000000263 .LLST27
C:\Users\stapi\AppData\Local\Temp\ccdJdmlr.s:6237   .debug_str:00000000000005ae .LASF142
C:\Users\stapi\AppData\Local\Temp\ccdJdmlr.s:1701   .text.usart_depolarity_config:0000000000000000 .LFB419
C:\Users\stapi\AppData\Local\Temp\ccdJdmlr.s:1728   .text.usart_depolarity_config:000000000000001a .LFE419
C:\Users\stapi\AppData\Local\Temp\ccdJdmlr.s:5197   .debug_loc:000000000000028d .LLST25
C:\Users\stapi\AppData\Local\Temp\ccdJdmlr.s:6079   .debug_str:00000000000000c7 .LASF143
C:\Users\stapi\AppData\Local\Temp\ccdJdmlr.s:1660   .text.usart_driver_deassertime_config:0000000000000000 .LFB418
C:\Users\stapi\AppData\Local\Temp\ccdJdmlr.s:1694   .text.usart_driver_deassertime_config:0000000000000022 .LFE418
C:\Users\stapi\AppData\Local\Temp\ccdJdmlr.s:6393   .debug_str:0000000000000c35 .LASF144
C:\Users\stapi\AppData\Local\Temp\ccdJdmlr.s:5211   .debug_loc:00000000000002ae .LLST24
C:\Users\stapi\AppData\Local\Temp\ccdJdmlr.s:6179   .debug_str:00000000000003dc .LASF145
C:\Users\stapi\AppData\Local\Temp\ccdJdmlr.s:1619   .text.usart_driver_assertime_config:0000000000000000 .LFB417
C:\Users\stapi\AppData\Local\Temp\ccdJdmlr.s:1653   .text.usart_driver_assertime_config:0000000000000022 .LFE417
C:\Users\stapi\AppData\Local\Temp\ccdJdmlr.s:6119   .debug_str:0000000000000207 .LASF146
C:\Users\stapi\AppData\Local\Temp\ccdJdmlr.s:5225   .debug_loc:00000000000002cf .LLST23
C:\Users\stapi\AppData\Local\Temp\ccdJdmlr.s:6311   .debug_str:0000000000000932 .LASF147
C:\Users\stapi\AppData\Local\Temp\ccdJdmlr.s:1595   .text.usart_rs485_driver_disable:0000000000000000 .LFB416
C:\Users\stapi\AppData\Local\Temp\ccdJdmlr.s:1612   .text.usart_rs485_driver_disable:0000000000000010 .LFE416
C:\Users\stapi\AppData\Local\Temp\ccdJdmlr.s:6371   .debug_str:0000000000000b5a .LASF148
C:\Users\stapi\AppData\Local\Temp\ccdJdmlr.s:1571   .text.usart_rs485_driver_enable:0000000000000000 .LFB415
C:\Users\stapi\AppData\Local\Temp\ccdJdmlr.s:1588   .text.usart_rs485_driver_enable:0000000000000010 .LFE415
C:\Users\stapi\AppData\Local\Temp\ccdJdmlr.s:6203   .debug_str:000000000000048c .LASF149
C:\Users\stapi\AppData\Local\Temp\ccdJdmlr.s:1547   .text.usart_hardware_flow_coherence_config:0000000000000000 .LFB414
C:\Users\stapi\AppData\Local\Temp\ccdJdmlr.s:1564   .text.usart_hardware_flow_coherence_config:0000000000000016 .LFE414
C:\Users\stapi\AppData\Local\Temp\ccdJdmlr.s:6441   .debug_str:0000000000000d90 .LASF150
C:\Users\stapi\AppData\Local\Temp\ccdJdmlr.s:1514   .text.usart_hardware_flow_cts_config:0000000000000000 .LFB413
C:\Users\stapi\AppData\Local\Temp\ccdJdmlr.s:1540   .text.usart_hardware_flow_cts_config:000000000000001a .LFE413
C:\Users\stapi\AppData\Local\Temp\ccdJdmlr.s:6105   .debug_str:000000000000018b .LASF151
C:\Users\stapi\AppData\Local\Temp\ccdJdmlr.s:5239   .debug_loc:00000000000002f0 .LLST22
C:\Users\stapi\AppData\Local\Temp\ccdJdmlr.s:6329   .debug_str:00000000000009e7 .LASF152
C:\Users\stapi\AppData\Local\Temp\ccdJdmlr.s:1481   .text.usart_hardware_flow_rts_config:0000000000000000 .LFB412
C:\Users\stapi\AppData\Local\Temp\ccdJdmlr.s:1507   .text.usart_hardware_flow_rts_config:000000000000001a .LFE412
C:\Users\stapi\AppData\Local\Temp\ccdJdmlr.s:6225   .debug_str:0000000000000562 .LASF153
C:\Users\stapi\AppData\Local\Temp\ccdJdmlr.s:5253   .debug_loc:0000000000000311 .LLST21
C:\Users\stapi\AppData\Local\Temp\ccdJdmlr.s:6121   .debug_str:000000000000020f .LASF154
C:\Users\stapi\AppData\Local\Temp\ccdJdmlr.s:1448   .text.usart_irda_lowpower_config:0000000000000000 .LFB411
C:\Users\stapi\AppData\Local\Temp\ccdJdmlr.s:1474   .text.usart_irda_lowpower_config:0000000000000016 .LFE411
C:\Users\stapi\AppData\Local\Temp\ccdJdmlr.s:6231   .debug_str:0000000000000593 .LASF155
C:\Users\stapi\AppData\Local\Temp\ccdJdmlr.s:5267   .debug_loc:0000000000000332 .LLST20
C:\Users\stapi\AppData\Local\Temp\ccdJdmlr.s:6083   .debug_str:00000000000000f4 .LASF156
C:\Users\stapi\AppData\Local\Temp\ccdJdmlr.s:1418   .text.usart_prescaler_config:0000000000000000 .LFB410
C:\Users\stapi\AppData\Local\Temp\ccdJdmlr.s:1441   .text.usart_prescaler_config:0000000000000016 .LFE410
C:\Users\stapi\AppData\Local\Temp\ccdJdmlr.s:5281   .debug_loc:0000000000000353 .LLST19
C:\Users\stapi\AppData\Local\Temp\ccdJdmlr.s:6301   .debug_str:000000000000084a .LASF157
C:\Users\stapi\AppData\Local\Temp\ccdJdmlr.s:1394   .text.usart_irda_mode_disable:0000000000000000 .LFB409
C:\Users\stapi\AppData\Local\Temp\ccdJdmlr.s:1411   .text.usart_irda_mode_disable:000000000000000e .LFE409
C:\Users\stapi\AppData\Local\Temp\ccdJdmlr.s:6283   .debug_str:0000000000000789 .LASF158
C:\Users\stapi\AppData\Local\Temp\ccdJdmlr.s:1370   .text.usart_irda_mode_enable:0000000000000000 .LFB408
C:\Users\stapi\AppData\Local\Temp\ccdJdmlr.s:1387   .text.usart_irda_mode_enable:0000000000000010 .LFE408
C:\Users\stapi\AppData\Local\Temp\ccdJdmlr.s:6309   .debug_str:0000000000000918 .LASF159
C:\Users\stapi\AppData\Local\Temp\ccdJdmlr.s:1341   .text.usart_block_length_config:0000000000000000 .LFB407
C:\Users\stapi\AppData\Local\Temp\ccdJdmlr.s:1363   .text.usart_block_length_config:0000000000000012 .LFE407
C:\Users\stapi\AppData\Local\Temp\ccdJdmlr.s:5295   .debug_loc:0000000000000374 .LLST18
C:\Users\stapi\AppData\Local\Temp\ccdJdmlr.s:6107   .debug_str:0000000000000195 .LASF160
C:\Users\stapi\AppData\Local\Temp\ccdJdmlr.s:1300   .text.usart_smartcard_autoretry_config:0000000000000000 .LFB406
C:\Users\stapi\AppData\Local\Temp\ccdJdmlr.s:1334   .text.usart_smartcard_autoretry_config:0000000000000022 .LFE406
C:\Users\stapi\AppData\Local\Temp\ccdJdmlr.s:6145   .debug_str:00000000000002eb .LASF161
C:\Users\stapi\AppData\Local\Temp\ccdJdmlr.s:5309   .debug_loc:0000000000000395 .LLST17
C:\Users\stapi\AppData\Local\Temp\ccdJdmlr.s:6289   .debug_str:00000000000007b4 .LASF162
C:\Users\stapi\AppData\Local\Temp\ccdJdmlr.s:1281   .text.usart_smartcard_mode_early_nack_disable:0000000000000000 .LFB405
C:\Users\stapi\AppData\Local\Temp\ccdJdmlr.s:1293   .text.usart_smartcard_mode_early_nack_disable:000000000000000c .LFE405
C:\Users\stapi\AppData\Local\Temp\ccdJdmlr.s:6377   .debug_str:0000000000000b8c .LASF163
C:\Users\stapi\AppData\Local\Temp\ccdJdmlr.s:1262   .text.usart_smartcard_mode_early_nack_enable:0000000000000000 .LFB404
C:\Users\stapi\AppData\Local\Temp\ccdJdmlr.s:1274   .text.usart_smartcard_mode_early_nack_enable:000000000000000e .LFE404
C:\Users\stapi\AppData\Local\Temp\ccdJdmlr.s:6127   .debug_str:0000000000000249 .LASF164
C:\Users\stapi\AppData\Local\Temp\ccdJdmlr.s:1238   .text.usart_smartcard_mode_nack_disable:0000000000000000 .LFB403
C:\Users\stapi\AppData\Local\Temp\ccdJdmlr.s:1255   .text.usart_smartcard_mode_nack_disable:000000000000000e .LFE403
C:\Users\stapi\AppData\Local\Temp\ccdJdmlr.s:6503   .debug_str:000000000000108a .LASF165
C:\Users\stapi\AppData\Local\Temp\ccdJdmlr.s:1214   .text.usart_smartcard_mode_nack_enable:0000000000000000 .LFB402
C:\Users\stapi\AppData\Local\Temp\ccdJdmlr.s:1231   .text.usart_smartcard_mode_nack_enable:0000000000000010 .LFE402
C:\Users\stapi\AppData\Local\Temp\ccdJdmlr.s:6471   .debug_str:0000000000000eaa .LASF166
C:\Users\stapi\AppData\Local\Temp\ccdJdmlr.s:1190   .text.usart_smartcard_mode_disable:0000000000000000 .LFB401
C:\Users\stapi\AppData\Local\Temp\ccdJdmlr.s:1207   .text.usart_smartcard_mode_disable:0000000000000010 .LFE401
C:\Users\stapi\AppData\Local\Temp\ccdJdmlr.s:6317   .debug_str:0000000000000974 .LASF167
C:\Users\stapi\AppData\Local\Temp\ccdJdmlr.s:1166   .text.usart_smartcard_mode_enable:0000000000000000 .LFB400
C:\Users\stapi\AppData\Local\Temp\ccdJdmlr.s:1183   .text.usart_smartcard_mode_enable:0000000000000010 .LFE400
C:\Users\stapi\AppData\Local\Temp\ccdJdmlr.s:6335   .debug_str:0000000000000a1b .LASF168
C:\Users\stapi\AppData\Local\Temp\ccdJdmlr.s:1129   .text.usart_guard_time_config:0000000000000000 .LFB399
C:\Users\stapi\AppData\Local\Temp\ccdJdmlr.s:1159   .text.usart_guard_time_config:000000000000001c .LFE399
C:\Users\stapi\AppData\Local\Temp\ccdJdmlr.s:6495   .debug_str:0000000000001054 .LASF169
C:\Users\stapi\AppData\Local\Temp\ccdJdmlr.s:5323   .debug_loc:00000000000003b6 .LLST16
C:\Users\stapi\AppData\Local\Temp\ccdJdmlr.s:6297   .debug_str:000000000000081a .LASF170
C:\Users\stapi\AppData\Local\Temp\ccdJdmlr.s:1084   .text.usart_synchronous_clock_config:0000000000000000 .LFB398
C:\Users\stapi\AppData\Local\Temp\ccdJdmlr.s:1122   .text.usart_synchronous_clock_config:0000000000000026 .LFE398
C:\Users\stapi\AppData\Local\Temp\ccdJdmlr.s:6319   .debug_str:0000000000000990 .LASF171
C:\Users\stapi\AppData\Local\Temp\ccdJdmlr.s:5337   .debug_loc:00000000000003d7 .LLST13
C:\Users\stapi\AppData\Local\Temp\ccdJdmlr.s:5351   .debug_loc:00000000000003f8 .LLST14
C:\Users\stapi\AppData\Local\Temp\ccdJdmlr.s:5365   .debug_loc:0000000000000419 .LLST15
C:\Users\stapi\AppData\Local\Temp\ccdJdmlr.s:6111   .debug_str:00000000000001c5 .LASF172
C:\Users\stapi\AppData\Local\Temp\ccdJdmlr.s:1060   .text.usart_clock_disable:0000000000000000 .LFB397
C:\Users\stapi\AppData\Local\Temp\ccdJdmlr.s:1077   .text.usart_clock_disable:0000000000000010 .LFE397
C:\Users\stapi\AppData\Local\Temp\ccdJdmlr.s:6067   .debug_str:000000000000004e .LASF173
C:\Users\stapi\AppData\Local\Temp\ccdJdmlr.s:1036   .text.usart_clock_enable:0000000000000000 .LFB396
C:\Users\stapi\AppData\Local\Temp\ccdJdmlr.s:1053   .text.usart_clock_enable:0000000000000010 .LFE396
C:\Users\stapi\AppData\Local\Temp\ccdJdmlr.s:6251   .debug_str:0000000000000690 .LASF174
C:\Users\stapi\AppData\Local\Temp\ccdJdmlr.s:1012   .text.usart_halfduplex_disable:0000000000000000 .LFB395
C:\Users\stapi\AppData\Local\Temp\ccdJdmlr.s:1029   .text.usart_halfduplex_disable:000000000000000e .LFE395
C:\Users\stapi\AppData\Local\Temp\ccdJdmlr.s:6247   .debug_str:000000000000065e .LASF175
C:\Users\stapi\AppData\Local\Temp\ccdJdmlr.s:988    .text.usart_halfduplex_enable:0000000000000000 .LFB394
C:\Users\stapi\AppData\Local\Temp\ccdJdmlr.s:1005   .text.usart_halfduplex_enable:0000000000000010 .LFE394
C:\Users\stapi\AppData\Local\Temp\ccdJdmlr.s:6457   .debug_str:0000000000000e24 .LASF176
C:\Users\stapi\AppData\Local\Temp\ccdJdmlr.s:955    .text.usart_lin_break_detection_length_config:0000000000000000 .LFB393
C:\Users\stapi\AppData\Local\Temp\ccdJdmlr.s:981    .text.usart_lin_break_detection_length_config:000000000000001a .LFE393
C:\Users\stapi\AppData\Local\Temp\ccdJdmlr.s:6171   .debug_str:000000000000039d .LASF177
C:\Users\stapi\AppData\Local\Temp\ccdJdmlr.s:5379   .debug_loc:000000000000043a .LLST12
C:\Users\stapi\AppData\Local\Temp\ccdJdmlr.s:6075   .debug_str:00000000000000a1 .LASF178
C:\Users\stapi\AppData\Local\Temp\ccdJdmlr.s:931    .text.usart_lin_mode_disable:0000000000000000 .LFB392
C:\Users\stapi\AppData\Local\Temp\ccdJdmlr.s:948    .text.usart_lin_mode_disable:0000000000000010 .LFE392
C:\Users\stapi\AppData\Local\Temp\ccdJdmlr.s:6137   .debug_str:00000000000002a5 .LASF179
C:\Users\stapi\AppData\Local\Temp\ccdJdmlr.s:907    .text.usart_lin_mode_enable:0000000000000000 .LFB391
C:\Users\stapi\AppData\Local\Temp\ccdJdmlr.s:924    .text.usart_lin_mode_enable:0000000000000010 .LFE391
C:\Users\stapi\AppData\Local\Temp\ccdJdmlr.s:6437   .debug_str:0000000000000d5e .LASF180
C:\Users\stapi\AppData\Local\Temp\ccdJdmlr.s:878    .text.usart_mute_mode_wakeup_config:0000000000000000 .LFB390
C:\Users\stapi\AppData\Local\Temp\ccdJdmlr.s:900    .text.usart_mute_mode_wakeup_config:0000000000000016 .LFE390
C:\Users\stapi\AppData\Local\Temp\ccdJdmlr.s:6407   .debug_str:0000000000000c9e .LASF181
C:\Users\stapi\AppData\Local\Temp\ccdJdmlr.s:6365   .debug_str:0000000000000b22 .LASF182
C:\Users\stapi\AppData\Local\Temp\ccdJdmlr.s:859    .text.usart_mute_mode_disable:0000000000000000 .LFB389
C:\Users\stapi\AppData\Local\Temp\ccdJdmlr.s:871    .text.usart_mute_mode_disable:000000000000000a .LFE389
C:\Users\stapi\AppData\Local\Temp\ccdJdmlr.s:6061   .debug_str:000000000000001a .LASF183
C:\Users\stapi\AppData\Local\Temp\ccdJdmlr.s:840    .text.usart_mute_mode_enable:0000000000000000 .LFB388
C:\Users\stapi\AppData\Local\Temp\ccdJdmlr.s:852    .text.usart_mute_mode_enable:000000000000000a .LFE388
C:\Users\stapi\AppData\Local\Temp\ccdJdmlr.s:6355   .debug_str:0000000000000ac4 .LASF184
C:\Users\stapi\AppData\Local\Temp\ccdJdmlr.s:807    .text.usart_address_detection_mode_config:0000000000000000 .LFB387
C:\Users\stapi\AppData\Local\Temp\ccdJdmlr.s:833    .text.usart_address_detection_mode_config:0000000000000016 .LFE387
C:\Users\stapi\AppData\Local\Temp\ccdJdmlr.s:6493   .debug_str:000000000000104d .LASF185
C:\Users\stapi\AppData\Local\Temp\ccdJdmlr.s:5393   .debug_loc:000000000000045b .LLST11
C:\Users\stapi\AppData\Local\Temp\ccdJdmlr.s:6473   .debug_str:0000000000000ec7 .LASF186
C:\Users\stapi\AppData\Local\Temp\ccdJdmlr.s:773    .text.usart_address_config:0000000000000000 .LFB386
C:\Users\stapi\AppData\Local\Temp\ccdJdmlr.s:800    .text.usart_address_config:0000000000000018 .LFE386
C:\Users\stapi\AppData\Local\Temp\ccdJdmlr.s:6103   .debug_str:0000000000000186 .LASF187
C:\Users\stapi\AppData\Local\Temp\ccdJdmlr.s:5407   .debug_loc:000000000000047c .LLST10
C:\Users\stapi\AppData\Local\Temp\ccdJdmlr.s:6519   .debug_str:0000000000001118 .LASF188
C:\Users\stapi\AppData\Local\Temp\ccdJdmlr.s:754    .text.usart_command_enable:0000000000000000 .LFB385
C:\Users\stapi\AppData\Local\Temp\ccdJdmlr.s:766    .text.usart_command_enable:0000000000000008 .LFE385
C:\Users\stapi\AppData\Local\Temp\ccdJdmlr.s:6201   .debug_str:0000000000000484 .LASF189
C:\Users\stapi\AppData\Local\Temp\ccdJdmlr.s:6271   .debug_str:0000000000000723 .LASF190
C:\Users\stapi\AppData\Local\Temp\ccdJdmlr.s:735    .text.usart_data_receive:0000000000000000 .LFB384
C:\Users\stapi\AppData\Local\Temp\ccdJdmlr.s:747    .text.usart_data_receive:0000000000000008 .LFE384
C:\Users\stapi\AppData\Local\Temp\ccdJdmlr.s:5421   .debug_loc:000000000000049d .LLST9
C:\Users\stapi\AppData\Local\Temp\ccdJdmlr.s:6397   .debug_str:0000000000000c54 .LASF191
C:\Users\stapi\AppData\Local\Temp\ccdJdmlr.s:715    .text.usart_data_transmit:0000000000000000 .LFB383
C:\Users\stapi\AppData\Local\Temp\ccdJdmlr.s:728    .text.usart_data_transmit:0000000000000008 .LFE383
C:\Users\stapi\AppData\Local\Temp\ccdJdmlr.s:6239   .debug_str:00000000000005c6 .LASF192
C:\Users\stapi\AppData\Local\Temp\ccdJdmlr.s:5435   .debug_loc:00000000000004be .LLST8
C:\Users\stapi\AppData\Local\Temp\ccdJdmlr.s:6327   .debug_str:00000000000009bf .LASF193
C:\Users\stapi\AppData\Local\Temp\ccdJdmlr.s:690    .text.usart_receiver_timeout_threshold_config:0000000000000000 .LFB382
C:\Users\stapi\AppData\Local\Temp\ccdJdmlr.s:708    .text.usart_receiver_timeout_threshold_config:0000000000000012 .LFE382
C:\Users\stapi\AppData\Local\Temp\ccdJdmlr.s:6095   .debug_str:000000000000014d .LASF194
C:\Users\stapi\AppData\Local\Temp\ccdJdmlr.s:6449   .debug_str:0000000000000dd4 .LASF195
C:\Users\stapi\AppData\Local\Temp\ccdJdmlr.s:671    .text.usart_receiver_timeout_disable:0000000000000000 .LFB381
C:\Users\stapi\AppData\Local\Temp\ccdJdmlr.s:683    .text.usart_receiver_timeout_disable:000000000000000a .LFE381
C:\Users\stapi\AppData\Local\Temp\ccdJdmlr.s:6157   .debug_str:0000000000000333 .LASF196
C:\Users\stapi\AppData\Local\Temp\ccdJdmlr.s:652    .text.usart_receiver_timeout_enable:0000000000000000 .LFB380
C:\Users\stapi\AppData\Local\Temp\ccdJdmlr.s:664    .text.usart_receiver_timeout_enable:000000000000000a .LFE380
C:\Users\stapi\AppData\Local\Temp\ccdJdmlr.s:6435   .debug_str:0000000000000d46 .LASF197
C:\Users\stapi\AppData\Local\Temp\ccdJdmlr.s:623    .text.usart_sample_bit_config:0000000000000000 .LFB379
C:\Users\stapi\AppData\Local\Temp\ccdJdmlr.s:645    .text.usart_sample_bit_config:0000000000000016 .LFE379
C:\Users\stapi\AppData\Local\Temp\ccdJdmlr.s:6337   .debug_str:0000000000000a33 .LASF198
C:\Users\stapi\AppData\Local\Temp\ccdJdmlr.s:594    .text.usart_oversample_config:0000000000000000 .LFB378
C:\Users\stapi\AppData\Local\Temp\ccdJdmlr.s:616    .text.usart_oversample_config:0000000000000016 .LFE378
C:\Users\stapi\AppData\Local\Temp\ccdJdmlr.s:6197   .debug_str:0000000000000470 .LASF199
C:\Users\stapi\AppData\Local\Temp\ccdJdmlr.s:6381   .debug_str:0000000000000bc7 .LASF200
C:\Users\stapi\AppData\Local\Temp\ccdJdmlr.s:570    .text.usart_overrun_disable:0000000000000000 .LFB377
C:\Users\stapi\AppData\Local\Temp\ccdJdmlr.s:587    .text.usart_overrun_disable:0000000000000010 .LFE377
C:\Users\stapi\AppData\Local\Temp\ccdJdmlr.s:6155   .debug_str:000000000000031e .LASF201
C:\Users\stapi\AppData\Local\Temp\ccdJdmlr.s:546    .text.usart_overrun_enable:0000000000000000 .LFB376
C:\Users\stapi\AppData\Local\Temp\ccdJdmlr.s:563    .text.usart_overrun_enable:0000000000000010 .LFE376
C:\Users\stapi\AppData\Local\Temp\ccdJdmlr.s:6475   .debug_str:0000000000000edc .LASF202
C:\Users\stapi\AppData\Local\Temp\ccdJdmlr.s:441    .text.usart_invert_config:0000000000000000 .LFB375
C:\Users\stapi\AppData\Local\Temp\ccdJdmlr.s:539    .text.usart_invert_config:000000000000006c .LFE375
C:\Users\stapi\AppData\Local\Temp\ccdJdmlr.s:6497   .debug_str:0000000000001059 .LASF203
C:\Users\stapi\AppData\Local\Temp\ccdJdmlr.s:5449   .debug_loc:00000000000004df .LLST7
C:\Users\stapi\AppData\Local\Temp\ccdJdmlr.s:6281   .debug_str:0000000000000771 .LASF204
C:\Users\stapi\AppData\Local\Temp\ccdJdmlr.s:412    .text.usart_data_first_config:0000000000000000 .LFB374
C:\Users\stapi\AppData\Local\Temp\ccdJdmlr.s:434    .text.usart_data_first_config:0000000000000016 .LFE374
C:\Users\stapi\AppData\Local\Temp\ccdJdmlr.s:6421   .debug_str:0000000000000cf0 .LASF205
C:\Users\stapi\AppData\Local\Temp\ccdJdmlr.s:6207   .debug_str:00000000000004bc .LASF206
C:\Users\stapi\AppData\Local\Temp\ccdJdmlr.s:388    .text.usart_receive_config:0000000000000000 .LFB373
C:\Users\stapi\AppData\Local\Temp\ccdJdmlr.s:405    .text.usart_receive_config:000000000000000e .LFE373
C:\Users\stapi\AppData\Local\Temp\ccdJdmlr.s:6235   .debug_str:00000000000005a5 .LASF207
C:\Users\stapi\AppData\Local\Temp\ccdJdmlr.s:6431   .debug_str:0000000000000d22 .LASF208
C:\Users\stapi\AppData\Local\Temp\ccdJdmlr.s:364    .text.usart_transmit_config:0000000000000000 .LFB372
C:\Users\stapi\AppData\Local\Temp\ccdJdmlr.s:381    .text.usart_transmit_config:000000000000000e .LFE372
C:\Users\stapi\AppData\Local\Temp\ccdJdmlr.s:6411   .debug_str:0000000000000cb4 .LASF209
C:\Users\stapi\AppData\Local\Temp\ccdJdmlr.s:6433   .debug_str:0000000000000d38 .LASF210
C:\Users\stapi\AppData\Local\Temp\ccdJdmlr.s:345    .text.usart_disable:0000000000000000 .LFB371
C:\Users\stapi\AppData\Local\Temp\ccdJdmlr.s:357    .text.usart_disable:0000000000000008 .LFE371
C:\Users\stapi\AppData\Local\Temp\ccdJdmlr.s:6295   .debug_str:000000000000080d .LASF211
C:\Users\stapi\AppData\Local\Temp\ccdJdmlr.s:326    .text.usart_enable:0000000000000000 .LFB370
C:\Users\stapi\AppData\Local\Temp\ccdJdmlr.s:338    .text.usart_enable:000000000000000a .LFE370
C:\Users\stapi\AppData\Local\Temp\ccdJdmlr.s:6161   .debug_str:000000000000035a .LASF212
C:\Users\stapi\AppData\Local\Temp\ccdJdmlr.s:293    .text.usart_stop_bit_set:0000000000000000 .LFB369
C:\Users\stapi\AppData\Local\Temp\ccdJdmlr.s:319    .text.usart_stop_bit_set:0000000000000018 .LFE369
C:\Users\stapi\AppData\Local\Temp\ccdJdmlr.s:6169   .debug_str:0000000000000396 .LASF213
C:\Users\stapi\AppData\Local\Temp\ccdJdmlr.s:6275   .debug_str:0000000000000743 .LASF214
C:\Users\stapi\AppData\Local\Temp\ccdJdmlr.s:264    .text.usart_word_length_set:0000000000000000 .LFB368
C:\Users\stapi\AppData\Local\Temp\ccdJdmlr.s:286    .text.usart_word_length_set:0000000000000016 .LFE368
C:\Users\stapi\AppData\Local\Temp\ccdJdmlr.s:6117   .debug_str:0000000000000202 .LASF215
C:\Users\stapi\AppData\Local\Temp\ccdJdmlr.s:6165   .debug_str:0000000000000374 .LASF216
C:\Users\stapi\AppData\Local\Temp\ccdJdmlr.s:235    .text.usart_parity_config:0000000000000000 .LFB367
C:\Users\stapi\AppData\Local\Temp\ccdJdmlr.s:257    .text.usart_parity_config:0000000000000016 .LFE367
C:\Users\stapi\AppData\Local\Temp\ccdJdmlr.s:6425   .debug_str:0000000000000d03 .LASF217
C:\Users\stapi\AppData\Local\Temp\ccdJdmlr.s:6443   .debug_str:0000000000000daf .LASF218
C:\Users\stapi\AppData\Local\Temp\ccdJdmlr.s:104    .text.usart_baudrate_set:0000000000000000 .LFB366
C:\Users\stapi\AppData\Local\Temp\ccdJdmlr.s:228    .text.usart_baudrate_set:0000000000000094 .LFE366
C:\Users\stapi\AppData\Local\Temp\ccdJdmlr.s:5463   .debug_loc:0000000000000500 .LLST1
C:\Users\stapi\AppData\Local\Temp\ccdJdmlr.s:6429   .debug_str:0000000000000d1a .LASF219
C:\Users\stapi\AppData\Local\Temp\ccdJdmlr.s:5474   .debug_loc:000000000000051e .LLST2
C:\Users\stapi\AppData\Local\Temp\ccdJdmlr.s:6257   .debug_str:00000000000006c9 .LASF220
C:\Users\stapi\AppData\Local\Temp\ccdJdmlr.s:5485   .debug_loc:000000000000053c .LLST3
C:\Users\stapi\AppData\Local\Temp\ccdJdmlr.s:6163   .debug_str:000000000000036d .LASF221
C:\Users\stapi\AppData\Local\Temp\ccdJdmlr.s:5528   .debug_loc:00000000000005ab .LLST4
C:\Users\stapi\AppData\Local\Temp\ccdJdmlr.s:6125   .debug_str:0000000000000242 .LASF222
C:\Users\stapi\AppData\Local\Temp\ccdJdmlr.s:5594   .debug_loc:0000000000000618 .LLST5
C:\Users\stapi\AppData\Local\Temp\ccdJdmlr.s:6459   .debug_str:0000000000000e4c .LASF223
C:\Users\stapi\AppData\Local\Temp\ccdJdmlr.s:5663   .debug_loc:000000000000068c .LLST6
C:\Users\stapi\AppData\Local\Temp\ccdJdmlr.s:206    .text.usart_baudrate_set:000000000000007a .LVL24
C:\Users\stapi\AppData\Local\Temp\ccdJdmlr.s:215    .text.usart_baudrate_set:0000000000000086 .LVL26
C:\Users\stapi\AppData\Local\Temp\ccdJdmlr.s:224    .text.usart_baudrate_set:0000000000000092 .LVL28
C:\Users\stapi\AppData\Local\Temp\ccdJdmlr.s:6363   .debug_str:0000000000000b15 .LASF224
C:\Users\stapi\AppData\Local\Temp\ccdJdmlr.s:14     .text.usart_deinit:0000000000000000 .LFB365
C:\Users\stapi\AppData\Local\Temp\ccdJdmlr.s:97     .text.usart_deinit:0000000000000096 .LFE365
C:\Users\stapi\AppData\Local\Temp\ccdJdmlr.s:5722   .debug_loc:00000000000006f6 .LLST0
C:\Users\stapi\AppData\Local\Temp\ccdJdmlr.s:45     .text.usart_deinit:000000000000003e .LVL2
C:\Users\stapi\AppData\Local\Temp\ccdJdmlr.s:49     .text.usart_deinit:000000000000004a .LVL3
C:\Users\stapi\AppData\Local\Temp\ccdJdmlr.s:65     .text.usart_deinit:0000000000000060 .LVL6
C:\Users\stapi\AppData\Local\Temp\ccdJdmlr.s:69     .text.usart_deinit:000000000000006c .LVL7
C:\Users\stapi\AppData\Local\Temp\ccdJdmlr.s:85     .text.usart_deinit:0000000000000082 .LVL10
C:\Users\stapi\AppData\Local\Temp\ccdJdmlr.s:89     .text.usart_deinit:000000000000008e .LVL11
C:\Users\stapi\AppData\Local\Temp\ccdJdmlr.s:6467   .debug_str:0000000000000e83 .LASF225
C:\Users\stapi\AppData\Local\Temp\ccdJdmlr.s:6123   .debug_str:000000000000022a .LASF226
C:\Users\stapi\AppData\Local\Temp\ccdJdmlr.s:6263   .debug_str:00000000000006ea .LASF227
C:\Users\stapi\AppData\Local\Temp\ccdJdmlr.s:2149   .text.usart_interrupt_flag_clear:0000000000000000 .LVL136
C:\Users\stapi\AppData\Local\Temp\ccdJdmlr.s:2160   .text.usart_interrupt_flag_clear:0000000000000010 .LVL137
C:\Users\stapi\AppData\Local\Temp\ccdJdmlr.s:2166   .text.usart_interrupt_flag_clear:0000000000000018 .LVL138
C:\Users\stapi\AppData\Local\Temp\ccdJdmlr.s:2099   .text.usart_interrupt_flag_get:0000000000000000 .LVL130
C:\Users\stapi\AppData\Local\Temp\ccdJdmlr.s:2111   .text.usart_interrupt_flag_get:0000000000000010 .LVL131
C:\Users\stapi\AppData\Local\Temp\ccdJdmlr.s:2129   .text.usart_interrupt_flag_get:0000000000000024 .LVL134
C:\Users\stapi\AppData\Local\Temp\ccdJdmlr.s:2114   .text.usart_interrupt_flag_get:0000000000000012 .LVL132
C:\Users\stapi\AppData\Local\Temp\ccdJdmlr.s:2123   .text.usart_interrupt_flag_get:000000000000001e .LVL133
C:\Users\stapi\AppData\Local\Temp\ccdJdmlr.s:2132   .text.usart_interrupt_flag_get:0000000000000028 .LVL135
C:\Users\stapi\AppData\Local\Temp\ccdJdmlr.s:2072   .text.usart_interrupt_disable:0000000000000000 .LVL127
C:\Users\stapi\AppData\Local\Temp\ccdJdmlr.s:2078   .text.usart_interrupt_disable:000000000000000a .LVL128
C:\Users\stapi\AppData\Local\Temp\ccdJdmlr.s:2082   .text.usart_interrupt_disable:0000000000000010 .LVL129
C:\Users\stapi\AppData\Local\Temp\ccdJdmlr.s:2048   .text.usart_interrupt_enable:0000000000000000 .LVL124
C:\Users\stapi\AppData\Local\Temp\ccdJdmlr.s:2054   .text.usart_interrupt_enable:000000000000000a .LVL125
C:\Users\stapi\AppData\Local\Temp\ccdJdmlr.s:2057   .text.usart_interrupt_enable:0000000000000010 .LVL126
C:\Users\stapi\AppData\Local\Temp\ccdJdmlr.s:2004   .text.usart_flag_clear:0000000000000000 .LVL121
C:\Users\stapi\AppData\Local\Temp\ccdJdmlr.s:2018   .text.usart_flag_clear:0000000000000016 .LVL122
C:\Users\stapi\AppData\Local\Temp\ccdJdmlr.s:2022   .text.usart_flag_clear:000000000000001a .LVL123
C:\Users\stapi\AppData\Local\Temp\ccdJdmlr.s:1980   .text.usart_flag_get:0000000000000000 .LVL119
C:\Users\stapi\AppData\Local\Temp\ccdJdmlr.s:1987   .text.usart_flag_get:000000000000000c .LVL120
C:\Users\stapi\AppData\Local\Temp\ccdJdmlr.s:1960   .text.usart_receive_fifo_counter_number:0000000000000000 .LVL117
C:\Users\stapi\AppData\Local\Temp\ccdJdmlr.s:1964   .text.usart_receive_fifo_counter_number:0000000000000004 .LVL118
C:\Users\stapi\AppData\Local\Temp\ccdJdmlr.s:1884   .text.usart_wakeup_mode_config:0000000000000000 .LVL113
C:\Users\stapi\AppData\Local\Temp\ccdJdmlr.s:1905   .text.usart_wakeup_mode_config:000000000000001a .LVL114
C:\Users\stapi\AppData\Local\Temp\ccdJdmlr.s:1768   .text.usart_dma_transmit_config:0000000000000000 .LVL105
C:\Users\stapi\AppData\Local\Temp\ccdJdmlr.s:1781   .text.usart_dma_transmit_config:0000000000000008 .LVL108
C:\Users\stapi\AppData\Local\Temp\ccdJdmlr.s:1773   .text.usart_dma_transmit_config:0000000000000002 .LVL106
C:\Users\stapi\AppData\Local\Temp\ccdJdmlr.s:1738   .text.usart_dma_receive_config:0000000000000000 .LVL101
C:\Users\stapi\AppData\Local\Temp\ccdJdmlr.s:1751   .text.usart_dma_receive_config:0000000000000008 .LVL104
C:\Users\stapi\AppData\Local\Temp\ccdJdmlr.s:1743   .text.usart_dma_receive_config:0000000000000002 .LVL102
C:\Users\stapi\AppData\Local\Temp\ccdJdmlr.s:1704   .text.usart_depolarity_config:0000000000000000 .LVL99
C:\Users\stapi\AppData\Local\Temp\ccdJdmlr.s:1711   .text.usart_depolarity_config:0000000000000006 .LVL100
C:\Users\stapi\AppData\Local\Temp\ccdJdmlr.s:1663   .text.usart_driver_deassertime_config:0000000000000000 .LVL97
C:\Users\stapi\AppData\Local\Temp\ccdJdmlr.s:1678   .text.usart_driver_deassertime_config:0000000000000010 .LVL98
C:\Users\stapi\AppData\Local\Temp\ccdJdmlr.s:1622   .text.usart_driver_assertime_config:0000000000000000 .LVL95
C:\Users\stapi\AppData\Local\Temp\ccdJdmlr.s:1637   .text.usart_driver_assertime_config:0000000000000010 .LVL96
C:\Users\stapi\AppData\Local\Temp\ccdJdmlr.s:1517   .text.usart_hardware_flow_cts_config:0000000000000000 .LVL90
C:\Users\stapi\AppData\Local\Temp\ccdJdmlr.s:1523   .text.usart_hardware_flow_cts_config:0000000000000006 .LVL91
C:\Users\stapi\AppData\Local\Temp\ccdJdmlr.s:1484   .text.usart_hardware_flow_rts_config:0000000000000000 .LVL88
C:\Users\stapi\AppData\Local\Temp\ccdJdmlr.s:1490   .text.usart_hardware_flow_rts_config:0000000000000006 .LVL89
C:\Users\stapi\AppData\Local\Temp\ccdJdmlr.s:1451   .text.usart_irda_lowpower_config:0000000000000000 .LVL86
C:\Users\stapi\AppData\Local\Temp\ccdJdmlr.s:1457   .text.usart_irda_lowpower_config:0000000000000004 .LVL87
C:\Users\stapi\AppData\Local\Temp\ccdJdmlr.s:1421   .text.usart_prescaler_config:0000000000000000 .LVL84
C:\Users\stapi\AppData\Local\Temp\ccdJdmlr.s:1436   .text.usart_prescaler_config:0000000000000012 .LVL85
C:\Users\stapi\AppData\Local\Temp\ccdJdmlr.s:1344   .text.usart_block_length_config:0000000000000000 .LVL80
C:\Users\stapi\AppData\Local\Temp\ccdJdmlr.s:1350   .text.usart_block_length_config:0000000000000004 .LVL81
C:\Users\stapi\AppData\Local\Temp\ccdJdmlr.s:1303   .text.usart_smartcard_autoretry_config:0000000000000000 .LVL78
C:\Users\stapi\AppData\Local\Temp\ccdJdmlr.s:1318   .text.usart_smartcard_autoretry_config:0000000000000010 .LVL79
C:\Users\stapi\AppData\Local\Temp\ccdJdmlr.s:1132   .text.usart_guard_time_config:0000000000000000 .LVL70
C:\Users\stapi\AppData\Local\Temp\ccdJdmlr.s:1147   .text.usart_guard_time_config:0000000000000010 .LVL71
C:\Users\stapi\AppData\Local\Temp\ccdJdmlr.s:1087   .text.usart_synchronous_clock_config:0000000000000000 .LVL66
C:\Users\stapi\AppData\Local\Temp\ccdJdmlr.s:1107   .text.usart_synchronous_clock_config:0000000000000016 .LVL69
C:\Users\stapi\AppData\Local\Temp\ccdJdmlr.s:1093   .text.usart_synchronous_clock_config:0000000000000006 .LVL67
C:\Users\stapi\AppData\Local\Temp\ccdJdmlr.s:1096   .text.usart_synchronous_clock_config:000000000000000a .LVL68
C:\Users\stapi\AppData\Local\Temp\ccdJdmlr.s:958    .text.usart_lin_break_detection_length_config:0000000000000000 .LVL60
C:\Users\stapi\AppData\Local\Temp\ccdJdmlr.s:964    .text.usart_lin_break_detection_length_config:0000000000000006 .LVL61
C:\Users\stapi\AppData\Local\Temp\ccdJdmlr.s:810    .text.usart_address_detection_mode_config:0000000000000000 .LVL53
C:\Users\stapi\AppData\Local\Temp\ccdJdmlr.s:816    .text.usart_address_detection_mode_config:0000000000000004 .LVL54
C:\Users\stapi\AppData\Local\Temp\ccdJdmlr.s:776    .text.usart_address_config:0000000000000000 .LVL51
C:\Users\stapi\AppData\Local\Temp\ccdJdmlr.s:782    .text.usart_address_config:0000000000000004 .LVL52
C:\Users\stapi\AppData\Local\Temp\ccdJdmlr.s:738    .text.usart_data_receive:0000000000000000 .LVL48
C:\Users\stapi\AppData\Local\Temp\ccdJdmlr.s:742    .text.usart_data_receive:0000000000000002 .LVL49
C:\Users\stapi\AppData\Local\Temp\ccdJdmlr.s:718    .text.usart_data_transmit:0000000000000000 .LVL46
C:\Users\stapi\AppData\Local\Temp\ccdJdmlr.s:722    .text.usart_data_transmit:0000000000000004 .LVL47
C:\Users\stapi\AppData\Local\Temp\ccdJdmlr.s:444    .text.usart_invert_config:0000000000000000 .LVL37
C:\Users\stapi\AppData\Local\Temp\ccdJdmlr.s:456    .text.usart_invert_config:0000000000000018 .LVL38
C:\Users\stapi\AppData\Local\Temp\ccdJdmlr.s:107    .text.usart_baudrate_set:0000000000000000 .LVL12
C:\Users\stapi\AppData\Local\Temp\ccdJdmlr.s:128    .text.usart_baudrate_set:000000000000002a .LVL14
C:\Users\stapi\AppData\Local\Temp\ccdJdmlr.s:130    .text.usart_baudrate_set:000000000000002e .LVL15
C:\Users\stapi\AppData\Local\Temp\ccdJdmlr.s:114    .text.usart_baudrate_set:0000000000000008 .LVL13
C:\Users\stapi\AppData\Local\Temp\ccdJdmlr.s:154    .text.usart_baudrate_set:0000000000000044 .LVL17
C:\Users\stapi\AppData\Local\Temp\ccdJdmlr.s:175    .text.usart_baudrate_set:000000000000005a .LVL20
C:\Users\stapi\AppData\Local\Temp\ccdJdmlr.s:199    .text.usart_baudrate_set:0000000000000070 .LVL23
C:\Users\stapi\AppData\Local\Temp\ccdJdmlr.s:209    .text.usart_baudrate_set:000000000000007c .LVL25
C:\Users\stapi\AppData\Local\Temp\ccdJdmlr.s:218    .text.usart_baudrate_set:0000000000000088 .LVL27
C:\Users\stapi\AppData\Local\Temp\ccdJdmlr.s:148    .text.usart_baudrate_set:0000000000000042 .LVL16
C:\Users\stapi\AppData\Local\Temp\ccdJdmlr.s:163    .text.usart_baudrate_set:000000000000004e .LVL19
C:\Users\stapi\AppData\Local\Temp\ccdJdmlr.s:186    .text.usart_baudrate_set:0000000000000062 .LVL21
C:\Users\stapi\AppData\Local\Temp\ccdJdmlr.s:160    .text.usart_baudrate_set:000000000000004c .LVL18
C:\Users\stapi\AppData\Local\Temp\ccdJdmlr.s:189    .text.usart_baudrate_set:0000000000000066 .LVL22
C:\Users\stapi\AppData\Local\Temp\ccdJdmlr.s:18     .text.usart_deinit:0000000000000000 .LVL0
C:\Users\stapi\AppData\Local\Temp\ccdJdmlr.s:43     .text.usart_deinit:0000000000000036 .LVL1
C:\Users\stapi\AppData\Local\Temp\ccdJdmlr.s:57     .text.usart_deinit:0000000000000052 .LVL4
C:\Users\stapi\AppData\Local\Temp\ccdJdmlr.s:63     .text.usart_deinit:0000000000000058 .LVL5
C:\Users\stapi\AppData\Local\Temp\ccdJdmlr.s:77     .text.usart_deinit:0000000000000074 .LVL8
C:\Users\stapi\AppData\Local\Temp\ccdJdmlr.s:83     .text.usart_deinit:000000000000007a .LVL9
C:\Users\stapi\AppData\Local\Temp\ccdJdmlr.s:2185   .debug_info:0000000000000000 .Ldebug_info0

UNDEFINED SYMBOLS
__riscv_save_1
__riscv_restore_1
rcu_periph_reset_enable
rcu_periph_reset_disable
__riscv_save_2
__riscv_restore_2
rcu_clock_freq_get
