   1              		.file	"gd32vw55x_gpio.c"
   2              		.option nopic
   3              		.attribute arch, "rv32i2p0_m2p0_a2p0_f2p0_c2p0_b_p0p94"
   4              		.attribute unaligned_access, 0
   5              		.attribute stack_align, 16
   6              		.text
   7              	.Ltext0:
   8              		.cfi_sections	.debug_frame
   9              		.section	.text.gpio_deinit,"ax",@progbits
  10              		.align	1
  11              		.globl	gpio_deinit
  13              	gpio_deinit:
  14              	.LFB365:
  15              		.file 1 "C:/Users/stapi/OneDrive/Desktop/GD32VW553/GD32VW55X_Wifi_BLE_SDK/GD32VW55x_RELEASE_V1.0.2
   1:C:/Users/stapi/OneDrive/Desktop/GD32VW553/GD32VW55X_Wifi_BLE_SDK/GD32VW55x_RELEASE_V1.0.2/MSDK/plf/GD32VW55x_standard_peripheral/Source\gd32vw55x_gpio.c **** /*!
   2:C:/Users/stapi/OneDrive/Desktop/GD32VW553/GD32VW55X_Wifi_BLE_SDK/GD32VW55x_RELEASE_V1.0.2/MSDK/plf/GD32VW55x_standard_peripheral/Source\gd32vw55x_gpio.c ****     \file    gd32vw55x_gpio.c
   3:C:/Users/stapi/OneDrive/Desktop/GD32VW553/GD32VW55X_Wifi_BLE_SDK/GD32VW55x_RELEASE_V1.0.2/MSDK/plf/GD32VW55x_standard_peripheral/Source\gd32vw55x_gpio.c ****     \brief   GPIO driver
   4:C:/Users/stapi/OneDrive/Desktop/GD32VW553/GD32VW55X_Wifi_BLE_SDK/GD32VW55x_RELEASE_V1.0.2/MSDK/plf/GD32VW55x_standard_peripheral/Source\gd32vw55x_gpio.c **** 
   5:C:/Users/stapi/OneDrive/Desktop/GD32VW553/GD32VW55X_Wifi_BLE_SDK/GD32VW55x_RELEASE_V1.0.2/MSDK/plf/GD32VW55x_standard_peripheral/Source\gd32vw55x_gpio.c ****     \version 2023-07-20, V1.0.0, firmware for GD32VW55x
   6:C:/Users/stapi/OneDrive/Desktop/GD32VW553/GD32VW55X_Wifi_BLE_SDK/GD32VW55x_RELEASE_V1.0.2/MSDK/plf/GD32VW55x_standard_peripheral/Source\gd32vw55x_gpio.c **** */
   7:C:/Users/stapi/OneDrive/Desktop/GD32VW553/GD32VW55X_Wifi_BLE_SDK/GD32VW55x_RELEASE_V1.0.2/MSDK/plf/GD32VW55x_standard_peripheral/Source\gd32vw55x_gpio.c **** 
   8:C:/Users/stapi/OneDrive/Desktop/GD32VW553/GD32VW55X_Wifi_BLE_SDK/GD32VW55x_RELEASE_V1.0.2/MSDK/plf/GD32VW55x_standard_peripheral/Source\gd32vw55x_gpio.c **** /*
   9:C:/Users/stapi/OneDrive/Desktop/GD32VW553/GD32VW55X_Wifi_BLE_SDK/GD32VW55x_RELEASE_V1.0.2/MSDK/plf/GD32VW55x_standard_peripheral/Source\gd32vw55x_gpio.c ****     Copyright (c) 2023, GigaDevice Semiconductor Inc.
  10:C:/Users/stapi/OneDrive/Desktop/GD32VW553/GD32VW55X_Wifi_BLE_SDK/GD32VW55x_RELEASE_V1.0.2/MSDK/plf/GD32VW55x_standard_peripheral/Source\gd32vw55x_gpio.c **** 
  11:C:/Users/stapi/OneDrive/Desktop/GD32VW553/GD32VW55X_Wifi_BLE_SDK/GD32VW55x_RELEASE_V1.0.2/MSDK/plf/GD32VW55x_standard_peripheral/Source\gd32vw55x_gpio.c ****     Redistribution and use in source and binary forms, with or without modification,
  12:C:/Users/stapi/OneDrive/Desktop/GD32VW553/GD32VW55X_Wifi_BLE_SDK/GD32VW55x_RELEASE_V1.0.2/MSDK/plf/GD32VW55x_standard_peripheral/Source\gd32vw55x_gpio.c **** are permitted provided that the following conditions are met:
  13:C:/Users/stapi/OneDrive/Desktop/GD32VW553/GD32VW55X_Wifi_BLE_SDK/GD32VW55x_RELEASE_V1.0.2/MSDK/plf/GD32VW55x_standard_peripheral/Source\gd32vw55x_gpio.c **** 
  14:C:/Users/stapi/OneDrive/Desktop/GD32VW553/GD32VW55X_Wifi_BLE_SDK/GD32VW55x_RELEASE_V1.0.2/MSDK/plf/GD32VW55x_standard_peripheral/Source\gd32vw55x_gpio.c ****     1. Redistributions of source code must retain the above copyright notice, this
  15:C:/Users/stapi/OneDrive/Desktop/GD32VW553/GD32VW55X_Wifi_BLE_SDK/GD32VW55x_RELEASE_V1.0.2/MSDK/plf/GD32VW55x_standard_peripheral/Source\gd32vw55x_gpio.c ****        list of conditions and the following disclaimer.
  16:C:/Users/stapi/OneDrive/Desktop/GD32VW553/GD32VW55X_Wifi_BLE_SDK/GD32VW55x_RELEASE_V1.0.2/MSDK/plf/GD32VW55x_standard_peripheral/Source\gd32vw55x_gpio.c ****     2. Redistributions in binary form must reproduce the above copyright notice,
  17:C:/Users/stapi/OneDrive/Desktop/GD32VW553/GD32VW55X_Wifi_BLE_SDK/GD32VW55x_RELEASE_V1.0.2/MSDK/plf/GD32VW55x_standard_peripheral/Source\gd32vw55x_gpio.c ****        this list of conditions and the following disclaimer in the documentation
  18:C:/Users/stapi/OneDrive/Desktop/GD32VW553/GD32VW55X_Wifi_BLE_SDK/GD32VW55x_RELEASE_V1.0.2/MSDK/plf/GD32VW55x_standard_peripheral/Source\gd32vw55x_gpio.c ****        and/or other materials provided with the distribution.
  19:C:/Users/stapi/OneDrive/Desktop/GD32VW553/GD32VW55X_Wifi_BLE_SDK/GD32VW55x_RELEASE_V1.0.2/MSDK/plf/GD32VW55x_standard_peripheral/Source\gd32vw55x_gpio.c ****     3. Neither the name of the copyright holder nor the names of its contributors
  20:C:/Users/stapi/OneDrive/Desktop/GD32VW553/GD32VW55X_Wifi_BLE_SDK/GD32VW55x_RELEASE_V1.0.2/MSDK/plf/GD32VW55x_standard_peripheral/Source\gd32vw55x_gpio.c ****        may be used to endorse or promote products derived from this software without
  21:C:/Users/stapi/OneDrive/Desktop/GD32VW553/GD32VW55X_Wifi_BLE_SDK/GD32VW55x_RELEASE_V1.0.2/MSDK/plf/GD32VW55x_standard_peripheral/Source\gd32vw55x_gpio.c ****        specific prior written permission.
  22:C:/Users/stapi/OneDrive/Desktop/GD32VW553/GD32VW55X_Wifi_BLE_SDK/GD32VW55x_RELEASE_V1.0.2/MSDK/plf/GD32VW55x_standard_peripheral/Source\gd32vw55x_gpio.c **** 
  23:C:/Users/stapi/OneDrive/Desktop/GD32VW553/GD32VW55X_Wifi_BLE_SDK/GD32VW55x_RELEASE_V1.0.2/MSDK/plf/GD32VW55x_standard_peripheral/Source\gd32vw55x_gpio.c ****     THIS SOFTWARE IS PROVIDED BY THE COPYRIGHT HOLDERS AND CONTRIBUTORS "AS IS"
  24:C:/Users/stapi/OneDrive/Desktop/GD32VW553/GD32VW55X_Wifi_BLE_SDK/GD32VW55x_RELEASE_V1.0.2/MSDK/plf/GD32VW55x_standard_peripheral/Source\gd32vw55x_gpio.c **** AND ANY EXPRESS OR IMPLIED WARRANTIES, INCLUDING, BUT NOT LIMITED TO, THE IMPLIED
  25:C:/Users/stapi/OneDrive/Desktop/GD32VW553/GD32VW55X_Wifi_BLE_SDK/GD32VW55x_RELEASE_V1.0.2/MSDK/plf/GD32VW55x_standard_peripheral/Source\gd32vw55x_gpio.c **** WARRANTIES OF MERCHANTABILITY AND FITNESS FOR A PARTICULAR PURPOSE ARE DISCLAIMED.
  26:C:/Users/stapi/OneDrive/Desktop/GD32VW553/GD32VW55X_Wifi_BLE_SDK/GD32VW55x_RELEASE_V1.0.2/MSDK/plf/GD32VW55x_standard_peripheral/Source\gd32vw55x_gpio.c **** IN NO EVENT SHALL THE COPYRIGHT HOLDER OR CONTRIBUTORS BE LIABLE FOR ANY DIRECT,
  27:C:/Users/stapi/OneDrive/Desktop/GD32VW553/GD32VW55X_Wifi_BLE_SDK/GD32VW55x_RELEASE_V1.0.2/MSDK/plf/GD32VW55x_standard_peripheral/Source\gd32vw55x_gpio.c **** INDIRECT, INCIDENTAL, SPECIAL, EXEMPLARY, OR CONSEQUENTIAL DAMAGES (INCLUDING, BUT
  28:C:/Users/stapi/OneDrive/Desktop/GD32VW553/GD32VW55X_Wifi_BLE_SDK/GD32VW55x_RELEASE_V1.0.2/MSDK/plf/GD32VW55x_standard_peripheral/Source\gd32vw55x_gpio.c **** NOT LIMITED TO, PROCUREMENT OF SUBSTITUTE GOODS OR SERVICES; LOSS OF USE, DATA, OR
  29:C:/Users/stapi/OneDrive/Desktop/GD32VW553/GD32VW55X_Wifi_BLE_SDK/GD32VW55x_RELEASE_V1.0.2/MSDK/plf/GD32VW55x_standard_peripheral/Source\gd32vw55x_gpio.c **** PROFITS; OR BUSINESS INTERRUPTION) HOWEVER CAUSED AND ON ANY THEORY OF LIABILITY,
  30:C:/Users/stapi/OneDrive/Desktop/GD32VW553/GD32VW55X_Wifi_BLE_SDK/GD32VW55x_RELEASE_V1.0.2/MSDK/plf/GD32VW55x_standard_peripheral/Source\gd32vw55x_gpio.c **** WHETHER IN CONTRACT, STRICT LIABILITY, OR TORT (INCLUDING NEGLIGENCE OR OTHERWISE)
  31:C:/Users/stapi/OneDrive/Desktop/GD32VW553/GD32VW55X_Wifi_BLE_SDK/GD32VW55x_RELEASE_V1.0.2/MSDK/plf/GD32VW55x_standard_peripheral/Source\gd32vw55x_gpio.c **** ARISING IN ANY WAY OUT OF THE USE OF THIS SOFTWARE, EVEN IF ADVISED OF THE POSSIBILITY
  32:C:/Users/stapi/OneDrive/Desktop/GD32VW553/GD32VW55X_Wifi_BLE_SDK/GD32VW55x_RELEASE_V1.0.2/MSDK/plf/GD32VW55x_standard_peripheral/Source\gd32vw55x_gpio.c **** OF SUCH DAMAGE.
  33:C:/Users/stapi/OneDrive/Desktop/GD32VW553/GD32VW55X_Wifi_BLE_SDK/GD32VW55x_RELEASE_V1.0.2/MSDK/plf/GD32VW55x_standard_peripheral/Source\gd32vw55x_gpio.c **** */
  34:C:/Users/stapi/OneDrive/Desktop/GD32VW553/GD32VW55X_Wifi_BLE_SDK/GD32VW55x_RELEASE_V1.0.2/MSDK/plf/GD32VW55x_standard_peripheral/Source\gd32vw55x_gpio.c **** 
  35:C:/Users/stapi/OneDrive/Desktop/GD32VW553/GD32VW55X_Wifi_BLE_SDK/GD32VW55x_RELEASE_V1.0.2/MSDK/plf/GD32VW55x_standard_peripheral/Source\gd32vw55x_gpio.c **** #include "gd32vw55x_gpio.h"
  36:C:/Users/stapi/OneDrive/Desktop/GD32VW553/GD32VW55X_Wifi_BLE_SDK/GD32VW55x_RELEASE_V1.0.2/MSDK/plf/GD32VW55x_standard_peripheral/Source\gd32vw55x_gpio.c **** 
  37:C:/Users/stapi/OneDrive/Desktop/GD32VW553/GD32VW55X_Wifi_BLE_SDK/GD32VW55x_RELEASE_V1.0.2/MSDK/plf/GD32VW55x_standard_peripheral/Source\gd32vw55x_gpio.c **** /*!
  38:C:/Users/stapi/OneDrive/Desktop/GD32VW553/GD32VW55X_Wifi_BLE_SDK/GD32VW55x_RELEASE_V1.0.2/MSDK/plf/GD32VW55x_standard_peripheral/Source\gd32vw55x_gpio.c ****     \brief      reset GPIO port
  39:C:/Users/stapi/OneDrive/Desktop/GD32VW553/GD32VW55X_Wifi_BLE_SDK/GD32VW55x_RELEASE_V1.0.2/MSDK/plf/GD32VW55x_standard_peripheral/Source\gd32vw55x_gpio.c ****     \param[in]  gpio_periph: GPIOx(x = A,B,C)
  40:C:/Users/stapi/OneDrive/Desktop/GD32VW553/GD32VW55X_Wifi_BLE_SDK/GD32VW55x_RELEASE_V1.0.2/MSDK/plf/GD32VW55x_standard_peripheral/Source\gd32vw55x_gpio.c ****                 only one parameter can be selected which is shown as below:
  41:C:/Users/stapi/OneDrive/Desktop/GD32VW553/GD32VW55X_Wifi_BLE_SDK/GD32VW55x_RELEASE_V1.0.2/MSDK/plf/GD32VW55x_standard_peripheral/Source\gd32vw55x_gpio.c ****       \arg        GPIOx(x = A,B,C)
  42:C:/Users/stapi/OneDrive/Desktop/GD32VW553/GD32VW55X_Wifi_BLE_SDK/GD32VW55x_RELEASE_V1.0.2/MSDK/plf/GD32VW55x_standard_peripheral/Source\gd32vw55x_gpio.c ****     \param[out] none
  43:C:/Users/stapi/OneDrive/Desktop/GD32VW553/GD32VW55X_Wifi_BLE_SDK/GD32VW55x_RELEASE_V1.0.2/MSDK/plf/GD32VW55x_standard_peripheral/Source\gd32vw55x_gpio.c ****     \retval     none
  44:C:/Users/stapi/OneDrive/Desktop/GD32VW553/GD32VW55X_Wifi_BLE_SDK/GD32VW55x_RELEASE_V1.0.2/MSDK/plf/GD32VW55x_standard_peripheral/Source\gd32vw55x_gpio.c **** */
  45:C:/Users/stapi/OneDrive/Desktop/GD32VW553/GD32VW55X_Wifi_BLE_SDK/GD32VW55x_RELEASE_V1.0.2/MSDK/plf/GD32VW55x_standard_peripheral/Source\gd32vw55x_gpio.c **** void gpio_deinit(uint32_t gpio_periph)
  46:C:/Users/stapi/OneDrive/Desktop/GD32VW553/GD32VW55X_Wifi_BLE_SDK/GD32VW55x_RELEASE_V1.0.2/MSDK/plf/GD32VW55x_standard_peripheral/Source\gd32vw55x_gpio.c **** {
  16              		.loc 1 46 1
  17              		.cfi_startproc
  18              	.LVL0:
  19 0000 17030000 		call	t0,__riscv_save_0
  19      E7020300 
  20              		.cfi_offset 1, -4
  21              		.cfi_def_cfa_offset 16
  47:C:/Users/stapi/OneDrive/Desktop/GD32VW553/GD32VW55X_Wifi_BLE_SDK/GD32VW55x_RELEASE_V1.0.2/MSDK/plf/GD32VW55x_standard_peripheral/Source\gd32vw55x_gpio.c ****     switch(gpio_periph) {
  22              		.loc 1 47 5
  23 0008 37070240 		li	a4,1073872896
  24 000c 93070740 		addi	a5,a4,1024
  25 0010 630EF500 		beq	a0,a5,.L2
  26 0014 B7170240 		li	a5,1073876992
  27 0018 93870780 		addi	a5,a5,-2048
  28 001c 6308F504 		beq	a0,a5,.L3
  29 0020 6306E502 		beq	a0,a4,.L7
  48:C:/Users/stapi/OneDrive/Desktop/GD32VW553/GD32VW55X_Wifi_BLE_SDK/GD32VW55x_RELEASE_V1.0.2/MSDK/plf/GD32VW55x_standard_peripheral/Source\gd32vw55x_gpio.c ****     case GPIOA:
  49:C:/Users/stapi/OneDrive/Desktop/GD32VW553/GD32VW55X_Wifi_BLE_SDK/GD32VW55x_RELEASE_V1.0.2/MSDK/plf/GD32VW55x_standard_peripheral/Source\gd32vw55x_gpio.c ****         /* reset GPIOA */
  50:C:/Users/stapi/OneDrive/Desktop/GD32VW553/GD32VW55X_Wifi_BLE_SDK/GD32VW55x_RELEASE_V1.0.2/MSDK/plf/GD32VW55x_standard_peripheral/Source\gd32vw55x_gpio.c ****         rcu_periph_reset_enable(RCU_GPIOARST);
  51:C:/Users/stapi/OneDrive/Desktop/GD32VW553/GD32VW55X_Wifi_BLE_SDK/GD32VW55x_RELEASE_V1.0.2/MSDK/plf/GD32VW55x_standard_peripheral/Source\gd32vw55x_gpio.c ****         rcu_periph_reset_disable(RCU_GPIOARST);
  52:C:/Users/stapi/OneDrive/Desktop/GD32VW553/GD32VW55X_Wifi_BLE_SDK/GD32VW55x_RELEASE_V1.0.2/MSDK/plf/GD32VW55x_standard_peripheral/Source\gd32vw55x_gpio.c ****         break;
  53:C:/Users/stapi/OneDrive/Desktop/GD32VW553/GD32VW55X_Wifi_BLE_SDK/GD32VW55x_RELEASE_V1.0.2/MSDK/plf/GD32VW55x_standard_peripheral/Source\gd32vw55x_gpio.c ****     case GPIOB:
  54:C:/Users/stapi/OneDrive/Desktop/GD32VW553/GD32VW55X_Wifi_BLE_SDK/GD32VW55x_RELEASE_V1.0.2/MSDK/plf/GD32VW55x_standard_peripheral/Source\gd32vw55x_gpio.c ****         /* reset GPIOB */
  55:C:/Users/stapi/OneDrive/Desktop/GD32VW553/GD32VW55X_Wifi_BLE_SDK/GD32VW55x_RELEASE_V1.0.2/MSDK/plf/GD32VW55x_standard_peripheral/Source\gd32vw55x_gpio.c ****         rcu_periph_reset_enable(RCU_GPIOBRST);
  56:C:/Users/stapi/OneDrive/Desktop/GD32VW553/GD32VW55X_Wifi_BLE_SDK/GD32VW55x_RELEASE_V1.0.2/MSDK/plf/GD32VW55x_standard_peripheral/Source\gd32vw55x_gpio.c ****         rcu_periph_reset_disable(RCU_GPIOBRST);
  57:C:/Users/stapi/OneDrive/Desktop/GD32VW553/GD32VW55X_Wifi_BLE_SDK/GD32VW55x_RELEASE_V1.0.2/MSDK/plf/GD32VW55x_standard_peripheral/Source\gd32vw55x_gpio.c ****         break;
  58:C:/Users/stapi/OneDrive/Desktop/GD32VW553/GD32VW55X_Wifi_BLE_SDK/GD32VW55x_RELEASE_V1.0.2/MSDK/plf/GD32VW55x_standard_peripheral/Source\gd32vw55x_gpio.c ****     case GPIOC:
  59:C:/Users/stapi/OneDrive/Desktop/GD32VW553/GD32VW55X_Wifi_BLE_SDK/GD32VW55x_RELEASE_V1.0.2/MSDK/plf/GD32VW55x_standard_peripheral/Source\gd32vw55x_gpio.c ****         /* reset GPIOC */
  60:C:/Users/stapi/OneDrive/Desktop/GD32VW553/GD32VW55X_Wifi_BLE_SDK/GD32VW55x_RELEASE_V1.0.2/MSDK/plf/GD32VW55x_standard_peripheral/Source\gd32vw55x_gpio.c ****         rcu_periph_reset_enable(RCU_GPIOCRST);
  61:C:/Users/stapi/OneDrive/Desktop/GD32VW553/GD32VW55X_Wifi_BLE_SDK/GD32VW55x_RELEASE_V1.0.2/MSDK/plf/GD32VW55x_standard_peripheral/Source\gd32vw55x_gpio.c ****         rcu_periph_reset_disable(RCU_GPIOCRST);
  62:C:/Users/stapi/OneDrive/Desktop/GD32VW553/GD32VW55X_Wifi_BLE_SDK/GD32VW55x_RELEASE_V1.0.2/MSDK/plf/GD32VW55x_standard_peripheral/Source\gd32vw55x_gpio.c ****         break;
  63:C:/Users/stapi/OneDrive/Desktop/GD32VW553/GD32VW55X_Wifi_BLE_SDK/GD32VW55x_RELEASE_V1.0.2/MSDK/plf/GD32VW55x_standard_peripheral/Source\gd32vw55x_gpio.c ****     default:
  64:C:/Users/stapi/OneDrive/Desktop/GD32VW553/GD32VW55X_Wifi_BLE_SDK/GD32VW55x_RELEASE_V1.0.2/MSDK/plf/GD32VW55x_standard_peripheral/Source\gd32vw55x_gpio.c ****         break;
  65:C:/Users/stapi/OneDrive/Desktop/GD32VW553/GD32VW55X_Wifi_BLE_SDK/GD32VW55x_RELEASE_V1.0.2/MSDK/plf/GD32VW55x_standard_peripheral/Source\gd32vw55x_gpio.c ****     }
  66:C:/Users/stapi/OneDrive/Desktop/GD32VW553/GD32VW55X_Wifi_BLE_SDK/GD32VW55x_RELEASE_V1.0.2/MSDK/plf/GD32VW55x_standard_peripheral/Source\gd32vw55x_gpio.c **** }
  30              		.loc 1 66 1 is_stmt 0
  31 0024 17030000 		tail	__riscv_restore_0
  31      67000300 
  32              		.cfi_remember_state
  33              		.cfi_restore 1
  34              		.cfi_def_cfa_offset 0
  35              	.L2:
  36              		.cfi_restore_state
  55:C:/Users/stapi/OneDrive/Desktop/GD32VW553/GD32VW55X_Wifi_BLE_SDK/GD32VW55x_RELEASE_V1.0.2/MSDK/plf/GD32VW55x_standard_peripheral/Source\gd32vw55x_gpio.c ****         rcu_periph_reset_disable(RCU_GPIOBRST);
  37              		.loc 1 55 9 is_stmt 1
  38 002c 13051040 		li	a0,1025
  39              	.LVL1:
  40 0030 97000000 		call	rcu_periph_reset_enable
  40      E7800000 
  41              	.LVL2:
  56:C:/Users/stapi/OneDrive/Desktop/GD32VW553/GD32VW55X_Wifi_BLE_SDK/GD32VW55x_RELEASE_V1.0.2/MSDK/plf/GD32VW55x_standard_peripheral/Source\gd32vw55x_gpio.c ****         break;
  42              		.loc 1 56 9
  43 0038 13051040 		li	a0,1025
  44 003c 97000000 		call	rcu_periph_reset_disable
  44      E7800000 
  45              	.LVL3:
  57:C:/Users/stapi/OneDrive/Desktop/GD32VW553/GD32VW55X_Wifi_BLE_SDK/GD32VW55x_RELEASE_V1.0.2/MSDK/plf/GD32VW55x_standard_peripheral/Source\gd32vw55x_gpio.c ****     case GPIOC:
  46              		.loc 1 57 9
  47              		.loc 1 66 1 is_stmt 0
  48 0044 17030000 		tail	__riscv_restore_0
  48      67000300 
  49              		.cfi_remember_state
  50              		.cfi_restore 1
  51              		.cfi_def_cfa_offset 0
  52              	.LVL4:
  53              	.L7:
  54              		.cfi_restore_state
  50:C:/Users/stapi/OneDrive/Desktop/GD32VW553/GD32VW55X_Wifi_BLE_SDK/GD32VW55x_RELEASE_V1.0.2/MSDK/plf/GD32VW55x_standard_peripheral/Source\gd32vw55x_gpio.c ****         rcu_periph_reset_disable(RCU_GPIOARST);
  55              		.loc 1 50 9 is_stmt 1
  56 004c 13050040 		li	a0,1024
  57              	.LVL5:
  58 0050 97000000 		call	rcu_periph_reset_enable
  58      E7800000 
  59              	.LVL6:
  51:C:/Users/stapi/OneDrive/Desktop/GD32VW553/GD32VW55X_Wifi_BLE_SDK/GD32VW55x_RELEASE_V1.0.2/MSDK/plf/GD32VW55x_standard_peripheral/Source\gd32vw55x_gpio.c ****         break;
  60              		.loc 1 51 9
  61 0058 13050040 		li	a0,1024
  62 005c 97000000 		call	rcu_periph_reset_disable
  62      E7800000 
  63              	.LVL7:
  52:C:/Users/stapi/OneDrive/Desktop/GD32VW553/GD32VW55X_Wifi_BLE_SDK/GD32VW55x_RELEASE_V1.0.2/MSDK/plf/GD32VW55x_standard_peripheral/Source\gd32vw55x_gpio.c ****     case GPIOB:
  64              		.loc 1 52 9
  65              		.loc 1 66 1 is_stmt 0
  66 0064 17030000 		tail	__riscv_restore_0
  66      67000300 
  67              		.cfi_remember_state
  68              		.cfi_restore 1
  69              		.cfi_def_cfa_offset 0
  70              	.LVL8:
  71              	.L3:
  72              		.cfi_restore_state
  60:C:/Users/stapi/OneDrive/Desktop/GD32VW553/GD32VW55X_Wifi_BLE_SDK/GD32VW55x_RELEASE_V1.0.2/MSDK/plf/GD32VW55x_standard_peripheral/Source\gd32vw55x_gpio.c ****         rcu_periph_reset_disable(RCU_GPIOCRST);
  73              		.loc 1 60 9 is_stmt 1
  74 006c 13052040 		li	a0,1026
  75              	.LVL9:
  76 0070 97000000 		call	rcu_periph_reset_enable
  76      E7800000 
  77              	.LVL10:
  61:C:/Users/stapi/OneDrive/Desktop/GD32VW553/GD32VW55X_Wifi_BLE_SDK/GD32VW55x_RELEASE_V1.0.2/MSDK/plf/GD32VW55x_standard_peripheral/Source\gd32vw55x_gpio.c ****         break;
  78              		.loc 1 61 9
  79 0078 13052040 		li	a0,1026
  80 007c 97000000 		call	rcu_periph_reset_disable
  80      E7800000 
  81              	.LVL11:
  62:C:/Users/stapi/OneDrive/Desktop/GD32VW553/GD32VW55X_Wifi_BLE_SDK/GD32VW55x_RELEASE_V1.0.2/MSDK/plf/GD32VW55x_standard_peripheral/Source\gd32vw55x_gpio.c ****     default:
  82              		.loc 1 62 9
  83              		.loc 1 66 1 is_stmt 0
  84 0084 17030000 		tail	__riscv_restore_0
  84      67000300 
  85              		.cfi_restore 1
  86              		.cfi_def_cfa_offset 0
  87              		.cfi_endproc
  88              	.LFE365:
  90              		.section	.text.gpio_mode_set,"ax",@progbits
  91              		.align	1
  92              		.globl	gpio_mode_set
  94              	gpio_mode_set:
  95              	.LFB366:
  67:C:/Users/stapi/OneDrive/Desktop/GD32VW553/GD32VW55X_Wifi_BLE_SDK/GD32VW55x_RELEASE_V1.0.2/MSDK/plf/GD32VW55x_standard_peripheral/Source\gd32vw55x_gpio.c **** 
  68:C:/Users/stapi/OneDrive/Desktop/GD32VW553/GD32VW55X_Wifi_BLE_SDK/GD32VW55x_RELEASE_V1.0.2/MSDK/plf/GD32VW55x_standard_peripheral/Source\gd32vw55x_gpio.c **** /*!
  69:C:/Users/stapi/OneDrive/Desktop/GD32VW553/GD32VW55X_Wifi_BLE_SDK/GD32VW55x_RELEASE_V1.0.2/MSDK/plf/GD32VW55x_standard_peripheral/Source\gd32vw55x_gpio.c ****     \brief      set GPIO mode
  70:C:/Users/stapi/OneDrive/Desktop/GD32VW553/GD32VW55X_Wifi_BLE_SDK/GD32VW55x_RELEASE_V1.0.2/MSDK/plf/GD32VW55x_standard_peripheral/Source\gd32vw55x_gpio.c ****     \param[in]  gpio_periph: GPIOx(x = A,B,C)
  71:C:/Users/stapi/OneDrive/Desktop/GD32VW553/GD32VW55X_Wifi_BLE_SDK/GD32VW55x_RELEASE_V1.0.2/MSDK/plf/GD32VW55x_standard_peripheral/Source\gd32vw55x_gpio.c ****                 only one parameter can be selected which is shown as below:
  72:C:/Users/stapi/OneDrive/Desktop/GD32VW553/GD32VW55X_Wifi_BLE_SDK/GD32VW55x_RELEASE_V1.0.2/MSDK/plf/GD32VW55x_standard_peripheral/Source\gd32vw55x_gpio.c ****       \arg        GPIOx(x = A,B,C)
  73:C:/Users/stapi/OneDrive/Desktop/GD32VW553/GD32VW55X_Wifi_BLE_SDK/GD32VW55x_RELEASE_V1.0.2/MSDK/plf/GD32VW55x_standard_peripheral/Source\gd32vw55x_gpio.c ****     \param[in]  mode: gpio pin mode
  74:C:/Users/stapi/OneDrive/Desktop/GD32VW553/GD32VW55X_Wifi_BLE_SDK/GD32VW55x_RELEASE_V1.0.2/MSDK/plf/GD32VW55x_standard_peripheral/Source\gd32vw55x_gpio.c ****                 only one parameter can be selected which is shown as below:
  75:C:/Users/stapi/OneDrive/Desktop/GD32VW553/GD32VW55X_Wifi_BLE_SDK/GD32VW55x_RELEASE_V1.0.2/MSDK/plf/GD32VW55x_standard_peripheral/Source\gd32vw55x_gpio.c ****       \arg        GPIO_MODE_INPUT: input mode
  76:C:/Users/stapi/OneDrive/Desktop/GD32VW553/GD32VW55X_Wifi_BLE_SDK/GD32VW55x_RELEASE_V1.0.2/MSDK/plf/GD32VW55x_standard_peripheral/Source\gd32vw55x_gpio.c ****       \arg        GPIO_MODE_OUTPUT: output mode
  77:C:/Users/stapi/OneDrive/Desktop/GD32VW553/GD32VW55X_Wifi_BLE_SDK/GD32VW55x_RELEASE_V1.0.2/MSDK/plf/GD32VW55x_standard_peripheral/Source\gd32vw55x_gpio.c ****       \arg        GPIO_MODE_AF: alternate function mode
  78:C:/Users/stapi/OneDrive/Desktop/GD32VW553/GD32VW55X_Wifi_BLE_SDK/GD32VW55x_RELEASE_V1.0.2/MSDK/plf/GD32VW55x_standard_peripheral/Source\gd32vw55x_gpio.c ****       \arg        GPIO_MODE_ANALOG: analog mode
  79:C:/Users/stapi/OneDrive/Desktop/GD32VW553/GD32VW55X_Wifi_BLE_SDK/GD32VW55x_RELEASE_V1.0.2/MSDK/plf/GD32VW55x_standard_peripheral/Source\gd32vw55x_gpio.c ****     \param[in]  pull_up_down: gpio pin with pull-up or pull-down resistor
  80:C:/Users/stapi/OneDrive/Desktop/GD32VW553/GD32VW55X_Wifi_BLE_SDK/GD32VW55x_RELEASE_V1.0.2/MSDK/plf/GD32VW55x_standard_peripheral/Source\gd32vw55x_gpio.c ****                 only one parameter can be selected which is shown as below:
  81:C:/Users/stapi/OneDrive/Desktop/GD32VW553/GD32VW55X_Wifi_BLE_SDK/GD32VW55x_RELEASE_V1.0.2/MSDK/plf/GD32VW55x_standard_peripheral/Source\gd32vw55x_gpio.c ****       \arg        GPIO_PUPD_NONE: floating mode, no pull-up and pull-down resistors
  82:C:/Users/stapi/OneDrive/Desktop/GD32VW553/GD32VW55X_Wifi_BLE_SDK/GD32VW55x_RELEASE_V1.0.2/MSDK/plf/GD32VW55x_standard_peripheral/Source\gd32vw55x_gpio.c ****       \arg        GPIO_PUPD_PULLUP: with pull-up resistor
  83:C:/Users/stapi/OneDrive/Desktop/GD32VW553/GD32VW55X_Wifi_BLE_SDK/GD32VW55x_RELEASE_V1.0.2/MSDK/plf/GD32VW55x_standard_peripheral/Source\gd32vw55x_gpio.c ****       \arg        GPIO_PUPD_PULLDOWN:with pull-down resistor
  84:C:/Users/stapi/OneDrive/Desktop/GD32VW553/GD32VW55X_Wifi_BLE_SDK/GD32VW55x_RELEASE_V1.0.2/MSDK/plf/GD32VW55x_standard_peripheral/Source\gd32vw55x_gpio.c ****     \param[in]  pin: GPIO pin
  85:C:/Users/stapi/OneDrive/Desktop/GD32VW553/GD32VW55X_Wifi_BLE_SDK/GD32VW55x_RELEASE_V1.0.2/MSDK/plf/GD32VW55x_standard_peripheral/Source\gd32vw55x_gpio.c ****                 one or more parameters can be selected which are shown as below:
  86:C:/Users/stapi/OneDrive/Desktop/GD32VW553/GD32VW55X_Wifi_BLE_SDK/GD32VW55x_RELEASE_V1.0.2/MSDK/plf/GD32VW55x_standard_peripheral/Source\gd32vw55x_gpio.c ****       \arg        GPIO_PIN_x(x=0..15), GPIO_PIN_ALL
  87:C:/Users/stapi/OneDrive/Desktop/GD32VW553/GD32VW55X_Wifi_BLE_SDK/GD32VW55x_RELEASE_V1.0.2/MSDK/plf/GD32VW55x_standard_peripheral/Source\gd32vw55x_gpio.c ****     \param[out] none
  88:C:/Users/stapi/OneDrive/Desktop/GD32VW553/GD32VW55X_Wifi_BLE_SDK/GD32VW55x_RELEASE_V1.0.2/MSDK/plf/GD32VW55x_standard_peripheral/Source\gd32vw55x_gpio.c ****     \retval     none
  89:C:/Users/stapi/OneDrive/Desktop/GD32VW553/GD32VW55X_Wifi_BLE_SDK/GD32VW55x_RELEASE_V1.0.2/MSDK/plf/GD32VW55x_standard_peripheral/Source\gd32vw55x_gpio.c **** */
  90:C:/Users/stapi/OneDrive/Desktop/GD32VW553/GD32VW55X_Wifi_BLE_SDK/GD32VW55x_RELEASE_V1.0.2/MSDK/plf/GD32VW55x_standard_peripheral/Source\gd32vw55x_gpio.c **** void gpio_mode_set(uint32_t gpio_periph, uint32_t mode, uint32_t pull_up_down, uint32_t pin)
  91:C:/Users/stapi/OneDrive/Desktop/GD32VW553/GD32VW55X_Wifi_BLE_SDK/GD32VW55x_RELEASE_V1.0.2/MSDK/plf/GD32VW55x_standard_peripheral/Source\gd32vw55x_gpio.c **** {
  96              		.loc 1 91 1 is_stmt 1
  97              		.cfi_startproc
  98              	.LVL12:
  92:C:/Users/stapi/OneDrive/Desktop/GD32VW553/GD32VW55X_Wifi_BLE_SDK/GD32VW55x_RELEASE_V1.0.2/MSDK/plf/GD32VW55x_standard_peripheral/Source\gd32vw55x_gpio.c ****     uint16_t i;
  99              		.loc 1 92 5
  93:C:/Users/stapi/OneDrive/Desktop/GD32VW553/GD32VW55X_Wifi_BLE_SDK/GD32VW55x_RELEASE_V1.0.2/MSDK/plf/GD32VW55x_standard_peripheral/Source\gd32vw55x_gpio.c ****     uint32_t ctl, pupd;
 100              		.loc 1 93 5
  94:C:/Users/stapi/OneDrive/Desktop/GD32VW553/GD32VW55X_Wifi_BLE_SDK/GD32VW55x_RELEASE_V1.0.2/MSDK/plf/GD32VW55x_standard_peripheral/Source\gd32vw55x_gpio.c **** 
  95:C:/Users/stapi/OneDrive/Desktop/GD32VW553/GD32VW55X_Wifi_BLE_SDK/GD32VW55x_RELEASE_V1.0.2/MSDK/plf/GD32VW55x_standard_peripheral/Source\gd32vw55x_gpio.c ****     ctl = GPIO_CTL(gpio_periph);
 101              		.loc 1 95 5
 102              		.loc 1 95 9 is_stmt 0
 103 0000 032E0500 		lw	t3,0(a0)
 104              	.LVL13:
  96:C:/Users/stapi/OneDrive/Desktop/GD32VW553/GD32VW55X_Wifi_BLE_SDK/GD32VW55x_RELEASE_V1.0.2/MSDK/plf/GD32VW55x_standard_peripheral/Source\gd32vw55x_gpio.c ****     pupd = GPIO_PUD(gpio_periph);
 105              		.loc 1 96 5 is_stmt 1
 106              		.loc 1 96 10 is_stmt 0
 107 0004 0323C500 		lw	t1,12(a0)
 108              	.LVL14:
  97:C:/Users/stapi/OneDrive/Desktop/GD32VW553/GD32VW55X_Wifi_BLE_SDK/GD32VW55x_RELEASE_V1.0.2/MSDK/plf/GD32VW55x_standard_peripheral/Source\gd32vw55x_gpio.c **** 
  98:C:/Users/stapi/OneDrive/Desktop/GD32VW553/GD32VW55X_Wifi_BLE_SDK/GD32VW55x_RELEASE_V1.0.2/MSDK/plf/GD32VW55x_standard_peripheral/Source\gd32vw55x_gpio.c ****     for(i = 0U; i < 16U; i++) {
 109              		.loc 1 98 5 is_stmt 1
 110              		.loc 1 98 17
  96:C:/Users/stapi/OneDrive/Desktop/GD32VW553/GD32VW55X_Wifi_BLE_SDK/GD32VW55x_RELEASE_V1.0.2/MSDK/plf/GD32VW55x_standard_peripheral/Source\gd32vw55x_gpio.c ****     pupd = GPIO_PUD(gpio_periph);
 111              		.loc 1 96 10 is_stmt 0
 112 0008 0148     		li	a6,0
  99:C:/Users/stapi/OneDrive/Desktop/GD32VW553/GD32VW55X_Wifi_BLE_SDK/GD32VW55x_RELEASE_V1.0.2/MSDK/plf/GD32VW55x_standard_peripheral/Source\gd32vw55x_gpio.c ****         if((1U << i) & pin) {
 100:C:/Users/stapi/OneDrive/Desktop/GD32VW553/GD32VW55X_Wifi_BLE_SDK/GD32VW55x_RELEASE_V1.0.2/MSDK/plf/GD32VW55x_standard_peripheral/Source\gd32vw55x_gpio.c ****             /* clear the specified pin mode bits */
 101:C:/Users/stapi/OneDrive/Desktop/GD32VW553/GD32VW55X_Wifi_BLE_SDK/GD32VW55x_RELEASE_V1.0.2/MSDK/plf/GD32VW55x_standard_peripheral/Source\gd32vw55x_gpio.c ****             ctl &= ~GPIO_MODE_MASK(i);
 113              		.loc 1 101 21
 114 000a 8D42     		li	t0,3
  98:C:/Users/stapi/OneDrive/Desktop/GD32VW553/GD32VW55X_Wifi_BLE_SDK/GD32VW55x_RELEASE_V1.0.2/MSDK/plf/GD32VW55x_standard_peripheral/Source\gd32vw55x_gpio.c ****         if((1U << i) & pin) {
 115              		.loc 1 98 5
 116 000c C14F     		li	t6,16
 117              	.LVL15:
 118              	.L10:
  99:C:/Users/stapi/OneDrive/Desktop/GD32VW553/GD32VW55X_Wifi_BLE_SDK/GD32VW55x_RELEASE_V1.0.2/MSDK/plf/GD32VW55x_standard_peripheral/Source\gd32vw55x_gpio.c ****         if((1U << i) & pin) {
 119              		.loc 1 99 9 is_stmt 1
 120              		.loc 1 101 13
 121 000e 13171800 		slli	a4,a6,1
 122              		.loc 1 101 21 is_stmt 0
 123 0012 B397E200 		sll	a5,t0,a4
 124              		.loc 1 101 20
 125 0016 93C7F7FF 		not	a5,a5
  99:C:/Users/stapi/OneDrive/Desktop/GD32VW553/GD32VW55X_Wifi_BLE_SDK/GD32VW55x_RELEASE_V1.0.2/MSDK/plf/GD32VW55x_standard_peripheral/Source\gd32vw55x_gpio.c ****         if((1U << i) & pin) {
 126              		.loc 1 99 16
 127 001a B3180029 		bset	a7,x0,a6
  99:C:/Users/stapi/OneDrive/Desktop/GD32VW553/GD32VW55X_Wifi_BLE_SDK/GD32VW55x_RELEASE_V1.0.2/MSDK/plf/GD32VW55x_standard_peripheral/Source\gd32vw55x_gpio.c ****         if((1U << i) & pin) {
 128              		.loc 1 99 22
 129 001e B3F8D800 		and	a7,a7,a3
 130              		.loc 1 101 17
 131 0022 B3FEC701 		and	t4,a5,t3
 132              	.LVL16:
 102:C:/Users/stapi/OneDrive/Desktop/GD32VW553/GD32VW55X_Wifi_BLE_SDK/GD32VW55x_RELEASE_V1.0.2/MSDK/plf/GD32VW55x_standard_peripheral/Source\gd32vw55x_gpio.c ****             /* set the specified pin mode bits */
 103:C:/Users/stapi/OneDrive/Desktop/GD32VW553/GD32VW55X_Wifi_BLE_SDK/GD32VW55x_RELEASE_V1.0.2/MSDK/plf/GD32VW55x_standard_peripheral/Source\gd32vw55x_gpio.c ****             ctl |= GPIO_MODE_SET(i, mode);
 133              		.loc 1 103 13 is_stmt 1
 134              		.loc 1 103 20 is_stmt 0
 135 0026 339FE500 		sll	t5,a1,a4
  98:C:/Users/stapi/OneDrive/Desktop/GD32VW553/GD32VW55X_Wifi_BLE_SDK/GD32VW55x_RELEASE_V1.0.2/MSDK/plf/GD32VW55x_standard_peripheral/Source\gd32vw55x_gpio.c ****         if((1U << i) & pin) {
 136              		.loc 1 98 5
 137 002a 0508     		addi	a6,a6,1
 138              	.LVL17:
 104:C:/Users/stapi/OneDrive/Desktop/GD32VW553/GD32VW55X_Wifi_BLE_SDK/GD32VW55x_RELEASE_V1.0.2/MSDK/plf/GD32VW55x_standard_peripheral/Source\gd32vw55x_gpio.c **** 
 105:C:/Users/stapi/OneDrive/Desktop/GD32VW553/GD32VW55X_Wifi_BLE_SDK/GD32VW55x_RELEASE_V1.0.2/MSDK/plf/GD32VW55x_standard_peripheral/Source\gd32vw55x_gpio.c ****             /* clear the specified pin pupd bits */
 106:C:/Users/stapi/OneDrive/Desktop/GD32VW553/GD32VW55X_Wifi_BLE_SDK/GD32VW55x_RELEASE_V1.0.2/MSDK/plf/GD32VW55x_standard_peripheral/Source\gd32vw55x_gpio.c ****             pupd &= ~GPIO_PUPD_MASK(i);
 139              		.loc 1 106 18
 140 002c B3F76700 		and	a5,a5,t1
 107:C:/Users/stapi/OneDrive/Desktop/GD32VW553/GD32VW55X_Wifi_BLE_SDK/GD32VW55x_RELEASE_V1.0.2/MSDK/plf/GD32VW55x_standard_peripheral/Source\gd32vw55x_gpio.c ****             /* set the specified pin pupd bits */
 108:C:/Users/stapi/OneDrive/Desktop/GD32VW553/GD32VW55X_Wifi_BLE_SDK/GD32VW55x_RELEASE_V1.0.2/MSDK/plf/GD32VW55x_standard_peripheral/Source\gd32vw55x_gpio.c ****             pupd |= GPIO_PUPD_SET(i, pull_up_down);
 141              		.loc 1 108 21
 142 0030 3317E600 		sll	a4,a2,a4
  99:C:/Users/stapi/OneDrive/Desktop/GD32VW553/GD32VW55X_Wifi_BLE_SDK/GD32VW55x_RELEASE_V1.0.2/MSDK/plf/GD32VW55x_standard_peripheral/Source\gd32vw55x_gpio.c ****             /* clear the specified pin mode bits */
 143              		.loc 1 99 11
 144 0034 63860800 		beq	a7,zero,.L9
 103:C:/Users/stapi/OneDrive/Desktop/GD32VW553/GD32VW55X_Wifi_BLE_SDK/GD32VW55x_RELEASE_V1.0.2/MSDK/plf/GD32VW55x_standard_peripheral/Source\gd32vw55x_gpio.c **** 
 145              		.loc 1 103 17
 146 0038 336EDF01 		or	t3,t5,t4
 147              	.LVL18:
 106:C:/Users/stapi/OneDrive/Desktop/GD32VW553/GD32VW55X_Wifi_BLE_SDK/GD32VW55x_RELEASE_V1.0.2/MSDK/plf/GD32VW55x_standard_peripheral/Source\gd32vw55x_gpio.c ****             /* set the specified pin pupd bits */
 148              		.loc 1 106 13 is_stmt 1
 149              		.loc 1 108 13
 150              		.loc 1 108 18 is_stmt 0
 151 003c 3363F700 		or	t1,a4,a5
 152              	.LVL19:
 153              	.L9:
  98:C:/Users/stapi/OneDrive/Desktop/GD32VW553/GD32VW55X_Wifi_BLE_SDK/GD32VW55x_RELEASE_V1.0.2/MSDK/plf/GD32VW55x_standard_peripheral/Source\gd32vw55x_gpio.c ****         if((1U << i) & pin) {
 154              		.loc 1 98 26 is_stmt 1 discriminator 2
  98:C:/Users/stapi/OneDrive/Desktop/GD32VW553/GD32VW55X_Wifi_BLE_SDK/GD32VW55x_RELEASE_V1.0.2/MSDK/plf/GD32VW55x_standard_peripheral/Source\gd32vw55x_gpio.c ****         if((1U << i) & pin) {
 155              		.loc 1 98 17 discriminator 2
  98:C:/Users/stapi/OneDrive/Desktop/GD32VW553/GD32VW55X_Wifi_BLE_SDK/GD32VW55x_RELEASE_V1.0.2/MSDK/plf/GD32VW55x_standard_peripheral/Source\gd32vw55x_gpio.c ****         if((1U << i) & pin) {
 156              		.loc 1 98 5 is_stmt 0 discriminator 2
 157 0040 E317F8FD 		bne	a6,t6,.L10
 109:C:/Users/stapi/OneDrive/Desktop/GD32VW553/GD32VW55X_Wifi_BLE_SDK/GD32VW55x_RELEASE_V1.0.2/MSDK/plf/GD32VW55x_standard_peripheral/Source\gd32vw55x_gpio.c ****         }
 110:C:/Users/stapi/OneDrive/Desktop/GD32VW553/GD32VW55X_Wifi_BLE_SDK/GD32VW55x_RELEASE_V1.0.2/MSDK/plf/GD32VW55x_standard_peripheral/Source\gd32vw55x_gpio.c ****     }
 111:C:/Users/stapi/OneDrive/Desktop/GD32VW553/GD32VW55X_Wifi_BLE_SDK/GD32VW55x_RELEASE_V1.0.2/MSDK/plf/GD32VW55x_standard_peripheral/Source\gd32vw55x_gpio.c **** 
 112:C:/Users/stapi/OneDrive/Desktop/GD32VW553/GD32VW55X_Wifi_BLE_SDK/GD32VW55x_RELEASE_V1.0.2/MSDK/plf/GD32VW55x_standard_peripheral/Source\gd32vw55x_gpio.c ****     GPIO_CTL(gpio_periph) = ctl;
 158              		.loc 1 112 5 is_stmt 1
 159              		.loc 1 112 27 is_stmt 0
 160 0044 2320C501 		sw	t3,0(a0)
 113:C:/Users/stapi/OneDrive/Desktop/GD32VW553/GD32VW55X_Wifi_BLE_SDK/GD32VW55x_RELEASE_V1.0.2/MSDK/plf/GD32VW55x_standard_peripheral/Source\gd32vw55x_gpio.c ****     GPIO_PUD(gpio_periph) = pupd;
 161              		.loc 1 113 5 is_stmt 1
 162              		.loc 1 113 27 is_stmt 0
 163 0048 23266500 		sw	t1,12(a0)
 114:C:/Users/stapi/OneDrive/Desktop/GD32VW553/GD32VW55X_Wifi_BLE_SDK/GD32VW55x_RELEASE_V1.0.2/MSDK/plf/GD32VW55x_standard_peripheral/Source\gd32vw55x_gpio.c **** }
 164              		.loc 1 114 1
 165 004c 8280     		ret
 166              		.cfi_endproc
 167              	.LFE366:
 169              		.section	.text.gpio_output_options_set,"ax",@progbits
 170              		.align	1
 171              		.globl	gpio_output_options_set
 173              	gpio_output_options_set:
 174              	.LFB367:
 115:C:/Users/stapi/OneDrive/Desktop/GD32VW553/GD32VW55X_Wifi_BLE_SDK/GD32VW55x_RELEASE_V1.0.2/MSDK/plf/GD32VW55x_standard_peripheral/Source\gd32vw55x_gpio.c **** 
 116:C:/Users/stapi/OneDrive/Desktop/GD32VW553/GD32VW55X_Wifi_BLE_SDK/GD32VW55x_RELEASE_V1.0.2/MSDK/plf/GD32VW55x_standard_peripheral/Source\gd32vw55x_gpio.c **** /*!
 117:C:/Users/stapi/OneDrive/Desktop/GD32VW553/GD32VW55X_Wifi_BLE_SDK/GD32VW55x_RELEASE_V1.0.2/MSDK/plf/GD32VW55x_standard_peripheral/Source\gd32vw55x_gpio.c ****     \brief      set GPIO output type and speed
 118:C:/Users/stapi/OneDrive/Desktop/GD32VW553/GD32VW55X_Wifi_BLE_SDK/GD32VW55x_RELEASE_V1.0.2/MSDK/plf/GD32VW55x_standard_peripheral/Source\gd32vw55x_gpio.c ****     \param[in]  gpio_periph: GPIOx(x = A,B,C)
 119:C:/Users/stapi/OneDrive/Desktop/GD32VW553/GD32VW55X_Wifi_BLE_SDK/GD32VW55x_RELEASE_V1.0.2/MSDK/plf/GD32VW55x_standard_peripheral/Source\gd32vw55x_gpio.c ****                 only one parameter can be selected which is shown as below:
 120:C:/Users/stapi/OneDrive/Desktop/GD32VW553/GD32VW55X_Wifi_BLE_SDK/GD32VW55x_RELEASE_V1.0.2/MSDK/plf/GD32VW55x_standard_peripheral/Source\gd32vw55x_gpio.c ****       \arg        GPIOx(x = A,B,C)
 121:C:/Users/stapi/OneDrive/Desktop/GD32VW553/GD32VW55X_Wifi_BLE_SDK/GD32VW55x_RELEASE_V1.0.2/MSDK/plf/GD32VW55x_standard_peripheral/Source\gd32vw55x_gpio.c ****     \param[in]  otype: gpio pin output mode
 122:C:/Users/stapi/OneDrive/Desktop/GD32VW553/GD32VW55X_Wifi_BLE_SDK/GD32VW55x_RELEASE_V1.0.2/MSDK/plf/GD32VW55x_standard_peripheral/Source\gd32vw55x_gpio.c ****                 only one parameter can be selected which is shown as below:
 123:C:/Users/stapi/OneDrive/Desktop/GD32VW553/GD32VW55X_Wifi_BLE_SDK/GD32VW55x_RELEASE_V1.0.2/MSDK/plf/GD32VW55x_standard_peripheral/Source\gd32vw55x_gpio.c ****       \arg        GPIO_OTYPE_PP: push pull mode
 124:C:/Users/stapi/OneDrive/Desktop/GD32VW553/GD32VW55X_Wifi_BLE_SDK/GD32VW55x_RELEASE_V1.0.2/MSDK/plf/GD32VW55x_standard_peripheral/Source\gd32vw55x_gpio.c ****       \arg        GPIO_OTYPE_OD: open drain mode
 125:C:/Users/stapi/OneDrive/Desktop/GD32VW553/GD32VW55X_Wifi_BLE_SDK/GD32VW55x_RELEASE_V1.0.2/MSDK/plf/GD32VW55x_standard_peripheral/Source\gd32vw55x_gpio.c ****     \param[in]  speed: gpio pin output max speed
 126:C:/Users/stapi/OneDrive/Desktop/GD32VW553/GD32VW55X_Wifi_BLE_SDK/GD32VW55x_RELEASE_V1.0.2/MSDK/plf/GD32VW55x_standard_peripheral/Source\gd32vw55x_gpio.c ****                 only one parameter can be selected which is shown as below:
 127:C:/Users/stapi/OneDrive/Desktop/GD32VW553/GD32VW55X_Wifi_BLE_SDK/GD32VW55x_RELEASE_V1.0.2/MSDK/plf/GD32VW55x_standard_peripheral/Source\gd32vw55x_gpio.c ****       \arg        GPIO_OSPEED_2MHZ: output max speed 2MHz
 128:C:/Users/stapi/OneDrive/Desktop/GD32VW553/GD32VW55X_Wifi_BLE_SDK/GD32VW55x_RELEASE_V1.0.2/MSDK/plf/GD32VW55x_standard_peripheral/Source\gd32vw55x_gpio.c ****       \arg        GPIO_OSPEED_10MHZ: output max speed 10MHz
 129:C:/Users/stapi/OneDrive/Desktop/GD32VW553/GD32VW55X_Wifi_BLE_SDK/GD32VW55x_RELEASE_V1.0.2/MSDK/plf/GD32VW55x_standard_peripheral/Source\gd32vw55x_gpio.c ****       \arg        GPIO_OSPEED_25MHZ: output max speed 25MHz
 130:C:/Users/stapi/OneDrive/Desktop/GD32VW553/GD32VW55X_Wifi_BLE_SDK/GD32VW55x_RELEASE_V1.0.2/MSDK/plf/GD32VW55x_standard_peripheral/Source\gd32vw55x_gpio.c ****       \arg        GPIO_OSPEED_MAX: output max speed
 131:C:/Users/stapi/OneDrive/Desktop/GD32VW553/GD32VW55X_Wifi_BLE_SDK/GD32VW55x_RELEASE_V1.0.2/MSDK/plf/GD32VW55x_standard_peripheral/Source\gd32vw55x_gpio.c ****     \param[in]  pin: GPIO pin
 132:C:/Users/stapi/OneDrive/Desktop/GD32VW553/GD32VW55X_Wifi_BLE_SDK/GD32VW55x_RELEASE_V1.0.2/MSDK/plf/GD32VW55x_standard_peripheral/Source\gd32vw55x_gpio.c ****                 one or more parameters can be selected which are shown as below:
 133:C:/Users/stapi/OneDrive/Desktop/GD32VW553/GD32VW55X_Wifi_BLE_SDK/GD32VW55x_RELEASE_V1.0.2/MSDK/plf/GD32VW55x_standard_peripheral/Source\gd32vw55x_gpio.c ****       \arg        GPIO_PIN_x(x=0..15), GPIO_PIN_ALL
 134:C:/Users/stapi/OneDrive/Desktop/GD32VW553/GD32VW55X_Wifi_BLE_SDK/GD32VW55x_RELEASE_V1.0.2/MSDK/plf/GD32VW55x_standard_peripheral/Source\gd32vw55x_gpio.c ****     \param[out] none
 135:C:/Users/stapi/OneDrive/Desktop/GD32VW553/GD32VW55X_Wifi_BLE_SDK/GD32VW55x_RELEASE_V1.0.2/MSDK/plf/GD32VW55x_standard_peripheral/Source\gd32vw55x_gpio.c ****     \retval     none
 136:C:/Users/stapi/OneDrive/Desktop/GD32VW553/GD32VW55X_Wifi_BLE_SDK/GD32VW55x_RELEASE_V1.0.2/MSDK/plf/GD32VW55x_standard_peripheral/Source\gd32vw55x_gpio.c **** */
 137:C:/Users/stapi/OneDrive/Desktop/GD32VW553/GD32VW55X_Wifi_BLE_SDK/GD32VW55x_RELEASE_V1.0.2/MSDK/plf/GD32VW55x_standard_peripheral/Source\gd32vw55x_gpio.c **** void gpio_output_options_set(uint32_t gpio_periph, uint8_t otype, uint32_t speed, uint32_t pin)
 138:C:/Users/stapi/OneDrive/Desktop/GD32VW553/GD32VW55X_Wifi_BLE_SDK/GD32VW55x_RELEASE_V1.0.2/MSDK/plf/GD32VW55x_standard_peripheral/Source\gd32vw55x_gpio.c **** {
 175              		.loc 1 138 1 is_stmt 1
 176              		.cfi_startproc
 177              	.LVL20:
 139:C:/Users/stapi/OneDrive/Desktop/GD32VW553/GD32VW55X_Wifi_BLE_SDK/GD32VW55x_RELEASE_V1.0.2/MSDK/plf/GD32VW55x_standard_peripheral/Source\gd32vw55x_gpio.c ****     uint16_t i;
 178              		.loc 1 139 5
 140:C:/Users/stapi/OneDrive/Desktop/GD32VW553/GD32VW55X_Wifi_BLE_SDK/GD32VW55x_RELEASE_V1.0.2/MSDK/plf/GD32VW55x_standard_peripheral/Source\gd32vw55x_gpio.c ****     uint32_t ospeed;
 179              		.loc 1 140 5
 141:C:/Users/stapi/OneDrive/Desktop/GD32VW553/GD32VW55X_Wifi_BLE_SDK/GD32VW55x_RELEASE_V1.0.2/MSDK/plf/GD32VW55x_standard_peripheral/Source\gd32vw55x_gpio.c **** 
 142:C:/Users/stapi/OneDrive/Desktop/GD32VW553/GD32VW55X_Wifi_BLE_SDK/GD32VW55x_RELEASE_V1.0.2/MSDK/plf/GD32VW55x_standard_peripheral/Source\gd32vw55x_gpio.c ****     if(GPIO_OTYPE_OD == otype) {
 180              		.loc 1 142 5
 181              		.loc 1 142 7 is_stmt 0
 182 0000 8547     		li	a5,1
 183 0002 638FF502 		beq	a1,a5,.L24
 143:C:/Users/stapi/OneDrive/Desktop/GD32VW553/GD32VW55X_Wifi_BLE_SDK/GD32VW55x_RELEASE_V1.0.2/MSDK/plf/GD32VW55x_standard_peripheral/Source\gd32vw55x_gpio.c ****         GPIO_OMODE(gpio_periph) |= (uint32_t)pin;
 144:C:/Users/stapi/OneDrive/Desktop/GD32VW553/GD32VW55X_Wifi_BLE_SDK/GD32VW55x_RELEASE_V1.0.2/MSDK/plf/GD32VW55x_standard_peripheral/Source\gd32vw55x_gpio.c ****     } else {
 145:C:/Users/stapi/OneDrive/Desktop/GD32VW553/GD32VW55X_Wifi_BLE_SDK/GD32VW55x_RELEASE_V1.0.2/MSDK/plf/GD32VW55x_standard_peripheral/Source\gd32vw55x_gpio.c ****         GPIO_OMODE(gpio_periph) &= (uint32_t)(~pin);
 184              		.loc 1 145 9 is_stmt 1
 185              		.loc 1 145 33 is_stmt 0
 186 0006 5C41     		lw	a5,4(a0)
 187 0008 B3F7D740 		andn	a5,a5,a3
 188 000c 5CC1     		sw	a5,4(a0)
 189              	.L17:
 146:C:/Users/stapi/OneDrive/Desktop/GD32VW553/GD32VW55X_Wifi_BLE_SDK/GD32VW55x_RELEASE_V1.0.2/MSDK/plf/GD32VW55x_standard_peripheral/Source\gd32vw55x_gpio.c ****     }
 147:C:/Users/stapi/OneDrive/Desktop/GD32VW553/GD32VW55X_Wifi_BLE_SDK/GD32VW55x_RELEASE_V1.0.2/MSDK/plf/GD32VW55x_standard_peripheral/Source\gd32vw55x_gpio.c **** 
 148:C:/Users/stapi/OneDrive/Desktop/GD32VW553/GD32VW55X_Wifi_BLE_SDK/GD32VW55x_RELEASE_V1.0.2/MSDK/plf/GD32VW55x_standard_peripheral/Source\gd32vw55x_gpio.c ****     /* get the specified pin output speed bits value */
 149:C:/Users/stapi/OneDrive/Desktop/GD32VW553/GD32VW55X_Wifi_BLE_SDK/GD32VW55x_RELEASE_V1.0.2/MSDK/plf/GD32VW55x_standard_peripheral/Source\gd32vw55x_gpio.c ****     ospeed = GPIO_OSPD(gpio_periph);
 190              		.loc 1 149 5 is_stmt 1
 191              		.loc 1 149 12 is_stmt 0
 192 000e 03288500 		lw	a6,8(a0)
 193              	.LVL21:
 150:C:/Users/stapi/OneDrive/Desktop/GD32VW553/GD32VW55X_Wifi_BLE_SDK/GD32VW55x_RELEASE_V1.0.2/MSDK/plf/GD32VW55x_standard_peripheral/Source\gd32vw55x_gpio.c **** 
 151:C:/Users/stapi/OneDrive/Desktop/GD32VW553/GD32VW55X_Wifi_BLE_SDK/GD32VW55x_RELEASE_V1.0.2/MSDK/plf/GD32VW55x_standard_peripheral/Source\gd32vw55x_gpio.c ****     for(i = 0U; i < 16U; i++) {
 194              		.loc 1 151 5 is_stmt 1
 195              		.loc 1 151 17
 149:C:/Users/stapi/OneDrive/Desktop/GD32VW553/GD32VW55X_Wifi_BLE_SDK/GD32VW55x_RELEASE_V1.0.2/MSDK/plf/GD32VW55x_standard_peripheral/Source\gd32vw55x_gpio.c **** 
 196              		.loc 1 149 12 is_stmt 0
 197 0012 8147     		li	a5,0
 152:C:/Users/stapi/OneDrive/Desktop/GD32VW553/GD32VW55X_Wifi_BLE_SDK/GD32VW55x_RELEASE_V1.0.2/MSDK/plf/GD32VW55x_standard_peripheral/Source\gd32vw55x_gpio.c ****         if((1U << i) & pin) {
 153:C:/Users/stapi/OneDrive/Desktop/GD32VW553/GD32VW55X_Wifi_BLE_SDK/GD32VW55x_RELEASE_V1.0.2/MSDK/plf/GD32VW55x_standard_peripheral/Source\gd32vw55x_gpio.c ****             /* clear the specified pin output speed bits */
 154:C:/Users/stapi/OneDrive/Desktop/GD32VW553/GD32VW55X_Wifi_BLE_SDK/GD32VW55x_RELEASE_V1.0.2/MSDK/plf/GD32VW55x_standard_peripheral/Source\gd32vw55x_gpio.c ****             ospeed &= ~GPIO_OSPEED_MASK(i);
 198              		.loc 1 154 24
 199 0014 0D4E     		li	t3,3
 151:C:/Users/stapi/OneDrive/Desktop/GD32VW553/GD32VW55X_Wifi_BLE_SDK/GD32VW55x_RELEASE_V1.0.2/MSDK/plf/GD32VW55x_standard_peripheral/Source\gd32vw55x_gpio.c ****         if((1U << i) & pin) {
 200              		.loc 1 151 5
 201 0016 4143     		li	t1,16
 202              	.LVL22:
 203              	.L19:
 152:C:/Users/stapi/OneDrive/Desktop/GD32VW553/GD32VW55X_Wifi_BLE_SDK/GD32VW55x_RELEASE_V1.0.2/MSDK/plf/GD32VW55x_standard_peripheral/Source\gd32vw55x_gpio.c ****         if((1U << i) & pin) {
 204              		.loc 1 152 9 is_stmt 1
 205              		.loc 1 154 13
 206 0018 13971700 		slli	a4,a5,1
 152:C:/Users/stapi/OneDrive/Desktop/GD32VW553/GD32VW55X_Wifi_BLE_SDK/GD32VW55x_RELEASE_V1.0.2/MSDK/plf/GD32VW55x_standard_peripheral/Source\gd32vw55x_gpio.c ****         if((1U << i) & pin) {
 207              		.loc 1 152 16 is_stmt 0
 208 001c B315F028 		bset	a1,x0,a5
 152:C:/Users/stapi/OneDrive/Desktop/GD32VW553/GD32VW55X_Wifi_BLE_SDK/GD32VW55x_RELEASE_V1.0.2/MSDK/plf/GD32VW55x_standard_peripheral/Source\gd32vw55x_gpio.c ****         if((1U << i) & pin) {
 209              		.loc 1 152 22
 210 0020 F58D     		and	a1,a1,a3
 211              		.loc 1 154 24
 212 0022 B318EE00 		sll	a7,t3,a4
 151:C:/Users/stapi/OneDrive/Desktop/GD32VW553/GD32VW55X_Wifi_BLE_SDK/GD32VW55x_RELEASE_V1.0.2/MSDK/plf/GD32VW55x_standard_peripheral/Source\gd32vw55x_gpio.c ****         if((1U << i) & pin) {
 213              		.loc 1 151 5
 214 0026 8507     		addi	a5,a5,1
 215              	.LVL23:
 155:C:/Users/stapi/OneDrive/Desktop/GD32VW553/GD32VW55X_Wifi_BLE_SDK/GD32VW55x_RELEASE_V1.0.2/MSDK/plf/GD32VW55x_standard_peripheral/Source\gd32vw55x_gpio.c ****             /* set the specified pin output speed bits */
 156:C:/Users/stapi/OneDrive/Desktop/GD32VW553/GD32VW55X_Wifi_BLE_SDK/GD32VW55x_RELEASE_V1.0.2/MSDK/plf/GD32VW55x_standard_peripheral/Source\gd32vw55x_gpio.c ****             ospeed |= GPIO_OSPEED_SET(i, speed);
 216              		.loc 1 156 23
 217 0028 3317E600 		sll	a4,a2,a4
 152:C:/Users/stapi/OneDrive/Desktop/GD32VW553/GD32VW55X_Wifi_BLE_SDK/GD32VW55x_RELEASE_V1.0.2/MSDK/plf/GD32VW55x_standard_peripheral/Source\gd32vw55x_gpio.c ****             /* clear the specified pin output speed bits */
 218              		.loc 1 152 11
 219 002c 89C5     		beq	a1,zero,.L18
 154:C:/Users/stapi/OneDrive/Desktop/GD32VW553/GD32VW55X_Wifi_BLE_SDK/GD32VW55x_RELEASE_V1.0.2/MSDK/plf/GD32VW55x_standard_peripheral/Source\gd32vw55x_gpio.c ****             /* set the specified pin output speed bits */
 220              		.loc 1 154 20
 221 002e 33781841 		andn	a6,a6,a7
 222              	.LVL24:
 223              		.loc 1 156 13 is_stmt 1
 224              		.loc 1 156 20 is_stmt 0
 225 0032 33680701 		or	a6,a4,a6
 226              	.LVL25:
 227              	.L18:
 151:C:/Users/stapi/OneDrive/Desktop/GD32VW553/GD32VW55X_Wifi_BLE_SDK/GD32VW55x_RELEASE_V1.0.2/MSDK/plf/GD32VW55x_standard_peripheral/Source\gd32vw55x_gpio.c ****         if((1U << i) & pin) {
 228              		.loc 1 151 26 is_stmt 1 discriminator 2
 151:C:/Users/stapi/OneDrive/Desktop/GD32VW553/GD32VW55X_Wifi_BLE_SDK/GD32VW55x_RELEASE_V1.0.2/MSDK/plf/GD32VW55x_standard_peripheral/Source\gd32vw55x_gpio.c ****         if((1U << i) & pin) {
 229              		.loc 1 151 17 discriminator 2
 151:C:/Users/stapi/OneDrive/Desktop/GD32VW553/GD32VW55X_Wifi_BLE_SDK/GD32VW55x_RELEASE_V1.0.2/MSDK/plf/GD32VW55x_standard_peripheral/Source\gd32vw55x_gpio.c ****         if((1U << i) & pin) {
 230              		.loc 1 151 5 is_stmt 0 discriminator 2
 231 0036 E39167FE 		bne	a5,t1,.L19
 157:C:/Users/stapi/OneDrive/Desktop/GD32VW553/GD32VW55X_Wifi_BLE_SDK/GD32VW55x_RELEASE_V1.0.2/MSDK/plf/GD32VW55x_standard_peripheral/Source\gd32vw55x_gpio.c ****         }
 158:C:/Users/stapi/OneDrive/Desktop/GD32VW553/GD32VW55X_Wifi_BLE_SDK/GD32VW55x_RELEASE_V1.0.2/MSDK/plf/GD32VW55x_standard_peripheral/Source\gd32vw55x_gpio.c ****     }
 159:C:/Users/stapi/OneDrive/Desktop/GD32VW553/GD32VW55X_Wifi_BLE_SDK/GD32VW55x_RELEASE_V1.0.2/MSDK/plf/GD32VW55x_standard_peripheral/Source\gd32vw55x_gpio.c **** 
 160:C:/Users/stapi/OneDrive/Desktop/GD32VW553/GD32VW55X_Wifi_BLE_SDK/GD32VW55x_RELEASE_V1.0.2/MSDK/plf/GD32VW55x_standard_peripheral/Source\gd32vw55x_gpio.c ****     GPIO_OSPD(gpio_periph) = ospeed;
 232              		.loc 1 160 5 is_stmt 1
 233              		.loc 1 160 28 is_stmt 0
 234 003a 23240501 		sw	a6,8(a0)
 161:C:/Users/stapi/OneDrive/Desktop/GD32VW553/GD32VW55X_Wifi_BLE_SDK/GD32VW55x_RELEASE_V1.0.2/MSDK/plf/GD32VW55x_standard_peripheral/Source\gd32vw55x_gpio.c **** }
 235              		.loc 1 161 1
 236 003e 8280     		ret
 237              	.LVL26:
 238              	.L24:
 143:C:/Users/stapi/OneDrive/Desktop/GD32VW553/GD32VW55X_Wifi_BLE_SDK/GD32VW55x_RELEASE_V1.0.2/MSDK/plf/GD32VW55x_standard_peripheral/Source\gd32vw55x_gpio.c ****     } else {
 239              		.loc 1 143 9 is_stmt 1
 143:C:/Users/stapi/OneDrive/Desktop/GD32VW553/GD32VW55X_Wifi_BLE_SDK/GD32VW55x_RELEASE_V1.0.2/MSDK/plf/GD32VW55x_standard_peripheral/Source\gd32vw55x_gpio.c ****     } else {
 240              		.loc 1 143 33 is_stmt 0
 241 0040 5C41     		lw	a5,4(a0)
 242 0042 D58F     		or	a5,a5,a3
 243 0044 5CC1     		sw	a5,4(a0)
 244 0046 E1B7     		j	.L17
 245              		.cfi_endproc
 246              	.LFE367:
 248              		.section	.text.gpio_bit_set,"ax",@progbits
 249              		.align	1
 250              		.globl	gpio_bit_set
 252              	gpio_bit_set:
 253              	.LFB368:
 162:C:/Users/stapi/OneDrive/Desktop/GD32VW553/GD32VW55X_Wifi_BLE_SDK/GD32VW55x_RELEASE_V1.0.2/MSDK/plf/GD32VW55x_standard_peripheral/Source\gd32vw55x_gpio.c **** 
 163:C:/Users/stapi/OneDrive/Desktop/GD32VW553/GD32VW55X_Wifi_BLE_SDK/GD32VW55x_RELEASE_V1.0.2/MSDK/plf/GD32VW55x_standard_peripheral/Source\gd32vw55x_gpio.c **** /*!
 164:C:/Users/stapi/OneDrive/Desktop/GD32VW553/GD32VW55X_Wifi_BLE_SDK/GD32VW55x_RELEASE_V1.0.2/MSDK/plf/GD32VW55x_standard_peripheral/Source\gd32vw55x_gpio.c ****     \brief      set GPIO pin bit
 165:C:/Users/stapi/OneDrive/Desktop/GD32VW553/GD32VW55X_Wifi_BLE_SDK/GD32VW55x_RELEASE_V1.0.2/MSDK/plf/GD32VW55x_standard_peripheral/Source\gd32vw55x_gpio.c ****     \param[in]  gpio_periph: GPIOx(x = A,B,C)
 166:C:/Users/stapi/OneDrive/Desktop/GD32VW553/GD32VW55X_Wifi_BLE_SDK/GD32VW55x_RELEASE_V1.0.2/MSDK/plf/GD32VW55x_standard_peripheral/Source\gd32vw55x_gpio.c ****                 only one parameter can be selected which is shown as below:
 167:C:/Users/stapi/OneDrive/Desktop/GD32VW553/GD32VW55X_Wifi_BLE_SDK/GD32VW55x_RELEASE_V1.0.2/MSDK/plf/GD32VW55x_standard_peripheral/Source\gd32vw55x_gpio.c ****       \arg        GPIOx(x = A,B,C)
 168:C:/Users/stapi/OneDrive/Desktop/GD32VW553/GD32VW55X_Wifi_BLE_SDK/GD32VW55x_RELEASE_V1.0.2/MSDK/plf/GD32VW55x_standard_peripheral/Source\gd32vw55x_gpio.c ****     \param[in]  pin: GPIO pin
 169:C:/Users/stapi/OneDrive/Desktop/GD32VW553/GD32VW55X_Wifi_BLE_SDK/GD32VW55x_RELEASE_V1.0.2/MSDK/plf/GD32VW55x_standard_peripheral/Source\gd32vw55x_gpio.c ****                 one or more parameters can be selected which are shown as below:
 170:C:/Users/stapi/OneDrive/Desktop/GD32VW553/GD32VW55X_Wifi_BLE_SDK/GD32VW55x_RELEASE_V1.0.2/MSDK/plf/GD32VW55x_standard_peripheral/Source\gd32vw55x_gpio.c ****       \arg        GPIO_PIN_x(x=0..15), GPIO_PIN_ALL
 171:C:/Users/stapi/OneDrive/Desktop/GD32VW553/GD32VW55X_Wifi_BLE_SDK/GD32VW55x_RELEASE_V1.0.2/MSDK/plf/GD32VW55x_standard_peripheral/Source\gd32vw55x_gpio.c ****     \param[out] none
 172:C:/Users/stapi/OneDrive/Desktop/GD32VW553/GD32VW55X_Wifi_BLE_SDK/GD32VW55x_RELEASE_V1.0.2/MSDK/plf/GD32VW55x_standard_peripheral/Source\gd32vw55x_gpio.c ****     \retval     none
 173:C:/Users/stapi/OneDrive/Desktop/GD32VW553/GD32VW55X_Wifi_BLE_SDK/GD32VW55x_RELEASE_V1.0.2/MSDK/plf/GD32VW55x_standard_peripheral/Source\gd32vw55x_gpio.c **** */
 174:C:/Users/stapi/OneDrive/Desktop/GD32VW553/GD32VW55X_Wifi_BLE_SDK/GD32VW55x_RELEASE_V1.0.2/MSDK/plf/GD32VW55x_standard_peripheral/Source\gd32vw55x_gpio.c **** void gpio_bit_set(uint32_t gpio_periph, uint32_t pin)
 175:C:/Users/stapi/OneDrive/Desktop/GD32VW553/GD32VW55X_Wifi_BLE_SDK/GD32VW55x_RELEASE_V1.0.2/MSDK/plf/GD32VW55x_standard_peripheral/Source\gd32vw55x_gpio.c **** {
 254              		.loc 1 175 1 is_stmt 1
 255              		.cfi_startproc
 256              	.LVL27:
 176:C:/Users/stapi/OneDrive/Desktop/GD32VW553/GD32VW55X_Wifi_BLE_SDK/GD32VW55x_RELEASE_V1.0.2/MSDK/plf/GD32VW55x_standard_peripheral/Source\gd32vw55x_gpio.c ****     GPIO_BOP(gpio_periph) = (uint32_t)pin;
 257              		.loc 1 176 5
 258              		.loc 1 176 27 is_stmt 0
 259 0000 0CCD     		sw	a1,24(a0)
 177:C:/Users/stapi/OneDrive/Desktop/GD32VW553/GD32VW55X_Wifi_BLE_SDK/GD32VW55x_RELEASE_V1.0.2/MSDK/plf/GD32VW55x_standard_peripheral/Source\gd32vw55x_gpio.c **** }
 260              		.loc 1 177 1
 261 0002 8280     		ret
 262              		.cfi_endproc
 263              	.LFE368:
 265              		.section	.text.gpio_bit_reset,"ax",@progbits
 266              		.align	1
 267              		.globl	gpio_bit_reset
 269              	gpio_bit_reset:
 270              	.LFB369:
 178:C:/Users/stapi/OneDrive/Desktop/GD32VW553/GD32VW55X_Wifi_BLE_SDK/GD32VW55x_RELEASE_V1.0.2/MSDK/plf/GD32VW55x_standard_peripheral/Source\gd32vw55x_gpio.c **** 
 179:C:/Users/stapi/OneDrive/Desktop/GD32VW553/GD32VW55X_Wifi_BLE_SDK/GD32VW55x_RELEASE_V1.0.2/MSDK/plf/GD32VW55x_standard_peripheral/Source\gd32vw55x_gpio.c **** /*!
 180:C:/Users/stapi/OneDrive/Desktop/GD32VW553/GD32VW55X_Wifi_BLE_SDK/GD32VW55x_RELEASE_V1.0.2/MSDK/plf/GD32VW55x_standard_peripheral/Source\gd32vw55x_gpio.c ****     \brief      reset GPIO pin bit
 181:C:/Users/stapi/OneDrive/Desktop/GD32VW553/GD32VW55X_Wifi_BLE_SDK/GD32VW55x_RELEASE_V1.0.2/MSDK/plf/GD32VW55x_standard_peripheral/Source\gd32vw55x_gpio.c ****     \param[in]  gpio_periph: GPIOx(x = A,B,C)
 182:C:/Users/stapi/OneDrive/Desktop/GD32VW553/GD32VW55X_Wifi_BLE_SDK/GD32VW55x_RELEASE_V1.0.2/MSDK/plf/GD32VW55x_standard_peripheral/Source\gd32vw55x_gpio.c ****                 only one parameter can be selected which is shown as below:
 183:C:/Users/stapi/OneDrive/Desktop/GD32VW553/GD32VW55X_Wifi_BLE_SDK/GD32VW55x_RELEASE_V1.0.2/MSDK/plf/GD32VW55x_standard_peripheral/Source\gd32vw55x_gpio.c ****       \arg        GPIOx(x = A,B,C)
 184:C:/Users/stapi/OneDrive/Desktop/GD32VW553/GD32VW55X_Wifi_BLE_SDK/GD32VW55x_RELEASE_V1.0.2/MSDK/plf/GD32VW55x_standard_peripheral/Source\gd32vw55x_gpio.c ****     \param[in]  pin: GPIO pin
 185:C:/Users/stapi/OneDrive/Desktop/GD32VW553/GD32VW55X_Wifi_BLE_SDK/GD32VW55x_RELEASE_V1.0.2/MSDK/plf/GD32VW55x_standard_peripheral/Source\gd32vw55x_gpio.c ****                 one or more parameters can be selected which are shown as below:
 186:C:/Users/stapi/OneDrive/Desktop/GD32VW553/GD32VW55X_Wifi_BLE_SDK/GD32VW55x_RELEASE_V1.0.2/MSDK/plf/GD32VW55x_standard_peripheral/Source\gd32vw55x_gpio.c ****       \arg        GPIO_PIN_x(x=0..15), GPIO_PIN_ALL
 187:C:/Users/stapi/OneDrive/Desktop/GD32VW553/GD32VW55X_Wifi_BLE_SDK/GD32VW55x_RELEASE_V1.0.2/MSDK/plf/GD32VW55x_standard_peripheral/Source\gd32vw55x_gpio.c ****     \param[out] none
 188:C:/Users/stapi/OneDrive/Desktop/GD32VW553/GD32VW55X_Wifi_BLE_SDK/GD32VW55x_RELEASE_V1.0.2/MSDK/plf/GD32VW55x_standard_peripheral/Source\gd32vw55x_gpio.c ****     \retval     none
 189:C:/Users/stapi/OneDrive/Desktop/GD32VW553/GD32VW55X_Wifi_BLE_SDK/GD32VW55x_RELEASE_V1.0.2/MSDK/plf/GD32VW55x_standard_peripheral/Source\gd32vw55x_gpio.c **** */
 190:C:/Users/stapi/OneDrive/Desktop/GD32VW553/GD32VW55X_Wifi_BLE_SDK/GD32VW55x_RELEASE_V1.0.2/MSDK/plf/GD32VW55x_standard_peripheral/Source\gd32vw55x_gpio.c **** void gpio_bit_reset(uint32_t gpio_periph, uint32_t pin)
 191:C:/Users/stapi/OneDrive/Desktop/GD32VW553/GD32VW55X_Wifi_BLE_SDK/GD32VW55x_RELEASE_V1.0.2/MSDK/plf/GD32VW55x_standard_peripheral/Source\gd32vw55x_gpio.c **** {
 271              		.loc 1 191 1 is_stmt 1
 272              		.cfi_startproc
 273              	.LVL28:
 192:C:/Users/stapi/OneDrive/Desktop/GD32VW553/GD32VW55X_Wifi_BLE_SDK/GD32VW55x_RELEASE_V1.0.2/MSDK/plf/GD32VW55x_standard_peripheral/Source\gd32vw55x_gpio.c ****     GPIO_BC(gpio_periph) = (uint32_t)pin;
 274              		.loc 1 192 5
 275              		.loc 1 192 26 is_stmt 0
 276 0000 0CD5     		sw	a1,40(a0)
 193:C:/Users/stapi/OneDrive/Desktop/GD32VW553/GD32VW55X_Wifi_BLE_SDK/GD32VW55x_RELEASE_V1.0.2/MSDK/plf/GD32VW55x_standard_peripheral/Source\gd32vw55x_gpio.c **** }
 277              		.loc 1 193 1
 278 0002 8280     		ret
 279              		.cfi_endproc
 280              	.LFE369:
 282              		.section	.text.gpio_bit_write,"ax",@progbits
 283              		.align	1
 284              		.globl	gpio_bit_write
 286              	gpio_bit_write:
 287              	.LFB370:
 194:C:/Users/stapi/OneDrive/Desktop/GD32VW553/GD32VW55X_Wifi_BLE_SDK/GD32VW55x_RELEASE_V1.0.2/MSDK/plf/GD32VW55x_standard_peripheral/Source\gd32vw55x_gpio.c **** 
 195:C:/Users/stapi/OneDrive/Desktop/GD32VW553/GD32VW55X_Wifi_BLE_SDK/GD32VW55x_RELEASE_V1.0.2/MSDK/plf/GD32VW55x_standard_peripheral/Source\gd32vw55x_gpio.c **** /*!
 196:C:/Users/stapi/OneDrive/Desktop/GD32VW553/GD32VW55X_Wifi_BLE_SDK/GD32VW55x_RELEASE_V1.0.2/MSDK/plf/GD32VW55x_standard_peripheral/Source\gd32vw55x_gpio.c ****     \brief      write data to the specified GPIO pin
 197:C:/Users/stapi/OneDrive/Desktop/GD32VW553/GD32VW55X_Wifi_BLE_SDK/GD32VW55x_RELEASE_V1.0.2/MSDK/plf/GD32VW55x_standard_peripheral/Source\gd32vw55x_gpio.c ****     \param[in]  gpio_periph: GPIOx(x = A,B,C)
 198:C:/Users/stapi/OneDrive/Desktop/GD32VW553/GD32VW55X_Wifi_BLE_SDK/GD32VW55x_RELEASE_V1.0.2/MSDK/plf/GD32VW55x_standard_peripheral/Source\gd32vw55x_gpio.c ****                 only one parameter can be selected which is shown as below:
 199:C:/Users/stapi/OneDrive/Desktop/GD32VW553/GD32VW55X_Wifi_BLE_SDK/GD32VW55x_RELEASE_V1.0.2/MSDK/plf/GD32VW55x_standard_peripheral/Source\gd32vw55x_gpio.c ****       \arg        GPIOx(x = A,B,C)
 200:C:/Users/stapi/OneDrive/Desktop/GD32VW553/GD32VW55X_Wifi_BLE_SDK/GD32VW55x_RELEASE_V1.0.2/MSDK/plf/GD32VW55x_standard_peripheral/Source\gd32vw55x_gpio.c ****     \param[in]  pin: GPIO pin
 201:C:/Users/stapi/OneDrive/Desktop/GD32VW553/GD32VW55X_Wifi_BLE_SDK/GD32VW55x_RELEASE_V1.0.2/MSDK/plf/GD32VW55x_standard_peripheral/Source\gd32vw55x_gpio.c ****                 one or more parameters can be selected which are shown as below:
 202:C:/Users/stapi/OneDrive/Desktop/GD32VW553/GD32VW55X_Wifi_BLE_SDK/GD32VW55x_RELEASE_V1.0.2/MSDK/plf/GD32VW55x_standard_peripheral/Source\gd32vw55x_gpio.c ****       \arg        GPIO_PIN_x(x=0..15), GPIO_PIN_ALL
 203:C:/Users/stapi/OneDrive/Desktop/GD32VW553/GD32VW55X_Wifi_BLE_SDK/GD32VW55x_RELEASE_V1.0.2/MSDK/plf/GD32VW55x_standard_peripheral/Source\gd32vw55x_gpio.c ****     \param[in]  bit_value: SET or RESET
 204:C:/Users/stapi/OneDrive/Desktop/GD32VW553/GD32VW55X_Wifi_BLE_SDK/GD32VW55x_RELEASE_V1.0.2/MSDK/plf/GD32VW55x_standard_peripheral/Source\gd32vw55x_gpio.c ****                 only one parameter can be selected which is shown as below:
 205:C:/Users/stapi/OneDrive/Desktop/GD32VW553/GD32VW55X_Wifi_BLE_SDK/GD32VW55x_RELEASE_V1.0.2/MSDK/plf/GD32VW55x_standard_peripheral/Source\gd32vw55x_gpio.c ****       \arg        RESET: clear the port pin
 206:C:/Users/stapi/OneDrive/Desktop/GD32VW553/GD32VW55X_Wifi_BLE_SDK/GD32VW55x_RELEASE_V1.0.2/MSDK/plf/GD32VW55x_standard_peripheral/Source\gd32vw55x_gpio.c ****       \arg        SET: set the port pin
 207:C:/Users/stapi/OneDrive/Desktop/GD32VW553/GD32VW55X_Wifi_BLE_SDK/GD32VW55x_RELEASE_V1.0.2/MSDK/plf/GD32VW55x_standard_peripheral/Source\gd32vw55x_gpio.c ****     \param[out] none
 208:C:/Users/stapi/OneDrive/Desktop/GD32VW553/GD32VW55X_Wifi_BLE_SDK/GD32VW55x_RELEASE_V1.0.2/MSDK/plf/GD32VW55x_standard_peripheral/Source\gd32vw55x_gpio.c ****     \retval     none
 209:C:/Users/stapi/OneDrive/Desktop/GD32VW553/GD32VW55X_Wifi_BLE_SDK/GD32VW55x_RELEASE_V1.0.2/MSDK/plf/GD32VW55x_standard_peripheral/Source\gd32vw55x_gpio.c **** */
 210:C:/Users/stapi/OneDrive/Desktop/GD32VW553/GD32VW55X_Wifi_BLE_SDK/GD32VW55x_RELEASE_V1.0.2/MSDK/plf/GD32VW55x_standard_peripheral/Source\gd32vw55x_gpio.c **** void gpio_bit_write(uint32_t gpio_periph, uint32_t pin, bit_status bit_value)
 211:C:/Users/stapi/OneDrive/Desktop/GD32VW553/GD32VW55X_Wifi_BLE_SDK/GD32VW55x_RELEASE_V1.0.2/MSDK/plf/GD32VW55x_standard_peripheral/Source\gd32vw55x_gpio.c **** {
 288              		.loc 1 211 1 is_stmt 1
 289              		.cfi_startproc
 290              	.LVL29:
 212:C:/Users/stapi/OneDrive/Desktop/GD32VW553/GD32VW55X_Wifi_BLE_SDK/GD32VW55x_RELEASE_V1.0.2/MSDK/plf/GD32VW55x_standard_peripheral/Source\gd32vw55x_gpio.c ****     if(RESET != bit_value) {
 291              		.loc 1 212 5
 292              		.loc 1 212 7 is_stmt 0
 293 0000 19C2     		beq	a2,zero,.L28
 213:C:/Users/stapi/OneDrive/Desktop/GD32VW553/GD32VW55X_Wifi_BLE_SDK/GD32VW55x_RELEASE_V1.0.2/MSDK/plf/GD32VW55x_standard_peripheral/Source\gd32vw55x_gpio.c ****         GPIO_BOP(gpio_periph) = (uint32_t)pin;
 294              		.loc 1 213 9 is_stmt 1
 295              		.loc 1 213 31 is_stmt 0
 296 0002 0CCD     		sw	a1,24(a0)
 297 0004 8280     		ret
 298              	.L28:
 214:C:/Users/stapi/OneDrive/Desktop/GD32VW553/GD32VW55X_Wifi_BLE_SDK/GD32VW55x_RELEASE_V1.0.2/MSDK/plf/GD32VW55x_standard_peripheral/Source\gd32vw55x_gpio.c ****     } else {
 215:C:/Users/stapi/OneDrive/Desktop/GD32VW553/GD32VW55X_Wifi_BLE_SDK/GD32VW55x_RELEASE_V1.0.2/MSDK/plf/GD32VW55x_standard_peripheral/Source\gd32vw55x_gpio.c ****         GPIO_BC(gpio_periph) = (uint32_t)pin;
 299              		.loc 1 215 9 is_stmt 1
 300              		.loc 1 215 30 is_stmt 0
 301 0006 0CD5     		sw	a1,40(a0)
 216:C:/Users/stapi/OneDrive/Desktop/GD32VW553/GD32VW55X_Wifi_BLE_SDK/GD32VW55x_RELEASE_V1.0.2/MSDK/plf/GD32VW55x_standard_peripheral/Source\gd32vw55x_gpio.c ****     }
 217:C:/Users/stapi/OneDrive/Desktop/GD32VW553/GD32VW55X_Wifi_BLE_SDK/GD32VW55x_RELEASE_V1.0.2/MSDK/plf/GD32VW55x_standard_peripheral/Source\gd32vw55x_gpio.c **** }
 302              		.loc 1 217 1
 303 0008 8280     		ret
 304              		.cfi_endproc
 305              	.LFE370:
 307              		.section	.text.gpio_port_write,"ax",@progbits
 308              		.align	1
 309              		.globl	gpio_port_write
 311              	gpio_port_write:
 312              	.LFB371:
 218:C:/Users/stapi/OneDrive/Desktop/GD32VW553/GD32VW55X_Wifi_BLE_SDK/GD32VW55x_RELEASE_V1.0.2/MSDK/plf/GD32VW55x_standard_peripheral/Source\gd32vw55x_gpio.c **** 
 219:C:/Users/stapi/OneDrive/Desktop/GD32VW553/GD32VW55X_Wifi_BLE_SDK/GD32VW55x_RELEASE_V1.0.2/MSDK/plf/GD32VW55x_standard_peripheral/Source\gd32vw55x_gpio.c **** /*!
 220:C:/Users/stapi/OneDrive/Desktop/GD32VW553/GD32VW55X_Wifi_BLE_SDK/GD32VW55x_RELEASE_V1.0.2/MSDK/plf/GD32VW55x_standard_peripheral/Source\gd32vw55x_gpio.c ****     \brief      write data to the specified GPIO port
 221:C:/Users/stapi/OneDrive/Desktop/GD32VW553/GD32VW55X_Wifi_BLE_SDK/GD32VW55x_RELEASE_V1.0.2/MSDK/plf/GD32VW55x_standard_peripheral/Source\gd32vw55x_gpio.c ****     \param[in]  gpio_periph: GPIOx(x = A,B,C)
 222:C:/Users/stapi/OneDrive/Desktop/GD32VW553/GD32VW55X_Wifi_BLE_SDK/GD32VW55x_RELEASE_V1.0.2/MSDK/plf/GD32VW55x_standard_peripheral/Source\gd32vw55x_gpio.c ****                 only one parameter can be selected which is shown as below:
 223:C:/Users/stapi/OneDrive/Desktop/GD32VW553/GD32VW55X_Wifi_BLE_SDK/GD32VW55x_RELEASE_V1.0.2/MSDK/plf/GD32VW55x_standard_peripheral/Source\gd32vw55x_gpio.c ****       \arg        GPIOx(x = A,B,C)
 224:C:/Users/stapi/OneDrive/Desktop/GD32VW553/GD32VW55X_Wifi_BLE_SDK/GD32VW55x_RELEASE_V1.0.2/MSDK/plf/GD32VW55x_standard_peripheral/Source\gd32vw55x_gpio.c ****     \param[in]  data: specify the value to be written to the port output control register
 225:C:/Users/stapi/OneDrive/Desktop/GD32VW553/GD32VW55X_Wifi_BLE_SDK/GD32VW55x_RELEASE_V1.0.2/MSDK/plf/GD32VW55x_standard_peripheral/Source\gd32vw55x_gpio.c ****     \param[out] none
 226:C:/Users/stapi/OneDrive/Desktop/GD32VW553/GD32VW55X_Wifi_BLE_SDK/GD32VW55x_RELEASE_V1.0.2/MSDK/plf/GD32VW55x_standard_peripheral/Source\gd32vw55x_gpio.c ****     \retval     none
 227:C:/Users/stapi/OneDrive/Desktop/GD32VW553/GD32VW55X_Wifi_BLE_SDK/GD32VW55x_RELEASE_V1.0.2/MSDK/plf/GD32VW55x_standard_peripheral/Source\gd32vw55x_gpio.c **** */
 228:C:/Users/stapi/OneDrive/Desktop/GD32VW553/GD32VW55X_Wifi_BLE_SDK/GD32VW55x_RELEASE_V1.0.2/MSDK/plf/GD32VW55x_standard_peripheral/Source\gd32vw55x_gpio.c **** void gpio_port_write(uint32_t gpio_periph, uint16_t data)
 229:C:/Users/stapi/OneDrive/Desktop/GD32VW553/GD32VW55X_Wifi_BLE_SDK/GD32VW55x_RELEASE_V1.0.2/MSDK/plf/GD32VW55x_standard_peripheral/Source\gd32vw55x_gpio.c **** {
 313              		.loc 1 229 1 is_stmt 1
 314              		.cfi_startproc
 315              	.LVL30:
 230:C:/Users/stapi/OneDrive/Desktop/GD32VW553/GD32VW55X_Wifi_BLE_SDK/GD32VW55x_RELEASE_V1.0.2/MSDK/plf/GD32VW55x_standard_peripheral/Source\gd32vw55x_gpio.c ****     GPIO_OCTL(gpio_periph) = (uint32_t)data;
 316              		.loc 1 230 5
 317              		.loc 1 230 28 is_stmt 0
 318 0000 4CC9     		sw	a1,20(a0)
 231:C:/Users/stapi/OneDrive/Desktop/GD32VW553/GD32VW55X_Wifi_BLE_SDK/GD32VW55x_RELEASE_V1.0.2/MSDK/plf/GD32VW55x_standard_peripheral/Source\gd32vw55x_gpio.c **** }
 319              		.loc 1 231 1
 320 0002 8280     		ret
 321              		.cfi_endproc
 322              	.LFE371:
 324              		.section	.text.gpio_input_bit_get,"ax",@progbits
 325              		.align	1
 326              		.globl	gpio_input_bit_get
 328              	gpio_input_bit_get:
 329              	.LFB372:
 232:C:/Users/stapi/OneDrive/Desktop/GD32VW553/GD32VW55X_Wifi_BLE_SDK/GD32VW55x_RELEASE_V1.0.2/MSDK/plf/GD32VW55x_standard_peripheral/Source\gd32vw55x_gpio.c **** 
 233:C:/Users/stapi/OneDrive/Desktop/GD32VW553/GD32VW55X_Wifi_BLE_SDK/GD32VW55x_RELEASE_V1.0.2/MSDK/plf/GD32VW55x_standard_peripheral/Source\gd32vw55x_gpio.c **** /*!
 234:C:/Users/stapi/OneDrive/Desktop/GD32VW553/GD32VW55X_Wifi_BLE_SDK/GD32VW55x_RELEASE_V1.0.2/MSDK/plf/GD32VW55x_standard_peripheral/Source\gd32vw55x_gpio.c ****     \brief      get GPIO pin input status
 235:C:/Users/stapi/OneDrive/Desktop/GD32VW553/GD32VW55X_Wifi_BLE_SDK/GD32VW55x_RELEASE_V1.0.2/MSDK/plf/GD32VW55x_standard_peripheral/Source\gd32vw55x_gpio.c ****     \param[in]  gpio_periph: GPIOx(x = A,B,C)
 236:C:/Users/stapi/OneDrive/Desktop/GD32VW553/GD32VW55X_Wifi_BLE_SDK/GD32VW55x_RELEASE_V1.0.2/MSDK/plf/GD32VW55x_standard_peripheral/Source\gd32vw55x_gpio.c ****                 only one parameter can be selected which is shown as below:
 237:C:/Users/stapi/OneDrive/Desktop/GD32VW553/GD32VW55X_Wifi_BLE_SDK/GD32VW55x_RELEASE_V1.0.2/MSDK/plf/GD32VW55x_standard_peripheral/Source\gd32vw55x_gpio.c ****       \arg        GPIOx(x = A,B,C)
 238:C:/Users/stapi/OneDrive/Desktop/GD32VW553/GD32VW55X_Wifi_BLE_SDK/GD32VW55x_RELEASE_V1.0.2/MSDK/plf/GD32VW55x_standard_peripheral/Source\gd32vw55x_gpio.c ****     \param[in]  pin: GPIO pin
 239:C:/Users/stapi/OneDrive/Desktop/GD32VW553/GD32VW55X_Wifi_BLE_SDK/GD32VW55x_RELEASE_V1.0.2/MSDK/plf/GD32VW55x_standard_peripheral/Source\gd32vw55x_gpio.c ****                 one or more parameters can be selected which are shown as below:
 240:C:/Users/stapi/OneDrive/Desktop/GD32VW553/GD32VW55X_Wifi_BLE_SDK/GD32VW55x_RELEASE_V1.0.2/MSDK/plf/GD32VW55x_standard_peripheral/Source\gd32vw55x_gpio.c ****       \arg        GPIO_PIN_x(x=0..15), GPIO_PIN_ALL
 241:C:/Users/stapi/OneDrive/Desktop/GD32VW553/GD32VW55X_Wifi_BLE_SDK/GD32VW55x_RELEASE_V1.0.2/MSDK/plf/GD32VW55x_standard_peripheral/Source\gd32vw55x_gpio.c ****     \param[out] none
 242:C:/Users/stapi/OneDrive/Desktop/GD32VW553/GD32VW55X_Wifi_BLE_SDK/GD32VW55x_RELEASE_V1.0.2/MSDK/plf/GD32VW55x_standard_peripheral/Source\gd32vw55x_gpio.c ****     \retval     SET or RESET
 243:C:/Users/stapi/OneDrive/Desktop/GD32VW553/GD32VW55X_Wifi_BLE_SDK/GD32VW55x_RELEASE_V1.0.2/MSDK/plf/GD32VW55x_standard_peripheral/Source\gd32vw55x_gpio.c **** */
 244:C:/Users/stapi/OneDrive/Desktop/GD32VW553/GD32VW55X_Wifi_BLE_SDK/GD32VW55x_RELEASE_V1.0.2/MSDK/plf/GD32VW55x_standard_peripheral/Source\gd32vw55x_gpio.c **** FlagStatus gpio_input_bit_get(uint32_t gpio_periph, uint32_t pin)
 245:C:/Users/stapi/OneDrive/Desktop/GD32VW553/GD32VW55X_Wifi_BLE_SDK/GD32VW55x_RELEASE_V1.0.2/MSDK/plf/GD32VW55x_standard_peripheral/Source\gd32vw55x_gpio.c **** {
 330              		.loc 1 245 1 is_stmt 1
 331              		.cfi_startproc
 332              	.LVL31:
 246:C:/Users/stapi/OneDrive/Desktop/GD32VW553/GD32VW55X_Wifi_BLE_SDK/GD32VW55x_RELEASE_V1.0.2/MSDK/plf/GD32VW55x_standard_peripheral/Source\gd32vw55x_gpio.c ****     if((uint32_t)RESET != (GPIO_ISTAT(gpio_periph) & (pin))) {
 333              		.loc 1 246 5
 334              		.loc 1 246 28 is_stmt 0
 335 0000 0849     		lw	a0,16(a0)
 336              	.LVL32:
 337              		.loc 1 246 52
 338 0002 6D8D     		and	a0,a0,a1
 247:C:/Users/stapi/OneDrive/Desktop/GD32VW553/GD32VW55X_Wifi_BLE_SDK/GD32VW55x_RELEASE_V1.0.2/MSDK/plf/GD32VW55x_standard_peripheral/Source\gd32vw55x_gpio.c ****         return SET;
 248:C:/Users/stapi/OneDrive/Desktop/GD32VW553/GD32VW55X_Wifi_BLE_SDK/GD32VW55x_RELEASE_V1.0.2/MSDK/plf/GD32VW55x_standard_peripheral/Source\gd32vw55x_gpio.c ****     } else {
 249:C:/Users/stapi/OneDrive/Desktop/GD32VW553/GD32VW55X_Wifi_BLE_SDK/GD32VW55x_RELEASE_V1.0.2/MSDK/plf/GD32VW55x_standard_peripheral/Source\gd32vw55x_gpio.c ****         return RESET;
 250:C:/Users/stapi/OneDrive/Desktop/GD32VW553/GD32VW55X_Wifi_BLE_SDK/GD32VW55x_RELEASE_V1.0.2/MSDK/plf/GD32VW55x_standard_peripheral/Source\gd32vw55x_gpio.c ****     }
 251:C:/Users/stapi/OneDrive/Desktop/GD32VW553/GD32VW55X_Wifi_BLE_SDK/GD32VW55x_RELEASE_V1.0.2/MSDK/plf/GD32VW55x_standard_peripheral/Source\gd32vw55x_gpio.c **** }
 339              		.loc 1 251 1
 340 0004 3335A000 		snez	a0,a0
 341 0008 8280     		ret
 342              		.cfi_endproc
 343              	.LFE372:
 345              		.section	.text.gpio_input_port_get,"ax",@progbits
 346              		.align	1
 347              		.globl	gpio_input_port_get
 349              	gpio_input_port_get:
 350              	.LFB373:
 252:C:/Users/stapi/OneDrive/Desktop/GD32VW553/GD32VW55X_Wifi_BLE_SDK/GD32VW55x_RELEASE_V1.0.2/MSDK/plf/GD32VW55x_standard_peripheral/Source\gd32vw55x_gpio.c **** 
 253:C:/Users/stapi/OneDrive/Desktop/GD32VW553/GD32VW55X_Wifi_BLE_SDK/GD32VW55x_RELEASE_V1.0.2/MSDK/plf/GD32VW55x_standard_peripheral/Source\gd32vw55x_gpio.c **** /*!
 254:C:/Users/stapi/OneDrive/Desktop/GD32VW553/GD32VW55X_Wifi_BLE_SDK/GD32VW55x_RELEASE_V1.0.2/MSDK/plf/GD32VW55x_standard_peripheral/Source\gd32vw55x_gpio.c ****     \brief      get GPIO port input status
 255:C:/Users/stapi/OneDrive/Desktop/GD32VW553/GD32VW55X_Wifi_BLE_SDK/GD32VW55x_RELEASE_V1.0.2/MSDK/plf/GD32VW55x_standard_peripheral/Source\gd32vw55x_gpio.c ****     \param[in]  gpio_periph: GPIOx(x = A,B,C)
 256:C:/Users/stapi/OneDrive/Desktop/GD32VW553/GD32VW55X_Wifi_BLE_SDK/GD32VW55x_RELEASE_V1.0.2/MSDK/plf/GD32VW55x_standard_peripheral/Source\gd32vw55x_gpio.c ****                 only one parameter can be selected which is shown as below:
 257:C:/Users/stapi/OneDrive/Desktop/GD32VW553/GD32VW55X_Wifi_BLE_SDK/GD32VW55x_RELEASE_V1.0.2/MSDK/plf/GD32VW55x_standard_peripheral/Source\gd32vw55x_gpio.c ****       \arg        GPIOx(x = A,B,C)
 258:C:/Users/stapi/OneDrive/Desktop/GD32VW553/GD32VW55X_Wifi_BLE_SDK/GD32VW55x_RELEASE_V1.0.2/MSDK/plf/GD32VW55x_standard_peripheral/Source\gd32vw55x_gpio.c ****     \param[out] none
 259:C:/Users/stapi/OneDrive/Desktop/GD32VW553/GD32VW55X_Wifi_BLE_SDK/GD32VW55x_RELEASE_V1.0.2/MSDK/plf/GD32VW55x_standard_peripheral/Source\gd32vw55x_gpio.c ****     \retval     state of GPIO all pins:0x0000-0xFFFF
 260:C:/Users/stapi/OneDrive/Desktop/GD32VW553/GD32VW55X_Wifi_BLE_SDK/GD32VW55x_RELEASE_V1.0.2/MSDK/plf/GD32VW55x_standard_peripheral/Source\gd32vw55x_gpio.c **** */
 261:C:/Users/stapi/OneDrive/Desktop/GD32VW553/GD32VW55X_Wifi_BLE_SDK/GD32VW55x_RELEASE_V1.0.2/MSDK/plf/GD32VW55x_standard_peripheral/Source\gd32vw55x_gpio.c **** uint16_t gpio_input_port_get(uint32_t gpio_periph)
 262:C:/Users/stapi/OneDrive/Desktop/GD32VW553/GD32VW55X_Wifi_BLE_SDK/GD32VW55x_RELEASE_V1.0.2/MSDK/plf/GD32VW55x_standard_peripheral/Source\gd32vw55x_gpio.c **** {
 351              		.loc 1 262 1 is_stmt 1
 352              		.cfi_startproc
 353              	.LVL33:
 263:C:/Users/stapi/OneDrive/Desktop/GD32VW553/GD32VW55X_Wifi_BLE_SDK/GD32VW55x_RELEASE_V1.0.2/MSDK/plf/GD32VW55x_standard_peripheral/Source\gd32vw55x_gpio.c ****     return ((uint16_t)GPIO_ISTAT(gpio_periph));
 354              		.loc 1 263 5
 355              		.loc 1 263 23 is_stmt 0
 356 0000 0849     		lw	a0,16(a0)
 357              	.LVL34:
 264:C:/Users/stapi/OneDrive/Desktop/GD32VW553/GD32VW55X_Wifi_BLE_SDK/GD32VW55x_RELEASE_V1.0.2/MSDK/plf/GD32VW55x_standard_peripheral/Source\gd32vw55x_gpio.c **** }
 358              		.loc 1 264 1
 359 0002 33450508 		zext.h	a0,a0
 360 0006 8280     		ret
 361              		.cfi_endproc
 362              	.LFE373:
 364              		.section	.text.gpio_output_bit_get,"ax",@progbits
 365              		.align	1
 366              		.globl	gpio_output_bit_get
 368              	gpio_output_bit_get:
 369              	.LFB374:
 265:C:/Users/stapi/OneDrive/Desktop/GD32VW553/GD32VW55X_Wifi_BLE_SDK/GD32VW55x_RELEASE_V1.0.2/MSDK/plf/GD32VW55x_standard_peripheral/Source\gd32vw55x_gpio.c **** 
 266:C:/Users/stapi/OneDrive/Desktop/GD32VW553/GD32VW55X_Wifi_BLE_SDK/GD32VW55x_RELEASE_V1.0.2/MSDK/plf/GD32VW55x_standard_peripheral/Source\gd32vw55x_gpio.c **** /*!
 267:C:/Users/stapi/OneDrive/Desktop/GD32VW553/GD32VW55X_Wifi_BLE_SDK/GD32VW55x_RELEASE_V1.0.2/MSDK/plf/GD32VW55x_standard_peripheral/Source\gd32vw55x_gpio.c ****     \brief      get GPIO pin output status
 268:C:/Users/stapi/OneDrive/Desktop/GD32VW553/GD32VW55X_Wifi_BLE_SDK/GD32VW55x_RELEASE_V1.0.2/MSDK/plf/GD32VW55x_standard_peripheral/Source\gd32vw55x_gpio.c ****     \param[in]  gpio_periph: GPIOx(x = A,B,C)
 269:C:/Users/stapi/OneDrive/Desktop/GD32VW553/GD32VW55X_Wifi_BLE_SDK/GD32VW55x_RELEASE_V1.0.2/MSDK/plf/GD32VW55x_standard_peripheral/Source\gd32vw55x_gpio.c ****                 only one parameter can be selected which is shown as below:
 270:C:/Users/stapi/OneDrive/Desktop/GD32VW553/GD32VW55X_Wifi_BLE_SDK/GD32VW55x_RELEASE_V1.0.2/MSDK/plf/GD32VW55x_standard_peripheral/Source\gd32vw55x_gpio.c ****       \arg        GPIOx(x = A,B,C)
 271:C:/Users/stapi/OneDrive/Desktop/GD32VW553/GD32VW55X_Wifi_BLE_SDK/GD32VW55x_RELEASE_V1.0.2/MSDK/plf/GD32VW55x_standard_peripheral/Source\gd32vw55x_gpio.c ****     \param[in]  pin: GPIO pin
 272:C:/Users/stapi/OneDrive/Desktop/GD32VW553/GD32VW55X_Wifi_BLE_SDK/GD32VW55x_RELEASE_V1.0.2/MSDK/plf/GD32VW55x_standard_peripheral/Source\gd32vw55x_gpio.c ****                 one or more parameters can be selected which are shown as below:
 273:C:/Users/stapi/OneDrive/Desktop/GD32VW553/GD32VW55X_Wifi_BLE_SDK/GD32VW55x_RELEASE_V1.0.2/MSDK/plf/GD32VW55x_standard_peripheral/Source\gd32vw55x_gpio.c ****       \arg        GPIO_PIN_x(x=0..15), GPIO_PIN_ALL
 274:C:/Users/stapi/OneDrive/Desktop/GD32VW553/GD32VW55X_Wifi_BLE_SDK/GD32VW55x_RELEASE_V1.0.2/MSDK/plf/GD32VW55x_standard_peripheral/Source\gd32vw55x_gpio.c ****     \param[out] none
 275:C:/Users/stapi/OneDrive/Desktop/GD32VW553/GD32VW55X_Wifi_BLE_SDK/GD32VW55x_RELEASE_V1.0.2/MSDK/plf/GD32VW55x_standard_peripheral/Source\gd32vw55x_gpio.c ****     \retval     SET or RESET
 276:C:/Users/stapi/OneDrive/Desktop/GD32VW553/GD32VW55X_Wifi_BLE_SDK/GD32VW55x_RELEASE_V1.0.2/MSDK/plf/GD32VW55x_standard_peripheral/Source\gd32vw55x_gpio.c **** */
 277:C:/Users/stapi/OneDrive/Desktop/GD32VW553/GD32VW55X_Wifi_BLE_SDK/GD32VW55x_RELEASE_V1.0.2/MSDK/plf/GD32VW55x_standard_peripheral/Source\gd32vw55x_gpio.c **** FlagStatus gpio_output_bit_get(uint32_t gpio_periph, uint32_t pin)
 278:C:/Users/stapi/OneDrive/Desktop/GD32VW553/GD32VW55X_Wifi_BLE_SDK/GD32VW55x_RELEASE_V1.0.2/MSDK/plf/GD32VW55x_standard_peripheral/Source\gd32vw55x_gpio.c **** {
 370              		.loc 1 278 1 is_stmt 1
 371              		.cfi_startproc
 372              	.LVL35:
 279:C:/Users/stapi/OneDrive/Desktop/GD32VW553/GD32VW55X_Wifi_BLE_SDK/GD32VW55x_RELEASE_V1.0.2/MSDK/plf/GD32VW55x_standard_peripheral/Source\gd32vw55x_gpio.c ****     if((uint32_t)RESET != (GPIO_OCTL(gpio_periph) & (pin))) {
 373              		.loc 1 279 5
 374              		.loc 1 279 28 is_stmt 0
 375 0000 4849     		lw	a0,20(a0)
 376              	.LVL36:
 377              		.loc 1 279 51
 378 0002 6D8D     		and	a0,a0,a1
 280:C:/Users/stapi/OneDrive/Desktop/GD32VW553/GD32VW55X_Wifi_BLE_SDK/GD32VW55x_RELEASE_V1.0.2/MSDK/plf/GD32VW55x_standard_peripheral/Source\gd32vw55x_gpio.c ****         return SET;
 281:C:/Users/stapi/OneDrive/Desktop/GD32VW553/GD32VW55X_Wifi_BLE_SDK/GD32VW55x_RELEASE_V1.0.2/MSDK/plf/GD32VW55x_standard_peripheral/Source\gd32vw55x_gpio.c ****     } else {
 282:C:/Users/stapi/OneDrive/Desktop/GD32VW553/GD32VW55X_Wifi_BLE_SDK/GD32VW55x_RELEASE_V1.0.2/MSDK/plf/GD32VW55x_standard_peripheral/Source\gd32vw55x_gpio.c ****         return RESET;
 283:C:/Users/stapi/OneDrive/Desktop/GD32VW553/GD32VW55X_Wifi_BLE_SDK/GD32VW55x_RELEASE_V1.0.2/MSDK/plf/GD32VW55x_standard_peripheral/Source\gd32vw55x_gpio.c ****     }
 284:C:/Users/stapi/OneDrive/Desktop/GD32VW553/GD32VW55X_Wifi_BLE_SDK/GD32VW55x_RELEASE_V1.0.2/MSDK/plf/GD32VW55x_standard_peripheral/Source\gd32vw55x_gpio.c **** }
 379              		.loc 1 284 1
 380 0004 3335A000 		snez	a0,a0
 381 0008 8280     		ret
 382              		.cfi_endproc
 383              	.LFE374:
 385              		.section	.text.gpio_output_port_get,"ax",@progbits
 386              		.align	1
 387              		.globl	gpio_output_port_get
 389              	gpio_output_port_get:
 390              	.LFB375:
 285:C:/Users/stapi/OneDrive/Desktop/GD32VW553/GD32VW55X_Wifi_BLE_SDK/GD32VW55x_RELEASE_V1.0.2/MSDK/plf/GD32VW55x_standard_peripheral/Source\gd32vw55x_gpio.c **** 
 286:C:/Users/stapi/OneDrive/Desktop/GD32VW553/GD32VW55X_Wifi_BLE_SDK/GD32VW55x_RELEASE_V1.0.2/MSDK/plf/GD32VW55x_standard_peripheral/Source\gd32vw55x_gpio.c **** /*!
 287:C:/Users/stapi/OneDrive/Desktop/GD32VW553/GD32VW55X_Wifi_BLE_SDK/GD32VW55x_RELEASE_V1.0.2/MSDK/plf/GD32VW55x_standard_peripheral/Source\gd32vw55x_gpio.c ****     \brief      get GPIO port output status
 288:C:/Users/stapi/OneDrive/Desktop/GD32VW553/GD32VW55X_Wifi_BLE_SDK/GD32VW55x_RELEASE_V1.0.2/MSDK/plf/GD32VW55x_standard_peripheral/Source\gd32vw55x_gpio.c ****     \param[in]  gpio_periph: GPIOx(x = A,B,C)
 289:C:/Users/stapi/OneDrive/Desktop/GD32VW553/GD32VW55X_Wifi_BLE_SDK/GD32VW55x_RELEASE_V1.0.2/MSDK/plf/GD32VW55x_standard_peripheral/Source\gd32vw55x_gpio.c ****                 only one parameter can be selected which is shown as below:
 290:C:/Users/stapi/OneDrive/Desktop/GD32VW553/GD32VW55X_Wifi_BLE_SDK/GD32VW55x_RELEASE_V1.0.2/MSDK/plf/GD32VW55x_standard_peripheral/Source\gd32vw55x_gpio.c ****       \arg        GPIOx(x = A,B,C)
 291:C:/Users/stapi/OneDrive/Desktop/GD32VW553/GD32VW55X_Wifi_BLE_SDK/GD32VW55x_RELEASE_V1.0.2/MSDK/plf/GD32VW55x_standard_peripheral/Source\gd32vw55x_gpio.c ****     \param[out] none
 292:C:/Users/stapi/OneDrive/Desktop/GD32VW553/GD32VW55X_Wifi_BLE_SDK/GD32VW55x_RELEASE_V1.0.2/MSDK/plf/GD32VW55x_standard_peripheral/Source\gd32vw55x_gpio.c ****     \retval     state of GPIO all pins:0x0000-0xFFFF
 293:C:/Users/stapi/OneDrive/Desktop/GD32VW553/GD32VW55X_Wifi_BLE_SDK/GD32VW55x_RELEASE_V1.0.2/MSDK/plf/GD32VW55x_standard_peripheral/Source\gd32vw55x_gpio.c **** */
 294:C:/Users/stapi/OneDrive/Desktop/GD32VW553/GD32VW55X_Wifi_BLE_SDK/GD32VW55x_RELEASE_V1.0.2/MSDK/plf/GD32VW55x_standard_peripheral/Source\gd32vw55x_gpio.c **** uint16_t gpio_output_port_get(uint32_t gpio_periph)
 295:C:/Users/stapi/OneDrive/Desktop/GD32VW553/GD32VW55X_Wifi_BLE_SDK/GD32VW55x_RELEASE_V1.0.2/MSDK/plf/GD32VW55x_standard_peripheral/Source\gd32vw55x_gpio.c **** {
 391              		.loc 1 295 1 is_stmt 1
 392              		.cfi_startproc
 393              	.LVL37:
 296:C:/Users/stapi/OneDrive/Desktop/GD32VW553/GD32VW55X_Wifi_BLE_SDK/GD32VW55x_RELEASE_V1.0.2/MSDK/plf/GD32VW55x_standard_peripheral/Source\gd32vw55x_gpio.c ****     return ((uint16_t)GPIO_OCTL(gpio_periph));
 394              		.loc 1 296 5
 395              		.loc 1 296 23 is_stmt 0
 396 0000 4849     		lw	a0,20(a0)
 397              	.LVL38:
 297:C:/Users/stapi/OneDrive/Desktop/GD32VW553/GD32VW55X_Wifi_BLE_SDK/GD32VW55x_RELEASE_V1.0.2/MSDK/plf/GD32VW55x_standard_peripheral/Source\gd32vw55x_gpio.c **** }
 398              		.loc 1 297 1
 399 0002 33450508 		zext.h	a0,a0
 400 0006 8280     		ret
 401              		.cfi_endproc
 402              	.LFE375:
 404              		.section	.text.gpio_af_set,"ax",@progbits
 405              		.align	1
 406              		.globl	gpio_af_set
 408              	gpio_af_set:
 409              	.LFB376:
 298:C:/Users/stapi/OneDrive/Desktop/GD32VW553/GD32VW55X_Wifi_BLE_SDK/GD32VW55x_RELEASE_V1.0.2/MSDK/plf/GD32VW55x_standard_peripheral/Source\gd32vw55x_gpio.c **** 
 299:C:/Users/stapi/OneDrive/Desktop/GD32VW553/GD32VW55X_Wifi_BLE_SDK/GD32VW55x_RELEASE_V1.0.2/MSDK/plf/GD32VW55x_standard_peripheral/Source\gd32vw55x_gpio.c **** /*!
 300:C:/Users/stapi/OneDrive/Desktop/GD32VW553/GD32VW55X_Wifi_BLE_SDK/GD32VW55x_RELEASE_V1.0.2/MSDK/plf/GD32VW55x_standard_peripheral/Source\gd32vw55x_gpio.c ****     \brief      set GPIO alternate function
 301:C:/Users/stapi/OneDrive/Desktop/GD32VW553/GD32VW55X_Wifi_BLE_SDK/GD32VW55x_RELEASE_V1.0.2/MSDK/plf/GD32VW55x_standard_peripheral/Source\gd32vw55x_gpio.c ****     \param[in]  gpio_periph: GPIOx(x = A,B,C)
 302:C:/Users/stapi/OneDrive/Desktop/GD32VW553/GD32VW55X_Wifi_BLE_SDK/GD32VW55x_RELEASE_V1.0.2/MSDK/plf/GD32VW55x_standard_peripheral/Source\gd32vw55x_gpio.c ****                 only one parameter can be selected which is shown as below:
 303:C:/Users/stapi/OneDrive/Desktop/GD32VW553/GD32VW55X_Wifi_BLE_SDK/GD32VW55x_RELEASE_V1.0.2/MSDK/plf/GD32VW55x_standard_peripheral/Source\gd32vw55x_gpio.c ****       \arg        GPIOx(x = A,B,C)
 304:C:/Users/stapi/OneDrive/Desktop/GD32VW553/GD32VW55X_Wifi_BLE_SDK/GD32VW55x_RELEASE_V1.0.2/MSDK/plf/GD32VW55x_standard_peripheral/Source\gd32vw55x_gpio.c ****     \param[in]  alt_func_num: gpio pin af function
 305:C:/Users/stapi/OneDrive/Desktop/GD32VW553/GD32VW55X_Wifi_BLE_SDK/GD32VW55x_RELEASE_V1.0.2/MSDK/plf/GD32VW55x_standard_peripheral/Source\gd32vw55x_gpio.c ****                 only one parameter can be selected which is shown as below:
 306:C:/Users/stapi/OneDrive/Desktop/GD32VW553/GD32VW55X_Wifi_BLE_SDK/GD32VW55x_RELEASE_V1.0.2/MSDK/plf/GD32VW55x_standard_peripheral/Source\gd32vw55x_gpio.c ****       \arg        GPIO_AF_0: USART0, UART1, I2C1, CK_OUT0, SPI, JTAG, CK_OUT1, RTC_REF, IFRP_OUT
 307:C:/Users/stapi/OneDrive/Desktop/GD32VW553/GD32VW55X_Wifi_BLE_SDK/GD32VW55x_RELEASE_V1.0.2/MSDK/plf/GD32VW55x_standard_peripheral/Source\gd32vw55x_gpio.c ****       \arg        GPIO_AF_1: TIMER0, TIMER1
 308:C:/Users/stapi/OneDrive/Desktop/GD32VW553/GD32VW55X_Wifi_BLE_SDK/GD32VW55x_RELEASE_V1.0.2/MSDK/plf/GD32VW55x_standard_peripheral/Source\gd32vw55x_gpio.c ****       \arg        GPIO_AF_2: USART0, TIMER0, TIMER2, SPI
 309:C:/Users/stapi/OneDrive/Desktop/GD32VW553/GD32VW55X_Wifi_BLE_SDK/GD32VW55x_RELEASE_V1.0.2/MSDK/plf/GD32VW55x_standard_peripheral/Source\gd32vw55x_gpio.c ****       \arg        GPIO_AF_3: QSPI, USART1, TIMER0, TIMER1, TIMER2
 310:C:/Users/stapi/OneDrive/Desktop/GD32VW553/GD32VW55X_Wifi_BLE_SDK/GD32VW55x_RELEASE_V1.0.2/MSDK/plf/GD32VW55x_standard_peripheral/Source\gd32vw55x_gpio.c ****       \arg        GPIO_AF_4: UART1, SPI, I2C0, QSPI, I2C1
 311:C:/Users/stapi/OneDrive/Desktop/GD32VW553/GD32VW55X_Wifi_BLE_SDK/GD32VW55x_RELEASE_V1.0.2/MSDK/plf/GD32VW55x_standard_peripheral/Source\gd32vw55x_gpio.c ****       \arg        GPIO_AF_5: SPI, I2C0
 312:C:/Users/stapi/OneDrive/Desktop/GD32VW553/GD32VW55X_Wifi_BLE_SDK/GD32VW55x_RELEASE_V1.0.2/MSDK/plf/GD32VW55x_standard_peripheral/Source\gd32vw55x_gpio.c ****       \arg        GPIO_AF_6: TIMER0, I2C0, SPI, I2C1
 313:C:/Users/stapi/OneDrive/Desktop/GD32VW553/GD32VW55X_Wifi_BLE_SDK/GD32VW55x_RELEASE_V1.0.2/MSDK/plf/GD32VW55x_standard_peripheral/Source\gd32vw55x_gpio.c ****       \arg        GPIO_AF_7: USART0, UART1, TIMER16, SPI
 314:C:/Users/stapi/OneDrive/Desktop/GD32VW553/GD32VW55X_Wifi_BLE_SDK/GD32VW55x_RELEASE_V1.0.2/MSDK/plf/GD32VW55x_standard_peripheral/Source\gd32vw55x_gpio.c ****       \arg        GPIO_AF_8: USART0, UART1, UART2, TIMER0, TIMER2, TIMER15
 315:C:/Users/stapi/OneDrive/Desktop/GD32VW553/GD32VW55X_Wifi_BLE_SDK/GD32VW55x_RELEASE_V1.0.2/MSDK/plf/GD32VW55x_standard_peripheral/Source\gd32vw55x_gpio.c ****       \arg        GPIO_AF_9: RTC, TIMER0, TIMER1, TIMER16, IFRP_OUT
 316:C:/Users/stapi/OneDrive/Desktop/GD32VW553/GD32VW55X_Wifi_BLE_SDK/GD32VW55x_RELEASE_V1.0.2/MSDK/plf/GD32VW55x_standard_peripheral/Source\gd32vw55x_gpio.c ****       \arg        GPIO_AF_10: UART2, TIMER2, TIMER16
 317:C:/Users/stapi/OneDrive/Desktop/GD32VW553/GD32VW55X_Wifi_BLE_SDK/GD32VW55x_RELEASE_V1.0.2/MSDK/plf/GD32VW55x_standard_peripheral/Source\gd32vw55x_gpio.c ****       \arg        GPIO_AF_11: TIMER0, TIMER15
 318:C:/Users/stapi/OneDrive/Desktop/GD32VW553/GD32VW55X_Wifi_BLE_SDK/GD32VW55x_RELEASE_V1.0.2/MSDK/plf/GD32VW55x_standard_peripheral/Source\gd32vw55x_gpio.c ****     \param[in]  pin: GPIO pin
 319:C:/Users/stapi/OneDrive/Desktop/GD32VW553/GD32VW55X_Wifi_BLE_SDK/GD32VW55x_RELEASE_V1.0.2/MSDK/plf/GD32VW55x_standard_peripheral/Source\gd32vw55x_gpio.c ****                 one or more parameters can be selected which are shown as below:
 320:C:/Users/stapi/OneDrive/Desktop/GD32VW553/GD32VW55X_Wifi_BLE_SDK/GD32VW55x_RELEASE_V1.0.2/MSDK/plf/GD32VW55x_standard_peripheral/Source\gd32vw55x_gpio.c ****       \arg        GPIO_PIN_x(x=0..15), GPIO_PIN_ALL
 321:C:/Users/stapi/OneDrive/Desktop/GD32VW553/GD32VW55X_Wifi_BLE_SDK/GD32VW55x_RELEASE_V1.0.2/MSDK/plf/GD32VW55x_standard_peripheral/Source\gd32vw55x_gpio.c ****     \param[out] none
 322:C:/Users/stapi/OneDrive/Desktop/GD32VW553/GD32VW55X_Wifi_BLE_SDK/GD32VW55x_RELEASE_V1.0.2/MSDK/plf/GD32VW55x_standard_peripheral/Source\gd32vw55x_gpio.c ****     \retval     none
 323:C:/Users/stapi/OneDrive/Desktop/GD32VW553/GD32VW55X_Wifi_BLE_SDK/GD32VW55x_RELEASE_V1.0.2/MSDK/plf/GD32VW55x_standard_peripheral/Source\gd32vw55x_gpio.c **** */
 324:C:/Users/stapi/OneDrive/Desktop/GD32VW553/GD32VW55X_Wifi_BLE_SDK/GD32VW55x_RELEASE_V1.0.2/MSDK/plf/GD32VW55x_standard_peripheral/Source\gd32vw55x_gpio.c **** void gpio_af_set(uint32_t gpio_periph, uint32_t alt_func_num, uint32_t pin)
 325:C:/Users/stapi/OneDrive/Desktop/GD32VW553/GD32VW55X_Wifi_BLE_SDK/GD32VW55x_RELEASE_V1.0.2/MSDK/plf/GD32VW55x_standard_peripheral/Source\gd32vw55x_gpio.c **** {
 410              		.loc 1 325 1 is_stmt 1
 411              		.cfi_startproc
 412              	.LVL39:
 326:C:/Users/stapi/OneDrive/Desktop/GD32VW553/GD32VW55X_Wifi_BLE_SDK/GD32VW55x_RELEASE_V1.0.2/MSDK/plf/GD32VW55x_standard_peripheral/Source\gd32vw55x_gpio.c ****     uint16_t i;
 413              		.loc 1 326 5
 327:C:/Users/stapi/OneDrive/Desktop/GD32VW553/GD32VW55X_Wifi_BLE_SDK/GD32VW55x_RELEASE_V1.0.2/MSDK/plf/GD32VW55x_standard_peripheral/Source\gd32vw55x_gpio.c ****     uint32_t afrl, afrh;
 414              		.loc 1 327 5
 328:C:/Users/stapi/OneDrive/Desktop/GD32VW553/GD32VW55X_Wifi_BLE_SDK/GD32VW55x_RELEASE_V1.0.2/MSDK/plf/GD32VW55x_standard_peripheral/Source\gd32vw55x_gpio.c **** 
 329:C:/Users/stapi/OneDrive/Desktop/GD32VW553/GD32VW55X_Wifi_BLE_SDK/GD32VW55x_RELEASE_V1.0.2/MSDK/plf/GD32VW55x_standard_peripheral/Source\gd32vw55x_gpio.c ****     afrl = GPIO_AFSEL0(gpio_periph);
 415              		.loc 1 329 5
 416              		.loc 1 329 10 is_stmt 0
 417 0000 83280502 		lw	a7,32(a0)
 418              	.LVL40:
 330:C:/Users/stapi/OneDrive/Desktop/GD32VW553/GD32VW55X_Wifi_BLE_SDK/GD32VW55x_RELEASE_V1.0.2/MSDK/plf/GD32VW55x_standard_peripheral/Source\gd32vw55x_gpio.c ****     afrh = GPIO_AFSEL1(gpio_periph);
 419              		.loc 1 330 5 is_stmt 1
 420              		.loc 1 330 10 is_stmt 0
 421 0004 03284502 		lw	a6,36(a0)
 422              	.LVL41:
 331:C:/Users/stapi/OneDrive/Desktop/GD32VW553/GD32VW55X_Wifi_BLE_SDK/GD32VW55x_RELEASE_V1.0.2/MSDK/plf/GD32VW55x_standard_peripheral/Source\gd32vw55x_gpio.c **** 
 332:C:/Users/stapi/OneDrive/Desktop/GD32VW553/GD32VW55X_Wifi_BLE_SDK/GD32VW55x_RELEASE_V1.0.2/MSDK/plf/GD32VW55x_standard_peripheral/Source\gd32vw55x_gpio.c ****     for(i = 0U; i < 8U; i++) {
 423              		.loc 1 332 5 is_stmt 1
 424              		.loc 1 332 17
 330:C:/Users/stapi/OneDrive/Desktop/GD32VW553/GD32VW55X_Wifi_BLE_SDK/GD32VW55x_RELEASE_V1.0.2/MSDK/plf/GD32VW55x_standard_peripheral/Source\gd32vw55x_gpio.c ****     afrh = GPIO_AFSEL1(gpio_periph);
 425              		.loc 1 330 10 is_stmt 0
 426 0008 8147     		li	a5,0
 333:C:/Users/stapi/OneDrive/Desktop/GD32VW553/GD32VW55X_Wifi_BLE_SDK/GD32VW55x_RELEASE_V1.0.2/MSDK/plf/GD32VW55x_standard_peripheral/Source\gd32vw55x_gpio.c ****         if((1U << i) & pin) {
 334:C:/Users/stapi/OneDrive/Desktop/GD32VW553/GD32VW55X_Wifi_BLE_SDK/GD32VW55x_RELEASE_V1.0.2/MSDK/plf/GD32VW55x_standard_peripheral/Source\gd32vw55x_gpio.c ****             /* clear the specified pin alternate function bits */
 335:C:/Users/stapi/OneDrive/Desktop/GD32VW553/GD32VW55X_Wifi_BLE_SDK/GD32VW55x_RELEASE_V1.0.2/MSDK/plf/GD32VW55x_standard_peripheral/Source\gd32vw55x_gpio.c ****             afrl &= ~GPIO_AFR_MASK(i);
 427              		.loc 1 335 22
 428 000a BD4E     		li	t4,15
 332:C:/Users/stapi/OneDrive/Desktop/GD32VW553/GD32VW55X_Wifi_BLE_SDK/GD32VW55x_RELEASE_V1.0.2/MSDK/plf/GD32VW55x_standard_peripheral/Source\gd32vw55x_gpio.c ****         if((1U << i) & pin) {
 429              		.loc 1 332 5
 430 000c 214E     		li	t3,8
 431              	.LVL42:
 432              	.L37:
 333:C:/Users/stapi/OneDrive/Desktop/GD32VW553/GD32VW55X_Wifi_BLE_SDK/GD32VW55x_RELEASE_V1.0.2/MSDK/plf/GD32VW55x_standard_peripheral/Source\gd32vw55x_gpio.c ****         if((1U << i) & pin) {
 433              		.loc 1 333 9 is_stmt 1
 434              		.loc 1 335 13
 435 000e 13972700 		slli	a4,a5,2
 333:C:/Users/stapi/OneDrive/Desktop/GD32VW553/GD32VW55X_Wifi_BLE_SDK/GD32VW55x_RELEASE_V1.0.2/MSDK/plf/GD32VW55x_standard_peripheral/Source\gd32vw55x_gpio.c ****         if((1U << i) & pin) {
 436              		.loc 1 333 16 is_stmt 0
 437 0012 B316F028 		bset	a3,x0,a5
 333:C:/Users/stapi/OneDrive/Desktop/GD32VW553/GD32VW55X_Wifi_BLE_SDK/GD32VW55x_RELEASE_V1.0.2/MSDK/plf/GD32VW55x_standard_peripheral/Source\gd32vw55x_gpio.c ****         if((1U << i) & pin) {
 438              		.loc 1 333 22
 439 0016 F18E     		and	a3,a3,a2
 440              		.loc 1 335 22
 441 0018 3393EE00 		sll	t1,t4,a4
 332:C:/Users/stapi/OneDrive/Desktop/GD32VW553/GD32VW55X_Wifi_BLE_SDK/GD32VW55x_RELEASE_V1.0.2/MSDK/plf/GD32VW55x_standard_peripheral/Source\gd32vw55x_gpio.c ****         if((1U << i) & pin) {
 442              		.loc 1 332 5
 443 001c 8507     		addi	a5,a5,1
 444              	.LVL43:
 336:C:/Users/stapi/OneDrive/Desktop/GD32VW553/GD32VW55X_Wifi_BLE_SDK/GD32VW55x_RELEASE_V1.0.2/MSDK/plf/GD32VW55x_standard_peripheral/Source\gd32vw55x_gpio.c ****             afrl |= GPIO_AFR_SET(i, alt_func_num);
 445              		.loc 1 336 21
 446 001e 3397E500 		sll	a4,a1,a4
 333:C:/Users/stapi/OneDrive/Desktop/GD32VW553/GD32VW55X_Wifi_BLE_SDK/GD32VW55x_RELEASE_V1.0.2/MSDK/plf/GD32VW55x_standard_peripheral/Source\gd32vw55x_gpio.c ****         if((1U << i) & pin) {
 447              		.loc 1 333 11
 448 0022 89C6     		beq	a3,zero,.L36
 335:C:/Users/stapi/OneDrive/Desktop/GD32VW553/GD32VW55X_Wifi_BLE_SDK/GD32VW55x_RELEASE_V1.0.2/MSDK/plf/GD32VW55x_standard_peripheral/Source\gd32vw55x_gpio.c ****             afrl |= GPIO_AFR_SET(i, alt_func_num);
 449              		.loc 1 335 18
 450 0024 B3F86840 		andn	a7,a7,t1
 451              	.LVL44:
 452              		.loc 1 336 13 is_stmt 1
 453              		.loc 1 336 18 is_stmt 0
 454 0028 B3681701 		or	a7,a4,a7
 455              	.LVL45:
 456              	.L36:
 332:C:/Users/stapi/OneDrive/Desktop/GD32VW553/GD32VW55X_Wifi_BLE_SDK/GD32VW55x_RELEASE_V1.0.2/MSDK/plf/GD32VW55x_standard_peripheral/Source\gd32vw55x_gpio.c ****         if((1U << i) & pin) {
 457              		.loc 1 332 25 is_stmt 1 discriminator 2
 332:C:/Users/stapi/OneDrive/Desktop/GD32VW553/GD32VW55X_Wifi_BLE_SDK/GD32VW55x_RELEASE_V1.0.2/MSDK/plf/GD32VW55x_standard_peripheral/Source\gd32vw55x_gpio.c ****         if((1U << i) & pin) {
 458              		.loc 1 332 17 discriminator 2
 332:C:/Users/stapi/OneDrive/Desktop/GD32VW553/GD32VW55X_Wifi_BLE_SDK/GD32VW55x_RELEASE_V1.0.2/MSDK/plf/GD32VW55x_standard_peripheral/Source\gd32vw55x_gpio.c ****         if((1U << i) & pin) {
 459              		.loc 1 332 5 is_stmt 0 discriminator 2
 460 002c E391C7FF 		bne	a5,t3,.L37
 461 0030 0147     		li	a4,0
 337:C:/Users/stapi/OneDrive/Desktop/GD32VW553/GD32VW55X_Wifi_BLE_SDK/GD32VW55x_RELEASE_V1.0.2/MSDK/plf/GD32VW55x_standard_peripheral/Source\gd32vw55x_gpio.c ****         }
 338:C:/Users/stapi/OneDrive/Desktop/GD32VW553/GD32VW55X_Wifi_BLE_SDK/GD32VW55x_RELEASE_V1.0.2/MSDK/plf/GD32VW55x_standard_peripheral/Source\gd32vw55x_gpio.c ****     }
 339:C:/Users/stapi/OneDrive/Desktop/GD32VW553/GD32VW55X_Wifi_BLE_SDK/GD32VW55x_RELEASE_V1.0.2/MSDK/plf/GD32VW55x_standard_peripheral/Source\gd32vw55x_gpio.c **** 
 340:C:/Users/stapi/OneDrive/Desktop/GD32VW553/GD32VW55X_Wifi_BLE_SDK/GD32VW55x_RELEASE_V1.0.2/MSDK/plf/GD32VW55x_standard_peripheral/Source\gd32vw55x_gpio.c ****     for(i = 8U; i < 16U; i++) {
 341:C:/Users/stapi/OneDrive/Desktop/GD32VW553/GD32VW55X_Wifi_BLE_SDK/GD32VW55x_RELEASE_V1.0.2/MSDK/plf/GD32VW55x_standard_peripheral/Source\gd32vw55x_gpio.c ****         if((1U << i) & pin) {
 342:C:/Users/stapi/OneDrive/Desktop/GD32VW553/GD32VW55X_Wifi_BLE_SDK/GD32VW55x_RELEASE_V1.0.2/MSDK/plf/GD32VW55x_standard_peripheral/Source\gd32vw55x_gpio.c ****             /* clear the specified pin alternate function bits */
 343:C:/Users/stapi/OneDrive/Desktop/GD32VW553/GD32VW55X_Wifi_BLE_SDK/GD32VW55x_RELEASE_V1.0.2/MSDK/plf/GD32VW55x_standard_peripheral/Source\gd32vw55x_gpio.c ****             afrh &= ~GPIO_AFR_MASK(i - 8U);
 462              		.loc 1 343 22
 463 0032 3D4F     		li	t5,15
 340:C:/Users/stapi/OneDrive/Desktop/GD32VW553/GD32VW55X_Wifi_BLE_SDK/GD32VW55x_RELEASE_V1.0.2/MSDK/plf/GD32VW55x_standard_peripheral/Source\gd32vw55x_gpio.c ****         if((1U << i) & pin) {
 464              		.loc 1 340 5
 465 0034 C14E     		li	t4,16
 466              	.L39:
 467              	.LVL46:
 341:C:/Users/stapi/OneDrive/Desktop/GD32VW553/GD32VW55X_Wifi_BLE_SDK/GD32VW55x_RELEASE_V1.0.2/MSDK/plf/GD32VW55x_standard_peripheral/Source\gd32vw55x_gpio.c ****             /* clear the specified pin alternate function bits */
 468              		.loc 1 341 9 is_stmt 1
 469              		.loc 1 343 13
 341:C:/Users/stapi/OneDrive/Desktop/GD32VW553/GD32VW55X_Wifi_BLE_SDK/GD32VW55x_RELEASE_V1.0.2/MSDK/plf/GD32VW55x_standard_peripheral/Source\gd32vw55x_gpio.c ****             /* clear the specified pin alternate function bits */
 470              		.loc 1 341 16 is_stmt 0
 471 0036 B316F028 		bset	a3,x0,a5
 341:C:/Users/stapi/OneDrive/Desktop/GD32VW553/GD32VW55X_Wifi_BLE_SDK/GD32VW55x_RELEASE_V1.0.2/MSDK/plf/GD32VW55x_standard_peripheral/Source\gd32vw55x_gpio.c ****             /* clear the specified pin alternate function bits */
 472              		.loc 1 341 22
 473 003a F18E     		and	a3,a3,a2
 340:C:/Users/stapi/OneDrive/Desktop/GD32VW553/GD32VW55X_Wifi_BLE_SDK/GD32VW55x_RELEASE_V1.0.2/MSDK/plf/GD32VW55x_standard_peripheral/Source\gd32vw55x_gpio.c ****         if((1U << i) & pin) {
 474              		.loc 1 340 5
 475 003c 8507     		addi	a5,a5,1
 476              	.LVL47:
 477              		.loc 1 343 22
 478 003e 331EEF00 		sll	t3,t5,a4
 344:C:/Users/stapi/OneDrive/Desktop/GD32VW553/GD32VW55X_Wifi_BLE_SDK/GD32VW55x_RELEASE_V1.0.2/MSDK/plf/GD32VW55x_standard_peripheral/Source\gd32vw55x_gpio.c ****             afrh |= GPIO_AFR_SET(i - 8U, alt_func_num);
 479              		.loc 1 344 21
 480 0042 3393E500 		sll	t1,a1,a4
 341:C:/Users/stapi/OneDrive/Desktop/GD32VW553/GD32VW55X_Wifi_BLE_SDK/GD32VW55x_RELEASE_V1.0.2/MSDK/plf/GD32VW55x_standard_peripheral/Source\gd32vw55x_gpio.c ****             /* clear the specified pin alternate function bits */
 481              		.loc 1 341 11
 482 0046 89C6     		beq	a3,zero,.L38
 343:C:/Users/stapi/OneDrive/Desktop/GD32VW553/GD32VW55X_Wifi_BLE_SDK/GD32VW55x_RELEASE_V1.0.2/MSDK/plf/GD32VW55x_standard_peripheral/Source\gd32vw55x_gpio.c ****             afrh |= GPIO_AFR_SET(i - 8U, alt_func_num);
 483              		.loc 1 343 18
 484 0048 3378C841 		andn	a6,a6,t3
 485              	.LVL48:
 486              		.loc 1 344 13 is_stmt 1
 487              		.loc 1 344 18 is_stmt 0
 488 004c 33680301 		or	a6,t1,a6
 489              	.LVL49:
 490              	.L38:
 340:C:/Users/stapi/OneDrive/Desktop/GD32VW553/GD32VW55X_Wifi_BLE_SDK/GD32VW55x_RELEASE_V1.0.2/MSDK/plf/GD32VW55x_standard_peripheral/Source\gd32vw55x_gpio.c ****         if((1U << i) & pin) {
 491              		.loc 1 340 26 is_stmt 1 discriminator 2
 340:C:/Users/stapi/OneDrive/Desktop/GD32VW553/GD32VW55X_Wifi_BLE_SDK/GD32VW55x_RELEASE_V1.0.2/MSDK/plf/GD32VW55x_standard_peripheral/Source\gd32vw55x_gpio.c ****         if((1U << i) & pin) {
 492              		.loc 1 340 17 discriminator 2
 340:C:/Users/stapi/OneDrive/Desktop/GD32VW553/GD32VW55X_Wifi_BLE_SDK/GD32VW55x_RELEASE_V1.0.2/MSDK/plf/GD32VW55x_standard_peripheral/Source\gd32vw55x_gpio.c ****         if((1U << i) & pin) {
 493              		.loc 1 340 5 is_stmt 0 discriminator 2
 494 0050 1107     		addi	a4,a4,4
 495 0052 E392D7FF 		bne	a5,t4,.L39
 345:C:/Users/stapi/OneDrive/Desktop/GD32VW553/GD32VW55X_Wifi_BLE_SDK/GD32VW55x_RELEASE_V1.0.2/MSDK/plf/GD32VW55x_standard_peripheral/Source\gd32vw55x_gpio.c ****         }
 346:C:/Users/stapi/OneDrive/Desktop/GD32VW553/GD32VW55X_Wifi_BLE_SDK/GD32VW55x_RELEASE_V1.0.2/MSDK/plf/GD32VW55x_standard_peripheral/Source\gd32vw55x_gpio.c ****     }
 347:C:/Users/stapi/OneDrive/Desktop/GD32VW553/GD32VW55X_Wifi_BLE_SDK/GD32VW55x_RELEASE_V1.0.2/MSDK/plf/GD32VW55x_standard_peripheral/Source\gd32vw55x_gpio.c **** 
 348:C:/Users/stapi/OneDrive/Desktop/GD32VW553/GD32VW55X_Wifi_BLE_SDK/GD32VW55x_RELEASE_V1.0.2/MSDK/plf/GD32VW55x_standard_peripheral/Source\gd32vw55x_gpio.c ****     GPIO_AFSEL0(gpio_periph) = afrl;
 496              		.loc 1 348 5 is_stmt 1
 497              		.loc 1 348 30 is_stmt 0
 498 0056 23201503 		sw	a7,32(a0)
 349:C:/Users/stapi/OneDrive/Desktop/GD32VW553/GD32VW55X_Wifi_BLE_SDK/GD32VW55x_RELEASE_V1.0.2/MSDK/plf/GD32VW55x_standard_peripheral/Source\gd32vw55x_gpio.c ****     GPIO_AFSEL1(gpio_periph) = afrh;
 499              		.loc 1 349 5 is_stmt 1
 500              		.loc 1 349 30 is_stmt 0
 501 005a 23220503 		sw	a6,36(a0)
 350:C:/Users/stapi/OneDrive/Desktop/GD32VW553/GD32VW55X_Wifi_BLE_SDK/GD32VW55x_RELEASE_V1.0.2/MSDK/plf/GD32VW55x_standard_peripheral/Source\gd32vw55x_gpio.c **** }
 502              		.loc 1 350 1
 503 005e 8280     		ret
 504              		.cfi_endproc
 505              	.LFE376:
 507              		.section	.text.gpio_pin_lock,"ax",@progbits
 508              		.align	1
 509              		.globl	gpio_pin_lock
 511              	gpio_pin_lock:
 512              	.LFB377:
 351:C:/Users/stapi/OneDrive/Desktop/GD32VW553/GD32VW55X_Wifi_BLE_SDK/GD32VW55x_RELEASE_V1.0.2/MSDK/plf/GD32VW55x_standard_peripheral/Source\gd32vw55x_gpio.c **** 
 352:C:/Users/stapi/OneDrive/Desktop/GD32VW553/GD32VW55X_Wifi_BLE_SDK/GD32VW55x_RELEASE_V1.0.2/MSDK/plf/GD32VW55x_standard_peripheral/Source\gd32vw55x_gpio.c **** /*!
 353:C:/Users/stapi/OneDrive/Desktop/GD32VW553/GD32VW55X_Wifi_BLE_SDK/GD32VW55x_RELEASE_V1.0.2/MSDK/plf/GD32VW55x_standard_peripheral/Source\gd32vw55x_gpio.c ****     \brief      lock GPIO pin bit
 354:C:/Users/stapi/OneDrive/Desktop/GD32VW553/GD32VW55X_Wifi_BLE_SDK/GD32VW55x_RELEASE_V1.0.2/MSDK/plf/GD32VW55x_standard_peripheral/Source\gd32vw55x_gpio.c ****     \param[in]  gpio_periph: GPIOx(x = A,B,C)
 355:C:/Users/stapi/OneDrive/Desktop/GD32VW553/GD32VW55X_Wifi_BLE_SDK/GD32VW55x_RELEASE_V1.0.2/MSDK/plf/GD32VW55x_standard_peripheral/Source\gd32vw55x_gpio.c ****                 only one parameter can be selected which is shown as below:
 356:C:/Users/stapi/OneDrive/Desktop/GD32VW553/GD32VW55X_Wifi_BLE_SDK/GD32VW55x_RELEASE_V1.0.2/MSDK/plf/GD32VW55x_standard_peripheral/Source\gd32vw55x_gpio.c ****       \arg        GPIOx(x = A,B,C)
 357:C:/Users/stapi/OneDrive/Desktop/GD32VW553/GD32VW55X_Wifi_BLE_SDK/GD32VW55x_RELEASE_V1.0.2/MSDK/plf/GD32VW55x_standard_peripheral/Source\gd32vw55x_gpio.c ****     \param[in]  pin: GPIO pin
 358:C:/Users/stapi/OneDrive/Desktop/GD32VW553/GD32VW55X_Wifi_BLE_SDK/GD32VW55x_RELEASE_V1.0.2/MSDK/plf/GD32VW55x_standard_peripheral/Source\gd32vw55x_gpio.c ****                 one or more parameters can be selected which are shown as below:
 359:C:/Users/stapi/OneDrive/Desktop/GD32VW553/GD32VW55X_Wifi_BLE_SDK/GD32VW55x_RELEASE_V1.0.2/MSDK/plf/GD32VW55x_standard_peripheral/Source\gd32vw55x_gpio.c ****       \arg        GPIO_PIN_x(x=0..15), GPIO_PIN_ALL
 360:C:/Users/stapi/OneDrive/Desktop/GD32VW553/GD32VW55X_Wifi_BLE_SDK/GD32VW55x_RELEASE_V1.0.2/MSDK/plf/GD32VW55x_standard_peripheral/Source\gd32vw55x_gpio.c ****     \param[out] none
 361:C:/Users/stapi/OneDrive/Desktop/GD32VW553/GD32VW55X_Wifi_BLE_SDK/GD32VW55x_RELEASE_V1.0.2/MSDK/plf/GD32VW55x_standard_peripheral/Source\gd32vw55x_gpio.c ****     \retval     none
 362:C:/Users/stapi/OneDrive/Desktop/GD32VW553/GD32VW55X_Wifi_BLE_SDK/GD32VW55x_RELEASE_V1.0.2/MSDK/plf/GD32VW55x_standard_peripheral/Source\gd32vw55x_gpio.c **** */
 363:C:/Users/stapi/OneDrive/Desktop/GD32VW553/GD32VW55X_Wifi_BLE_SDK/GD32VW55x_RELEASE_V1.0.2/MSDK/plf/GD32VW55x_standard_peripheral/Source\gd32vw55x_gpio.c **** void gpio_pin_lock(uint32_t gpio_periph, uint32_t pin)
 364:C:/Users/stapi/OneDrive/Desktop/GD32VW553/GD32VW55X_Wifi_BLE_SDK/GD32VW55x_RELEASE_V1.0.2/MSDK/plf/GD32VW55x_standard_peripheral/Source\gd32vw55x_gpio.c **** {
 513              		.loc 1 364 1 is_stmt 1
 514              		.cfi_startproc
 515              	.LVL50:
 365:C:/Users/stapi/OneDrive/Desktop/GD32VW553/GD32VW55X_Wifi_BLE_SDK/GD32VW55x_RELEASE_V1.0.2/MSDK/plf/GD32VW55x_standard_peripheral/Source\gd32vw55x_gpio.c ****     uint32_t lock = 0x00010000U;
 516              		.loc 1 365 5
 366:C:/Users/stapi/OneDrive/Desktop/GD32VW553/GD32VW55X_Wifi_BLE_SDK/GD32VW55x_RELEASE_V1.0.2/MSDK/plf/GD32VW55x_standard_peripheral/Source\gd32vw55x_gpio.c ****     lock |= pin;
 517              		.loc 1 366 5
 518              		.loc 1 366 10 is_stmt 0
 519 0000 93970529 		bseti	a5,a1,16
 520              	.LVL51:
 367:C:/Users/stapi/OneDrive/Desktop/GD32VW553/GD32VW55X_Wifi_BLE_SDK/GD32VW55x_RELEASE_V1.0.2/MSDK/plf/GD32VW55x_standard_peripheral/Source\gd32vw55x_gpio.c ****     /* lock key writing sequence: write 1->write 0->write 1->read 0->read 1 */
 368:C:/Users/stapi/OneDrive/Desktop/GD32VW553/GD32VW55X_Wifi_BLE_SDK/GD32VW55x_RELEASE_V1.0.2/MSDK/plf/GD32VW55x_standard_peripheral/Source\gd32vw55x_gpio.c ****     GPIO_LOCK(gpio_periph) = (uint32_t)lock;
 521              		.loc 1 368 5 is_stmt 1
 522              		.loc 1 368 28 is_stmt 0
 523 0004 5CCD     		sw	a5,28(a0)
 369:C:/Users/stapi/OneDrive/Desktop/GD32VW553/GD32VW55X_Wifi_BLE_SDK/GD32VW55x_RELEASE_V1.0.2/MSDK/plf/GD32VW55x_standard_peripheral/Source\gd32vw55x_gpio.c ****     GPIO_LOCK(gpio_periph) = (uint32_t)pin;
 524              		.loc 1 369 5 is_stmt 1
 525              		.loc 1 369 28 is_stmt 0
 526 0006 4CCD     		sw	a1,28(a0)
 370:C:/Users/stapi/OneDrive/Desktop/GD32VW553/GD32VW55X_Wifi_BLE_SDK/GD32VW55x_RELEASE_V1.0.2/MSDK/plf/GD32VW55x_standard_peripheral/Source\gd32vw55x_gpio.c ****     GPIO_LOCK(gpio_periph) = (uint32_t)lock;
 527              		.loc 1 370 5 is_stmt 1
 528              		.loc 1 370 28 is_stmt 0
 529 0008 5CCD     		sw	a5,28(a0)
 371:C:/Users/stapi/OneDrive/Desktop/GD32VW553/GD32VW55X_Wifi_BLE_SDK/GD32VW55x_RELEASE_V1.0.2/MSDK/plf/GD32VW55x_standard_peripheral/Source\gd32vw55x_gpio.c ****     lock = GPIO_LOCK(gpio_periph);
 530              		.loc 1 371 5 is_stmt 1
 531              		.loc 1 371 10 is_stmt 0
 532 000a 5C4D     		lw	a5,28(a0)
 533              	.LVL52:
 372:C:/Users/stapi/OneDrive/Desktop/GD32VW553/GD32VW55X_Wifi_BLE_SDK/GD32VW55x_RELEASE_V1.0.2/MSDK/plf/GD32VW55x_standard_peripheral/Source\gd32vw55x_gpio.c ****     lock = GPIO_LOCK(gpio_periph);
 534              		.loc 1 372 5 is_stmt 1
 535              		.loc 1 372 10 is_stmt 0
 536 000c 5C4D     		lw	a5,28(a0)
 373:C:/Users/stapi/OneDrive/Desktop/GD32VW553/GD32VW55X_Wifi_BLE_SDK/GD32VW55x_RELEASE_V1.0.2/MSDK/plf/GD32VW55x_standard_peripheral/Source\gd32vw55x_gpio.c **** }
 537              		.loc 1 373 1
 538 000e 8280     		ret
 539              		.cfi_endproc
 540              	.LFE377:
 542              		.section	.text.gpio_bit_toggle,"ax",@progbits
 543              		.align	1
 544              		.globl	gpio_bit_toggle
 546              	gpio_bit_toggle:
 547              	.LFB378:
 374:C:/Users/stapi/OneDrive/Desktop/GD32VW553/GD32VW55X_Wifi_BLE_SDK/GD32VW55x_RELEASE_V1.0.2/MSDK/plf/GD32VW55x_standard_peripheral/Source\gd32vw55x_gpio.c **** 
 375:C:/Users/stapi/OneDrive/Desktop/GD32VW553/GD32VW55X_Wifi_BLE_SDK/GD32VW55x_RELEASE_V1.0.2/MSDK/plf/GD32VW55x_standard_peripheral/Source\gd32vw55x_gpio.c **** /*!
 376:C:/Users/stapi/OneDrive/Desktop/GD32VW553/GD32VW55X_Wifi_BLE_SDK/GD32VW55x_RELEASE_V1.0.2/MSDK/plf/GD32VW55x_standard_peripheral/Source\gd32vw55x_gpio.c ****     \brief      toggle GPIO pin status
 377:C:/Users/stapi/OneDrive/Desktop/GD32VW553/GD32VW55X_Wifi_BLE_SDK/GD32VW55x_RELEASE_V1.0.2/MSDK/plf/GD32VW55x_standard_peripheral/Source\gd32vw55x_gpio.c ****     \param[in]  gpio_periph: GPIOx(x = A,B,C)
 378:C:/Users/stapi/OneDrive/Desktop/GD32VW553/GD32VW55X_Wifi_BLE_SDK/GD32VW55x_RELEASE_V1.0.2/MSDK/plf/GD32VW55x_standard_peripheral/Source\gd32vw55x_gpio.c ****                 only one parameter can be selected which is shown as below:
 379:C:/Users/stapi/OneDrive/Desktop/GD32VW553/GD32VW55X_Wifi_BLE_SDK/GD32VW55x_RELEASE_V1.0.2/MSDK/plf/GD32VW55x_standard_peripheral/Source\gd32vw55x_gpio.c ****       \arg        GPIOx(x = A,B,C)
 380:C:/Users/stapi/OneDrive/Desktop/GD32VW553/GD32VW55X_Wifi_BLE_SDK/GD32VW55x_RELEASE_V1.0.2/MSDK/plf/GD32VW55x_standard_peripheral/Source\gd32vw55x_gpio.c ****     \param[in]  pin: GPIO pin
 381:C:/Users/stapi/OneDrive/Desktop/GD32VW553/GD32VW55X_Wifi_BLE_SDK/GD32VW55x_RELEASE_V1.0.2/MSDK/plf/GD32VW55x_standard_peripheral/Source\gd32vw55x_gpio.c ****                 one or more parameters can be selected which are shown as below:
 382:C:/Users/stapi/OneDrive/Desktop/GD32VW553/GD32VW55X_Wifi_BLE_SDK/GD32VW55x_RELEASE_V1.0.2/MSDK/plf/GD32VW55x_standard_peripheral/Source\gd32vw55x_gpio.c ****       \arg        GPIO_PIN_x(x=0..15), GPIO_PIN_ALL
 383:C:/Users/stapi/OneDrive/Desktop/GD32VW553/GD32VW55X_Wifi_BLE_SDK/GD32VW55x_RELEASE_V1.0.2/MSDK/plf/GD32VW55x_standard_peripheral/Source\gd32vw55x_gpio.c ****     \param[out] none
 384:C:/Users/stapi/OneDrive/Desktop/GD32VW553/GD32VW55X_Wifi_BLE_SDK/GD32VW55x_RELEASE_V1.0.2/MSDK/plf/GD32VW55x_standard_peripheral/Source\gd32vw55x_gpio.c ****     \retval     none
 385:C:/Users/stapi/OneDrive/Desktop/GD32VW553/GD32VW55X_Wifi_BLE_SDK/GD32VW55x_RELEASE_V1.0.2/MSDK/plf/GD32VW55x_standard_peripheral/Source\gd32vw55x_gpio.c **** */
 386:C:/Users/stapi/OneDrive/Desktop/GD32VW553/GD32VW55X_Wifi_BLE_SDK/GD32VW55x_RELEASE_V1.0.2/MSDK/plf/GD32VW55x_standard_peripheral/Source\gd32vw55x_gpio.c **** void gpio_bit_toggle(uint32_t gpio_periph, uint32_t pin)
 387:C:/Users/stapi/OneDrive/Desktop/GD32VW553/GD32VW55X_Wifi_BLE_SDK/GD32VW55x_RELEASE_V1.0.2/MSDK/plf/GD32VW55x_standard_peripheral/Source\gd32vw55x_gpio.c **** {
 548              		.loc 1 387 1 is_stmt 1
 549              		.cfi_startproc
 550              	.LVL53:
 388:C:/Users/stapi/OneDrive/Desktop/GD32VW553/GD32VW55X_Wifi_BLE_SDK/GD32VW55x_RELEASE_V1.0.2/MSDK/plf/GD32VW55x_standard_peripheral/Source\gd32vw55x_gpio.c ****     GPIO_TG(gpio_periph) = (uint32_t)pin;
 551              		.loc 1 388 5
 552              		.loc 1 388 26 is_stmt 0
 553 0000 4CD5     		sw	a1,44(a0)
 389:C:/Users/stapi/OneDrive/Desktop/GD32VW553/GD32VW55X_Wifi_BLE_SDK/GD32VW55x_RELEASE_V1.0.2/MSDK/plf/GD32VW55x_standard_peripheral/Source\gd32vw55x_gpio.c **** }
 554              		.loc 1 389 1
 555 0002 8280     		ret
 556              		.cfi_endproc
 557              	.LFE378:
 559              		.section	.text.gpio_port_toggle,"ax",@progbits
 560              		.align	1
 561              		.globl	gpio_port_toggle
 563              	gpio_port_toggle:
 564              	.LFB379:
 390:C:/Users/stapi/OneDrive/Desktop/GD32VW553/GD32VW55X_Wifi_BLE_SDK/GD32VW55x_RELEASE_V1.0.2/MSDK/plf/GD32VW55x_standard_peripheral/Source\gd32vw55x_gpio.c **** 
 391:C:/Users/stapi/OneDrive/Desktop/GD32VW553/GD32VW55X_Wifi_BLE_SDK/GD32VW55x_RELEASE_V1.0.2/MSDK/plf/GD32VW55x_standard_peripheral/Source\gd32vw55x_gpio.c **** /*!
 392:C:/Users/stapi/OneDrive/Desktop/GD32VW553/GD32VW55X_Wifi_BLE_SDK/GD32VW55x_RELEASE_V1.0.2/MSDK/plf/GD32VW55x_standard_peripheral/Source\gd32vw55x_gpio.c ****     \brief      toggle GPIO port status
 393:C:/Users/stapi/OneDrive/Desktop/GD32VW553/GD32VW55X_Wifi_BLE_SDK/GD32VW55x_RELEASE_V1.0.2/MSDK/plf/GD32VW55x_standard_peripheral/Source\gd32vw55x_gpio.c ****     \param[in]  gpio_periph: GPIOx(x = A,B,C)
 394:C:/Users/stapi/OneDrive/Desktop/GD32VW553/GD32VW55X_Wifi_BLE_SDK/GD32VW55x_RELEASE_V1.0.2/MSDK/plf/GD32VW55x_standard_peripheral/Source\gd32vw55x_gpio.c ****                 only one parameter can be selected which is shown as below:
 395:C:/Users/stapi/OneDrive/Desktop/GD32VW553/GD32VW55X_Wifi_BLE_SDK/GD32VW55x_RELEASE_V1.0.2/MSDK/plf/GD32VW55x_standard_peripheral/Source\gd32vw55x_gpio.c ****       \arg        GPIOx(x = A,B,C)
 396:C:/Users/stapi/OneDrive/Desktop/GD32VW553/GD32VW55X_Wifi_BLE_SDK/GD32VW55x_RELEASE_V1.0.2/MSDK/plf/GD32VW55x_standard_peripheral/Source\gd32vw55x_gpio.c ****     \param[out] none
 397:C:/Users/stapi/OneDrive/Desktop/GD32VW553/GD32VW55X_Wifi_BLE_SDK/GD32VW55x_RELEASE_V1.0.2/MSDK/plf/GD32VW55x_standard_peripheral/Source\gd32vw55x_gpio.c ****     \retval     none
 398:C:/Users/stapi/OneDrive/Desktop/GD32VW553/GD32VW55X_Wifi_BLE_SDK/GD32VW55x_RELEASE_V1.0.2/MSDK/plf/GD32VW55x_standard_peripheral/Source\gd32vw55x_gpio.c **** */
 399:C:/Users/stapi/OneDrive/Desktop/GD32VW553/GD32VW55X_Wifi_BLE_SDK/GD32VW55x_RELEASE_V1.0.2/MSDK/plf/GD32VW55x_standard_peripheral/Source\gd32vw55x_gpio.c **** void gpio_port_toggle(uint32_t gpio_periph)
 400:C:/Users/stapi/OneDrive/Desktop/GD32VW553/GD32VW55X_Wifi_BLE_SDK/GD32VW55x_RELEASE_V1.0.2/MSDK/plf/GD32VW55x_standard_peripheral/Source\gd32vw55x_gpio.c **** {
 565              		.loc 1 400 1 is_stmt 1
 566              		.cfi_startproc
 567              	.LVL54:
 401:C:/Users/stapi/OneDrive/Desktop/GD32VW553/GD32VW55X_Wifi_BLE_SDK/GD32VW55x_RELEASE_V1.0.2/MSDK/plf/GD32VW55x_standard_peripheral/Source\gd32vw55x_gpio.c ****     GPIO_TG(gpio_periph) = 0x0000FFFFU;
 568              		.loc 1 401 5
 569              		.loc 1 401 26 is_stmt 0
 570 0000 C167     		li	a5,65536
 571 0002 FD17     		addi	a5,a5,-1
 572 0004 5CD5     		sw	a5,44(a0)
 402:C:/Users/stapi/OneDrive/Desktop/GD32VW553/GD32VW55X_Wifi_BLE_SDK/GD32VW55x_RELEASE_V1.0.2/MSDK/plf/GD32VW55x_standard_peripheral/Source\gd32vw55x_gpio.c **** }
 573              		.loc 1 402 1
 574 0006 8280     		ret
 575              		.cfi_endproc
 576              	.LFE379:
 578              		.text
 579              	.Letext0:
 580              		.file 2 "c:\\users\\stapi\\onedrive\\desktop\\gd32vw553\\embeddedbuilder_v1.4.7.26843\\tools\\nucl
 581              		.file 3 "c:\\users\\stapi\\onedrive\\desktop\\gd32vw553\\embeddedbuilder_v1.4.7.26843\\tools\\nucl
 582              		.file 4 "../../../../MSDK/plf/riscv/gd32vw55x/gd32vw55x.h"
 583              		.file 5 "../../../../MSDK/plf/GD32VW55x_standard_peripheral/Include/gd32vw55x_rcu.h"
 584              		.file 6 "../../../../MSDK/plf/GD32VW55x_standard_peripheral/Include/gd32vw55x_gpio.h"
DEFINED SYMBOLS
                            *ABS*:0000000000000000 gd32vw55x_gpio.c
C:\Users\stapi\AppData\Local\Temp\cctrd5Vm.s:13     .text.gpio_deinit:0000000000000000 gpio_deinit
C:\Users\stapi\AppData\Local\Temp\cctrd5Vm.s:17     .text.gpio_deinit:0000000000000000 .L0 
C:\Users\stapi\AppData\Local\Temp\cctrd5Vm.s:19     .text.gpio_deinit:0000000000000000 .L0 
C:\Users\stapi\AppData\Local\Temp\cctrd5Vm.s:20     .text.gpio_deinit:0000000000000008 .L0 
C:\Users\stapi\AppData\Local\Temp\cctrd5Vm.s:21     .text.gpio_deinit:0000000000000008 .L0 
C:\Users\stapi\AppData\Local\Temp\cctrd5Vm.s:23     .text.gpio_deinit:0000000000000008 .L0 
C:\Users\stapi\AppData\Local\Temp\cctrd5Vm.s:31     .text.gpio_deinit:0000000000000024 .L0 
C:\Users\stapi\AppData\Local\Temp\cctrd5Vm.s:32     .text.gpio_deinit:000000000000002c .L0 
C:\Users\stapi\AppData\Local\Temp\cctrd5Vm.s:33     .text.gpio_deinit:000000000000002c .L0 
C:\Users\stapi\AppData\Local\Temp\cctrd5Vm.s:34     .text.gpio_deinit:000000000000002c .L0 
C:\Users\stapi\AppData\Local\Temp\cctrd5Vm.s:36     .text.gpio_deinit:000000000000002c .L0 
C:\Users\stapi\AppData\Local\Temp\cctrd5Vm.s:38     .text.gpio_deinit:000000000000002c .L0 
C:\Users\stapi\AppData\Local\Temp\cctrd5Vm.s:43     .text.gpio_deinit:0000000000000038 .L0 
C:\Users\stapi\AppData\Local\Temp\cctrd5Vm.s:47     .text.gpio_deinit:0000000000000044 .L0 
C:\Users\stapi\AppData\Local\Temp\cctrd5Vm.s:48     .text.gpio_deinit:0000000000000044 .L0 
C:\Users\stapi\AppData\Local\Temp\cctrd5Vm.s:49     .text.gpio_deinit:000000000000004c .L0 
C:\Users\stapi\AppData\Local\Temp\cctrd5Vm.s:50     .text.gpio_deinit:000000000000004c .L0 
C:\Users\stapi\AppData\Local\Temp\cctrd5Vm.s:51     .text.gpio_deinit:000000000000004c .L0 
C:\Users\stapi\AppData\Local\Temp\cctrd5Vm.s:54     .text.gpio_deinit:000000000000004c .L0 
C:\Users\stapi\AppData\Local\Temp\cctrd5Vm.s:56     .text.gpio_deinit:000000000000004c .L0 
C:\Users\stapi\AppData\Local\Temp\cctrd5Vm.s:61     .text.gpio_deinit:0000000000000058 .L0 
C:\Users\stapi\AppData\Local\Temp\cctrd5Vm.s:65     .text.gpio_deinit:0000000000000064 .L0 
C:\Users\stapi\AppData\Local\Temp\cctrd5Vm.s:66     .text.gpio_deinit:0000000000000064 .L0 
C:\Users\stapi\AppData\Local\Temp\cctrd5Vm.s:67     .text.gpio_deinit:000000000000006c .L0 
C:\Users\stapi\AppData\Local\Temp\cctrd5Vm.s:68     .text.gpio_deinit:000000000000006c .L0 
C:\Users\stapi\AppData\Local\Temp\cctrd5Vm.s:69     .text.gpio_deinit:000000000000006c .L0 
C:\Users\stapi\AppData\Local\Temp\cctrd5Vm.s:72     .text.gpio_deinit:000000000000006c .L0 
C:\Users\stapi\AppData\Local\Temp\cctrd5Vm.s:74     .text.gpio_deinit:000000000000006c .L0 
C:\Users\stapi\AppData\Local\Temp\cctrd5Vm.s:79     .text.gpio_deinit:0000000000000078 .L0 
C:\Users\stapi\AppData\Local\Temp\cctrd5Vm.s:83     .text.gpio_deinit:0000000000000084 .L0 
C:\Users\stapi\AppData\Local\Temp\cctrd5Vm.s:84     .text.gpio_deinit:0000000000000084 .L0 
C:\Users\stapi\AppData\Local\Temp\cctrd5Vm.s:85     .text.gpio_deinit:000000000000008c .L0 
C:\Users\stapi\AppData\Local\Temp\cctrd5Vm.s:86     .text.gpio_deinit:000000000000008c .L0 
C:\Users\stapi\AppData\Local\Temp\cctrd5Vm.s:87     .text.gpio_deinit:000000000000008c .L0 
C:\Users\stapi\AppData\Local\Temp\cctrd5Vm.s:94     .text.gpio_mode_set:0000000000000000 gpio_mode_set
C:\Users\stapi\AppData\Local\Temp\cctrd5Vm.s:97     .text.gpio_mode_set:0000000000000000 .L0 
C:\Users\stapi\AppData\Local\Temp\cctrd5Vm.s:99     .text.gpio_mode_set:0000000000000000 .L0 
C:\Users\stapi\AppData\Local\Temp\cctrd5Vm.s:100    .text.gpio_mode_set:0000000000000000 .L0 
C:\Users\stapi\AppData\Local\Temp\cctrd5Vm.s:101    .text.gpio_mode_set:0000000000000000 .L0 
C:\Users\stapi\AppData\Local\Temp\cctrd5Vm.s:102    .text.gpio_mode_set:0000000000000000 .L0 
C:\Users\stapi\AppData\Local\Temp\cctrd5Vm.s:103    .text.gpio_mode_set:0000000000000000 .L0 
C:\Users\stapi\AppData\Local\Temp\cctrd5Vm.s:106    .text.gpio_mode_set:0000000000000004 .L0 
C:\Users\stapi\AppData\Local\Temp\cctrd5Vm.s:107    .text.gpio_mode_set:0000000000000004 .L0 
C:\Users\stapi\AppData\Local\Temp\cctrd5Vm.s:110    .text.gpio_mode_set:0000000000000008 .L0 
C:\Users\stapi\AppData\Local\Temp\cctrd5Vm.s:111    .text.gpio_mode_set:0000000000000008 .L0 
C:\Users\stapi\AppData\Local\Temp\cctrd5Vm.s:112    .text.gpio_mode_set:0000000000000008 .L0 
C:\Users\stapi\AppData\Local\Temp\cctrd5Vm.s:114    .text.gpio_mode_set:000000000000000a .L0 
C:\Users\stapi\AppData\Local\Temp\cctrd5Vm.s:116    .text.gpio_mode_set:000000000000000c .L0 
C:\Users\stapi\AppData\Local\Temp\cctrd5Vm.s:120    .text.gpio_mode_set:000000000000000e .L0 
C:\Users\stapi\AppData\Local\Temp\cctrd5Vm.s:121    .text.gpio_mode_set:000000000000000e .L0 
C:\Users\stapi\AppData\Local\Temp\cctrd5Vm.s:123    .text.gpio_mode_set:0000000000000012 .L0 
C:\Users\stapi\AppData\Local\Temp\cctrd5Vm.s:125    .text.gpio_mode_set:0000000000000016 .L0 
C:\Users\stapi\AppData\Local\Temp\cctrd5Vm.s:127    .text.gpio_mode_set:000000000000001a .L0 
C:\Users\stapi\AppData\Local\Temp\cctrd5Vm.s:129    .text.gpio_mode_set:000000000000001e .L0 
C:\Users\stapi\AppData\Local\Temp\cctrd5Vm.s:131    .text.gpio_mode_set:0000000000000022 .L0 
C:\Users\stapi\AppData\Local\Temp\cctrd5Vm.s:134    .text.gpio_mode_set:0000000000000026 .L0 
C:\Users\stapi\AppData\Local\Temp\cctrd5Vm.s:135    .text.gpio_mode_set:0000000000000026 .L0 
C:\Users\stapi\AppData\Local\Temp\cctrd5Vm.s:137    .text.gpio_mode_set:000000000000002a .L0 
C:\Users\stapi\AppData\Local\Temp\cctrd5Vm.s:140    .text.gpio_mode_set:000000000000002c .L0 
C:\Users\stapi\AppData\Local\Temp\cctrd5Vm.s:142    .text.gpio_mode_set:0000000000000030 .L0 
C:\Users\stapi\AppData\Local\Temp\cctrd5Vm.s:144    .text.gpio_mode_set:0000000000000034 .L0 
C:\Users\stapi\AppData\Local\Temp\cctrd5Vm.s:146    .text.gpio_mode_set:0000000000000038 .L0 
C:\Users\stapi\AppData\Local\Temp\cctrd5Vm.s:149    .text.gpio_mode_set:000000000000003c .L0 
C:\Users\stapi\AppData\Local\Temp\cctrd5Vm.s:150    .text.gpio_mode_set:000000000000003c .L0 
C:\Users\stapi\AppData\Local\Temp\cctrd5Vm.s:151    .text.gpio_mode_set:000000000000003c .L0 
C:\Users\stapi\AppData\Local\Temp\cctrd5Vm.s:155    .text.gpio_mode_set:0000000000000040 .L0 
C:\Users\stapi\AppData\Local\Temp\cctrd5Vm.s:156    .text.gpio_mode_set:0000000000000040 .L0 
C:\Users\stapi\AppData\Local\Temp\cctrd5Vm.s:157    .text.gpio_mode_set:0000000000000040 .L0 
C:\Users\stapi\AppData\Local\Temp\cctrd5Vm.s:159    .text.gpio_mode_set:0000000000000044 .L0 
C:\Users\stapi\AppData\Local\Temp\cctrd5Vm.s:160    .text.gpio_mode_set:0000000000000044 .L0 
C:\Users\stapi\AppData\Local\Temp\cctrd5Vm.s:162    .text.gpio_mode_set:0000000000000048 .L0 
C:\Users\stapi\AppData\Local\Temp\cctrd5Vm.s:163    .text.gpio_mode_set:0000000000000048 .L0 
C:\Users\stapi\AppData\Local\Temp\cctrd5Vm.s:165    .text.gpio_mode_set:000000000000004c .L0 
C:\Users\stapi\AppData\Local\Temp\cctrd5Vm.s:166    .text.gpio_mode_set:000000000000004e .L0 
C:\Users\stapi\AppData\Local\Temp\cctrd5Vm.s:173    .text.gpio_output_options_set:0000000000000000 gpio_output_options_set
C:\Users\stapi\AppData\Local\Temp\cctrd5Vm.s:176    .text.gpio_output_options_set:0000000000000000 .L0 
C:\Users\stapi\AppData\Local\Temp\cctrd5Vm.s:178    .text.gpio_output_options_set:0000000000000000 .L0 
C:\Users\stapi\AppData\Local\Temp\cctrd5Vm.s:179    .text.gpio_output_options_set:0000000000000000 .L0 
C:\Users\stapi\AppData\Local\Temp\cctrd5Vm.s:180    .text.gpio_output_options_set:0000000000000000 .L0 
C:\Users\stapi\AppData\Local\Temp\cctrd5Vm.s:181    .text.gpio_output_options_set:0000000000000000 .L0 
C:\Users\stapi\AppData\Local\Temp\cctrd5Vm.s:182    .text.gpio_output_options_set:0000000000000000 .L0 
C:\Users\stapi\AppData\Local\Temp\cctrd5Vm.s:185    .text.gpio_output_options_set:0000000000000006 .L0 
C:\Users\stapi\AppData\Local\Temp\cctrd5Vm.s:186    .text.gpio_output_options_set:0000000000000006 .L0 
C:\Users\stapi\AppData\Local\Temp\cctrd5Vm.s:191    .text.gpio_output_options_set:000000000000000e .L0 
C:\Users\stapi\AppData\Local\Temp\cctrd5Vm.s:192    .text.gpio_output_options_set:000000000000000e .L0 
C:\Users\stapi\AppData\Local\Temp\cctrd5Vm.s:195    .text.gpio_output_options_set:0000000000000012 .L0 
C:\Users\stapi\AppData\Local\Temp\cctrd5Vm.s:196    .text.gpio_output_options_set:0000000000000012 .L0 
C:\Users\stapi\AppData\Local\Temp\cctrd5Vm.s:197    .text.gpio_output_options_set:0000000000000012 .L0 
C:\Users\stapi\AppData\Local\Temp\cctrd5Vm.s:199    .text.gpio_output_options_set:0000000000000014 .L0 
C:\Users\stapi\AppData\Local\Temp\cctrd5Vm.s:201    .text.gpio_output_options_set:0000000000000016 .L0 
C:\Users\stapi\AppData\Local\Temp\cctrd5Vm.s:205    .text.gpio_output_options_set:0000000000000018 .L0 
C:\Users\stapi\AppData\Local\Temp\cctrd5Vm.s:206    .text.gpio_output_options_set:0000000000000018 .L0 
C:\Users\stapi\AppData\Local\Temp\cctrd5Vm.s:208    .text.gpio_output_options_set:000000000000001c .L0 
C:\Users\stapi\AppData\Local\Temp\cctrd5Vm.s:210    .text.gpio_output_options_set:0000000000000020 .L0 
C:\Users\stapi\AppData\Local\Temp\cctrd5Vm.s:212    .text.gpio_output_options_set:0000000000000022 .L0 
C:\Users\stapi\AppData\Local\Temp\cctrd5Vm.s:214    .text.gpio_output_options_set:0000000000000026 .L0 
C:\Users\stapi\AppData\Local\Temp\cctrd5Vm.s:217    .text.gpio_output_options_set:0000000000000028 .L0 
C:\Users\stapi\AppData\Local\Temp\cctrd5Vm.s:219    .text.gpio_output_options_set:000000000000002c .L0 
C:\Users\stapi\AppData\Local\Temp\cctrd5Vm.s:221    .text.gpio_output_options_set:000000000000002e .L0 
C:\Users\stapi\AppData\Local\Temp\cctrd5Vm.s:224    .text.gpio_output_options_set:0000000000000032 .L0 
C:\Users\stapi\AppData\Local\Temp\cctrd5Vm.s:225    .text.gpio_output_options_set:0000000000000032 .L0 
C:\Users\stapi\AppData\Local\Temp\cctrd5Vm.s:229    .text.gpio_output_options_set:0000000000000036 .L0 
C:\Users\stapi\AppData\Local\Temp\cctrd5Vm.s:230    .text.gpio_output_options_set:0000000000000036 .L0 
C:\Users\stapi\AppData\Local\Temp\cctrd5Vm.s:231    .text.gpio_output_options_set:0000000000000036 .L0 
C:\Users\stapi\AppData\Local\Temp\cctrd5Vm.s:233    .text.gpio_output_options_set:000000000000003a .L0 
C:\Users\stapi\AppData\Local\Temp\cctrd5Vm.s:234    .text.gpio_output_options_set:000000000000003a .L0 
C:\Users\stapi\AppData\Local\Temp\cctrd5Vm.s:236    .text.gpio_output_options_set:000000000000003e .L0 
C:\Users\stapi\AppData\Local\Temp\cctrd5Vm.s:240    .text.gpio_output_options_set:0000000000000040 .L0 
C:\Users\stapi\AppData\Local\Temp\cctrd5Vm.s:241    .text.gpio_output_options_set:0000000000000040 .L0 
C:\Users\stapi\AppData\Local\Temp\cctrd5Vm.s:245    .text.gpio_output_options_set:0000000000000048 .L0 
C:\Users\stapi\AppData\Local\Temp\cctrd5Vm.s:252    .text.gpio_bit_set:0000000000000000 gpio_bit_set
C:\Users\stapi\AppData\Local\Temp\cctrd5Vm.s:255    .text.gpio_bit_set:0000000000000000 .L0 
C:\Users\stapi\AppData\Local\Temp\cctrd5Vm.s:257    .text.gpio_bit_set:0000000000000000 .L0 
C:\Users\stapi\AppData\Local\Temp\cctrd5Vm.s:258    .text.gpio_bit_set:0000000000000000 .L0 
C:\Users\stapi\AppData\Local\Temp\cctrd5Vm.s:259    .text.gpio_bit_set:0000000000000000 .L0 
C:\Users\stapi\AppData\Local\Temp\cctrd5Vm.s:261    .text.gpio_bit_set:0000000000000002 .L0 
C:\Users\stapi\AppData\Local\Temp\cctrd5Vm.s:262    .text.gpio_bit_set:0000000000000004 .L0 
C:\Users\stapi\AppData\Local\Temp\cctrd5Vm.s:269    .text.gpio_bit_reset:0000000000000000 gpio_bit_reset
C:\Users\stapi\AppData\Local\Temp\cctrd5Vm.s:272    .text.gpio_bit_reset:0000000000000000 .L0 
C:\Users\stapi\AppData\Local\Temp\cctrd5Vm.s:274    .text.gpio_bit_reset:0000000000000000 .L0 
C:\Users\stapi\AppData\Local\Temp\cctrd5Vm.s:275    .text.gpio_bit_reset:0000000000000000 .L0 
C:\Users\stapi\AppData\Local\Temp\cctrd5Vm.s:276    .text.gpio_bit_reset:0000000000000000 .L0 
C:\Users\stapi\AppData\Local\Temp\cctrd5Vm.s:278    .text.gpio_bit_reset:0000000000000002 .L0 
C:\Users\stapi\AppData\Local\Temp\cctrd5Vm.s:279    .text.gpio_bit_reset:0000000000000004 .L0 
C:\Users\stapi\AppData\Local\Temp\cctrd5Vm.s:286    .text.gpio_bit_write:0000000000000000 gpio_bit_write
C:\Users\stapi\AppData\Local\Temp\cctrd5Vm.s:289    .text.gpio_bit_write:0000000000000000 .L0 
C:\Users\stapi\AppData\Local\Temp\cctrd5Vm.s:291    .text.gpio_bit_write:0000000000000000 .L0 
C:\Users\stapi\AppData\Local\Temp\cctrd5Vm.s:292    .text.gpio_bit_write:0000000000000000 .L0 
C:\Users\stapi\AppData\Local\Temp\cctrd5Vm.s:293    .text.gpio_bit_write:0000000000000000 .L0 
C:\Users\stapi\AppData\Local\Temp\cctrd5Vm.s:295    .text.gpio_bit_write:0000000000000002 .L0 
C:\Users\stapi\AppData\Local\Temp\cctrd5Vm.s:296    .text.gpio_bit_write:0000000000000002 .L0 
C:\Users\stapi\AppData\Local\Temp\cctrd5Vm.s:300    .text.gpio_bit_write:0000000000000006 .L0 
C:\Users\stapi\AppData\Local\Temp\cctrd5Vm.s:301    .text.gpio_bit_write:0000000000000006 .L0 
C:\Users\stapi\AppData\Local\Temp\cctrd5Vm.s:303    .text.gpio_bit_write:0000000000000008 .L0 
C:\Users\stapi\AppData\Local\Temp\cctrd5Vm.s:304    .text.gpio_bit_write:000000000000000a .L0 
C:\Users\stapi\AppData\Local\Temp\cctrd5Vm.s:311    .text.gpio_port_write:0000000000000000 gpio_port_write
C:\Users\stapi\AppData\Local\Temp\cctrd5Vm.s:314    .text.gpio_port_write:0000000000000000 .L0 
C:\Users\stapi\AppData\Local\Temp\cctrd5Vm.s:316    .text.gpio_port_write:0000000000000000 .L0 
C:\Users\stapi\AppData\Local\Temp\cctrd5Vm.s:317    .text.gpio_port_write:0000000000000000 .L0 
C:\Users\stapi\AppData\Local\Temp\cctrd5Vm.s:318    .text.gpio_port_write:0000000000000000 .L0 
C:\Users\stapi\AppData\Local\Temp\cctrd5Vm.s:320    .text.gpio_port_write:0000000000000002 .L0 
C:\Users\stapi\AppData\Local\Temp\cctrd5Vm.s:321    .text.gpio_port_write:0000000000000004 .L0 
C:\Users\stapi\AppData\Local\Temp\cctrd5Vm.s:328    .text.gpio_input_bit_get:0000000000000000 gpio_input_bit_get
C:\Users\stapi\AppData\Local\Temp\cctrd5Vm.s:331    .text.gpio_input_bit_get:0000000000000000 .L0 
C:\Users\stapi\AppData\Local\Temp\cctrd5Vm.s:333    .text.gpio_input_bit_get:0000000000000000 .L0 
C:\Users\stapi\AppData\Local\Temp\cctrd5Vm.s:334    .text.gpio_input_bit_get:0000000000000000 .L0 
C:\Users\stapi\AppData\Local\Temp\cctrd5Vm.s:335    .text.gpio_input_bit_get:0000000000000000 .L0 
C:\Users\stapi\AppData\Local\Temp\cctrd5Vm.s:338    .text.gpio_input_bit_get:0000000000000002 .L0 
C:\Users\stapi\AppData\Local\Temp\cctrd5Vm.s:340    .text.gpio_input_bit_get:0000000000000004 .L0 
C:\Users\stapi\AppData\Local\Temp\cctrd5Vm.s:342    .text.gpio_input_bit_get:000000000000000a .L0 
C:\Users\stapi\AppData\Local\Temp\cctrd5Vm.s:349    .text.gpio_input_port_get:0000000000000000 gpio_input_port_get
C:\Users\stapi\AppData\Local\Temp\cctrd5Vm.s:352    .text.gpio_input_port_get:0000000000000000 .L0 
C:\Users\stapi\AppData\Local\Temp\cctrd5Vm.s:354    .text.gpio_input_port_get:0000000000000000 .L0 
C:\Users\stapi\AppData\Local\Temp\cctrd5Vm.s:355    .text.gpio_input_port_get:0000000000000000 .L0 
C:\Users\stapi\AppData\Local\Temp\cctrd5Vm.s:356    .text.gpio_input_port_get:0000000000000000 .L0 
C:\Users\stapi\AppData\Local\Temp\cctrd5Vm.s:359    .text.gpio_input_port_get:0000000000000002 .L0 
C:\Users\stapi\AppData\Local\Temp\cctrd5Vm.s:361    .text.gpio_input_port_get:0000000000000008 .L0 
C:\Users\stapi\AppData\Local\Temp\cctrd5Vm.s:368    .text.gpio_output_bit_get:0000000000000000 gpio_output_bit_get
C:\Users\stapi\AppData\Local\Temp\cctrd5Vm.s:371    .text.gpio_output_bit_get:0000000000000000 .L0 
C:\Users\stapi\AppData\Local\Temp\cctrd5Vm.s:373    .text.gpio_output_bit_get:0000000000000000 .L0 
C:\Users\stapi\AppData\Local\Temp\cctrd5Vm.s:374    .text.gpio_output_bit_get:0000000000000000 .L0 
C:\Users\stapi\AppData\Local\Temp\cctrd5Vm.s:375    .text.gpio_output_bit_get:0000000000000000 .L0 
C:\Users\stapi\AppData\Local\Temp\cctrd5Vm.s:378    .text.gpio_output_bit_get:0000000000000002 .L0 
C:\Users\stapi\AppData\Local\Temp\cctrd5Vm.s:380    .text.gpio_output_bit_get:0000000000000004 .L0 
C:\Users\stapi\AppData\Local\Temp\cctrd5Vm.s:382    .text.gpio_output_bit_get:000000000000000a .L0 
C:\Users\stapi\AppData\Local\Temp\cctrd5Vm.s:389    .text.gpio_output_port_get:0000000000000000 gpio_output_port_get
C:\Users\stapi\AppData\Local\Temp\cctrd5Vm.s:392    .text.gpio_output_port_get:0000000000000000 .L0 
C:\Users\stapi\AppData\Local\Temp\cctrd5Vm.s:394    .text.gpio_output_port_get:0000000000000000 .L0 
C:\Users\stapi\AppData\Local\Temp\cctrd5Vm.s:395    .text.gpio_output_port_get:0000000000000000 .L0 
C:\Users\stapi\AppData\Local\Temp\cctrd5Vm.s:396    .text.gpio_output_port_get:0000000000000000 .L0 
C:\Users\stapi\AppData\Local\Temp\cctrd5Vm.s:399    .text.gpio_output_port_get:0000000000000002 .L0 
C:\Users\stapi\AppData\Local\Temp\cctrd5Vm.s:401    .text.gpio_output_port_get:0000000000000008 .L0 
C:\Users\stapi\AppData\Local\Temp\cctrd5Vm.s:408    .text.gpio_af_set:0000000000000000 gpio_af_set
C:\Users\stapi\AppData\Local\Temp\cctrd5Vm.s:411    .text.gpio_af_set:0000000000000000 .L0 
C:\Users\stapi\AppData\Local\Temp\cctrd5Vm.s:413    .text.gpio_af_set:0000000000000000 .L0 
C:\Users\stapi\AppData\Local\Temp\cctrd5Vm.s:414    .text.gpio_af_set:0000000000000000 .L0 
C:\Users\stapi\AppData\Local\Temp\cctrd5Vm.s:415    .text.gpio_af_set:0000000000000000 .L0 
C:\Users\stapi\AppData\Local\Temp\cctrd5Vm.s:416    .text.gpio_af_set:0000000000000000 .L0 
C:\Users\stapi\AppData\Local\Temp\cctrd5Vm.s:417    .text.gpio_af_set:0000000000000000 .L0 
C:\Users\stapi\AppData\Local\Temp\cctrd5Vm.s:420    .text.gpio_af_set:0000000000000004 .L0 
C:\Users\stapi\AppData\Local\Temp\cctrd5Vm.s:421    .text.gpio_af_set:0000000000000004 .L0 
C:\Users\stapi\AppData\Local\Temp\cctrd5Vm.s:424    .text.gpio_af_set:0000000000000008 .L0 
C:\Users\stapi\AppData\Local\Temp\cctrd5Vm.s:425    .text.gpio_af_set:0000000000000008 .L0 
C:\Users\stapi\AppData\Local\Temp\cctrd5Vm.s:426    .text.gpio_af_set:0000000000000008 .L0 
C:\Users\stapi\AppData\Local\Temp\cctrd5Vm.s:428    .text.gpio_af_set:000000000000000a .L0 
C:\Users\stapi\AppData\Local\Temp\cctrd5Vm.s:430    .text.gpio_af_set:000000000000000c .L0 
C:\Users\stapi\AppData\Local\Temp\cctrd5Vm.s:434    .text.gpio_af_set:000000000000000e .L0 
C:\Users\stapi\AppData\Local\Temp\cctrd5Vm.s:435    .text.gpio_af_set:000000000000000e .L0 
C:\Users\stapi\AppData\Local\Temp\cctrd5Vm.s:437    .text.gpio_af_set:0000000000000012 .L0 
C:\Users\stapi\AppData\Local\Temp\cctrd5Vm.s:439    .text.gpio_af_set:0000000000000016 .L0 
C:\Users\stapi\AppData\Local\Temp\cctrd5Vm.s:441    .text.gpio_af_set:0000000000000018 .L0 
C:\Users\stapi\AppData\Local\Temp\cctrd5Vm.s:443    .text.gpio_af_set:000000000000001c .L0 
C:\Users\stapi\AppData\Local\Temp\cctrd5Vm.s:446    .text.gpio_af_set:000000000000001e .L0 
C:\Users\stapi\AppData\Local\Temp\cctrd5Vm.s:448    .text.gpio_af_set:0000000000000022 .L0 
C:\Users\stapi\AppData\Local\Temp\cctrd5Vm.s:450    .text.gpio_af_set:0000000000000024 .L0 
C:\Users\stapi\AppData\Local\Temp\cctrd5Vm.s:453    .text.gpio_af_set:0000000000000028 .L0 
C:\Users\stapi\AppData\Local\Temp\cctrd5Vm.s:454    .text.gpio_af_set:0000000000000028 .L0 
C:\Users\stapi\AppData\Local\Temp\cctrd5Vm.s:458    .text.gpio_af_set:000000000000002c .L0 
C:\Users\stapi\AppData\Local\Temp\cctrd5Vm.s:459    .text.gpio_af_set:000000000000002c .L0 
C:\Users\stapi\AppData\Local\Temp\cctrd5Vm.s:460    .text.gpio_af_set:000000000000002c .L0 
C:\Users\stapi\AppData\Local\Temp\cctrd5Vm.s:463    .text.gpio_af_set:0000000000000032 .L0 
C:\Users\stapi\AppData\Local\Temp\cctrd5Vm.s:465    .text.gpio_af_set:0000000000000034 .L0 
C:\Users\stapi\AppData\Local\Temp\cctrd5Vm.s:469    .text.gpio_af_set:0000000000000036 .L0 
C:\Users\stapi\AppData\Local\Temp\cctrd5Vm.s:470    .text.gpio_af_set:0000000000000036 .L0 
C:\Users\stapi\AppData\Local\Temp\cctrd5Vm.s:471    .text.gpio_af_set:0000000000000036 .L0 
C:\Users\stapi\AppData\Local\Temp\cctrd5Vm.s:473    .text.gpio_af_set:000000000000003a .L0 
C:\Users\stapi\AppData\Local\Temp\cctrd5Vm.s:475    .text.gpio_af_set:000000000000003c .L0 
C:\Users\stapi\AppData\Local\Temp\cctrd5Vm.s:478    .text.gpio_af_set:000000000000003e .L0 
C:\Users\stapi\AppData\Local\Temp\cctrd5Vm.s:480    .text.gpio_af_set:0000000000000042 .L0 
C:\Users\stapi\AppData\Local\Temp\cctrd5Vm.s:482    .text.gpio_af_set:0000000000000046 .L0 
C:\Users\stapi\AppData\Local\Temp\cctrd5Vm.s:484    .text.gpio_af_set:0000000000000048 .L0 
C:\Users\stapi\AppData\Local\Temp\cctrd5Vm.s:487    .text.gpio_af_set:000000000000004c .L0 
C:\Users\stapi\AppData\Local\Temp\cctrd5Vm.s:488    .text.gpio_af_set:000000000000004c .L0 
C:\Users\stapi\AppData\Local\Temp\cctrd5Vm.s:492    .text.gpio_af_set:0000000000000050 .L0 
C:\Users\stapi\AppData\Local\Temp\cctrd5Vm.s:493    .text.gpio_af_set:0000000000000050 .L0 
C:\Users\stapi\AppData\Local\Temp\cctrd5Vm.s:494    .text.gpio_af_set:0000000000000050 .L0 
C:\Users\stapi\AppData\Local\Temp\cctrd5Vm.s:497    .text.gpio_af_set:0000000000000056 .L0 
C:\Users\stapi\AppData\Local\Temp\cctrd5Vm.s:498    .text.gpio_af_set:0000000000000056 .L0 
C:\Users\stapi\AppData\Local\Temp\cctrd5Vm.s:500    .text.gpio_af_set:000000000000005a .L0 
C:\Users\stapi\AppData\Local\Temp\cctrd5Vm.s:501    .text.gpio_af_set:000000000000005a .L0 
C:\Users\stapi\AppData\Local\Temp\cctrd5Vm.s:503    .text.gpio_af_set:000000000000005e .L0 
C:\Users\stapi\AppData\Local\Temp\cctrd5Vm.s:504    .text.gpio_af_set:0000000000000060 .L0 
C:\Users\stapi\AppData\Local\Temp\cctrd5Vm.s:511    .text.gpio_pin_lock:0000000000000000 gpio_pin_lock
C:\Users\stapi\AppData\Local\Temp\cctrd5Vm.s:514    .text.gpio_pin_lock:0000000000000000 .L0 
C:\Users\stapi\AppData\Local\Temp\cctrd5Vm.s:516    .text.gpio_pin_lock:0000000000000000 .L0 
C:\Users\stapi\AppData\Local\Temp\cctrd5Vm.s:517    .text.gpio_pin_lock:0000000000000000 .L0 
C:\Users\stapi\AppData\Local\Temp\cctrd5Vm.s:518    .text.gpio_pin_lock:0000000000000000 .L0 
C:\Users\stapi\AppData\Local\Temp\cctrd5Vm.s:519    .text.gpio_pin_lock:0000000000000000 .L0 
C:\Users\stapi\AppData\Local\Temp\cctrd5Vm.s:522    .text.gpio_pin_lock:0000000000000004 .L0 
C:\Users\stapi\AppData\Local\Temp\cctrd5Vm.s:523    .text.gpio_pin_lock:0000000000000004 .L0 
C:\Users\stapi\AppData\Local\Temp\cctrd5Vm.s:525    .text.gpio_pin_lock:0000000000000006 .L0 
C:\Users\stapi\AppData\Local\Temp\cctrd5Vm.s:526    .text.gpio_pin_lock:0000000000000006 .L0 
C:\Users\stapi\AppData\Local\Temp\cctrd5Vm.s:528    .text.gpio_pin_lock:0000000000000008 .L0 
C:\Users\stapi\AppData\Local\Temp\cctrd5Vm.s:529    .text.gpio_pin_lock:0000000000000008 .L0 
C:\Users\stapi\AppData\Local\Temp\cctrd5Vm.s:531    .text.gpio_pin_lock:000000000000000a .L0 
C:\Users\stapi\AppData\Local\Temp\cctrd5Vm.s:532    .text.gpio_pin_lock:000000000000000a .L0 
C:\Users\stapi\AppData\Local\Temp\cctrd5Vm.s:535    .text.gpio_pin_lock:000000000000000c .L0 
C:\Users\stapi\AppData\Local\Temp\cctrd5Vm.s:536    .text.gpio_pin_lock:000000000000000c .L0 
C:\Users\stapi\AppData\Local\Temp\cctrd5Vm.s:538    .text.gpio_pin_lock:000000000000000e .L0 
C:\Users\stapi\AppData\Local\Temp\cctrd5Vm.s:539    .text.gpio_pin_lock:0000000000000010 .L0 
C:\Users\stapi\AppData\Local\Temp\cctrd5Vm.s:546    .text.gpio_bit_toggle:0000000000000000 gpio_bit_toggle
C:\Users\stapi\AppData\Local\Temp\cctrd5Vm.s:549    .text.gpio_bit_toggle:0000000000000000 .L0 
C:\Users\stapi\AppData\Local\Temp\cctrd5Vm.s:551    .text.gpio_bit_toggle:0000000000000000 .L0 
C:\Users\stapi\AppData\Local\Temp\cctrd5Vm.s:552    .text.gpio_bit_toggle:0000000000000000 .L0 
C:\Users\stapi\AppData\Local\Temp\cctrd5Vm.s:553    .text.gpio_bit_toggle:0000000000000000 .L0 
C:\Users\stapi\AppData\Local\Temp\cctrd5Vm.s:555    .text.gpio_bit_toggle:0000000000000002 .L0 
C:\Users\stapi\AppData\Local\Temp\cctrd5Vm.s:556    .text.gpio_bit_toggle:0000000000000004 .L0 
C:\Users\stapi\AppData\Local\Temp\cctrd5Vm.s:563    .text.gpio_port_toggle:0000000000000000 gpio_port_toggle
C:\Users\stapi\AppData\Local\Temp\cctrd5Vm.s:566    .text.gpio_port_toggle:0000000000000000 .L0 
C:\Users\stapi\AppData\Local\Temp\cctrd5Vm.s:568    .text.gpio_port_toggle:0000000000000000 .L0 
C:\Users\stapi\AppData\Local\Temp\cctrd5Vm.s:569    .text.gpio_port_toggle:0000000000000000 .L0 
C:\Users\stapi\AppData\Local\Temp\cctrd5Vm.s:570    .text.gpio_port_toggle:0000000000000000 .L0 
C:\Users\stapi\AppData\Local\Temp\cctrd5Vm.s:574    .text.gpio_port_toggle:0000000000000006 .L0 
C:\Users\stapi\AppData\Local\Temp\cctrd5Vm.s:575    .text.gpio_port_toggle:0000000000000008 .L0 
C:\Users\stapi\AppData\Local\Temp\cctrd5Vm.s:90     .text.gpio_deinit:000000000000008c .L0 
C:\Users\stapi\AppData\Local\Temp\cctrd5Vm.s:169    .text.gpio_mode_set:000000000000004e .L0 
C:\Users\stapi\AppData\Local\Temp\cctrd5Vm.s:248    .text.gpio_output_options_set:0000000000000048 .L0 
C:\Users\stapi\AppData\Local\Temp\cctrd5Vm.s:265    .text.gpio_bit_set:0000000000000004 .L0 
C:\Users\stapi\AppData\Local\Temp\cctrd5Vm.s:282    .text.gpio_bit_reset:0000000000000004 .L0 
C:\Users\stapi\AppData\Local\Temp\cctrd5Vm.s:307    .text.gpio_bit_write:000000000000000a .L0 
C:\Users\stapi\AppData\Local\Temp\cctrd5Vm.s:324    .text.gpio_port_write:0000000000000004 .L0 
C:\Users\stapi\AppData\Local\Temp\cctrd5Vm.s:345    .text.gpio_input_bit_get:000000000000000a .L0 
C:\Users\stapi\AppData\Local\Temp\cctrd5Vm.s:364    .text.gpio_input_port_get:0000000000000008 .L0 
C:\Users\stapi\AppData\Local\Temp\cctrd5Vm.s:385    .text.gpio_output_bit_get:000000000000000a .L0 
C:\Users\stapi\AppData\Local\Temp\cctrd5Vm.s:404    .text.gpio_output_port_get:0000000000000008 .L0 
C:\Users\stapi\AppData\Local\Temp\cctrd5Vm.s:507    .text.gpio_af_set:0000000000000060 .L0 
C:\Users\stapi\AppData\Local\Temp\cctrd5Vm.s:542    .text.gpio_pin_lock:0000000000000010 .L0 
C:\Users\stapi\AppData\Local\Temp\cctrd5Vm.s:559    .text.gpio_bit_toggle:0000000000000004 .L0 
C:\Users\stapi\AppData\Local\Temp\cctrd5Vm.s:578    .text.gpio_port_toggle:0000000000000008 .L0 
                     .debug_frame:0000000000000000 .L0 
C:\Users\stapi\AppData\Local\Temp\cctrd5Vm.s:35     .text.gpio_deinit:000000000000002c .L2
C:\Users\stapi\AppData\Local\Temp\cctrd5Vm.s:71     .text.gpio_deinit:000000000000006c .L3
C:\Users\stapi\AppData\Local\Temp\cctrd5Vm.s:53     .text.gpio_deinit:000000000000004c .L7
C:\Users\stapi\AppData\Local\Temp\cctrd5Vm.s:153    .text.gpio_mode_set:0000000000000040 .L9
C:\Users\stapi\AppData\Local\Temp\cctrd5Vm.s:118    .text.gpio_mode_set:000000000000000e .L10
C:\Users\stapi\AppData\Local\Temp\cctrd5Vm.s:238    .text.gpio_output_options_set:0000000000000040 .L24
C:\Users\stapi\AppData\Local\Temp\cctrd5Vm.s:227    .text.gpio_output_options_set:0000000000000036 .L18
C:\Users\stapi\AppData\Local\Temp\cctrd5Vm.s:203    .text.gpio_output_options_set:0000000000000018 .L19
C:\Users\stapi\AppData\Local\Temp\cctrd5Vm.s:189    .text.gpio_output_options_set:000000000000000e .L17
C:\Users\stapi\AppData\Local\Temp\cctrd5Vm.s:298    .text.gpio_bit_write:0000000000000006 .L28
C:\Users\stapi\AppData\Local\Temp\cctrd5Vm.s:456    .text.gpio_af_set:000000000000002c .L36
C:\Users\stapi\AppData\Local\Temp\cctrd5Vm.s:432    .text.gpio_af_set:000000000000000e .L37
C:\Users\stapi\AppData\Local\Temp\cctrd5Vm.s:490    .text.gpio_af_set:0000000000000050 .L38
C:\Users\stapi\AppData\Local\Temp\cctrd5Vm.s:466    .text.gpio_af_set:0000000000000036 .L39
C:\Users\stapi\AppData\Local\Temp\cctrd5Vm.s:1368   .debug_abbrev:0000000000000000 .Ldebug_abbrev0
C:\Users\stapi\AppData\Local\Temp\cctrd5Vm.s:2183   .debug_str:000000000000012e .LASF79
C:\Users\stapi\AppData\Local\Temp\cctrd5Vm.s:2263   .debug_str:000000000000046c .LASF80
C:\Users\stapi\AppData\Local\Temp\cctrd5Vm.s:2191   .debug_str:0000000000000232 .LASF81
C:\Users\stapi\AppData\Local\Temp\cctrd5Vm.s:2097   .debug_ranges:0000000000000000 .Ldebug_ranges0
C:\Users\stapi\AppData\Local\Temp\cctrd5Vm.s:2131   .debug_line:0000000000000000 .Ldebug_line0
C:\Users\stapi\AppData\Local\Temp\cctrd5Vm.s:2281   .debug_str:0000000000000567 .LASF0
C:\Users\stapi\AppData\Local\Temp\cctrd5Vm.s:2201   .debug_str:00000000000002e1 .LASF1
C:\Users\stapi\AppData\Local\Temp\cctrd5Vm.s:2185   .debug_str:0000000000000215 .LASF4
C:\Users\stapi\AppData\Local\Temp\cctrd5Vm.s:2193   .debug_str:00000000000002a6 .LASF2
C:\Users\stapi\AppData\Local\Temp\cctrd5Vm.s:2169   .debug_str:00000000000000db .LASF3
C:\Users\stapi\AppData\Local\Temp\cctrd5Vm.s:2155   .debug_str:000000000000008d .LASF5
C:\Users\stapi\AppData\Local\Temp\cctrd5Vm.s:2221   .debug_str:0000000000000365 .LASF6
C:\Users\stapi\AppData\Local\Temp\cctrd5Vm.s:2229   .debug_str:0000000000000398 .LASF7
C:\Users\stapi\AppData\Local\Temp\cctrd5Vm.s:2149   .debug_str:000000000000006d .LASF8
C:\Users\stapi\AppData\Local\Temp\cctrd5Vm.s:2251   .debug_str:0000000000000415 .LASF9
C:\Users\stapi\AppData\Local\Temp\cctrd5Vm.s:2177   .debug_str:0000000000000104 .LASF10
C:\Users\stapi\AppData\Local\Temp\cctrd5Vm.s:2203   .debug_str:00000000000002ed .LASF11
C:\Users\stapi\AppData\Local\Temp\cctrd5Vm.s:2227   .debug_str:0000000000000393 .LASF12
C:\Users\stapi\AppData\Local\Temp\cctrd5Vm.s:2161   .debug_str:00000000000000b0 .LASF13
C:\Users\stapi\AppData\Local\Temp\cctrd5Vm.s:2213   .debug_str:0000000000000336 .LASF14
C:\Users\stapi\AppData\Local\Temp\cctrd5Vm.s:2207   .debug_str:0000000000000311 .LASF15
C:\Users\stapi\AppData\Local\Temp\cctrd5Vm.s:2265   .debug_str:0000000000000505 .LASF16
C:\Users\stapi\AppData\Local\Temp\cctrd5Vm.s:2289   .debug_str:00000000000005a4 .LASF17
C:\Users\stapi\AppData\Local\Temp\cctrd5Vm.s:2205   .debug_str:0000000000000304 .LASF18
C:\Users\stapi\AppData\Local\Temp\cctrd5Vm.s:2257   .debug_str:0000000000000446 .LASF19
C:\Users\stapi\AppData\Local\Temp\cctrd5Vm.s:2139   .debug_str:000000000000002a .LASF20
C:\Users\stapi\AppData\Local\Temp\cctrd5Vm.s:2295   .debug_str:00000000000005c8 .LASF21
C:\Users\stapi\AppData\Local\Temp\cctrd5Vm.s:2137   .debug_str:000000000000001e .LASF22
C:\Users\stapi\AppData\Local\Temp\cctrd5Vm.s:2159   .debug_str:00000000000000a5 .LASF23
C:\Users\stapi\AppData\Local\Temp\cctrd5Vm.s:2141   .debug_str:0000000000000037 .LASF24
C:\Users\stapi\AppData\Local\Temp\cctrd5Vm.s:2247   .debug_str:00000000000003fb .LASF25
C:\Users\stapi\AppData\Local\Temp\cctrd5Vm.s:2135   .debug_str:0000000000000013 .LASF26
C:\Users\stapi\AppData\Local\Temp\cctrd5Vm.s:2153   .debug_str:0000000000000082 .LASF27
C:\Users\stapi\AppData\Local\Temp\cctrd5Vm.s:2223   .debug_str:0000000000000378 .LASF28
C:\Users\stapi\AppData\Local\Temp\cctrd5Vm.s:2243   .debug_str:00000000000003ea .LASF29
C:\Users\stapi\AppData\Local\Temp\cctrd5Vm.s:2231   .debug_str:00000000000003a1 .LASF30
C:\Users\stapi\AppData\Local\Temp\cctrd5Vm.s:2275   .debug_str:0000000000000530 .LASF31
C:\Users\stapi\AppData\Local\Temp\cctrd5Vm.s:2241   .debug_str:00000000000003dc .LASF32
C:\Users\stapi\AppData\Local\Temp\cctrd5Vm.s:2291   .debug_str:00000000000005af .LASF33
C:\Users\stapi\AppData\Local\Temp\cctrd5Vm.s:2165   .debug_str:00000000000000c3 .LASF34
C:\Users\stapi\AppData\Local\Temp\cctrd5Vm.s:2167   .debug_str:00000000000000ce .LASF35
C:\Users\stapi\AppData\Local\Temp\cctrd5Vm.s:2189   .debug_str:0000000000000224 .LASF36
C:\Users\stapi\AppData\Local\Temp\cctrd5Vm.s:2211   .debug_str:000000000000032a .LASF37
C:\Users\stapi\AppData\Local\Temp\cctrd5Vm.s:2261   .debug_str:0000000000000460 .LASF38
C:\Users\stapi\AppData\Local\Temp\cctrd5Vm.s:2171   .debug_str:00000000000000e5 .LASF39
C:\Users\stapi\AppData\Local\Temp\cctrd5Vm.s:2181   .debug_str:0000000000000120 .LASF40
C:\Users\stapi\AppData\Local\Temp\cctrd5Vm.s:2259   .debug_str:0000000000000453 .LASF41
C:\Users\stapi\AppData\Local\Temp\cctrd5Vm.s:2219   .debug_str:000000000000035a .LASF42
C:\Users\stapi\AppData\Local\Temp\cctrd5Vm.s:2163   .debug_str:00000000000000b8 .LASF43
C:\Users\stapi\AppData\Local\Temp\cctrd5Vm.s:2179   .debug_str:0000000000000112 .LASF44
C:\Users\stapi\AppData\Local\Temp\cctrd5Vm.s:2225   .debug_str:0000000000000384 .LASF45
C:\Users\stapi\AppData\Local\Temp\cctrd5Vm.s:2253   .debug_str:0000000000000427 .LASF46
C:\Users\stapi\AppData\Local\Temp\cctrd5Vm.s:2287   .debug_str:000000000000059a .LASF47
C:\Users\stapi\AppData\Local\Temp\cctrd5Vm.s:2143   .debug_str:0000000000000042 .LASF48
C:\Users\stapi\AppData\Local\Temp\cctrd5Vm.s:2277   .debug_str:000000000000053e .LASF49
C:\Users\stapi\AppData\Local\Temp\cctrd5Vm.s:564    .text.gpio_port_toggle:0000000000000000 .LFB379
C:\Users\stapi\AppData\Local\Temp\cctrd5Vm.s:576    .text.gpio_port_toggle:0000000000000008 .LFE379
C:\Users\stapi\AppData\Local\Temp\cctrd5Vm.s:2197   .debug_str:00000000000002c8 .LASF51
C:\Users\stapi\AppData\Local\Temp\cctrd5Vm.s:2209   .debug_str:000000000000031a .LASF50
C:\Users\stapi\AppData\Local\Temp\cctrd5Vm.s:547    .text.gpio_bit_toggle:0000000000000000 .LFB378
C:\Users\stapi\AppData\Local\Temp\cctrd5Vm.s:557    .text.gpio_bit_toggle:0000000000000004 .LFE378
C:\Users\stapi\AppData\Local\Temp\cctrd5Vm.s:2173   .debug_str:00000000000000f0 .LASF52
C:\Users\stapi\AppData\Local\Temp\cctrd5Vm.s:512    .text.gpio_pin_lock:0000000000000000 .LFB377
C:\Users\stapi\AppData\Local\Temp\cctrd5Vm.s:540    .text.gpio_pin_lock:0000000000000010 .LFE377
C:\Users\stapi\AppData\Local\Temp\cctrd5Vm.s:2237   .debug_str:00000000000003d2 .LASF55
C:\Users\stapi\AppData\Local\Temp\cctrd5Vm.s:1855   .debug_loc:0000000000000000 .LLST12
C:\Users\stapi\AppData\Local\Temp\cctrd5Vm.s:2293   .debug_str:00000000000005bc .LASF53
C:\Users\stapi\AppData\Local\Temp\cctrd5Vm.s:409    .text.gpio_af_set:0000000000000000 .LFB376
C:\Users\stapi\AppData\Local\Temp\cctrd5Vm.s:505    .text.gpio_af_set:0000000000000060 .LFE376
C:\Users\stapi\AppData\Local\Temp\cctrd5Vm.s:2249   .debug_str:0000000000000408 .LASF54
C:\Users\stapi\AppData\Local\Temp\cctrd5Vm.s:1869   .debug_loc:0000000000000021 .LLST11
C:\Users\stapi\AppData\Local\Temp\cctrd5Vm.s:2271   .debug_str:000000000000051c .LASF56
C:\Users\stapi\AppData\Local\Temp\cctrd5Vm.s:2267   .debug_str:000000000000050b .LASF57
C:\Users\stapi\AppData\Local\Temp\cctrd5Vm.s:2217   .debug_str:0000000000000345 .LASF58
C:\Users\stapi\AppData\Local\Temp\cctrd5Vm.s:390    .text.gpio_output_port_get:0000000000000000 .LFB375
C:\Users\stapi\AppData\Local\Temp\cctrd5Vm.s:402    .text.gpio_output_port_get:0000000000000008 .LFE375
C:\Users\stapi\AppData\Local\Temp\cctrd5Vm.s:1885   .debug_loc:000000000000004b .LLST10
C:\Users\stapi\AppData\Local\Temp\cctrd5Vm.s:2235   .debug_str:00000000000003be .LASF59
C:\Users\stapi\AppData\Local\Temp\cctrd5Vm.s:369    .text.gpio_output_bit_get:0000000000000000 .LFB374
C:\Users\stapi\AppData\Local\Temp\cctrd5Vm.s:383    .text.gpio_output_bit_get:000000000000000a .LFE374
C:\Users\stapi\AppData\Local\Temp\cctrd5Vm.s:1899   .debug_loc:000000000000006c .LLST9
C:\Users\stapi\AppData\Local\Temp\cctrd5Vm.s:2195   .debug_str:00000000000002b4 .LASF60
C:\Users\stapi\AppData\Local\Temp\cctrd5Vm.s:350    .text.gpio_input_port_get:0000000000000000 .LFB373
C:\Users\stapi\AppData\Local\Temp\cctrd5Vm.s:362    .text.gpio_input_port_get:0000000000000008 .LFE373
C:\Users\stapi\AppData\Local\Temp\cctrd5Vm.s:1913   .debug_loc:000000000000008d .LLST8
C:\Users\stapi\AppData\Local\Temp\cctrd5Vm.s:2133   .debug_str:0000000000000000 .LASF61
C:\Users\stapi\AppData\Local\Temp\cctrd5Vm.s:329    .text.gpio_input_bit_get:0000000000000000 .LFB372
C:\Users\stapi\AppData\Local\Temp\cctrd5Vm.s:343    .text.gpio_input_bit_get:000000000000000a .LFE372
C:\Users\stapi\AppData\Local\Temp\cctrd5Vm.s:1927   .debug_loc:00000000000000ae .LLST7
C:\Users\stapi\AppData\Local\Temp\cctrd5Vm.s:2255   .debug_str:0000000000000436 .LASF62
C:\Users\stapi\AppData\Local\Temp\cctrd5Vm.s:312    .text.gpio_port_write:0000000000000000 .LFB371
C:\Users\stapi\AppData\Local\Temp\cctrd5Vm.s:322    .text.gpio_port_write:0000000000000004 .LFE371
C:\Users\stapi\AppData\Local\Temp\cctrd5Vm.s:2245   .debug_str:00000000000003f6 .LASF63
C:\Users\stapi\AppData\Local\Temp\cctrd5Vm.s:2273   .debug_str:0000000000000521 .LASF64
C:\Users\stapi\AppData\Local\Temp\cctrd5Vm.s:287    .text.gpio_bit_write:0000000000000000 .LFB370
C:\Users\stapi\AppData\Local\Temp\cctrd5Vm.s:305    .text.gpio_bit_write:000000000000000a .LFE370
C:\Users\stapi\AppData\Local\Temp\cctrd5Vm.s:2151   .debug_str:0000000000000078 .LASF65
C:\Users\stapi\AppData\Local\Temp\cctrd5Vm.s:2233   .debug_str:00000000000003af .LASF66
C:\Users\stapi\AppData\Local\Temp\cctrd5Vm.s:270    .text.gpio_bit_reset:0000000000000000 .LFB369
C:\Users\stapi\AppData\Local\Temp\cctrd5Vm.s:280    .text.gpio_bit_reset:0000000000000004 .LFE369
C:\Users\stapi\AppData\Local\Temp\cctrd5Vm.s:2157   .debug_str:0000000000000098 .LASF67
C:\Users\stapi\AppData\Local\Temp\cctrd5Vm.s:253    .text.gpio_bit_set:0000000000000000 .LFB368
C:\Users\stapi\AppData\Local\Temp\cctrd5Vm.s:263    .text.gpio_bit_set:0000000000000004 .LFE368
C:\Users\stapi\AppData\Local\Temp\cctrd5Vm.s:2279   .debug_str:000000000000054f .LASF68
C:\Users\stapi\AppData\Local\Temp\cctrd5Vm.s:174    .text.gpio_output_options_set:0000000000000000 .LFB367
C:\Users\stapi\AppData\Local\Temp\cctrd5Vm.s:246    .text.gpio_output_options_set:0000000000000048 .LFE367
C:\Users\stapi\AppData\Local\Temp\cctrd5Vm.s:2175   .debug_str:00000000000000fe .LASF69
C:\Users\stapi\AppData\Local\Temp\cctrd5Vm.s:1941   .debug_loc:00000000000000cf .LLST4
C:\Users\stapi\AppData\Local\Temp\cctrd5Vm.s:2215   .debug_str:000000000000033f .LASF70
C:\Users\stapi\AppData\Local\Temp\cctrd5Vm.s:1959   .debug_loc:00000000000000fb .LLST5
C:\Users\stapi\AppData\Local\Temp\cctrd5Vm.s:2145   .debug_str:000000000000004d .LASF71
C:\Users\stapi\AppData\Local\Temp\cctrd5Vm.s:1971   .debug_loc:000000000000011a .LLST6
C:\Users\stapi\AppData\Local\Temp\cctrd5Vm.s:2285   .debug_str:000000000000058c .LASF72
C:\Users\stapi\AppData\Local\Temp\cctrd5Vm.s:95     .text.gpio_mode_set:0000000000000000 .LFB366
C:\Users\stapi\AppData\Local\Temp\cctrd5Vm.s:167    .text.gpio_mode_set:000000000000004e .LFE366
C:\Users\stapi\AppData\Local\Temp\cctrd5Vm.s:2239   .debug_str:00000000000003d7 .LASF73
C:\Users\stapi\AppData\Local\Temp\cctrd5Vm.s:2199   .debug_str:00000000000002d4 .LASF74
C:\Users\stapi\AppData\Local\Temp\cctrd5Vm.s:1978   .debug_loc:000000000000012d .LLST1
C:\Users\stapi\AppData\Local\Temp\cctrd5Vm.s:1990   .debug_loc:000000000000014c .LLST2
C:\Users\stapi\AppData\Local\Temp\cctrd5Vm.s:2187   .debug_str:000000000000021f .LASF75
C:\Users\stapi\AppData\Local\Temp\cctrd5Vm.s:2005   .debug_loc:0000000000000175 .LLST3
C:\Users\stapi\AppData\Local\Temp\cctrd5Vm.s:2269   .debug_str:0000000000000510 .LASF76
C:\Users\stapi\AppData\Local\Temp\cctrd5Vm.s:14     .text.gpio_deinit:0000000000000000 .LFB365
C:\Users\stapi\AppData\Local\Temp\cctrd5Vm.s:88     .text.gpio_deinit:000000000000008c .LFE365
C:\Users\stapi\AppData\Local\Temp\cctrd5Vm.s:2020   .debug_loc:000000000000019e .LLST0
C:\Users\stapi\AppData\Local\Temp\cctrd5Vm.s:41     .text.gpio_deinit:0000000000000038 .LVL2
C:\Users\stapi\AppData\Local\Temp\cctrd5Vm.s:45     .text.gpio_deinit:0000000000000044 .LVL3
C:\Users\stapi\AppData\Local\Temp\cctrd5Vm.s:59     .text.gpio_deinit:0000000000000058 .LVL6
C:\Users\stapi\AppData\Local\Temp\cctrd5Vm.s:63     .text.gpio_deinit:0000000000000064 .LVL7
C:\Users\stapi\AppData\Local\Temp\cctrd5Vm.s:77     .text.gpio_deinit:0000000000000078 .LVL10
C:\Users\stapi\AppData\Local\Temp\cctrd5Vm.s:81     .text.gpio_deinit:0000000000000084 .LVL11
C:\Users\stapi\AppData\Local\Temp\cctrd5Vm.s:2283   .debug_str:0000000000000574 .LASF77
C:\Users\stapi\AppData\Local\Temp\cctrd5Vm.s:2147   .debug_str:0000000000000054 .LASF78
C:\Users\stapi\AppData\Local\Temp\cctrd5Vm.s:515    .text.gpio_pin_lock:0000000000000000 .LVL50
C:\Users\stapi\AppData\Local\Temp\cctrd5Vm.s:520    .text.gpio_pin_lock:0000000000000004 .LVL51
C:\Users\stapi\AppData\Local\Temp\cctrd5Vm.s:533    .text.gpio_pin_lock:000000000000000c .LVL52
C:\Users\stapi\AppData\Local\Temp\cctrd5Vm.s:422    .text.gpio_af_set:0000000000000008 .LVL41
C:\Users\stapi\AppData\Local\Temp\cctrd5Vm.s:431    .text.gpio_af_set:000000000000000e .LVL42
C:\Users\stapi\AppData\Local\Temp\cctrd5Vm.s:444    .text.gpio_af_set:000000000000001e .LVL43
C:\Users\stapi\AppData\Local\Temp\cctrd5Vm.s:467    .text.gpio_af_set:0000000000000036 .LVL46
C:\Users\stapi\AppData\Local\Temp\cctrd5Vm.s:476    .text.gpio_af_set:000000000000003e .LVL47
C:\Users\stapi\AppData\Local\Temp\cctrd5Vm.s:393    .text.gpio_output_port_get:0000000000000000 .LVL37
C:\Users\stapi\AppData\Local\Temp\cctrd5Vm.s:397    .text.gpio_output_port_get:0000000000000002 .LVL38
C:\Users\stapi\AppData\Local\Temp\cctrd5Vm.s:372    .text.gpio_output_bit_get:0000000000000000 .LVL35
C:\Users\stapi\AppData\Local\Temp\cctrd5Vm.s:376    .text.gpio_output_bit_get:0000000000000002 .LVL36
C:\Users\stapi\AppData\Local\Temp\cctrd5Vm.s:353    .text.gpio_input_port_get:0000000000000000 .LVL33
C:\Users\stapi\AppData\Local\Temp\cctrd5Vm.s:357    .text.gpio_input_port_get:0000000000000002 .LVL34
C:\Users\stapi\AppData\Local\Temp\cctrd5Vm.s:332    .text.gpio_input_bit_get:0000000000000000 .LVL31
C:\Users\stapi\AppData\Local\Temp\cctrd5Vm.s:336    .text.gpio_input_bit_get:0000000000000002 .LVL32
C:\Users\stapi\AppData\Local\Temp\cctrd5Vm.s:177    .text.gpio_output_options_set:0000000000000000 .LVL20
C:\Users\stapi\AppData\Local\Temp\cctrd5Vm.s:202    .text.gpio_output_options_set:0000000000000018 .LVL22
C:\Users\stapi\AppData\Local\Temp\cctrd5Vm.s:237    .text.gpio_output_options_set:0000000000000040 .LVL26
C:\Users\stapi\AppData\Local\Temp\cctrd5Vm.s:193    .text.gpio_output_options_set:0000000000000012 .LVL21
C:\Users\stapi\AppData\Local\Temp\cctrd5Vm.s:215    .text.gpio_output_options_set:0000000000000028 .LVL23
C:\Users\stapi\AppData\Local\Temp\cctrd5Vm.s:108    .text.gpio_mode_set:0000000000000008 .LVL14
C:\Users\stapi\AppData\Local\Temp\cctrd5Vm.s:117    .text.gpio_mode_set:000000000000000e .LVL15
C:\Users\stapi\AppData\Local\Temp\cctrd5Vm.s:138    .text.gpio_mode_set:000000000000002c .LVL17
C:\Users\stapi\AppData\Local\Temp\cctrd5Vm.s:104    .text.gpio_mode_set:0000000000000004 .LVL13
C:\Users\stapi\AppData\Local\Temp\cctrd5Vm.s:132    .text.gpio_mode_set:0000000000000026 .LVL16
C:\Users\stapi\AppData\Local\Temp\cctrd5Vm.s:147    .text.gpio_mode_set:000000000000003c .LVL18
C:\Users\stapi\AppData\Local\Temp\cctrd5Vm.s:152    .text.gpio_mode_set:0000000000000040 .LVL19
C:\Users\stapi\AppData\Local\Temp\cctrd5Vm.s:18     .text.gpio_deinit:0000000000000000 .LVL0
C:\Users\stapi\AppData\Local\Temp\cctrd5Vm.s:39     .text.gpio_deinit:0000000000000030 .LVL1
C:\Users\stapi\AppData\Local\Temp\cctrd5Vm.s:52     .text.gpio_deinit:000000000000004c .LVL4
C:\Users\stapi\AppData\Local\Temp\cctrd5Vm.s:57     .text.gpio_deinit:0000000000000050 .LVL5
C:\Users\stapi\AppData\Local\Temp\cctrd5Vm.s:70     .text.gpio_deinit:000000000000006c .LVL8
C:\Users\stapi\AppData\Local\Temp\cctrd5Vm.s:75     .text.gpio_deinit:0000000000000070 .LVL9
C:\Users\stapi\AppData\Local\Temp\cctrd5Vm.s:586    .debug_info:0000000000000000 .Ldebug_info0

UNDEFINED SYMBOLS
__riscv_save_0
__riscv_restore_0
rcu_periph_reset_enable
rcu_periph_reset_disable
