   1              		.file	"init_rom_symbol.c"
   2              		.option nopic
   3              		.attribute arch, "rv32i2p0_m2p0_a2p0_f2p0_c2p0_b_p0p94"
   4              		.attribute unaligned_access, 0
   5              		.attribute stack_align, 16
   6              		.text
   7              	.Ltext0:
   8              		.cfi_sections	.debug_frame
   9              		.section	.text.rom_symbol_init,"ax",@progbits
  10              		.align	1
  11              		.globl	rom_symbol_init
  13              	rom_symbol_init:
  14              	.LFB376:
  15              		.file 1 "C:/Users/stapi/OneDrive/Desktop/GD32VW553/V1_MQTT_OK/GD32VW55X_Wifi_BLE_SDK/GD32VW55x_REL
   1:C:/Users/stapi/OneDrive/Desktop/GD32VW553/V1_MQTT_OK/GD32VW55X_Wifi_BLE_SDK/GD32VW55x_RELEASE_V1.0.2/MSDK/plf/src\init_rom_symbol.c **** /*!
   2:C:/Users/stapi/OneDrive/Desktop/GD32VW553/V1_MQTT_OK/GD32VW55X_Wifi_BLE_SDK/GD32VW55x_RELEASE_V1.0.2/MSDK/plf/src\init_rom_symbol.c ****     \file    init_rom_symbol.c
   3:C:/Users/stapi/OneDrive/Desktop/GD32VW553/V1_MQTT_OK/GD32VW55X_Wifi_BLE_SDK/GD32VW55x_RELEASE_V1.0.2/MSDK/plf/src\init_rom_symbol.c ****     \brief   Rom symbol init function for GD32VW55x SDK.
   4:C:/Users/stapi/OneDrive/Desktop/GD32VW553/V1_MQTT_OK/GD32VW55X_Wifi_BLE_SDK/GD32VW55x_RELEASE_V1.0.2/MSDK/plf/src\init_rom_symbol.c **** 
   5:C:/Users/stapi/OneDrive/Desktop/GD32VW553/V1_MQTT_OK/GD32VW55X_Wifi_BLE_SDK/GD32VW55x_RELEASE_V1.0.2/MSDK/plf/src\init_rom_symbol.c ****     \version 2023-07-20, V1.0.0, firmware for GD32VW55x
   6:C:/Users/stapi/OneDrive/Desktop/GD32VW553/V1_MQTT_OK/GD32VW55X_Wifi_BLE_SDK/GD32VW55x_RELEASE_V1.0.2/MSDK/plf/src\init_rom_symbol.c **** */
   7:C:/Users/stapi/OneDrive/Desktop/GD32VW553/V1_MQTT_OK/GD32VW55X_Wifi_BLE_SDK/GD32VW55x_RELEASE_V1.0.2/MSDK/plf/src\init_rom_symbol.c **** 
   8:C:/Users/stapi/OneDrive/Desktop/GD32VW553/V1_MQTT_OK/GD32VW55X_Wifi_BLE_SDK/GD32VW55x_RELEASE_V1.0.2/MSDK/plf/src\init_rom_symbol.c **** /*
   9:C:/Users/stapi/OneDrive/Desktop/GD32VW553/V1_MQTT_OK/GD32VW55X_Wifi_BLE_SDK/GD32VW55x_RELEASE_V1.0.2/MSDK/plf/src\init_rom_symbol.c ****     Copyright (c) 2023, GigaDevice Semiconductor Inc.
  10:C:/Users/stapi/OneDrive/Desktop/GD32VW553/V1_MQTT_OK/GD32VW55X_Wifi_BLE_SDK/GD32VW55x_RELEASE_V1.0.2/MSDK/plf/src\init_rom_symbol.c **** 
  11:C:/Users/stapi/OneDrive/Desktop/GD32VW553/V1_MQTT_OK/GD32VW55X_Wifi_BLE_SDK/GD32VW55x_RELEASE_V1.0.2/MSDK/plf/src\init_rom_symbol.c ****     Redistribution and use in source and binary forms, with or without modification,
  12:C:/Users/stapi/OneDrive/Desktop/GD32VW553/V1_MQTT_OK/GD32VW55X_Wifi_BLE_SDK/GD32VW55x_RELEASE_V1.0.2/MSDK/plf/src\init_rom_symbol.c **** are permitted provided that the following conditions are met:
  13:C:/Users/stapi/OneDrive/Desktop/GD32VW553/V1_MQTT_OK/GD32VW55X_Wifi_BLE_SDK/GD32VW55x_RELEASE_V1.0.2/MSDK/plf/src\init_rom_symbol.c **** 
  14:C:/Users/stapi/OneDrive/Desktop/GD32VW553/V1_MQTT_OK/GD32VW55X_Wifi_BLE_SDK/GD32VW55x_RELEASE_V1.0.2/MSDK/plf/src\init_rom_symbol.c ****     1. Redistributions of source code must retain the above copyright notice, this
  15:C:/Users/stapi/OneDrive/Desktop/GD32VW553/V1_MQTT_OK/GD32VW55X_Wifi_BLE_SDK/GD32VW55x_RELEASE_V1.0.2/MSDK/plf/src\init_rom_symbol.c ****        list of conditions and the following disclaimer.
  16:C:/Users/stapi/OneDrive/Desktop/GD32VW553/V1_MQTT_OK/GD32VW55X_Wifi_BLE_SDK/GD32VW55x_RELEASE_V1.0.2/MSDK/plf/src\init_rom_symbol.c ****     2. Redistributions in binary form must reproduce the above copyright notice,
  17:C:/Users/stapi/OneDrive/Desktop/GD32VW553/V1_MQTT_OK/GD32VW55X_Wifi_BLE_SDK/GD32VW55x_RELEASE_V1.0.2/MSDK/plf/src\init_rom_symbol.c ****        this list of conditions and the following disclaimer in the documentation
  18:C:/Users/stapi/OneDrive/Desktop/GD32VW553/V1_MQTT_OK/GD32VW55X_Wifi_BLE_SDK/GD32VW55x_RELEASE_V1.0.2/MSDK/plf/src\init_rom_symbol.c ****        and/or other materials provided with the distribution.
  19:C:/Users/stapi/OneDrive/Desktop/GD32VW553/V1_MQTT_OK/GD32VW55X_Wifi_BLE_SDK/GD32VW55x_RELEASE_V1.0.2/MSDK/plf/src\init_rom_symbol.c ****     3. Neither the name of the copyright holder nor the names of its contributors
  20:C:/Users/stapi/OneDrive/Desktop/GD32VW553/V1_MQTT_OK/GD32VW55X_Wifi_BLE_SDK/GD32VW55x_RELEASE_V1.0.2/MSDK/plf/src\init_rom_symbol.c ****        may be used to endorse or promote products derived from this software without
  21:C:/Users/stapi/OneDrive/Desktop/GD32VW553/V1_MQTT_OK/GD32VW55X_Wifi_BLE_SDK/GD32VW55x_RELEASE_V1.0.2/MSDK/plf/src\init_rom_symbol.c ****        specific prior written permission.
  22:C:/Users/stapi/OneDrive/Desktop/GD32VW553/V1_MQTT_OK/GD32VW55X_Wifi_BLE_SDK/GD32VW55x_RELEASE_V1.0.2/MSDK/plf/src\init_rom_symbol.c **** 
  23:C:/Users/stapi/OneDrive/Desktop/GD32VW553/V1_MQTT_OK/GD32VW55X_Wifi_BLE_SDK/GD32VW55x_RELEASE_V1.0.2/MSDK/plf/src\init_rom_symbol.c ****     THIS SOFTWARE IS PROVIDED BY THE COPYRIGHT HOLDERS AND CONTRIBUTORS "AS IS"
  24:C:/Users/stapi/OneDrive/Desktop/GD32VW553/V1_MQTT_OK/GD32VW55X_Wifi_BLE_SDK/GD32VW55x_RELEASE_V1.0.2/MSDK/plf/src\init_rom_symbol.c **** AND ANY EXPRESS OR IMPLIED WARRANTIES, INCLUDING, BUT NOT LIMITED TO, THE IMPLIED
  25:C:/Users/stapi/OneDrive/Desktop/GD32VW553/V1_MQTT_OK/GD32VW55X_Wifi_BLE_SDK/GD32VW55x_RELEASE_V1.0.2/MSDK/plf/src\init_rom_symbol.c **** WARRANTIES OF MERCHANTABILITY AND FITNESS FOR A PARTICULAR PURPOSE ARE DISCLAIMED.
  26:C:/Users/stapi/OneDrive/Desktop/GD32VW553/V1_MQTT_OK/GD32VW55X_Wifi_BLE_SDK/GD32VW55x_RELEASE_V1.0.2/MSDK/plf/src\init_rom_symbol.c **** IN NO EVENT SHALL THE COPYRIGHT HOLDER OR CONTRIBUTORS BE LIABLE FOR ANY DIRECT,
  27:C:/Users/stapi/OneDrive/Desktop/GD32VW553/V1_MQTT_OK/GD32VW55X_Wifi_BLE_SDK/GD32VW55x_RELEASE_V1.0.2/MSDK/plf/src\init_rom_symbol.c **** INDIRECT, INCIDENTAL, SPECIAL, EXEMPLARY, OR CONSEQUENTIAL DAMAGES (INCLUDING, BUT
  28:C:/Users/stapi/OneDrive/Desktop/GD32VW553/V1_MQTT_OK/GD32VW55X_Wifi_BLE_SDK/GD32VW55x_RELEASE_V1.0.2/MSDK/plf/src\init_rom_symbol.c **** NOT LIMITED TO, PROCUREMENT OF SUBSTITUTE GOODS OR SERVICES; LOSS OF USE, DATA, OR
  29:C:/Users/stapi/OneDrive/Desktop/GD32VW553/V1_MQTT_OK/GD32VW55X_Wifi_BLE_SDK/GD32VW55x_RELEASE_V1.0.2/MSDK/plf/src\init_rom_symbol.c **** PROFITS; OR BUSINESS INTERRUPTION) HOWEVER CAUSED AND ON ANY THEORY OF LIABILITY,
  30:C:/Users/stapi/OneDrive/Desktop/GD32VW553/V1_MQTT_OK/GD32VW55X_Wifi_BLE_SDK/GD32VW55x_RELEASE_V1.0.2/MSDK/plf/src\init_rom_symbol.c **** WHETHER IN CONTRACT, STRICT LIABILITY, OR TORT (INCLUDING NEGLIGENCE OR OTHERWISE)
  31:C:/Users/stapi/OneDrive/Desktop/GD32VW553/V1_MQTT_OK/GD32VW55X_Wifi_BLE_SDK/GD32VW55x_RELEASE_V1.0.2/MSDK/plf/src\init_rom_symbol.c **** ARISING IN ANY WAY OUT OF THE USE OF THIS SOFTWARE, EVEN IF ADVISED OF THE POSSIBILITY
  32:C:/Users/stapi/OneDrive/Desktop/GD32VW553/V1_MQTT_OK/GD32VW55X_Wifi_BLE_SDK/GD32VW55x_RELEASE_V1.0.2/MSDK/plf/src\init_rom_symbol.c **** OF SUCH DAMAGE.
  33:C:/Users/stapi/OneDrive/Desktop/GD32VW553/V1_MQTT_OK/GD32VW55X_Wifi_BLE_SDK/GD32VW55x_RELEASE_V1.0.2/MSDK/plf/src\init_rom_symbol.c **** */
  34:C:/Users/stapi/OneDrive/Desktop/GD32VW553/V1_MQTT_OK/GD32VW55X_Wifi_BLE_SDK/GD32VW55x_RELEASE_V1.0.2/MSDK/plf/src\init_rom_symbol.c **** #define EXTERN
  35:C:/Users/stapi/OneDrive/Desktop/GD32VW553/V1_MQTT_OK/GD32VW55X_Wifi_BLE_SDK/GD32VW55x_RELEASE_V1.0.2/MSDK/plf/src\init_rom_symbol.c **** #include "rom_export_mbedtls.h"
  36:C:/Users/stapi/OneDrive/Desktop/GD32VW553/V1_MQTT_OK/GD32VW55X_Wifi_BLE_SDK/GD32VW55x_RELEASE_V1.0.2/MSDK/plf/src\init_rom_symbol.c **** #include "gd32vw55x_rcu.h"
  37:C:/Users/stapi/OneDrive/Desktop/GD32VW553/V1_MQTT_OK/GD32VW55X_Wifi_BLE_SDK/GD32VW55x_RELEASE_V1.0.2/MSDK/plf/src\init_rom_symbol.c **** #ifndef EXEC_USING_STD_PRINTF
  38:C:/Users/stapi/OneDrive/Desktop/GD32VW553/V1_MQTT_OK/GD32VW55X_Wifi_BLE_SDK/GD32VW55x_RELEASE_V1.0.2/MSDK/plf/src\init_rom_symbol.c **** #include "dbg_print.h"
  39:C:/Users/stapi/OneDrive/Desktop/GD32VW553/V1_MQTT_OK/GD32VW55X_Wifi_BLE_SDK/GD32VW55x_RELEASE_V1.0.2/MSDK/plf/src\init_rom_symbol.c **** #endif
  40:C:/Users/stapi/OneDrive/Desktop/GD32VW553/V1_MQTT_OK/GD32VW55X_Wifi_BLE_SDK/GD32VW55x_RELEASE_V1.0.2/MSDK/plf/src\init_rom_symbol.c **** #include "app_cfg.h"
  41:C:/Users/stapi/OneDrive/Desktop/GD32VW553/V1_MQTT_OK/GD32VW55X_Wifi_BLE_SDK/GD32VW55x_RELEASE_V1.0.2/MSDK/plf/src\init_rom_symbol.c **** 
  42:C:/Users/stapi/OneDrive/Desktop/GD32VW553/V1_MQTT_OK/GD32VW55X_Wifi_BLE_SDK/GD32VW55x_RELEASE_V1.0.2/MSDK/plf/src\init_rom_symbol.c **** static uint8_t ana_version_get(void)
  43:C:/Users/stapi/OneDrive/Desktop/GD32VW553/V1_MQTT_OK/GD32VW55X_Wifi_BLE_SDK/GD32VW55x_RELEASE_V1.0.2/MSDK/plf/src\init_rom_symbol.c **** {
  44:C:/Users/stapi/OneDrive/Desktop/GD32VW553/V1_MQTT_OK/GD32VW55X_Wifi_BLE_SDK/GD32VW55x_RELEASE_V1.0.2/MSDK/plf/src\init_rom_symbol.c ****     return REG32(RCU + 0x00000138U);
  45:C:/Users/stapi/OneDrive/Desktop/GD32VW553/V1_MQTT_OK/GD32VW55X_Wifi_BLE_SDK/GD32VW55x_RELEASE_V1.0.2/MSDK/plf/src\init_rom_symbol.c **** }
  46:C:/Users/stapi/OneDrive/Desktop/GD32VW553/V1_MQTT_OK/GD32VW55X_Wifi_BLE_SDK/GD32VW55x_RELEASE_V1.0.2/MSDK/plf/src\init_rom_symbol.c **** 
  47:C:/Users/stapi/OneDrive/Desktop/GD32VW553/V1_MQTT_OK/GD32VW55X_Wifi_BLE_SDK/GD32VW55x_RELEASE_V1.0.2/MSDK/plf/src\init_rom_symbol.c **** void rom_symbol_init(void)
  48:C:/Users/stapi/OneDrive/Desktop/GD32VW553/V1_MQTT_OK/GD32VW55X_Wifi_BLE_SDK/GD32VW55x_RELEASE_V1.0.2/MSDK/plf/src\init_rom_symbol.c **** {
  16              		.loc 1 48 1
  17              		.cfi_startproc
  18 0000 17030000 		call	t0,__riscv_save_12
  18      E7020300 
  19              		.cfi_offset 27, -52
  20              		.cfi_offset 26, -48
  21              		.cfi_offset 25, -44
  22              		.cfi_offset 24, -40
  23              		.cfi_offset 23, -36
  24              		.cfi_offset 22, -32
  25              		.cfi_offset 21, -28
  26              		.cfi_offset 20, -24
  27              		.cfi_offset 19, -20
  28              		.cfi_offset 18, -16
  29              		.cfi_offset 9, -12
  30              		.cfi_offset 8, -8
  31              		.cfi_offset 1, -4
  32              		.cfi_def_cfa_offset 64
  49:C:/Users/stapi/OneDrive/Desktop/GD32VW553/V1_MQTT_OK/GD32VW55X_Wifi_BLE_SDK/GD32VW55x_RELEASE_V1.0.2/MSDK/plf/src\init_rom_symbol.c **** #ifdef CONFIG_ASIC_CUT_AUTO
  50:C:/Users/stapi/OneDrive/Desktop/GD32VW553/V1_MQTT_OK/GD32VW55X_Wifi_BLE_SDK/GD32VW55x_RELEASE_V1.0.2/MSDK/plf/src\init_rom_symbol.c ****     int acut = (ana_version_get() == 0) ? 1 : 0;
  33              		.loc 1 50 5
  34              	.LBB4:
  35              	.LBB5:
  44:C:/Users/stapi/OneDrive/Desktop/GD32VW553/V1_MQTT_OK/GD32VW55X_Wifi_BLE_SDK/GD32VW55x_RELEASE_V1.0.2/MSDK/plf/src\init_rom_symbol.c **** }
  36              		.loc 1 44 5
  44:C:/Users/stapi/OneDrive/Desktop/GD32VW553/V1_MQTT_OK/GD32VW55X_Wifi_BLE_SDK/GD32VW55x_RELEASE_V1.0.2/MSDK/plf/src\init_rom_symbol.c **** }
  37              		.loc 1 44 12 is_stmt 0
  38 0008 B7470240 		li	a5,1073889280
  39 000c 83A78793 		lw	a5,-1736(a5)
  40              	.LVL0:
  41              	.LBE5:
  42              	.LBE4:
  51:C:/Users/stapi/OneDrive/Desktop/GD32VW553/V1_MQTT_OK/GD32VW55X_Wifi_BLE_SDK/GD32VW55x_RELEASE_V1.0.2/MSDK/plf/src\init_rom_symbol.c **** 
  52:C:/Users/stapi/OneDrive/Desktop/GD32VW553/V1_MQTT_OK/GD32VW55X_Wifi_BLE_SDK/GD32VW55x_RELEASE_V1.0.2/MSDK/plf/src\init_rom_symbol.c ****     if (acut) {
  43              		.loc 1 52 5 is_stmt 1
  48:C:/Users/stapi/OneDrive/Desktop/GD32VW553/V1_MQTT_OK/GD32VW55X_Wifi_BLE_SDK/GD32VW55x_RELEASE_V1.0.2/MSDK/plf/src\init_rom_symbol.c **** #ifdef CONFIG_ASIC_CUT_AUTO
  44              		.loc 1 48 1 is_stmt 0
  45 0010 4111     		addi	sp,sp,-16
  46              		.cfi_def_cfa_offset 80
  47              		.loc 1 52 8
  48 0012 93F7F70F 		andi	a5,a5,0xff
  49 0016 6393075E 		bne	a5,zero,.L2
  53:C:/Users/stapi/OneDrive/Desktop/GD32VW553/V1_MQTT_OK/GD32VW55X_Wifi_BLE_SDK/GD32VW55x_RELEASE_V1.0.2/MSDK/plf/src\init_rom_symbol.c ****         mbedtls_hwpka_flag_set(0
  50              		.loc 1 53 9 is_stmt 1
  51 001a 13053007 		li	a0,115
  52 001e 97000000 		call	mbedtls_hwpka_flag_set
  52      E7800000 
  53              	.LVL1:
  54:C:/Users/stapi/OneDrive/Desktop/GD32VW553/V1_MQTT_OK/GD32VW55X_Wifi_BLE_SDK/GD32VW55x_RELEASE_V1.0.2/MSDK/plf/src\init_rom_symbol.c **** #ifndef CONFIG_NEED_RSA_4096
  55:C:/Users/stapi/OneDrive/Desktop/GD32VW553/V1_MQTT_OK/GD32VW55X_Wifi_BLE_SDK/GD32VW55x_RELEASE_V1.0.2/MSDK/plf/src\init_rom_symbol.c ****                             | MBEDTLS_HW_EXP_MOD
  56:C:/Users/stapi/OneDrive/Desktop/GD32VW553/V1_MQTT_OK/GD32VW55X_Wifi_BLE_SDK/GD32VW55x_RELEASE_V1.0.2/MSDK/plf/src\init_rom_symbol.c ****                             | MBEDTLS_HW_RSA_PRIVATE
  57:C:/Users/stapi/OneDrive/Desktop/GD32VW553/V1_MQTT_OK/GD32VW55X_Wifi_BLE_SDK/GD32VW55x_RELEASE_V1.0.2/MSDK/plf/src\init_rom_symbol.c ****                             | MBEDTLS_HW_MPI_MUL
  58:C:/Users/stapi/OneDrive/Desktop/GD32VW553/V1_MQTT_OK/GD32VW55X_Wifi_BLE_SDK/GD32VW55x_RELEASE_V1.0.2/MSDK/plf/src\init_rom_symbol.c ****  #endif /* CONFIG_NEED_RSA_4096 */
  59:C:/Users/stapi/OneDrive/Desktop/GD32VW553/V1_MQTT_OK/GD32VW55X_Wifi_BLE_SDK/GD32VW55x_RELEASE_V1.0.2/MSDK/plf/src\init_rom_symbol.c ****                             | MBEDTLS_HW_ECP_MUL
  60:C:/Users/stapi/OneDrive/Desktop/GD32VW553/V1_MQTT_OK/GD32VW55X_Wifi_BLE_SDK/GD32VW55x_RELEASE_V1.0.2/MSDK/plf/src\init_rom_symbol.c ****                             | MBEDTLS_HW_ECP_CHECK
  61:C:/Users/stapi/OneDrive/Desktop/GD32VW553/V1_MQTT_OK/GD32VW55X_Wifi_BLE_SDK/GD32VW55x_RELEASE_V1.0.2/MSDK/plf/src\init_rom_symbol.c ****                             );
  62:C:/Users/stapi/OneDrive/Desktop/GD32VW553/V1_MQTT_OK/GD32VW55X_Wifi_BLE_SDK/GD32VW55x_RELEASE_V1.0.2/MSDK/plf/src\init_rom_symbol.c ****     } else {
  63:C:/Users/stapi/OneDrive/Desktop/GD32VW553/V1_MQTT_OK/GD32VW55X_Wifi_BLE_SDK/GD32VW55x_RELEASE_V1.0.2/MSDK/plf/src\init_rom_symbol.c ****         mbedtls_hwpka_flag_set(0
  64:C:/Users/stapi/OneDrive/Desktop/GD32VW553/V1_MQTT_OK/GD32VW55X_Wifi_BLE_SDK/GD32VW55x_RELEASE_V1.0.2/MSDK/plf/src\init_rom_symbol.c **** #ifndef CONFIG_NEED_RSA_4096
  65:C:/Users/stapi/OneDrive/Desktop/GD32VW553/V1_MQTT_OK/GD32VW55X_Wifi_BLE_SDK/GD32VW55x_RELEASE_V1.0.2/MSDK/plf/src\init_rom_symbol.c ****                             | MBEDTLS_HW_EXP_MOD
  66:C:/Users/stapi/OneDrive/Desktop/GD32VW553/V1_MQTT_OK/GD32VW55X_Wifi_BLE_SDK/GD32VW55x_RELEASE_V1.0.2/MSDK/plf/src\init_rom_symbol.c ****                             | MBEDTLS_HW_RSA_PRIVATE
  67:C:/Users/stapi/OneDrive/Desktop/GD32VW553/V1_MQTT_OK/GD32VW55X_Wifi_BLE_SDK/GD32VW55x_RELEASE_V1.0.2/MSDK/plf/src\init_rom_symbol.c ****                             | MBEDTLS_HW_MPI_MUL
  68:C:/Users/stapi/OneDrive/Desktop/GD32VW553/V1_MQTT_OK/GD32VW55X_Wifi_BLE_SDK/GD32VW55x_RELEASE_V1.0.2/MSDK/plf/src\init_rom_symbol.c **** #endif /* CONFIG_NEED_RSA_4096 */
  69:C:/Users/stapi/OneDrive/Desktop/GD32VW553/V1_MQTT_OK/GD32VW55X_Wifi_BLE_SDK/GD32VW55x_RELEASE_V1.0.2/MSDK/plf/src\init_rom_symbol.c ****                             | MBEDTLS_HW_ECDSA_SIGN
  70:C:/Users/stapi/OneDrive/Desktop/GD32VW553/V1_MQTT_OK/GD32VW55X_Wifi_BLE_SDK/GD32VW55x_RELEASE_V1.0.2/MSDK/plf/src\init_rom_symbol.c ****                             | MBEDTLS_HW_ECDSA_VERIFY
  71:C:/Users/stapi/OneDrive/Desktop/GD32VW553/V1_MQTT_OK/GD32VW55X_Wifi_BLE_SDK/GD32VW55x_RELEASE_V1.0.2/MSDK/plf/src\init_rom_symbol.c ****                             | MBEDTLS_HW_ECP_MUL
  72:C:/Users/stapi/OneDrive/Desktop/GD32VW553/V1_MQTT_OK/GD32VW55X_Wifi_BLE_SDK/GD32VW55x_RELEASE_V1.0.2/MSDK/plf/src\init_rom_symbol.c ****                             | MBEDTLS_HW_ECP_CHECK
  73:C:/Users/stapi/OneDrive/Desktop/GD32VW553/V1_MQTT_OK/GD32VW55X_Wifi_BLE_SDK/GD32VW55x_RELEASE_V1.0.2/MSDK/plf/src\init_rom_symbol.c ****                             );
  74:C:/Users/stapi/OneDrive/Desktop/GD32VW553/V1_MQTT_OK/GD32VW55X_Wifi_BLE_SDK/GD32VW55x_RELEASE_V1.0.2/MSDK/plf/src\init_rom_symbol.c ****     }
  75:C:/Users/stapi/OneDrive/Desktop/GD32VW553/V1_MQTT_OK/GD32VW55X_Wifi_BLE_SDK/GD32VW55x_RELEASE_V1.0.2/MSDK/plf/src\init_rom_symbol.c **** 
  76:C:/Users/stapi/OneDrive/Desktop/GD32VW553/V1_MQTT_OK/GD32VW55X_Wifi_BLE_SDK/GD32VW55x_RELEASE_V1.0.2/MSDK/plf/src\init_rom_symbol.c ****     if (acut) {
  54              		.loc 1 76 5
  77:C:/Users/stapi/OneDrive/Desktop/GD32VW553/V1_MQTT_OK/GD32VW55X_Wifi_BLE_SDK/GD32VW55x_RELEASE_V1.0.2/MSDK/plf/src\init_rom_symbol.c **** #ifndef EXEC_USING_STD_PRINTF
  78:C:/Users/stapi/OneDrive/Desktop/GD32VW553/V1_MQTT_OK/GD32VW55X_Wifi_BLE_SDK/GD32VW55x_RELEASE_V1.0.2/MSDK/plf/src\init_rom_symbol.c ****         dbg_print(NOTICE, "Chip: GD32VW55x ACut\r\n");
  79:C:/Users/stapi/OneDrive/Desktop/GD32VW553/V1_MQTT_OK/GD32VW55X_Wifi_BLE_SDK/GD32VW55x_RELEASE_V1.0.2/MSDK/plf/src\init_rom_symbol.c **** #endif
  80:C:/Users/stapi/OneDrive/Desktop/GD32VW553/V1_MQTT_OK/GD32VW55X_Wifi_BLE_SDK/GD32VW55x_RELEASE_V1.0.2/MSDK/plf/src\init_rom_symbol.c ****         ecp_supported_curves = (mbedtls_ecp_curve_info *)0x0bf73eb8;
  55              		.loc 1 80 9
  56              		.loc 1 80 30 is_stmt 0
  57 0026 3745F70B 		li	a0,200753152
  81:C:/Users/stapi/OneDrive/Desktop/GD32VW553/V1_MQTT_OK/GD32VW55X_Wifi_BLE_SDK/GD32VW55x_RELEASE_V1.0.2/MSDK/plf/src\init_rom_symbol.c ****         mbedtls_ecdsa_free_fn = (void *)0x0bf715dc;
  58              		.loc 1 81 31
  59 002a 3713F70B 		li	t1,200740864
  80:C:/Users/stapi/OneDrive/Desktop/GD32VW553/V1_MQTT_OK/GD32VW55X_Wifi_BLE_SDK/GD32VW55x_RELEASE_V1.0.2/MSDK/plf/src\init_rom_symbol.c ****         mbedtls_ecdsa_free_fn = (void *)0x0bf715dc;
  60              		.loc 1 80 30
  61 002e 930285EB 		addi	t0,a0,-328
  62 0032 370E0000 		lui	t3,%hi(.LANCHOR0)
  82:C:/Users/stapi/OneDrive/Desktop/GD32VW553/V1_MQTT_OK/GD32VW55X_Wifi_BLE_SDK/GD32VW55x_RELEASE_V1.0.2/MSDK/plf/src\init_rom_symbol.c ****         mbedtls_ecdsa_from_keypair_fn = (void *)0x0bf7158a;
  83:C:/Users/stapi/OneDrive/Desktop/GD32VW553/V1_MQTT_OK/GD32VW55X_Wifi_BLE_SDK/GD32VW55x_RELEASE_V1.0.2/MSDK/plf/src\init_rom_symbol.c ****         mbedtls_ecdsa_genkey_fn = (void *)0x0bf7154c;
  84:C:/Users/stapi/OneDrive/Desktop/GD32VW553/V1_MQTT_OK/GD32VW55X_Wifi_BLE_SDK/GD32VW55x_RELEASE_V1.0.2/MSDK/plf/src\init_rom_symbol.c ****         mbedtls_ecdsa_init_fn = (void *)0x0bf715d8;
  85:C:/Users/stapi/OneDrive/Desktop/GD32VW553/V1_MQTT_OK/GD32VW55X_Wifi_BLE_SDK/GD32VW55x_RELEASE_V1.0.2/MSDK/plf/src\init_rom_symbol.c ****         mbedtls_ecdsa_read_signature_fn = (void *)0x0bf71546;
  86:C:/Users/stapi/OneDrive/Desktop/GD32VW553/V1_MQTT_OK/GD32VW55X_Wifi_BLE_SDK/GD32VW55x_RELEASE_V1.0.2/MSDK/plf/src\init_rom_symbol.c ****         mbedtls_ecdsa_read_signature_restartable_fn = (void *)0x0bf714a0;
  87:C:/Users/stapi/OneDrive/Desktop/GD32VW553/V1_MQTT_OK/GD32VW55X_Wifi_BLE_SDK/GD32VW55x_RELEASE_V1.0.2/MSDK/plf/src\init_rom_symbol.c ****         mbedtls_ecdsa_sign_fn = (void *)0x0bf70bca;
  88:C:/Users/stapi/OneDrive/Desktop/GD32VW553/V1_MQTT_OK/GD32VW55X_Wifi_BLE_SDK/GD32VW55x_RELEASE_V1.0.2/MSDK/plf/src\init_rom_symbol.c ****         mbedtls_ecdsa_sign_det_fn = (void *)0x0bf7108c;
  89:C:/Users/stapi/OneDrive/Desktop/GD32VW553/V1_MQTT_OK/GD32VW55X_Wifi_BLE_SDK/GD32VW55x_RELEASE_V1.0.2/MSDK/plf/src\init_rom_symbol.c ****         mbedtls_ecdsa_verify_fn = (void *)0x0bf71090;
  90:C:/Users/stapi/OneDrive/Desktop/GD32VW553/V1_MQTT_OK/GD32VW55X_Wifi_BLE_SDK/GD32VW55x_RELEASE_V1.0.2/MSDK/plf/src\init_rom_symbol.c ****         mbedtls_ecdsa_write_signature_fn = (void *)0x0bf71470;
  91:C:/Users/stapi/OneDrive/Desktop/GD32VW553/V1_MQTT_OK/GD32VW55X_Wifi_BLE_SDK/GD32VW55x_RELEASE_V1.0.2/MSDK/plf/src\init_rom_symbol.c ****         mbedtls_ecdsa_write_signature_det_fn = (void *)0x0bf71480;
  92:C:/Users/stapi/OneDrive/Desktop/GD32VW553/V1_MQTT_OK/GD32VW55X_Wifi_BLE_SDK/GD32VW55x_RELEASE_V1.0.2/MSDK/plf/src\init_rom_symbol.c ****         mbedtls_ecdsa_write_signature_restartable_fn = (void *)0x0bf713aa;
  93:C:/Users/stapi/OneDrive/Desktop/GD32VW553/V1_MQTT_OK/GD32VW55X_Wifi_BLE_SDK/GD32VW55x_RELEASE_V1.0.2/MSDK/plf/src\init_rom_symbol.c ****         mbedtls_ecp_check_privkey_fn = (void *)0x0bf72c3e;
  63              		.loc 1 93 38
  64 0036 3736F70B 		li	a2,200749056
  81:C:/Users/stapi/OneDrive/Desktop/GD32VW553/V1_MQTT_OK/GD32VW55X_Wifi_BLE_SDK/GD32VW55x_RELEASE_V1.0.2/MSDK/plf/src\init_rom_symbol.c ****         mbedtls_ecdsa_from_keypair_fn = (void *)0x0bf7158a;
  65              		.loc 1 81 31
  66 003a 930FC35D 		addi	t6,t1,1500
  80:C:/Users/stapi/OneDrive/Desktop/GD32VW553/V1_MQTT_OK/GD32VW55X_Wifi_BLE_SDK/GD32VW55x_RELEASE_V1.0.2/MSDK/plf/src\init_rom_symbol.c ****         mbedtls_ecdsa_free_fn = (void *)0x0bf715dc;
  67              		.loc 1 80 30
  68 003e 23205E00 		sw	t0,%lo(.LANCHOR0)(t3)
  81:C:/Users/stapi/OneDrive/Desktop/GD32VW553/V1_MQTT_OK/GD32VW55X_Wifi_BLE_SDK/GD32VW55x_RELEASE_V1.0.2/MSDK/plf/src\init_rom_symbol.c ****         mbedtls_ecdsa_from_keypair_fn = (void *)0x0bf7158a;
  69              		.loc 1 81 9 is_stmt 1
  81:C:/Users/stapi/OneDrive/Desktop/GD32VW553/V1_MQTT_OK/GD32VW55X_Wifi_BLE_SDK/GD32VW55x_RELEASE_V1.0.2/MSDK/plf/src\init_rom_symbol.c ****         mbedtls_ecdsa_from_keypair_fn = (void *)0x0bf7158a;
  70              		.loc 1 81 31 is_stmt 0
  71 0042 370E0000 		lui	t3,%hi(.LANCHOR1)
  94:C:/Users/stapi/OneDrive/Desktop/GD32VW553/V1_MQTT_OK/GD32VW55X_Wifi_BLE_SDK/GD32VW55x_RELEASE_V1.0.2/MSDK/plf/src\init_rom_symbol.c ****         mbedtls_ecp_check_pub_priv_fn = (void *)0x0bf73c8e;
  95:C:/Users/stapi/OneDrive/Desktop/GD32VW553/V1_MQTT_OK/GD32VW55X_Wifi_BLE_SDK/GD32VW55x_RELEASE_V1.0.2/MSDK/plf/src\init_rom_symbol.c ****         mbedtls_ecp_check_pubkey_fn = (void *)0x0bf72f6a;
  96:C:/Users/stapi/OneDrive/Desktop/GD32VW553/V1_MQTT_OK/GD32VW55X_Wifi_BLE_SDK/GD32VW55x_RELEASE_V1.0.2/MSDK/plf/src\init_rom_symbol.c ****         mbedtls_ecp_copy_fn = (void *)0x0bf72172;
  72              		.loc 1 96 29
  73 0046 B725F70B 		li	a1,200744960
  93:C:/Users/stapi/OneDrive/Desktop/GD32VW553/V1_MQTT_OK/GD32VW55X_Wifi_BLE_SDK/GD32VW55x_RELEASE_V1.0.2/MSDK/plf/src\init_rom_symbol.c ****         mbedtls_ecp_check_pub_priv_fn = (void *)0x0bf73c8e;
  74              		.loc 1 93 38
  75 004a 130FE6C3 		addi	t5,a2,-962
  81:C:/Users/stapi/OneDrive/Desktop/GD32VW553/V1_MQTT_OK/GD32VW55X_Wifi_BLE_SDK/GD32VW55x_RELEASE_V1.0.2/MSDK/plf/src\init_rom_symbol.c ****         mbedtls_ecdsa_from_keypair_fn = (void *)0x0bf7158a;
  76              		.loc 1 81 31
  77 004e 2320FE01 		sw	t6,%lo(.LANCHOR1)(t3)
  82:C:/Users/stapi/OneDrive/Desktop/GD32VW553/V1_MQTT_OK/GD32VW55X_Wifi_BLE_SDK/GD32VW55x_RELEASE_V1.0.2/MSDK/plf/src\init_rom_symbol.c ****         mbedtls_ecdsa_genkey_fn = (void *)0x0bf7154c;
  78              		.loc 1 82 9 is_stmt 1
  93:C:/Users/stapi/OneDrive/Desktop/GD32VW553/V1_MQTT_OK/GD32VW55X_Wifi_BLE_SDK/GD32VW55x_RELEASE_V1.0.2/MSDK/plf/src\init_rom_symbol.c ****         mbedtls_ecp_check_pub_priv_fn = (void *)0x0bf73c8e;
  79              		.loc 1 93 38 is_stmt 0
  80 0052 370E0000 		lui	t3,%hi(.LANCHOR13)
  81              		.loc 1 96 29
  82 0056 938E2517 		addi	t4,a1,370
  93:C:/Users/stapi/OneDrive/Desktop/GD32VW553/V1_MQTT_OK/GD32VW55X_Wifi_BLE_SDK/GD32VW55x_RELEASE_V1.0.2/MSDK/plf/src\init_rom_symbol.c ****         mbedtls_ecp_check_pub_priv_fn = (void *)0x0bf73c8e;
  83              		.loc 1 93 38
  84 005a 2320EE01 		sw	t5,%lo(.LANCHOR13)(t3)
  85              		.loc 1 96 29
  86 005e 370E0000 		lui	t3,%hi(.LANCHOR16)
  87 0062 2320DE01 		sw	t4,%lo(.LANCHOR16)(t3)
  82:C:/Users/stapi/OneDrive/Desktop/GD32VW553/V1_MQTT_OK/GD32VW55X_Wifi_BLE_SDK/GD32VW55x_RELEASE_V1.0.2/MSDK/plf/src\init_rom_symbol.c ****         mbedtls_ecdsa_genkey_fn = (void *)0x0bf7154c;
  88              		.loc 1 82 39
  89 0066 930EA358 		addi	t4,t1,1418
  90 006a 370E0000 		lui	t3,%hi(.LANCHOR2)
  91 006e 2320DE01 		sw	t4,%lo(.LANCHOR2)(t3)
  83:C:/Users/stapi/OneDrive/Desktop/GD32VW553/V1_MQTT_OK/GD32VW55X_Wifi_BLE_SDK/GD32VW55x_RELEASE_V1.0.2/MSDK/plf/src\init_rom_symbol.c ****         mbedtls_ecdsa_init_fn = (void *)0x0bf715d8;
  92              		.loc 1 83 9 is_stmt 1
  83:C:/Users/stapi/OneDrive/Desktop/GD32VW553/V1_MQTT_OK/GD32VW55X_Wifi_BLE_SDK/GD32VW55x_RELEASE_V1.0.2/MSDK/plf/src\init_rom_symbol.c ****         mbedtls_ecdsa_init_fn = (void *)0x0bf715d8;
  93              		.loc 1 83 33 is_stmt 0
  94 0072 930EC354 		addi	t4,t1,1356
  95 0076 370E0000 		lui	t3,%hi(.LANCHOR3)
  96 007a 2320DE01 		sw	t4,%lo(.LANCHOR3)(t3)
  84:C:/Users/stapi/OneDrive/Desktop/GD32VW553/V1_MQTT_OK/GD32VW55X_Wifi_BLE_SDK/GD32VW55x_RELEASE_V1.0.2/MSDK/plf/src\init_rom_symbol.c ****         mbedtls_ecdsa_read_signature_fn = (void *)0x0bf71546;
  97              		.loc 1 84 9 is_stmt 1
  84:C:/Users/stapi/OneDrive/Desktop/GD32VW553/V1_MQTT_OK/GD32VW55X_Wifi_BLE_SDK/GD32VW55x_RELEASE_V1.0.2/MSDK/plf/src\init_rom_symbol.c ****         mbedtls_ecdsa_read_signature_fn = (void *)0x0bf71546;
  98              		.loc 1 84 31 is_stmt 0
  99 007e 930E835D 		addi	t4,t1,1496
 100 0082 370E0000 		lui	t3,%hi(.LANCHOR4)
 101 0086 2320DE01 		sw	t4,%lo(.LANCHOR4)(t3)
  85:C:/Users/stapi/OneDrive/Desktop/GD32VW553/V1_MQTT_OK/GD32VW55X_Wifi_BLE_SDK/GD32VW55x_RELEASE_V1.0.2/MSDK/plf/src\init_rom_symbol.c ****         mbedtls_ecdsa_read_signature_restartable_fn = (void *)0x0bf714a0;
 102              		.loc 1 85 9 is_stmt 1
  85:C:/Users/stapi/OneDrive/Desktop/GD32VW553/V1_MQTT_OK/GD32VW55X_Wifi_BLE_SDK/GD32VW55x_RELEASE_V1.0.2/MSDK/plf/src\init_rom_symbol.c ****         mbedtls_ecdsa_read_signature_restartable_fn = (void *)0x0bf714a0;
 103              		.loc 1 85 41 is_stmt 0
 104 008a 930E6354 		addi	t4,t1,1350
 105 008e 370E0000 		lui	t3,%hi(.LANCHOR5)
 106 0092 2320DE01 		sw	t4,%lo(.LANCHOR5)(t3)
  86:C:/Users/stapi/OneDrive/Desktop/GD32VW553/V1_MQTT_OK/GD32VW55X_Wifi_BLE_SDK/GD32VW55x_RELEASE_V1.0.2/MSDK/plf/src\init_rom_symbol.c ****         mbedtls_ecdsa_sign_fn = (void *)0x0bf70bca;
 107              		.loc 1 86 9 is_stmt 1
  86:C:/Users/stapi/OneDrive/Desktop/GD32VW553/V1_MQTT_OK/GD32VW55X_Wifi_BLE_SDK/GD32VW55x_RELEASE_V1.0.2/MSDK/plf/src\init_rom_symbol.c ****         mbedtls_ecdsa_sign_fn = (void *)0x0bf70bca;
 108              		.loc 1 86 53 is_stmt 0
 109 0096 930E034A 		addi	t4,t1,1184
 110 009a 370E0000 		lui	t3,%hi(.LANCHOR6)
 111 009e 2320DE01 		sw	t4,%lo(.LANCHOR6)(t3)
  87:C:/Users/stapi/OneDrive/Desktop/GD32VW553/V1_MQTT_OK/GD32VW55X_Wifi_BLE_SDK/GD32VW55x_RELEASE_V1.0.2/MSDK/plf/src\init_rom_symbol.c ****         mbedtls_ecdsa_sign_det_fn = (void *)0x0bf7108c;
 112              		.loc 1 87 9 is_stmt 1
  87:C:/Users/stapi/OneDrive/Desktop/GD32VW553/V1_MQTT_OK/GD32VW55X_Wifi_BLE_SDK/GD32VW55x_RELEASE_V1.0.2/MSDK/plf/src\init_rom_symbol.c ****         mbedtls_ecdsa_sign_det_fn = (void *)0x0bf7108c;
 113              		.loc 1 87 31 is_stmt 0
 114 00a2 930EA3BC 		addi	t4,t1,-1078
 115 00a6 370E0000 		lui	t3,%hi(.LANCHOR7)
 116 00aa 2320DE01 		sw	t4,%lo(.LANCHOR7)(t3)
  88:C:/Users/stapi/OneDrive/Desktop/GD32VW553/V1_MQTT_OK/GD32VW55X_Wifi_BLE_SDK/GD32VW55x_RELEASE_V1.0.2/MSDK/plf/src\init_rom_symbol.c ****         mbedtls_ecdsa_verify_fn = (void *)0x0bf71090;
 117              		.loc 1 88 9 is_stmt 1
  88:C:/Users/stapi/OneDrive/Desktop/GD32VW553/V1_MQTT_OK/GD32VW55X_Wifi_BLE_SDK/GD32VW55x_RELEASE_V1.0.2/MSDK/plf/src\init_rom_symbol.c ****         mbedtls_ecdsa_verify_fn = (void *)0x0bf71090;
 118              		.loc 1 88 35 is_stmt 0
 119 00ae 930EC308 		addi	t4,t1,140
 120 00b2 370E0000 		lui	t3,%hi(.LANCHOR8)
 121 00b6 2320DE01 		sw	t4,%lo(.LANCHOR8)(t3)
  89:C:/Users/stapi/OneDrive/Desktop/GD32VW553/V1_MQTT_OK/GD32VW55X_Wifi_BLE_SDK/GD32VW55x_RELEASE_V1.0.2/MSDK/plf/src\init_rom_symbol.c ****         mbedtls_ecdsa_write_signature_fn = (void *)0x0bf71470;
 122              		.loc 1 89 9 is_stmt 1
  89:C:/Users/stapi/OneDrive/Desktop/GD32VW553/V1_MQTT_OK/GD32VW55X_Wifi_BLE_SDK/GD32VW55x_RELEASE_V1.0.2/MSDK/plf/src\init_rom_symbol.c ****         mbedtls_ecdsa_write_signature_fn = (void *)0x0bf71470;
 123              		.loc 1 89 33 is_stmt 0
 124 00ba 930E0309 		addi	t4,t1,144
 125 00be 370E0000 		lui	t3,%hi(.LANCHOR9)
 126 00c2 2320DE01 		sw	t4,%lo(.LANCHOR9)(t3)
  90:C:/Users/stapi/OneDrive/Desktop/GD32VW553/V1_MQTT_OK/GD32VW55X_Wifi_BLE_SDK/GD32VW55x_RELEASE_V1.0.2/MSDK/plf/src\init_rom_symbol.c ****         mbedtls_ecdsa_write_signature_det_fn = (void *)0x0bf71480;
 127              		.loc 1 90 9 is_stmt 1
  90:C:/Users/stapi/OneDrive/Desktop/GD32VW553/V1_MQTT_OK/GD32VW55X_Wifi_BLE_SDK/GD32VW55x_RELEASE_V1.0.2/MSDK/plf/src\init_rom_symbol.c ****         mbedtls_ecdsa_write_signature_det_fn = (void *)0x0bf71480;
 128              		.loc 1 90 42 is_stmt 0
 129 00c6 930E0347 		addi	t4,t1,1136
 130 00ca 370E0000 		lui	t3,%hi(.LANCHOR10)
 131 00ce 2320DE01 		sw	t4,%lo(.LANCHOR10)(t3)
  91:C:/Users/stapi/OneDrive/Desktop/GD32VW553/V1_MQTT_OK/GD32VW55X_Wifi_BLE_SDK/GD32VW55x_RELEASE_V1.0.2/MSDK/plf/src\init_rom_symbol.c ****         mbedtls_ecdsa_write_signature_restartable_fn = (void *)0x0bf713aa;
 132              		.loc 1 91 9 is_stmt 1
  91:C:/Users/stapi/OneDrive/Desktop/GD32VW553/V1_MQTT_OK/GD32VW55X_Wifi_BLE_SDK/GD32VW55x_RELEASE_V1.0.2/MSDK/plf/src\init_rom_symbol.c ****         mbedtls_ecdsa_write_signature_restartable_fn = (void *)0x0bf713aa;
 133              		.loc 1 91 46 is_stmt 0
 134 00d2 930E0348 		addi	t4,t1,1152
 135 00d6 370E0000 		lui	t3,%hi(.LANCHOR11)
 136 00da 2320DE01 		sw	t4,%lo(.LANCHOR11)(t3)
  92:C:/Users/stapi/OneDrive/Desktop/GD32VW553/V1_MQTT_OK/GD32VW55X_Wifi_BLE_SDK/GD32VW55x_RELEASE_V1.0.2/MSDK/plf/src\init_rom_symbol.c ****         mbedtls_ecp_check_privkey_fn = (void *)0x0bf72c3e;
 137              		.loc 1 92 9 is_stmt 1
  92:C:/Users/stapi/OneDrive/Desktop/GD32VW553/V1_MQTT_OK/GD32VW55X_Wifi_BLE_SDK/GD32VW55x_RELEASE_V1.0.2/MSDK/plf/src\init_rom_symbol.c ****         mbedtls_ecp_check_privkey_fn = (void *)0x0bf72c3e;
 138              		.loc 1 92 54 is_stmt 0
 139 00de 1303A33A 		addi	t1,t1,938
 140 00e2 370E0000 		lui	t3,%hi(.LANCHOR12)
 141 00e6 23206E00 		sw	t1,%lo(.LANCHOR12)(t3)
  93:C:/Users/stapi/OneDrive/Desktop/GD32VW553/V1_MQTT_OK/GD32VW55X_Wifi_BLE_SDK/GD32VW55x_RELEASE_V1.0.2/MSDK/plf/src\init_rom_symbol.c ****         mbedtls_ecp_check_pub_priv_fn = (void *)0x0bf73c8e;
 142              		.loc 1 93 9 is_stmt 1
  94:C:/Users/stapi/OneDrive/Desktop/GD32VW553/V1_MQTT_OK/GD32VW55X_Wifi_BLE_SDK/GD32VW55x_RELEASE_V1.0.2/MSDK/plf/src\init_rom_symbol.c ****         mbedtls_ecp_check_pubkey_fn = (void *)0x0bf72f6a;
 143              		.loc 1 94 9
  97:C:/Users/stapi/OneDrive/Desktop/GD32VW553/V1_MQTT_OK/GD32VW55X_Wifi_BLE_SDK/GD32VW55x_RELEASE_V1.0.2/MSDK/plf/src\init_rom_symbol.c ****         mbedtls_ecp_curve_info_from_grp_id_fn = (void *)0x0bf71f7e;
 144              		.loc 1 97 47 is_stmt 0
 145 00ea 138EE5F7 		addi	t3,a1,-130
 146 00ee 37030000 		lui	t1,%hi(.LANCHOR17)
 147 00f2 2320C301 		sw	t3,%lo(.LANCHOR17)(t1)
  98:C:/Users/stapi/OneDrive/Desktop/GD32VW553/V1_MQTT_OK/GD32VW55X_Wifi_BLE_SDK/GD32VW55x_RELEASE_V1.0.2/MSDK/plf/src\init_rom_symbol.c ****         mbedtls_ecp_curve_info_from_name_fn = (void *)0x0bf71fda;
 148              		.loc 1 98 45
 149 00f6 138EA5FD 		addi	t3,a1,-38
 150 00fa 37030000 		lui	t1,%hi(.LANCHOR18)
 151 00fe 2320C301 		sw	t3,%lo(.LANCHOR18)(t1)
  99:C:/Users/stapi/OneDrive/Desktop/GD32VW553/V1_MQTT_OK/GD32VW55X_Wifi_BLE_SDK/GD32VW55x_RELEASE_V1.0.2/MSDK/plf/src\init_rom_symbol.c ****         mbedtls_ecp_curve_info_from_tls_id_fn = (void *)0x0bf71faa;
 152              		.loc 1 99 47
 153 0102 138EA5FA 		addi	t3,a1,-86
 154 0106 37030000 		lui	t1,%hi(.LANCHOR19)
 155 010a 2320C301 		sw	t3,%lo(.LANCHOR19)(t1)
 100:C:/Users/stapi/OneDrive/Desktop/GD32VW553/V1_MQTT_OK/GD32VW55X_Wifi_BLE_SDK/GD32VW55x_RELEASE_V1.0.2/MSDK/plf/src\init_rom_symbol.c ****         mbedtls_ecp_curve_list_fn = (void *)0x0bf71f0a;
 156              		.loc 1 100 35
 157 010e 138EA5F0 		addi	t3,a1,-246
 158 0112 37030000 		lui	t1,%hi(.LANCHOR20)
 159 0116 2320C301 		sw	t3,%lo(.LANCHOR20)(t1)
 101:C:/Users/stapi/OneDrive/Desktop/GD32VW553/V1_MQTT_OK/GD32VW55X_Wifi_BLE_SDK/GD32VW55x_RELEASE_V1.0.2/MSDK/plf/src\init_rom_symbol.c ****         mbedtls_ecp_gen_key_fn = (void *)0x0bf73c48;
 102:C:/Users/stapi/OneDrive/Desktop/GD32VW553/V1_MQTT_OK/GD32VW55X_Wifi_BLE_SDK/GD32VW55x_RELEASE_V1.0.2/MSDK/plf/src\init_rom_symbol.c ****         mbedtls_ecp_gen_keypair_fn = (void *)0x0bf73c38;
 103:C:/Users/stapi/OneDrive/Desktop/GD32VW553/V1_MQTT_OK/GD32VW55X_Wifi_BLE_SDK/GD32VW55x_RELEASE_V1.0.2/MSDK/plf/src\init_rom_symbol.c ****         mbedtls_ecp_gen_keypair_base_fn = (void *)0x0bf73bdc;
 104:C:/Users/stapi/OneDrive/Desktop/GD32VW553/V1_MQTT_OK/GD32VW55X_Wifi_BLE_SDK/GD32VW55x_RELEASE_V1.0.2/MSDK/plf/src\init_rom_symbol.c ****         mbedtls_ecp_gen_privkey_fn = (void *)0x0bf72cbc;
 105:C:/Users/stapi/OneDrive/Desktop/GD32VW553/V1_MQTT_OK/GD32VW55X_Wifi_BLE_SDK/GD32VW55x_RELEASE_V1.0.2/MSDK/plf/src\init_rom_symbol.c ****         mbedtls_ecp_group_copy_fn = (void *)0x0bf721b0;
 160              		.loc 1 105 35
 161 011a 138E051B 		addi	t3,a1,432
 162 011e 37030000 		lui	t1,%hi(.LANCHOR25)
 163 0122 2320C301 		sw	t3,%lo(.LANCHOR25)(t1)
 106:C:/Users/stapi/OneDrive/Desktop/GD32VW553/V1_MQTT_OK/GD32VW55X_Wifi_BLE_SDK/GD32VW55x_RELEASE_V1.0.2/MSDK/plf/src\init_rom_symbol.c ****         mbedtls_ecp_group_free_fn = (void *)0x0bf720cc;
 164              		.loc 1 106 35
 165 0126 138EC50C 		addi	t3,a1,204
 166 012a 37030000 		lui	t1,%hi(.LANCHOR26)
 167 012e 2320C301 		sw	t3,%lo(.LANCHOR26)(t1)
  94:C:/Users/stapi/OneDrive/Desktop/GD32VW553/V1_MQTT_OK/GD32VW55X_Wifi_BLE_SDK/GD32VW55x_RELEASE_V1.0.2/MSDK/plf/src\init_rom_symbol.c ****         mbedtls_ecp_check_pubkey_fn = (void *)0x0bf72f6a;
 168              		.loc 1 94 39
 169 0132 130CE5C8 		addi	s8,a0,-882
 107:C:/Users/stapi/OneDrive/Desktop/GD32VW553/V1_MQTT_OK/GD32VW55X_Wifi_BLE_SDK/GD32VW55x_RELEASE_V1.0.2/MSDK/plf/src\init_rom_symbol.c ****         mbedtls_ecp_group_init_fn = (void *)0x0bf72044;
 170              		.loc 1 107 35
 171 0136 138E4504 		addi	t3,a1,68
 172 013a 37030000 		lui	t1,%hi(.LANCHOR27)
  94:C:/Users/stapi/OneDrive/Desktop/GD32VW553/V1_MQTT_OK/GD32VW55X_Wifi_BLE_SDK/GD32VW55x_RELEASE_V1.0.2/MSDK/plf/src\init_rom_symbol.c ****         mbedtls_ecp_check_pubkey_fn = (void *)0x0bf72f6a;
 173              		.loc 1 94 39
 174 013e B70B0000 		lui	s7,%hi(.LANCHOR14)
 175              		.loc 1 107 35
 176 0142 2320C301 		sw	t3,%lo(.LANCHOR27)(t1)
  94:C:/Users/stapi/OneDrive/Desktop/GD32VW553/V1_MQTT_OK/GD32VW55X_Wifi_BLE_SDK/GD32VW55x_RELEASE_V1.0.2/MSDK/plf/src\init_rom_symbol.c ****         mbedtls_ecp_check_pubkey_fn = (void *)0x0bf72f6a;
 177              		.loc 1 94 39
 178 0146 23A08B01 		sw	s8,%lo(.LANCHOR14)(s7)
  95:C:/Users/stapi/OneDrive/Desktop/GD32VW553/V1_MQTT_OK/GD32VW55X_Wifi_BLE_SDK/GD32VW55x_RELEASE_V1.0.2/MSDK/plf/src\init_rom_symbol.c ****         mbedtls_ecp_copy_fn = (void *)0x0bf72172;
 179              		.loc 1 95 9 is_stmt 1
 108:C:/Users/stapi/OneDrive/Desktop/GD32VW553/V1_MQTT_OK/GD32VW55X_Wifi_BLE_SDK/GD32VW55x_RELEASE_V1.0.2/MSDK/plf/src\init_rom_symbol.c ****         mbedtls_ecp_grp_id_list_fn = (void *)0x0bf71f32;
 180              		.loc 1 108 36 is_stmt 0
 181 014a 138E25F3 		addi	t3,a1,-206
 101:C:/Users/stapi/OneDrive/Desktop/GD32VW553/V1_MQTT_OK/GD32VW55X_Wifi_BLE_SDK/GD32VW55x_RELEASE_V1.0.2/MSDK/plf/src\init_rom_symbol.c ****         mbedtls_ecp_gen_keypair_fn = (void *)0x0bf73c38;
 182              		.loc 1 101 32
 183 014e 130C85C4 		addi	s8,a0,-952
  95:C:/Users/stapi/OneDrive/Desktop/GD32VW553/V1_MQTT_OK/GD32VW55X_Wifi_BLE_SDK/GD32VW55x_RELEASE_V1.0.2/MSDK/plf/src\init_rom_symbol.c ****         mbedtls_ecp_copy_fn = (void *)0x0bf72172;
 184              		.loc 1 95 37
 185 0152 930DA6F6 		addi	s11,a2,-150
 186              		.loc 1 108 36
 187 0156 37030000 		lui	t1,%hi(.LANCHOR28)
 101:C:/Users/stapi/OneDrive/Desktop/GD32VW553/V1_MQTT_OK/GD32VW55X_Wifi_BLE_SDK/GD32VW55x_RELEASE_V1.0.2/MSDK/plf/src\init_rom_symbol.c ****         mbedtls_ecp_gen_keypair_fn = (void *)0x0bf73c38;
 188              		.loc 1 101 32
 189 015a B70B0000 		lui	s7,%hi(.LANCHOR21)
  95:C:/Users/stapi/OneDrive/Desktop/GD32VW553/V1_MQTT_OK/GD32VW55X_Wifi_BLE_SDK/GD32VW55x_RELEASE_V1.0.2/MSDK/plf/src\init_rom_symbol.c ****         mbedtls_ecp_copy_fn = (void *)0x0bf72172;
 190              		.loc 1 95 37
 191 015e 370D0000 		lui	s10,%hi(.LANCHOR15)
 192              		.loc 1 108 36
 193 0162 2320C301 		sw	t3,%lo(.LANCHOR28)(t1)
 101:C:/Users/stapi/OneDrive/Desktop/GD32VW553/V1_MQTT_OK/GD32VW55X_Wifi_BLE_SDK/GD32VW55x_RELEASE_V1.0.2/MSDK/plf/src\init_rom_symbol.c ****         mbedtls_ecp_gen_keypair_fn = (void *)0x0bf73c38;
 194              		.loc 1 101 32
 195 0166 23A08B01 		sw	s8,%lo(.LANCHOR21)(s7)
 109:C:/Users/stapi/OneDrive/Desktop/GD32VW553/V1_MQTT_OK/GD32VW55X_Wifi_BLE_SDK/GD32VW55x_RELEASE_V1.0.2/MSDK/plf/src\init_rom_symbol.c ****         mbedtls_ecp_is_zero_fn = (void *)0x0bf728e4;
 110:C:/Users/stapi/OneDrive/Desktop/GD32VW553/V1_MQTT_OK/GD32VW55X_Wifi_BLE_SDK/GD32VW55x_RELEASE_V1.0.2/MSDK/plf/src\init_rom_symbol.c ****         mbedtls_ecp_keypair_free_fn = (void *)0x0bf7214c;
 196              		.loc 1 110 37
 197 016a 138EC514 		addi	t3,a1,332
 102:C:/Users/stapi/OneDrive/Desktop/GD32VW553/V1_MQTT_OK/GD32VW55X_Wifi_BLE_SDK/GD32VW55x_RELEASE_V1.0.2/MSDK/plf/src\init_rom_symbol.c ****         mbedtls_ecp_gen_keypair_base_fn = (void *)0x0bf73bdc;
 198              		.loc 1 102 36
 199 016e 130C85C3 		addi	s8,a0,-968
  95:C:/Users/stapi/OneDrive/Desktop/GD32VW553/V1_MQTT_OK/GD32VW55X_Wifi_BLE_SDK/GD32VW55x_RELEASE_V1.0.2/MSDK/plf/src\init_rom_symbol.c ****         mbedtls_ecp_copy_fn = (void *)0x0bf72172;
 200              		.loc 1 95 37
 201 0172 2320BD01 		sw	s11,%lo(.LANCHOR15)(s10)
  96:C:/Users/stapi/OneDrive/Desktop/GD32VW553/V1_MQTT_OK/GD32VW55X_Wifi_BLE_SDK/GD32VW55x_RELEASE_V1.0.2/MSDK/plf/src\init_rom_symbol.c ****         mbedtls_ecp_curve_info_from_grp_id_fn = (void *)0x0bf71f7e;
 202              		.loc 1 96 9 is_stmt 1
  97:C:/Users/stapi/OneDrive/Desktop/GD32VW553/V1_MQTT_OK/GD32VW55X_Wifi_BLE_SDK/GD32VW55x_RELEASE_V1.0.2/MSDK/plf/src\init_rom_symbol.c ****         mbedtls_ecp_curve_info_from_name_fn = (void *)0x0bf71fda;
 203              		.loc 1 97 9
  98:C:/Users/stapi/OneDrive/Desktop/GD32VW553/V1_MQTT_OK/GD32VW55X_Wifi_BLE_SDK/GD32VW55x_RELEASE_V1.0.2/MSDK/plf/src\init_rom_symbol.c ****         mbedtls_ecp_curve_info_from_tls_id_fn = (void *)0x0bf71faa;
 204              		.loc 1 98 9
  99:C:/Users/stapi/OneDrive/Desktop/GD32VW553/V1_MQTT_OK/GD32VW55X_Wifi_BLE_SDK/GD32VW55x_RELEASE_V1.0.2/MSDK/plf/src\init_rom_symbol.c ****         mbedtls_ecp_curve_list_fn = (void *)0x0bf71f0a;
 205              		.loc 1 99 9
 100:C:/Users/stapi/OneDrive/Desktop/GD32VW553/V1_MQTT_OK/GD32VW55X_Wifi_BLE_SDK/GD32VW55x_RELEASE_V1.0.2/MSDK/plf/src\init_rom_symbol.c ****         mbedtls_ecp_gen_key_fn = (void *)0x0bf73c48;
 206              		.loc 1 100 9
 101:C:/Users/stapi/OneDrive/Desktop/GD32VW553/V1_MQTT_OK/GD32VW55X_Wifi_BLE_SDK/GD32VW55x_RELEASE_V1.0.2/MSDK/plf/src\init_rom_symbol.c ****         mbedtls_ecp_gen_keypair_fn = (void *)0x0bf73c38;
 207              		.loc 1 101 9
 102:C:/Users/stapi/OneDrive/Desktop/GD32VW553/V1_MQTT_OK/GD32VW55X_Wifi_BLE_SDK/GD32VW55x_RELEASE_V1.0.2/MSDK/plf/src\init_rom_symbol.c ****         mbedtls_ecp_gen_keypair_base_fn = (void *)0x0bf73bdc;
 208              		.loc 1 102 9
 103:C:/Users/stapi/OneDrive/Desktop/GD32VW553/V1_MQTT_OK/GD32VW55X_Wifi_BLE_SDK/GD32VW55x_RELEASE_V1.0.2/MSDK/plf/src\init_rom_symbol.c ****         mbedtls_ecp_gen_privkey_fn = (void *)0x0bf72cbc;
 209              		.loc 1 103 9
 104:C:/Users/stapi/OneDrive/Desktop/GD32VW553/V1_MQTT_OK/GD32VW55X_Wifi_BLE_SDK/GD32VW55x_RELEASE_V1.0.2/MSDK/plf/src\init_rom_symbol.c ****         mbedtls_ecp_group_copy_fn = (void *)0x0bf721b0;
 210              		.loc 1 104 9
 211              		.loc 1 110 37 is_stmt 0
 212 0176 37030000 		lui	t1,%hi(.LANCHOR30)
 104:C:/Users/stapi/OneDrive/Desktop/GD32VW553/V1_MQTT_OK/GD32VW55X_Wifi_BLE_SDK/GD32VW55x_RELEASE_V1.0.2/MSDK/plf/src\init_rom_symbol.c ****         mbedtls_ecp_group_copy_fn = (void *)0x0bf721b0;
 213              		.loc 1 104 36
 214 017a 930DC6CB 		addi	s11,a2,-836
 102:C:/Users/stapi/OneDrive/Desktop/GD32VW553/V1_MQTT_OK/GD32VW55X_Wifi_BLE_SDK/GD32VW55x_RELEASE_V1.0.2/MSDK/plf/src\init_rom_symbol.c ****         mbedtls_ecp_gen_keypair_base_fn = (void *)0x0bf73bdc;
 215              		.loc 1 102 36
 216 017e B70B0000 		lui	s7,%hi(.LANCHOR22)
 104:C:/Users/stapi/OneDrive/Desktop/GD32VW553/V1_MQTT_OK/GD32VW55X_Wifi_BLE_SDK/GD32VW55x_RELEASE_V1.0.2/MSDK/plf/src\init_rom_symbol.c ****         mbedtls_ecp_group_copy_fn = (void *)0x0bf721b0;
 217              		.loc 1 104 36
 218 0182 370D0000 		lui	s10,%hi(.LANCHOR24)
 219              		.loc 1 110 37
 220 0186 2320C301 		sw	t3,%lo(.LANCHOR30)(t1)
 102:C:/Users/stapi/OneDrive/Desktop/GD32VW553/V1_MQTT_OK/GD32VW55X_Wifi_BLE_SDK/GD32VW55x_RELEASE_V1.0.2/MSDK/plf/src\init_rom_symbol.c ****         mbedtls_ecp_gen_keypair_base_fn = (void *)0x0bf73bdc;
 221              		.loc 1 102 36
 222 018a 23A08B01 		sw	s8,%lo(.LANCHOR22)(s7)
 111:C:/Users/stapi/OneDrive/Desktop/GD32VW553/V1_MQTT_OK/GD32VW55X_Wifi_BLE_SDK/GD32VW55x_RELEASE_V1.0.2/MSDK/plf/src\init_rom_symbol.c ****         mbedtls_ecp_keypair_init_fn = (void *)0x0bf720a2;
 223              		.loc 1 111 37
 224 018e 138E250A 		addi	t3,a1,162
 103:C:/Users/stapi/OneDrive/Desktop/GD32VW553/V1_MQTT_OK/GD32VW55X_Wifi_BLE_SDK/GD32VW55x_RELEASE_V1.0.2/MSDK/plf/src\init_rom_symbol.c ****         mbedtls_ecp_gen_privkey_fn = (void *)0x0bf72cbc;
 225              		.loc 1 103 41
 226 0192 130CC5BD 		addi	s8,a0,-1060
 104:C:/Users/stapi/OneDrive/Desktop/GD32VW553/V1_MQTT_OK/GD32VW55X_Wifi_BLE_SDK/GD32VW55x_RELEASE_V1.0.2/MSDK/plf/src\init_rom_symbol.c ****         mbedtls_ecp_group_copy_fn = (void *)0x0bf721b0;
 227              		.loc 1 104 36
 228 0196 2320BD01 		sw	s11,%lo(.LANCHOR24)(s10)
 105:C:/Users/stapi/OneDrive/Desktop/GD32VW553/V1_MQTT_OK/GD32VW55X_Wifi_BLE_SDK/GD32VW55x_RELEASE_V1.0.2/MSDK/plf/src\init_rom_symbol.c ****         mbedtls_ecp_group_free_fn = (void *)0x0bf720cc;
 229              		.loc 1 105 9 is_stmt 1
 106:C:/Users/stapi/OneDrive/Desktop/GD32VW553/V1_MQTT_OK/GD32VW55X_Wifi_BLE_SDK/GD32VW55x_RELEASE_V1.0.2/MSDK/plf/src\init_rom_symbol.c ****         mbedtls_ecp_group_init_fn = (void *)0x0bf72044;
 230              		.loc 1 106 9
 107:C:/Users/stapi/OneDrive/Desktop/GD32VW553/V1_MQTT_OK/GD32VW55X_Wifi_BLE_SDK/GD32VW55x_RELEASE_V1.0.2/MSDK/plf/src\init_rom_symbol.c ****         mbedtls_ecp_grp_id_list_fn = (void *)0x0bf71f32;
 231              		.loc 1 107 9
 108:C:/Users/stapi/OneDrive/Desktop/GD32VW553/V1_MQTT_OK/GD32VW55X_Wifi_BLE_SDK/GD32VW55x_RELEASE_V1.0.2/MSDK/plf/src\init_rom_symbol.c ****         mbedtls_ecp_is_zero_fn = (void *)0x0bf728e4;
 232              		.loc 1 108 9
 109:C:/Users/stapi/OneDrive/Desktop/GD32VW553/V1_MQTT_OK/GD32VW55X_Wifi_BLE_SDK/GD32VW55x_RELEASE_V1.0.2/MSDK/plf/src\init_rom_symbol.c ****         mbedtls_ecp_keypair_free_fn = (void *)0x0bf7214c;
 233              		.loc 1 109 9
 234              		.loc 1 111 37 is_stmt 0
 235 019a 37030000 		lui	t1,%hi(.LANCHOR31)
 109:C:/Users/stapi/OneDrive/Desktop/GD32VW553/V1_MQTT_OK/GD32VW55X_Wifi_BLE_SDK/GD32VW55x_RELEASE_V1.0.2/MSDK/plf/src\init_rom_symbol.c ****         mbedtls_ecp_keypair_free_fn = (void *)0x0bf7214c;
 236              		.loc 1 109 32
 237 019e 930D468E 		addi	s11,a2,-1820
 103:C:/Users/stapi/OneDrive/Desktop/GD32VW553/V1_MQTT_OK/GD32VW55X_Wifi_BLE_SDK/GD32VW55x_RELEASE_V1.0.2/MSDK/plf/src\init_rom_symbol.c ****         mbedtls_ecp_gen_privkey_fn = (void *)0x0bf72cbc;
 238              		.loc 1 103 41
 239 01a2 B70B0000 		lui	s7,%hi(.LANCHOR23)
 109:C:/Users/stapi/OneDrive/Desktop/GD32VW553/V1_MQTT_OK/GD32VW55X_Wifi_BLE_SDK/GD32VW55x_RELEASE_V1.0.2/MSDK/plf/src\init_rom_symbol.c ****         mbedtls_ecp_keypair_free_fn = (void *)0x0bf7214c;
 240              		.loc 1 109 32
 241 01a6 370D0000 		lui	s10,%hi(.LANCHOR29)
 242              		.loc 1 111 37
 243 01aa 2320C301 		sw	t3,%lo(.LANCHOR31)(t1)
 103:C:/Users/stapi/OneDrive/Desktop/GD32VW553/V1_MQTT_OK/GD32VW55X_Wifi_BLE_SDK/GD32VW55x_RELEASE_V1.0.2/MSDK/plf/src\init_rom_symbol.c ****         mbedtls_ecp_gen_privkey_fn = (void *)0x0bf72cbc;
 244              		.loc 1 103 41
 245 01ae 23A08B01 		sw	s8,%lo(.LANCHOR23)(s7)
 112:C:/Users/stapi/OneDrive/Desktop/GD32VW553/V1_MQTT_OK/GD32VW55X_Wifi_BLE_SDK/GD32VW55x_RELEASE_V1.0.2/MSDK/plf/src\init_rom_symbol.c ****         mbedtls_ecp_mul_fn = (void *)0x0bf73bd6;
 246              		.loc 1 112 28
 247 01b2 930C65BD 		addi	s9,a0,-1066
 109:C:/Users/stapi/OneDrive/Desktop/GD32VW553/V1_MQTT_OK/GD32VW55X_Wifi_BLE_SDK/GD32VW55x_RELEASE_V1.0.2/MSDK/plf/src\init_rom_symbol.c ****         mbedtls_ecp_keypair_free_fn = (void *)0x0bf7214c;
 248              		.loc 1 109 32
 249 01b6 2320BD01 		sw	s11,%lo(.LANCHOR29)(s10)
 110:C:/Users/stapi/OneDrive/Desktop/GD32VW553/V1_MQTT_OK/GD32VW55X_Wifi_BLE_SDK/GD32VW55x_RELEASE_V1.0.2/MSDK/plf/src\init_rom_symbol.c ****         mbedtls_ecp_keypair_init_fn = (void *)0x0bf720a2;
 250              		.loc 1 110 9 is_stmt 1
 111:C:/Users/stapi/OneDrive/Desktop/GD32VW553/V1_MQTT_OK/GD32VW55X_Wifi_BLE_SDK/GD32VW55x_RELEASE_V1.0.2/MSDK/plf/src\init_rom_symbol.c ****         mbedtls_ecp_mul_fn = (void *)0x0bf73bd6;
 251              		.loc 1 111 9
 252              		.loc 1 112 9
 253              		.loc 1 112 28 is_stmt 0
 254 01ba 370D0000 		lui	s10,%hi(.LANCHOR32)
 255 01be 23209D01 		sw	s9,%lo(.LANCHOR32)(s10)
 113:C:/Users/stapi/OneDrive/Desktop/GD32VW553/V1_MQTT_OK/GD32VW55X_Wifi_BLE_SDK/GD32VW55x_RELEASE_V1.0.2/MSDK/plf/src\init_rom_symbol.c ****         mbedtls_ecp_mul_restartable_fn = (void *)0x0bf73220;
 256              		.loc 1 113 9 is_stmt 1
 257              		.loc 1 113 40 is_stmt 0
 258 01c2 130D0622 		addi	s10,a2,544
 259 01c6 B70C0000 		lui	s9,%hi(.LANCHOR33)
 114:C:/Users/stapi/OneDrive/Desktop/GD32VW553/V1_MQTT_OK/GD32VW55X_Wifi_BLE_SDK/GD32VW55x_RELEASE_V1.0.2/MSDK/plf/src\init_rom_symbol.c ****         mbedtls_ecp_muladd_fn = (void *)0x0bf73e98;
 260              		.loc 1 114 31
 261 01ca 130C85E9 		addi	s8,a0,-360
 113:C:/Users/stapi/OneDrive/Desktop/GD32VW553/V1_MQTT_OK/GD32VW55X_Wifi_BLE_SDK/GD32VW55x_RELEASE_V1.0.2/MSDK/plf/src\init_rom_symbol.c ****         mbedtls_ecp_mul_restartable_fn = (void *)0x0bf73220;
 262              		.loc 1 113 40
 263 01ce 23A0AC01 		sw	s10,%lo(.LANCHOR33)(s9)
 264              		.loc 1 114 9 is_stmt 1
 265              		.loc 1 114 31 is_stmt 0
 266 01d2 370D0000 		lui	s10,%hi(.LANCHOR34)
 115:C:/Users/stapi/OneDrive/Desktop/GD32VW553/V1_MQTT_OK/GD32VW55X_Wifi_BLE_SDK/GD32VW55x_RELEASE_V1.0.2/MSDK/plf/src\init_rom_symbol.c ****         mbedtls_ecp_muladd_restartable_fn = (void *)0x0bf73e7c;
 267              		.loc 1 115 43
 268 01d6 930BC5E7 		addi	s7,a0,-388
 114:C:/Users/stapi/OneDrive/Desktop/GD32VW553/V1_MQTT_OK/GD32VW55X_Wifi_BLE_SDK/GD32VW55x_RELEASE_V1.0.2/MSDK/plf/src\init_rom_symbol.c ****         mbedtls_ecp_muladd_fn = (void *)0x0bf73e98;
 269              		.loc 1 114 31
 270 01da 23208D01 		sw	s8,%lo(.LANCHOR34)(s10)
 271              		.loc 1 115 9 is_stmt 1
 272              		.loc 1 115 43 is_stmt 0
 273 01de 370D0000 		lui	s10,%hi(.LANCHOR35)
 116:C:/Users/stapi/OneDrive/Desktop/GD32VW553/V1_MQTT_OK/GD32VW55X_Wifi_BLE_SDK/GD32VW55x_RELEASE_V1.0.2/MSDK/plf/src\init_rom_symbol.c ****         mbedtls_ecp_point_cmp_fn = (void *)0x0bf728fa;
 274              		.loc 1 116 34
 275 01e2 930CA68F 		addi	s9,a2,-1798
 115:C:/Users/stapi/OneDrive/Desktop/GD32VW553/V1_MQTT_OK/GD32VW55X_Wifi_BLE_SDK/GD32VW55x_RELEASE_V1.0.2/MSDK/plf/src\init_rom_symbol.c ****         mbedtls_ecp_muladd_restartable_fn = (void *)0x0bf73e7c;
 276              		.loc 1 115 43
 277 01e6 23207D01 		sw	s7,%lo(.LANCHOR35)(s10)
 278              		.loc 1 116 9 is_stmt 1
 279              		.loc 1 116 34 is_stmt 0
 280 01ea B70B0000 		lui	s7,%hi(.LANCHOR36)
 117:C:/Users/stapi/OneDrive/Desktop/GD32VW553/V1_MQTT_OK/GD32VW55X_Wifi_BLE_SDK/GD32VW55x_RELEASE_V1.0.2/MSDK/plf/src\init_rom_symbol.c ****         mbedtls_ecp_point_free_fn = (void *)0x0bf720c4;
 281              		.loc 1 117 35
 282 01ee 138B450C 		addi	s6,a1,196
 116:C:/Users/stapi/OneDrive/Desktop/GD32VW553/V1_MQTT_OK/GD32VW55X_Wifi_BLE_SDK/GD32VW55x_RELEASE_V1.0.2/MSDK/plf/src\init_rom_symbol.c ****         mbedtls_ecp_point_cmp_fn = (void *)0x0bf728fa;
 283              		.loc 1 116 34
 284 01f2 23A09B01 		sw	s9,%lo(.LANCHOR36)(s7)
 285              		.loc 1 117 9 is_stmt 1
 286              		.loc 1 117 35 is_stmt 0
 287 01f6 B70C0000 		lui	s9,%hi(.LANCHOR37)
 118:C:/Users/stapi/OneDrive/Desktop/GD32VW553/V1_MQTT_OK/GD32VW55X_Wifi_BLE_SDK/GD32VW55x_RELEASE_V1.0.2/MSDK/plf/src\init_rom_symbol.c ****         mbedtls_ecp_point_init_fn = (void *)0x0bf72022;
 288              		.loc 1 118 35
 289 01fa 938A2502 		addi	s5,a1,34
 117:C:/Users/stapi/OneDrive/Desktop/GD32VW553/V1_MQTT_OK/GD32VW55X_Wifi_BLE_SDK/GD32VW55x_RELEASE_V1.0.2/MSDK/plf/src\init_rom_symbol.c ****         mbedtls_ecp_point_free_fn = (void *)0x0bf720c4;
 290              		.loc 1 117 35
 291 01fe 23A06C01 		sw	s6,%lo(.LANCHOR37)(s9)
 292              		.loc 1 118 9 is_stmt 1
 293              		.loc 1 118 35 is_stmt 0
 294 0202 B70C0000 		lui	s9,%hi(.LANCHOR38)
 119:C:/Users/stapi/OneDrive/Desktop/GD32VW553/V1_MQTT_OK/GD32VW55X_Wifi_BLE_SDK/GD32VW55x_RELEASE_V1.0.2/MSDK/plf/src\init_rom_symbol.c ****         mbedtls_ecp_point_read_binary_fn = (void *)0x0bf72a54;
 295              		.loc 1 119 42
 296 0206 130C46A5 		addi	s8,a2,-1452
 118:C:/Users/stapi/OneDrive/Desktop/GD32VW553/V1_MQTT_OK/GD32VW55X_Wifi_BLE_SDK/GD32VW55x_RELEASE_V1.0.2/MSDK/plf/src\init_rom_symbol.c ****         mbedtls_ecp_point_init_fn = (void *)0x0bf72022;
 297              		.loc 1 118 35
 298 020a 23A05C01 		sw	s5,%lo(.LANCHOR38)(s9)
 299              		.loc 1 119 9 is_stmt 1
 300              		.loc 1 119 42 is_stmt 0
 301 020e B70A0000 		lui	s5,%hi(.LANCHOR39)
 120:C:/Users/stapi/OneDrive/Desktop/GD32VW553/V1_MQTT_OK/GD32VW55X_Wifi_BLE_SDK/GD32VW55x_RELEASE_V1.0.2/MSDK/plf/src\init_rom_symbol.c ****         mbedtls_ecp_point_read_string_fn = (void *)0x0bf72942;
 302              		.loc 1 120 42
 303 0212 130D2694 		addi	s10,a2,-1726
 119:C:/Users/stapi/OneDrive/Desktop/GD32VW553/V1_MQTT_OK/GD32VW55X_Wifi_BLE_SDK/GD32VW55x_RELEASE_V1.0.2/MSDK/plf/src\init_rom_symbol.c ****         mbedtls_ecp_point_read_binary_fn = (void *)0x0bf72a54;
 304              		.loc 1 119 42
 305 0216 23A08A01 		sw	s8,%lo(.LANCHOR39)(s5)
 306              		.loc 1 120 9 is_stmt 1
 307              		.loc 1 120 42 is_stmt 0
 308 021a B70A0000 		lui	s5,%hi(.LANCHOR40)
 121:C:/Users/stapi/OneDrive/Desktop/GD32VW553/V1_MQTT_OK/GD32VW55X_Wifi_BLE_SDK/GD32VW55x_RELEASE_V1.0.2/MSDK/plf/src\init_rom_symbol.c ****         mbedtls_ecp_point_write_binary_fn = (void *)0x0bf72986;
 309              		.loc 1 121 43
 310 021e 930B6698 		addi	s7,a2,-1658
 120:C:/Users/stapi/OneDrive/Desktop/GD32VW553/V1_MQTT_OK/GD32VW55X_Wifi_BLE_SDK/GD32VW55x_RELEASE_V1.0.2/MSDK/plf/src\init_rom_symbol.c ****         mbedtls_ecp_point_read_string_fn = (void *)0x0bf72942;
 311              		.loc 1 120 42
 312 0222 23A0AA01 		sw	s10,%lo(.LANCHOR40)(s5)
 313              		.loc 1 121 9 is_stmt 1
 314              		.loc 1 121 43 is_stmt 0
 315 0226 370D0000 		lui	s10,%hi(.LANCHOR41)
 316 022a 23207D01 		sw	s7,%lo(.LANCHOR41)(s10)
 122:C:/Users/stapi/OneDrive/Desktop/GD32VW553/V1_MQTT_OK/GD32VW55X_Wifi_BLE_SDK/GD32VW55x_RELEASE_V1.0.2/MSDK/plf/src\init_rom_symbol.c ****         mbedtls_ecp_set_zero_fn = (void *)0x0bf721b6;
 317              		.loc 1 122 9 is_stmt 1
 318              		.loc 1 122 33 is_stmt 0
 319 022e 9385651B 		addi	a1,a1,438
 320 0232 B70B0000 		lui	s7,%hi(.LANCHOR42)
 123:C:/Users/stapi/OneDrive/Desktop/GD32VW553/V1_MQTT_OK/GD32VW55X_Wifi_BLE_SDK/GD32VW55x_RELEASE_V1.0.2/MSDK/plf/src\init_rom_symbol.c ****         mbedtls_ecp_tls_read_group_fn = (void *)0x0bf72bc4;
 321              		.loc 1 123 39
 322 0236 130B46BC 		addi	s6,a2,-1084
 122:C:/Users/stapi/OneDrive/Desktop/GD32VW553/V1_MQTT_OK/GD32VW55X_Wifi_BLE_SDK/GD32VW55x_RELEASE_V1.0.2/MSDK/plf/src\init_rom_symbol.c ****         mbedtls_ecp_set_zero_fn = (void *)0x0bf721b6;
 323              		.loc 1 122 33
 324 023a 23A0BB00 		sw	a1,%lo(.LANCHOR42)(s7)
 325              		.loc 1 123 9 is_stmt 1
 326              		.loc 1 123 39 is_stmt 0
 327 023e B7050000 		lui	a1,%hi(.LANCHOR43)
 124:C:/Users/stapi/OneDrive/Desktop/GD32VW553/V1_MQTT_OK/GD32VW55X_Wifi_BLE_SDK/GD32VW55x_RELEASE_V1.0.2/MSDK/plf/src\init_rom_symbol.c ****         mbedtls_ecp_tls_read_group_id_fn = (void *)0x0bf72b5c;
 328              		.loc 1 124 42
 329 0242 930CC6B5 		addi	s9,a2,-1188
 123:C:/Users/stapi/OneDrive/Desktop/GD32VW553/V1_MQTT_OK/GD32VW55X_Wifi_BLE_SDK/GD32VW55x_RELEASE_V1.0.2/MSDK/plf/src\init_rom_symbol.c ****         mbedtls_ecp_tls_read_group_fn = (void *)0x0bf72bc4;
 330              		.loc 1 123 39
 331 0246 23A06501 		sw	s6,%lo(.LANCHOR43)(a1)
 332              		.loc 1 124 9 is_stmt 1
 333              		.loc 1 124 42 is_stmt 0
 334 024a B7050000 		lui	a1,%hi(.LANCHOR44)
 125:C:/Users/stapi/OneDrive/Desktop/GD32VW553/V1_MQTT_OK/GD32VW55X_Wifi_BLE_SDK/GD32VW55x_RELEASE_V1.0.2/MSDK/plf/src\init_rom_symbol.c ****         mbedtls_ecp_tls_read_point_fn = (void *)0x0bf72af2;
 335              		.loc 1 125 39
 336 024e 130C26AF 		addi	s8,a2,-1294
 124:C:/Users/stapi/OneDrive/Desktop/GD32VW553/V1_MQTT_OK/GD32VW55X_Wifi_BLE_SDK/GD32VW55x_RELEASE_V1.0.2/MSDK/plf/src\init_rom_symbol.c ****         mbedtls_ecp_tls_read_group_id_fn = (void *)0x0bf72b5c;
 337              		.loc 1 124 42
 338 0252 23A09501 		sw	s9,%lo(.LANCHOR44)(a1)
 339              		.loc 1 125 9 is_stmt 1
 340              		.loc 1 125 39 is_stmt 0
 341 0256 B7050000 		lui	a1,%hi(.LANCHOR45)
 126:C:/Users/stapi/OneDrive/Desktop/GD32VW553/V1_MQTT_OK/GD32VW55X_Wifi_BLE_SDK/GD32VW55x_RELEASE_V1.0.2/MSDK/plf/src\init_rom_symbol.c ****         mbedtls_ecp_tls_write_group_fn = (void *)0x0bf72be4;
 342              		.loc 1 126 40
 343 025a 930A46BE 		addi	s5,a2,-1052
 125:C:/Users/stapi/OneDrive/Desktop/GD32VW553/V1_MQTT_OK/GD32VW55X_Wifi_BLE_SDK/GD32VW55x_RELEASE_V1.0.2/MSDK/plf/src\init_rom_symbol.c ****         mbedtls_ecp_tls_read_point_fn = (void *)0x0bf72af2;
 344              		.loc 1 125 39
 345 025e 23A08501 		sw	s8,%lo(.LANCHOR45)(a1)
 346              		.loc 1 126 9 is_stmt 1
 347              		.loc 1 126 40 is_stmt 0
 348 0262 B7050000 		lui	a1,%hi(.LANCHOR46)
 127:C:/Users/stapi/OneDrive/Desktop/GD32VW553/V1_MQTT_OK/GD32VW55X_Wifi_BLE_SDK/GD32VW55x_RELEASE_V1.0.2/MSDK/plf/src\init_rom_symbol.c ****         mbedtls_ecp_tls_write_point_fn = (void *)0x0bf72b26;
 128:C:/Users/stapi/OneDrive/Desktop/GD32VW553/V1_MQTT_OK/GD32VW55X_Wifi_BLE_SDK/GD32VW55x_RELEASE_V1.0.2/MSDK/plf/src\init_rom_symbol.c ****         mbedtls_internal_md5_process_fn = (void *)0x0bf76912;
 349              		.loc 1 128 41
 350 0266 3777F70B 		li	a4,200765440
 126:C:/Users/stapi/OneDrive/Desktop/GD32VW553/V1_MQTT_OK/GD32VW55X_Wifi_BLE_SDK/GD32VW55x_RELEASE_V1.0.2/MSDK/plf/src\init_rom_symbol.c ****         mbedtls_ecp_tls_write_group_fn = (void *)0x0bf72be4;
 351              		.loc 1 126 40
 352 026a 23A05501 		sw	s5,%lo(.LANCHOR46)(a1)
 127:C:/Users/stapi/OneDrive/Desktop/GD32VW553/V1_MQTT_OK/GD32VW55X_Wifi_BLE_SDK/GD32VW55x_RELEASE_V1.0.2/MSDK/plf/src\init_rom_symbol.c ****         mbedtls_ecp_tls_write_point_fn = (void *)0x0bf72b26;
 353              		.loc 1 127 9 is_stmt 1
 127:C:/Users/stapi/OneDrive/Desktop/GD32VW553/V1_MQTT_OK/GD32VW55X_Wifi_BLE_SDK/GD32VW55x_RELEASE_V1.0.2/MSDK/plf/src\init_rom_symbol.c ****         mbedtls_ecp_tls_write_point_fn = (void *)0x0bf72b26;
 354              		.loc 1 127 40 is_stmt 0
 355 026e 130666B2 		addi	a2,a2,-1242
 356 0272 B7050000 		lui	a1,%hi(.LANCHOR47)
 129:C:/Users/stapi/OneDrive/Desktop/GD32VW553/V1_MQTT_OK/GD32VW55X_Wifi_BLE_SDK/GD32VW55x_RELEASE_V1.0.2/MSDK/plf/src\init_rom_symbol.c ****         mbedtls_internal_sha256_process_fn = (void *)0x0bf7674e;
 357              		.loc 1 129 44
 358 0276 B767F70B 		li	a5,200761344
 128:C:/Users/stapi/OneDrive/Desktop/GD32VW553/V1_MQTT_OK/GD32VW55X_Wifi_BLE_SDK/GD32VW55x_RELEASE_V1.0.2/MSDK/plf/src\init_rom_symbol.c ****         mbedtls_internal_sha256_process_fn = (void *)0x0bf7674e;
 359              		.loc 1 128 41
 360 027a 130A2791 		addi	s4,a4,-1774
 127:C:/Users/stapi/OneDrive/Desktop/GD32VW553/V1_MQTT_OK/GD32VW55X_Wifi_BLE_SDK/GD32VW55x_RELEASE_V1.0.2/MSDK/plf/src\init_rom_symbol.c ****         mbedtls_ecp_tls_write_point_fn = (void *)0x0bf72b26;
 361              		.loc 1 127 40
 362 027e 23A0C500 		sw	a2,%lo(.LANCHOR47)(a1)
 128:C:/Users/stapi/OneDrive/Desktop/GD32VW553/V1_MQTT_OK/GD32VW55X_Wifi_BLE_SDK/GD32VW55x_RELEASE_V1.0.2/MSDK/plf/src\init_rom_symbol.c ****         mbedtls_internal_sha256_process_fn = (void *)0x0bf7674e;
 363              		.loc 1 128 9 is_stmt 1
 128:C:/Users/stapi/OneDrive/Desktop/GD32VW553/V1_MQTT_OK/GD32VW55X_Wifi_BLE_SDK/GD32VW55x_RELEASE_V1.0.2/MSDK/plf/src\init_rom_symbol.c ****         mbedtls_internal_sha256_process_fn = (void *)0x0bf7674e;
 364              		.loc 1 128 41 is_stmt 0
 365 0282 37060000 		lui	a2,%hi(.LANCHOR48)
 366              		.loc 1 129 44
 367 0286 9389E774 		addi	s3,a5,1870
 128:C:/Users/stapi/OneDrive/Desktop/GD32VW553/V1_MQTT_OK/GD32VW55X_Wifi_BLE_SDK/GD32VW55x_RELEASE_V1.0.2/MSDK/plf/src\init_rom_symbol.c ****         mbedtls_internal_sha256_process_fn = (void *)0x0bf7674e;
 368              		.loc 1 128 41
 369 028a 23204601 		sw	s4,%lo(.LANCHOR48)(a2)
 370              		.loc 1 129 9 is_stmt 1
 371              		.loc 1 129 44 is_stmt 0
 372 028e 37060000 		lui	a2,%hi(.LANCHOR49)
 130:C:/Users/stapi/OneDrive/Desktop/GD32VW553/V1_MQTT_OK/GD32VW55X_Wifi_BLE_SDK/GD32VW55x_RELEASE_V1.0.2/MSDK/plf/src\init_rom_symbol.c ****         mbedtls_md5_fn = (void *)0x0bf7778e;
 373              		.loc 1 130 24
 374 0292 1309E778 		addi	s2,a4,1934
 129:C:/Users/stapi/OneDrive/Desktop/GD32VW553/V1_MQTT_OK/GD32VW55X_Wifi_BLE_SDK/GD32VW55x_RELEASE_V1.0.2/MSDK/plf/src\init_rom_symbol.c ****         mbedtls_internal_sha256_process_fn = (void *)0x0bf7674e;
 375              		.loc 1 129 44
 376 0296 23203601 		sw	s3,%lo(.LANCHOR49)(a2)
 377              		.loc 1 130 9 is_stmt 1
 378              		.loc 1 130 24 is_stmt 0
 379 029a 37060000 		lui	a2,%hi(.LANCHOR50)
 131:C:/Users/stapi/OneDrive/Desktop/GD32VW553/V1_MQTT_OK/GD32VW55X_Wifi_BLE_SDK/GD32VW55x_RELEASE_V1.0.2/MSDK/plf/src\init_rom_symbol.c ****         mbedtls_md5_clone_fn = (void *)0x0bf768a4;
 380              		.loc 1 131 30
 381 029e 9304478A 		addi	s1,a4,-1884
 130:C:/Users/stapi/OneDrive/Desktop/GD32VW553/V1_MQTT_OK/GD32VW55X_Wifi_BLE_SDK/GD32VW55x_RELEASE_V1.0.2/MSDK/plf/src\init_rom_symbol.c ****         mbedtls_md5_fn = (void *)0x0bf7778e;
 382              		.loc 1 130 24
 383 02a2 23202601 		sw	s2,%lo(.LANCHOR50)(a2)
 384              		.loc 1 131 9 is_stmt 1
 385              		.loc 1 131 30 is_stmt 0
 386 02a6 37060000 		lui	a2,%hi(.LANCHOR51)
 132:C:/Users/stapi/OneDrive/Desktop/GD32VW553/V1_MQTT_OK/GD32VW55X_Wifi_BLE_SDK/GD32VW55x_RELEASE_V1.0.2/MSDK/plf/src\init_rom_symbol.c ****         mbedtls_md5_finish_fn = (void *)0x0bf77758;
 387              		.loc 1 132 31
 388 02aa 13048775 		addi	s0,a4,1880
 131:C:/Users/stapi/OneDrive/Desktop/GD32VW553/V1_MQTT_OK/GD32VW55X_Wifi_BLE_SDK/GD32VW55x_RELEASE_V1.0.2/MSDK/plf/src\init_rom_symbol.c ****         mbedtls_md5_clone_fn = (void *)0x0bf768a4;
 389              		.loc 1 131 30
 390 02ae 23209600 		sw	s1,%lo(.LANCHOR51)(a2)
 391              		.loc 1 132 9 is_stmt 1
 392              		.loc 1 132 31 is_stmt 0
 393 02b2 37060000 		lui	a2,%hi(.LANCHOR52)
 133:C:/Users/stapi/OneDrive/Desktop/GD32VW553/V1_MQTT_OK/GD32VW55X_Wifi_BLE_SDK/GD32VW55x_RELEASE_V1.0.2/MSDK/plf/src\init_rom_symbol.c ****         mbedtls_md5_finish_ret_fn = (void *)0x0bf7765a;
 394              		.loc 1 133 35
 395 02b6 9303A765 		addi	t2,a4,1626
 132:C:/Users/stapi/OneDrive/Desktop/GD32VW553/V1_MQTT_OK/GD32VW55X_Wifi_BLE_SDK/GD32VW55x_RELEASE_V1.0.2/MSDK/plf/src\init_rom_symbol.c ****         mbedtls_md5_finish_fn = (void *)0x0bf77758;
 396              		.loc 1 132 31
 397 02ba 23208600 		sw	s0,%lo(.LANCHOR52)(a2)
 398              		.loc 1 133 9 is_stmt 1
 399              		.loc 1 133 35 is_stmt 0
 400 02be 37060000 		lui	a2,%hi(.LANCHOR53)
 134:C:/Users/stapi/OneDrive/Desktop/GD32VW553/V1_MQTT_OK/GD32VW55X_Wifi_BLE_SDK/GD32VW55x_RELEASE_V1.0.2/MSDK/plf/src\init_rom_symbol.c ****         mbedtls_md5_free_fn = (void *)0x0bf76898;
 401              		.loc 1 134 29
 402 02c2 93028789 		addi	t0,a4,-1896
 133:C:/Users/stapi/OneDrive/Desktop/GD32VW553/V1_MQTT_OK/GD32VW55X_Wifi_BLE_SDK/GD32VW55x_RELEASE_V1.0.2/MSDK/plf/src\init_rom_symbol.c ****         mbedtls_md5_finish_ret_fn = (void *)0x0bf7765a;
 403              		.loc 1 133 35
 404 02c6 23207600 		sw	t2,%lo(.LANCHOR53)(a2)
 405              		.loc 1 134 9 is_stmt 1
 406              		.loc 1 134 29 is_stmt 0
 407 02ca 37060000 		lui	a2,%hi(.LANCHOR54)
 135:C:/Users/stapi/OneDrive/Desktop/GD32VW553/V1_MQTT_OK/GD32VW55X_Wifi_BLE_SDK/GD32VW55x_RELEASE_V1.0.2/MSDK/plf/src\init_rom_symbol.c ****         mbedtls_md5_init_fn = (void *)0x0bf7688e;
 408              		.loc 1 135 29
 409 02ce 930FE788 		addi	t6,a4,-1906
 134:C:/Users/stapi/OneDrive/Desktop/GD32VW553/V1_MQTT_OK/GD32VW55X_Wifi_BLE_SDK/GD32VW55x_RELEASE_V1.0.2/MSDK/plf/src\init_rom_symbol.c ****         mbedtls_md5_free_fn = (void *)0x0bf76898;
 410              		.loc 1 134 29
 411 02d2 23205600 		sw	t0,%lo(.LANCHOR54)(a2)
 412              		.loc 1 135 9 is_stmt 1
 413              		.loc 1 135 29 is_stmt 0
 414 02d6 37060000 		lui	a2,%hi(.LANCHOR55)
 136:C:/Users/stapi/OneDrive/Desktop/GD32VW553/V1_MQTT_OK/GD32VW55X_Wifi_BLE_SDK/GD32VW55x_RELEASE_V1.0.2/MSDK/plf/src\init_rom_symbol.c ****         mbedtls_md5_process_fn = (void *)0x0bf77644;
 415              		.loc 1 136 32
 416 02da 130F4764 		addi	t5,a4,1604
 135:C:/Users/stapi/OneDrive/Desktop/GD32VW553/V1_MQTT_OK/GD32VW55X_Wifi_BLE_SDK/GD32VW55x_RELEASE_V1.0.2/MSDK/plf/src\init_rom_symbol.c ****         mbedtls_md5_init_fn = (void *)0x0bf7688e;
 417              		.loc 1 135 29
 418 02de 2320F601 		sw	t6,%lo(.LANCHOR55)(a2)
 419              		.loc 1 136 9 is_stmt 1
 420              		.loc 1 136 32 is_stmt 0
 421 02e2 37060000 		lui	a2,%hi(.LANCHOR56)
 137:C:/Users/stapi/OneDrive/Desktop/GD32VW553/V1_MQTT_OK/GD32VW55X_Wifi_BLE_SDK/GD32VW55x_RELEASE_V1.0.2/MSDK/plf/src\init_rom_symbol.c ****         mbedtls_md5_ret_fn = (void *)0x0bf7775c;
 422              		.loc 1 137 28
 423 02e6 930EC775 		addi	t4,a4,1884
 136:C:/Users/stapi/OneDrive/Desktop/GD32VW553/V1_MQTT_OK/GD32VW55X_Wifi_BLE_SDK/GD32VW55x_RELEASE_V1.0.2/MSDK/plf/src\init_rom_symbol.c ****         mbedtls_md5_process_fn = (void *)0x0bf77644;
 424              		.loc 1 136 32
 425 02ea 2320E601 		sw	t5,%lo(.LANCHOR56)(a2)
 426              		.loc 1 137 9 is_stmt 1
 427              		.loc 1 137 28 is_stmt 0
 428 02ee 37060000 		lui	a2,%hi(.LANCHOR57)
 138:C:/Users/stapi/OneDrive/Desktop/GD32VW553/V1_MQTT_OK/GD32VW55X_Wifi_BLE_SDK/GD32VW55x_RELEASE_V1.0.2/MSDK/plf/src\init_rom_symbol.c ****         mbedtls_md5_starts_fn = (void *)0x0bf768e0;
 429              		.loc 1 138 31
 430 02f2 130E078E 		addi	t3,a4,-1824
 137:C:/Users/stapi/OneDrive/Desktop/GD32VW553/V1_MQTT_OK/GD32VW55X_Wifi_BLE_SDK/GD32VW55x_RELEASE_V1.0.2/MSDK/plf/src\init_rom_symbol.c ****         mbedtls_md5_ret_fn = (void *)0x0bf7775c;
 431              		.loc 1 137 28
 432 02f6 2320D601 		sw	t4,%lo(.LANCHOR57)(a2)
 433              		.loc 1 138 9 is_stmt 1
 434              		.loc 1 138 31 is_stmt 0
 435 02fa 37060000 		lui	a2,%hi(.LANCHOR58)
 139:C:/Users/stapi/OneDrive/Desktop/GD32VW553/V1_MQTT_OK/GD32VW55X_Wifi_BLE_SDK/GD32VW55x_RELEASE_V1.0.2/MSDK/plf/src\init_rom_symbol.c ****         mbedtls_md5_starts_ret_fn = (void *)0x0bf768ac;
 436              		.loc 1 139 35
 437 02fe 1303C78A 		addi	t1,a4,-1876
 138:C:/Users/stapi/OneDrive/Desktop/GD32VW553/V1_MQTT_OK/GD32VW55X_Wifi_BLE_SDK/GD32VW55x_RELEASE_V1.0.2/MSDK/plf/src\init_rom_symbol.c ****         mbedtls_md5_starts_fn = (void *)0x0bf768e0;
 438              		.loc 1 138 31
 439 0302 2320C601 		sw	t3,%lo(.LANCHOR58)(a2)
 440              		.loc 1 139 9 is_stmt 1
 140:C:/Users/stapi/OneDrive/Desktop/GD32VW553/V1_MQTT_OK/GD32VW55X_Wifi_BLE_SDK/GD32VW55x_RELEASE_V1.0.2/MSDK/plf/src\init_rom_symbol.c ****         mbedtls_md5_update_fn = (void *)0x0bf77652;
 441              		.loc 1 140 31 is_stmt 0
 442 0306 B775F70B 		li	a1,200765440
 139:C:/Users/stapi/OneDrive/Desktop/GD32VW553/V1_MQTT_OK/GD32VW55X_Wifi_BLE_SDK/GD32VW55x_RELEASE_V1.0.2/MSDK/plf/src\init_rom_symbol.c ****         mbedtls_md5_starts_ret_fn = (void *)0x0bf768ac;
 443              		.loc 1 139 35
 444 030a 37060000 		lui	a2,%hi(.LANCHOR59)
 445 030e 23206600 		sw	t1,%lo(.LANCHOR59)(a2)
 446              		.loc 1 140 9 is_stmt 1
 447              		.loc 1 140 31 is_stmt 0
 448 0312 13842565 		addi	s0,a1,1618
 449 0316 37060000 		lui	a2,%hi(.LANCHOR60)
 450 031a 23208600 		sw	s0,%lo(.LANCHOR60)(a2)
 141:C:/Users/stapi/OneDrive/Desktop/GD32VW553/V1_MQTT_OK/GD32VW55X_Wifi_BLE_SDK/GD32VW55x_RELEASE_V1.0.2/MSDK/plf/src\init_rom_symbol.c ****         mbedtls_md5_update_ret_fn = (void *)0x0bf77648;
 451              		.loc 1 141 9 is_stmt 1
 452              		.loc 1 141 35 is_stmt 0
 453 031e 93858564 		addi	a1,a1,1608
 454 0322 37060000 		lui	a2,%hi(.LANCHOR61)
 455 0326 2320B600 		sw	a1,%lo(.LANCHOR61)(a2)
 142:C:/Users/stapi/OneDrive/Desktop/GD32VW553/V1_MQTT_OK/GD32VW55X_Wifi_BLE_SDK/GD32VW55x_RELEASE_V1.0.2/MSDK/plf/src\init_rom_symbol.c ****         mbedtls_mpi_div_int_fn = (void *)0x0bf6f20a;
 456              		.loc 1 142 9 is_stmt 1
 457              		.loc 1 142 32 is_stmt 0
 458 032a B7F5F60B 		li	a1,200732672
 459 032e 1384A520 		addi	s0,a1,522
 460 0332 37060000 		lui	a2,%hi(.LANCHOR62)
 461 0336 23208600 		sw	s0,%lo(.LANCHOR62)(a2)
 143:C:/Users/stapi/OneDrive/Desktop/GD32VW553/V1_MQTT_OK/GD32VW55X_Wifi_BLE_SDK/GD32VW55x_RELEASE_V1.0.2/MSDK/plf/src\init_rom_symbol.c ****         mbedtls_mpi_div_mpi_fn = (void *)0x0bf6ed1e;
 462              		.loc 1 143 9 is_stmt 1
 463              		.loc 1 143 32 is_stmt 0
 464 033a 1384E5D1 		addi	s0,a1,-738
 465 033e 37060000 		lui	a2,%hi(.LANCHOR63)
 466 0342 23208600 		sw	s0,%lo(.LANCHOR63)(a2)
 144:C:/Users/stapi/OneDrive/Desktop/GD32VW553/V1_MQTT_OK/GD32VW55X_Wifi_BLE_SDK/GD32VW55x_RELEASE_V1.0.2/MSDK/plf/src\init_rom_symbol.c ****         mbedtls_mpi_exp_mod_fn = (void *)0x0bf6fb5c;
 467              		.loc 1 144 9 is_stmt 1
 468              		.loc 1 144 32 is_stmt 0
 469 0346 3704F70B 		li	s0,200736768
 470 034a 9304C4B5 		addi	s1,s0,-1188
 471 034e 37060000 		lui	a2,%hi(.LANCHOR64)
 472 0352 23209600 		sw	s1,%lo(.LANCHOR64)(a2)
 145:C:/Users/stapi/OneDrive/Desktop/GD32VW553/V1_MQTT_OK/GD32VW55X_Wifi_BLE_SDK/GD32VW55x_RELEASE_V1.0.2/MSDK/plf/src\init_rom_symbol.c ****         mbedtls_mpi_exp_mod_sw_fn = (void *)0x0bf6f54c;
 473              		.loc 1 145 9 is_stmt 1
 146:C:/Users/stapi/OneDrive/Desktop/GD32VW553/V1_MQTT_OK/GD32VW55X_Wifi_BLE_SDK/GD32VW55x_RELEASE_V1.0.2/MSDK/plf/src\init_rom_symbol.c ****         mbedtls_mpi_fill_random_fn = (void *)0x0bf6fee4;
 147:C:/Users/stapi/OneDrive/Desktop/GD32VW553/V1_MQTT_OK/GD32VW55X_Wifi_BLE_SDK/GD32VW55x_RELEASE_V1.0.2/MSDK/plf/src\init_rom_symbol.c ****         mbedtls_mpi_gcd_fn = (void *)0x0bf6fcec;
 148:C:/Users/stapi/OneDrive/Desktop/GD32VW553/V1_MQTT_OK/GD32VW55X_Wifi_BLE_SDK/GD32VW55x_RELEASE_V1.0.2/MSDK/plf/src\init_rom_symbol.c ****         mbedtls_mpi_gen_prime_fn = (void *)0x0bf705e2;
 149:C:/Users/stapi/OneDrive/Desktop/GD32VW553/V1_MQTT_OK/GD32VW55X_Wifi_BLE_SDK/GD32VW55x_RELEASE_V1.0.2/MSDK/plf/src\init_rom_symbol.c ****         mbedtls_mpi_inv_mod_fn = (void *)0x0bf70212;
 150:C:/Users/stapi/OneDrive/Desktop/GD32VW553/V1_MQTT_OK/GD32VW55X_Wifi_BLE_SDK/GD32VW55x_RELEASE_V1.0.2/MSDK/plf/src\init_rom_symbol.c ****         mbedtls_mpi_is_prime_fn = (void *)0x0bf705d6;
 151:C:/Users/stapi/OneDrive/Desktop/GD32VW553/V1_MQTT_OK/GD32VW55X_Wifi_BLE_SDK/GD32VW55x_RELEASE_V1.0.2/MSDK/plf/src\init_rom_symbol.c ****         mbedtls_mpi_is_prime_ext_fn = (void *)0x0bf70534;
 152:C:/Users/stapi/OneDrive/Desktop/GD32VW553/V1_MQTT_OK/GD32VW55X_Wifi_BLE_SDK/GD32VW55x_RELEASE_V1.0.2/MSDK/plf/src\init_rom_symbol.c ****         mbedtls_mpi_mod_int_fn = (void *)0x0bf6f2d0;
 153:C:/Users/stapi/OneDrive/Desktop/GD32VW553/V1_MQTT_OK/GD32VW55X_Wifi_BLE_SDK/GD32VW55x_RELEASE_V1.0.2/MSDK/plf/src\init_rom_symbol.c ****         mbedtls_mpi_mod_mpi_fn = (void *)0x0bf6f234;
 154:C:/Users/stapi/OneDrive/Desktop/GD32VW553/V1_MQTT_OK/GD32VW55X_Wifi_BLE_SDK/GD32VW55x_RELEASE_V1.0.2/MSDK/plf/src\init_rom_symbol.c ****         mbedtls_mpi_mul_int_fn = (void *)0x0bf6ed04;
 155:C:/Users/stapi/OneDrive/Desktop/GD32VW553/V1_MQTT_OK/GD32VW55X_Wifi_BLE_SDK/GD32VW55x_RELEASE_V1.0.2/MSDK/plf/src\init_rom_symbol.c ****         mbedtls_mpi_mul_mpi_fn = (void *)0x0bf6ead6;
 156:C:/Users/stapi/OneDrive/Desktop/GD32VW553/V1_MQTT_OK/GD32VW55X_Wifi_BLE_SDK/GD32VW55x_RELEASE_V1.0.2/MSDK/plf/src\init_rom_symbol.c ****         mbedtls_mpi_read_string_fn = (void *)0x0bf6eaec;
 157:C:/Users/stapi/OneDrive/Desktop/GD32VW553/V1_MQTT_OK/GD32VW55X_Wifi_BLE_SDK/GD32VW55x_RELEASE_V1.0.2/MSDK/plf/src\init_rom_symbol.c ****         mbedtls_mpi_write_string_fn = (void *)0x0bf6f304;
 158:C:/Users/stapi/OneDrive/Desktop/GD32VW553/V1_MQTT_OK/GD32VW55X_Wifi_BLE_SDK/GD32VW55x_RELEASE_V1.0.2/MSDK/plf/src\init_rom_symbol.c ****         mbedtls_rsa_check_privkey_fn = (void *)0x0bf74972;
 159:C:/Users/stapi/OneDrive/Desktop/GD32VW553/V1_MQTT_OK/GD32VW55X_Wifi_BLE_SDK/GD32VW55x_RELEASE_V1.0.2/MSDK/plf/src\init_rom_symbol.c ****         mbedtls_rsa_check_pub_priv_fn = (void *)0x0bf74c08;
 160:C:/Users/stapi/OneDrive/Desktop/GD32VW553/V1_MQTT_OK/GD32VW55X_Wifi_BLE_SDK/GD32VW55x_RELEASE_V1.0.2/MSDK/plf/src\init_rom_symbol.c ****         mbedtls_rsa_check_pubkey_fn = (void *)0x0bf74910;
 161:C:/Users/stapi/OneDrive/Desktop/GD32VW553/V1_MQTT_OK/GD32VW55X_Wifi_BLE_SDK/GD32VW55x_RELEASE_V1.0.2/MSDK/plf/src\init_rom_symbol.c ****         mbedtls_rsa_complete_fn = (void *)0x0bf74490;
 474              		.loc 1 161 33 is_stmt 0
 475 0356 930F0549 		addi	t6,a0,1168
 162:C:/Users/stapi/OneDrive/Desktop/GD32VW553/V1_MQTT_OK/GD32VW55X_Wifi_BLE_SDK/GD32VW55x_RELEASE_V1.0.2/MSDK/plf/src\init_rom_symbol.c ****         mbedtls_rsa_copy_fn = (void *)0x0bf76132;
 163:C:/Users/stapi/OneDrive/Desktop/GD32VW553/V1_MQTT_OK/GD32VW55X_Wifi_BLE_SDK/GD32VW55x_RELEASE_V1.0.2/MSDK/plf/src\init_rom_symbol.c ****         mbedtls_rsa_export_fn = (void *)0x0bf74728;
 476              		.loc 1 163 31
 477 035a 930E8572 		addi	t4,a0,1832
 164:C:/Users/stapi/OneDrive/Desktop/GD32VW553/V1_MQTT_OK/GD32VW55X_Wifi_BLE_SDK/GD32VW55x_RELEASE_V1.0.2/MSDK/plf/src\init_rom_symbol.c ****         mbedtls_rsa_export_crt_fn = (void *)0x0bf7482a;
 165:C:/Users/stapi/OneDrive/Desktop/GD32VW553/V1_MQTT_OK/GD32VW55X_Wifi_BLE_SDK/GD32VW55x_RELEASE_V1.0.2/MSDK/plf/src\init_rom_symbol.c ****         mbedtls_rsa_export_raw_fn = (void *)0x0bf745f0;
 478              		.loc 1 165 35
 479 035e 1303055F 		addi	t1,a0,1520
 166:C:/Users/stapi/OneDrive/Desktop/GD32VW553/V1_MQTT_OK/GD32VW55X_Wifi_BLE_SDK/GD32VW55x_RELEASE_V1.0.2/MSDK/plf/src\init_rom_symbol.c ****         mbedtls_rsa_free_fn = (void *)0x0bf7623c;
 167:C:/Users/stapi/OneDrive/Desktop/GD32VW553/V1_MQTT_OK/GD32VW55X_Wifi_BLE_SDK/GD32VW55x_RELEASE_V1.0.2/MSDK/plf/src\init_rom_symbol.c ****         mbedtls_rsa_gen_key_fn = (void *)0x0bf749e2;
 168:C:/Users/stapi/OneDrive/Desktop/GD32VW553/V1_MQTT_OK/GD32VW55X_Wifi_BLE_SDK/GD32VW55x_RELEASE_V1.0.2/MSDK/plf/src\init_rom_symbol.c ****         mbedtls_rsa_get_len_fn = (void *)0x0bf7490c;
 169:C:/Users/stapi/OneDrive/Desktop/GD32VW553/V1_MQTT_OK/GD32VW55X_Wifi_BLE_SDK/GD32VW55x_RELEASE_V1.0.2/MSDK/plf/src\init_rom_symbol.c ****         mbedtls_rsa_import_fn = (void *)0x0bf74364;
 480              		.loc 1 169 31
 481 0362 130D4536 		addi	s10,a0,868
 170:C:/Users/stapi/OneDrive/Desktop/GD32VW553/V1_MQTT_OK/GD32VW55X_Wifi_BLE_SDK/GD32VW55x_RELEASE_V1.0.2/MSDK/plf/src\init_rom_symbol.c ****         mbedtls_rsa_import_raw_fn = (void *)0x0bf743f6;
 482              		.loc 1 170 35
 483 0366 1305653F 		addi	a0,a0,1014
 484 036a 2AC6     		sw	a0,12(sp)
 145:C:/Users/stapi/OneDrive/Desktop/GD32VW553/V1_MQTT_OK/GD32VW55X_Wifi_BLE_SDK/GD32VW55x_RELEASE_V1.0.2/MSDK/plf/src\init_rom_symbol.c ****         mbedtls_mpi_fill_random_fn = (void *)0x0bf6fee4;
 485              		.loc 1 145 35
 486 036c 9385C554 		addi	a1,a1,1356
 487 0370 37050000 		lui	a0,%hi(.LANCHOR65)
 488 0374 2320B500 		sw	a1,%lo(.LANCHOR65)(a0)
 146:C:/Users/stapi/OneDrive/Desktop/GD32VW553/V1_MQTT_OK/GD32VW55X_Wifi_BLE_SDK/GD32VW55x_RELEASE_V1.0.2/MSDK/plf/src\init_rom_symbol.c ****         mbedtls_mpi_gcd_fn = (void *)0x0bf6fcec;
 489              		.loc 1 146 9 is_stmt 1
 146:C:/Users/stapi/OneDrive/Desktop/GD32VW553/V1_MQTT_OK/GD32VW55X_Wifi_BLE_SDK/GD32VW55x_RELEASE_V1.0.2/MSDK/plf/src\init_rom_symbol.c ****         mbedtls_mpi_gcd_fn = (void *)0x0bf6fcec;
 490              		.loc 1 146 36 is_stmt 0
 491 0378 B705F70B 		li	a1,200736768
 144:C:/Users/stapi/OneDrive/Desktop/GD32VW553/V1_MQTT_OK/GD32VW55X_Wifi_BLE_SDK/GD32VW55x_RELEASE_V1.0.2/MSDK/plf/src\init_rom_symbol.c ****         mbedtls_mpi_exp_mod_sw_fn = (void *)0x0bf6f54c;
 492              		.loc 1 144 32
 493 037c B708F70B 		li	a7,200736768
 146:C:/Users/stapi/OneDrive/Desktop/GD32VW553/V1_MQTT_OK/GD32VW55X_Wifi_BLE_SDK/GD32VW55x_RELEASE_V1.0.2/MSDK/plf/src\init_rom_symbol.c ****         mbedtls_mpi_gcd_fn = (void *)0x0bf6fcec;
 494              		.loc 1 146 36
 495 0380 37050000 		lui	a0,%hi(.LANCHOR66)
 496 0384 938545EE 		addi	a1,a1,-284
 147:C:/Users/stapi/OneDrive/Desktop/GD32VW553/V1_MQTT_OK/GD32VW55X_Wifi_BLE_SDK/GD32VW55x_RELEASE_V1.0.2/MSDK/plf/src\init_rom_symbol.c ****         mbedtls_mpi_gen_prime_fn = (void *)0x0bf705e2;
 497              		.loc 1 147 28
 498 0388 138CC8CE 		addi	s8,a7,-788
 146:C:/Users/stapi/OneDrive/Desktop/GD32VW553/V1_MQTT_OK/GD32VW55X_Wifi_BLE_SDK/GD32VW55x_RELEASE_V1.0.2/MSDK/plf/src\init_rom_symbol.c ****         mbedtls_mpi_gcd_fn = (void *)0x0bf6fcec;
 499              		.loc 1 146 36
 500 038c 2320B500 		sw	a1,%lo(.LANCHOR66)(a0)
 147:C:/Users/stapi/OneDrive/Desktop/GD32VW553/V1_MQTT_OK/GD32VW55X_Wifi_BLE_SDK/GD32VW55x_RELEASE_V1.0.2/MSDK/plf/src\init_rom_symbol.c ****         mbedtls_mpi_gen_prime_fn = (void *)0x0bf705e2;
 501              		.loc 1 147 9 is_stmt 1
 147:C:/Users/stapi/OneDrive/Desktop/GD32VW553/V1_MQTT_OK/GD32VW55X_Wifi_BLE_SDK/GD32VW55x_RELEASE_V1.0.2/MSDK/plf/src\init_rom_symbol.c ****         mbedtls_mpi_gen_prime_fn = (void *)0x0bf705e2;
 502              		.loc 1 147 28 is_stmt 0
 503 0390 37050000 		lui	a0,%hi(.LANCHOR67)
 148:C:/Users/stapi/OneDrive/Desktop/GD32VW553/V1_MQTT_OK/GD32VW55X_Wifi_BLE_SDK/GD32VW55x_RELEASE_V1.0.2/MSDK/plf/src\init_rom_symbol.c ****         mbedtls_mpi_inv_mod_fn = (void *)0x0bf70212;
 504              		.loc 1 148 34
 505 0394 938B285E 		addi	s7,a7,1506
 147:C:/Users/stapi/OneDrive/Desktop/GD32VW553/V1_MQTT_OK/GD32VW55X_Wifi_BLE_SDK/GD32VW55x_RELEASE_V1.0.2/MSDK/plf/src\init_rom_symbol.c ****         mbedtls_mpi_gen_prime_fn = (void *)0x0bf705e2;
 506              		.loc 1 147 28
 507 0398 23208501 		sw	s8,%lo(.LANCHOR67)(a0)
 148:C:/Users/stapi/OneDrive/Desktop/GD32VW553/V1_MQTT_OK/GD32VW55X_Wifi_BLE_SDK/GD32VW55x_RELEASE_V1.0.2/MSDK/plf/src\init_rom_symbol.c ****         mbedtls_mpi_inv_mod_fn = (void *)0x0bf70212;
 508              		.loc 1 148 9 is_stmt 1
 148:C:/Users/stapi/OneDrive/Desktop/GD32VW553/V1_MQTT_OK/GD32VW55X_Wifi_BLE_SDK/GD32VW55x_RELEASE_V1.0.2/MSDK/plf/src\init_rom_symbol.c ****         mbedtls_mpi_inv_mod_fn = (void *)0x0bf70212;
 509              		.loc 1 148 34 is_stmt 0
 510 039c 37050000 		lui	a0,%hi(.LANCHOR68)
 149:C:/Users/stapi/OneDrive/Desktop/GD32VW553/V1_MQTT_OK/GD32VW55X_Wifi_BLE_SDK/GD32VW55x_RELEASE_V1.0.2/MSDK/plf/src\init_rom_symbol.c ****         mbedtls_mpi_is_prime_fn = (void *)0x0bf705d6;
 511              		.loc 1 149 32
 512 03a0 138B2821 		addi	s6,a7,530
 148:C:/Users/stapi/OneDrive/Desktop/GD32VW553/V1_MQTT_OK/GD32VW55X_Wifi_BLE_SDK/GD32VW55x_RELEASE_V1.0.2/MSDK/plf/src\init_rom_symbol.c ****         mbedtls_mpi_inv_mod_fn = (void *)0x0bf70212;
 513              		.loc 1 148 34
 514 03a4 23207501 		sw	s7,%lo(.LANCHOR68)(a0)
 149:C:/Users/stapi/OneDrive/Desktop/GD32VW553/V1_MQTT_OK/GD32VW55X_Wifi_BLE_SDK/GD32VW55x_RELEASE_V1.0.2/MSDK/plf/src\init_rom_symbol.c ****         mbedtls_mpi_is_prime_fn = (void *)0x0bf705d6;
 515              		.loc 1 149 9 is_stmt 1
 149:C:/Users/stapi/OneDrive/Desktop/GD32VW553/V1_MQTT_OK/GD32VW55X_Wifi_BLE_SDK/GD32VW55x_RELEASE_V1.0.2/MSDK/plf/src\init_rom_symbol.c ****         mbedtls_mpi_is_prime_fn = (void *)0x0bf705d6;
 516              		.loc 1 149 32 is_stmt 0
 517 03a8 37050000 		lui	a0,%hi(.LANCHOR69)
 150:C:/Users/stapi/OneDrive/Desktop/GD32VW553/V1_MQTT_OK/GD32VW55X_Wifi_BLE_SDK/GD32VW55x_RELEASE_V1.0.2/MSDK/plf/src\init_rom_symbol.c ****         mbedtls_mpi_is_prime_ext_fn = (void *)0x0bf70534;
 518              		.loc 1 150 33
 519 03ac 938A685D 		addi	s5,a7,1494
 149:C:/Users/stapi/OneDrive/Desktop/GD32VW553/V1_MQTT_OK/GD32VW55X_Wifi_BLE_SDK/GD32VW55x_RELEASE_V1.0.2/MSDK/plf/src\init_rom_symbol.c ****         mbedtls_mpi_is_prime_fn = (void *)0x0bf705d6;
 520              		.loc 1 149 32
 521 03b0 23206501 		sw	s6,%lo(.LANCHOR69)(a0)
 150:C:/Users/stapi/OneDrive/Desktop/GD32VW553/V1_MQTT_OK/GD32VW55X_Wifi_BLE_SDK/GD32VW55x_RELEASE_V1.0.2/MSDK/plf/src\init_rom_symbol.c ****         mbedtls_mpi_is_prime_ext_fn = (void *)0x0bf70534;
 522              		.loc 1 150 9 is_stmt 1
 150:C:/Users/stapi/OneDrive/Desktop/GD32VW553/V1_MQTT_OK/GD32VW55X_Wifi_BLE_SDK/GD32VW55x_RELEASE_V1.0.2/MSDK/plf/src\init_rom_symbol.c ****         mbedtls_mpi_is_prime_ext_fn = (void *)0x0bf70534;
 523              		.loc 1 150 33 is_stmt 0
 524 03b4 37050000 		lui	a0,%hi(.LANCHOR70)
 142:C:/Users/stapi/OneDrive/Desktop/GD32VW553/V1_MQTT_OK/GD32VW55X_Wifi_BLE_SDK/GD32VW55x_RELEASE_V1.0.2/MSDK/plf/src\init_rom_symbol.c ****         mbedtls_mpi_div_mpi_fn = (void *)0x0bf6ed1e;
 525              		.loc 1 142 32
 526 03b8 37F8F60B 		li	a6,200732672
 150:C:/Users/stapi/OneDrive/Desktop/GD32VW553/V1_MQTT_OK/GD32VW55X_Wifi_BLE_SDK/GD32VW55x_RELEASE_V1.0.2/MSDK/plf/src\init_rom_symbol.c ****         mbedtls_mpi_is_prime_ext_fn = (void *)0x0bf70534;
 527              		.loc 1 150 33
 528 03bc 23205501 		sw	s5,%lo(.LANCHOR70)(a0)
 151:C:/Users/stapi/OneDrive/Desktop/GD32VW553/V1_MQTT_OK/GD32VW55X_Wifi_BLE_SDK/GD32VW55x_RELEASE_V1.0.2/MSDK/plf/src\init_rom_symbol.c ****         mbedtls_mpi_mod_int_fn = (void *)0x0bf6f2d0;
 529              		.loc 1 151 9 is_stmt 1
 151:C:/Users/stapi/OneDrive/Desktop/GD32VW553/V1_MQTT_OK/GD32VW55X_Wifi_BLE_SDK/GD32VW55x_RELEASE_V1.0.2/MSDK/plf/src\init_rom_symbol.c ****         mbedtls_mpi_mod_int_fn = (void *)0x0bf6f2d0;
 530              		.loc 1 151 37 is_stmt 0
 531 03c0 93884853 		addi	a7,a7,1332
 532 03c4 37050000 		lui	a0,%hi(.LANCHOR71)
 152:C:/Users/stapi/OneDrive/Desktop/GD32VW553/V1_MQTT_OK/GD32VW55X_Wifi_BLE_SDK/GD32VW55x_RELEASE_V1.0.2/MSDK/plf/src\init_rom_symbol.c ****         mbedtls_mpi_mod_mpi_fn = (void *)0x0bf6f234;
 533              		.loc 1 152 32
 534 03c8 130A082D 		addi	s4,a6,720
 151:C:/Users/stapi/OneDrive/Desktop/GD32VW553/V1_MQTT_OK/GD32VW55X_Wifi_BLE_SDK/GD32VW55x_RELEASE_V1.0.2/MSDK/plf/src\init_rom_symbol.c ****         mbedtls_mpi_mod_int_fn = (void *)0x0bf6f2d0;
 535              		.loc 1 151 37
 536 03cc 23201501 		sw	a7,%lo(.LANCHOR71)(a0)
 152:C:/Users/stapi/OneDrive/Desktop/GD32VW553/V1_MQTT_OK/GD32VW55X_Wifi_BLE_SDK/GD32VW55x_RELEASE_V1.0.2/MSDK/plf/src\init_rom_symbol.c ****         mbedtls_mpi_mod_mpi_fn = (void *)0x0bf6f234;
 537              		.loc 1 152 9 is_stmt 1
 152:C:/Users/stapi/OneDrive/Desktop/GD32VW553/V1_MQTT_OK/GD32VW55X_Wifi_BLE_SDK/GD32VW55x_RELEASE_V1.0.2/MSDK/plf/src\init_rom_symbol.c ****         mbedtls_mpi_mod_mpi_fn = (void *)0x0bf6f234;
 538              		.loc 1 152 32 is_stmt 0
 539 03d0 37050000 		lui	a0,%hi(.LANCHOR72)
 153:C:/Users/stapi/OneDrive/Desktop/GD32VW553/V1_MQTT_OK/GD32VW55X_Wifi_BLE_SDK/GD32VW55x_RELEASE_V1.0.2/MSDK/plf/src\init_rom_symbol.c ****         mbedtls_mpi_mul_int_fn = (void *)0x0bf6ed04;
 540              		.loc 1 153 32
 541 03d4 93094823 		addi	s3,a6,564
 152:C:/Users/stapi/OneDrive/Desktop/GD32VW553/V1_MQTT_OK/GD32VW55X_Wifi_BLE_SDK/GD32VW55x_RELEASE_V1.0.2/MSDK/plf/src\init_rom_symbol.c ****         mbedtls_mpi_mod_mpi_fn = (void *)0x0bf6f234;
 542              		.loc 1 152 32
 543 03d8 23204501 		sw	s4,%lo(.LANCHOR72)(a0)
 153:C:/Users/stapi/OneDrive/Desktop/GD32VW553/V1_MQTT_OK/GD32VW55X_Wifi_BLE_SDK/GD32VW55x_RELEASE_V1.0.2/MSDK/plf/src\init_rom_symbol.c ****         mbedtls_mpi_mul_int_fn = (void *)0x0bf6ed04;
 544              		.loc 1 153 9 is_stmt 1
 153:C:/Users/stapi/OneDrive/Desktop/GD32VW553/V1_MQTT_OK/GD32VW55X_Wifi_BLE_SDK/GD32VW55x_RELEASE_V1.0.2/MSDK/plf/src\init_rom_symbol.c ****         mbedtls_mpi_mul_int_fn = (void *)0x0bf6ed04;
 545              		.loc 1 153 32 is_stmt 0
 546 03dc 37050000 		lui	a0,%hi(.LANCHOR73)
 154:C:/Users/stapi/OneDrive/Desktop/GD32VW553/V1_MQTT_OK/GD32VW55X_Wifi_BLE_SDK/GD32VW55x_RELEASE_V1.0.2/MSDK/plf/src\init_rom_symbol.c ****         mbedtls_mpi_mul_mpi_fn = (void *)0x0bf6ead6;
 547              		.loc 1 154 32
 548 03e0 130948D0 		addi	s2,a6,-764
 153:C:/Users/stapi/OneDrive/Desktop/GD32VW553/V1_MQTT_OK/GD32VW55X_Wifi_BLE_SDK/GD32VW55x_RELEASE_V1.0.2/MSDK/plf/src\init_rom_symbol.c ****         mbedtls_mpi_mul_int_fn = (void *)0x0bf6ed04;
 549              		.loc 1 153 32
 550 03e4 23203501 		sw	s3,%lo(.LANCHOR73)(a0)
 154:C:/Users/stapi/OneDrive/Desktop/GD32VW553/V1_MQTT_OK/GD32VW55X_Wifi_BLE_SDK/GD32VW55x_RELEASE_V1.0.2/MSDK/plf/src\init_rom_symbol.c ****         mbedtls_mpi_mul_mpi_fn = (void *)0x0bf6ead6;
 551              		.loc 1 154 9 is_stmt 1
 154:C:/Users/stapi/OneDrive/Desktop/GD32VW553/V1_MQTT_OK/GD32VW55X_Wifi_BLE_SDK/GD32VW55x_RELEASE_V1.0.2/MSDK/plf/src\init_rom_symbol.c ****         mbedtls_mpi_mul_mpi_fn = (void *)0x0bf6ead6;
 552              		.loc 1 154 32 is_stmt 0
 553 03e8 37050000 		lui	a0,%hi(.LANCHOR74)
 155:C:/Users/stapi/OneDrive/Desktop/GD32VW553/V1_MQTT_OK/GD32VW55X_Wifi_BLE_SDK/GD32VW55x_RELEASE_V1.0.2/MSDK/plf/src\init_rom_symbol.c ****         mbedtls_mpi_read_string_fn = (void *)0x0bf6eaec;
 554              		.loc 1 155 32
 555 03ec 930468AD 		addi	s1,a6,-1322
 154:C:/Users/stapi/OneDrive/Desktop/GD32VW553/V1_MQTT_OK/GD32VW55X_Wifi_BLE_SDK/GD32VW55x_RELEASE_V1.0.2/MSDK/plf/src\init_rom_symbol.c ****         mbedtls_mpi_mul_mpi_fn = (void *)0x0bf6ead6;
 556              		.loc 1 154 32
 557 03f0 23202501 		sw	s2,%lo(.LANCHOR74)(a0)
 155:C:/Users/stapi/OneDrive/Desktop/GD32VW553/V1_MQTT_OK/GD32VW55X_Wifi_BLE_SDK/GD32VW55x_RELEASE_V1.0.2/MSDK/plf/src\init_rom_symbol.c ****         mbedtls_mpi_read_string_fn = (void *)0x0bf6eaec;
 558              		.loc 1 155 9 is_stmt 1
 155:C:/Users/stapi/OneDrive/Desktop/GD32VW553/V1_MQTT_OK/GD32VW55X_Wifi_BLE_SDK/GD32VW55x_RELEASE_V1.0.2/MSDK/plf/src\init_rom_symbol.c ****         mbedtls_mpi_read_string_fn = (void *)0x0bf6eaec;
 559              		.loc 1 155 32 is_stmt 0
 560 03f4 37050000 		lui	a0,%hi(.LANCHOR75)
 157:C:/Users/stapi/OneDrive/Desktop/GD32VW553/V1_MQTT_OK/GD32VW55X_Wifi_BLE_SDK/GD32VW55x_RELEASE_V1.0.2/MSDK/plf/src\init_rom_symbol.c ****         mbedtls_rsa_check_privkey_fn = (void *)0x0bf74972;
 561              		.loc 1 157 37
 562 03f8 930D4830 		addi	s11,a6,772
 155:C:/Users/stapi/OneDrive/Desktop/GD32VW553/V1_MQTT_OK/GD32VW55X_Wifi_BLE_SDK/GD32VW55x_RELEASE_V1.0.2/MSDK/plf/src\init_rom_symbol.c ****         mbedtls_mpi_read_string_fn = (void *)0x0bf6eaec;
 563              		.loc 1 155 32
 564 03fc 23209500 		sw	s1,%lo(.LANCHOR75)(a0)
 156:C:/Users/stapi/OneDrive/Desktop/GD32VW553/V1_MQTT_OK/GD32VW55X_Wifi_BLE_SDK/GD32VW55x_RELEASE_V1.0.2/MSDK/plf/src\init_rom_symbol.c ****         mbedtls_mpi_write_string_fn = (void *)0x0bf6f304;
 565              		.loc 1 156 9 is_stmt 1
 156:C:/Users/stapi/OneDrive/Desktop/GD32VW553/V1_MQTT_OK/GD32VW55X_Wifi_BLE_SDK/GD32VW55x_RELEASE_V1.0.2/MSDK/plf/src\init_rom_symbol.c ****         mbedtls_mpi_write_string_fn = (void *)0x0bf6f304;
 566              		.loc 1 156 36 is_stmt 0
 567 0400 1308C8AE 		addi	a6,a6,-1300
 568 0404 37050000 		lui	a0,%hi(.LANCHOR76)
 158:C:/Users/stapi/OneDrive/Desktop/GD32VW553/V1_MQTT_OK/GD32VW55X_Wifi_BLE_SDK/GD32VW55x_RELEASE_V1.0.2/MSDK/plf/src\init_rom_symbol.c ****         mbedtls_rsa_check_pub_priv_fn = (void *)0x0bf74c08;
 569              		.loc 1 158 38
 570 0408 B756F70B 		li	a3,200757248
 156:C:/Users/stapi/OneDrive/Desktop/GD32VW553/V1_MQTT_OK/GD32VW55X_Wifi_BLE_SDK/GD32VW55x_RELEASE_V1.0.2/MSDK/plf/src\init_rom_symbol.c ****         mbedtls_mpi_write_string_fn = (void *)0x0bf6f304;
 571              		.loc 1 156 36
 572 040c 23200501 		sw	a6,%lo(.LANCHOR76)(a0)
 157:C:/Users/stapi/OneDrive/Desktop/GD32VW553/V1_MQTT_OK/GD32VW55X_Wifi_BLE_SDK/GD32VW55x_RELEASE_V1.0.2/MSDK/plf/src\init_rom_symbol.c ****         mbedtls_rsa_check_privkey_fn = (void *)0x0bf74972;
 573              		.loc 1 157 9 is_stmt 1
 157:C:/Users/stapi/OneDrive/Desktop/GD32VW553/V1_MQTT_OK/GD32VW55X_Wifi_BLE_SDK/GD32VW55x_RELEASE_V1.0.2/MSDK/plf/src\init_rom_symbol.c ****         mbedtls_rsa_check_privkey_fn = (void *)0x0bf74972;
 574              		.loc 1 157 37 is_stmt 0
 575 0410 37050000 		lui	a0,%hi(.LANCHOR77)
 158:C:/Users/stapi/OneDrive/Desktop/GD32VW553/V1_MQTT_OK/GD32VW55X_Wifi_BLE_SDK/GD32VW55x_RELEASE_V1.0.2/MSDK/plf/src\init_rom_symbol.c ****         mbedtls_rsa_check_pub_priv_fn = (void *)0x0bf74c08;
 576              		.loc 1 158 38
 577 0414 13842697 		addi	s0,a3,-1678
 157:C:/Users/stapi/OneDrive/Desktop/GD32VW553/V1_MQTT_OK/GD32VW55X_Wifi_BLE_SDK/GD32VW55x_RELEASE_V1.0.2/MSDK/plf/src\init_rom_symbol.c ****         mbedtls_rsa_check_privkey_fn = (void *)0x0bf74972;
 578              		.loc 1 157 37
 579 0418 2320B501 		sw	s11,%lo(.LANCHOR77)(a0)
 158:C:/Users/stapi/OneDrive/Desktop/GD32VW553/V1_MQTT_OK/GD32VW55X_Wifi_BLE_SDK/GD32VW55x_RELEASE_V1.0.2/MSDK/plf/src\init_rom_symbol.c ****         mbedtls_rsa_check_pub_priv_fn = (void *)0x0bf74c08;
 580              		.loc 1 158 9 is_stmt 1
 158:C:/Users/stapi/OneDrive/Desktop/GD32VW553/V1_MQTT_OK/GD32VW55X_Wifi_BLE_SDK/GD32VW55x_RELEASE_V1.0.2/MSDK/plf/src\init_rom_symbol.c ****         mbedtls_rsa_check_pub_priv_fn = (void *)0x0bf74c08;
 581              		.loc 1 158 38 is_stmt 0
 582 041c 37050000 		lui	a0,%hi(.LANCHOR78)
 159:C:/Users/stapi/OneDrive/Desktop/GD32VW553/V1_MQTT_OK/GD32VW55X_Wifi_BLE_SDK/GD32VW55x_RELEASE_V1.0.2/MSDK/plf/src\init_rom_symbol.c ****         mbedtls_rsa_check_pubkey_fn = (void *)0x0bf74910;
 583              		.loc 1 159 39
 584 0420 938386C0 		addi	t2,a3,-1016
 158:C:/Users/stapi/OneDrive/Desktop/GD32VW553/V1_MQTT_OK/GD32VW55X_Wifi_BLE_SDK/GD32VW55x_RELEASE_V1.0.2/MSDK/plf/src\init_rom_symbol.c ****         mbedtls_rsa_check_pub_priv_fn = (void *)0x0bf74c08;
 585              		.loc 1 158 38
 586 0424 23208500 		sw	s0,%lo(.LANCHOR78)(a0)
 159:C:/Users/stapi/OneDrive/Desktop/GD32VW553/V1_MQTT_OK/GD32VW55X_Wifi_BLE_SDK/GD32VW55x_RELEASE_V1.0.2/MSDK/plf/src\init_rom_symbol.c ****         mbedtls_rsa_check_pubkey_fn = (void *)0x0bf74910;
 587              		.loc 1 159 9 is_stmt 1
 159:C:/Users/stapi/OneDrive/Desktop/GD32VW553/V1_MQTT_OK/GD32VW55X_Wifi_BLE_SDK/GD32VW55x_RELEASE_V1.0.2/MSDK/plf/src\init_rom_symbol.c ****         mbedtls_rsa_check_pubkey_fn = (void *)0x0bf74910;
 588              		.loc 1 159 39 is_stmt 0
 589 0428 37050000 		lui	a0,%hi(.LANCHOR79)
 160:C:/Users/stapi/OneDrive/Desktop/GD32VW553/V1_MQTT_OK/GD32VW55X_Wifi_BLE_SDK/GD32VW55x_RELEASE_V1.0.2/MSDK/plf/src\init_rom_symbol.c ****         mbedtls_rsa_complete_fn = (void *)0x0bf74490;
 590              		.loc 1 160 37
 591 042c 93820691 		addi	t0,a3,-1776
 159:C:/Users/stapi/OneDrive/Desktop/GD32VW553/V1_MQTT_OK/GD32VW55X_Wifi_BLE_SDK/GD32VW55x_RELEASE_V1.0.2/MSDK/plf/src\init_rom_symbol.c ****         mbedtls_rsa_check_pubkey_fn = (void *)0x0bf74910;
 592              		.loc 1 159 39
 593 0430 23207500 		sw	t2,%lo(.LANCHOR79)(a0)
 160:C:/Users/stapi/OneDrive/Desktop/GD32VW553/V1_MQTT_OK/GD32VW55X_Wifi_BLE_SDK/GD32VW55x_RELEASE_V1.0.2/MSDK/plf/src\init_rom_symbol.c ****         mbedtls_rsa_complete_fn = (void *)0x0bf74490;
 594              		.loc 1 160 9 is_stmt 1
 160:C:/Users/stapi/OneDrive/Desktop/GD32VW553/V1_MQTT_OK/GD32VW55X_Wifi_BLE_SDK/GD32VW55x_RELEASE_V1.0.2/MSDK/plf/src\init_rom_symbol.c ****         mbedtls_rsa_complete_fn = (void *)0x0bf74490;
 595              		.loc 1 160 37 is_stmt 0
 596 0434 37050000 		lui	a0,%hi(.LANCHOR80)
 597 0438 23205500 		sw	t0,%lo(.LANCHOR80)(a0)
 161:C:/Users/stapi/OneDrive/Desktop/GD32VW553/V1_MQTT_OK/GD32VW55X_Wifi_BLE_SDK/GD32VW55x_RELEASE_V1.0.2/MSDK/plf/src\init_rom_symbol.c ****         mbedtls_rsa_copy_fn = (void *)0x0bf76132;
 598              		.loc 1 161 9 is_stmt 1
 161:C:/Users/stapi/OneDrive/Desktop/GD32VW553/V1_MQTT_OK/GD32VW55X_Wifi_BLE_SDK/GD32VW55x_RELEASE_V1.0.2/MSDK/plf/src\init_rom_symbol.c ****         mbedtls_rsa_copy_fn = (void *)0x0bf76132;
 599              		.loc 1 161 33 is_stmt 0
 600 043c 37050000 		lui	a0,%hi(.LANCHOR81)
 162:C:/Users/stapi/OneDrive/Desktop/GD32VW553/V1_MQTT_OK/GD32VW55X_Wifi_BLE_SDK/GD32VW55x_RELEASE_V1.0.2/MSDK/plf/src\init_rom_symbol.c ****         mbedtls_rsa_export_fn = (void *)0x0bf74728;
 601              		.loc 1 162 29
 602 0440 138F2713 		addi	t5,a5,306
 161:C:/Users/stapi/OneDrive/Desktop/GD32VW553/V1_MQTT_OK/GD32VW55X_Wifi_BLE_SDK/GD32VW55x_RELEASE_V1.0.2/MSDK/plf/src\init_rom_symbol.c ****         mbedtls_rsa_copy_fn = (void *)0x0bf76132;
 603              		.loc 1 161 33
 604 0444 2320F501 		sw	t6,%lo(.LANCHOR81)(a0)
 162:C:/Users/stapi/OneDrive/Desktop/GD32VW553/V1_MQTT_OK/GD32VW55X_Wifi_BLE_SDK/GD32VW55x_RELEASE_V1.0.2/MSDK/plf/src\init_rom_symbol.c ****         mbedtls_rsa_export_fn = (void *)0x0bf74728;
 605              		.loc 1 162 9 is_stmt 1
 162:C:/Users/stapi/OneDrive/Desktop/GD32VW553/V1_MQTT_OK/GD32VW55X_Wifi_BLE_SDK/GD32VW55x_RELEASE_V1.0.2/MSDK/plf/src\init_rom_symbol.c ****         mbedtls_rsa_export_fn = (void *)0x0bf74728;
 606              		.loc 1 162 29 is_stmt 0
 607 0448 37050000 		lui	a0,%hi(.LANCHOR82)
 608 044c 2320E501 		sw	t5,%lo(.LANCHOR82)(a0)
 163:C:/Users/stapi/OneDrive/Desktop/GD32VW553/V1_MQTT_OK/GD32VW55X_Wifi_BLE_SDK/GD32VW55x_RELEASE_V1.0.2/MSDK/plf/src\init_rom_symbol.c ****         mbedtls_rsa_export_crt_fn = (void *)0x0bf7482a;
 609              		.loc 1 163 9 is_stmt 1
 163:C:/Users/stapi/OneDrive/Desktop/GD32VW553/V1_MQTT_OK/GD32VW55X_Wifi_BLE_SDK/GD32VW55x_RELEASE_V1.0.2/MSDK/plf/src\init_rom_symbol.c ****         mbedtls_rsa_export_crt_fn = (void *)0x0bf7482a;
 610              		.loc 1 163 31 is_stmt 0
 611 0450 37050000 		lui	a0,%hi(.LANCHOR83)
 164:C:/Users/stapi/OneDrive/Desktop/GD32VW553/V1_MQTT_OK/GD32VW55X_Wifi_BLE_SDK/GD32VW55x_RELEASE_V1.0.2/MSDK/plf/src\init_rom_symbol.c ****         mbedtls_rsa_export_raw_fn = (void *)0x0bf745f0;
 612              		.loc 1 164 35
 613 0454 138EA682 		addi	t3,a3,-2006
 163:C:/Users/stapi/OneDrive/Desktop/GD32VW553/V1_MQTT_OK/GD32VW55X_Wifi_BLE_SDK/GD32VW55x_RELEASE_V1.0.2/MSDK/plf/src\init_rom_symbol.c ****         mbedtls_rsa_export_crt_fn = (void *)0x0bf7482a;
 614              		.loc 1 163 31
 615 0458 2320D501 		sw	t4,%lo(.LANCHOR83)(a0)
 164:C:/Users/stapi/OneDrive/Desktop/GD32VW553/V1_MQTT_OK/GD32VW55X_Wifi_BLE_SDK/GD32VW55x_RELEASE_V1.0.2/MSDK/plf/src\init_rom_symbol.c ****         mbedtls_rsa_export_raw_fn = (void *)0x0bf745f0;
 616              		.loc 1 164 9 is_stmt 1
 164:C:/Users/stapi/OneDrive/Desktop/GD32VW553/V1_MQTT_OK/GD32VW55X_Wifi_BLE_SDK/GD32VW55x_RELEASE_V1.0.2/MSDK/plf/src\init_rom_symbol.c ****         mbedtls_rsa_export_raw_fn = (void *)0x0bf745f0;
 617              		.loc 1 164 35 is_stmt 0
 618 045c 37050000 		lui	a0,%hi(.LANCHOR84)
 619 0460 2320C501 		sw	t3,%lo(.LANCHOR84)(a0)
 165:C:/Users/stapi/OneDrive/Desktop/GD32VW553/V1_MQTT_OK/GD32VW55X_Wifi_BLE_SDK/GD32VW55x_RELEASE_V1.0.2/MSDK/plf/src\init_rom_symbol.c ****         mbedtls_rsa_free_fn = (void *)0x0bf7623c;
 620              		.loc 1 165 9 is_stmt 1
 166:C:/Users/stapi/OneDrive/Desktop/GD32VW553/V1_MQTT_OK/GD32VW55X_Wifi_BLE_SDK/GD32VW55x_RELEASE_V1.0.2/MSDK/plf/src\init_rom_symbol.c ****         mbedtls_rsa_gen_key_fn = (void *)0x0bf749e2;
 621              		.loc 1 166 29 is_stmt 0
 622 0464 B765F70B 		li	a1,200761344
 165:C:/Users/stapi/OneDrive/Desktop/GD32VW553/V1_MQTT_OK/GD32VW55X_Wifi_BLE_SDK/GD32VW55x_RELEASE_V1.0.2/MSDK/plf/src\init_rom_symbol.c ****         mbedtls_rsa_free_fn = (void *)0x0bf7623c;
 623              		.loc 1 165 35
 624 0468 37050000 		lui	a0,%hi(.LANCHOR85)
 625 046c 23206500 		sw	t1,%lo(.LANCHOR85)(a0)
 166:C:/Users/stapi/OneDrive/Desktop/GD32VW553/V1_MQTT_OK/GD32VW55X_Wifi_BLE_SDK/GD32VW55x_RELEASE_V1.0.2/MSDK/plf/src\init_rom_symbol.c ****         mbedtls_rsa_gen_key_fn = (void *)0x0bf749e2;
 626              		.loc 1 166 9 is_stmt 1
 166:C:/Users/stapi/OneDrive/Desktop/GD32VW553/V1_MQTT_OK/GD32VW55X_Wifi_BLE_SDK/GD32VW55x_RELEASE_V1.0.2/MSDK/plf/src\init_rom_symbol.c ****         mbedtls_rsa_gen_key_fn = (void *)0x0bf749e2;
 627              		.loc 1 166 29 is_stmt 0
 628 0470 9385C523 		addi	a1,a1,572
 629 0474 37050000 		lui	a0,%hi(.LANCHOR86)
 167:C:/Users/stapi/OneDrive/Desktop/GD32VW553/V1_MQTT_OK/GD32VW55X_Wifi_BLE_SDK/GD32VW55x_RELEASE_V1.0.2/MSDK/plf/src\init_rom_symbol.c ****         mbedtls_rsa_get_len_fn = (void *)0x0bf7490c;
 630              		.loc 1 167 32
 631 0478 1386269E 		addi	a2,a3,-1566
 166:C:/Users/stapi/OneDrive/Desktop/GD32VW553/V1_MQTT_OK/GD32VW55X_Wifi_BLE_SDK/GD32VW55x_RELEASE_V1.0.2/MSDK/plf/src\init_rom_symbol.c ****         mbedtls_rsa_gen_key_fn = (void *)0x0bf749e2;
 632              		.loc 1 166 29
 633 047c 2320B500 		sw	a1,%lo(.LANCHOR86)(a0)
 167:C:/Users/stapi/OneDrive/Desktop/GD32VW553/V1_MQTT_OK/GD32VW55X_Wifi_BLE_SDK/GD32VW55x_RELEASE_V1.0.2/MSDK/plf/src\init_rom_symbol.c ****         mbedtls_rsa_get_len_fn = (void *)0x0bf7490c;
 634              		.loc 1 167 9 is_stmt 1
 167:C:/Users/stapi/OneDrive/Desktop/GD32VW553/V1_MQTT_OK/GD32VW55X_Wifi_BLE_SDK/GD32VW55x_RELEASE_V1.0.2/MSDK/plf/src\init_rom_symbol.c ****         mbedtls_rsa_get_len_fn = (void *)0x0bf7490c;
 635              		.loc 1 167 32 is_stmt 0
 636 0480 B7050000 		lui	a1,%hi(.LANCHOR87)
 637              		.loc 1 170 35
 638 0484 3245     		lw	a0,12(sp)
 168:C:/Users/stapi/OneDrive/Desktop/GD32VW553/V1_MQTT_OK/GD32VW55X_Wifi_BLE_SDK/GD32VW55x_RELEASE_V1.0.2/MSDK/plf/src\init_rom_symbol.c ****         mbedtls_rsa_import_fn = (void *)0x0bf74364;
 639              		.loc 1 168 32
 640 0486 938CC690 		addi	s9,a3,-1780
 167:C:/Users/stapi/OneDrive/Desktop/GD32VW553/V1_MQTT_OK/GD32VW55X_Wifi_BLE_SDK/GD32VW55x_RELEASE_V1.0.2/MSDK/plf/src\init_rom_symbol.c ****         mbedtls_rsa_get_len_fn = (void *)0x0bf7490c;
 641              		.loc 1 167 32
 642 048a 23A0C500 		sw	a2,%lo(.LANCHOR87)(a1)
 168:C:/Users/stapi/OneDrive/Desktop/GD32VW553/V1_MQTT_OK/GD32VW55X_Wifi_BLE_SDK/GD32VW55x_RELEASE_V1.0.2/MSDK/plf/src\init_rom_symbol.c ****         mbedtls_rsa_import_fn = (void *)0x0bf74364;
 643              		.loc 1 168 9 is_stmt 1
 168:C:/Users/stapi/OneDrive/Desktop/GD32VW553/V1_MQTT_OK/GD32VW55X_Wifi_BLE_SDK/GD32VW55x_RELEASE_V1.0.2/MSDK/plf/src\init_rom_symbol.c ****         mbedtls_rsa_import_fn = (void *)0x0bf74364;
 644              		.loc 1 168 32 is_stmt 0
 645 048e 37060000 		lui	a2,%hi(.LANCHOR88)
 646 0492 23209601 		sw	s9,%lo(.LANCHOR88)(a2)
 169:C:/Users/stapi/OneDrive/Desktop/GD32VW553/V1_MQTT_OK/GD32VW55X_Wifi_BLE_SDK/GD32VW55x_RELEASE_V1.0.2/MSDK/plf/src\init_rom_symbol.c ****         mbedtls_rsa_import_raw_fn = (void *)0x0bf743f6;
 647              		.loc 1 169 9 is_stmt 1
 169:C:/Users/stapi/OneDrive/Desktop/GD32VW553/V1_MQTT_OK/GD32VW55X_Wifi_BLE_SDK/GD32VW55x_RELEASE_V1.0.2/MSDK/plf/src\init_rom_symbol.c ****         mbedtls_rsa_import_raw_fn = (void *)0x0bf743f6;
 648              		.loc 1 169 31 is_stmt 0
 649 0496 37060000 		lui	a2,%hi(.LANCHOR89)
 171:C:/Users/stapi/OneDrive/Desktop/GD32VW553/V1_MQTT_OK/GD32VW55X_Wifi_BLE_SDK/GD32VW55x_RELEASE_V1.0.2/MSDK/plf/src\init_rom_symbol.c ****         mbedtls_rsa_init_fn = (void *)0x0bf748d4;
 650              		.loc 1 171 29
 651 049a B755F70B 		li	a1,200757248
 169:C:/Users/stapi/OneDrive/Desktop/GD32VW553/V1_MQTT_OK/GD32VW55X_Wifi_BLE_SDK/GD32VW55x_RELEASE_V1.0.2/MSDK/plf/src\init_rom_symbol.c ****         mbedtls_rsa_import_raw_fn = (void *)0x0bf743f6;
 652              		.loc 1 169 31
 653 049e 2320A601 		sw	s10,%lo(.LANCHOR89)(a2)
 170:C:/Users/stapi/OneDrive/Desktop/GD32VW553/V1_MQTT_OK/GD32VW55X_Wifi_BLE_SDK/GD32VW55x_RELEASE_V1.0.2/MSDK/plf/src\init_rom_symbol.c ****         mbedtls_rsa_init_fn = (void *)0x0bf748d4;
 654              		.loc 1 170 9 is_stmt 1
 170:C:/Users/stapi/OneDrive/Desktop/GD32VW553/V1_MQTT_OK/GD32VW55X_Wifi_BLE_SDK/GD32VW55x_RELEASE_V1.0.2/MSDK/plf/src\init_rom_symbol.c ****         mbedtls_rsa_init_fn = (void *)0x0bf748d4;
 655              		.loc 1 170 35 is_stmt 0
 656 04a2 37060000 		lui	a2,%hi(.LANCHOR90)
 657 04a6 2320A600 		sw	a0,%lo(.LANCHOR90)(a2)
 658              		.loc 1 171 9 is_stmt 1
 659              		.loc 1 171 29 is_stmt 0
 660 04aa 1385458D 		addi	a0,a1,-1836
 661 04ae 37060000 		lui	a2,%hi(.LANCHOR91)
 662 04b2 2320A600 		sw	a0,%lo(.LANCHOR91)(a2)
 172:C:/Users/stapi/OneDrive/Desktop/GD32VW553/V1_MQTT_OK/GD32VW55X_Wifi_BLE_SDK/GD32VW55x_RELEASE_V1.0.2/MSDK/plf/src\init_rom_symbol.c ****         mbedtls_rsa_pkcs1_decrypt_fn = (void *)0x0bf75a32;
 663              		.loc 1 172 9 is_stmt 1
 664              		.loc 1 172 38 is_stmt 0
 665 04b6 3765F70B 		li	a0,200761344
 666 04ba 130425A3 		addi	s0,a0,-1486
 667 04be 37060000 		lui	a2,%hi(.LANCHOR92)
 668 04c2 23208600 		sw	s0,%lo(.LANCHOR92)(a2)
 173:C:/Users/stapi/OneDrive/Desktop/GD32VW553/V1_MQTT_OK/GD32VW55X_Wifi_BLE_SDK/GD32VW55x_RELEASE_V1.0.2/MSDK/plf/src\init_rom_symbol.c ****         mbedtls_rsa_pkcs1_encrypt_fn = (void *)0x0bf75574;
 669              		.loc 1 173 9 is_stmt 1
 670              		.loc 1 173 38 is_stmt 0
 671 04c6 13844557 		addi	s0,a1,1396
 672 04ca 37060000 		lui	a2,%hi(.LANCHOR93)
 673 04ce 23208600 		sw	s0,%lo(.LANCHOR93)(a2)
 174:C:/Users/stapi/OneDrive/Desktop/GD32VW553/V1_MQTT_OK/GD32VW55X_Wifi_BLE_SDK/GD32VW55x_RELEASE_V1.0.2/MSDK/plf/src\init_rom_symbol.c ****         mbedtls_rsa_pkcs1_sign_fn = (void *)0x0bf75d64;
 674              		.loc 1 174 9 is_stmt 1
 675              		.loc 1 174 35 is_stmt 0
 676 04d2 130445D6 		addi	s0,a0,-668
 677 04d6 37060000 		lui	a2,%hi(.LANCHOR94)
 678 04da 23208600 		sw	s0,%lo(.LANCHOR94)(a2)
 175:C:/Users/stapi/OneDrive/Desktop/GD32VW553/V1_MQTT_OK/GD32VW55X_Wifi_BLE_SDK/GD32VW55x_RELEASE_V1.0.2/MSDK/plf/src\init_rom_symbol.c ****         mbedtls_rsa_pkcs1_verify_fn = (void *)0x0bf760d4;
 679              		.loc 1 175 9 is_stmt 1
 680              		.loc 1 175 37 is_stmt 0
 681 04de 1305450D 		addi	a0,a0,212
 682 04e2 37060000 		lui	a2,%hi(.LANCHOR95)
 683 04e6 2320A600 		sw	a0,%lo(.LANCHOR95)(a2)
 176:C:/Users/stapi/OneDrive/Desktop/GD32VW553/V1_MQTT_OK/GD32VW55X_Wifi_BLE_SDK/GD32VW55x_RELEASE_V1.0.2/MSDK/plf/src\init_rom_symbol.c ****         mbedtls_rsa_private_fn = (void *)0x0bf752ce;
 684              		.loc 1 176 9 is_stmt 1
 177:C:/Users/stapi/OneDrive/Desktop/GD32VW553/V1_MQTT_OK/GD32VW55X_Wifi_BLE_SDK/GD32VW55x_RELEASE_V1.0.2/MSDK/plf/src\init_rom_symbol.c ****         mbedtls_rsa_private_sw_fn = (void *)0x0bf74da8;
 178:C:/Users/stapi/OneDrive/Desktop/GD32VW553/V1_MQTT_OK/GD32VW55X_Wifi_BLE_SDK/GD32VW55x_RELEASE_V1.0.2/MSDK/plf/src\init_rom_symbol.c ****         mbedtls_rsa_public_fn = (void *)0x0bf74c50;
 685              		.loc 1 178 31 is_stmt 0
 686 04ea 938A06C5 		addi	s5,a3,-944
 176:C:/Users/stapi/OneDrive/Desktop/GD32VW553/V1_MQTT_OK/GD32VW55X_Wifi_BLE_SDK/GD32VW55x_RELEASE_V1.0.2/MSDK/plf/src\init_rom_symbol.c ****         mbedtls_rsa_private_fn = (void *)0x0bf752ce;
 687              		.loc 1 176 32
 688 04ee 1385E52C 		addi	a0,a1,718
 689 04f2 37060000 		lui	a2,%hi(.LANCHOR96)
 690              		.loc 1 178 31
 691 04f6 B70E0000 		lui	t4,%hi(.LANCHOR98)
 176:C:/Users/stapi/OneDrive/Desktop/GD32VW553/V1_MQTT_OK/GD32VW55X_Wifi_BLE_SDK/GD32VW55x_RELEASE_V1.0.2/MSDK/plf/src\init_rom_symbol.c ****         mbedtls_rsa_private_fn = (void *)0x0bf752ce;
 692              		.loc 1 176 32
 693 04fa 2320A600 		sw	a0,%lo(.LANCHOR96)(a2)
 177:C:/Users/stapi/OneDrive/Desktop/GD32VW553/V1_MQTT_OK/GD32VW55X_Wifi_BLE_SDK/GD32VW55x_RELEASE_V1.0.2/MSDK/plf/src\init_rom_symbol.c ****         mbedtls_rsa_private_sw_fn = (void *)0x0bf74da8;
 694              		.loc 1 177 9 is_stmt 1
 179:C:/Users/stapi/OneDrive/Desktop/GD32VW553/V1_MQTT_OK/GD32VW55X_Wifi_BLE_SDK/GD32VW55x_RELEASE_V1.0.2/MSDK/plf/src\init_rom_symbol.c ****         mbedtls_rsa_rsaes_oaep_decrypt_fn = (void *)0x0bf755a8;
 695              		.loc 1 179 43 is_stmt 0
 696 04fe 138A865A 		addi	s4,a3,1448
 178:C:/Users/stapi/OneDrive/Desktop/GD32VW553/V1_MQTT_OK/GD32VW55X_Wifi_BLE_SDK/GD32VW55x_RELEASE_V1.0.2/MSDK/plf/src\init_rom_symbol.c ****         mbedtls_rsa_rsaes_oaep_decrypt_fn = (void *)0x0bf755a8;
 697              		.loc 1 178 31
 698 0502 23A05E01 		sw	s5,%lo(.LANCHOR98)(t4)
 699              		.loc 1 179 43
 700 0506 B70E0000 		lui	t4,%hi(.LANCHOR99)
 180:C:/Users/stapi/OneDrive/Desktop/GD32VW553/V1_MQTT_OK/GD32VW55X_Wifi_BLE_SDK/GD32VW55x_RELEASE_V1.0.2/MSDK/plf/src\init_rom_symbol.c ****         mbedtls_rsa_rsaes_oaep_encrypt_fn = (void *)0x0bf752e2;
 701              		.loc 1 180 43
 702 050a 9389262E 		addi	s3,a3,738
 179:C:/Users/stapi/OneDrive/Desktop/GD32VW553/V1_MQTT_OK/GD32VW55X_Wifi_BLE_SDK/GD32VW55x_RELEASE_V1.0.2/MSDK/plf/src\init_rom_symbol.c ****         mbedtls_rsa_rsaes_oaep_decrypt_fn = (void *)0x0bf755a8;
 703              		.loc 1 179 43
 704 050e 23A04E01 		sw	s4,%lo(.LANCHOR99)(t4)
 705              		.loc 1 180 43
 706 0512 B70E0000 		lui	t4,%hi(.LANCHOR100)
 181:C:/Users/stapi/OneDrive/Desktop/GD32VW553/V1_MQTT_OK/GD32VW55X_Wifi_BLE_SDK/GD32VW55x_RELEASE_V1.0.2/MSDK/plf/src\init_rom_symbol.c ****         mbedtls_rsa_rsaes_pkcs1_v15_decrypt_fn = (void *)0x0bf757da;
 707              		.loc 1 181 48
 708 0516 1389A67D 		addi	s2,a3,2010
 180:C:/Users/stapi/OneDrive/Desktop/GD32VW553/V1_MQTT_OK/GD32VW55X_Wifi_BLE_SDK/GD32VW55x_RELEASE_V1.0.2/MSDK/plf/src\init_rom_symbol.c ****         mbedtls_rsa_rsaes_oaep_encrypt_fn = (void *)0x0bf752e2;
 709              		.loc 1 180 43
 710 051a 23A03E01 		sw	s3,%lo(.LANCHOR100)(t4)
 711              		.loc 1 181 48
 712 051e B70E0000 		lui	t4,%hi(.LANCHOR101)
 182:C:/Users/stapi/OneDrive/Desktop/GD32VW553/V1_MQTT_OK/GD32VW55X_Wifi_BLE_SDK/GD32VW55x_RELEASE_V1.0.2/MSDK/plf/src\init_rom_symbol.c ****         mbedtls_rsa_rsaes_pkcs1_v15_encrypt_fn = (void *)0x0bf75448;
 713              		.loc 1 182 48
 714 0522 93848644 		addi	s1,a3,1096
 181:C:/Users/stapi/OneDrive/Desktop/GD32VW553/V1_MQTT_OK/GD32VW55X_Wifi_BLE_SDK/GD32VW55x_RELEASE_V1.0.2/MSDK/plf/src\init_rom_symbol.c ****         mbedtls_rsa_rsaes_pkcs1_v15_decrypt_fn = (void *)0x0bf757da;
 715              		.loc 1 181 48
 716 0526 23A02E01 		sw	s2,%lo(.LANCHOR101)(t4)
 717              		.loc 1 182 48
 718 052a B70E0000 		lui	t4,%hi(.LANCHOR102)
 183:C:/Users/stapi/OneDrive/Desktop/GD32VW553/V1_MQTT_OK/GD32VW55X_Wifi_BLE_SDK/GD32VW55x_RELEASE_V1.0.2/MSDK/plf/src\init_rom_symbol.c ****         mbedtls_rsa_rsassa_pkcs1_v15_sign_fn = (void *)0x0bf75c56;
 719              		.loc 1 183 46
 720 052e 138467C5 		addi	s0,a5,-938
 182:C:/Users/stapi/OneDrive/Desktop/GD32VW553/V1_MQTT_OK/GD32VW55X_Wifi_BLE_SDK/GD32VW55x_RELEASE_V1.0.2/MSDK/plf/src\init_rom_symbol.c ****         mbedtls_rsa_rsaes_pkcs1_v15_encrypt_fn = (void *)0x0bf75448;
 721              		.loc 1 182 48
 722 0532 23A09E00 		sw	s1,%lo(.LANCHOR102)(t4)
 723              		.loc 1 183 46
 724 0536 B70E0000 		lui	t4,%hi(.LANCHOR103)
 184:C:/Users/stapi/OneDrive/Desktop/GD32VW553/V1_MQTT_OK/GD32VW55X_Wifi_BLE_SDK/GD32VW55x_RELEASE_V1.0.2/MSDK/plf/src\init_rom_symbol.c ****         mbedtls_rsa_rsassa_pkcs1_v15_verify_fn = (void *)0x0bf75fca;
 725              		.loc 1 184 48
 726 053a 9383A7FC 		addi	t2,a5,-54
 183:C:/Users/stapi/OneDrive/Desktop/GD32VW553/V1_MQTT_OK/GD32VW55X_Wifi_BLE_SDK/GD32VW55x_RELEASE_V1.0.2/MSDK/plf/src\init_rom_symbol.c ****         mbedtls_rsa_rsassa_pkcs1_v15_sign_fn = (void *)0x0bf75c56;
 727              		.loc 1 183 46
 728 053e 23A08E00 		sw	s0,%lo(.LANCHOR103)(t4)
 729              		.loc 1 184 48
 730 0542 B70E0000 		lui	t4,%hi(.LANCHOR104)
 185:C:/Users/stapi/OneDrive/Desktop/GD32VW553/V1_MQTT_OK/GD32VW55X_Wifi_BLE_SDK/GD32VW55x_RELEASE_V1.0.2/MSDK/plf/src\init_rom_symbol.c ****         mbedtls_rsa_rsassa_pss_sign_fn = (void *)0x0bf75a6c;
 731              		.loc 1 185 40
 732 0546 9382C7A6 		addi	t0,a5,-1428
 184:C:/Users/stapi/OneDrive/Desktop/GD32VW553/V1_MQTT_OK/GD32VW55X_Wifi_BLE_SDK/GD32VW55x_RELEASE_V1.0.2/MSDK/plf/src\init_rom_symbol.c ****         mbedtls_rsa_rsassa_pkcs1_v15_verify_fn = (void *)0x0bf75fca;
 733              		.loc 1 184 48
 734 054a 23A07E00 		sw	t2,%lo(.LANCHOR104)(t4)
 735              		.loc 1 185 40
 736 054e B70E0000 		lui	t4,%hi(.LANCHOR105)
 186:C:/Users/stapi/OneDrive/Desktop/GD32VW553/V1_MQTT_OK/GD32VW55X_Wifi_BLE_SDK/GD32VW55x_RELEASE_V1.0.2/MSDK/plf/src\init_rom_symbol.c ****         mbedtls_rsa_rsassa_pss_verify_fn = (void *)0x0bf75faa;
 737              		.loc 1 186 42
 738 0552 938FA7FA 		addi	t6,a5,-86
 185:C:/Users/stapi/OneDrive/Desktop/GD32VW553/V1_MQTT_OK/GD32VW55X_Wifi_BLE_SDK/GD32VW55x_RELEASE_V1.0.2/MSDK/plf/src\init_rom_symbol.c ****         mbedtls_rsa_rsassa_pss_sign_fn = (void *)0x0bf75a6c;
 739              		.loc 1 185 40
 740 0556 23A05E00 		sw	t0,%lo(.LANCHOR105)(t4)
 741              		.loc 1 186 42
 742 055a B70E0000 		lui	t4,%hi(.LANCHOR106)
 187:C:/Users/stapi/OneDrive/Desktop/GD32VW553/V1_MQTT_OK/GD32VW55X_Wifi_BLE_SDK/GD32VW55x_RELEASE_V1.0.2/MSDK/plf/src\init_rom_symbol.c ****         mbedtls_rsa_rsassa_pss_verify_ext_fn = (void *)0x0bf75d82;
 743              		.loc 1 187 46
 744 055e 138F27D8 		addi	t5,a5,-638
 186:C:/Users/stapi/OneDrive/Desktop/GD32VW553/V1_MQTT_OK/GD32VW55X_Wifi_BLE_SDK/GD32VW55x_RELEASE_V1.0.2/MSDK/plf/src\init_rom_symbol.c ****         mbedtls_rsa_rsassa_pss_verify_fn = (void *)0x0bf75faa;
 745              		.loc 1 186 42
 746 0562 23A0FE01 		sw	t6,%lo(.LANCHOR106)(t4)
 747              		.loc 1 187 46
 748 0566 B70E0000 		lui	t4,%hi(.LANCHOR107)
 749 056a 23A0EE01 		sw	t5,%lo(.LANCHOR107)(t4)
 188:C:/Users/stapi/OneDrive/Desktop/GD32VW553/V1_MQTT_OK/GD32VW55X_Wifi_BLE_SDK/GD32VW55x_RELEASE_V1.0.2/MSDK/plf/src\init_rom_symbol.c ****         mbedtls_rsa_set_padding_fn = (void *)0x0bf74902;
 750              		.loc 1 188 36
 751 056e 93862690 		addi	a3,a3,-1790
 752 0572 B70E0000 		lui	t4,%hi(.LANCHOR108)
 189:C:/Users/stapi/OneDrive/Desktop/GD32VW553/V1_MQTT_OK/GD32VW55X_Wifi_BLE_SDK/GD32VW55x_RELEASE_V1.0.2/MSDK/plf/src\init_rom_symbol.c ****         mbedtls_sha256_clone_fn = (void *)0x0bf767b0;
 753              		.loc 1 189 33
 754 0576 138E077B 		addi	t3,a5,1968
 188:C:/Users/stapi/OneDrive/Desktop/GD32VW553/V1_MQTT_OK/GD32VW55X_Wifi_BLE_SDK/GD32VW55x_RELEASE_V1.0.2/MSDK/plf/src\init_rom_symbol.c ****         mbedtls_rsa_set_padding_fn = (void *)0x0bf74902;
 755              		.loc 1 188 36
 756 057a 23A0DE00 		sw	a3,%lo(.LANCHOR108)(t4)
 757              		.loc 1 189 33
 758 057e B7060000 		lui	a3,%hi(.LANCHOR109)
 190:C:/Users/stapi/OneDrive/Desktop/GD32VW553/V1_MQTT_OK/GD32VW55X_Wifi_BLE_SDK/GD32VW55x_RELEASE_V1.0.2/MSDK/plf/src\init_rom_symbol.c ****         mbedtls_sha256_finish_fn = (void *)0x0bf7686a;
 759              		.loc 1 190 34
 760 0582 1303A786 		addi	t1,a4,-1942
 189:C:/Users/stapi/OneDrive/Desktop/GD32VW553/V1_MQTT_OK/GD32VW55X_Wifi_BLE_SDK/GD32VW55x_RELEASE_V1.0.2/MSDK/plf/src\init_rom_symbol.c ****         mbedtls_sha256_clone_fn = (void *)0x0bf767b0;
 761              		.loc 1 189 33
 762 0586 23A0C601 		sw	t3,%lo(.LANCHOR109)(a3)
 763              		.loc 1 190 34
 764 058a B7060000 		lui	a3,%hi(.LANCHOR110)
 191:C:/Users/stapi/OneDrive/Desktop/GD32VW553/V1_MQTT_OK/GD32VW55X_Wifi_BLE_SDK/GD32VW55x_RELEASE_V1.0.2/MSDK/plf/src\init_rom_symbol.c ****         mbedtls_sha256_finish_ret_fn = (void *)0x0bf76842;
 765              		.loc 1 191 38
 766 058e 93082784 		addi	a7,a4,-1982
 190:C:/Users/stapi/OneDrive/Desktop/GD32VW553/V1_MQTT_OK/GD32VW55X_Wifi_BLE_SDK/GD32VW55x_RELEASE_V1.0.2/MSDK/plf/src\init_rom_symbol.c ****         mbedtls_sha256_finish_fn = (void *)0x0bf7686a;
 767              		.loc 1 190 34
 768 0592 23A06600 		sw	t1,%lo(.LANCHOR110)(a3)
 769              		.loc 1 191 38
 770 0596 B7060000 		lui	a3,%hi(.LANCHOR111)
 192:C:/Users/stapi/OneDrive/Desktop/GD32VW553/V1_MQTT_OK/GD32VW55X_Wifi_BLE_SDK/GD32VW55x_RELEASE_V1.0.2/MSDK/plf/src\init_rom_symbol.c ****         mbedtls_sha256_free_fn = (void *)0x0bf7679e;
 771              		.loc 1 192 32
 772 059a 1388E779 		addi	a6,a5,1950
 191:C:/Users/stapi/OneDrive/Desktop/GD32VW553/V1_MQTT_OK/GD32VW55X_Wifi_BLE_SDK/GD32VW55x_RELEASE_V1.0.2/MSDK/plf/src\init_rom_symbol.c ****         mbedtls_sha256_finish_ret_fn = (void *)0x0bf76842;
 773              		.loc 1 191 38
 774 059e 23A01601 		sw	a7,%lo(.LANCHOR111)(a3)
 775              		.loc 1 192 32
 776 05a2 B7060000 		lui	a3,%hi(.LANCHOR112)
 193:C:/Users/stapi/OneDrive/Desktop/GD32VW553/V1_MQTT_OK/GD32VW55X_Wifi_BLE_SDK/GD32VW55x_RELEASE_V1.0.2/MSDK/plf/src\init_rom_symbol.c ****         mbedtls_sha256_init_fn = (void *)0x0bf7679a;
 777              		.loc 1 193 32
 778 05a6 1385A779 		addi	a0,a5,1946
 192:C:/Users/stapi/OneDrive/Desktop/GD32VW553/V1_MQTT_OK/GD32VW55X_Wifi_BLE_SDK/GD32VW55x_RELEASE_V1.0.2/MSDK/plf/src\init_rom_symbol.c ****         mbedtls_sha256_free_fn = (void *)0x0bf7679e;
 779              		.loc 1 192 32
 780 05aa 23A00601 		sw	a6,%lo(.LANCHOR112)(a3)
 177:C:/Users/stapi/OneDrive/Desktop/GD32VW553/V1_MQTT_OK/GD32VW55X_Wifi_BLE_SDK/GD32VW55x_RELEASE_V1.0.2/MSDK/plf/src\init_rom_symbol.c ****         mbedtls_rsa_public_fn = (void *)0x0bf74c50;
 781              		.loc 1 177 35
 782 05ae 37060000 		lui	a2,%hi(.LANCHOR97)
 783 05b2 938585DA 		addi	a1,a1,-600
 784              		.loc 1 193 32
 785 05b6 B7060000 		lui	a3,%hi(.LANCHOR113)
 177:C:/Users/stapi/OneDrive/Desktop/GD32VW553/V1_MQTT_OK/GD32VW55X_Wifi_BLE_SDK/GD32VW55x_RELEASE_V1.0.2/MSDK/plf/src\init_rom_symbol.c ****         mbedtls_rsa_public_fn = (void *)0x0bf74c50;
 786              		.loc 1 177 35
 787 05ba 2320B600 		sw	a1,%lo(.LANCHOR97)(a2)
 178:C:/Users/stapi/OneDrive/Desktop/GD32VW553/V1_MQTT_OK/GD32VW55X_Wifi_BLE_SDK/GD32VW55x_RELEASE_V1.0.2/MSDK/plf/src\init_rom_symbol.c ****         mbedtls_rsa_rsaes_oaep_decrypt_fn = (void *)0x0bf755a8;
 788              		.loc 1 178 9 is_stmt 1
 179:C:/Users/stapi/OneDrive/Desktop/GD32VW553/V1_MQTT_OK/GD32VW55X_Wifi_BLE_SDK/GD32VW55x_RELEASE_V1.0.2/MSDK/plf/src\init_rom_symbol.c ****         mbedtls_rsa_rsaes_oaep_encrypt_fn = (void *)0x0bf752e2;
 789              		.loc 1 179 9
 180:C:/Users/stapi/OneDrive/Desktop/GD32VW553/V1_MQTT_OK/GD32VW55X_Wifi_BLE_SDK/GD32VW55x_RELEASE_V1.0.2/MSDK/plf/src\init_rom_symbol.c ****         mbedtls_rsa_rsaes_pkcs1_v15_decrypt_fn = (void *)0x0bf757da;
 790              		.loc 1 180 9
 181:C:/Users/stapi/OneDrive/Desktop/GD32VW553/V1_MQTT_OK/GD32VW55X_Wifi_BLE_SDK/GD32VW55x_RELEASE_V1.0.2/MSDK/plf/src\init_rom_symbol.c ****         mbedtls_rsa_rsaes_pkcs1_v15_encrypt_fn = (void *)0x0bf75448;
 791              		.loc 1 181 9
 182:C:/Users/stapi/OneDrive/Desktop/GD32VW553/V1_MQTT_OK/GD32VW55X_Wifi_BLE_SDK/GD32VW55x_RELEASE_V1.0.2/MSDK/plf/src\init_rom_symbol.c ****         mbedtls_rsa_rsassa_pkcs1_v15_sign_fn = (void *)0x0bf75c56;
 792              		.loc 1 182 9
 183:C:/Users/stapi/OneDrive/Desktop/GD32VW553/V1_MQTT_OK/GD32VW55X_Wifi_BLE_SDK/GD32VW55x_RELEASE_V1.0.2/MSDK/plf/src\init_rom_symbol.c ****         mbedtls_rsa_rsassa_pkcs1_v15_verify_fn = (void *)0x0bf75fca;
 793              		.loc 1 183 9
 184:C:/Users/stapi/OneDrive/Desktop/GD32VW553/V1_MQTT_OK/GD32VW55X_Wifi_BLE_SDK/GD32VW55x_RELEASE_V1.0.2/MSDK/plf/src\init_rom_symbol.c ****         mbedtls_rsa_rsassa_pss_sign_fn = (void *)0x0bf75a6c;
 794              		.loc 1 184 9
 185:C:/Users/stapi/OneDrive/Desktop/GD32VW553/V1_MQTT_OK/GD32VW55X_Wifi_BLE_SDK/GD32VW55x_RELEASE_V1.0.2/MSDK/plf/src\init_rom_symbol.c ****         mbedtls_rsa_rsassa_pss_verify_fn = (void *)0x0bf75faa;
 795              		.loc 1 185 9
 186:C:/Users/stapi/OneDrive/Desktop/GD32VW553/V1_MQTT_OK/GD32VW55X_Wifi_BLE_SDK/GD32VW55x_RELEASE_V1.0.2/MSDK/plf/src\init_rom_symbol.c ****         mbedtls_rsa_rsassa_pss_verify_ext_fn = (void *)0x0bf75d82;
 796              		.loc 1 186 9
 187:C:/Users/stapi/OneDrive/Desktop/GD32VW553/V1_MQTT_OK/GD32VW55X_Wifi_BLE_SDK/GD32VW55x_RELEASE_V1.0.2/MSDK/plf/src\init_rom_symbol.c ****         mbedtls_rsa_set_padding_fn = (void *)0x0bf74902;
 797              		.loc 1 187 9
 188:C:/Users/stapi/OneDrive/Desktop/GD32VW553/V1_MQTT_OK/GD32VW55X_Wifi_BLE_SDK/GD32VW55x_RELEASE_V1.0.2/MSDK/plf/src\init_rom_symbol.c ****         mbedtls_sha256_clone_fn = (void *)0x0bf767b0;
 798              		.loc 1 188 9
 189:C:/Users/stapi/OneDrive/Desktop/GD32VW553/V1_MQTT_OK/GD32VW55X_Wifi_BLE_SDK/GD32VW55x_RELEASE_V1.0.2/MSDK/plf/src\init_rom_symbol.c ****         mbedtls_sha256_finish_fn = (void *)0x0bf7686a;
 799              		.loc 1 189 9
 190:C:/Users/stapi/OneDrive/Desktop/GD32VW553/V1_MQTT_OK/GD32VW55X_Wifi_BLE_SDK/GD32VW55x_RELEASE_V1.0.2/MSDK/plf/src\init_rom_symbol.c ****         mbedtls_sha256_finish_ret_fn = (void *)0x0bf76842;
 800              		.loc 1 190 9
 191:C:/Users/stapi/OneDrive/Desktop/GD32VW553/V1_MQTT_OK/GD32VW55X_Wifi_BLE_SDK/GD32VW55x_RELEASE_V1.0.2/MSDK/plf/src\init_rom_symbol.c ****         mbedtls_sha256_free_fn = (void *)0x0bf7679e;
 801              		.loc 1 191 9
 192:C:/Users/stapi/OneDrive/Desktop/GD32VW553/V1_MQTT_OK/GD32VW55X_Wifi_BLE_SDK/GD32VW55x_RELEASE_V1.0.2/MSDK/plf/src\init_rom_symbol.c ****         mbedtls_sha256_init_fn = (void *)0x0bf7679a;
 802              		.loc 1 192 9
 803              		.loc 1 193 9
 804              		.loc 1 193 32 is_stmt 0
 805 05be 23A0A600 		sw	a0,%lo(.LANCHOR113)(a3)
 194:C:/Users/stapi/OneDrive/Desktop/GD32VW553/V1_MQTT_OK/GD32VW55X_Wifi_BLE_SDK/GD32VW55x_RELEASE_V1.0.2/MSDK/plf/src\init_rom_symbol.c ****         mbedtls_sha256_starts_fn = (void *)0x0bf767e2;
 806              		.loc 1 194 9 is_stmt 1
 807              		.loc 1 194 34 is_stmt 0
 808 05c2 9385277E 		addi	a1,a5,2018
 809 05c6 B7060000 		lui	a3,%hi(.LANCHOR114)
 195:C:/Users/stapi/OneDrive/Desktop/GD32VW553/V1_MQTT_OK/GD32VW55X_Wifi_BLE_SDK/GD32VW55x_RELEASE_V1.0.2/MSDK/plf/src\init_rom_symbol.c ****         mbedtls_sha256_starts_ret_fn = (void *)0x0bf767b8;
 810              		.loc 1 195 38
 811 05ca 1386877B 		addi	a2,a5,1976
 194:C:/Users/stapi/OneDrive/Desktop/GD32VW553/V1_MQTT_OK/GD32VW55X_Wifi_BLE_SDK/GD32VW55x_RELEASE_V1.0.2/MSDK/plf/src\init_rom_symbol.c ****         mbedtls_sha256_starts_fn = (void *)0x0bf767e2;
 812              		.loc 1 194 34
 813 05ce 23A0B600 		sw	a1,%lo(.LANCHOR114)(a3)
 814              		.loc 1 195 9 is_stmt 1
 815              		.loc 1 195 38 is_stmt 0
 816 05d2 B7060000 		lui	a3,%hi(.LANCHOR115)
 817 05d6 23A0C600 		sw	a2,%lo(.LANCHOR115)(a3)
 196:C:/Users/stapi/OneDrive/Desktop/GD32VW553/V1_MQTT_OK/GD32VW55X_Wifi_BLE_SDK/GD32VW55x_RELEASE_V1.0.2/MSDK/plf/src\init_rom_symbol.c ****         mbedtls_sha256_update_fn = (void *)0x0bf76816;
 818              		.loc 1 196 9 is_stmt 1
 819              		.loc 1 196 34 is_stmt 0
 820 05da 13076781 		addi	a4,a4,-2026
 821 05de B7060000 		lui	a3,%hi(.LANCHOR116)
 822 05e2 23A0E600 		sw	a4,%lo(.LANCHOR116)(a3)
 197:C:/Users/stapi/OneDrive/Desktop/GD32VW553/V1_MQTT_OK/GD32VW55X_Wifi_BLE_SDK/GD32VW55x_RELEASE_V1.0.2/MSDK/plf/src\init_rom_symbol.c ****         mbedtls_sha256_update_ret_fn = (void *)0x0bf767e6;
 823              		.loc 1 197 9 is_stmt 1
 824              		.loc 1 197 38 is_stmt 0
 825 05e6 9387677E 		addi	a5,a5,2022
 826 05ea 37070000 		lui	a4,%hi(.LANCHOR117)
 827 05ee 2320F700 		sw	a5,%lo(.LANCHOR117)(a4)
 198:C:/Users/stapi/OneDrive/Desktop/GD32VW553/V1_MQTT_OK/GD32VW55X_Wifi_BLE_SDK/GD32VW55x_RELEASE_V1.0.2/MSDK/plf/src\init_rom_symbol.c ****     } else {
 199:C:/Users/stapi/OneDrive/Desktop/GD32VW553/V1_MQTT_OK/GD32VW55X_Wifi_BLE_SDK/GD32VW55x_RELEASE_V1.0.2/MSDK/plf/src\init_rom_symbol.c **** #ifndef EXEC_USING_STD_PRINTF
 200:C:/Users/stapi/OneDrive/Desktop/GD32VW553/V1_MQTT_OK/GD32VW55X_Wifi_BLE_SDK/GD32VW55x_RELEASE_V1.0.2/MSDK/plf/src\init_rom_symbol.c ****         dbg_print(NOTICE, "Chip: GD32VW55x\r\n");
 201:C:/Users/stapi/OneDrive/Desktop/GD32VW553/V1_MQTT_OK/GD32VW55X_Wifi_BLE_SDK/GD32VW55x_RELEASE_V1.0.2/MSDK/plf/src\init_rom_symbol.c **** #endif
 202:C:/Users/stapi/OneDrive/Desktop/GD32VW553/V1_MQTT_OK/GD32VW55X_Wifi_BLE_SDK/GD32VW55x_RELEASE_V1.0.2/MSDK/plf/src\init_rom_symbol.c ****         ecp_supported_curves = (mbedtls_ecp_curve_info *)0x0bf73a7c;
 203:C:/Users/stapi/OneDrive/Desktop/GD32VW553/V1_MQTT_OK/GD32VW55X_Wifi_BLE_SDK/GD32VW55x_RELEASE_V1.0.2/MSDK/plf/src\init_rom_symbol.c ****         mbedtls_ecdsa_free_fn = (void *)0x0bf71390;
 204:C:/Users/stapi/OneDrive/Desktop/GD32VW553/V1_MQTT_OK/GD32VW55X_Wifi_BLE_SDK/GD32VW55x_RELEASE_V1.0.2/MSDK/plf/src\init_rom_symbol.c ****         mbedtls_ecdsa_from_keypair_fn = (void *)0x0bf7133e;
 205:C:/Users/stapi/OneDrive/Desktop/GD32VW553/V1_MQTT_OK/GD32VW55X_Wifi_BLE_SDK/GD32VW55x_RELEASE_V1.0.2/MSDK/plf/src\init_rom_symbol.c ****         mbedtls_ecdsa_genkey_fn = (void *)0x0bf71300;
 206:C:/Users/stapi/OneDrive/Desktop/GD32VW553/V1_MQTT_OK/GD32VW55X_Wifi_BLE_SDK/GD32VW55x_RELEASE_V1.0.2/MSDK/plf/src\init_rom_symbol.c ****         mbedtls_ecdsa_init_fn = (void *)0x0bf7138c;
 207:C:/Users/stapi/OneDrive/Desktop/GD32VW553/V1_MQTT_OK/GD32VW55X_Wifi_BLE_SDK/GD32VW55x_RELEASE_V1.0.2/MSDK/plf/src\init_rom_symbol.c ****         mbedtls_ecdsa_read_signature_fn = (void *)0x0bf712fa;
 208:C:/Users/stapi/OneDrive/Desktop/GD32VW553/V1_MQTT_OK/GD32VW55X_Wifi_BLE_SDK/GD32VW55x_RELEASE_V1.0.2/MSDK/plf/src\init_rom_symbol.c ****         mbedtls_ecdsa_read_signature_restartable_fn = (void *)0x0bf71254;
 209:C:/Users/stapi/OneDrive/Desktop/GD32VW553/V1_MQTT_OK/GD32VW55X_Wifi_BLE_SDK/GD32VW55x_RELEASE_V1.0.2/MSDK/plf/src\init_rom_symbol.c ****         mbedtls_ecdsa_sign_fn = (void *)0x0bf70b6e;
 210:C:/Users/stapi/OneDrive/Desktop/GD32VW553/V1_MQTT_OK/GD32VW55X_Wifi_BLE_SDK/GD32VW55x_RELEASE_V1.0.2/MSDK/plf/src\init_rom_symbol.c ****         mbedtls_ecdsa_sign_det_fn = (void *)0x0bf70f2e;
 211:C:/Users/stapi/OneDrive/Desktop/GD32VW553/V1_MQTT_OK/GD32VW55X_Wifi_BLE_SDK/GD32VW55x_RELEASE_V1.0.2/MSDK/plf/src\init_rom_symbol.c ****         mbedtls_ecdsa_verify_fn = (void *)0x0bf70f32;
 212:C:/Users/stapi/OneDrive/Desktop/GD32VW553/V1_MQTT_OK/GD32VW55X_Wifi_BLE_SDK/GD32VW55x_RELEASE_V1.0.2/MSDK/plf/src\init_rom_symbol.c ****         mbedtls_ecdsa_write_signature_fn = (void *)0x0bf71224;
 213:C:/Users/stapi/OneDrive/Desktop/GD32VW553/V1_MQTT_OK/GD32VW55X_Wifi_BLE_SDK/GD32VW55x_RELEASE_V1.0.2/MSDK/plf/src\init_rom_symbol.c ****         mbedtls_ecdsa_write_signature_det_fn = (void *)0x0bf71234;
 214:C:/Users/stapi/OneDrive/Desktop/GD32VW553/V1_MQTT_OK/GD32VW55X_Wifi_BLE_SDK/GD32VW55x_RELEASE_V1.0.2/MSDK/plf/src\init_rom_symbol.c ****         mbedtls_ecdsa_write_signature_restartable_fn = (void *)0x0bf7115e;
 215:C:/Users/stapi/OneDrive/Desktop/GD32VW553/V1_MQTT_OK/GD32VW55X_Wifi_BLE_SDK/GD32VW55x_RELEASE_V1.0.2/MSDK/plf/src\init_rom_symbol.c ****         mbedtls_ecp_check_privkey_fn = (void *)0x0bf72a0e;
 216:C:/Users/stapi/OneDrive/Desktop/GD32VW553/V1_MQTT_OK/GD32VW55X_Wifi_BLE_SDK/GD32VW55x_RELEASE_V1.0.2/MSDK/plf/src\init_rom_symbol.c ****         mbedtls_ecp_check_pub_priv_fn = (void *)0x0bf73848;
 217:C:/Users/stapi/OneDrive/Desktop/GD32VW553/V1_MQTT_OK/GD32VW55X_Wifi_BLE_SDK/GD32VW55x_RELEASE_V1.0.2/MSDK/plf/src\init_rom_symbol.c ****         mbedtls_ecp_check_pubkey_fn = (void *)0x0bf72c78;
 218:C:/Users/stapi/OneDrive/Desktop/GD32VW553/V1_MQTT_OK/GD32VW55X_Wifi_BLE_SDK/GD32VW55x_RELEASE_V1.0.2/MSDK/plf/src\init_rom_symbol.c ****         mbedtls_ecp_copy_fn = (void *)0x0bf71f42;
 219:C:/Users/stapi/OneDrive/Desktop/GD32VW553/V1_MQTT_OK/GD32VW55X_Wifi_BLE_SDK/GD32VW55x_RELEASE_V1.0.2/MSDK/plf/src\init_rom_symbol.c ****         mbedtls_ecp_curve_info_from_grp_id_fn = (void *)0x0bf71d4e;
 220:C:/Users/stapi/OneDrive/Desktop/GD32VW553/V1_MQTT_OK/GD32VW55X_Wifi_BLE_SDK/GD32VW55x_RELEASE_V1.0.2/MSDK/plf/src\init_rom_symbol.c ****         mbedtls_ecp_curve_info_from_name_fn = (void *)0x0bf71daa;
 221:C:/Users/stapi/OneDrive/Desktop/GD32VW553/V1_MQTT_OK/GD32VW55X_Wifi_BLE_SDK/GD32VW55x_RELEASE_V1.0.2/MSDK/plf/src\init_rom_symbol.c ****         mbedtls_ecp_curve_info_from_tls_id_fn = (void *)0x0bf71d7a;
 222:C:/Users/stapi/OneDrive/Desktop/GD32VW553/V1_MQTT_OK/GD32VW55X_Wifi_BLE_SDK/GD32VW55x_RELEASE_V1.0.2/MSDK/plf/src\init_rom_symbol.c ****         mbedtls_ecp_curve_list_fn = (void *)0x0bf71cda;
 223:C:/Users/stapi/OneDrive/Desktop/GD32VW553/V1_MQTT_OK/GD32VW55X_Wifi_BLE_SDK/GD32VW55x_RELEASE_V1.0.2/MSDK/plf/src\init_rom_symbol.c ****         mbedtls_ecp_gen_key_fn = (void *)0x0bf73802;
 224:C:/Users/stapi/OneDrive/Desktop/GD32VW553/V1_MQTT_OK/GD32VW55X_Wifi_BLE_SDK/GD32VW55x_RELEASE_V1.0.2/MSDK/plf/src\init_rom_symbol.c ****         mbedtls_ecp_gen_keypair_fn = (void *)0x0bf737f2;
 225:C:/Users/stapi/OneDrive/Desktop/GD32VW553/V1_MQTT_OK/GD32VW55X_Wifi_BLE_SDK/GD32VW55x_RELEASE_V1.0.2/MSDK/plf/src\init_rom_symbol.c ****         mbedtls_ecp_gen_keypair_base_fn = (void *)0x0bf73796;
 226:C:/Users/stapi/OneDrive/Desktop/GD32VW553/V1_MQTT_OK/GD32VW55X_Wifi_BLE_SDK/GD32VW55x_RELEASE_V1.0.2/MSDK/plf/src\init_rom_symbol.c ****         mbedtls_ecp_gen_privkey_fn = (void *)0x0bf72a8c;
 227:C:/Users/stapi/OneDrive/Desktop/GD32VW553/V1_MQTT_OK/GD32VW55X_Wifi_BLE_SDK/GD32VW55x_RELEASE_V1.0.2/MSDK/plf/src\init_rom_symbol.c ****         mbedtls_ecp_group_copy_fn = (void *)0x0bf71f80;
 228:C:/Users/stapi/OneDrive/Desktop/GD32VW553/V1_MQTT_OK/GD32VW55X_Wifi_BLE_SDK/GD32VW55x_RELEASE_V1.0.2/MSDK/plf/src\init_rom_symbol.c ****         mbedtls_ecp_group_free_fn = (void *)0x0bf71e9c;
 229:C:/Users/stapi/OneDrive/Desktop/GD32VW553/V1_MQTT_OK/GD32VW55X_Wifi_BLE_SDK/GD32VW55x_RELEASE_V1.0.2/MSDK/plf/src\init_rom_symbol.c ****         mbedtls_ecp_group_init_fn = (void *)0x0bf71e14;
 230:C:/Users/stapi/OneDrive/Desktop/GD32VW553/V1_MQTT_OK/GD32VW55X_Wifi_BLE_SDK/GD32VW55x_RELEASE_V1.0.2/MSDK/plf/src\init_rom_symbol.c ****         mbedtls_ecp_grp_id_list_fn = (void *)0x0bf71d02;
 231:C:/Users/stapi/OneDrive/Desktop/GD32VW553/V1_MQTT_OK/GD32VW55X_Wifi_BLE_SDK/GD32VW55x_RELEASE_V1.0.2/MSDK/plf/src\init_rom_symbol.c ****         mbedtls_ecp_is_zero_fn = (void *)0x0bf726b4;
 232:C:/Users/stapi/OneDrive/Desktop/GD32VW553/V1_MQTT_OK/GD32VW55X_Wifi_BLE_SDK/GD32VW55x_RELEASE_V1.0.2/MSDK/plf/src\init_rom_symbol.c ****         mbedtls_ecp_keypair_free_fn = (void *)0x0bf71f1c;
 233:C:/Users/stapi/OneDrive/Desktop/GD32VW553/V1_MQTT_OK/GD32VW55X_Wifi_BLE_SDK/GD32VW55x_RELEASE_V1.0.2/MSDK/plf/src\init_rom_symbol.c ****         mbedtls_ecp_keypair_init_fn = (void *)0x0bf71e72;
 234:C:/Users/stapi/OneDrive/Desktop/GD32VW553/V1_MQTT_OK/GD32VW55X_Wifi_BLE_SDK/GD32VW55x_RELEASE_V1.0.2/MSDK/plf/src\init_rom_symbol.c ****         mbedtls_ecp_mul_fn = (void *)0x0bf73790;
 235:C:/Users/stapi/OneDrive/Desktop/GD32VW553/V1_MQTT_OK/GD32VW55X_Wifi_BLE_SDK/GD32VW55x_RELEASE_V1.0.2/MSDK/plf/src\init_rom_symbol.c ****         mbedtls_ecp_mul_restartable_fn = (void *)0x0bf72ebc;
 236:C:/Users/stapi/OneDrive/Desktop/GD32VW553/V1_MQTT_OK/GD32VW55X_Wifi_BLE_SDK/GD32VW55x_RELEASE_V1.0.2/MSDK/plf/src\init_rom_symbol.c ****         mbedtls_ecp_muladd_fn = (void *)0x0bf73a52;
 237:C:/Users/stapi/OneDrive/Desktop/GD32VW553/V1_MQTT_OK/GD32VW55X_Wifi_BLE_SDK/GD32VW55x_RELEASE_V1.0.2/MSDK/plf/src\init_rom_symbol.c ****         mbedtls_ecp_muladd_restartable_fn = (void *)0x0bf73a36;
 238:C:/Users/stapi/OneDrive/Desktop/GD32VW553/V1_MQTT_OK/GD32VW55X_Wifi_BLE_SDK/GD32VW55x_RELEASE_V1.0.2/MSDK/plf/src\init_rom_symbol.c ****         mbedtls_ecp_point_cmp_fn = (void *)0x0bf726ca;
 239:C:/Users/stapi/OneDrive/Desktop/GD32VW553/V1_MQTT_OK/GD32VW55X_Wifi_BLE_SDK/GD32VW55x_RELEASE_V1.0.2/MSDK/plf/src\init_rom_symbol.c ****         mbedtls_ecp_point_free_fn = (void *)0x0bf71e94;
 240:C:/Users/stapi/OneDrive/Desktop/GD32VW553/V1_MQTT_OK/GD32VW55X_Wifi_BLE_SDK/GD32VW55x_RELEASE_V1.0.2/MSDK/plf/src\init_rom_symbol.c ****         mbedtls_ecp_point_init_fn = (void *)0x0bf71df2;
 241:C:/Users/stapi/OneDrive/Desktop/GD32VW553/V1_MQTT_OK/GD32VW55X_Wifi_BLE_SDK/GD32VW55x_RELEASE_V1.0.2/MSDK/plf/src\init_rom_symbol.c ****         mbedtls_ecp_point_read_binary_fn = (void *)0x0bf72824;
 242:C:/Users/stapi/OneDrive/Desktop/GD32VW553/V1_MQTT_OK/GD32VW55X_Wifi_BLE_SDK/GD32VW55x_RELEASE_V1.0.2/MSDK/plf/src\init_rom_symbol.c ****         mbedtls_ecp_point_read_string_fn = (void *)0x0bf72712;
 243:C:/Users/stapi/OneDrive/Desktop/GD32VW553/V1_MQTT_OK/GD32VW55X_Wifi_BLE_SDK/GD32VW55x_RELEASE_V1.0.2/MSDK/plf/src\init_rom_symbol.c ****         mbedtls_ecp_point_write_binary_fn = (void *)0x0bf72756;
 244:C:/Users/stapi/OneDrive/Desktop/GD32VW553/V1_MQTT_OK/GD32VW55X_Wifi_BLE_SDK/GD32VW55x_RELEASE_V1.0.2/MSDK/plf/src\init_rom_symbol.c ****         mbedtls_ecp_set_zero_fn = (void *)0x0bf71f86;
 245:C:/Users/stapi/OneDrive/Desktop/GD32VW553/V1_MQTT_OK/GD32VW55X_Wifi_BLE_SDK/GD32VW55x_RELEASE_V1.0.2/MSDK/plf/src\init_rom_symbol.c ****         mbedtls_ecp_tls_read_group_fn = (void *)0x0bf72994;
 246:C:/Users/stapi/OneDrive/Desktop/GD32VW553/V1_MQTT_OK/GD32VW55X_Wifi_BLE_SDK/GD32VW55x_RELEASE_V1.0.2/MSDK/plf/src\init_rom_symbol.c ****         mbedtls_ecp_tls_read_group_id_fn = (void *)0x0bf7292c;
 247:C:/Users/stapi/OneDrive/Desktop/GD32VW553/V1_MQTT_OK/GD32VW55X_Wifi_BLE_SDK/GD32VW55x_RELEASE_V1.0.2/MSDK/plf/src\init_rom_symbol.c ****         mbedtls_ecp_tls_read_point_fn = (void *)0x0bf728c2;
 248:C:/Users/stapi/OneDrive/Desktop/GD32VW553/V1_MQTT_OK/GD32VW55X_Wifi_BLE_SDK/GD32VW55x_RELEASE_V1.0.2/MSDK/plf/src\init_rom_symbol.c ****         mbedtls_ecp_tls_write_group_fn = (void *)0x0bf729b4;
 249:C:/Users/stapi/OneDrive/Desktop/GD32VW553/V1_MQTT_OK/GD32VW55X_Wifi_BLE_SDK/GD32VW55x_RELEASE_V1.0.2/MSDK/plf/src\init_rom_symbol.c ****         mbedtls_ecp_tls_write_point_fn = (void *)0x0bf728f6;
 250:C:/Users/stapi/OneDrive/Desktop/GD32VW553/V1_MQTT_OK/GD32VW55X_Wifi_BLE_SDK/GD32VW55x_RELEASE_V1.0.2/MSDK/plf/src\init_rom_symbol.c ****         mbedtls_internal_md5_process_fn = (void *)0x0bf764d6;
 251:C:/Users/stapi/OneDrive/Desktop/GD32VW553/V1_MQTT_OK/GD32VW55X_Wifi_BLE_SDK/GD32VW55x_RELEASE_V1.0.2/MSDK/plf/src\init_rom_symbol.c ****         mbedtls_internal_sha256_process_fn = (void *)0x0bf76312;
 252:C:/Users/stapi/OneDrive/Desktop/GD32VW553/V1_MQTT_OK/GD32VW55X_Wifi_BLE_SDK/GD32VW55x_RELEASE_V1.0.2/MSDK/plf/src\init_rom_symbol.c ****         mbedtls_md5_fn = (void *)0x0bf77352;
 253:C:/Users/stapi/OneDrive/Desktop/GD32VW553/V1_MQTT_OK/GD32VW55X_Wifi_BLE_SDK/GD32VW55x_RELEASE_V1.0.2/MSDK/plf/src\init_rom_symbol.c ****         mbedtls_md5_clone_fn = (void *)0x0bf76468;
 254:C:/Users/stapi/OneDrive/Desktop/GD32VW553/V1_MQTT_OK/GD32VW55X_Wifi_BLE_SDK/GD32VW55x_RELEASE_V1.0.2/MSDK/plf/src\init_rom_symbol.c ****         mbedtls_md5_finish_fn = (void *)0x0bf7731c;
 255:C:/Users/stapi/OneDrive/Desktop/GD32VW553/V1_MQTT_OK/GD32VW55X_Wifi_BLE_SDK/GD32VW55x_RELEASE_V1.0.2/MSDK/plf/src\init_rom_symbol.c ****         mbedtls_md5_finish_ret_fn = (void *)0x0bf7721e;
 256:C:/Users/stapi/OneDrive/Desktop/GD32VW553/V1_MQTT_OK/GD32VW55X_Wifi_BLE_SDK/GD32VW55x_RELEASE_V1.0.2/MSDK/plf/src\init_rom_symbol.c ****         mbedtls_md5_free_fn = (void *)0x0bf7645c;
 257:C:/Users/stapi/OneDrive/Desktop/GD32VW553/V1_MQTT_OK/GD32VW55X_Wifi_BLE_SDK/GD32VW55x_RELEASE_V1.0.2/MSDK/plf/src\init_rom_symbol.c ****         mbedtls_md5_init_fn = (void *)0x0bf76452;
 258:C:/Users/stapi/OneDrive/Desktop/GD32VW553/V1_MQTT_OK/GD32VW55X_Wifi_BLE_SDK/GD32VW55x_RELEASE_V1.0.2/MSDK/plf/src\init_rom_symbol.c ****         mbedtls_md5_process_fn = (void *)0x0bf77208;
 259:C:/Users/stapi/OneDrive/Desktop/GD32VW553/V1_MQTT_OK/GD32VW55X_Wifi_BLE_SDK/GD32VW55x_RELEASE_V1.0.2/MSDK/plf/src\init_rom_symbol.c ****         mbedtls_md5_ret_fn = (void *)0x0bf77320;
 260:C:/Users/stapi/OneDrive/Desktop/GD32VW553/V1_MQTT_OK/GD32VW55X_Wifi_BLE_SDK/GD32VW55x_RELEASE_V1.0.2/MSDK/plf/src\init_rom_symbol.c ****         mbedtls_md5_starts_fn = (void *)0x0bf764a4;
 261:C:/Users/stapi/OneDrive/Desktop/GD32VW553/V1_MQTT_OK/GD32VW55X_Wifi_BLE_SDK/GD32VW55x_RELEASE_V1.0.2/MSDK/plf/src\init_rom_symbol.c ****         mbedtls_md5_starts_ret_fn = (void *)0x0bf76470;
 262:C:/Users/stapi/OneDrive/Desktop/GD32VW553/V1_MQTT_OK/GD32VW55X_Wifi_BLE_SDK/GD32VW55x_RELEASE_V1.0.2/MSDK/plf/src\init_rom_symbol.c ****         mbedtls_md5_update_fn = (void *)0x0bf77216;
 263:C:/Users/stapi/OneDrive/Desktop/GD32VW553/V1_MQTT_OK/GD32VW55X_Wifi_BLE_SDK/GD32VW55x_RELEASE_V1.0.2/MSDK/plf/src\init_rom_symbol.c ****         mbedtls_md5_update_ret_fn = (void *)0x0bf7720c;
 264:C:/Users/stapi/OneDrive/Desktop/GD32VW553/V1_MQTT_OK/GD32VW55X_Wifi_BLE_SDK/GD32VW55x_RELEASE_V1.0.2/MSDK/plf/src\init_rom_symbol.c ****         mbedtls_mpi_div_int_fn = (void *)0x0bf6f1c6;
 265:C:/Users/stapi/OneDrive/Desktop/GD32VW553/V1_MQTT_OK/GD32VW55X_Wifi_BLE_SDK/GD32VW55x_RELEASE_V1.0.2/MSDK/plf/src\init_rom_symbol.c ****         mbedtls_mpi_div_mpi_fn = (void *)0x0bf6ecda;
 266:C:/Users/stapi/OneDrive/Desktop/GD32VW553/V1_MQTT_OK/GD32VW55X_Wifi_BLE_SDK/GD32VW55x_RELEASE_V1.0.2/MSDK/plf/src\init_rom_symbol.c ****         mbedtls_mpi_exp_mod_fn = (void *)0x0bf6fb18;
 267:C:/Users/stapi/OneDrive/Desktop/GD32VW553/V1_MQTT_OK/GD32VW55X_Wifi_BLE_SDK/GD32VW55x_RELEASE_V1.0.2/MSDK/plf/src\init_rom_symbol.c ****         mbedtls_mpi_exp_mod_sw_fn = (void *)0x0bf6f508;
 268:C:/Users/stapi/OneDrive/Desktop/GD32VW553/V1_MQTT_OK/GD32VW55X_Wifi_BLE_SDK/GD32VW55x_RELEASE_V1.0.2/MSDK/plf/src\init_rom_symbol.c ****         mbedtls_mpi_fill_random_fn = (void *)0x0bf6fe86;
 269:C:/Users/stapi/OneDrive/Desktop/GD32VW553/V1_MQTT_OK/GD32VW55X_Wifi_BLE_SDK/GD32VW55x_RELEASE_V1.0.2/MSDK/plf/src\init_rom_symbol.c ****         mbedtls_mpi_gcd_fn = (void *)0x0bf6fc8e;
 270:C:/Users/stapi/OneDrive/Desktop/GD32VW553/V1_MQTT_OK/GD32VW55X_Wifi_BLE_SDK/GD32VW55x_RELEASE_V1.0.2/MSDK/plf/src\init_rom_symbol.c ****         mbedtls_mpi_gen_prime_fn = (void *)0x0bf70584;
 271:C:/Users/stapi/OneDrive/Desktop/GD32VW553/V1_MQTT_OK/GD32VW55X_Wifi_BLE_SDK/GD32VW55x_RELEASE_V1.0.2/MSDK/plf/src\init_rom_symbol.c ****         mbedtls_mpi_inv_mod_fn = (void *)0x0bf701b4;
 272:C:/Users/stapi/OneDrive/Desktop/GD32VW553/V1_MQTT_OK/GD32VW55X_Wifi_BLE_SDK/GD32VW55x_RELEASE_V1.0.2/MSDK/plf/src\init_rom_symbol.c ****         mbedtls_mpi_is_prime_fn = (void *)0x0bf70578   ;
 273:C:/Users/stapi/OneDrive/Desktop/GD32VW553/V1_MQTT_OK/GD32VW55X_Wifi_BLE_SDK/GD32VW55x_RELEASE_V1.0.2/MSDK/plf/src\init_rom_symbol.c ****         mbedtls_mpi_is_prime_ext_fn = (void *)0x0bf704d6;
 274:C:/Users/stapi/OneDrive/Desktop/GD32VW553/V1_MQTT_OK/GD32VW55X_Wifi_BLE_SDK/GD32VW55x_RELEASE_V1.0.2/MSDK/plf/src\init_rom_symbol.c ****         mbedtls_mpi_mod_int_fn = (void *)0x0bf6f28c;
 275:C:/Users/stapi/OneDrive/Desktop/GD32VW553/V1_MQTT_OK/GD32VW55X_Wifi_BLE_SDK/GD32VW55x_RELEASE_V1.0.2/MSDK/plf/src\init_rom_symbol.c ****         mbedtls_mpi_mod_mpi_fn = (void *)0x0bf6f1f0;
 276:C:/Users/stapi/OneDrive/Desktop/GD32VW553/V1_MQTT_OK/GD32VW55X_Wifi_BLE_SDK/GD32VW55x_RELEASE_V1.0.2/MSDK/plf/src\init_rom_symbol.c ****         mbedtls_mpi_mul_int_fn = (void *)0x0bf6ecc0;
 277:C:/Users/stapi/OneDrive/Desktop/GD32VW553/V1_MQTT_OK/GD32VW55X_Wifi_BLE_SDK/GD32VW55x_RELEASE_V1.0.2/MSDK/plf/src\init_rom_symbol.c ****         mbedtls_mpi_mul_mpi_fn = (void *)0x0bf6ea92;
 278:C:/Users/stapi/OneDrive/Desktop/GD32VW553/V1_MQTT_OK/GD32VW55X_Wifi_BLE_SDK/GD32VW55x_RELEASE_V1.0.2/MSDK/plf/src\init_rom_symbol.c ****         mbedtls_mpi_read_string_fn = (void *)0x0bf6eaa8;
 279:C:/Users/stapi/OneDrive/Desktop/GD32VW553/V1_MQTT_OK/GD32VW55X_Wifi_BLE_SDK/GD32VW55x_RELEASE_V1.0.2/MSDK/plf/src\init_rom_symbol.c ****         mbedtls_mpi_write_string_fn = (void *)0x0bf6f2c0;
 280:C:/Users/stapi/OneDrive/Desktop/GD32VW553/V1_MQTT_OK/GD32VW55X_Wifi_BLE_SDK/GD32VW55x_RELEASE_V1.0.2/MSDK/plf/src\init_rom_symbol.c ****         mbedtls_rsa_check_privkey_fn = (void *)0x0bf74536;
 281:C:/Users/stapi/OneDrive/Desktop/GD32VW553/V1_MQTT_OK/GD32VW55X_Wifi_BLE_SDK/GD32VW55x_RELEASE_V1.0.2/MSDK/plf/src\init_rom_symbol.c ****         mbedtls_rsa_check_pub_priv_fn = (void *)0x0bf747cc;
 282:C:/Users/stapi/OneDrive/Desktop/GD32VW553/V1_MQTT_OK/GD32VW55X_Wifi_BLE_SDK/GD32VW55x_RELEASE_V1.0.2/MSDK/plf/src\init_rom_symbol.c ****         mbedtls_rsa_check_pubkey_fn = (void *)0x0bf744d4;
 283:C:/Users/stapi/OneDrive/Desktop/GD32VW553/V1_MQTT_OK/GD32VW55X_Wifi_BLE_SDK/GD32VW55x_RELEASE_V1.0.2/MSDK/plf/src\init_rom_symbol.c ****         mbedtls_rsa_complete_fn = (void *)0x0bf74054;
 284:C:/Users/stapi/OneDrive/Desktop/GD32VW553/V1_MQTT_OK/GD32VW55X_Wifi_BLE_SDK/GD32VW55x_RELEASE_V1.0.2/MSDK/plf/src\init_rom_symbol.c ****         mbedtls_rsa_copy_fn = (void *)0x0bf75cf6;
 285:C:/Users/stapi/OneDrive/Desktop/GD32VW553/V1_MQTT_OK/GD32VW55X_Wifi_BLE_SDK/GD32VW55x_RELEASE_V1.0.2/MSDK/plf/src\init_rom_symbol.c ****         mbedtls_rsa_export_fn = (void *)0x0bf742ec;
 286:C:/Users/stapi/OneDrive/Desktop/GD32VW553/V1_MQTT_OK/GD32VW55X_Wifi_BLE_SDK/GD32VW55x_RELEASE_V1.0.2/MSDK/plf/src\init_rom_symbol.c ****         mbedtls_rsa_export_crt_fn = (void *)0x0bf743ee;
 287:C:/Users/stapi/OneDrive/Desktop/GD32VW553/V1_MQTT_OK/GD32VW55X_Wifi_BLE_SDK/GD32VW55x_RELEASE_V1.0.2/MSDK/plf/src\init_rom_symbol.c ****         mbedtls_rsa_export_raw_fn = (void *)0x0bf741b4;
 288:C:/Users/stapi/OneDrive/Desktop/GD32VW553/V1_MQTT_OK/GD32VW55X_Wifi_BLE_SDK/GD32VW55x_RELEASE_V1.0.2/MSDK/plf/src\init_rom_symbol.c ****         mbedtls_rsa_free_fn = (void *)0x0bf75e00;
 289:C:/Users/stapi/OneDrive/Desktop/GD32VW553/V1_MQTT_OK/GD32VW55X_Wifi_BLE_SDK/GD32VW55x_RELEASE_V1.0.2/MSDK/plf/src\init_rom_symbol.c ****         mbedtls_rsa_gen_key_fn = (void *)0x0bf745a6;
 290:C:/Users/stapi/OneDrive/Desktop/GD32VW553/V1_MQTT_OK/GD32VW55X_Wifi_BLE_SDK/GD32VW55x_RELEASE_V1.0.2/MSDK/plf/src\init_rom_symbol.c ****         mbedtls_rsa_get_len_fn = (void *)0x0bf744d0;
 291:C:/Users/stapi/OneDrive/Desktop/GD32VW553/V1_MQTT_OK/GD32VW55X_Wifi_BLE_SDK/GD32VW55x_RELEASE_V1.0.2/MSDK/plf/src\init_rom_symbol.c ****         mbedtls_rsa_import_fn = (void *)0x0bf73f28;
 292:C:/Users/stapi/OneDrive/Desktop/GD32VW553/V1_MQTT_OK/GD32VW55X_Wifi_BLE_SDK/GD32VW55x_RELEASE_V1.0.2/MSDK/plf/src\init_rom_symbol.c ****         mbedtls_rsa_import_raw_fn = (void *)0x0bf73fba;
 293:C:/Users/stapi/OneDrive/Desktop/GD32VW553/V1_MQTT_OK/GD32VW55X_Wifi_BLE_SDK/GD32VW55x_RELEASE_V1.0.2/MSDK/plf/src\init_rom_symbol.c ****         mbedtls_rsa_init_fn = (void *)0x0bf74498;
 294:C:/Users/stapi/OneDrive/Desktop/GD32VW553/V1_MQTT_OK/GD32VW55X_Wifi_BLE_SDK/GD32VW55x_RELEASE_V1.0.2/MSDK/plf/src\init_rom_symbol.c ****         mbedtls_rsa_pkcs1_decrypt_fn = (void *)0x0bf755f6;
 295:C:/Users/stapi/OneDrive/Desktop/GD32VW553/V1_MQTT_OK/GD32VW55X_Wifi_BLE_SDK/GD32VW55x_RELEASE_V1.0.2/MSDK/plf/src\init_rom_symbol.c ****         mbedtls_rsa_pkcs1_encrypt_fn = (void *)0x0bf75138;
 296:C:/Users/stapi/OneDrive/Desktop/GD32VW553/V1_MQTT_OK/GD32VW55X_Wifi_BLE_SDK/GD32VW55x_RELEASE_V1.0.2/MSDK/plf/src\init_rom_symbol.c ****         mbedtls_rsa_pkcs1_sign_fn = (void *)0x0bf75928;
 297:C:/Users/stapi/OneDrive/Desktop/GD32VW553/V1_MQTT_OK/GD32VW55X_Wifi_BLE_SDK/GD32VW55x_RELEASE_V1.0.2/MSDK/plf/src\init_rom_symbol.c ****         mbedtls_rsa_pkcs1_verify_fn = (void *)0x0bf75c98;
 298:C:/Users/stapi/OneDrive/Desktop/GD32VW553/V1_MQTT_OK/GD32VW55X_Wifi_BLE_SDK/GD32VW55x_RELEASE_V1.0.2/MSDK/plf/src\init_rom_symbol.c ****         mbedtls_rsa_private_fn = (void *)0x0bf74e92;
 299:C:/Users/stapi/OneDrive/Desktop/GD32VW553/V1_MQTT_OK/GD32VW55X_Wifi_BLE_SDK/GD32VW55x_RELEASE_V1.0.2/MSDK/plf/src\init_rom_symbol.c ****         mbedtls_rsa_private_sw_fn = (void *)0x0bf7496c;
 300:C:/Users/stapi/OneDrive/Desktop/GD32VW553/V1_MQTT_OK/GD32VW55X_Wifi_BLE_SDK/GD32VW55x_RELEASE_V1.0.2/MSDK/plf/src\init_rom_symbol.c ****         mbedtls_rsa_public_fn = (void *)0x0bf74814;
 301:C:/Users/stapi/OneDrive/Desktop/GD32VW553/V1_MQTT_OK/GD32VW55X_Wifi_BLE_SDK/GD32VW55x_RELEASE_V1.0.2/MSDK/plf/src\init_rom_symbol.c ****         mbedtls_rsa_rsaes_oaep_decrypt_fn = (void *)0x0bf7516c;
 302:C:/Users/stapi/OneDrive/Desktop/GD32VW553/V1_MQTT_OK/GD32VW55X_Wifi_BLE_SDK/GD32VW55x_RELEASE_V1.0.2/MSDK/plf/src\init_rom_symbol.c ****         mbedtls_rsa_rsaes_oaep_encrypt_fn = (void *)0x0bf74ea6;
 303:C:/Users/stapi/OneDrive/Desktop/GD32VW553/V1_MQTT_OK/GD32VW55X_Wifi_BLE_SDK/GD32VW55x_RELEASE_V1.0.2/MSDK/plf/src\init_rom_symbol.c ****         mbedtls_rsa_rsaes_pkcs1_v15_decrypt_fn = (void *)0x0bf7539e;
 304:C:/Users/stapi/OneDrive/Desktop/GD32VW553/V1_MQTT_OK/GD32VW55X_Wifi_BLE_SDK/GD32VW55x_RELEASE_V1.0.2/MSDK/plf/src\init_rom_symbol.c ****         mbedtls_rsa_rsaes_pkcs1_v15_encrypt_fn = (void *)0x0bf7500c;
 305:C:/Users/stapi/OneDrive/Desktop/GD32VW553/V1_MQTT_OK/GD32VW55X_Wifi_BLE_SDK/GD32VW55x_RELEASE_V1.0.2/MSDK/plf/src\init_rom_symbol.c ****         mbedtls_rsa_rsassa_pkcs1_v15_sign_fn = (void *)0x0bf7581a;
 306:C:/Users/stapi/OneDrive/Desktop/GD32VW553/V1_MQTT_OK/GD32VW55X_Wifi_BLE_SDK/GD32VW55x_RELEASE_V1.0.2/MSDK/plf/src\init_rom_symbol.c ****         mbedtls_rsa_rsassa_pkcs1_v15_verify_fn = (void *)0x0bf75b8e;
 307:C:/Users/stapi/OneDrive/Desktop/GD32VW553/V1_MQTT_OK/GD32VW55X_Wifi_BLE_SDK/GD32VW55x_RELEASE_V1.0.2/MSDK/plf/src\init_rom_symbol.c ****         mbedtls_rsa_rsassa_pss_sign_fn = (void *)0x0bf75630;
 308:C:/Users/stapi/OneDrive/Desktop/GD32VW553/V1_MQTT_OK/GD32VW55X_Wifi_BLE_SDK/GD32VW55x_RELEASE_V1.0.2/MSDK/plf/src\init_rom_symbol.c ****         mbedtls_rsa_rsassa_pss_verify_fn = (void *)0x0bf75b6e;
 309:C:/Users/stapi/OneDrive/Desktop/GD32VW553/V1_MQTT_OK/GD32VW55X_Wifi_BLE_SDK/GD32VW55x_RELEASE_V1.0.2/MSDK/plf/src\init_rom_symbol.c ****         mbedtls_rsa_rsassa_pss_verify_ext_fn = (void *)0x0bf75946;
 310:C:/Users/stapi/OneDrive/Desktop/GD32VW553/V1_MQTT_OK/GD32VW55X_Wifi_BLE_SDK/GD32VW55x_RELEASE_V1.0.2/MSDK/plf/src\init_rom_symbol.c ****         mbedtls_rsa_set_padding_fn = (void *)0x0bf744c6;
 311:C:/Users/stapi/OneDrive/Desktop/GD32VW553/V1_MQTT_OK/GD32VW55X_Wifi_BLE_SDK/GD32VW55x_RELEASE_V1.0.2/MSDK/plf/src\init_rom_symbol.c ****         mbedtls_sha256_clone_fn = (void *)0x0bf76374;
 312:C:/Users/stapi/OneDrive/Desktop/GD32VW553/V1_MQTT_OK/GD32VW55X_Wifi_BLE_SDK/GD32VW55x_RELEASE_V1.0.2/MSDK/plf/src\init_rom_symbol.c ****         mbedtls_sha256_finish_fn = (void *)0x0bf7642e;
 313:C:/Users/stapi/OneDrive/Desktop/GD32VW553/V1_MQTT_OK/GD32VW55X_Wifi_BLE_SDK/GD32VW55x_RELEASE_V1.0.2/MSDK/plf/src\init_rom_symbol.c ****         mbedtls_sha256_finish_ret_fn = (void *)0x0bf76406;
 314:C:/Users/stapi/OneDrive/Desktop/GD32VW553/V1_MQTT_OK/GD32VW55X_Wifi_BLE_SDK/GD32VW55x_RELEASE_V1.0.2/MSDK/plf/src\init_rom_symbol.c ****         mbedtls_sha256_free_fn = (void *)0x0bf76362;
 315:C:/Users/stapi/OneDrive/Desktop/GD32VW553/V1_MQTT_OK/GD32VW55X_Wifi_BLE_SDK/GD32VW55x_RELEASE_V1.0.2/MSDK/plf/src\init_rom_symbol.c ****         mbedtls_sha256_init_fn = (void *)0x0bf7635e;
 316:C:/Users/stapi/OneDrive/Desktop/GD32VW553/V1_MQTT_OK/GD32VW55X_Wifi_BLE_SDK/GD32VW55x_RELEASE_V1.0.2/MSDK/plf/src\init_rom_symbol.c ****         mbedtls_sha256_starts_fn = (void *)0x0bf763a6;
 317:C:/Users/stapi/OneDrive/Desktop/GD32VW553/V1_MQTT_OK/GD32VW55X_Wifi_BLE_SDK/GD32VW55x_RELEASE_V1.0.2/MSDK/plf/src\init_rom_symbol.c ****         mbedtls_sha256_starts_ret_fn = (void *)0x0bf7637c;
 318:C:/Users/stapi/OneDrive/Desktop/GD32VW553/V1_MQTT_OK/GD32VW55X_Wifi_BLE_SDK/GD32VW55x_RELEASE_V1.0.2/MSDK/plf/src\init_rom_symbol.c ****         mbedtls_sha256_update_fn = (void *)0x0bf763da;
 319:C:/Users/stapi/OneDrive/Desktop/GD32VW553/V1_MQTT_OK/GD32VW55X_Wifi_BLE_SDK/GD32VW55x_RELEASE_V1.0.2/MSDK/plf/src\init_rom_symbol.c ****         mbedtls_sha256_update_ret_fn = (void *)0x0bf763aa;
 320:C:/Users/stapi/OneDrive/Desktop/GD32VW553/V1_MQTT_OK/GD32VW55X_Wifi_BLE_SDK/GD32VW55x_RELEASE_V1.0.2/MSDK/plf/src\init_rom_symbol.c ****     }
 321:C:/Users/stapi/OneDrive/Desktop/GD32VW553/V1_MQTT_OK/GD32VW55X_Wifi_BLE_SDK/GD32VW55x_RELEASE_V1.0.2/MSDK/plf/src\init_rom_symbol.c **** #else
 322:C:/Users/stapi/OneDrive/Desktop/GD32VW553/V1_MQTT_OK/GD32VW55X_Wifi_BLE_SDK/GD32VW55x_RELEASE_V1.0.2/MSDK/plf/src\init_rom_symbol.c ****     mbedtls_hwpka_flag_set(0
 323:C:/Users/stapi/OneDrive/Desktop/GD32VW553/V1_MQTT_OK/GD32VW55X_Wifi_BLE_SDK/GD32VW55x_RELEASE_V1.0.2/MSDK/plf/src\init_rom_symbol.c ****                         | MBEDTLS_HW_EXP_MOD
 324:C:/Users/stapi/OneDrive/Desktop/GD32VW553/V1_MQTT_OK/GD32VW55X_Wifi_BLE_SDK/GD32VW55x_RELEASE_V1.0.2/MSDK/plf/src\init_rom_symbol.c ****                         | MBEDTLS_HW_RSA_PRIVATE
 325:C:/Users/stapi/OneDrive/Desktop/GD32VW553/V1_MQTT_OK/GD32VW55X_Wifi_BLE_SDK/GD32VW55x_RELEASE_V1.0.2/MSDK/plf/src\init_rom_symbol.c ****                         | MBEDTLS_HW_ECDSA_SIGN
 326:C:/Users/stapi/OneDrive/Desktop/GD32VW553/V1_MQTT_OK/GD32VW55X_Wifi_BLE_SDK/GD32VW55x_RELEASE_V1.0.2/MSDK/plf/src\init_rom_symbol.c ****                         | MBEDTLS_HW_ECDSA_VERIFY
 327:C:/Users/stapi/OneDrive/Desktop/GD32VW553/V1_MQTT_OK/GD32VW55X_Wifi_BLE_SDK/GD32VW55x_RELEASE_V1.0.2/MSDK/plf/src\init_rom_symbol.c ****                         | MBEDTLS_HW_ECP_MUL
 328:C:/Users/stapi/OneDrive/Desktop/GD32VW553/V1_MQTT_OK/GD32VW55X_Wifi_BLE_SDK/GD32VW55x_RELEASE_V1.0.2/MSDK/plf/src\init_rom_symbol.c ****                         | MBEDTLS_HW_ECP_CHECK
 329:C:/Users/stapi/OneDrive/Desktop/GD32VW553/V1_MQTT_OK/GD32VW55X_Wifi_BLE_SDK/GD32VW55x_RELEASE_V1.0.2/MSDK/plf/src\init_rom_symbol.c ****                         | MBEDTLS_HW_MPI_MUL);
 330:C:/Users/stapi/OneDrive/Desktop/GD32VW553/V1_MQTT_OK/GD32VW55X_Wifi_BLE_SDK/GD32VW55x_RELEASE_V1.0.2/MSDK/plf/src\init_rom_symbol.c **** #endif /* CONFIG_ASIC_CUT_AUTO */
 331:C:/Users/stapi/OneDrive/Desktop/GD32VW553/V1_MQTT_OK/GD32VW55X_Wifi_BLE_SDK/GD32VW55x_RELEASE_V1.0.2/MSDK/plf/src\init_rom_symbol.c **** }
 828              		.loc 1 331 1
 829 05f2 4101     		addi	sp,sp,16
 830              		.cfi_remember_state
 831              		.cfi_def_cfa_offset 0
 832 05f4 17030000 		tail	__riscv_restore_12
 832      67000300 
 833              		.cfi_restore 27
 834              		.cfi_restore 26
 835              		.cfi_restore 25
 836              		.cfi_restore 24
 837              		.cfi_restore 23
 838              		.cfi_restore 22
 839              		.cfi_restore 21
 840              		.cfi_restore 20
 841              		.cfi_restore 19
 842              		.cfi_restore 18
 843              		.cfi_restore 9
 844              		.cfi_restore 8
 845              		.cfi_restore 1
 846              		.cfi_def_cfa_offset -64
 847              	.LVL2:
 848              	.L2:
 849              		.cfi_restore_state
  63:C:/Users/stapi/OneDrive/Desktop/GD32VW553/V1_MQTT_OK/GD32VW55X_Wifi_BLE_SDK/GD32VW55x_RELEASE_V1.0.2/MSDK/plf/src\init_rom_symbol.c **** #ifndef CONFIG_NEED_RSA_4096
 850              		.loc 1 63 9 is_stmt 1
 851 05fc 1305F007 		li	a0,127
 852 0600 97000000 		call	mbedtls_hwpka_flag_set
 852      E7800000 
 853              	.LVL3:
  76:C:/Users/stapi/OneDrive/Desktop/GD32VW553/V1_MQTT_OK/GD32VW55X_Wifi_BLE_SDK/GD32VW55x_RELEASE_V1.0.2/MSDK/plf/src\init_rom_symbol.c **** #ifndef EXEC_USING_STD_PRINTF
 854              		.loc 1 76 5
 202:C:/Users/stapi/OneDrive/Desktop/GD32VW553/V1_MQTT_OK/GD32VW55X_Wifi_BLE_SDK/GD32VW55x_RELEASE_V1.0.2/MSDK/plf/src\init_rom_symbol.c ****         mbedtls_ecdsa_free_fn = (void *)0x0bf71390;
 855              		.loc 1 202 9
 202:C:/Users/stapi/OneDrive/Desktop/GD32VW553/V1_MQTT_OK/GD32VW55X_Wifi_BLE_SDK/GD32VW55x_RELEASE_V1.0.2/MSDK/plf/src\init_rom_symbol.c ****         mbedtls_ecdsa_free_fn = (void *)0x0bf71390;
 856              		.loc 1 202 30 is_stmt 0
 857 0608 3747F70B 		li	a4,200753152
 203:C:/Users/stapi/OneDrive/Desktop/GD32VW553/V1_MQTT_OK/GD32VW55X_Wifi_BLE_SDK/GD32VW55x_RELEASE_V1.0.2/MSDK/plf/src\init_rom_symbol.c ****         mbedtls_ecdsa_from_keypair_fn = (void *)0x0bf7133e;
 858              		.loc 1 203 31
 859 060c B715F70B 		li	a1,200740864
 202:C:/Users/stapi/OneDrive/Desktop/GD32VW553/V1_MQTT_OK/GD32VW55X_Wifi_BLE_SDK/GD32VW55x_RELEASE_V1.0.2/MSDK/plf/src\init_rom_symbol.c ****         mbedtls_ecdsa_free_fn = (void *)0x0bf71390;
 860              		.loc 1 202 30
 861 0610 1303C7A7 		addi	t1,a4,-1412
 862 0614 B7080000 		lui	a7,%hi(.LANCHOR0)
 203:C:/Users/stapi/OneDrive/Desktop/GD32VW553/V1_MQTT_OK/GD32VW55X_Wifi_BLE_SDK/GD32VW55x_RELEASE_V1.0.2/MSDK/plf/src\init_rom_symbol.c ****         mbedtls_ecdsa_from_keypair_fn = (void *)0x0bf7133e;
 863              		.loc 1 203 31
 864 0618 93820539 		addi	t0,a1,912
 202:C:/Users/stapi/OneDrive/Desktop/GD32VW553/V1_MQTT_OK/GD32VW55X_Wifi_BLE_SDK/GD32VW55x_RELEASE_V1.0.2/MSDK/plf/src\init_rom_symbol.c ****         mbedtls_ecdsa_free_fn = (void *)0x0bf71390;
 865              		.loc 1 202 30
 866 061c 23A06800 		sw	t1,%lo(.LANCHOR0)(a7)
 203:C:/Users/stapi/OneDrive/Desktop/GD32VW553/V1_MQTT_OK/GD32VW55X_Wifi_BLE_SDK/GD32VW55x_RELEASE_V1.0.2/MSDK/plf/src\init_rom_symbol.c ****         mbedtls_ecdsa_from_keypair_fn = (void *)0x0bf7133e;
 867              		.loc 1 203 9 is_stmt 1
 203:C:/Users/stapi/OneDrive/Desktop/GD32VW553/V1_MQTT_OK/GD32VW55X_Wifi_BLE_SDK/GD32VW55x_RELEASE_V1.0.2/MSDK/plf/src\init_rom_symbol.c ****         mbedtls_ecdsa_from_keypair_fn = (void *)0x0bf7133e;
 868              		.loc 1 203 31 is_stmt 0
 869 0620 B7080000 		lui	a7,%hi(.LANCHOR1)
 204:C:/Users/stapi/OneDrive/Desktop/GD32VW553/V1_MQTT_OK/GD32VW55X_Wifi_BLE_SDK/GD32VW55x_RELEASE_V1.0.2/MSDK/plf/src\init_rom_symbol.c ****         mbedtls_ecdsa_genkey_fn = (void *)0x0bf71300;
 870              		.loc 1 204 39
 871 0624 9383E533 		addi	t2,a1,830
 203:C:/Users/stapi/OneDrive/Desktop/GD32VW553/V1_MQTT_OK/GD32VW55X_Wifi_BLE_SDK/GD32VW55x_RELEASE_V1.0.2/MSDK/plf/src\init_rom_symbol.c ****         mbedtls_ecdsa_from_keypair_fn = (void *)0x0bf7133e;
 872              		.loc 1 203 31
 873 0628 23A05800 		sw	t0,%lo(.LANCHOR1)(a7)
 204:C:/Users/stapi/OneDrive/Desktop/GD32VW553/V1_MQTT_OK/GD32VW55X_Wifi_BLE_SDK/GD32VW55x_RELEASE_V1.0.2/MSDK/plf/src\init_rom_symbol.c ****         mbedtls_ecdsa_genkey_fn = (void *)0x0bf71300;
 874              		.loc 1 204 9 is_stmt 1
 204:C:/Users/stapi/OneDrive/Desktop/GD32VW553/V1_MQTT_OK/GD32VW55X_Wifi_BLE_SDK/GD32VW55x_RELEASE_V1.0.2/MSDK/plf/src\init_rom_symbol.c ****         mbedtls_ecdsa_genkey_fn = (void *)0x0bf71300;
 875              		.loc 1 204 39 is_stmt 0
 876 062c B7080000 		lui	a7,%hi(.LANCHOR2)
 205:C:/Users/stapi/OneDrive/Desktop/GD32VW553/V1_MQTT_OK/GD32VW55X_Wifi_BLE_SDK/GD32VW55x_RELEASE_V1.0.2/MSDK/plf/src\init_rom_symbol.c ****         mbedtls_ecdsa_init_fn = (void *)0x0bf7138c;
 877              		.loc 1 205 33
 878 0630 938E0530 		addi	t4,a1,768
 204:C:/Users/stapi/OneDrive/Desktop/GD32VW553/V1_MQTT_OK/GD32VW55X_Wifi_BLE_SDK/GD32VW55x_RELEASE_V1.0.2/MSDK/plf/src\init_rom_symbol.c ****         mbedtls_ecdsa_genkey_fn = (void *)0x0bf71300;
 879              		.loc 1 204 39
 880 0634 23A07800 		sw	t2,%lo(.LANCHOR2)(a7)
 205:C:/Users/stapi/OneDrive/Desktop/GD32VW553/V1_MQTT_OK/GD32VW55X_Wifi_BLE_SDK/GD32VW55x_RELEASE_V1.0.2/MSDK/plf/src\init_rom_symbol.c ****         mbedtls_ecdsa_init_fn = (void *)0x0bf7138c;
 881              		.loc 1 205 9 is_stmt 1
 205:C:/Users/stapi/OneDrive/Desktop/GD32VW553/V1_MQTT_OK/GD32VW55X_Wifi_BLE_SDK/GD32VW55x_RELEASE_V1.0.2/MSDK/plf/src\init_rom_symbol.c ****         mbedtls_ecdsa_init_fn = (void *)0x0bf7138c;
 882              		.loc 1 205 33 is_stmt 0
 883 0638 B7080000 		lui	a7,%hi(.LANCHOR3)
 206:C:/Users/stapi/OneDrive/Desktop/GD32VW553/V1_MQTT_OK/GD32VW55X_Wifi_BLE_SDK/GD32VW55x_RELEASE_V1.0.2/MSDK/plf/src\init_rom_symbol.c ****         mbedtls_ecdsa_read_signature_fn = (void *)0x0bf712fa;
 884              		.loc 1 206 31
 885 063c 138EC538 		addi	t3,a1,908
 205:C:/Users/stapi/OneDrive/Desktop/GD32VW553/V1_MQTT_OK/GD32VW55X_Wifi_BLE_SDK/GD32VW55x_RELEASE_V1.0.2/MSDK/plf/src\init_rom_symbol.c ****         mbedtls_ecdsa_init_fn = (void *)0x0bf7138c;
 886              		.loc 1 205 33
 887 0640 23A0D801 		sw	t4,%lo(.LANCHOR3)(a7)
 206:C:/Users/stapi/OneDrive/Desktop/GD32VW553/V1_MQTT_OK/GD32VW55X_Wifi_BLE_SDK/GD32VW55x_RELEASE_V1.0.2/MSDK/plf/src\init_rom_symbol.c ****         mbedtls_ecdsa_read_signature_fn = (void *)0x0bf712fa;
 888              		.loc 1 206 9 is_stmt 1
 206:C:/Users/stapi/OneDrive/Desktop/GD32VW553/V1_MQTT_OK/GD32VW55X_Wifi_BLE_SDK/GD32VW55x_RELEASE_V1.0.2/MSDK/plf/src\init_rom_symbol.c ****         mbedtls_ecdsa_read_signature_fn = (void *)0x0bf712fa;
 889              		.loc 1 206 31 is_stmt 0
 890 0644 B7080000 		lui	a7,%hi(.LANCHOR4)
 207:C:/Users/stapi/OneDrive/Desktop/GD32VW553/V1_MQTT_OK/GD32VW55X_Wifi_BLE_SDK/GD32VW55x_RELEASE_V1.0.2/MSDK/plf/src\init_rom_symbol.c ****         mbedtls_ecdsa_read_signature_restartable_fn = (void *)0x0bf71254;
 891              		.loc 1 207 41
 892 0648 1383A52F 		addi	t1,a1,762
 206:C:/Users/stapi/OneDrive/Desktop/GD32VW553/V1_MQTT_OK/GD32VW55X_Wifi_BLE_SDK/GD32VW55x_RELEASE_V1.0.2/MSDK/plf/src\init_rom_symbol.c ****         mbedtls_ecdsa_read_signature_fn = (void *)0x0bf712fa;
 893              		.loc 1 206 31
 894 064c 23A0C801 		sw	t3,%lo(.LANCHOR4)(a7)
 207:C:/Users/stapi/OneDrive/Desktop/GD32VW553/V1_MQTT_OK/GD32VW55X_Wifi_BLE_SDK/GD32VW55x_RELEASE_V1.0.2/MSDK/plf/src\init_rom_symbol.c ****         mbedtls_ecdsa_read_signature_restartable_fn = (void *)0x0bf71254;
 895              		.loc 1 207 9 is_stmt 1
 207:C:/Users/stapi/OneDrive/Desktop/GD32VW553/V1_MQTT_OK/GD32VW55X_Wifi_BLE_SDK/GD32VW55x_RELEASE_V1.0.2/MSDK/plf/src\init_rom_symbol.c ****         mbedtls_ecdsa_read_signature_restartable_fn = (void *)0x0bf71254;
 896              		.loc 1 207 41 is_stmt 0
 897 0650 B7080000 		lui	a7,%hi(.LANCHOR5)
 208:C:/Users/stapi/OneDrive/Desktop/GD32VW553/V1_MQTT_OK/GD32VW55X_Wifi_BLE_SDK/GD32VW55x_RELEASE_V1.0.2/MSDK/plf/src\init_rom_symbol.c ****         mbedtls_ecdsa_sign_fn = (void *)0x0bf70b6e;
 898              		.loc 1 208 53
 899 0654 93824525 		addi	t0,a1,596
 207:C:/Users/stapi/OneDrive/Desktop/GD32VW553/V1_MQTT_OK/GD32VW55X_Wifi_BLE_SDK/GD32VW55x_RELEASE_V1.0.2/MSDK/plf/src\init_rom_symbol.c ****         mbedtls_ecdsa_read_signature_restartable_fn = (void *)0x0bf71254;
 900              		.loc 1 207 41
 901 0658 23A06800 		sw	t1,%lo(.LANCHOR5)(a7)
 208:C:/Users/stapi/OneDrive/Desktop/GD32VW553/V1_MQTT_OK/GD32VW55X_Wifi_BLE_SDK/GD32VW55x_RELEASE_V1.0.2/MSDK/plf/src\init_rom_symbol.c ****         mbedtls_ecdsa_sign_fn = (void *)0x0bf70b6e;
 902              		.loc 1 208 9 is_stmt 1
 208:C:/Users/stapi/OneDrive/Desktop/GD32VW553/V1_MQTT_OK/GD32VW55X_Wifi_BLE_SDK/GD32VW55x_RELEASE_V1.0.2/MSDK/plf/src\init_rom_symbol.c ****         mbedtls_ecdsa_sign_fn = (void *)0x0bf70b6e;
 903              		.loc 1 208 53 is_stmt 0
 904 065c B7080000 		lui	a7,%hi(.LANCHOR6)
 209:C:/Users/stapi/OneDrive/Desktop/GD32VW553/V1_MQTT_OK/GD32VW55X_Wifi_BLE_SDK/GD32VW55x_RELEASE_V1.0.2/MSDK/plf/src\init_rom_symbol.c ****         mbedtls_ecdsa_sign_det_fn = (void *)0x0bf70f2e;
 905              		.loc 1 209 31
 906 0660 9383E5B6 		addi	t2,a1,-1170
 208:C:/Users/stapi/OneDrive/Desktop/GD32VW553/V1_MQTT_OK/GD32VW55X_Wifi_BLE_SDK/GD32VW55x_RELEASE_V1.0.2/MSDK/plf/src\init_rom_symbol.c ****         mbedtls_ecdsa_sign_fn = (void *)0x0bf70b6e;
 907              		.loc 1 208 53
 908 0664 23A05800 		sw	t0,%lo(.LANCHOR6)(a7)
 209:C:/Users/stapi/OneDrive/Desktop/GD32VW553/V1_MQTT_OK/GD32VW55X_Wifi_BLE_SDK/GD32VW55x_RELEASE_V1.0.2/MSDK/plf/src\init_rom_symbol.c ****         mbedtls_ecdsa_sign_det_fn = (void *)0x0bf70f2e;
 909              		.loc 1 209 9 is_stmt 1
 209:C:/Users/stapi/OneDrive/Desktop/GD32VW553/V1_MQTT_OK/GD32VW55X_Wifi_BLE_SDK/GD32VW55x_RELEASE_V1.0.2/MSDK/plf/src\init_rom_symbol.c ****         mbedtls_ecdsa_sign_det_fn = (void *)0x0bf70f2e;
 910              		.loc 1 209 31 is_stmt 0
 911 0668 B7080000 		lui	a7,%hi(.LANCHOR7)
 210:C:/Users/stapi/OneDrive/Desktop/GD32VW553/V1_MQTT_OK/GD32VW55X_Wifi_BLE_SDK/GD32VW55x_RELEASE_V1.0.2/MSDK/plf/src\init_rom_symbol.c ****         mbedtls_ecdsa_verify_fn = (void *)0x0bf70f32;
 912              		.loc 1 210 35
 913 066c 938EE5F2 		addi	t4,a1,-210
 209:C:/Users/stapi/OneDrive/Desktop/GD32VW553/V1_MQTT_OK/GD32VW55X_Wifi_BLE_SDK/GD32VW55x_RELEASE_V1.0.2/MSDK/plf/src\init_rom_symbol.c ****         mbedtls_ecdsa_sign_det_fn = (void *)0x0bf70f2e;
 914              		.loc 1 209 31
 915 0670 23A07800 		sw	t2,%lo(.LANCHOR7)(a7)
 210:C:/Users/stapi/OneDrive/Desktop/GD32VW553/V1_MQTT_OK/GD32VW55X_Wifi_BLE_SDK/GD32VW55x_RELEASE_V1.0.2/MSDK/plf/src\init_rom_symbol.c ****         mbedtls_ecdsa_verify_fn = (void *)0x0bf70f32;
 916              		.loc 1 210 9 is_stmt 1
 210:C:/Users/stapi/OneDrive/Desktop/GD32VW553/V1_MQTT_OK/GD32VW55X_Wifi_BLE_SDK/GD32VW55x_RELEASE_V1.0.2/MSDK/plf/src\init_rom_symbol.c ****         mbedtls_ecdsa_verify_fn = (void *)0x0bf70f32;
 917              		.loc 1 210 35 is_stmt 0
 918 0674 B7080000 		lui	a7,%hi(.LANCHOR8)
 211:C:/Users/stapi/OneDrive/Desktop/GD32VW553/V1_MQTT_OK/GD32VW55X_Wifi_BLE_SDK/GD32VW55x_RELEASE_V1.0.2/MSDK/plf/src\init_rom_symbol.c ****         mbedtls_ecdsa_write_signature_fn = (void *)0x0bf71224;
 919              		.loc 1 211 33
 920 0678 138E25F3 		addi	t3,a1,-206
 210:C:/Users/stapi/OneDrive/Desktop/GD32VW553/V1_MQTT_OK/GD32VW55X_Wifi_BLE_SDK/GD32VW55x_RELEASE_V1.0.2/MSDK/plf/src\init_rom_symbol.c ****         mbedtls_ecdsa_verify_fn = (void *)0x0bf70f32;
 921              		.loc 1 210 35
 922 067c 23A0D801 		sw	t4,%lo(.LANCHOR8)(a7)
 211:C:/Users/stapi/OneDrive/Desktop/GD32VW553/V1_MQTT_OK/GD32VW55X_Wifi_BLE_SDK/GD32VW55x_RELEASE_V1.0.2/MSDK/plf/src\init_rom_symbol.c ****         mbedtls_ecdsa_write_signature_fn = (void *)0x0bf71224;
 923              		.loc 1 211 9 is_stmt 1
 211:C:/Users/stapi/OneDrive/Desktop/GD32VW553/V1_MQTT_OK/GD32VW55X_Wifi_BLE_SDK/GD32VW55x_RELEASE_V1.0.2/MSDK/plf/src\init_rom_symbol.c ****         mbedtls_ecdsa_write_signature_fn = (void *)0x0bf71224;
 924              		.loc 1 211 33 is_stmt 0
 925 0680 B7080000 		lui	a7,%hi(.LANCHOR9)
 212:C:/Users/stapi/OneDrive/Desktop/GD32VW553/V1_MQTT_OK/GD32VW55X_Wifi_BLE_SDK/GD32VW55x_RELEASE_V1.0.2/MSDK/plf/src\init_rom_symbol.c ****         mbedtls_ecdsa_write_signature_det_fn = (void *)0x0bf71234;
 926              		.loc 1 212 42
 927 0684 13834522 		addi	t1,a1,548
 211:C:/Users/stapi/OneDrive/Desktop/GD32VW553/V1_MQTT_OK/GD32VW55X_Wifi_BLE_SDK/GD32VW55x_RELEASE_V1.0.2/MSDK/plf/src\init_rom_symbol.c ****         mbedtls_ecdsa_write_signature_fn = (void *)0x0bf71224;
 928              		.loc 1 211 33
 929 0688 23A0C801 		sw	t3,%lo(.LANCHOR9)(a7)
 212:C:/Users/stapi/OneDrive/Desktop/GD32VW553/V1_MQTT_OK/GD32VW55X_Wifi_BLE_SDK/GD32VW55x_RELEASE_V1.0.2/MSDK/plf/src\init_rom_symbol.c ****         mbedtls_ecdsa_write_signature_det_fn = (void *)0x0bf71234;
 930              		.loc 1 212 9 is_stmt 1
 212:C:/Users/stapi/OneDrive/Desktop/GD32VW553/V1_MQTT_OK/GD32VW55X_Wifi_BLE_SDK/GD32VW55x_RELEASE_V1.0.2/MSDK/plf/src\init_rom_symbol.c ****         mbedtls_ecdsa_write_signature_det_fn = (void *)0x0bf71234;
 931              		.loc 1 212 42 is_stmt 0
 932 068c B7080000 		lui	a7,%hi(.LANCHOR10)
 213:C:/Users/stapi/OneDrive/Desktop/GD32VW553/V1_MQTT_OK/GD32VW55X_Wifi_BLE_SDK/GD32VW55x_RELEASE_V1.0.2/MSDK/plf/src\init_rom_symbol.c ****         mbedtls_ecdsa_write_signature_restartable_fn = (void *)0x0bf7115e;
 933              		.loc 1 213 46
 934 0690 93824523 		addi	t0,a1,564
 212:C:/Users/stapi/OneDrive/Desktop/GD32VW553/V1_MQTT_OK/GD32VW55X_Wifi_BLE_SDK/GD32VW55x_RELEASE_V1.0.2/MSDK/plf/src\init_rom_symbol.c ****         mbedtls_ecdsa_write_signature_det_fn = (void *)0x0bf71234;
 935              		.loc 1 212 42
 936 0694 23A06800 		sw	t1,%lo(.LANCHOR10)(a7)
 213:C:/Users/stapi/OneDrive/Desktop/GD32VW553/V1_MQTT_OK/GD32VW55X_Wifi_BLE_SDK/GD32VW55x_RELEASE_V1.0.2/MSDK/plf/src\init_rom_symbol.c ****         mbedtls_ecdsa_write_signature_restartable_fn = (void *)0x0bf7115e;
 937              		.loc 1 213 9 is_stmt 1
 213:C:/Users/stapi/OneDrive/Desktop/GD32VW553/V1_MQTT_OK/GD32VW55X_Wifi_BLE_SDK/GD32VW55x_RELEASE_V1.0.2/MSDK/plf/src\init_rom_symbol.c ****         mbedtls_ecdsa_write_signature_restartable_fn = (void *)0x0bf7115e;
 938              		.loc 1 213 46 is_stmt 0
 939 0698 B7080000 		lui	a7,%hi(.LANCHOR11)
 215:C:/Users/stapi/OneDrive/Desktop/GD32VW553/V1_MQTT_OK/GD32VW55X_Wifi_BLE_SDK/GD32VW55x_RELEASE_V1.0.2/MSDK/plf/src\init_rom_symbol.c ****         mbedtls_ecp_check_pub_priv_fn = (void *)0x0bf73848;
 940              		.loc 1 215 38
 941 069c 3736F70B 		li	a2,200749056
 213:C:/Users/stapi/OneDrive/Desktop/GD32VW553/V1_MQTT_OK/GD32VW55X_Wifi_BLE_SDK/GD32VW55x_RELEASE_V1.0.2/MSDK/plf/src\init_rom_symbol.c ****         mbedtls_ecdsa_write_signature_restartable_fn = (void *)0x0bf7115e;
 942              		.loc 1 213 46
 943 06a0 23A05800 		sw	t0,%lo(.LANCHOR11)(a7)
 214:C:/Users/stapi/OneDrive/Desktop/GD32VW553/V1_MQTT_OK/GD32VW55X_Wifi_BLE_SDK/GD32VW55x_RELEASE_V1.0.2/MSDK/plf/src\init_rom_symbol.c ****         mbedtls_ecp_check_privkey_fn = (void *)0x0bf72a0e;
 944              		.loc 1 214 9 is_stmt 1
 214:C:/Users/stapi/OneDrive/Desktop/GD32VW553/V1_MQTT_OK/GD32VW55X_Wifi_BLE_SDK/GD32VW55x_RELEASE_V1.0.2/MSDK/plf/src\init_rom_symbol.c ****         mbedtls_ecp_check_privkey_fn = (void *)0x0bf72a0e;
 945              		.loc 1 214 54 is_stmt 0
 946 06a4 9385E515 		addi	a1,a1,350
 947 06a8 B7020000 		lui	t0,%hi(.LANCHOR12)
 218:C:/Users/stapi/OneDrive/Desktop/GD32VW553/V1_MQTT_OK/GD32VW55X_Wifi_BLE_SDK/GD32VW55x_RELEASE_V1.0.2/MSDK/plf/src\init_rom_symbol.c ****         mbedtls_ecp_curve_info_from_grp_id_fn = (void *)0x0bf71d4e;
 948              		.loc 1 218 29
 949 06ac B726F70B 		li	a3,200744960
 215:C:/Users/stapi/OneDrive/Desktop/GD32VW553/V1_MQTT_OK/GD32VW55X_Wifi_BLE_SDK/GD32VW55x_RELEASE_V1.0.2/MSDK/plf/src\init_rom_symbol.c ****         mbedtls_ecp_check_pub_priv_fn = (void *)0x0bf73848;
 950              		.loc 1 215 38
 951 06b0 930FE6A0 		addi	t6,a2,-1522
 214:C:/Users/stapi/OneDrive/Desktop/GD32VW553/V1_MQTT_OK/GD32VW55X_Wifi_BLE_SDK/GD32VW55x_RELEASE_V1.0.2/MSDK/plf/src\init_rom_symbol.c ****         mbedtls_ecp_check_privkey_fn = (void *)0x0bf72a0e;
 952              		.loc 1 214 54
 953 06b4 23A0B200 		sw	a1,%lo(.LANCHOR12)(t0)
 215:C:/Users/stapi/OneDrive/Desktop/GD32VW553/V1_MQTT_OK/GD32VW55X_Wifi_BLE_SDK/GD32VW55x_RELEASE_V1.0.2/MSDK/plf/src\init_rom_symbol.c ****         mbedtls_ecp_check_pub_priv_fn = (void *)0x0bf73848;
 954              		.loc 1 215 9 is_stmt 1
 215:C:/Users/stapi/OneDrive/Desktop/GD32VW553/V1_MQTT_OK/GD32VW55X_Wifi_BLE_SDK/GD32VW55x_RELEASE_V1.0.2/MSDK/plf/src\init_rom_symbol.c ****         mbedtls_ecp_check_pub_priv_fn = (void *)0x0bf73848;
 955              		.loc 1 215 38 is_stmt 0
 956 06b8 B7050000 		lui	a1,%hi(.LANCHOR13)
 218:C:/Users/stapi/OneDrive/Desktop/GD32VW553/V1_MQTT_OK/GD32VW55X_Wifi_BLE_SDK/GD32VW55x_RELEASE_V1.0.2/MSDK/plf/src\init_rom_symbol.c ****         mbedtls_ecp_curve_info_from_grp_id_fn = (void *)0x0bf71d4e;
 957              		.loc 1 218 29
 958 06bc 138F26F4 		addi	t5,a3,-190
 215:C:/Users/stapi/OneDrive/Desktop/GD32VW553/V1_MQTT_OK/GD32VW55X_Wifi_BLE_SDK/GD32VW55x_RELEASE_V1.0.2/MSDK/plf/src\init_rom_symbol.c ****         mbedtls_ecp_check_pub_priv_fn = (void *)0x0bf73848;
 959              		.loc 1 215 38
 960 06c0 23A0F501 		sw	t6,%lo(.LANCHOR13)(a1)
 216:C:/Users/stapi/OneDrive/Desktop/GD32VW553/V1_MQTT_OK/GD32VW55X_Wifi_BLE_SDK/GD32VW55x_RELEASE_V1.0.2/MSDK/plf/src\init_rom_symbol.c ****         mbedtls_ecp_check_pubkey_fn = (void *)0x0bf72c78;
 961              		.loc 1 216 9 is_stmt 1
 218:C:/Users/stapi/OneDrive/Desktop/GD32VW553/V1_MQTT_OK/GD32VW55X_Wifi_BLE_SDK/GD32VW55x_RELEASE_V1.0.2/MSDK/plf/src\init_rom_symbol.c ****         mbedtls_ecp_curve_info_from_grp_id_fn = (void *)0x0bf71d4e;
 962              		.loc 1 218 29 is_stmt 0
 963 06c4 B7050000 		lui	a1,%hi(.LANCHOR16)
 219:C:/Users/stapi/OneDrive/Desktop/GD32VW553/V1_MQTT_OK/GD32VW55X_Wifi_BLE_SDK/GD32VW55x_RELEASE_V1.0.2/MSDK/plf/src\init_rom_symbol.c ****         mbedtls_ecp_curve_info_from_name_fn = (void *)0x0bf71daa;
 964              		.loc 1 219 47
 965 06c8 938EE6D4 		addi	t4,a3,-690
 218:C:/Users/stapi/OneDrive/Desktop/GD32VW553/V1_MQTT_OK/GD32VW55X_Wifi_BLE_SDK/GD32VW55x_RELEASE_V1.0.2/MSDK/plf/src\init_rom_symbol.c ****         mbedtls_ecp_curve_info_from_grp_id_fn = (void *)0x0bf71d4e;
 966              		.loc 1 218 29
 967 06cc 23A0E501 		sw	t5,%lo(.LANCHOR16)(a1)
 219:C:/Users/stapi/OneDrive/Desktop/GD32VW553/V1_MQTT_OK/GD32VW55X_Wifi_BLE_SDK/GD32VW55x_RELEASE_V1.0.2/MSDK/plf/src\init_rom_symbol.c ****         mbedtls_ecp_curve_info_from_name_fn = (void *)0x0bf71daa;
 968              		.loc 1 219 47
 969 06d0 B7050000 		lui	a1,%hi(.LANCHOR17)
 220:C:/Users/stapi/OneDrive/Desktop/GD32VW553/V1_MQTT_OK/GD32VW55X_Wifi_BLE_SDK/GD32VW55x_RELEASE_V1.0.2/MSDK/plf/src\init_rom_symbol.c ****         mbedtls_ecp_curve_info_from_tls_id_fn = (void *)0x0bf71d7a;
 970              		.loc 1 220 45
 971 06d4 138EA6DA 		addi	t3,a3,-598
 219:C:/Users/stapi/OneDrive/Desktop/GD32VW553/V1_MQTT_OK/GD32VW55X_Wifi_BLE_SDK/GD32VW55x_RELEASE_V1.0.2/MSDK/plf/src\init_rom_symbol.c ****         mbedtls_ecp_curve_info_from_name_fn = (void *)0x0bf71daa;
 972              		.loc 1 219 47
 973 06d8 23A0D501 		sw	t4,%lo(.LANCHOR17)(a1)
 220:C:/Users/stapi/OneDrive/Desktop/GD32VW553/V1_MQTT_OK/GD32VW55X_Wifi_BLE_SDK/GD32VW55x_RELEASE_V1.0.2/MSDK/plf/src\init_rom_symbol.c ****         mbedtls_ecp_curve_info_from_tls_id_fn = (void *)0x0bf71d7a;
 974              		.loc 1 220 45
 975 06dc B7050000 		lui	a1,%hi(.LANCHOR18)
 221:C:/Users/stapi/OneDrive/Desktop/GD32VW553/V1_MQTT_OK/GD32VW55X_Wifi_BLE_SDK/GD32VW55x_RELEASE_V1.0.2/MSDK/plf/src\init_rom_symbol.c ****         mbedtls_ecp_curve_list_fn = (void *)0x0bf71cda;
 976              		.loc 1 221 47
 977 06e0 1383A6D7 		addi	t1,a3,-646
 220:C:/Users/stapi/OneDrive/Desktop/GD32VW553/V1_MQTT_OK/GD32VW55X_Wifi_BLE_SDK/GD32VW55x_RELEASE_V1.0.2/MSDK/plf/src\init_rom_symbol.c ****         mbedtls_ecp_curve_info_from_tls_id_fn = (void *)0x0bf71d7a;
 978              		.loc 1 220 45
 979 06e4 23A0C501 		sw	t3,%lo(.LANCHOR18)(a1)
 221:C:/Users/stapi/OneDrive/Desktop/GD32VW553/V1_MQTT_OK/GD32VW55X_Wifi_BLE_SDK/GD32VW55x_RELEASE_V1.0.2/MSDK/plf/src\init_rom_symbol.c ****         mbedtls_ecp_curve_list_fn = (void *)0x0bf71cda;
 980              		.loc 1 221 47
 981 06e8 B7050000 		lui	a1,%hi(.LANCHOR19)
 222:C:/Users/stapi/OneDrive/Desktop/GD32VW553/V1_MQTT_OK/GD32VW55X_Wifi_BLE_SDK/GD32VW55x_RELEASE_V1.0.2/MSDK/plf/src\init_rom_symbol.c ****         mbedtls_ecp_gen_key_fn = (void *)0x0bf73802;
 982              		.loc 1 222 35
 983 06ec 9388A6CD 		addi	a7,a3,-806
 221:C:/Users/stapi/OneDrive/Desktop/GD32VW553/V1_MQTT_OK/GD32VW55X_Wifi_BLE_SDK/GD32VW55x_RELEASE_V1.0.2/MSDK/plf/src\init_rom_symbol.c ****         mbedtls_ecp_curve_list_fn = (void *)0x0bf71cda;
 984              		.loc 1 221 47
 985 06f0 23A06500 		sw	t1,%lo(.LANCHOR19)(a1)
 222:C:/Users/stapi/OneDrive/Desktop/GD32VW553/V1_MQTT_OK/GD32VW55X_Wifi_BLE_SDK/GD32VW55x_RELEASE_V1.0.2/MSDK/plf/src\init_rom_symbol.c ****         mbedtls_ecp_gen_key_fn = (void *)0x0bf73802;
 986              		.loc 1 222 35
 987 06f4 B7050000 		lui	a1,%hi(.LANCHOR20)
 227:C:/Users/stapi/OneDrive/Desktop/GD32VW553/V1_MQTT_OK/GD32VW55X_Wifi_BLE_SDK/GD32VW55x_RELEASE_V1.0.2/MSDK/plf/src\init_rom_symbol.c ****         mbedtls_ecp_group_free_fn = (void *)0x0bf71e9c;
 988              		.loc 1 227 35
 989 06f8 938206F8 		addi	t0,a3,-128
 222:C:/Users/stapi/OneDrive/Desktop/GD32VW553/V1_MQTT_OK/GD32VW55X_Wifi_BLE_SDK/GD32VW55x_RELEASE_V1.0.2/MSDK/plf/src\init_rom_symbol.c ****         mbedtls_ecp_gen_key_fn = (void *)0x0bf73802;
 990              		.loc 1 222 35
 991 06fc 23A01501 		sw	a7,%lo(.LANCHOR20)(a1)
 227:C:/Users/stapi/OneDrive/Desktop/GD32VW553/V1_MQTT_OK/GD32VW55X_Wifi_BLE_SDK/GD32VW55x_RELEASE_V1.0.2/MSDK/plf/src\init_rom_symbol.c ****         mbedtls_ecp_group_free_fn = (void *)0x0bf71e9c;
 992              		.loc 1 227 35
 993 0700 B7050000 		lui	a1,%hi(.LANCHOR25)
 228:C:/Users/stapi/OneDrive/Desktop/GD32VW553/V1_MQTT_OK/GD32VW55X_Wifi_BLE_SDK/GD32VW55x_RELEASE_V1.0.2/MSDK/plf/src\init_rom_symbol.c ****         mbedtls_ecp_group_init_fn = (void *)0x0bf71e14;
 994              		.loc 1 228 35
 995 0704 938FC6E9 		addi	t6,a3,-356
 227:C:/Users/stapi/OneDrive/Desktop/GD32VW553/V1_MQTT_OK/GD32VW55X_Wifi_BLE_SDK/GD32VW55x_RELEASE_V1.0.2/MSDK/plf/src\init_rom_symbol.c ****         mbedtls_ecp_group_free_fn = (void *)0x0bf71e9c;
 996              		.loc 1 227 35
 997 0708 23A05500 		sw	t0,%lo(.LANCHOR25)(a1)
 228:C:/Users/stapi/OneDrive/Desktop/GD32VW553/V1_MQTT_OK/GD32VW55X_Wifi_BLE_SDK/GD32VW55x_RELEASE_V1.0.2/MSDK/plf/src\init_rom_symbol.c ****         mbedtls_ecp_group_init_fn = (void *)0x0bf71e14;
 998              		.loc 1 228 35
 999 070c B7050000 		lui	a1,%hi(.LANCHOR26)
 229:C:/Users/stapi/OneDrive/Desktop/GD32VW553/V1_MQTT_OK/GD32VW55X_Wifi_BLE_SDK/GD32VW55x_RELEASE_V1.0.2/MSDK/plf/src\init_rom_symbol.c ****         mbedtls_ecp_grp_id_list_fn = (void *)0x0bf71d02;
 1000              		.loc 1 229 35
 1001 0710 138F46E1 		addi	t5,a3,-492
 228:C:/Users/stapi/OneDrive/Desktop/GD32VW553/V1_MQTT_OK/GD32VW55X_Wifi_BLE_SDK/GD32VW55x_RELEASE_V1.0.2/MSDK/plf/src\init_rom_symbol.c ****         mbedtls_ecp_group_init_fn = (void *)0x0bf71e14;
 1002              		.loc 1 228 35
 1003 0714 23A0F501 		sw	t6,%lo(.LANCHOR26)(a1)
 229:C:/Users/stapi/OneDrive/Desktop/GD32VW553/V1_MQTT_OK/GD32VW55X_Wifi_BLE_SDK/GD32VW55x_RELEASE_V1.0.2/MSDK/plf/src\init_rom_symbol.c ****         mbedtls_ecp_grp_id_list_fn = (void *)0x0bf71d02;
 1004              		.loc 1 229 35
 1005 0718 B7050000 		lui	a1,%hi(.LANCHOR27)
 230:C:/Users/stapi/OneDrive/Desktop/GD32VW553/V1_MQTT_OK/GD32VW55X_Wifi_BLE_SDK/GD32VW55x_RELEASE_V1.0.2/MSDK/plf/src\init_rom_symbol.c ****         mbedtls_ecp_is_zero_fn = (void *)0x0bf726b4;
 1006              		.loc 1 230 36
 1007 071c 938E26D0 		addi	t4,a3,-766
 229:C:/Users/stapi/OneDrive/Desktop/GD32VW553/V1_MQTT_OK/GD32VW55X_Wifi_BLE_SDK/GD32VW55x_RELEASE_V1.0.2/MSDK/plf/src\init_rom_symbol.c ****         mbedtls_ecp_grp_id_list_fn = (void *)0x0bf71d02;
 1008              		.loc 1 229 35
 1009 0720 23A0E501 		sw	t5,%lo(.LANCHOR27)(a1)
 230:C:/Users/stapi/OneDrive/Desktop/GD32VW553/V1_MQTT_OK/GD32VW55X_Wifi_BLE_SDK/GD32VW55x_RELEASE_V1.0.2/MSDK/plf/src\init_rom_symbol.c ****         mbedtls_ecp_is_zero_fn = (void *)0x0bf726b4;
 1010              		.loc 1 230 36
 1011 0724 B7050000 		lui	a1,%hi(.LANCHOR28)
 231:C:/Users/stapi/OneDrive/Desktop/GD32VW553/V1_MQTT_OK/GD32VW55X_Wifi_BLE_SDK/GD32VW55x_RELEASE_V1.0.2/MSDK/plf/src\init_rom_symbol.c ****         mbedtls_ecp_keypair_free_fn = (void *)0x0bf71f1c;
 1012              		.loc 1 231 32
 1013 0728 138E466B 		addi	t3,a3,1716
 230:C:/Users/stapi/OneDrive/Desktop/GD32VW553/V1_MQTT_OK/GD32VW55X_Wifi_BLE_SDK/GD32VW55x_RELEASE_V1.0.2/MSDK/plf/src\init_rom_symbol.c ****         mbedtls_ecp_is_zero_fn = (void *)0x0bf726b4;
 1014              		.loc 1 230 36
 1015 072c 23A0D501 		sw	t4,%lo(.LANCHOR28)(a1)
 231:C:/Users/stapi/OneDrive/Desktop/GD32VW553/V1_MQTT_OK/GD32VW55X_Wifi_BLE_SDK/GD32VW55x_RELEASE_V1.0.2/MSDK/plf/src\init_rom_symbol.c ****         mbedtls_ecp_keypair_free_fn = (void *)0x0bf71f1c;
 1016              		.loc 1 231 32
 1017 0730 B7050000 		lui	a1,%hi(.LANCHOR29)
 232:C:/Users/stapi/OneDrive/Desktop/GD32VW553/V1_MQTT_OK/GD32VW55X_Wifi_BLE_SDK/GD32VW55x_RELEASE_V1.0.2/MSDK/plf/src\init_rom_symbol.c ****         mbedtls_ecp_keypair_init_fn = (void *)0x0bf71e72;
 1018              		.loc 1 232 37
 1019 0734 1383C6F1 		addi	t1,a3,-228
 231:C:/Users/stapi/OneDrive/Desktop/GD32VW553/V1_MQTT_OK/GD32VW55X_Wifi_BLE_SDK/GD32VW55x_RELEASE_V1.0.2/MSDK/plf/src\init_rom_symbol.c ****         mbedtls_ecp_keypair_free_fn = (void *)0x0bf71f1c;
 1020              		.loc 1 231 32
 1021 0738 23A0C501 		sw	t3,%lo(.LANCHOR29)(a1)
 217:C:/Users/stapi/OneDrive/Desktop/GD32VW553/V1_MQTT_OK/GD32VW55X_Wifi_BLE_SDK/GD32VW55x_RELEASE_V1.0.2/MSDK/plf/src\init_rom_symbol.c ****         mbedtls_ecp_copy_fn = (void *)0x0bf71f42;
 1022              		.loc 1 217 37
 1023 073c 930286C7 		addi	t0,a2,-904
 232:C:/Users/stapi/OneDrive/Desktop/GD32VW553/V1_MQTT_OK/GD32VW55X_Wifi_BLE_SDK/GD32VW55x_RELEASE_V1.0.2/MSDK/plf/src\init_rom_symbol.c ****         mbedtls_ecp_keypair_init_fn = (void *)0x0bf71e72;
 1024              		.loc 1 232 37
 1025 0740 B7050000 		lui	a1,%hi(.LANCHOR30)
 217:C:/Users/stapi/OneDrive/Desktop/GD32VW553/V1_MQTT_OK/GD32VW55X_Wifi_BLE_SDK/GD32VW55x_RELEASE_V1.0.2/MSDK/plf/src\init_rom_symbol.c ****         mbedtls_ecp_copy_fn = (void *)0x0bf71f42;
 1026              		.loc 1 217 37
 1027 0744 B70F0000 		lui	t6,%hi(.LANCHOR15)
 252:C:/Users/stapi/OneDrive/Desktop/GD32VW553/V1_MQTT_OK/GD32VW55X_Wifi_BLE_SDK/GD32VW55x_RELEASE_V1.0.2/MSDK/plf/src\init_rom_symbol.c ****         mbedtls_md5_clone_fn = (void *)0x0bf76468;
 1028              		.loc 1 252 24
 1029 0748 B77BF70B 		li	s7,200765440
 233:C:/Users/stapi/OneDrive/Desktop/GD32VW553/V1_MQTT_OK/GD32VW55X_Wifi_BLE_SDK/GD32VW55x_RELEASE_V1.0.2/MSDK/plf/src\init_rom_symbol.c ****         mbedtls_ecp_mul_fn = (void *)0x0bf73790;
 1030              		.loc 1 233 37
 1031 074c 938826E7 		addi	a7,a3,-398
 232:C:/Users/stapi/OneDrive/Desktop/GD32VW553/V1_MQTT_OK/GD32VW55X_Wifi_BLE_SDK/GD32VW55x_RELEASE_V1.0.2/MSDK/plf/src\init_rom_symbol.c ****         mbedtls_ecp_keypair_init_fn = (void *)0x0bf71e72;
 1032              		.loc 1 232 37
 1033 0750 23A06500 		sw	t1,%lo(.LANCHOR30)(a1)
 217:C:/Users/stapi/OneDrive/Desktop/GD32VW553/V1_MQTT_OK/GD32VW55X_Wifi_BLE_SDK/GD32VW55x_RELEASE_V1.0.2/MSDK/plf/src\init_rom_symbol.c ****         mbedtls_ecp_copy_fn = (void *)0x0bf71f42;
 1034              		.loc 1 217 37
 1035 0754 23A05F00 		sw	t0,%lo(.LANCHOR15)(t6)
 233:C:/Users/stapi/OneDrive/Desktop/GD32VW553/V1_MQTT_OK/GD32VW55X_Wifi_BLE_SDK/GD32VW55x_RELEASE_V1.0.2/MSDK/plf/src\init_rom_symbol.c ****         mbedtls_ecp_mul_fn = (void *)0x0bf73790;
 1036              		.loc 1 233 37
 1037 0758 B7050000 		lui	a1,%hi(.LANCHOR31)
 224:C:/Users/stapi/OneDrive/Desktop/GD32VW553/V1_MQTT_OK/GD32VW55X_Wifi_BLE_SDK/GD32VW55x_RELEASE_V1.0.2/MSDK/plf/src\init_rom_symbol.c ****         mbedtls_ecp_gen_keypair_base_fn = (void *)0x0bf73796;
 1038              		.loc 1 224 36
 1039 075c 9302267F 		addi	t0,a2,2034
 1040 0760 B70F0000 		lui	t6,%hi(.LANCHOR22)
 233:C:/Users/stapi/OneDrive/Desktop/GD32VW553/V1_MQTT_OK/GD32VW55X_Wifi_BLE_SDK/GD32VW55x_RELEASE_V1.0.2/MSDK/plf/src\init_rom_symbol.c ****         mbedtls_ecp_mul_fn = (void *)0x0bf73790;
 1041              		.loc 1 233 37
 1042 0764 23A01501 		sw	a7,%lo(.LANCHOR31)(a1)
 252:C:/Users/stapi/OneDrive/Desktop/GD32VW553/V1_MQTT_OK/GD32VW55X_Wifi_BLE_SDK/GD32VW55x_RELEASE_V1.0.2/MSDK/plf/src\init_rom_symbol.c ****         mbedtls_md5_clone_fn = (void *)0x0bf76468;
 1043              		.loc 1 252 24
 1044 0768 138E2B35 		addi	t3,s7,850
 254:C:/Users/stapi/OneDrive/Desktop/GD32VW553/V1_MQTT_OK/GD32VW55X_Wifi_BLE_SDK/GD32VW55x_RELEASE_V1.0.2/MSDK/plf/src\init_rom_symbol.c ****         mbedtls_md5_finish_ret_fn = (void *)0x0bf7721e;
 1045              		.loc 1 254 31
 1046 076c 9388CB31 		addi	a7,s7,796
 224:C:/Users/stapi/OneDrive/Desktop/GD32VW553/V1_MQTT_OK/GD32VW55X_Wifi_BLE_SDK/GD32VW55x_RELEASE_V1.0.2/MSDK/plf/src\init_rom_symbol.c ****         mbedtls_ecp_gen_keypair_base_fn = (void *)0x0bf73796;
 1047              		.loc 1 224 36
 1048 0770 23A05F00 		sw	t0,%lo(.LANCHOR22)(t6)
 263:C:/Users/stapi/OneDrive/Desktop/GD32VW553/V1_MQTT_OK/GD32VW55X_Wifi_BLE_SDK/GD32VW55x_RELEASE_V1.0.2/MSDK/plf/src\init_rom_symbol.c ****         mbedtls_mpi_div_int_fn = (void *)0x0bf6f1c6;
 1049              		.loc 1 263 35
 1050 0774 938BCB20 		addi	s7,s7,524
 225:C:/Users/stapi/OneDrive/Desktop/GD32VW553/V1_MQTT_OK/GD32VW55X_Wifi_BLE_SDK/GD32VW55x_RELEASE_V1.0.2/MSDK/plf/src\init_rom_symbol.c ****         mbedtls_ecp_gen_privkey_fn = (void *)0x0bf72a8c;
 1051              		.loc 1 225 41
 1052 0778 93026679 		addi	t0,a2,1942
 1053 077c B70F0000 		lui	t6,%hi(.LANCHOR23)
 1054 0780 23A05F00 		sw	t0,%lo(.LANCHOR23)(t6)
 263:C:/Users/stapi/OneDrive/Desktop/GD32VW553/V1_MQTT_OK/GD32VW55X_Wifi_BLE_SDK/GD32VW55x_RELEASE_V1.0.2/MSDK/plf/src\init_rom_symbol.c ****         mbedtls_mpi_div_int_fn = (void *)0x0bf6f1c6;
 1055              		.loc 1 263 35
 1056 0784 5EC6     		sw	s7,12(sp)
 226:C:/Users/stapi/OneDrive/Desktop/GD32VW553/V1_MQTT_OK/GD32VW55X_Wifi_BLE_SDK/GD32VW55x_RELEASE_V1.0.2/MSDK/plf/src\init_rom_symbol.c ****         mbedtls_ecp_group_copy_fn = (void *)0x0bf71f80;
 1057              		.loc 1 226 36
 1058 0786 9302C6A8 		addi	t0,a2,-1396
 216:C:/Users/stapi/OneDrive/Desktop/GD32VW553/V1_MQTT_OK/GD32VW55X_Wifi_BLE_SDK/GD32VW55x_RELEASE_V1.0.2/MSDK/plf/src\init_rom_symbol.c ****         mbedtls_ecp_check_pubkey_fn = (void *)0x0bf72c78;
 1059              		.loc 1 216 39
 1060 078a 130C8784 		addi	s8,a4,-1976
 226:C:/Users/stapi/OneDrive/Desktop/GD32VW553/V1_MQTT_OK/GD32VW55X_Wifi_BLE_SDK/GD32VW55x_RELEASE_V1.0.2/MSDK/plf/src\init_rom_symbol.c ****         mbedtls_ecp_group_copy_fn = (void *)0x0bf71f80;
 1061              		.loc 1 226 36
 1062 078e B70F0000 		lui	t6,%hi(.LANCHOR24)
 216:C:/Users/stapi/OneDrive/Desktop/GD32VW553/V1_MQTT_OK/GD32VW55X_Wifi_BLE_SDK/GD32VW55x_RELEASE_V1.0.2/MSDK/plf/src\init_rom_symbol.c ****         mbedtls_ecp_check_pubkey_fn = (void *)0x0bf72c78;
 1063              		.loc 1 216 39
 1064 0792 B70B0000 		lui	s7,%hi(.LANCHOR14)
 226:C:/Users/stapi/OneDrive/Desktop/GD32VW553/V1_MQTT_OK/GD32VW55X_Wifi_BLE_SDK/GD32VW55x_RELEASE_V1.0.2/MSDK/plf/src\init_rom_symbol.c ****         mbedtls_ecp_group_copy_fn = (void *)0x0bf71f80;
 1065              		.loc 1 226 36
 1066 0796 23A05F00 		sw	t0,%lo(.LANCHOR24)(t6)
 234:C:/Users/stapi/OneDrive/Desktop/GD32VW553/V1_MQTT_OK/GD32VW55X_Wifi_BLE_SDK/GD32VW55x_RELEASE_V1.0.2/MSDK/plf/src\init_rom_symbol.c ****         mbedtls_ecp_mul_restartable_fn = (void *)0x0bf72ebc;
 1067              		.loc 1 234 28
 1068 079a 930D0679 		addi	s11,a2,1936
 216:C:/Users/stapi/OneDrive/Desktop/GD32VW553/V1_MQTT_OK/GD32VW55X_Wifi_BLE_SDK/GD32VW55x_RELEASE_V1.0.2/MSDK/plf/src\init_rom_symbol.c ****         mbedtls_ecp_check_pubkey_fn = (void *)0x0bf72c78;
 1069              		.loc 1 216 39
 1070 079e 23A08B01 		sw	s8,%lo(.LANCHOR14)(s7)
 217:C:/Users/stapi/OneDrive/Desktop/GD32VW553/V1_MQTT_OK/GD32VW55X_Wifi_BLE_SDK/GD32VW55x_RELEASE_V1.0.2/MSDK/plf/src\init_rom_symbol.c ****         mbedtls_ecp_copy_fn = (void *)0x0bf71f42;
 1071              		.loc 1 217 9 is_stmt 1
 218:C:/Users/stapi/OneDrive/Desktop/GD32VW553/V1_MQTT_OK/GD32VW55X_Wifi_BLE_SDK/GD32VW55x_RELEASE_V1.0.2/MSDK/plf/src\init_rom_symbol.c ****         mbedtls_ecp_curve_info_from_grp_id_fn = (void *)0x0bf71d4e;
 1072              		.loc 1 218 9
 219:C:/Users/stapi/OneDrive/Desktop/GD32VW553/V1_MQTT_OK/GD32VW55X_Wifi_BLE_SDK/GD32VW55x_RELEASE_V1.0.2/MSDK/plf/src\init_rom_symbol.c ****         mbedtls_ecp_curve_info_from_name_fn = (void *)0x0bf71daa;
 1073              		.loc 1 219 9
 220:C:/Users/stapi/OneDrive/Desktop/GD32VW553/V1_MQTT_OK/GD32VW55X_Wifi_BLE_SDK/GD32VW55x_RELEASE_V1.0.2/MSDK/plf/src\init_rom_symbol.c ****         mbedtls_ecp_curve_info_from_tls_id_fn = (void *)0x0bf71d7a;
 1074              		.loc 1 220 9
 221:C:/Users/stapi/OneDrive/Desktop/GD32VW553/V1_MQTT_OK/GD32VW55X_Wifi_BLE_SDK/GD32VW55x_RELEASE_V1.0.2/MSDK/plf/src\init_rom_symbol.c ****         mbedtls_ecp_curve_list_fn = (void *)0x0bf71cda;
 1075              		.loc 1 221 9
 222:C:/Users/stapi/OneDrive/Desktop/GD32VW553/V1_MQTT_OK/GD32VW55X_Wifi_BLE_SDK/GD32VW55x_RELEASE_V1.0.2/MSDK/plf/src\init_rom_symbol.c ****         mbedtls_ecp_gen_key_fn = (void *)0x0bf73802;
 1076              		.loc 1 222 9
 223:C:/Users/stapi/OneDrive/Desktop/GD32VW553/V1_MQTT_OK/GD32VW55X_Wifi_BLE_SDK/GD32VW55x_RELEASE_V1.0.2/MSDK/plf/src\init_rom_symbol.c ****         mbedtls_ecp_gen_keypair_fn = (void *)0x0bf737f2;
 1077              		.loc 1 223 9
 234:C:/Users/stapi/OneDrive/Desktop/GD32VW553/V1_MQTT_OK/GD32VW55X_Wifi_BLE_SDK/GD32VW55x_RELEASE_V1.0.2/MSDK/plf/src\init_rom_symbol.c ****         mbedtls_ecp_mul_restartable_fn = (void *)0x0bf72ebc;
 1078              		.loc 1 234 28 is_stmt 0
 1079 07a2 370D0000 		lui	s10,%hi(.LANCHOR32)
 223:C:/Users/stapi/OneDrive/Desktop/GD32VW553/V1_MQTT_OK/GD32VW55X_Wifi_BLE_SDK/GD32VW55x_RELEASE_V1.0.2/MSDK/plf/src\init_rom_symbol.c ****         mbedtls_ecp_gen_keypair_fn = (void *)0x0bf737f2;
 1080              		.loc 1 223 32
 1081 07a6 130C2780 		addi	s8,a4,-2046
 1082 07aa B70B0000 		lui	s7,%hi(.LANCHOR21)
 1083 07ae 23A08B01 		sw	s8,%lo(.LANCHOR21)(s7)
 224:C:/Users/stapi/OneDrive/Desktop/GD32VW553/V1_MQTT_OK/GD32VW55X_Wifi_BLE_SDK/GD32VW55x_RELEASE_V1.0.2/MSDK/plf/src\init_rom_symbol.c ****         mbedtls_ecp_gen_keypair_base_fn = (void *)0x0bf73796;
 1084              		.loc 1 224 9 is_stmt 1
 225:C:/Users/stapi/OneDrive/Desktop/GD32VW553/V1_MQTT_OK/GD32VW55X_Wifi_BLE_SDK/GD32VW55x_RELEASE_V1.0.2/MSDK/plf/src\init_rom_symbol.c ****         mbedtls_ecp_gen_privkey_fn = (void *)0x0bf72a8c;
 1085              		.loc 1 225 9
 226:C:/Users/stapi/OneDrive/Desktop/GD32VW553/V1_MQTT_OK/GD32VW55X_Wifi_BLE_SDK/GD32VW55x_RELEASE_V1.0.2/MSDK/plf/src\init_rom_symbol.c ****         mbedtls_ecp_group_copy_fn = (void *)0x0bf71f80;
 1086              		.loc 1 226 9
 227:C:/Users/stapi/OneDrive/Desktop/GD32VW553/V1_MQTT_OK/GD32VW55X_Wifi_BLE_SDK/GD32VW55x_RELEASE_V1.0.2/MSDK/plf/src\init_rom_symbol.c ****         mbedtls_ecp_group_free_fn = (void *)0x0bf71e9c;
 1087              		.loc 1 227 9
 228:C:/Users/stapi/OneDrive/Desktop/GD32VW553/V1_MQTT_OK/GD32VW55X_Wifi_BLE_SDK/GD32VW55x_RELEASE_V1.0.2/MSDK/plf/src\init_rom_symbol.c ****         mbedtls_ecp_group_init_fn = (void *)0x0bf71e14;
 1088              		.loc 1 228 9
 229:C:/Users/stapi/OneDrive/Desktop/GD32VW553/V1_MQTT_OK/GD32VW55X_Wifi_BLE_SDK/GD32VW55x_RELEASE_V1.0.2/MSDK/plf/src\init_rom_symbol.c ****         mbedtls_ecp_grp_id_list_fn = (void *)0x0bf71d02;
 1089              		.loc 1 229 9
 230:C:/Users/stapi/OneDrive/Desktop/GD32VW553/V1_MQTT_OK/GD32VW55X_Wifi_BLE_SDK/GD32VW55x_RELEASE_V1.0.2/MSDK/plf/src\init_rom_symbol.c ****         mbedtls_ecp_is_zero_fn = (void *)0x0bf726b4;
 1090              		.loc 1 230 9
 231:C:/Users/stapi/OneDrive/Desktop/GD32VW553/V1_MQTT_OK/GD32VW55X_Wifi_BLE_SDK/GD32VW55x_RELEASE_V1.0.2/MSDK/plf/src\init_rom_symbol.c ****         mbedtls_ecp_keypair_free_fn = (void *)0x0bf71f1c;
 1091              		.loc 1 231 9
 232:C:/Users/stapi/OneDrive/Desktop/GD32VW553/V1_MQTT_OK/GD32VW55X_Wifi_BLE_SDK/GD32VW55x_RELEASE_V1.0.2/MSDK/plf/src\init_rom_symbol.c ****         mbedtls_ecp_keypair_init_fn = (void *)0x0bf71e72;
 1092              		.loc 1 232 9
 233:C:/Users/stapi/OneDrive/Desktop/GD32VW553/V1_MQTT_OK/GD32VW55X_Wifi_BLE_SDK/GD32VW55x_RELEASE_V1.0.2/MSDK/plf/src\init_rom_symbol.c ****         mbedtls_ecp_mul_fn = (void *)0x0bf73790;
 1093              		.loc 1 233 9
 234:C:/Users/stapi/OneDrive/Desktop/GD32VW553/V1_MQTT_OK/GD32VW55X_Wifi_BLE_SDK/GD32VW55x_RELEASE_V1.0.2/MSDK/plf/src\init_rom_symbol.c ****         mbedtls_ecp_mul_restartable_fn = (void *)0x0bf72ebc;
 1094              		.loc 1 234 9
 235:C:/Users/stapi/OneDrive/Desktop/GD32VW553/V1_MQTT_OK/GD32VW55X_Wifi_BLE_SDK/GD32VW55x_RELEASE_V1.0.2/MSDK/plf/src\init_rom_symbol.c ****         mbedtls_ecp_muladd_fn = (void *)0x0bf73a52;
 1095              		.loc 1 235 40 is_stmt 0
 1096 07b2 930CC6EB 		addi	s9,a2,-324
 234:C:/Users/stapi/OneDrive/Desktop/GD32VW553/V1_MQTT_OK/GD32VW55X_Wifi_BLE_SDK/GD32VW55x_RELEASE_V1.0.2/MSDK/plf/src\init_rom_symbol.c ****         mbedtls_ecp_mul_restartable_fn = (void *)0x0bf72ebc;
 1097              		.loc 1 234 28
 1098 07b6 2320BD01 		sw	s11,%lo(.LANCHOR32)(s10)
 235:C:/Users/stapi/OneDrive/Desktop/GD32VW553/V1_MQTT_OK/GD32VW55X_Wifi_BLE_SDK/GD32VW55x_RELEASE_V1.0.2/MSDK/plf/src\init_rom_symbol.c ****         mbedtls_ecp_muladd_fn = (void *)0x0bf73a52;
 1099              		.loc 1 235 9 is_stmt 1
 235:C:/Users/stapi/OneDrive/Desktop/GD32VW553/V1_MQTT_OK/GD32VW55X_Wifi_BLE_SDK/GD32VW55x_RELEASE_V1.0.2/MSDK/plf/src\init_rom_symbol.c ****         mbedtls_ecp_muladd_fn = (void *)0x0bf73a52;
 1100              		.loc 1 235 40 is_stmt 0
 1101 07ba 370D0000 		lui	s10,%hi(.LANCHOR33)
 236:C:/Users/stapi/OneDrive/Desktop/GD32VW553/V1_MQTT_OK/GD32VW55X_Wifi_BLE_SDK/GD32VW55x_RELEASE_V1.0.2/MSDK/plf/src\init_rom_symbol.c ****         mbedtls_ecp_muladd_restartable_fn = (void *)0x0bf73a36;
 1102              		.loc 1 236 31
 1103 07be 130C27A5 		addi	s8,a4,-1454
 235:C:/Users/stapi/OneDrive/Desktop/GD32VW553/V1_MQTT_OK/GD32VW55X_Wifi_BLE_SDK/GD32VW55x_RELEASE_V1.0.2/MSDK/plf/src\init_rom_symbol.c ****         mbedtls_ecp_muladd_fn = (void *)0x0bf73a52;
 1104              		.loc 1 235 40
 1105 07c2 23209D01 		sw	s9,%lo(.LANCHOR33)(s10)
 236:C:/Users/stapi/OneDrive/Desktop/GD32VW553/V1_MQTT_OK/GD32VW55X_Wifi_BLE_SDK/GD32VW55x_RELEASE_V1.0.2/MSDK/plf/src\init_rom_symbol.c ****         mbedtls_ecp_muladd_restartable_fn = (void *)0x0bf73a36;
 1106              		.loc 1 236 9 is_stmt 1
 236:C:/Users/stapi/OneDrive/Desktop/GD32VW553/V1_MQTT_OK/GD32VW55X_Wifi_BLE_SDK/GD32VW55x_RELEASE_V1.0.2/MSDK/plf/src\init_rom_symbol.c ****         mbedtls_ecp_muladd_restartable_fn = (void *)0x0bf73a36;
 1107              		.loc 1 236 31 is_stmt 0
 1108 07c6 B70C0000 		lui	s9,%hi(.LANCHOR34)
 237:C:/Users/stapi/OneDrive/Desktop/GD32VW553/V1_MQTT_OK/GD32VW55X_Wifi_BLE_SDK/GD32VW55x_RELEASE_V1.0.2/MSDK/plf/src\init_rom_symbol.c ****         mbedtls_ecp_point_cmp_fn = (void *)0x0bf726ca;
 1109              		.loc 1 237 43
 1110 07ca 930B67A3 		addi	s7,a4,-1482
 236:C:/Users/stapi/OneDrive/Desktop/GD32VW553/V1_MQTT_OK/GD32VW55X_Wifi_BLE_SDK/GD32VW55x_RELEASE_V1.0.2/MSDK/plf/src\init_rom_symbol.c ****         mbedtls_ecp_muladd_restartable_fn = (void *)0x0bf73a36;
 1111              		.loc 1 236 31
 1112 07ce 23A08C01 		sw	s8,%lo(.LANCHOR34)(s9)
 237:C:/Users/stapi/OneDrive/Desktop/GD32VW553/V1_MQTT_OK/GD32VW55X_Wifi_BLE_SDK/GD32VW55x_RELEASE_V1.0.2/MSDK/plf/src\init_rom_symbol.c ****         mbedtls_ecp_point_cmp_fn = (void *)0x0bf726ca;
 1113              		.loc 1 237 9 is_stmt 1
 237:C:/Users/stapi/OneDrive/Desktop/GD32VW553/V1_MQTT_OK/GD32VW55X_Wifi_BLE_SDK/GD32VW55x_RELEASE_V1.0.2/MSDK/plf/src\init_rom_symbol.c ****         mbedtls_ecp_point_cmp_fn = (void *)0x0bf726ca;
 1114              		.loc 1 237 43 is_stmt 0
 1115 07d2 370C0000 		lui	s8,%hi(.LANCHOR35)
 238:C:/Users/stapi/OneDrive/Desktop/GD32VW553/V1_MQTT_OK/GD32VW55X_Wifi_BLE_SDK/GD32VW55x_RELEASE_V1.0.2/MSDK/plf/src\init_rom_symbol.c ****         mbedtls_ecp_point_free_fn = (void *)0x0bf71e94;
 1116              		.loc 1 238 34
 1117 07d6 138BA66C 		addi	s6,a3,1738
 237:C:/Users/stapi/OneDrive/Desktop/GD32VW553/V1_MQTT_OK/GD32VW55X_Wifi_BLE_SDK/GD32VW55x_RELEASE_V1.0.2/MSDK/plf/src\init_rom_symbol.c ****         mbedtls_ecp_point_cmp_fn = (void *)0x0bf726ca;
 1118              		.loc 1 237 43
 1119 07da 23207C01 		sw	s7,%lo(.LANCHOR35)(s8)
 238:C:/Users/stapi/OneDrive/Desktop/GD32VW553/V1_MQTT_OK/GD32VW55X_Wifi_BLE_SDK/GD32VW55x_RELEASE_V1.0.2/MSDK/plf/src\init_rom_symbol.c ****         mbedtls_ecp_point_free_fn = (void *)0x0bf71e94;
 1120              		.loc 1 238 9 is_stmt 1
 238:C:/Users/stapi/OneDrive/Desktop/GD32VW553/V1_MQTT_OK/GD32VW55X_Wifi_BLE_SDK/GD32VW55x_RELEASE_V1.0.2/MSDK/plf/src\init_rom_symbol.c ****         mbedtls_ecp_point_free_fn = (void *)0x0bf71e94;
 1121              		.loc 1 238 34 is_stmt 0
 1122 07de B70B0000 		lui	s7,%hi(.LANCHOR36)
 239:C:/Users/stapi/OneDrive/Desktop/GD32VW553/V1_MQTT_OK/GD32VW55X_Wifi_BLE_SDK/GD32VW55x_RELEASE_V1.0.2/MSDK/plf/src\init_rom_symbol.c ****         mbedtls_ecp_point_init_fn = (void *)0x0bf71df2;
 1123              		.loc 1 239 35
 1124 07e2 938A46E9 		addi	s5,a3,-364
 238:C:/Users/stapi/OneDrive/Desktop/GD32VW553/V1_MQTT_OK/GD32VW55X_Wifi_BLE_SDK/GD32VW55x_RELEASE_V1.0.2/MSDK/plf/src\init_rom_symbol.c ****         mbedtls_ecp_point_free_fn = (void *)0x0bf71e94;
 1125              		.loc 1 238 34
 1126 07e6 23A06B01 		sw	s6,%lo(.LANCHOR36)(s7)
 239:C:/Users/stapi/OneDrive/Desktop/GD32VW553/V1_MQTT_OK/GD32VW55X_Wifi_BLE_SDK/GD32VW55x_RELEASE_V1.0.2/MSDK/plf/src\init_rom_symbol.c ****         mbedtls_ecp_point_init_fn = (void *)0x0bf71df2;
 1127              		.loc 1 239 9 is_stmt 1
 239:C:/Users/stapi/OneDrive/Desktop/GD32VW553/V1_MQTT_OK/GD32VW55X_Wifi_BLE_SDK/GD32VW55x_RELEASE_V1.0.2/MSDK/plf/src\init_rom_symbol.c ****         mbedtls_ecp_point_init_fn = (void *)0x0bf71df2;
 1128              		.loc 1 239 35 is_stmt 0
 1129 07ea 370B0000 		lui	s6,%hi(.LANCHOR37)
 240:C:/Users/stapi/OneDrive/Desktop/GD32VW553/V1_MQTT_OK/GD32VW55X_Wifi_BLE_SDK/GD32VW55x_RELEASE_V1.0.2/MSDK/plf/src\init_rom_symbol.c ****         mbedtls_ecp_point_read_binary_fn = (void *)0x0bf72824;
 1130              		.loc 1 240 35
 1131 07ee 138A26DF 		addi	s4,a3,-526
 239:C:/Users/stapi/OneDrive/Desktop/GD32VW553/V1_MQTT_OK/GD32VW55X_Wifi_BLE_SDK/GD32VW55x_RELEASE_V1.0.2/MSDK/plf/src\init_rom_symbol.c ****         mbedtls_ecp_point_init_fn = (void *)0x0bf71df2;
 1132              		.loc 1 239 35
 1133 07f2 23205B01 		sw	s5,%lo(.LANCHOR37)(s6)
 240:C:/Users/stapi/OneDrive/Desktop/GD32VW553/V1_MQTT_OK/GD32VW55X_Wifi_BLE_SDK/GD32VW55x_RELEASE_V1.0.2/MSDK/plf/src\init_rom_symbol.c ****         mbedtls_ecp_point_read_binary_fn = (void *)0x0bf72824;
 1134              		.loc 1 240 9 is_stmt 1
 240:C:/Users/stapi/OneDrive/Desktop/GD32VW553/V1_MQTT_OK/GD32VW55X_Wifi_BLE_SDK/GD32VW55x_RELEASE_V1.0.2/MSDK/plf/src\init_rom_symbol.c ****         mbedtls_ecp_point_read_binary_fn = (void *)0x0bf72824;
 1135              		.loc 1 240 35 is_stmt 0
 1136 07f6 B70A0000 		lui	s5,%hi(.LANCHOR38)
 241:C:/Users/stapi/OneDrive/Desktop/GD32VW553/V1_MQTT_OK/GD32VW55X_Wifi_BLE_SDK/GD32VW55x_RELEASE_V1.0.2/MSDK/plf/src\init_rom_symbol.c ****         mbedtls_ecp_point_read_string_fn = (void *)0x0bf72712;
 1137              		.loc 1 241 42
 1138 07fa 93094682 		addi	s3,a2,-2012
 240:C:/Users/stapi/OneDrive/Desktop/GD32VW553/V1_MQTT_OK/GD32VW55X_Wifi_BLE_SDK/GD32VW55x_RELEASE_V1.0.2/MSDK/plf/src\init_rom_symbol.c ****         mbedtls_ecp_point_read_binary_fn = (void *)0x0bf72824;
 1139              		.loc 1 240 35
 1140 07fe 23A04A01 		sw	s4,%lo(.LANCHOR38)(s5)
 241:C:/Users/stapi/OneDrive/Desktop/GD32VW553/V1_MQTT_OK/GD32VW55X_Wifi_BLE_SDK/GD32VW55x_RELEASE_V1.0.2/MSDK/plf/src\init_rom_symbol.c ****         mbedtls_ecp_point_read_string_fn = (void *)0x0bf72712;
 1141              		.loc 1 241 9 is_stmt 1
 241:C:/Users/stapi/OneDrive/Desktop/GD32VW553/V1_MQTT_OK/GD32VW55X_Wifi_BLE_SDK/GD32VW55x_RELEASE_V1.0.2/MSDK/plf/src\init_rom_symbol.c ****         mbedtls_ecp_point_read_string_fn = (void *)0x0bf72712;
 1142              		.loc 1 241 42 is_stmt 0
 1143 0802 370A0000 		lui	s4,%hi(.LANCHOR39)
 242:C:/Users/stapi/OneDrive/Desktop/GD32VW553/V1_MQTT_OK/GD32VW55X_Wifi_BLE_SDK/GD32VW55x_RELEASE_V1.0.2/MSDK/plf/src\init_rom_symbol.c ****         mbedtls_ecp_point_write_binary_fn = (void *)0x0bf72756;
 1144              		.loc 1 242 42
 1145 0806 13892671 		addi	s2,a3,1810
 241:C:/Users/stapi/OneDrive/Desktop/GD32VW553/V1_MQTT_OK/GD32VW55X_Wifi_BLE_SDK/GD32VW55x_RELEASE_V1.0.2/MSDK/plf/src\init_rom_symbol.c ****         mbedtls_ecp_point_read_string_fn = (void *)0x0bf72712;
 1146              		.loc 1 241 42
 1147 080a 23203A01 		sw	s3,%lo(.LANCHOR39)(s4)
 242:C:/Users/stapi/OneDrive/Desktop/GD32VW553/V1_MQTT_OK/GD32VW55X_Wifi_BLE_SDK/GD32VW55x_RELEASE_V1.0.2/MSDK/plf/src\init_rom_symbol.c ****         mbedtls_ecp_point_write_binary_fn = (void *)0x0bf72756;
 1148              		.loc 1 242 9 is_stmt 1
 242:C:/Users/stapi/OneDrive/Desktop/GD32VW553/V1_MQTT_OK/GD32VW55X_Wifi_BLE_SDK/GD32VW55x_RELEASE_V1.0.2/MSDK/plf/src\init_rom_symbol.c ****         mbedtls_ecp_point_write_binary_fn = (void *)0x0bf72756;
 1149              		.loc 1 242 42 is_stmt 0
 1150 080e B7090000 		lui	s3,%hi(.LANCHOR40)
 243:C:/Users/stapi/OneDrive/Desktop/GD32VW553/V1_MQTT_OK/GD32VW55X_Wifi_BLE_SDK/GD32VW55x_RELEASE_V1.0.2/MSDK/plf/src\init_rom_symbol.c ****         mbedtls_ecp_set_zero_fn = (void *)0x0bf71f86;
 1151              		.loc 1 243 43
 1152 0812 93846675 		addi	s1,a3,1878
 242:C:/Users/stapi/OneDrive/Desktop/GD32VW553/V1_MQTT_OK/GD32VW55X_Wifi_BLE_SDK/GD32VW55x_RELEASE_V1.0.2/MSDK/plf/src\init_rom_symbol.c ****         mbedtls_ecp_point_write_binary_fn = (void *)0x0bf72756;
 1153              		.loc 1 242 42
 1154 0816 23A02901 		sw	s2,%lo(.LANCHOR40)(s3)
 243:C:/Users/stapi/OneDrive/Desktop/GD32VW553/V1_MQTT_OK/GD32VW55X_Wifi_BLE_SDK/GD32VW55x_RELEASE_V1.0.2/MSDK/plf/src\init_rom_symbol.c ****         mbedtls_ecp_set_zero_fn = (void *)0x0bf71f86;
 1155              		.loc 1 243 9 is_stmt 1
 243:C:/Users/stapi/OneDrive/Desktop/GD32VW553/V1_MQTT_OK/GD32VW55X_Wifi_BLE_SDK/GD32VW55x_RELEASE_V1.0.2/MSDK/plf/src\init_rom_symbol.c ****         mbedtls_ecp_set_zero_fn = (void *)0x0bf71f86;
 1156              		.loc 1 243 43 is_stmt 0
 1157 081a 37090000 		lui	s2,%hi(.LANCHOR41)
 1158 081e 23209900 		sw	s1,%lo(.LANCHOR41)(s2)
 244:C:/Users/stapi/OneDrive/Desktop/GD32VW553/V1_MQTT_OK/GD32VW55X_Wifi_BLE_SDK/GD32VW55x_RELEASE_V1.0.2/MSDK/plf/src\init_rom_symbol.c ****         mbedtls_ecp_tls_read_group_fn = (void *)0x0bf72994;
 1159              		.loc 1 244 9 is_stmt 1
 244:C:/Users/stapi/OneDrive/Desktop/GD32VW553/V1_MQTT_OK/GD32VW55X_Wifi_BLE_SDK/GD32VW55x_RELEASE_V1.0.2/MSDK/plf/src\init_rom_symbol.c ****         mbedtls_ecp_tls_read_group_fn = (void *)0x0bf72994;
 1160              		.loc 1 244 33 is_stmt 0
 1161 0822 938666F8 		addi	a3,a3,-122
 1162 0826 B7040000 		lui	s1,%hi(.LANCHOR42)
 245:C:/Users/stapi/OneDrive/Desktop/GD32VW553/V1_MQTT_OK/GD32VW55X_Wifi_BLE_SDK/GD32VW55x_RELEASE_V1.0.2/MSDK/plf/src\init_rom_symbol.c ****         mbedtls_ecp_tls_read_group_id_fn = (void *)0x0bf7292c;
 1163              		.loc 1 245 39
 1164 082a 13044699 		addi	s0,a2,-1644
 244:C:/Users/stapi/OneDrive/Desktop/GD32VW553/V1_MQTT_OK/GD32VW55X_Wifi_BLE_SDK/GD32VW55x_RELEASE_V1.0.2/MSDK/plf/src\init_rom_symbol.c ****         mbedtls_ecp_tls_read_group_fn = (void *)0x0bf72994;
 1165              		.loc 1 244 33
 1166 082e 23A0D400 		sw	a3,%lo(.LANCHOR42)(s1)
 245:C:/Users/stapi/OneDrive/Desktop/GD32VW553/V1_MQTT_OK/GD32VW55X_Wifi_BLE_SDK/GD32VW55x_RELEASE_V1.0.2/MSDK/plf/src\init_rom_symbol.c ****         mbedtls_ecp_tls_read_group_id_fn = (void *)0x0bf7292c;
 1167              		.loc 1 245 9 is_stmt 1
 245:C:/Users/stapi/OneDrive/Desktop/GD32VW553/V1_MQTT_OK/GD32VW55X_Wifi_BLE_SDK/GD32VW55x_RELEASE_V1.0.2/MSDK/plf/src\init_rom_symbol.c ****         mbedtls_ecp_tls_read_group_id_fn = (void *)0x0bf7292c;
 1168              		.loc 1 245 39 is_stmt 0
 1169 0832 B7060000 		lui	a3,%hi(.LANCHOR43)
 246:C:/Users/stapi/OneDrive/Desktop/GD32VW553/V1_MQTT_OK/GD32VW55X_Wifi_BLE_SDK/GD32VW55x_RELEASE_V1.0.2/MSDK/plf/src\init_rom_symbol.c ****         mbedtls_ecp_tls_read_point_fn = (void *)0x0bf728c2;
 1170              		.loc 1 246 42
 1171 0836 9303C692 		addi	t2,a2,-1748
 245:C:/Users/stapi/OneDrive/Desktop/GD32VW553/V1_MQTT_OK/GD32VW55X_Wifi_BLE_SDK/GD32VW55x_RELEASE_V1.0.2/MSDK/plf/src\init_rom_symbol.c ****         mbedtls_ecp_tls_read_group_id_fn = (void *)0x0bf7292c;
 1172              		.loc 1 245 39
 1173 083a 23A08600 		sw	s0,%lo(.LANCHOR43)(a3)
 246:C:/Users/stapi/OneDrive/Desktop/GD32VW553/V1_MQTT_OK/GD32VW55X_Wifi_BLE_SDK/GD32VW55x_RELEASE_V1.0.2/MSDK/plf/src\init_rom_symbol.c ****         mbedtls_ecp_tls_read_point_fn = (void *)0x0bf728c2;
 1174              		.loc 1 246 9 is_stmt 1
 246:C:/Users/stapi/OneDrive/Desktop/GD32VW553/V1_MQTT_OK/GD32VW55X_Wifi_BLE_SDK/GD32VW55x_RELEASE_V1.0.2/MSDK/plf/src\init_rom_symbol.c ****         mbedtls_ecp_tls_read_point_fn = (void *)0x0bf728c2;
 1175              		.loc 1 246 42 is_stmt 0
 1176 083e B7060000 		lui	a3,%hi(.LANCHOR44)
 247:C:/Users/stapi/OneDrive/Desktop/GD32VW553/V1_MQTT_OK/GD32VW55X_Wifi_BLE_SDK/GD32VW55x_RELEASE_V1.0.2/MSDK/plf/src\init_rom_symbol.c ****         mbedtls_ecp_tls_write_group_fn = (void *)0x0bf729b4;
 1177              		.loc 1 247 39
 1178 0842 9302268C 		addi	t0,a2,-1854
 246:C:/Users/stapi/OneDrive/Desktop/GD32VW553/V1_MQTT_OK/GD32VW55X_Wifi_BLE_SDK/GD32VW55x_RELEASE_V1.0.2/MSDK/plf/src\init_rom_symbol.c ****         mbedtls_ecp_tls_read_point_fn = (void *)0x0bf728c2;
 1179              		.loc 1 246 42
 1180 0846 23A07600 		sw	t2,%lo(.LANCHOR44)(a3)
 247:C:/Users/stapi/OneDrive/Desktop/GD32VW553/V1_MQTT_OK/GD32VW55X_Wifi_BLE_SDK/GD32VW55x_RELEASE_V1.0.2/MSDK/plf/src\init_rom_symbol.c ****         mbedtls_ecp_tls_write_group_fn = (void *)0x0bf729b4;
 1181              		.loc 1 247 9 is_stmt 1
 247:C:/Users/stapi/OneDrive/Desktop/GD32VW553/V1_MQTT_OK/GD32VW55X_Wifi_BLE_SDK/GD32VW55x_RELEASE_V1.0.2/MSDK/plf/src\init_rom_symbol.c ****         mbedtls_ecp_tls_write_group_fn = (void *)0x0bf729b4;
 1182              		.loc 1 247 39 is_stmt 0
 1183 084a B7060000 		lui	a3,%hi(.LANCHOR45)
 248:C:/Users/stapi/OneDrive/Desktop/GD32VW553/V1_MQTT_OK/GD32VW55X_Wifi_BLE_SDK/GD32VW55x_RELEASE_V1.0.2/MSDK/plf/src\init_rom_symbol.c ****         mbedtls_ecp_tls_write_point_fn = (void *)0x0bf728f6;
 1184              		.loc 1 248 40
 1185 084e 930F469B 		addi	t6,a2,-1612
 247:C:/Users/stapi/OneDrive/Desktop/GD32VW553/V1_MQTT_OK/GD32VW55X_Wifi_BLE_SDK/GD32VW55x_RELEASE_V1.0.2/MSDK/plf/src\init_rom_symbol.c ****         mbedtls_ecp_tls_write_group_fn = (void *)0x0bf729b4;
 1186              		.loc 1 247 39
 1187 0852 23A05600 		sw	t0,%lo(.LANCHOR45)(a3)
 248:C:/Users/stapi/OneDrive/Desktop/GD32VW553/V1_MQTT_OK/GD32VW55X_Wifi_BLE_SDK/GD32VW55x_RELEASE_V1.0.2/MSDK/plf/src\init_rom_symbol.c ****         mbedtls_ecp_tls_write_point_fn = (void *)0x0bf728f6;
 1188              		.loc 1 248 9 is_stmt 1
 248:C:/Users/stapi/OneDrive/Desktop/GD32VW553/V1_MQTT_OK/GD32VW55X_Wifi_BLE_SDK/GD32VW55x_RELEASE_V1.0.2/MSDK/plf/src\init_rom_symbol.c ****         mbedtls_ecp_tls_write_point_fn = (void *)0x0bf728f6;
 1189              		.loc 1 248 40 is_stmt 0
 1190 0856 B7060000 		lui	a3,%hi(.LANCHOR46)
 250:C:/Users/stapi/OneDrive/Desktop/GD32VW553/V1_MQTT_OK/GD32VW55X_Wifi_BLE_SDK/GD32VW55x_RELEASE_V1.0.2/MSDK/plf/src\init_rom_symbol.c ****         mbedtls_internal_sha256_process_fn = (void *)0x0bf76312;
 1191              		.loc 1 250 41
 1192 085a B767F70B 		li	a5,200761344
 248:C:/Users/stapi/OneDrive/Desktop/GD32VW553/V1_MQTT_OK/GD32VW55X_Wifi_BLE_SDK/GD32VW55x_RELEASE_V1.0.2/MSDK/plf/src\init_rom_symbol.c ****         mbedtls_ecp_tls_write_point_fn = (void *)0x0bf728f6;
 1193              		.loc 1 248 40
 1194 085e 23A0F601 		sw	t6,%lo(.LANCHOR46)(a3)
 249:C:/Users/stapi/OneDrive/Desktop/GD32VW553/V1_MQTT_OK/GD32VW55X_Wifi_BLE_SDK/GD32VW55x_RELEASE_V1.0.2/MSDK/plf/src\init_rom_symbol.c ****         mbedtls_internal_md5_process_fn = (void *)0x0bf764d6;
 1195              		.loc 1 249 9 is_stmt 1
 249:C:/Users/stapi/OneDrive/Desktop/GD32VW553/V1_MQTT_OK/GD32VW55X_Wifi_BLE_SDK/GD32VW55x_RELEASE_V1.0.2/MSDK/plf/src\init_rom_symbol.c ****         mbedtls_internal_md5_process_fn = (void *)0x0bf764d6;
 1196              		.loc 1 249 40 is_stmt 0
 1197 0862 1306668F 		addi	a2,a2,-1802
 1198 0866 B7060000 		lui	a3,%hi(.LANCHOR47)
 250:C:/Users/stapi/OneDrive/Desktop/GD32VW553/V1_MQTT_OK/GD32VW55X_Wifi_BLE_SDK/GD32VW55x_RELEASE_V1.0.2/MSDK/plf/src\init_rom_symbol.c ****         mbedtls_internal_sha256_process_fn = (void *)0x0bf76312;
 1199              		.loc 1 250 41
 1200 086a 138F674D 		addi	t5,a5,1238
 249:C:/Users/stapi/OneDrive/Desktop/GD32VW553/V1_MQTT_OK/GD32VW55X_Wifi_BLE_SDK/GD32VW55x_RELEASE_V1.0.2/MSDK/plf/src\init_rom_symbol.c ****         mbedtls_internal_md5_process_fn = (void *)0x0bf764d6;
 1201              		.loc 1 249 40
 1202 086e 23A0C600 		sw	a2,%lo(.LANCHOR47)(a3)
 250:C:/Users/stapi/OneDrive/Desktop/GD32VW553/V1_MQTT_OK/GD32VW55X_Wifi_BLE_SDK/GD32VW55x_RELEASE_V1.0.2/MSDK/plf/src\init_rom_symbol.c ****         mbedtls_internal_sha256_process_fn = (void *)0x0bf76312;
 1203              		.loc 1 250 9 is_stmt 1
 250:C:/Users/stapi/OneDrive/Desktop/GD32VW553/V1_MQTT_OK/GD32VW55X_Wifi_BLE_SDK/GD32VW55x_RELEASE_V1.0.2/MSDK/plf/src\init_rom_symbol.c ****         mbedtls_internal_sha256_process_fn = (void *)0x0bf76312;
 1204              		.loc 1 250 41 is_stmt 0
 1205 0872 B7060000 		lui	a3,%hi(.LANCHOR48)
 251:C:/Users/stapi/OneDrive/Desktop/GD32VW553/V1_MQTT_OK/GD32VW55X_Wifi_BLE_SDK/GD32VW55x_RELEASE_V1.0.2/MSDK/plf/src\init_rom_symbol.c ****         mbedtls_md5_fn = (void *)0x0bf77352;
 1206              		.loc 1 251 44
 1207 0876 938E2731 		addi	t4,a5,786
 250:C:/Users/stapi/OneDrive/Desktop/GD32VW553/V1_MQTT_OK/GD32VW55X_Wifi_BLE_SDK/GD32VW55x_RELEASE_V1.0.2/MSDK/plf/src\init_rom_symbol.c ****         mbedtls_internal_sha256_process_fn = (void *)0x0bf76312;
 1208              		.loc 1 250 41
 1209 087a 23A0E601 		sw	t5,%lo(.LANCHOR48)(a3)
 251:C:/Users/stapi/OneDrive/Desktop/GD32VW553/V1_MQTT_OK/GD32VW55X_Wifi_BLE_SDK/GD32VW55x_RELEASE_V1.0.2/MSDK/plf/src\init_rom_symbol.c ****         mbedtls_md5_fn = (void *)0x0bf77352;
 1210              		.loc 1 251 9 is_stmt 1
 251:C:/Users/stapi/OneDrive/Desktop/GD32VW553/V1_MQTT_OK/GD32VW55X_Wifi_BLE_SDK/GD32VW55x_RELEASE_V1.0.2/MSDK/plf/src\init_rom_symbol.c ****         mbedtls_md5_fn = (void *)0x0bf77352;
 1211              		.loc 1 251 44 is_stmt 0
 1212 087e B7060000 		lui	a3,%hi(.LANCHOR49)
 1213 0882 23A0D601 		sw	t4,%lo(.LANCHOR49)(a3)
 252:C:/Users/stapi/OneDrive/Desktop/GD32VW553/V1_MQTT_OK/GD32VW55X_Wifi_BLE_SDK/GD32VW55x_RELEASE_V1.0.2/MSDK/plf/src\init_rom_symbol.c ****         mbedtls_md5_clone_fn = (void *)0x0bf76468;
 1214              		.loc 1 252 9 is_stmt 1
 252:C:/Users/stapi/OneDrive/Desktop/GD32VW553/V1_MQTT_OK/GD32VW55X_Wifi_BLE_SDK/GD32VW55x_RELEASE_V1.0.2/MSDK/plf/src\init_rom_symbol.c ****         mbedtls_md5_clone_fn = (void *)0x0bf76468;
 1215              		.loc 1 252 24 is_stmt 0
 1216 0886 B7060000 		lui	a3,%hi(.LANCHOR50)
 253:C:/Users/stapi/OneDrive/Desktop/GD32VW553/V1_MQTT_OK/GD32VW55X_Wifi_BLE_SDK/GD32VW55x_RELEASE_V1.0.2/MSDK/plf/src\init_rom_symbol.c ****         mbedtls_md5_finish_fn = (void *)0x0bf7731c;
 1217              		.loc 1 253 30
 1218 088a 13838746 		addi	t1,a5,1128
 252:C:/Users/stapi/OneDrive/Desktop/GD32VW553/V1_MQTT_OK/GD32VW55X_Wifi_BLE_SDK/GD32VW55x_RELEASE_V1.0.2/MSDK/plf/src\init_rom_symbol.c ****         mbedtls_md5_clone_fn = (void *)0x0bf76468;
 1219              		.loc 1 252 24
 1220 088e 23A0C601 		sw	t3,%lo(.LANCHOR50)(a3)
 253:C:/Users/stapi/OneDrive/Desktop/GD32VW553/V1_MQTT_OK/GD32VW55X_Wifi_BLE_SDK/GD32VW55x_RELEASE_V1.0.2/MSDK/plf/src\init_rom_symbol.c ****         mbedtls_md5_finish_fn = (void *)0x0bf7731c;
 1221              		.loc 1 253 9 is_stmt 1
 253:C:/Users/stapi/OneDrive/Desktop/GD32VW553/V1_MQTT_OK/GD32VW55X_Wifi_BLE_SDK/GD32VW55x_RELEASE_V1.0.2/MSDK/plf/src\init_rom_symbol.c ****         mbedtls_md5_finish_fn = (void *)0x0bf7731c;
 1222              		.loc 1 253 30 is_stmt 0
 1223 0892 B7060000 		lui	a3,%hi(.LANCHOR51)
 255:C:/Users/stapi/OneDrive/Desktop/GD32VW553/V1_MQTT_OK/GD32VW55X_Wifi_BLE_SDK/GD32VW55x_RELEASE_V1.0.2/MSDK/plf/src\init_rom_symbol.c ****         mbedtls_md5_free_fn = (void *)0x0bf7645c;
 1224              		.loc 1 255 35
 1225 0896 3774F70B 		li	s0,200765440
 253:C:/Users/stapi/OneDrive/Desktop/GD32VW553/V1_MQTT_OK/GD32VW55X_Wifi_BLE_SDK/GD32VW55x_RELEASE_V1.0.2/MSDK/plf/src\init_rom_symbol.c ****         mbedtls_md5_finish_fn = (void *)0x0bf7731c;
 1226              		.loc 1 253 30
 1227 089a 23A06600 		sw	t1,%lo(.LANCHOR51)(a3)
 254:C:/Users/stapi/OneDrive/Desktop/GD32VW553/V1_MQTT_OK/GD32VW55X_Wifi_BLE_SDK/GD32VW55x_RELEASE_V1.0.2/MSDK/plf/src\init_rom_symbol.c ****         mbedtls_md5_finish_ret_fn = (void *)0x0bf7721e;
 1228              		.loc 1 254 9 is_stmt 1
 254:C:/Users/stapi/OneDrive/Desktop/GD32VW553/V1_MQTT_OK/GD32VW55X_Wifi_BLE_SDK/GD32VW55x_RELEASE_V1.0.2/MSDK/plf/src\init_rom_symbol.c ****         mbedtls_md5_finish_ret_fn = (void *)0x0bf7721e;
 1229              		.loc 1 254 31 is_stmt 0
 1230 089e B7060000 		lui	a3,%hi(.LANCHOR52)
 1231 08a2 23A01601 		sw	a7,%lo(.LANCHOR52)(a3)
 255:C:/Users/stapi/OneDrive/Desktop/GD32VW553/V1_MQTT_OK/GD32VW55X_Wifi_BLE_SDK/GD32VW55x_RELEASE_V1.0.2/MSDK/plf/src\init_rom_symbol.c ****         mbedtls_md5_free_fn = (void *)0x0bf7645c;
 1232              		.loc 1 255 9 is_stmt 1
 255:C:/Users/stapi/OneDrive/Desktop/GD32VW553/V1_MQTT_OK/GD32VW55X_Wifi_BLE_SDK/GD32VW55x_RELEASE_V1.0.2/MSDK/plf/src\init_rom_symbol.c ****         mbedtls_md5_free_fn = (void *)0x0bf7645c;
 1233              		.loc 1 255 35 is_stmt 0
 1234 08a6 1306E421 		addi	a2,s0,542
 1235 08aa B7060000 		lui	a3,%hi(.LANCHOR53)
 1236 08ae 23A0C600 		sw	a2,%lo(.LANCHOR53)(a3)
 256:C:/Users/stapi/OneDrive/Desktop/GD32VW553/V1_MQTT_OK/GD32VW55X_Wifi_BLE_SDK/GD32VW55x_RELEASE_V1.0.2/MSDK/plf/src\init_rom_symbol.c ****         mbedtls_md5_init_fn = (void *)0x0bf76452;
 1237              		.loc 1 256 9 is_stmt 1
 256:C:/Users/stapi/OneDrive/Desktop/GD32VW553/V1_MQTT_OK/GD32VW55X_Wifi_BLE_SDK/GD32VW55x_RELEASE_V1.0.2/MSDK/plf/src\init_rom_symbol.c ****         mbedtls_md5_init_fn = (void *)0x0bf76452;
 1238              		.loc 1 256 29 is_stmt 0
 1239 08b2 3766F70B 		li	a2,200761344
 1240 08b6 9304C645 		addi	s1,a2,1116
 1241 08ba B7060000 		lui	a3,%hi(.LANCHOR54)
 1242 08be 23A09600 		sw	s1,%lo(.LANCHOR54)(a3)
 257:C:/Users/stapi/OneDrive/Desktop/GD32VW553/V1_MQTT_OK/GD32VW55X_Wifi_BLE_SDK/GD32VW55x_RELEASE_V1.0.2/MSDK/plf/src\init_rom_symbol.c ****         mbedtls_md5_process_fn = (void *)0x0bf77208;
 1243              		.loc 1 257 9 is_stmt 1
 257:C:/Users/stapi/OneDrive/Desktop/GD32VW553/V1_MQTT_OK/GD32VW55X_Wifi_BLE_SDK/GD32VW55x_RELEASE_V1.0.2/MSDK/plf/src\init_rom_symbol.c ****         mbedtls_md5_process_fn = (void *)0x0bf77208;
 1244              		.loc 1 257 29 is_stmt 0
 1245 08c2 93042645 		addi	s1,a2,1106
 1246 08c6 B7060000 		lui	a3,%hi(.LANCHOR55)
 1247 08ca 23A09600 		sw	s1,%lo(.LANCHOR55)(a3)
 258:C:/Users/stapi/OneDrive/Desktop/GD32VW553/V1_MQTT_OK/GD32VW55X_Wifi_BLE_SDK/GD32VW55x_RELEASE_V1.0.2/MSDK/plf/src\init_rom_symbol.c ****         mbedtls_md5_ret_fn = (void *)0x0bf77320;
 1248              		.loc 1 258 9 is_stmt 1
 258:C:/Users/stapi/OneDrive/Desktop/GD32VW553/V1_MQTT_OK/GD32VW55X_Wifi_BLE_SDK/GD32VW55x_RELEASE_V1.0.2/MSDK/plf/src\init_rom_symbol.c ****         mbedtls_md5_ret_fn = (void *)0x0bf77320;
 1249              		.loc 1 258 32 is_stmt 0
 1250 08ce 93048420 		addi	s1,s0,520
 1251 08d2 B7060000 		lui	a3,%hi(.LANCHOR56)
 1252 08d6 23A09600 		sw	s1,%lo(.LANCHOR56)(a3)
 259:C:/Users/stapi/OneDrive/Desktop/GD32VW553/V1_MQTT_OK/GD32VW55X_Wifi_BLE_SDK/GD32VW55x_RELEASE_V1.0.2/MSDK/plf/src\init_rom_symbol.c ****         mbedtls_md5_starts_fn = (void *)0x0bf764a4;
 1253              		.loc 1 259 9 is_stmt 1
 259:C:/Users/stapi/OneDrive/Desktop/GD32VW553/V1_MQTT_OK/GD32VW55X_Wifi_BLE_SDK/GD32VW55x_RELEASE_V1.0.2/MSDK/plf/src\init_rom_symbol.c ****         mbedtls_md5_starts_fn = (void *)0x0bf764a4;
 1254              		.loc 1 259 28 is_stmt 0
 1255 08da 93040432 		addi	s1,s0,800
 1256 08de B7060000 		lui	a3,%hi(.LANCHOR57)
 1257 08e2 23A09600 		sw	s1,%lo(.LANCHOR57)(a3)
 260:C:/Users/stapi/OneDrive/Desktop/GD32VW553/V1_MQTT_OK/GD32VW55X_Wifi_BLE_SDK/GD32VW55x_RELEASE_V1.0.2/MSDK/plf/src\init_rom_symbol.c ****         mbedtls_md5_starts_ret_fn = (void *)0x0bf76470;
 1258              		.loc 1 260 9 is_stmt 1
 260:C:/Users/stapi/OneDrive/Desktop/GD32VW553/V1_MQTT_OK/GD32VW55X_Wifi_BLE_SDK/GD32VW55x_RELEASE_V1.0.2/MSDK/plf/src\init_rom_symbol.c ****         mbedtls_md5_starts_ret_fn = (void *)0x0bf76470;
 1259              		.loc 1 260 31 is_stmt 0
 1260 08e6 9304464A 		addi	s1,a2,1188
 1261 08ea B7060000 		lui	a3,%hi(.LANCHOR58)
 263:C:/Users/stapi/OneDrive/Desktop/GD32VW553/V1_MQTT_OK/GD32VW55X_Wifi_BLE_SDK/GD32VW55x_RELEASE_V1.0.2/MSDK/plf/src\init_rom_symbol.c ****         mbedtls_mpi_div_int_fn = (void *)0x0bf6f1c6;
 1262              		.loc 1 263 35
 1263 08ee B24B     		lw	s7,12(sp)
 260:C:/Users/stapi/OneDrive/Desktop/GD32VW553/V1_MQTT_OK/GD32VW55X_Wifi_BLE_SDK/GD32VW55x_RELEASE_V1.0.2/MSDK/plf/src\init_rom_symbol.c ****         mbedtls_md5_starts_ret_fn = (void *)0x0bf76470;
 1264              		.loc 1 260 31
 1265 08f0 23A09600 		sw	s1,%lo(.LANCHOR58)(a3)
 261:C:/Users/stapi/OneDrive/Desktop/GD32VW553/V1_MQTT_OK/GD32VW55X_Wifi_BLE_SDK/GD32VW55x_RELEASE_V1.0.2/MSDK/plf/src\init_rom_symbol.c ****         mbedtls_md5_update_fn = (void *)0x0bf77216;
 1266              		.loc 1 261 9 is_stmt 1
 261:C:/Users/stapi/OneDrive/Desktop/GD32VW553/V1_MQTT_OK/GD32VW55X_Wifi_BLE_SDK/GD32VW55x_RELEASE_V1.0.2/MSDK/plf/src\init_rom_symbol.c ****         mbedtls_md5_update_fn = (void *)0x0bf77216;
 1267              		.loc 1 261 35 is_stmt 0
 1268 08f4 93040647 		addi	s1,a2,1136
 1269 08f8 B7060000 		lui	a3,%hi(.LANCHOR59)
 1270 08fc 23A09600 		sw	s1,%lo(.LANCHOR59)(a3)
 262:C:/Users/stapi/OneDrive/Desktop/GD32VW553/V1_MQTT_OK/GD32VW55X_Wifi_BLE_SDK/GD32VW55x_RELEASE_V1.0.2/MSDK/plf/src\init_rom_symbol.c ****         mbedtls_md5_update_ret_fn = (void *)0x0bf7720c;
 1271              		.loc 1 262 9 is_stmt 1
 262:C:/Users/stapi/OneDrive/Desktop/GD32VW553/V1_MQTT_OK/GD32VW55X_Wifi_BLE_SDK/GD32VW55x_RELEASE_V1.0.2/MSDK/plf/src\init_rom_symbol.c ****         mbedtls_md5_update_ret_fn = (void *)0x0bf7720c;
 1272              		.loc 1 262 31 is_stmt 0
 1273 0900 13046421 		addi	s0,s0,534
 1274 0904 B7060000 		lui	a3,%hi(.LANCHOR60)
 1275 0908 23A08600 		sw	s0,%lo(.LANCHOR60)(a3)
 263:C:/Users/stapi/OneDrive/Desktop/GD32VW553/V1_MQTT_OK/GD32VW55X_Wifi_BLE_SDK/GD32VW55x_RELEASE_V1.0.2/MSDK/plf/src\init_rom_symbol.c ****         mbedtls_mpi_div_int_fn = (void *)0x0bf6f1c6;
 1276              		.loc 1 263 9 is_stmt 1
 263:C:/Users/stapi/OneDrive/Desktop/GD32VW553/V1_MQTT_OK/GD32VW55X_Wifi_BLE_SDK/GD32VW55x_RELEASE_V1.0.2/MSDK/plf/src\init_rom_symbol.c ****         mbedtls_mpi_div_int_fn = (void *)0x0bf6f1c6;
 1277              		.loc 1 263 35 is_stmt 0
 1278 090c B7060000 		lui	a3,%hi(.LANCHOR61)
 264:C:/Users/stapi/OneDrive/Desktop/GD32VW553/V1_MQTT_OK/GD32VW55X_Wifi_BLE_SDK/GD32VW55x_RELEASE_V1.0.2/MSDK/plf/src\init_rom_symbol.c ****         mbedtls_mpi_div_mpi_fn = (void *)0x0bf6ecda;
 1279              		.loc 1 264 32
 1280 0910 37F4F60B 		li	s0,200732672
 1281 0914 37F5F60B 		li	a0,200732672
 263:C:/Users/stapi/OneDrive/Desktop/GD32VW553/V1_MQTT_OK/GD32VW55X_Wifi_BLE_SDK/GD32VW55x_RELEASE_V1.0.2/MSDK/plf/src\init_rom_symbol.c ****         mbedtls_mpi_div_int_fn = (void *)0x0bf6f1c6;
 1282              		.loc 1 263 35
 1283 0918 23A07601 		sw	s7,%lo(.LANCHOR61)(a3)
 264:C:/Users/stapi/OneDrive/Desktop/GD32VW553/V1_MQTT_OK/GD32VW55X_Wifi_BLE_SDK/GD32VW55x_RELEASE_V1.0.2/MSDK/plf/src\init_rom_symbol.c ****         mbedtls_mpi_div_mpi_fn = (void *)0x0bf6ecda;
 1284              		.loc 1 264 9 is_stmt 1
 264:C:/Users/stapi/OneDrive/Desktop/GD32VW553/V1_MQTT_OK/GD32VW55X_Wifi_BLE_SDK/GD32VW55x_RELEASE_V1.0.2/MSDK/plf/src\init_rom_symbol.c ****         mbedtls_mpi_div_mpi_fn = (void *)0x0bf6ecda;
 1285              		.loc 1 264 32 is_stmt 0
 1286 091c 9304641C 		addi	s1,s0,454
 1287 0920 B7060000 		lui	a3,%hi(.LANCHOR62)
 266:C:/Users/stapi/OneDrive/Desktop/GD32VW553/V1_MQTT_OK/GD32VW55X_Wifi_BLE_SDK/GD32VW55x_RELEASE_V1.0.2/MSDK/plf/src\init_rom_symbol.c ****         mbedtls_mpi_exp_mod_sw_fn = (void *)0x0bf6f508;
 1288              		.loc 1 266 32
 1289 0924 3708F70B 		li	a6,200736768
 264:C:/Users/stapi/OneDrive/Desktop/GD32VW553/V1_MQTT_OK/GD32VW55X_Wifi_BLE_SDK/GD32VW55x_RELEASE_V1.0.2/MSDK/plf/src\init_rom_symbol.c ****         mbedtls_mpi_div_mpi_fn = (void *)0x0bf6ecda;
 1290              		.loc 1 264 32
 1291 0928 23A09600 		sw	s1,%lo(.LANCHOR62)(a3)
 265:C:/Users/stapi/OneDrive/Desktop/GD32VW553/V1_MQTT_OK/GD32VW55X_Wifi_BLE_SDK/GD32VW55x_RELEASE_V1.0.2/MSDK/plf/src\init_rom_symbol.c ****         mbedtls_mpi_exp_mod_fn = (void *)0x0bf6fb18;
 1292              		.loc 1 265 9 is_stmt 1
 267:C:/Users/stapi/OneDrive/Desktop/GD32VW553/V1_MQTT_OK/GD32VW55X_Wifi_BLE_SDK/GD32VW55x_RELEASE_V1.0.2/MSDK/plf/src\init_rom_symbol.c ****         mbedtls_mpi_fill_random_fn = (void *)0x0bf6fe86;
 1293              		.loc 1 267 35 is_stmt 0
 1294 092c 130D8550 		addi	s10,a0,1288
 265:C:/Users/stapi/OneDrive/Desktop/GD32VW553/V1_MQTT_OK/GD32VW55X_Wifi_BLE_SDK/GD32VW55x_RELEASE_V1.0.2/MSDK/plf/src\init_rom_symbol.c ****         mbedtls_mpi_exp_mod_fn = (void *)0x0bf6fb18;
 1295              		.loc 1 265 32
 1296 0930 B7060000 		lui	a3,%hi(.LANCHOR63)
 1297 0934 1304A4CD 		addi	s0,s0,-806
 267:C:/Users/stapi/OneDrive/Desktop/GD32VW553/V1_MQTT_OK/GD32VW55X_Wifi_BLE_SDK/GD32VW55x_RELEASE_V1.0.2/MSDK/plf/src\init_rom_symbol.c ****         mbedtls_mpi_fill_random_fn = (void *)0x0bf6fe86;
 1298              		.loc 1 267 35
 1299 0938 B70D0000 		lui	s11,%hi(.LANCHOR65)
 265:C:/Users/stapi/OneDrive/Desktop/GD32VW553/V1_MQTT_OK/GD32VW55X_Wifi_BLE_SDK/GD32VW55x_RELEASE_V1.0.2/MSDK/plf/src\init_rom_symbol.c ****         mbedtls_mpi_exp_mod_fn = (void *)0x0bf6fb18;
 1300              		.loc 1 265 32
 1301 093c 23A08600 		sw	s0,%lo(.LANCHOR63)(a3)
 266:C:/Users/stapi/OneDrive/Desktop/GD32VW553/V1_MQTT_OK/GD32VW55X_Wifi_BLE_SDK/GD32VW55x_RELEASE_V1.0.2/MSDK/plf/src\init_rom_symbol.c ****         mbedtls_mpi_exp_mod_sw_fn = (void *)0x0bf6f508;
 1302              		.loc 1 266 9 is_stmt 1
 268:C:/Users/stapi/OneDrive/Desktop/GD32VW553/V1_MQTT_OK/GD32VW55X_Wifi_BLE_SDK/GD32VW55x_RELEASE_V1.0.2/MSDK/plf/src\init_rom_symbol.c ****         mbedtls_mpi_gcd_fn = (void *)0x0bf6fc8e;
 1303              		.loc 1 268 36 is_stmt 0
 1304 0940 930C68E8 		addi	s9,a6,-378
 267:C:/Users/stapi/OneDrive/Desktop/GD32VW553/V1_MQTT_OK/GD32VW55X_Wifi_BLE_SDK/GD32VW55x_RELEASE_V1.0.2/MSDK/plf/src\init_rom_symbol.c ****         mbedtls_mpi_fill_random_fn = (void *)0x0bf6fe86;
 1305              		.loc 1 267 35
 1306 0944 23A0AD01 		sw	s10,%lo(.LANCHOR65)(s11)
 268:C:/Users/stapi/OneDrive/Desktop/GD32VW553/V1_MQTT_OK/GD32VW55X_Wifi_BLE_SDK/GD32VW55x_RELEASE_V1.0.2/MSDK/plf/src\init_rom_symbol.c ****         mbedtls_mpi_gcd_fn = (void *)0x0bf6fc8e;
 1307              		.loc 1 268 36
 1308 0948 370D0000 		lui	s10,%hi(.LANCHOR66)
 269:C:/Users/stapi/OneDrive/Desktop/GD32VW553/V1_MQTT_OK/GD32VW55X_Wifi_BLE_SDK/GD32VW55x_RELEASE_V1.0.2/MSDK/plf/src\init_rom_symbol.c ****         mbedtls_mpi_gen_prime_fn = (void *)0x0bf70584;
 1309              		.loc 1 269 28
 1310 094c 130CE8C8 		addi	s8,a6,-882
 268:C:/Users/stapi/OneDrive/Desktop/GD32VW553/V1_MQTT_OK/GD32VW55X_Wifi_BLE_SDK/GD32VW55x_RELEASE_V1.0.2/MSDK/plf/src\init_rom_symbol.c ****         mbedtls_mpi_gcd_fn = (void *)0x0bf6fc8e;
 1311              		.loc 1 268 36
 1312 0950 23209D01 		sw	s9,%lo(.LANCHOR66)(s10)
 269:C:/Users/stapi/OneDrive/Desktop/GD32VW553/V1_MQTT_OK/GD32VW55X_Wifi_BLE_SDK/GD32VW55x_RELEASE_V1.0.2/MSDK/plf/src\init_rom_symbol.c ****         mbedtls_mpi_gen_prime_fn = (void *)0x0bf70584;
 1313              		.loc 1 269 28
 1314 0954 B70C0000 		lui	s9,%hi(.LANCHOR67)
 270:C:/Users/stapi/OneDrive/Desktop/GD32VW553/V1_MQTT_OK/GD32VW55X_Wifi_BLE_SDK/GD32VW55x_RELEASE_V1.0.2/MSDK/plf/src\init_rom_symbol.c ****         mbedtls_mpi_inv_mod_fn = (void *)0x0bf701b4;
 1315              		.loc 1 270 34
 1316 0958 930B4858 		addi	s7,a6,1412
 269:C:/Users/stapi/OneDrive/Desktop/GD32VW553/V1_MQTT_OK/GD32VW55X_Wifi_BLE_SDK/GD32VW55x_RELEASE_V1.0.2/MSDK/plf/src\init_rom_symbol.c ****         mbedtls_mpi_gen_prime_fn = (void *)0x0bf70584;
 1317              		.loc 1 269 28
 1318 095c 23A08C01 		sw	s8,%lo(.LANCHOR67)(s9)
 270:C:/Users/stapi/OneDrive/Desktop/GD32VW553/V1_MQTT_OK/GD32VW55X_Wifi_BLE_SDK/GD32VW55x_RELEASE_V1.0.2/MSDK/plf/src\init_rom_symbol.c ****         mbedtls_mpi_inv_mod_fn = (void *)0x0bf701b4;
 1319              		.loc 1 270 34
 1320 0960 370C0000 		lui	s8,%hi(.LANCHOR68)
 271:C:/Users/stapi/OneDrive/Desktop/GD32VW553/V1_MQTT_OK/GD32VW55X_Wifi_BLE_SDK/GD32VW55x_RELEASE_V1.0.2/MSDK/plf/src\init_rom_symbol.c ****         mbedtls_mpi_is_prime_fn = (void *)0x0bf70578   ;
 1321              		.loc 1 271 32
 1322 0964 130B481B 		addi	s6,a6,436
 270:C:/Users/stapi/OneDrive/Desktop/GD32VW553/V1_MQTT_OK/GD32VW55X_Wifi_BLE_SDK/GD32VW55x_RELEASE_V1.0.2/MSDK/plf/src\init_rom_symbol.c ****         mbedtls_mpi_inv_mod_fn = (void *)0x0bf701b4;
 1323              		.loc 1 270 34
 1324 0968 23207C01 		sw	s7,%lo(.LANCHOR68)(s8)
 271:C:/Users/stapi/OneDrive/Desktop/GD32VW553/V1_MQTT_OK/GD32VW55X_Wifi_BLE_SDK/GD32VW55x_RELEASE_V1.0.2/MSDK/plf/src\init_rom_symbol.c ****         mbedtls_mpi_is_prime_fn = (void *)0x0bf70578   ;
 1325              		.loc 1 271 32
 1326 096c B70B0000 		lui	s7,%hi(.LANCHOR69)
 272:C:/Users/stapi/OneDrive/Desktop/GD32VW553/V1_MQTT_OK/GD32VW55X_Wifi_BLE_SDK/GD32VW55x_RELEASE_V1.0.2/MSDK/plf/src\init_rom_symbol.c ****         mbedtls_mpi_is_prime_ext_fn = (void *)0x0bf704d6;
 1327              		.loc 1 272 33
 1328 0970 930A8857 		addi	s5,a6,1400
 271:C:/Users/stapi/OneDrive/Desktop/GD32VW553/V1_MQTT_OK/GD32VW55X_Wifi_BLE_SDK/GD32VW55x_RELEASE_V1.0.2/MSDK/plf/src\init_rom_symbol.c ****         mbedtls_mpi_is_prime_fn = (void *)0x0bf70578   ;
 1329              		.loc 1 271 32
 1330 0974 23A06B01 		sw	s6,%lo(.LANCHOR69)(s7)
 272:C:/Users/stapi/OneDrive/Desktop/GD32VW553/V1_MQTT_OK/GD32VW55X_Wifi_BLE_SDK/GD32VW55x_RELEASE_V1.0.2/MSDK/plf/src\init_rom_symbol.c ****         mbedtls_mpi_is_prime_ext_fn = (void *)0x0bf704d6;
 1331              		.loc 1 272 33
 1332 0978 370B0000 		lui	s6,%hi(.LANCHOR70)
 1333 097c 23205B01 		sw	s5,%lo(.LANCHOR70)(s6)
 273:C:/Users/stapi/OneDrive/Desktop/GD32VW553/V1_MQTT_OK/GD32VW55X_Wifi_BLE_SDK/GD32VW55x_RELEASE_V1.0.2/MSDK/plf/src\init_rom_symbol.c ****         mbedtls_mpi_mod_int_fn = (void *)0x0bf6f28c;
 1334              		.loc 1 273 37
 1335 0980 1308684D 		addi	a6,a6,1238
 1336 0984 B70A0000 		lui	s5,%hi(.LANCHOR71)
 274:C:/Users/stapi/OneDrive/Desktop/GD32VW553/V1_MQTT_OK/GD32VW55X_Wifi_BLE_SDK/GD32VW55x_RELEASE_V1.0.2/MSDK/plf/src\init_rom_symbol.c ****         mbedtls_mpi_mod_mpi_fn = (void *)0x0bf6f1f0;
 1337              		.loc 1 274 32
 1338 0988 130AC528 		addi	s4,a0,652
 273:C:/Users/stapi/OneDrive/Desktop/GD32VW553/V1_MQTT_OK/GD32VW55X_Wifi_BLE_SDK/GD32VW55x_RELEASE_V1.0.2/MSDK/plf/src\init_rom_symbol.c ****         mbedtls_mpi_mod_int_fn = (void *)0x0bf6f28c;
 1339              		.loc 1 273 37
 1340 098c 23A00A01 		sw	a6,%lo(.LANCHOR71)(s5)
 274:C:/Users/stapi/OneDrive/Desktop/GD32VW553/V1_MQTT_OK/GD32VW55X_Wifi_BLE_SDK/GD32VW55x_RELEASE_V1.0.2/MSDK/plf/src\init_rom_symbol.c ****         mbedtls_mpi_mod_mpi_fn = (void *)0x0bf6f1f0;
 1341              		.loc 1 274 32
 1342 0990 37080000 		lui	a6,%hi(.LANCHOR72)
 275:C:/Users/stapi/OneDrive/Desktop/GD32VW553/V1_MQTT_OK/GD32VW55X_Wifi_BLE_SDK/GD32VW55x_RELEASE_V1.0.2/MSDK/plf/src\init_rom_symbol.c ****         mbedtls_mpi_mul_int_fn = (void *)0x0bf6ecc0;
 1343              		.loc 1 275 32
 1344 0994 9309051F 		addi	s3,a0,496
 274:C:/Users/stapi/OneDrive/Desktop/GD32VW553/V1_MQTT_OK/GD32VW55X_Wifi_BLE_SDK/GD32VW55x_RELEASE_V1.0.2/MSDK/plf/src\init_rom_symbol.c ****         mbedtls_mpi_mod_mpi_fn = (void *)0x0bf6f1f0;
 1345              		.loc 1 274 32
 1346 0998 23204801 		sw	s4,%lo(.LANCHOR72)(a6)
 275:C:/Users/stapi/OneDrive/Desktop/GD32VW553/V1_MQTT_OK/GD32VW55X_Wifi_BLE_SDK/GD32VW55x_RELEASE_V1.0.2/MSDK/plf/src\init_rom_symbol.c ****         mbedtls_mpi_mul_int_fn = (void *)0x0bf6ecc0;
 1347              		.loc 1 275 32
 1348 099c 37080000 		lui	a6,%hi(.LANCHOR73)
 276:C:/Users/stapi/OneDrive/Desktop/GD32VW553/V1_MQTT_OK/GD32VW55X_Wifi_BLE_SDK/GD32VW55x_RELEASE_V1.0.2/MSDK/plf/src\init_rom_symbol.c ****         mbedtls_mpi_mul_mpi_fn = (void *)0x0bf6ea92;
 1349              		.loc 1 276 32
 1350 09a0 130905CC 		addi	s2,a0,-832
 275:C:/Users/stapi/OneDrive/Desktop/GD32VW553/V1_MQTT_OK/GD32VW55X_Wifi_BLE_SDK/GD32VW55x_RELEASE_V1.0.2/MSDK/plf/src\init_rom_symbol.c ****         mbedtls_mpi_mul_int_fn = (void *)0x0bf6ecc0;
 1351              		.loc 1 275 32
 1352 09a4 23203801 		sw	s3,%lo(.LANCHOR73)(a6)
 266:C:/Users/stapi/OneDrive/Desktop/GD32VW553/V1_MQTT_OK/GD32VW55X_Wifi_BLE_SDK/GD32VW55x_RELEASE_V1.0.2/MSDK/plf/src\init_rom_symbol.c ****         mbedtls_mpi_exp_mod_sw_fn = (void *)0x0bf6f508;
 1353              		.loc 1 266 32
 1354 09a8 3704F70B 		li	s0,200736768
 276:C:/Users/stapi/OneDrive/Desktop/GD32VW553/V1_MQTT_OK/GD32VW55X_Wifi_BLE_SDK/GD32VW55x_RELEASE_V1.0.2/MSDK/plf/src\init_rom_symbol.c ****         mbedtls_mpi_mul_mpi_fn = (void *)0x0bf6ea92;
 1355              		.loc 1 276 32
 1356 09ac 37080000 		lui	a6,%hi(.LANCHOR74)
 277:C:/Users/stapi/OneDrive/Desktop/GD32VW553/V1_MQTT_OK/GD32VW55X_Wifi_BLE_SDK/GD32VW55x_RELEASE_V1.0.2/MSDK/plf/src\init_rom_symbol.c ****         mbedtls_mpi_read_string_fn = (void *)0x0bf6eaa8;
 1357              		.loc 1 277 32
 1358 09b0 930425A9 		addi	s1,a0,-1390
 276:C:/Users/stapi/OneDrive/Desktop/GD32VW553/V1_MQTT_OK/GD32VW55X_Wifi_BLE_SDK/GD32VW55x_RELEASE_V1.0.2/MSDK/plf/src\init_rom_symbol.c ****         mbedtls_mpi_mul_mpi_fn = (void *)0x0bf6ea92;
 1359              		.loc 1 276 32
 1360 09b4 23202801 		sw	s2,%lo(.LANCHOR74)(a6)
 266:C:/Users/stapi/OneDrive/Desktop/GD32VW553/V1_MQTT_OK/GD32VW55X_Wifi_BLE_SDK/GD32VW55x_RELEASE_V1.0.2/MSDK/plf/src\init_rom_symbol.c ****         mbedtls_mpi_exp_mod_sw_fn = (void *)0x0bf6f508;
 1361              		.loc 1 266 32
 1362 09b8 B7060000 		lui	a3,%hi(.LANCHOR64)
 1363 09bc 130484B1 		addi	s0,s0,-1256
 277:C:/Users/stapi/OneDrive/Desktop/GD32VW553/V1_MQTT_OK/GD32VW55X_Wifi_BLE_SDK/GD32VW55x_RELEASE_V1.0.2/MSDK/plf/src\init_rom_symbol.c ****         mbedtls_mpi_read_string_fn = (void *)0x0bf6eaa8;
 1364              		.loc 1 277 32
 1365 09c0 37080000 		lui	a6,%hi(.LANCHOR75)
 266:C:/Users/stapi/OneDrive/Desktop/GD32VW553/V1_MQTT_OK/GD32VW55X_Wifi_BLE_SDK/GD32VW55x_RELEASE_V1.0.2/MSDK/plf/src\init_rom_symbol.c ****         mbedtls_mpi_exp_mod_sw_fn = (void *)0x0bf6f508;
 1366              		.loc 1 266 32
 1367 09c4 23A08600 		sw	s0,%lo(.LANCHOR64)(a3)
 267:C:/Users/stapi/OneDrive/Desktop/GD32VW553/V1_MQTT_OK/GD32VW55X_Wifi_BLE_SDK/GD32VW55x_RELEASE_V1.0.2/MSDK/plf/src\init_rom_symbol.c ****         mbedtls_mpi_fill_random_fn = (void *)0x0bf6fe86;
 1368              		.loc 1 267 9 is_stmt 1
 268:C:/Users/stapi/OneDrive/Desktop/GD32VW553/V1_MQTT_OK/GD32VW55X_Wifi_BLE_SDK/GD32VW55x_RELEASE_V1.0.2/MSDK/plf/src\init_rom_symbol.c ****         mbedtls_mpi_gcd_fn = (void *)0x0bf6fc8e;
 1369              		.loc 1 268 9
 269:C:/Users/stapi/OneDrive/Desktop/GD32VW553/V1_MQTT_OK/GD32VW55X_Wifi_BLE_SDK/GD32VW55x_RELEASE_V1.0.2/MSDK/plf/src\init_rom_symbol.c ****         mbedtls_mpi_gen_prime_fn = (void *)0x0bf70584;
 1370              		.loc 1 269 9
 270:C:/Users/stapi/OneDrive/Desktop/GD32VW553/V1_MQTT_OK/GD32VW55X_Wifi_BLE_SDK/GD32VW55x_RELEASE_V1.0.2/MSDK/plf/src\init_rom_symbol.c ****         mbedtls_mpi_inv_mod_fn = (void *)0x0bf701b4;
 1371              		.loc 1 270 9
 271:C:/Users/stapi/OneDrive/Desktop/GD32VW553/V1_MQTT_OK/GD32VW55X_Wifi_BLE_SDK/GD32VW55x_RELEASE_V1.0.2/MSDK/plf/src\init_rom_symbol.c ****         mbedtls_mpi_is_prime_fn = (void *)0x0bf70578   ;
 1372              		.loc 1 271 9
 272:C:/Users/stapi/OneDrive/Desktop/GD32VW553/V1_MQTT_OK/GD32VW55X_Wifi_BLE_SDK/GD32VW55x_RELEASE_V1.0.2/MSDK/plf/src\init_rom_symbol.c ****         mbedtls_mpi_is_prime_ext_fn = (void *)0x0bf704d6;
 1373              		.loc 1 272 9
 273:C:/Users/stapi/OneDrive/Desktop/GD32VW553/V1_MQTT_OK/GD32VW55X_Wifi_BLE_SDK/GD32VW55x_RELEASE_V1.0.2/MSDK/plf/src\init_rom_symbol.c ****         mbedtls_mpi_mod_int_fn = (void *)0x0bf6f28c;
 1374              		.loc 1 273 9
 274:C:/Users/stapi/OneDrive/Desktop/GD32VW553/V1_MQTT_OK/GD32VW55X_Wifi_BLE_SDK/GD32VW55x_RELEASE_V1.0.2/MSDK/plf/src\init_rom_symbol.c ****         mbedtls_mpi_mod_mpi_fn = (void *)0x0bf6f1f0;
 1375              		.loc 1 274 9
 275:C:/Users/stapi/OneDrive/Desktop/GD32VW553/V1_MQTT_OK/GD32VW55X_Wifi_BLE_SDK/GD32VW55x_RELEASE_V1.0.2/MSDK/plf/src\init_rom_symbol.c ****         mbedtls_mpi_mul_int_fn = (void *)0x0bf6ecc0;
 1376              		.loc 1 275 9
 276:C:/Users/stapi/OneDrive/Desktop/GD32VW553/V1_MQTT_OK/GD32VW55X_Wifi_BLE_SDK/GD32VW55x_RELEASE_V1.0.2/MSDK/plf/src\init_rom_symbol.c ****         mbedtls_mpi_mul_mpi_fn = (void *)0x0bf6ea92;
 1377              		.loc 1 276 9
 277:C:/Users/stapi/OneDrive/Desktop/GD32VW553/V1_MQTT_OK/GD32VW55X_Wifi_BLE_SDK/GD32VW55x_RELEASE_V1.0.2/MSDK/plf/src\init_rom_symbol.c ****         mbedtls_mpi_read_string_fn = (void *)0x0bf6eaa8;
 1378              		.loc 1 277 9
 277:C:/Users/stapi/OneDrive/Desktop/GD32VW553/V1_MQTT_OK/GD32VW55X_Wifi_BLE_SDK/GD32VW55x_RELEASE_V1.0.2/MSDK/plf/src\init_rom_symbol.c ****         mbedtls_mpi_read_string_fn = (void *)0x0bf6eaa8;
 1379              		.loc 1 277 32 is_stmt 0
 1380 09c8 23209800 		sw	s1,%lo(.LANCHOR75)(a6)
 278:C:/Users/stapi/OneDrive/Desktop/GD32VW553/V1_MQTT_OK/GD32VW55X_Wifi_BLE_SDK/GD32VW55x_RELEASE_V1.0.2/MSDK/plf/src\init_rom_symbol.c ****         mbedtls_mpi_write_string_fn = (void *)0x0bf6f2c0;
 1381              		.loc 1 278 9 is_stmt 1
 278:C:/Users/stapi/OneDrive/Desktop/GD32VW553/V1_MQTT_OK/GD32VW55X_Wifi_BLE_SDK/GD32VW55x_RELEASE_V1.0.2/MSDK/plf/src\init_rom_symbol.c ****         mbedtls_mpi_write_string_fn = (void *)0x0bf6f2c0;
 1382              		.loc 1 278 36 is_stmt 0
 1383 09cc 130485AA 		addi	s0,a0,-1368
 1384 09d0 37080000 		lui	a6,%hi(.LANCHOR76)
 1385 09d4 23208800 		sw	s0,%lo(.LANCHOR76)(a6)
 279:C:/Users/stapi/OneDrive/Desktop/GD32VW553/V1_MQTT_OK/GD32VW55X_Wifi_BLE_SDK/GD32VW55x_RELEASE_V1.0.2/MSDK/plf/src\init_rom_symbol.c ****         mbedtls_rsa_check_privkey_fn = (void *)0x0bf74536;
 1386              		.loc 1 279 9 is_stmt 1
 279:C:/Users/stapi/OneDrive/Desktop/GD32VW553/V1_MQTT_OK/GD32VW55X_Wifi_BLE_SDK/GD32VW55x_RELEASE_V1.0.2/MSDK/plf/src\init_rom_symbol.c ****         mbedtls_rsa_check_privkey_fn = (void *)0x0bf74536;
 1387              		.loc 1 279 37 is_stmt 0
 1388 09d8 1305052C 		addi	a0,a0,704
 1389 09dc 37080000 		lui	a6,%hi(.LANCHOR77)
 280:C:/Users/stapi/OneDrive/Desktop/GD32VW553/V1_MQTT_OK/GD32VW55X_Wifi_BLE_SDK/GD32VW55x_RELEASE_V1.0.2/MSDK/plf/src\init_rom_symbol.c ****         mbedtls_rsa_check_pub_priv_fn = (void *)0x0bf747cc;
 1390              		.loc 1 280 38
 1391 09e0 93036753 		addi	t2,a4,1334
 279:C:/Users/stapi/OneDrive/Desktop/GD32VW553/V1_MQTT_OK/GD32VW55X_Wifi_BLE_SDK/GD32VW55x_RELEASE_V1.0.2/MSDK/plf/src\init_rom_symbol.c ****         mbedtls_rsa_check_privkey_fn = (void *)0x0bf74536;
 1392              		.loc 1 279 37
 1393 09e4 2320A800 		sw	a0,%lo(.LANCHOR77)(a6)
 280:C:/Users/stapi/OneDrive/Desktop/GD32VW553/V1_MQTT_OK/GD32VW55X_Wifi_BLE_SDK/GD32VW55x_RELEASE_V1.0.2/MSDK/plf/src\init_rom_symbol.c ****         mbedtls_rsa_check_pub_priv_fn = (void *)0x0bf747cc;
 1394              		.loc 1 280 9 is_stmt 1
 280:C:/Users/stapi/OneDrive/Desktop/GD32VW553/V1_MQTT_OK/GD32VW55X_Wifi_BLE_SDK/GD32VW55x_RELEASE_V1.0.2/MSDK/plf/src\init_rom_symbol.c ****         mbedtls_rsa_check_pub_priv_fn = (void *)0x0bf747cc;
 1395              		.loc 1 280 38 is_stmt 0
 1396 09e8 37050000 		lui	a0,%hi(.LANCHOR78)
 281:C:/Users/stapi/OneDrive/Desktop/GD32VW553/V1_MQTT_OK/GD32VW55X_Wifi_BLE_SDK/GD32VW55x_RELEASE_V1.0.2/MSDK/plf/src\init_rom_symbol.c ****         mbedtls_rsa_check_pubkey_fn = (void *)0x0bf744d4;
 1397              		.loc 1 281 39
 1398 09ec 9302C77C 		addi	t0,a4,1996
 280:C:/Users/stapi/OneDrive/Desktop/GD32VW553/V1_MQTT_OK/GD32VW55X_Wifi_BLE_SDK/GD32VW55x_RELEASE_V1.0.2/MSDK/plf/src\init_rom_symbol.c ****         mbedtls_rsa_check_pub_priv_fn = (void *)0x0bf747cc;
 1399              		.loc 1 280 38
 1400 09f0 23207500 		sw	t2,%lo(.LANCHOR78)(a0)
 281:C:/Users/stapi/OneDrive/Desktop/GD32VW553/V1_MQTT_OK/GD32VW55X_Wifi_BLE_SDK/GD32VW55x_RELEASE_V1.0.2/MSDK/plf/src\init_rom_symbol.c ****         mbedtls_rsa_check_pubkey_fn = (void *)0x0bf744d4;
 1401              		.loc 1 281 9 is_stmt 1
 281:C:/Users/stapi/OneDrive/Desktop/GD32VW553/V1_MQTT_OK/GD32VW55X_Wifi_BLE_SDK/GD32VW55x_RELEASE_V1.0.2/MSDK/plf/src\init_rom_symbol.c ****         mbedtls_rsa_check_pubkey_fn = (void *)0x0bf744d4;
 1402              		.loc 1 281 39 is_stmt 0
 1403 09f4 37050000 		lui	a0,%hi(.LANCHOR79)
 282:C:/Users/stapi/OneDrive/Desktop/GD32VW553/V1_MQTT_OK/GD32VW55X_Wifi_BLE_SDK/GD32VW55x_RELEASE_V1.0.2/MSDK/plf/src\init_rom_symbol.c ****         mbedtls_rsa_complete_fn = (void *)0x0bf74054;
 1404              		.loc 1 282 37
 1405 09f8 930F474D 		addi	t6,a4,1236
 281:C:/Users/stapi/OneDrive/Desktop/GD32VW553/V1_MQTT_OK/GD32VW55X_Wifi_BLE_SDK/GD32VW55x_RELEASE_V1.0.2/MSDK/plf/src\init_rom_symbol.c ****         mbedtls_rsa_check_pubkey_fn = (void *)0x0bf744d4;
 1406              		.loc 1 281 39
 1407 09fc 23205500 		sw	t0,%lo(.LANCHOR79)(a0)
 282:C:/Users/stapi/OneDrive/Desktop/GD32VW553/V1_MQTT_OK/GD32VW55X_Wifi_BLE_SDK/GD32VW55x_RELEASE_V1.0.2/MSDK/plf/src\init_rom_symbol.c ****         mbedtls_rsa_complete_fn = (void *)0x0bf74054;
 1408              		.loc 1 282 9 is_stmt 1
 282:C:/Users/stapi/OneDrive/Desktop/GD32VW553/V1_MQTT_OK/GD32VW55X_Wifi_BLE_SDK/GD32VW55x_RELEASE_V1.0.2/MSDK/plf/src\init_rom_symbol.c ****         mbedtls_rsa_complete_fn = (void *)0x0bf74054;
 1409              		.loc 1 282 37 is_stmt 0
 1410 0a00 37050000 		lui	a0,%hi(.LANCHOR80)
 283:C:/Users/stapi/OneDrive/Desktop/GD32VW553/V1_MQTT_OK/GD32VW55X_Wifi_BLE_SDK/GD32VW55x_RELEASE_V1.0.2/MSDK/plf/src\init_rom_symbol.c ****         mbedtls_rsa_copy_fn = (void *)0x0bf75cf6;
 1411              		.loc 1 283 33
 1412 0a04 130F4705 		addi	t5,a4,84
 282:C:/Users/stapi/OneDrive/Desktop/GD32VW553/V1_MQTT_OK/GD32VW55X_Wifi_BLE_SDK/GD32VW55x_RELEASE_V1.0.2/MSDK/plf/src\init_rom_symbol.c ****         mbedtls_rsa_complete_fn = (void *)0x0bf74054;
 1413              		.loc 1 282 37
 1414 0a08 2320F501 		sw	t6,%lo(.LANCHOR80)(a0)
 283:C:/Users/stapi/OneDrive/Desktop/GD32VW553/V1_MQTT_OK/GD32VW55X_Wifi_BLE_SDK/GD32VW55x_RELEASE_V1.0.2/MSDK/plf/src\init_rom_symbol.c ****         mbedtls_rsa_copy_fn = (void *)0x0bf75cf6;
 1415              		.loc 1 283 9 is_stmt 1
 283:C:/Users/stapi/OneDrive/Desktop/GD32VW553/V1_MQTT_OK/GD32VW55X_Wifi_BLE_SDK/GD32VW55x_RELEASE_V1.0.2/MSDK/plf/src\init_rom_symbol.c ****         mbedtls_rsa_copy_fn = (void *)0x0bf75cf6;
 1416              		.loc 1 283 33 is_stmt 0
 1417 0a0c 37050000 		lui	a0,%hi(.LANCHOR81)
 284:C:/Users/stapi/OneDrive/Desktop/GD32VW553/V1_MQTT_OK/GD32VW55X_Wifi_BLE_SDK/GD32VW55x_RELEASE_V1.0.2/MSDK/plf/src\init_rom_symbol.c ****         mbedtls_rsa_export_fn = (void *)0x0bf742ec;
 1418              		.loc 1 284 29
 1419 0a10 938E67CF 		addi	t4,a5,-778
 283:C:/Users/stapi/OneDrive/Desktop/GD32VW553/V1_MQTT_OK/GD32VW55X_Wifi_BLE_SDK/GD32VW55x_RELEASE_V1.0.2/MSDK/plf/src\init_rom_symbol.c ****         mbedtls_rsa_copy_fn = (void *)0x0bf75cf6;
 1420              		.loc 1 283 33
 1421 0a14 2320E501 		sw	t5,%lo(.LANCHOR81)(a0)
 284:C:/Users/stapi/OneDrive/Desktop/GD32VW553/V1_MQTT_OK/GD32VW55X_Wifi_BLE_SDK/GD32VW55x_RELEASE_V1.0.2/MSDK/plf/src\init_rom_symbol.c ****         mbedtls_rsa_export_fn = (void *)0x0bf742ec;
 1422              		.loc 1 284 9 is_stmt 1
 284:C:/Users/stapi/OneDrive/Desktop/GD32VW553/V1_MQTT_OK/GD32VW55X_Wifi_BLE_SDK/GD32VW55x_RELEASE_V1.0.2/MSDK/plf/src\init_rom_symbol.c ****         mbedtls_rsa_export_fn = (void *)0x0bf742ec;
 1423              		.loc 1 284 29 is_stmt 0
 1424 0a18 37050000 		lui	a0,%hi(.LANCHOR82)
 285:C:/Users/stapi/OneDrive/Desktop/GD32VW553/V1_MQTT_OK/GD32VW55X_Wifi_BLE_SDK/GD32VW55x_RELEASE_V1.0.2/MSDK/plf/src\init_rom_symbol.c ****         mbedtls_rsa_export_crt_fn = (void *)0x0bf743ee;
 1425              		.loc 1 285 31
 1426 0a1c 130EC72E 		addi	t3,a4,748
 284:C:/Users/stapi/OneDrive/Desktop/GD32VW553/V1_MQTT_OK/GD32VW55X_Wifi_BLE_SDK/GD32VW55x_RELEASE_V1.0.2/MSDK/plf/src\init_rom_symbol.c ****         mbedtls_rsa_export_fn = (void *)0x0bf742ec;
 1427              		.loc 1 284 29
 1428 0a20 2320D501 		sw	t4,%lo(.LANCHOR82)(a0)
 285:C:/Users/stapi/OneDrive/Desktop/GD32VW553/V1_MQTT_OK/GD32VW55X_Wifi_BLE_SDK/GD32VW55x_RELEASE_V1.0.2/MSDK/plf/src\init_rom_symbol.c ****         mbedtls_rsa_export_crt_fn = (void *)0x0bf743ee;
 1429              		.loc 1 285 9 is_stmt 1
 285:C:/Users/stapi/OneDrive/Desktop/GD32VW553/V1_MQTT_OK/GD32VW55X_Wifi_BLE_SDK/GD32VW55x_RELEASE_V1.0.2/MSDK/plf/src\init_rom_symbol.c ****         mbedtls_rsa_export_crt_fn = (void *)0x0bf743ee;
 1430              		.loc 1 285 31 is_stmt 0
 1431 0a24 37050000 		lui	a0,%hi(.LANCHOR83)
 286:C:/Users/stapi/OneDrive/Desktop/GD32VW553/V1_MQTT_OK/GD32VW55X_Wifi_BLE_SDK/GD32VW55x_RELEASE_V1.0.2/MSDK/plf/src\init_rom_symbol.c ****         mbedtls_rsa_export_raw_fn = (void *)0x0bf741b4;
 1432              		.loc 1 286 35
 1433 0a28 1303E73E 		addi	t1,a4,1006
 285:C:/Users/stapi/OneDrive/Desktop/GD32VW553/V1_MQTT_OK/GD32VW55X_Wifi_BLE_SDK/GD32VW55x_RELEASE_V1.0.2/MSDK/plf/src\init_rom_symbol.c ****         mbedtls_rsa_export_crt_fn = (void *)0x0bf743ee;
 1434              		.loc 1 285 31
 1435 0a2c 2320C501 		sw	t3,%lo(.LANCHOR83)(a0)
 286:C:/Users/stapi/OneDrive/Desktop/GD32VW553/V1_MQTT_OK/GD32VW55X_Wifi_BLE_SDK/GD32VW55x_RELEASE_V1.0.2/MSDK/plf/src\init_rom_symbol.c ****         mbedtls_rsa_export_raw_fn = (void *)0x0bf741b4;
 1436              		.loc 1 286 9 is_stmt 1
 286:C:/Users/stapi/OneDrive/Desktop/GD32VW553/V1_MQTT_OK/GD32VW55X_Wifi_BLE_SDK/GD32VW55x_RELEASE_V1.0.2/MSDK/plf/src\init_rom_symbol.c ****         mbedtls_rsa_export_raw_fn = (void *)0x0bf741b4;
 1437              		.loc 1 286 35 is_stmt 0
 1438 0a30 37050000 		lui	a0,%hi(.LANCHOR84)
 287:C:/Users/stapi/OneDrive/Desktop/GD32VW553/V1_MQTT_OK/GD32VW55X_Wifi_BLE_SDK/GD32VW55x_RELEASE_V1.0.2/MSDK/plf/src\init_rom_symbol.c ****         mbedtls_rsa_free_fn = (void *)0x0bf75e00;
 1439              		.loc 1 287 35
 1440 0a34 9308471B 		addi	a7,a4,436
 286:C:/Users/stapi/OneDrive/Desktop/GD32VW553/V1_MQTT_OK/GD32VW55X_Wifi_BLE_SDK/GD32VW55x_RELEASE_V1.0.2/MSDK/plf/src\init_rom_symbol.c ****         mbedtls_rsa_export_raw_fn = (void *)0x0bf741b4;
 1441              		.loc 1 286 35
 1442 0a38 23206500 		sw	t1,%lo(.LANCHOR84)(a0)
 287:C:/Users/stapi/OneDrive/Desktop/GD32VW553/V1_MQTT_OK/GD32VW55X_Wifi_BLE_SDK/GD32VW55x_RELEASE_V1.0.2/MSDK/plf/src\init_rom_symbol.c ****         mbedtls_rsa_free_fn = (void *)0x0bf75e00;
 1443              		.loc 1 287 9 is_stmt 1
 287:C:/Users/stapi/OneDrive/Desktop/GD32VW553/V1_MQTT_OK/GD32VW55X_Wifi_BLE_SDK/GD32VW55x_RELEASE_V1.0.2/MSDK/plf/src\init_rom_symbol.c ****         mbedtls_rsa_free_fn = (void *)0x0bf75e00;
 1444              		.loc 1 287 35 is_stmt 0
 1445 0a3c 37050000 		lui	a0,%hi(.LANCHOR85)
 288:C:/Users/stapi/OneDrive/Desktop/GD32VW553/V1_MQTT_OK/GD32VW55X_Wifi_BLE_SDK/GD32VW55x_RELEASE_V1.0.2/MSDK/plf/src\init_rom_symbol.c ****         mbedtls_rsa_gen_key_fn = (void *)0x0bf745a6;
 1446              		.loc 1 288 29
 1447 0a40 138607E0 		addi	a2,a5,-512
 287:C:/Users/stapi/OneDrive/Desktop/GD32VW553/V1_MQTT_OK/GD32VW55X_Wifi_BLE_SDK/GD32VW55x_RELEASE_V1.0.2/MSDK/plf/src\init_rom_symbol.c ****         mbedtls_rsa_free_fn = (void *)0x0bf75e00;
 1448              		.loc 1 287 35
 1449 0a44 23201501 		sw	a7,%lo(.LANCHOR85)(a0)
 288:C:/Users/stapi/OneDrive/Desktop/GD32VW553/V1_MQTT_OK/GD32VW55X_Wifi_BLE_SDK/GD32VW55x_RELEASE_V1.0.2/MSDK/plf/src\init_rom_symbol.c ****         mbedtls_rsa_gen_key_fn = (void *)0x0bf745a6;
 1450              		.loc 1 288 9 is_stmt 1
 288:C:/Users/stapi/OneDrive/Desktop/GD32VW553/V1_MQTT_OK/GD32VW55X_Wifi_BLE_SDK/GD32VW55x_RELEASE_V1.0.2/MSDK/plf/src\init_rom_symbol.c ****         mbedtls_rsa_gen_key_fn = (void *)0x0bf745a6;
 1451              		.loc 1 288 29 is_stmt 0
 1452 0a48 37050000 		lui	a0,%hi(.LANCHOR86)
 289:C:/Users/stapi/OneDrive/Desktop/GD32VW553/V1_MQTT_OK/GD32VW55X_Wifi_BLE_SDK/GD32VW55x_RELEASE_V1.0.2/MSDK/plf/src\init_rom_symbol.c ****         mbedtls_rsa_get_len_fn = (void *)0x0bf744d0;
 1453              		.loc 1 289 32
 1454 0a4c 9306675A 		addi	a3,a4,1446
 288:C:/Users/stapi/OneDrive/Desktop/GD32VW553/V1_MQTT_OK/GD32VW55X_Wifi_BLE_SDK/GD32VW55x_RELEASE_V1.0.2/MSDK/plf/src\init_rom_symbol.c ****         mbedtls_rsa_gen_key_fn = (void *)0x0bf745a6;
 1455              		.loc 1 288 29
 1456 0a50 2320C500 		sw	a2,%lo(.LANCHOR86)(a0)
 289:C:/Users/stapi/OneDrive/Desktop/GD32VW553/V1_MQTT_OK/GD32VW55X_Wifi_BLE_SDK/GD32VW55x_RELEASE_V1.0.2/MSDK/plf/src\init_rom_symbol.c ****         mbedtls_rsa_get_len_fn = (void *)0x0bf744d0;
 1457              		.loc 1 289 9 is_stmt 1
 290:C:/Users/stapi/OneDrive/Desktop/GD32VW553/V1_MQTT_OK/GD32VW55X_Wifi_BLE_SDK/GD32VW55x_RELEASE_V1.0.2/MSDK/plf/src\init_rom_symbol.c ****         mbedtls_rsa_import_fn = (void *)0x0bf73f28;
 1458              		.loc 1 290 32 is_stmt 0
 1459 0a54 3745F70B 		li	a0,200753152
 289:C:/Users/stapi/OneDrive/Desktop/GD32VW553/V1_MQTT_OK/GD32VW55X_Wifi_BLE_SDK/GD32VW55x_RELEASE_V1.0.2/MSDK/plf/src\init_rom_symbol.c ****         mbedtls_rsa_get_len_fn = (void *)0x0bf744d0;
 1460              		.loc 1 289 32
 1461 0a58 37060000 		lui	a2,%hi(.LANCHOR87)
 1462 0a5c 2320D600 		sw	a3,%lo(.LANCHOR87)(a2)
 290:C:/Users/stapi/OneDrive/Desktop/GD32VW553/V1_MQTT_OK/GD32VW55X_Wifi_BLE_SDK/GD32VW55x_RELEASE_V1.0.2/MSDK/plf/src\init_rom_symbol.c ****         mbedtls_rsa_import_fn = (void *)0x0bf73f28;
 1463              		.loc 1 290 9 is_stmt 1
 290:C:/Users/stapi/OneDrive/Desktop/GD32VW553/V1_MQTT_OK/GD32VW55X_Wifi_BLE_SDK/GD32VW55x_RELEASE_V1.0.2/MSDK/plf/src\init_rom_symbol.c ****         mbedtls_rsa_import_fn = (void *)0x0bf73f28;
 1464              		.loc 1 290 32 is_stmt 0
 1465 0a60 1304054D 		addi	s0,a0,1232
 1466 0a64 B7060000 		lui	a3,%hi(.LANCHOR88)
 1467 0a68 23A08600 		sw	s0,%lo(.LANCHOR88)(a3)
 291:C:/Users/stapi/OneDrive/Desktop/GD32VW553/V1_MQTT_OK/GD32VW55X_Wifi_BLE_SDK/GD32VW55x_RELEASE_V1.0.2/MSDK/plf/src\init_rom_symbol.c ****         mbedtls_rsa_import_raw_fn = (void *)0x0bf73fba;
 1468              		.loc 1 291 9 is_stmt 1
 291:C:/Users/stapi/OneDrive/Desktop/GD32VW553/V1_MQTT_OK/GD32VW55X_Wifi_BLE_SDK/GD32VW55x_RELEASE_V1.0.2/MSDK/plf/src\init_rom_symbol.c ****         mbedtls_rsa_import_raw_fn = (void *)0x0bf73fba;
 1469              		.loc 1 291 31 is_stmt 0
 1470 0a6c 130485F2 		addi	s0,a0,-216
 1471 0a70 B7060000 		lui	a3,%hi(.LANCHOR89)
 1472 0a74 23A08600 		sw	s0,%lo(.LANCHOR89)(a3)
 292:C:/Users/stapi/OneDrive/Desktop/GD32VW553/V1_MQTT_OK/GD32VW55X_Wifi_BLE_SDK/GD32VW55x_RELEASE_V1.0.2/MSDK/plf/src\init_rom_symbol.c ****         mbedtls_rsa_init_fn = (void *)0x0bf74498;
 1473              		.loc 1 292 9 is_stmt 1
 292:C:/Users/stapi/OneDrive/Desktop/GD32VW553/V1_MQTT_OK/GD32VW55X_Wifi_BLE_SDK/GD32VW55x_RELEASE_V1.0.2/MSDK/plf/src\init_rom_symbol.c ****         mbedtls_rsa_init_fn = (void *)0x0bf74498;
 1474              		.loc 1 292 35 is_stmt 0
 1475 0a78 1304A5FB 		addi	s0,a0,-70
 1476 0a7c B7060000 		lui	a3,%hi(.LANCHOR90)
 1477 0a80 23A08600 		sw	s0,%lo(.LANCHOR90)(a3)
 293:C:/Users/stapi/OneDrive/Desktop/GD32VW553/V1_MQTT_OK/GD32VW55X_Wifi_BLE_SDK/GD32VW55x_RELEASE_V1.0.2/MSDK/plf/src\init_rom_symbol.c ****         mbedtls_rsa_pkcs1_decrypt_fn = (void *)0x0bf755f6;
 1478              		.loc 1 293 9 is_stmt 1
 293:C:/Users/stapi/OneDrive/Desktop/GD32VW553/V1_MQTT_OK/GD32VW55X_Wifi_BLE_SDK/GD32VW55x_RELEASE_V1.0.2/MSDK/plf/src\init_rom_symbol.c ****         mbedtls_rsa_pkcs1_decrypt_fn = (void *)0x0bf755f6;
 1479              		.loc 1 293 29 is_stmt 0
 1480 0a84 13058549 		addi	a0,a0,1176
 1481 0a88 B7060000 		lui	a3,%hi(.LANCHOR91)
 1482 0a8c 23A0A600 		sw	a0,%lo(.LANCHOR91)(a3)
 294:C:/Users/stapi/OneDrive/Desktop/GD32VW553/V1_MQTT_OK/GD32VW55X_Wifi_BLE_SDK/GD32VW55x_RELEASE_V1.0.2/MSDK/plf/src\init_rom_symbol.c ****         mbedtls_rsa_pkcs1_encrypt_fn = (void *)0x0bf75138;
 1483              		.loc 1 294 9 is_stmt 1
 294:C:/Users/stapi/OneDrive/Desktop/GD32VW553/V1_MQTT_OK/GD32VW55X_Wifi_BLE_SDK/GD32VW55x_RELEASE_V1.0.2/MSDK/plf/src\init_rom_symbol.c ****         mbedtls_rsa_pkcs1_encrypt_fn = (void *)0x0bf75138;
 1484              		.loc 1 294 38 is_stmt 0
 1485 0a90 3755F70B 		li	a0,200757248
 1486 0a94 1304655F 		addi	s0,a0,1526
 1487 0a98 B7060000 		lui	a3,%hi(.LANCHOR92)
 1488 0a9c 23A08600 		sw	s0,%lo(.LANCHOR92)(a3)
 295:C:/Users/stapi/OneDrive/Desktop/GD32VW553/V1_MQTT_OK/GD32VW55X_Wifi_BLE_SDK/GD32VW55x_RELEASE_V1.0.2/MSDK/plf/src\init_rom_symbol.c ****         mbedtls_rsa_pkcs1_sign_fn = (void *)0x0bf75928;
 1489              		.loc 1 295 9 is_stmt 1
 296:C:/Users/stapi/OneDrive/Desktop/GD32VW553/V1_MQTT_OK/GD32VW55X_Wifi_BLE_SDK/GD32VW55x_RELEASE_V1.0.2/MSDK/plf/src\init_rom_symbol.c ****         mbedtls_rsa_pkcs1_verify_fn = (void *)0x0bf75c98;
 1490              		.loc 1 296 35 is_stmt 0
 1491 0aa0 3766F70B 		li	a2,200761344
 295:C:/Users/stapi/OneDrive/Desktop/GD32VW553/V1_MQTT_OK/GD32VW55X_Wifi_BLE_SDK/GD32VW55x_RELEASE_V1.0.2/MSDK/plf/src\init_rom_symbol.c ****         mbedtls_rsa_pkcs1_sign_fn = (void *)0x0bf75928;
 1492              		.loc 1 295 38
 1493 0aa4 13048513 		addi	s0,a0,312
 1494 0aa8 B7060000 		lui	a3,%hi(.LANCHOR93)
 1495 0aac 23A08600 		sw	s0,%lo(.LANCHOR93)(a3)
 296:C:/Users/stapi/OneDrive/Desktop/GD32VW553/V1_MQTT_OK/GD32VW55X_Wifi_BLE_SDK/GD32VW55x_RELEASE_V1.0.2/MSDK/plf/src\init_rom_symbol.c ****         mbedtls_rsa_pkcs1_verify_fn = (void *)0x0bf75c98;
 1496              		.loc 1 296 9 is_stmt 1
 296:C:/Users/stapi/OneDrive/Desktop/GD32VW553/V1_MQTT_OK/GD32VW55X_Wifi_BLE_SDK/GD32VW55x_RELEASE_V1.0.2/MSDK/plf/src\init_rom_symbol.c ****         mbedtls_rsa_pkcs1_verify_fn = (void *)0x0bf75c98;
 1497              		.loc 1 296 35 is_stmt 0
 1498 0ab0 13048692 		addi	s0,a2,-1752
 1499 0ab4 B7060000 		lui	a3,%hi(.LANCHOR94)
 294:C:/Users/stapi/OneDrive/Desktop/GD32VW553/V1_MQTT_OK/GD32VW55X_Wifi_BLE_SDK/GD32VW55x_RELEASE_V1.0.2/MSDK/plf/src\init_rom_symbol.c ****         mbedtls_rsa_pkcs1_encrypt_fn = (void *)0x0bf75138;
 1500              		.loc 1 294 38
 1501 0ab8 B755F70B 		li	a1,200757248
 296:C:/Users/stapi/OneDrive/Desktop/GD32VW553/V1_MQTT_OK/GD32VW55X_Wifi_BLE_SDK/GD32VW55x_RELEASE_V1.0.2/MSDK/plf/src\init_rom_symbol.c ****         mbedtls_rsa_pkcs1_verify_fn = (void *)0x0bf75c98;
 1502              		.loc 1 296 35
 1503 0abc 23A08600 		sw	s0,%lo(.LANCHOR94)(a3)
 297:C:/Users/stapi/OneDrive/Desktop/GD32VW553/V1_MQTT_OK/GD32VW55X_Wifi_BLE_SDK/GD32VW55x_RELEASE_V1.0.2/MSDK/plf/src\init_rom_symbol.c ****         mbedtls_rsa_private_fn = (void *)0x0bf74e92;
 1504              		.loc 1 297 9 is_stmt 1
 297:C:/Users/stapi/OneDrive/Desktop/GD32VW553/V1_MQTT_OK/GD32VW55X_Wifi_BLE_SDK/GD32VW55x_RELEASE_V1.0.2/MSDK/plf/src\init_rom_symbol.c ****         mbedtls_rsa_private_fn = (void *)0x0bf74e92;
 1505              		.loc 1 297 37 is_stmt 0
 1506 0ac0 130686C9 		addi	a2,a2,-872
 1507 0ac4 B7060000 		lui	a3,%hi(.LANCHOR95)
 1508 0ac8 23A0C600 		sw	a2,%lo(.LANCHOR95)(a3)
 298:C:/Users/stapi/OneDrive/Desktop/GD32VW553/V1_MQTT_OK/GD32VW55X_Wifi_BLE_SDK/GD32VW55x_RELEASE_V1.0.2/MSDK/plf/src\init_rom_symbol.c ****         mbedtls_rsa_private_sw_fn = (void *)0x0bf7496c;
 1509              		.loc 1 298 9 is_stmt 1
 300:C:/Users/stapi/OneDrive/Desktop/GD32VW553/V1_MQTT_OK/GD32VW55X_Wifi_BLE_SDK/GD32VW55x_RELEASE_V1.0.2/MSDK/plf/src\init_rom_symbol.c ****         mbedtls_rsa_rsaes_oaep_decrypt_fn = (void *)0x0bf7516c;
 1510              		.loc 1 300 31 is_stmt 0
 1511 0acc 938A4581 		addi	s5,a1,-2028
 298:C:/Users/stapi/OneDrive/Desktop/GD32VW553/V1_MQTT_OK/GD32VW55X_Wifi_BLE_SDK/GD32VW55x_RELEASE_V1.0.2/MSDK/plf/src\init_rom_symbol.c ****         mbedtls_rsa_private_sw_fn = (void *)0x0bf7496c;
 1512              		.loc 1 298 32
 1513 0ad0 130625E9 		addi	a2,a0,-366
 1514 0ad4 B7060000 		lui	a3,%hi(.LANCHOR96)
 300:C:/Users/stapi/OneDrive/Desktop/GD32VW553/V1_MQTT_OK/GD32VW55X_Wifi_BLE_SDK/GD32VW55x_RELEASE_V1.0.2/MSDK/plf/src\init_rom_symbol.c ****         mbedtls_rsa_rsaes_oaep_decrypt_fn = (void *)0x0bf7516c;
 1515              		.loc 1 300 31
 1516 0ad8 B7020000 		lui	t0,%hi(.LANCHOR98)
 298:C:/Users/stapi/OneDrive/Desktop/GD32VW553/V1_MQTT_OK/GD32VW55X_Wifi_BLE_SDK/GD32VW55x_RELEASE_V1.0.2/MSDK/plf/src\init_rom_symbol.c ****         mbedtls_rsa_private_sw_fn = (void *)0x0bf7496c;
 1517              		.loc 1 298 32
 1518 0adc 23A0C600 		sw	a2,%lo(.LANCHOR96)(a3)
 299:C:/Users/stapi/OneDrive/Desktop/GD32VW553/V1_MQTT_OK/GD32VW55X_Wifi_BLE_SDK/GD32VW55x_RELEASE_V1.0.2/MSDK/plf/src\init_rom_symbol.c ****         mbedtls_rsa_public_fn = (void *)0x0bf74814;
 1519              		.loc 1 299 9 is_stmt 1
 301:C:/Users/stapi/OneDrive/Desktop/GD32VW553/V1_MQTT_OK/GD32VW55X_Wifi_BLE_SDK/GD32VW55x_RELEASE_V1.0.2/MSDK/plf/src\init_rom_symbol.c ****         mbedtls_rsa_rsaes_oaep_encrypt_fn = (void *)0x0bf74ea6;
 1520              		.loc 1 301 43 is_stmt 0
 1521 0ae0 138AC516 		addi	s4,a1,364
 300:C:/Users/stapi/OneDrive/Desktop/GD32VW553/V1_MQTT_OK/GD32VW55X_Wifi_BLE_SDK/GD32VW55x_RELEASE_V1.0.2/MSDK/plf/src\init_rom_symbol.c ****         mbedtls_rsa_rsaes_oaep_decrypt_fn = (void *)0x0bf7516c;
 1522              		.loc 1 300 31
 1523 0ae4 23A05201 		sw	s5,%lo(.LANCHOR98)(t0)
 301:C:/Users/stapi/OneDrive/Desktop/GD32VW553/V1_MQTT_OK/GD32VW55X_Wifi_BLE_SDK/GD32VW55x_RELEASE_V1.0.2/MSDK/plf/src\init_rom_symbol.c ****         mbedtls_rsa_rsaes_oaep_encrypt_fn = (void *)0x0bf74ea6;
 1524              		.loc 1 301 43
 1525 0ae8 B7020000 		lui	t0,%hi(.LANCHOR99)
 302:C:/Users/stapi/OneDrive/Desktop/GD32VW553/V1_MQTT_OK/GD32VW55X_Wifi_BLE_SDK/GD32VW55x_RELEASE_V1.0.2/MSDK/plf/src\init_rom_symbol.c ****         mbedtls_rsa_rsaes_pkcs1_v15_decrypt_fn = (void *)0x0bf7539e;
 1526              		.loc 1 302 43
 1527 0aec 938965EA 		addi	s3,a1,-346
 301:C:/Users/stapi/OneDrive/Desktop/GD32VW553/V1_MQTT_OK/GD32VW55X_Wifi_BLE_SDK/GD32VW55x_RELEASE_V1.0.2/MSDK/plf/src\init_rom_symbol.c ****         mbedtls_rsa_rsaes_oaep_encrypt_fn = (void *)0x0bf74ea6;
 1528              		.loc 1 301 43
 1529 0af0 23A04201 		sw	s4,%lo(.LANCHOR99)(t0)
 302:C:/Users/stapi/OneDrive/Desktop/GD32VW553/V1_MQTT_OK/GD32VW55X_Wifi_BLE_SDK/GD32VW55x_RELEASE_V1.0.2/MSDK/plf/src\init_rom_symbol.c ****         mbedtls_rsa_rsaes_pkcs1_v15_decrypt_fn = (void *)0x0bf7539e;
 1530              		.loc 1 302 43
 1531 0af4 B7020000 		lui	t0,%hi(.LANCHOR100)
 303:C:/Users/stapi/OneDrive/Desktop/GD32VW553/V1_MQTT_OK/GD32VW55X_Wifi_BLE_SDK/GD32VW55x_RELEASE_V1.0.2/MSDK/plf/src\init_rom_symbol.c ****         mbedtls_rsa_rsaes_pkcs1_v15_encrypt_fn = (void *)0x0bf7500c;
 1532              		.loc 1 303 48
 1533 0af8 1389E539 		addi	s2,a1,926
 302:C:/Users/stapi/OneDrive/Desktop/GD32VW553/V1_MQTT_OK/GD32VW55X_Wifi_BLE_SDK/GD32VW55x_RELEASE_V1.0.2/MSDK/plf/src\init_rom_symbol.c ****         mbedtls_rsa_rsaes_pkcs1_v15_decrypt_fn = (void *)0x0bf7539e;
 1534              		.loc 1 302 43
 1535 0afc 23A03201 		sw	s3,%lo(.LANCHOR100)(t0)
 303:C:/Users/stapi/OneDrive/Desktop/GD32VW553/V1_MQTT_OK/GD32VW55X_Wifi_BLE_SDK/GD32VW55x_RELEASE_V1.0.2/MSDK/plf/src\init_rom_symbol.c ****         mbedtls_rsa_rsaes_pkcs1_v15_encrypt_fn = (void *)0x0bf7500c;
 1536              		.loc 1 303 48
 1537 0b00 B7020000 		lui	t0,%hi(.LANCHOR101)
 304:C:/Users/stapi/OneDrive/Desktop/GD32VW553/V1_MQTT_OK/GD32VW55X_Wifi_BLE_SDK/GD32VW55x_RELEASE_V1.0.2/MSDK/plf/src\init_rom_symbol.c ****         mbedtls_rsa_rsassa_pkcs1_v15_sign_fn = (void *)0x0bf7581a;
 1538              		.loc 1 304 48
 1539 0b04 9384C500 		addi	s1,a1,12
 303:C:/Users/stapi/OneDrive/Desktop/GD32VW553/V1_MQTT_OK/GD32VW55X_Wifi_BLE_SDK/GD32VW55x_RELEASE_V1.0.2/MSDK/plf/src\init_rom_symbol.c ****         mbedtls_rsa_rsaes_pkcs1_v15_encrypt_fn = (void *)0x0bf7500c;
 1540              		.loc 1 303 48
 1541 0b08 23A02201 		sw	s2,%lo(.LANCHOR101)(t0)
 304:C:/Users/stapi/OneDrive/Desktop/GD32VW553/V1_MQTT_OK/GD32VW55X_Wifi_BLE_SDK/GD32VW55x_RELEASE_V1.0.2/MSDK/plf/src\init_rom_symbol.c ****         mbedtls_rsa_rsassa_pkcs1_v15_sign_fn = (void *)0x0bf7581a;
 1542              		.loc 1 304 48
 1543 0b0c B7020000 		lui	t0,%hi(.LANCHOR102)
 305:C:/Users/stapi/OneDrive/Desktop/GD32VW553/V1_MQTT_OK/GD32VW55X_Wifi_BLE_SDK/GD32VW55x_RELEASE_V1.0.2/MSDK/plf/src\init_rom_symbol.c ****         mbedtls_rsa_rsassa_pkcs1_v15_verify_fn = (void *)0x0bf75b8e;
 1544              		.loc 1 305 46
 1545 0b10 1384A781 		addi	s0,a5,-2022
 304:C:/Users/stapi/OneDrive/Desktop/GD32VW553/V1_MQTT_OK/GD32VW55X_Wifi_BLE_SDK/GD32VW55x_RELEASE_V1.0.2/MSDK/plf/src\init_rom_symbol.c ****         mbedtls_rsa_rsassa_pkcs1_v15_sign_fn = (void *)0x0bf7581a;
 1546              		.loc 1 304 48
 1547 0b14 23A09200 		sw	s1,%lo(.LANCHOR102)(t0)
 305:C:/Users/stapi/OneDrive/Desktop/GD32VW553/V1_MQTT_OK/GD32VW55X_Wifi_BLE_SDK/GD32VW55x_RELEASE_V1.0.2/MSDK/plf/src\init_rom_symbol.c ****         mbedtls_rsa_rsassa_pkcs1_v15_verify_fn = (void *)0x0bf75b8e;
 1548              		.loc 1 305 46
 1549 0b18 B7020000 		lui	t0,%hi(.LANCHOR103)
 306:C:/Users/stapi/OneDrive/Desktop/GD32VW553/V1_MQTT_OK/GD32VW55X_Wifi_BLE_SDK/GD32VW55x_RELEASE_V1.0.2/MSDK/plf/src\init_rom_symbol.c ****         mbedtls_rsa_rsassa_pss_sign_fn = (void *)0x0bf75630;
 1550              		.loc 1 306 48
 1551 0b1c 9383E7B8 		addi	t2,a5,-1138
 305:C:/Users/stapi/OneDrive/Desktop/GD32VW553/V1_MQTT_OK/GD32VW55X_Wifi_BLE_SDK/GD32VW55x_RELEASE_V1.0.2/MSDK/plf/src\init_rom_symbol.c ****         mbedtls_rsa_rsassa_pkcs1_v15_verify_fn = (void *)0x0bf75b8e;
 1552              		.loc 1 305 46
 1553 0b20 23A08200 		sw	s0,%lo(.LANCHOR103)(t0)
 306:C:/Users/stapi/OneDrive/Desktop/GD32VW553/V1_MQTT_OK/GD32VW55X_Wifi_BLE_SDK/GD32VW55x_RELEASE_V1.0.2/MSDK/plf/src\init_rom_symbol.c ****         mbedtls_rsa_rsassa_pss_sign_fn = (void *)0x0bf75630;
 1554              		.loc 1 306 48
 1555 0b24 B7020000 		lui	t0,%hi(.LANCHOR104)
 1556 0b28 23A07200 		sw	t2,%lo(.LANCHOR104)(t0)
 307:C:/Users/stapi/OneDrive/Desktop/GD32VW553/V1_MQTT_OK/GD32VW55X_Wifi_BLE_SDK/GD32VW55x_RELEASE_V1.0.2/MSDK/plf/src\init_rom_symbol.c ****         mbedtls_rsa_rsassa_pss_verify_fn = (void *)0x0bf75b6e;
 1557              		.loc 1 307 40
 1558 0b2c 93850563 		addi	a1,a1,1584
 1559 0b30 B7020000 		lui	t0,%hi(.LANCHOR105)
 308:C:/Users/stapi/OneDrive/Desktop/GD32VW553/V1_MQTT_OK/GD32VW55X_Wifi_BLE_SDK/GD32VW55x_RELEASE_V1.0.2/MSDK/plf/src\init_rom_symbol.c ****         mbedtls_rsa_rsassa_pss_verify_ext_fn = (void *)0x0bf75946;
 1560              		.loc 1 308 42
 1561 0b34 938FE7B6 		addi	t6,a5,-1170
 307:C:/Users/stapi/OneDrive/Desktop/GD32VW553/V1_MQTT_OK/GD32VW55X_Wifi_BLE_SDK/GD32VW55x_RELEASE_V1.0.2/MSDK/plf/src\init_rom_symbol.c ****         mbedtls_rsa_rsassa_pss_verify_fn = (void *)0x0bf75b6e;
 1562              		.loc 1 307 40
 1563 0b38 23A0B200 		sw	a1,%lo(.LANCHOR105)(t0)
 308:C:/Users/stapi/OneDrive/Desktop/GD32VW553/V1_MQTT_OK/GD32VW55X_Wifi_BLE_SDK/GD32VW55x_RELEASE_V1.0.2/MSDK/plf/src\init_rom_symbol.c ****         mbedtls_rsa_rsassa_pss_verify_ext_fn = (void *)0x0bf75946;
 1564              		.loc 1 308 42
 1565 0b3c B7050000 		lui	a1,%hi(.LANCHOR106)
 309:C:/Users/stapi/OneDrive/Desktop/GD32VW553/V1_MQTT_OK/GD32VW55X_Wifi_BLE_SDK/GD32VW55x_RELEASE_V1.0.2/MSDK/plf/src\init_rom_symbol.c ****         mbedtls_rsa_set_padding_fn = (void *)0x0bf744c6;
 1566              		.loc 1 309 46
 1567 0b40 138F6794 		addi	t5,a5,-1722
 308:C:/Users/stapi/OneDrive/Desktop/GD32VW553/V1_MQTT_OK/GD32VW55X_Wifi_BLE_SDK/GD32VW55x_RELEASE_V1.0.2/MSDK/plf/src\init_rom_symbol.c ****         mbedtls_rsa_rsassa_pss_verify_ext_fn = (void *)0x0bf75946;
 1568              		.loc 1 308 42
 1569 0b44 23A0F501 		sw	t6,%lo(.LANCHOR106)(a1)
 309:C:/Users/stapi/OneDrive/Desktop/GD32VW553/V1_MQTT_OK/GD32VW55X_Wifi_BLE_SDK/GD32VW55x_RELEASE_V1.0.2/MSDK/plf/src\init_rom_symbol.c ****         mbedtls_rsa_set_padding_fn = (void *)0x0bf744c6;
 1570              		.loc 1 309 46
 1571 0b48 B7050000 		lui	a1,%hi(.LANCHOR107)
 1572 0b4c 23A0E501 		sw	t5,%lo(.LANCHOR107)(a1)
 310:C:/Users/stapi/OneDrive/Desktop/GD32VW553/V1_MQTT_OK/GD32VW55X_Wifi_BLE_SDK/GD32VW55x_RELEASE_V1.0.2/MSDK/plf/src\init_rom_symbol.c ****         mbedtls_sha256_clone_fn = (void *)0x0bf76374;
 1573              		.loc 1 310 36
 1574 0b50 1307674C 		addi	a4,a4,1222
 1575 0b54 B7050000 		lui	a1,%hi(.LANCHOR108)
 311:C:/Users/stapi/OneDrive/Desktop/GD32VW553/V1_MQTT_OK/GD32VW55X_Wifi_BLE_SDK/GD32VW55x_RELEASE_V1.0.2/MSDK/plf/src\init_rom_symbol.c ****         mbedtls_sha256_finish_fn = (void *)0x0bf7642e;
 1576              		.loc 1 311 33
 1577 0b58 938E4737 		addi	t4,a5,884
 310:C:/Users/stapi/OneDrive/Desktop/GD32VW553/V1_MQTT_OK/GD32VW55X_Wifi_BLE_SDK/GD32VW55x_RELEASE_V1.0.2/MSDK/plf/src\init_rom_symbol.c ****         mbedtls_sha256_clone_fn = (void *)0x0bf76374;
 1578              		.loc 1 310 36
 1579 0b5c 23A0E500 		sw	a4,%lo(.LANCHOR108)(a1)
 311:C:/Users/stapi/OneDrive/Desktop/GD32VW553/V1_MQTT_OK/GD32VW55X_Wifi_BLE_SDK/GD32VW55x_RELEASE_V1.0.2/MSDK/plf/src\init_rom_symbol.c ****         mbedtls_sha256_finish_fn = (void *)0x0bf7642e;
 1580              		.loc 1 311 33
 1581 0b60 37070000 		lui	a4,%hi(.LANCHOR109)
 312:C:/Users/stapi/OneDrive/Desktop/GD32VW553/V1_MQTT_OK/GD32VW55X_Wifi_BLE_SDK/GD32VW55x_RELEASE_V1.0.2/MSDK/plf/src\init_rom_symbol.c ****         mbedtls_sha256_finish_ret_fn = (void *)0x0bf76406;
 1582              		.loc 1 312 34
 1583 0b64 138EE742 		addi	t3,a5,1070
 311:C:/Users/stapi/OneDrive/Desktop/GD32VW553/V1_MQTT_OK/GD32VW55X_Wifi_BLE_SDK/GD32VW55x_RELEASE_V1.0.2/MSDK/plf/src\init_rom_symbol.c ****         mbedtls_sha256_finish_fn = (void *)0x0bf7642e;
 1584              		.loc 1 311 33
 1585 0b68 2320D701 		sw	t4,%lo(.LANCHOR109)(a4)
 312:C:/Users/stapi/OneDrive/Desktop/GD32VW553/V1_MQTT_OK/GD32VW55X_Wifi_BLE_SDK/GD32VW55x_RELEASE_V1.0.2/MSDK/plf/src\init_rom_symbol.c ****         mbedtls_sha256_finish_ret_fn = (void *)0x0bf76406;
 1586              		.loc 1 312 34
 1587 0b6c 37070000 		lui	a4,%hi(.LANCHOR110)
 313:C:/Users/stapi/OneDrive/Desktop/GD32VW553/V1_MQTT_OK/GD32VW55X_Wifi_BLE_SDK/GD32VW55x_RELEASE_V1.0.2/MSDK/plf/src\init_rom_symbol.c ****         mbedtls_sha256_free_fn = (void *)0x0bf76362;
 1588              		.loc 1 313 38
 1589 0b70 13836740 		addi	t1,a5,1030
 312:C:/Users/stapi/OneDrive/Desktop/GD32VW553/V1_MQTT_OK/GD32VW55X_Wifi_BLE_SDK/GD32VW55x_RELEASE_V1.0.2/MSDK/plf/src\init_rom_symbol.c ****         mbedtls_sha256_finish_ret_fn = (void *)0x0bf76406;
 1590              		.loc 1 312 34
 1591 0b74 2320C701 		sw	t3,%lo(.LANCHOR110)(a4)
 313:C:/Users/stapi/OneDrive/Desktop/GD32VW553/V1_MQTT_OK/GD32VW55X_Wifi_BLE_SDK/GD32VW55x_RELEASE_V1.0.2/MSDK/plf/src\init_rom_symbol.c ****         mbedtls_sha256_free_fn = (void *)0x0bf76362;
 1592              		.loc 1 313 38
 1593 0b78 37070000 		lui	a4,%hi(.LANCHOR111)
 314:C:/Users/stapi/OneDrive/Desktop/GD32VW553/V1_MQTT_OK/GD32VW55X_Wifi_BLE_SDK/GD32VW55x_RELEASE_V1.0.2/MSDK/plf/src\init_rom_symbol.c ****         mbedtls_sha256_init_fn = (void *)0x0bf7635e;
 1594              		.loc 1 314 32
 1595 0b7c 93882736 		addi	a7,a5,866
 313:C:/Users/stapi/OneDrive/Desktop/GD32VW553/V1_MQTT_OK/GD32VW55X_Wifi_BLE_SDK/GD32VW55x_RELEASE_V1.0.2/MSDK/plf/src\init_rom_symbol.c ****         mbedtls_sha256_free_fn = (void *)0x0bf76362;
 1596              		.loc 1 313 38
 1597 0b80 23206700 		sw	t1,%lo(.LANCHOR111)(a4)
 314:C:/Users/stapi/OneDrive/Desktop/GD32VW553/V1_MQTT_OK/GD32VW55X_Wifi_BLE_SDK/GD32VW55x_RELEASE_V1.0.2/MSDK/plf/src\init_rom_symbol.c ****         mbedtls_sha256_init_fn = (void *)0x0bf7635e;
 1598              		.loc 1 314 32
 1599 0b84 37070000 		lui	a4,%hi(.LANCHOR112)
 315:C:/Users/stapi/OneDrive/Desktop/GD32VW553/V1_MQTT_OK/GD32VW55X_Wifi_BLE_SDK/GD32VW55x_RELEASE_V1.0.2/MSDK/plf/src\init_rom_symbol.c ****         mbedtls_sha256_starts_fn = (void *)0x0bf763a6;
 1600              		.loc 1 315 32
 1601 0b88 1388E735 		addi	a6,a5,862
 314:C:/Users/stapi/OneDrive/Desktop/GD32VW553/V1_MQTT_OK/GD32VW55X_Wifi_BLE_SDK/GD32VW55x_RELEASE_V1.0.2/MSDK/plf/src\init_rom_symbol.c ****         mbedtls_sha256_init_fn = (void *)0x0bf7635e;
 1602              		.loc 1 314 32
 1603 0b8c 23201701 		sw	a7,%lo(.LANCHOR112)(a4)
 315:C:/Users/stapi/OneDrive/Desktop/GD32VW553/V1_MQTT_OK/GD32VW55X_Wifi_BLE_SDK/GD32VW55x_RELEASE_V1.0.2/MSDK/plf/src\init_rom_symbol.c ****         mbedtls_sha256_starts_fn = (void *)0x0bf763a6;
 1604              		.loc 1 315 32
 1605 0b90 37070000 		lui	a4,%hi(.LANCHOR113)
 299:C:/Users/stapi/OneDrive/Desktop/GD32VW553/V1_MQTT_OK/GD32VW55X_Wifi_BLE_SDK/GD32VW55x_RELEASE_V1.0.2/MSDK/plf/src\init_rom_symbol.c ****         mbedtls_rsa_public_fn = (void *)0x0bf74814;
 1606              		.loc 1 299 35
 1607 0b94 1306C596 		addi	a2,a0,-1684
 315:C:/Users/stapi/OneDrive/Desktop/GD32VW553/V1_MQTT_OK/GD32VW55X_Wifi_BLE_SDK/GD32VW55x_RELEASE_V1.0.2/MSDK/plf/src\init_rom_symbol.c ****         mbedtls_sha256_starts_fn = (void *)0x0bf763a6;
 1608              		.loc 1 315 32
 1609 0b98 23200701 		sw	a6,%lo(.LANCHOR113)(a4)
 316:C:/Users/stapi/OneDrive/Desktop/GD32VW553/V1_MQTT_OK/GD32VW55X_Wifi_BLE_SDK/GD32VW55x_RELEASE_V1.0.2/MSDK/plf/src\init_rom_symbol.c ****         mbedtls_sha256_starts_ret_fn = (void *)0x0bf7637c;
 1610              		.loc 1 316 34
 1611 0b9c 1385673A 		addi	a0,a5,934
 299:C:/Users/stapi/OneDrive/Desktop/GD32VW553/V1_MQTT_OK/GD32VW55X_Wifi_BLE_SDK/GD32VW55x_RELEASE_V1.0.2/MSDK/plf/src\init_rom_symbol.c ****         mbedtls_rsa_public_fn = (void *)0x0bf74814;
 1612              		.loc 1 299 35
 1613 0ba0 B7060000 		lui	a3,%hi(.LANCHOR97)
 316:C:/Users/stapi/OneDrive/Desktop/GD32VW553/V1_MQTT_OK/GD32VW55X_Wifi_BLE_SDK/GD32VW55x_RELEASE_V1.0.2/MSDK/plf/src\init_rom_symbol.c ****         mbedtls_sha256_starts_ret_fn = (void *)0x0bf7637c;
 1614              		.loc 1 316 34
 1615 0ba4 37070000 		lui	a4,%hi(.LANCHOR114)
 299:C:/Users/stapi/OneDrive/Desktop/GD32VW553/V1_MQTT_OK/GD32VW55X_Wifi_BLE_SDK/GD32VW55x_RELEASE_V1.0.2/MSDK/plf/src\init_rom_symbol.c ****         mbedtls_rsa_public_fn = (void *)0x0bf74814;
 1616              		.loc 1 299 35
 1617 0ba8 23A0C600 		sw	a2,%lo(.LANCHOR97)(a3)
 300:C:/Users/stapi/OneDrive/Desktop/GD32VW553/V1_MQTT_OK/GD32VW55X_Wifi_BLE_SDK/GD32VW55x_RELEASE_V1.0.2/MSDK/plf/src\init_rom_symbol.c ****         mbedtls_rsa_rsaes_oaep_decrypt_fn = (void *)0x0bf7516c;
 1618              		.loc 1 300 9 is_stmt 1
 301:C:/Users/stapi/OneDrive/Desktop/GD32VW553/V1_MQTT_OK/GD32VW55X_Wifi_BLE_SDK/GD32VW55x_RELEASE_V1.0.2/MSDK/plf/src\init_rom_symbol.c ****         mbedtls_rsa_rsaes_oaep_encrypt_fn = (void *)0x0bf74ea6;
 1619              		.loc 1 301 9
 302:C:/Users/stapi/OneDrive/Desktop/GD32VW553/V1_MQTT_OK/GD32VW55X_Wifi_BLE_SDK/GD32VW55x_RELEASE_V1.0.2/MSDK/plf/src\init_rom_symbol.c ****         mbedtls_rsa_rsaes_pkcs1_v15_decrypt_fn = (void *)0x0bf7539e;
 1620              		.loc 1 302 9
 303:C:/Users/stapi/OneDrive/Desktop/GD32VW553/V1_MQTT_OK/GD32VW55X_Wifi_BLE_SDK/GD32VW55x_RELEASE_V1.0.2/MSDK/plf/src\init_rom_symbol.c ****         mbedtls_rsa_rsaes_pkcs1_v15_encrypt_fn = (void *)0x0bf7500c;
 1621              		.loc 1 303 9
 304:C:/Users/stapi/OneDrive/Desktop/GD32VW553/V1_MQTT_OK/GD32VW55X_Wifi_BLE_SDK/GD32VW55x_RELEASE_V1.0.2/MSDK/plf/src\init_rom_symbol.c ****         mbedtls_rsa_rsassa_pkcs1_v15_sign_fn = (void *)0x0bf7581a;
 1622              		.loc 1 304 9
 305:C:/Users/stapi/OneDrive/Desktop/GD32VW553/V1_MQTT_OK/GD32VW55X_Wifi_BLE_SDK/GD32VW55x_RELEASE_V1.0.2/MSDK/plf/src\init_rom_symbol.c ****         mbedtls_rsa_rsassa_pkcs1_v15_verify_fn = (void *)0x0bf75b8e;
 1623              		.loc 1 305 9
 306:C:/Users/stapi/OneDrive/Desktop/GD32VW553/V1_MQTT_OK/GD32VW55X_Wifi_BLE_SDK/GD32VW55x_RELEASE_V1.0.2/MSDK/plf/src\init_rom_symbol.c ****         mbedtls_rsa_rsassa_pss_sign_fn = (void *)0x0bf75630;
 1624              		.loc 1 306 9
 307:C:/Users/stapi/OneDrive/Desktop/GD32VW553/V1_MQTT_OK/GD32VW55X_Wifi_BLE_SDK/GD32VW55x_RELEASE_V1.0.2/MSDK/plf/src\init_rom_symbol.c ****         mbedtls_rsa_rsassa_pss_verify_fn = (void *)0x0bf75b6e;
 1625              		.loc 1 307 9
 308:C:/Users/stapi/OneDrive/Desktop/GD32VW553/V1_MQTT_OK/GD32VW55X_Wifi_BLE_SDK/GD32VW55x_RELEASE_V1.0.2/MSDK/plf/src\init_rom_symbol.c ****         mbedtls_rsa_rsassa_pss_verify_ext_fn = (void *)0x0bf75946;
 1626              		.loc 1 308 9
 309:C:/Users/stapi/OneDrive/Desktop/GD32VW553/V1_MQTT_OK/GD32VW55X_Wifi_BLE_SDK/GD32VW55x_RELEASE_V1.0.2/MSDK/plf/src\init_rom_symbol.c ****         mbedtls_rsa_set_padding_fn = (void *)0x0bf744c6;
 1627              		.loc 1 309 9
 310:C:/Users/stapi/OneDrive/Desktop/GD32VW553/V1_MQTT_OK/GD32VW55X_Wifi_BLE_SDK/GD32VW55x_RELEASE_V1.0.2/MSDK/plf/src\init_rom_symbol.c ****         mbedtls_sha256_clone_fn = (void *)0x0bf76374;
 1628              		.loc 1 310 9
 311:C:/Users/stapi/OneDrive/Desktop/GD32VW553/V1_MQTT_OK/GD32VW55X_Wifi_BLE_SDK/GD32VW55x_RELEASE_V1.0.2/MSDK/plf/src\init_rom_symbol.c ****         mbedtls_sha256_finish_fn = (void *)0x0bf7642e;
 1629              		.loc 1 311 9
 312:C:/Users/stapi/OneDrive/Desktop/GD32VW553/V1_MQTT_OK/GD32VW55X_Wifi_BLE_SDK/GD32VW55x_RELEASE_V1.0.2/MSDK/plf/src\init_rom_symbol.c ****         mbedtls_sha256_finish_ret_fn = (void *)0x0bf76406;
 1630              		.loc 1 312 9
 313:C:/Users/stapi/OneDrive/Desktop/GD32VW553/V1_MQTT_OK/GD32VW55X_Wifi_BLE_SDK/GD32VW55x_RELEASE_V1.0.2/MSDK/plf/src\init_rom_symbol.c ****         mbedtls_sha256_free_fn = (void *)0x0bf76362;
 1631              		.loc 1 313 9
 314:C:/Users/stapi/OneDrive/Desktop/GD32VW553/V1_MQTT_OK/GD32VW55X_Wifi_BLE_SDK/GD32VW55x_RELEASE_V1.0.2/MSDK/plf/src\init_rom_symbol.c ****         mbedtls_sha256_init_fn = (void *)0x0bf7635e;
 1632              		.loc 1 314 9
 315:C:/Users/stapi/OneDrive/Desktop/GD32VW553/V1_MQTT_OK/GD32VW55X_Wifi_BLE_SDK/GD32VW55x_RELEASE_V1.0.2/MSDK/plf/src\init_rom_symbol.c ****         mbedtls_sha256_starts_fn = (void *)0x0bf763a6;
 1633              		.loc 1 315 9
 316:C:/Users/stapi/OneDrive/Desktop/GD32VW553/V1_MQTT_OK/GD32VW55X_Wifi_BLE_SDK/GD32VW55x_RELEASE_V1.0.2/MSDK/plf/src\init_rom_symbol.c ****         mbedtls_sha256_starts_ret_fn = (void *)0x0bf7637c;
 1634              		.loc 1 316 9
 316:C:/Users/stapi/OneDrive/Desktop/GD32VW553/V1_MQTT_OK/GD32VW55X_Wifi_BLE_SDK/GD32VW55x_RELEASE_V1.0.2/MSDK/plf/src\init_rom_symbol.c ****         mbedtls_sha256_starts_ret_fn = (void *)0x0bf7637c;
 1635              		.loc 1 316 34 is_stmt 0
 1636 0bac 2320A700 		sw	a0,%lo(.LANCHOR114)(a4)
 317:C:/Users/stapi/OneDrive/Desktop/GD32VW553/V1_MQTT_OK/GD32VW55X_Wifi_BLE_SDK/GD32VW55x_RELEASE_V1.0.2/MSDK/plf/src\init_rom_symbol.c ****         mbedtls_sha256_update_fn = (void *)0x0bf763da;
 1637              		.loc 1 317 9 is_stmt 1
 317:C:/Users/stapi/OneDrive/Desktop/GD32VW553/V1_MQTT_OK/GD32VW55X_Wifi_BLE_SDK/GD32VW55x_RELEASE_V1.0.2/MSDK/plf/src\init_rom_symbol.c ****         mbedtls_sha256_update_fn = (void *)0x0bf763da;
 1638              		.loc 1 317 38 is_stmt 0
 1639 0bb0 1386C737 		addi	a2,a5,892
 1640 0bb4 37070000 		lui	a4,%hi(.LANCHOR115)
 318:C:/Users/stapi/OneDrive/Desktop/GD32VW553/V1_MQTT_OK/GD32VW55X_Wifi_BLE_SDK/GD32VW55x_RELEASE_V1.0.2/MSDK/plf/src\init_rom_symbol.c ****         mbedtls_sha256_update_ret_fn = (void *)0x0bf763aa;
 1641              		.loc 1 318 34
 1642 0bb8 9386A73D 		addi	a3,a5,986
 317:C:/Users/stapi/OneDrive/Desktop/GD32VW553/V1_MQTT_OK/GD32VW55X_Wifi_BLE_SDK/GD32VW55x_RELEASE_V1.0.2/MSDK/plf/src\init_rom_symbol.c ****         mbedtls_sha256_update_fn = (void *)0x0bf763da;
 1643              		.loc 1 317 38
 1644 0bbc 2320C700 		sw	a2,%lo(.LANCHOR115)(a4)
 318:C:/Users/stapi/OneDrive/Desktop/GD32VW553/V1_MQTT_OK/GD32VW55X_Wifi_BLE_SDK/GD32VW55x_RELEASE_V1.0.2/MSDK/plf/src\init_rom_symbol.c ****         mbedtls_sha256_update_ret_fn = (void *)0x0bf763aa;
 1645              		.loc 1 318 9 is_stmt 1
 318:C:/Users/stapi/OneDrive/Desktop/GD32VW553/V1_MQTT_OK/GD32VW55X_Wifi_BLE_SDK/GD32VW55x_RELEASE_V1.0.2/MSDK/plf/src\init_rom_symbol.c ****         mbedtls_sha256_update_ret_fn = (void *)0x0bf763aa;
 1646              		.loc 1 318 34 is_stmt 0
 1647 0bc0 37070000 		lui	a4,%hi(.LANCHOR116)
 1648 0bc4 2320D700 		sw	a3,%lo(.LANCHOR116)(a4)
 319:C:/Users/stapi/OneDrive/Desktop/GD32VW553/V1_MQTT_OK/GD32VW55X_Wifi_BLE_SDK/GD32VW55x_RELEASE_V1.0.2/MSDK/plf/src\init_rom_symbol.c ****     }
 1649              		.loc 1 319 9 is_stmt 1
 319:C:/Users/stapi/OneDrive/Desktop/GD32VW553/V1_MQTT_OK/GD32VW55X_Wifi_BLE_SDK/GD32VW55x_RELEASE_V1.0.2/MSDK/plf/src\init_rom_symbol.c ****     }
 1650              		.loc 1 319 38 is_stmt 0
 1651 0bc8 9387A73A 		addi	a5,a5,938
 1652 0bcc 37070000 		lui	a4,%hi(.LANCHOR117)
 1653 0bd0 2320F700 		sw	a5,%lo(.LANCHOR117)(a4)
 1654              		.loc 1 331 1
 1655 0bd4 4101     		addi	sp,sp,16
 1656              		.cfi_def_cfa_offset 0
 1657 0bd6 17030000 		tail	__riscv_restore_12
 1657      67000300 
 1658              		.cfi_restore 27
 1659              		.cfi_restore 26
 1660              		.cfi_restore 25
 1661              		.cfi_restore 24
 1662              		.cfi_restore 23
 1663              		.cfi_restore 22
 1664              		.cfi_restore 21
 1665              		.cfi_restore 20
 1666              		.cfi_restore 19
 1667              		.cfi_restore 18
 1668              		.cfi_restore 9
 1669              		.cfi_restore 8
 1670              		.cfi_restore 1
 1671              		.cfi_def_cfa_offset -64
 1672              		.cfi_endproc
 1673              	.LFE376:
 1675              		.globl	mbedtls_sha256_update_ret_fn
 1676              		.globl	mbedtls_sha256_update_fn
 1677              		.globl	mbedtls_sha256_starts_ret_fn
 1678              		.globl	mbedtls_sha256_starts_fn
 1679              		.globl	mbedtls_sha256_init_fn
 1680              		.globl	mbedtls_sha256_free_fn
 1681              		.globl	mbedtls_sha256_finish_ret_fn
 1682              		.globl	mbedtls_sha256_finish_fn
 1683              		.globl	mbedtls_sha256_clone_fn
 1684              		.globl	mbedtls_rsa_set_padding_fn
 1685              		.globl	mbedtls_rsa_rsassa_pss_verify_ext_fn
 1686              		.globl	mbedtls_rsa_rsassa_pss_verify_fn
 1687              		.globl	mbedtls_rsa_rsassa_pss_sign_fn
 1688              		.globl	mbedtls_rsa_rsassa_pkcs1_v15_verify_fn
 1689              		.globl	mbedtls_rsa_rsassa_pkcs1_v15_sign_fn
 1690              		.globl	mbedtls_rsa_rsaes_pkcs1_v15_encrypt_fn
 1691              		.globl	mbedtls_rsa_rsaes_pkcs1_v15_decrypt_fn
 1692              		.globl	mbedtls_rsa_rsaes_oaep_encrypt_fn
 1693              		.globl	mbedtls_rsa_rsaes_oaep_decrypt_fn
 1694              		.globl	mbedtls_rsa_public_fn
 1695              		.globl	mbedtls_rsa_private_sw_fn
 1696              		.globl	mbedtls_rsa_private_fn
 1697              		.globl	mbedtls_rsa_pkcs1_verify_fn
 1698              		.globl	mbedtls_rsa_pkcs1_sign_fn
 1699              		.globl	mbedtls_rsa_pkcs1_encrypt_fn
 1700              		.globl	mbedtls_rsa_pkcs1_decrypt_fn
 1701              		.globl	mbedtls_rsa_init_fn
 1702              		.globl	mbedtls_rsa_import_raw_fn
 1703              		.globl	mbedtls_rsa_import_fn
 1704              		.globl	mbedtls_rsa_get_len_fn
 1705              		.globl	mbedtls_rsa_gen_key_fn
 1706              		.globl	mbedtls_rsa_free_fn
 1707              		.globl	mbedtls_rsa_export_raw_fn
 1708              		.globl	mbedtls_rsa_export_crt_fn
 1709              		.globl	mbedtls_rsa_export_fn
 1710              		.globl	mbedtls_rsa_copy_fn
 1711              		.globl	mbedtls_rsa_complete_fn
 1712              		.globl	mbedtls_rsa_check_pubkey_fn
 1713              		.globl	mbedtls_rsa_check_pub_priv_fn
 1714              		.globl	mbedtls_rsa_check_privkey_fn
 1715              		.globl	mbedtls_mpi_write_string_fn
 1716              		.globl	mbedtls_mpi_read_string_fn
 1717              		.globl	mbedtls_mpi_mul_mpi_fn
 1718              		.globl	mbedtls_mpi_mul_int_fn
 1719              		.globl	mbedtls_mpi_mod_mpi_fn
 1720              		.globl	mbedtls_mpi_mod_int_fn
 1721              		.globl	mbedtls_mpi_is_prime_ext_fn
 1722              		.globl	mbedtls_mpi_is_prime_fn
 1723              		.globl	mbedtls_mpi_inv_mod_fn
 1724              		.globl	mbedtls_mpi_gen_prime_fn
 1725              		.globl	mbedtls_mpi_gcd_fn
 1726              		.globl	mbedtls_mpi_fill_random_fn
 1727              		.globl	mbedtls_mpi_exp_mod_sw_fn
 1728              		.globl	mbedtls_mpi_exp_mod_fn
 1729              		.globl	mbedtls_mpi_div_mpi_fn
 1730              		.globl	mbedtls_mpi_div_int_fn
 1731              		.globl	mbedtls_md5_update_ret_fn
 1732              		.globl	mbedtls_md5_update_fn
 1733              		.globl	mbedtls_md5_starts_ret_fn
 1734              		.globl	mbedtls_md5_starts_fn
 1735              		.globl	mbedtls_md5_ret_fn
 1736              		.globl	mbedtls_md5_process_fn
 1737              		.globl	mbedtls_md5_init_fn
 1738              		.globl	mbedtls_md5_free_fn
 1739              		.globl	mbedtls_md5_finish_ret_fn
 1740              		.globl	mbedtls_md5_finish_fn
 1741              		.globl	mbedtls_md5_clone_fn
 1742              		.globl	mbedtls_md5_fn
 1743              		.globl	mbedtls_internal_sha256_process_fn
 1744              		.globl	mbedtls_internal_md5_process_fn
 1745              		.globl	mbedtls_ecp_tls_write_point_fn
 1746              		.globl	mbedtls_ecp_tls_write_group_fn
 1747              		.globl	mbedtls_ecp_tls_read_point_fn
 1748              		.globl	mbedtls_ecp_tls_read_group_id_fn
 1749              		.globl	mbedtls_ecp_tls_read_group_fn
 1750              		.globl	mbedtls_ecp_set_zero_fn
 1751              		.globl	mbedtls_ecp_point_write_binary_fn
 1752              		.globl	mbedtls_ecp_point_read_string_fn
 1753              		.globl	mbedtls_ecp_point_read_binary_fn
 1754              		.globl	mbedtls_ecp_point_init_fn
 1755              		.globl	mbedtls_ecp_point_free_fn
 1756              		.globl	mbedtls_ecp_point_cmp_fn
 1757              		.globl	mbedtls_ecp_muladd_restartable_fn
 1758              		.globl	mbedtls_ecp_muladd_fn
 1759              		.globl	mbedtls_ecp_mul_restartable_fn
 1760              		.globl	mbedtls_ecp_mul_fn
 1761              		.globl	mbedtls_ecp_keypair_init_fn
 1762              		.globl	mbedtls_ecp_keypair_free_fn
 1763              		.globl	mbedtls_ecp_is_zero_fn
 1764              		.globl	mbedtls_ecp_grp_id_list_fn
 1765              		.globl	mbedtls_ecp_group_init_fn
 1766              		.globl	mbedtls_ecp_group_free_fn
 1767              		.globl	mbedtls_ecp_group_copy_fn
 1768              		.globl	mbedtls_ecp_gen_privkey_fn
 1769              		.globl	mbedtls_ecp_gen_keypair_base_fn
 1770              		.globl	mbedtls_ecp_gen_keypair_fn
 1771              		.globl	mbedtls_ecp_gen_key_fn
 1772              		.globl	mbedtls_ecp_curve_list_fn
 1773              		.globl	mbedtls_ecp_curve_info_from_tls_id_fn
 1774              		.globl	mbedtls_ecp_curve_info_from_name_fn
 1775              		.globl	mbedtls_ecp_curve_info_from_grp_id_fn
 1776              		.globl	mbedtls_ecp_copy_fn
 1777              		.globl	mbedtls_ecp_check_pubkey_fn
 1778              		.globl	mbedtls_ecp_check_pub_priv_fn
 1779              		.globl	mbedtls_ecp_check_privkey_fn
 1780              		.globl	mbedtls_ecdsa_write_signature_restartable_fn
 1781              		.globl	mbedtls_ecdsa_write_signature_det_fn
 1782              		.globl	mbedtls_ecdsa_write_signature_fn
 1783              		.globl	mbedtls_ecdsa_verify_fn
 1784              		.globl	mbedtls_ecdsa_sign_det_fn
 1785              		.globl	mbedtls_ecdsa_sign_fn
 1786              		.globl	mbedtls_ecdsa_read_signature_restartable_fn
 1787              		.globl	mbedtls_ecdsa_read_signature_fn
 1788              		.globl	mbedtls_ecdsa_init_fn
 1789              		.globl	mbedtls_ecdsa_genkey_fn
 1790              		.globl	mbedtls_ecdsa_from_keypair_fn
 1791              		.globl	mbedtls_ecdsa_free_fn
 1792              		.globl	ecp_supported_curves
 1793              		.section	.sbss.ecp_supported_curves,"aw",@nobits
 1794              		.align	2
 1795              		.set	.LANCHOR0,. + 0
 1798              	ecp_supported_curves:
 1799 0000 00000000 		.zero	4
 1800              		.section	.sbss.mbedtls_ecdsa_free_fn,"aw",@nobits
 1801              		.align	2
 1802              		.set	.LANCHOR1,. + 0
 1805              	mbedtls_ecdsa_free_fn:
 1806 0000 00000000 		.zero	4
 1807              		.section	.sbss.mbedtls_ecdsa_from_keypair_fn,"aw",@nobits
 1808              		.align	2
 1809              		.set	.LANCHOR2,. + 0
 1812              	mbedtls_ecdsa_from_keypair_fn:
 1813 0000 00000000 		.zero	4
 1814              		.section	.sbss.mbedtls_ecdsa_genkey_fn,"aw",@nobits
 1815              		.align	2
 1816              		.set	.LANCHOR3,. + 0
 1819              	mbedtls_ecdsa_genkey_fn:
 1820 0000 00000000 		.zero	4
 1821              		.section	.sbss.mbedtls_ecdsa_init_fn,"aw",@nobits
 1822              		.align	2
 1823              		.set	.LANCHOR4,. + 0
 1826              	mbedtls_ecdsa_init_fn:
 1827 0000 00000000 		.zero	4
 1828              		.section	.sbss.mbedtls_ecdsa_read_signature_fn,"aw",@nobits
 1829              		.align	2
 1830              		.set	.LANCHOR5,. + 0
 1833              	mbedtls_ecdsa_read_signature_fn:
 1834 0000 00000000 		.zero	4
 1835              		.section	.sbss.mbedtls_ecdsa_read_signature_restartable_fn,"aw",@nobits
 1836              		.align	2
 1837              		.set	.LANCHOR6,. + 0
 1840              	mbedtls_ecdsa_read_signature_restartable_fn:
 1841 0000 00000000 		.zero	4
 1842              		.section	.sbss.mbedtls_ecdsa_sign_det_fn,"aw",@nobits
 1843              		.align	2
 1844              		.set	.LANCHOR8,. + 0
 1847              	mbedtls_ecdsa_sign_det_fn:
 1848 0000 00000000 		.zero	4
 1849              		.section	.sbss.mbedtls_ecdsa_sign_fn,"aw",@nobits
 1850              		.align	2
 1851              		.set	.LANCHOR7,. + 0
 1854              	mbedtls_ecdsa_sign_fn:
 1855 0000 00000000 		.zero	4
 1856              		.section	.sbss.mbedtls_ecdsa_verify_fn,"aw",@nobits
 1857              		.align	2
 1858              		.set	.LANCHOR9,. + 0
 1861              	mbedtls_ecdsa_verify_fn:
 1862 0000 00000000 		.zero	4
 1863              		.section	.sbss.mbedtls_ecdsa_write_signature_det_fn,"aw",@nobits
 1864              		.align	2
 1865              		.set	.LANCHOR11,. + 0
 1868              	mbedtls_ecdsa_write_signature_det_fn:
 1869 0000 00000000 		.zero	4
 1870              		.section	.sbss.mbedtls_ecdsa_write_signature_fn,"aw",@nobits
 1871              		.align	2
 1872              		.set	.LANCHOR10,. + 0
 1875              	mbedtls_ecdsa_write_signature_fn:
 1876 0000 00000000 		.zero	4
 1877              		.section	.sbss.mbedtls_ecdsa_write_signature_restartable_fn,"aw",@nobits
 1878              		.align	2
 1879              		.set	.LANCHOR12,. + 0
 1882              	mbedtls_ecdsa_write_signature_restartable_fn:
 1883 0000 00000000 		.zero	4
 1884              		.section	.sbss.mbedtls_ecp_check_privkey_fn,"aw",@nobits
 1885              		.align	2
 1886              		.set	.LANCHOR13,. + 0
 1889              	mbedtls_ecp_check_privkey_fn:
 1890 0000 00000000 		.zero	4
 1891              		.section	.sbss.mbedtls_ecp_check_pub_priv_fn,"aw",@nobits
 1892              		.align	2
 1893              		.set	.LANCHOR14,. + 0
 1896              	mbedtls_ecp_check_pub_priv_fn:
 1897 0000 00000000 		.zero	4
 1898              		.section	.sbss.mbedtls_ecp_check_pubkey_fn,"aw",@nobits
 1899              		.align	2
 1900              		.set	.LANCHOR15,. + 0
 1903              	mbedtls_ecp_check_pubkey_fn:
 1904 0000 00000000 		.zero	4
 1905              		.section	.sbss.mbedtls_ecp_copy_fn,"aw",@nobits
 1906              		.align	2
 1907              		.set	.LANCHOR16,. + 0
 1910              	mbedtls_ecp_copy_fn:
 1911 0000 00000000 		.zero	4
 1912              		.section	.sbss.mbedtls_ecp_curve_info_from_grp_id_fn,"aw",@nobits
 1913              		.align	2
 1914              		.set	.LANCHOR17,. + 0
 1917              	mbedtls_ecp_curve_info_from_grp_id_fn:
 1918 0000 00000000 		.zero	4
 1919              		.section	.sbss.mbedtls_ecp_curve_info_from_name_fn,"aw",@nobits
 1920              		.align	2
 1921              		.set	.LANCHOR18,. + 0
 1924              	mbedtls_ecp_curve_info_from_name_fn:
 1925 0000 00000000 		.zero	4
 1926              		.section	.sbss.mbedtls_ecp_curve_info_from_tls_id_fn,"aw",@nobits
 1927              		.align	2
 1928              		.set	.LANCHOR19,. + 0
 1931              	mbedtls_ecp_curve_info_from_tls_id_fn:
 1932 0000 00000000 		.zero	4
 1933              		.section	.sbss.mbedtls_ecp_curve_list_fn,"aw",@nobits
 1934              		.align	2
 1935              		.set	.LANCHOR20,. + 0
 1938              	mbedtls_ecp_curve_list_fn:
 1939 0000 00000000 		.zero	4
 1940              		.section	.sbss.mbedtls_ecp_gen_key_fn,"aw",@nobits
 1941              		.align	2
 1942              		.set	.LANCHOR21,. + 0
 1945              	mbedtls_ecp_gen_key_fn:
 1946 0000 00000000 		.zero	4
 1947              		.section	.sbss.mbedtls_ecp_gen_keypair_base_fn,"aw",@nobits
 1948              		.align	2
 1949              		.set	.LANCHOR23,. + 0
 1952              	mbedtls_ecp_gen_keypair_base_fn:
 1953 0000 00000000 		.zero	4
 1954              		.section	.sbss.mbedtls_ecp_gen_keypair_fn,"aw",@nobits
 1955              		.align	2
 1956              		.set	.LANCHOR22,. + 0
 1959              	mbedtls_ecp_gen_keypair_fn:
 1960 0000 00000000 		.zero	4
 1961              		.section	.sbss.mbedtls_ecp_gen_privkey_fn,"aw",@nobits
 1962              		.align	2
 1963              		.set	.LANCHOR24,. + 0
 1966              	mbedtls_ecp_gen_privkey_fn:
 1967 0000 00000000 		.zero	4
 1968              		.section	.sbss.mbedtls_ecp_group_copy_fn,"aw",@nobits
 1969              		.align	2
 1970              		.set	.LANCHOR25,. + 0
 1973              	mbedtls_ecp_group_copy_fn:
 1974 0000 00000000 		.zero	4
 1975              		.section	.sbss.mbedtls_ecp_group_free_fn,"aw",@nobits
 1976              		.align	2
 1977              		.set	.LANCHOR26,. + 0
 1980              	mbedtls_ecp_group_free_fn:
 1981 0000 00000000 		.zero	4
 1982              		.section	.sbss.mbedtls_ecp_group_init_fn,"aw",@nobits
 1983              		.align	2
 1984              		.set	.LANCHOR27,. + 0
 1987              	mbedtls_ecp_group_init_fn:
 1988 0000 00000000 		.zero	4
 1989              		.section	.sbss.mbedtls_ecp_grp_id_list_fn,"aw",@nobits
 1990              		.align	2
 1991              		.set	.LANCHOR28,. + 0
 1994              	mbedtls_ecp_grp_id_list_fn:
 1995 0000 00000000 		.zero	4
 1996              		.section	.sbss.mbedtls_ecp_is_zero_fn,"aw",@nobits
 1997              		.align	2
 1998              		.set	.LANCHOR29,. + 0
 2001              	mbedtls_ecp_is_zero_fn:
 2002 0000 00000000 		.zero	4
 2003              		.section	.sbss.mbedtls_ecp_keypair_free_fn,"aw",@nobits
 2004              		.align	2
 2005              		.set	.LANCHOR30,. + 0
 2008              	mbedtls_ecp_keypair_free_fn:
 2009 0000 00000000 		.zero	4
 2010              		.section	.sbss.mbedtls_ecp_keypair_init_fn,"aw",@nobits
 2011              		.align	2
 2012              		.set	.LANCHOR31,. + 0
 2015              	mbedtls_ecp_keypair_init_fn:
 2016 0000 00000000 		.zero	4
 2017              		.section	.sbss.mbedtls_ecp_mul_fn,"aw",@nobits
 2018              		.align	2
 2019              		.set	.LANCHOR32,. + 0
 2022              	mbedtls_ecp_mul_fn:
 2023 0000 00000000 		.zero	4
 2024              		.section	.sbss.mbedtls_ecp_mul_restartable_fn,"aw",@nobits
 2025              		.align	2
 2026              		.set	.LANCHOR33,. + 0
 2029              	mbedtls_ecp_mul_restartable_fn:
 2030 0000 00000000 		.zero	4
 2031              		.section	.sbss.mbedtls_ecp_muladd_fn,"aw",@nobits
 2032              		.align	2
 2033              		.set	.LANCHOR34,. + 0
 2036              	mbedtls_ecp_muladd_fn:
 2037 0000 00000000 		.zero	4
 2038              		.section	.sbss.mbedtls_ecp_muladd_restartable_fn,"aw",@nobits
 2039              		.align	2
 2040              		.set	.LANCHOR35,. + 0
 2043              	mbedtls_ecp_muladd_restartable_fn:
 2044 0000 00000000 		.zero	4
 2045              		.section	.sbss.mbedtls_ecp_point_cmp_fn,"aw",@nobits
 2046              		.align	2
 2047              		.set	.LANCHOR36,. + 0
 2050              	mbedtls_ecp_point_cmp_fn:
 2051 0000 00000000 		.zero	4
 2052              		.section	.sbss.mbedtls_ecp_point_free_fn,"aw",@nobits
 2053              		.align	2
 2054              		.set	.LANCHOR37,. + 0
 2057              	mbedtls_ecp_point_free_fn:
 2058 0000 00000000 		.zero	4
 2059              		.section	.sbss.mbedtls_ecp_point_init_fn,"aw",@nobits
 2060              		.align	2
 2061              		.set	.LANCHOR38,. + 0
 2064              	mbedtls_ecp_point_init_fn:
 2065 0000 00000000 		.zero	4
 2066              		.section	.sbss.mbedtls_ecp_point_read_binary_fn,"aw",@nobits
 2067              		.align	2
 2068              		.set	.LANCHOR39,. + 0
 2071              	mbedtls_ecp_point_read_binary_fn:
 2072 0000 00000000 		.zero	4
 2073              		.section	.sbss.mbedtls_ecp_point_read_string_fn,"aw",@nobits
 2074              		.align	2
 2075              		.set	.LANCHOR40,. + 0
 2078              	mbedtls_ecp_point_read_string_fn:
 2079 0000 00000000 		.zero	4
 2080              		.section	.sbss.mbedtls_ecp_point_write_binary_fn,"aw",@nobits
 2081              		.align	2
 2082              		.set	.LANCHOR41,. + 0
 2085              	mbedtls_ecp_point_write_binary_fn:
 2086 0000 00000000 		.zero	4
 2087              		.section	.sbss.mbedtls_ecp_set_zero_fn,"aw",@nobits
 2088              		.align	2
 2089              		.set	.LANCHOR42,. + 0
 2092              	mbedtls_ecp_set_zero_fn:
 2093 0000 00000000 		.zero	4
 2094              		.section	.sbss.mbedtls_ecp_tls_read_group_fn,"aw",@nobits
 2095              		.align	2
 2096              		.set	.LANCHOR43,. + 0
 2099              	mbedtls_ecp_tls_read_group_fn:
 2100 0000 00000000 		.zero	4
 2101              		.section	.sbss.mbedtls_ecp_tls_read_group_id_fn,"aw",@nobits
 2102              		.align	2
 2103              		.set	.LANCHOR44,. + 0
 2106              	mbedtls_ecp_tls_read_group_id_fn:
 2107 0000 00000000 		.zero	4
 2108              		.section	.sbss.mbedtls_ecp_tls_read_point_fn,"aw",@nobits
 2109              		.align	2
 2110              		.set	.LANCHOR45,. + 0
 2113              	mbedtls_ecp_tls_read_point_fn:
 2114 0000 00000000 		.zero	4
 2115              		.section	.sbss.mbedtls_ecp_tls_write_group_fn,"aw",@nobits
 2116              		.align	2
 2117              		.set	.LANCHOR46,. + 0
 2120              	mbedtls_ecp_tls_write_group_fn:
 2121 0000 00000000 		.zero	4
 2122              		.section	.sbss.mbedtls_ecp_tls_write_point_fn,"aw",@nobits
 2123              		.align	2
 2124              		.set	.LANCHOR47,. + 0
 2127              	mbedtls_ecp_tls_write_point_fn:
 2128 0000 00000000 		.zero	4
 2129              		.section	.sbss.mbedtls_internal_md5_process_fn,"aw",@nobits
 2130              		.align	2
 2131              		.set	.LANCHOR48,. + 0
 2134              	mbedtls_internal_md5_process_fn:
 2135 0000 00000000 		.zero	4
 2136              		.section	.sbss.mbedtls_internal_sha256_process_fn,"aw",@nobits
 2137              		.align	2
 2138              		.set	.LANCHOR49,. + 0
 2141              	mbedtls_internal_sha256_process_fn:
 2142 0000 00000000 		.zero	4
 2143              		.section	.sbss.mbedtls_md5_clone_fn,"aw",@nobits
 2144              		.align	2
 2145              		.set	.LANCHOR51,. + 0
 2148              	mbedtls_md5_clone_fn:
 2149 0000 00000000 		.zero	4
 2150              		.section	.sbss.mbedtls_md5_finish_fn,"aw",@nobits
 2151              		.align	2
 2152              		.set	.LANCHOR52,. + 0
 2155              	mbedtls_md5_finish_fn:
 2156 0000 00000000 		.zero	4
 2157              		.section	.sbss.mbedtls_md5_finish_ret_fn,"aw",@nobits
 2158              		.align	2
 2159              		.set	.LANCHOR53,. + 0
 2162              	mbedtls_md5_finish_ret_fn:
 2163 0000 00000000 		.zero	4
 2164              		.section	.sbss.mbedtls_md5_fn,"aw",@nobits
 2165              		.align	2
 2166              		.set	.LANCHOR50,. + 0
 2169              	mbedtls_md5_fn:
 2170 0000 00000000 		.zero	4
 2171              		.section	.sbss.mbedtls_md5_free_fn,"aw",@nobits
 2172              		.align	2
 2173              		.set	.LANCHOR54,. + 0
 2176              	mbedtls_md5_free_fn:
 2177 0000 00000000 		.zero	4
 2178              		.section	.sbss.mbedtls_md5_init_fn,"aw",@nobits
 2179              		.align	2
 2180              		.set	.LANCHOR55,. + 0
 2183              	mbedtls_md5_init_fn:
 2184 0000 00000000 		.zero	4
 2185              		.section	.sbss.mbedtls_md5_process_fn,"aw",@nobits
 2186              		.align	2
 2187              		.set	.LANCHOR56,. + 0
 2190              	mbedtls_md5_process_fn:
 2191 0000 00000000 		.zero	4
 2192              		.section	.sbss.mbedtls_md5_ret_fn,"aw",@nobits
 2193              		.align	2
 2194              		.set	.LANCHOR57,. + 0
 2197              	mbedtls_md5_ret_fn:
 2198 0000 00000000 		.zero	4
 2199              		.section	.sbss.mbedtls_md5_starts_fn,"aw",@nobits
 2200              		.align	2
 2201              		.set	.LANCHOR58,. + 0
 2204              	mbedtls_md5_starts_fn:
 2205 0000 00000000 		.zero	4
 2206              		.section	.sbss.mbedtls_md5_starts_ret_fn,"aw",@nobits
 2207              		.align	2
 2208              		.set	.LANCHOR59,. + 0
 2211              	mbedtls_md5_starts_ret_fn:
 2212 0000 00000000 		.zero	4
 2213              		.section	.sbss.mbedtls_md5_update_fn,"aw",@nobits
 2214              		.align	2
 2215              		.set	.LANCHOR60,. + 0
 2218              	mbedtls_md5_update_fn:
 2219 0000 00000000 		.zero	4
 2220              		.section	.sbss.mbedtls_md5_update_ret_fn,"aw",@nobits
 2221              		.align	2
 2222              		.set	.LANCHOR61,. + 0
 2225              	mbedtls_md5_update_ret_fn:
 2226 0000 00000000 		.zero	4
 2227              		.section	.sbss.mbedtls_mpi_div_int_fn,"aw",@nobits
 2228              		.align	2
 2229              		.set	.LANCHOR62,. + 0
 2232              	mbedtls_mpi_div_int_fn:
 2233 0000 00000000 		.zero	4
 2234              		.section	.sbss.mbedtls_mpi_div_mpi_fn,"aw",@nobits
 2235              		.align	2
 2236              		.set	.LANCHOR63,. + 0
 2239              	mbedtls_mpi_div_mpi_fn:
 2240 0000 00000000 		.zero	4
 2241              		.section	.sbss.mbedtls_mpi_exp_mod_fn,"aw",@nobits
 2242              		.align	2
 2243              		.set	.LANCHOR64,. + 0
 2246              	mbedtls_mpi_exp_mod_fn:
 2247 0000 00000000 		.zero	4
 2248              		.section	.sbss.mbedtls_mpi_exp_mod_sw_fn,"aw",@nobits
 2249              		.align	2
 2250              		.set	.LANCHOR65,. + 0
 2253              	mbedtls_mpi_exp_mod_sw_fn:
 2254 0000 00000000 		.zero	4
 2255              		.section	.sbss.mbedtls_mpi_fill_random_fn,"aw",@nobits
 2256              		.align	2
 2257              		.set	.LANCHOR66,. + 0
 2260              	mbedtls_mpi_fill_random_fn:
 2261 0000 00000000 		.zero	4
 2262              		.section	.sbss.mbedtls_mpi_gcd_fn,"aw",@nobits
 2263              		.align	2
 2264              		.set	.LANCHOR67,. + 0
 2267              	mbedtls_mpi_gcd_fn:
 2268 0000 00000000 		.zero	4
 2269              		.section	.sbss.mbedtls_mpi_gen_prime_fn,"aw",@nobits
 2270              		.align	2
 2271              		.set	.LANCHOR68,. + 0
 2274              	mbedtls_mpi_gen_prime_fn:
 2275 0000 00000000 		.zero	4
 2276              		.section	.sbss.mbedtls_mpi_inv_mod_fn,"aw",@nobits
 2277              		.align	2
 2278              		.set	.LANCHOR69,. + 0
 2281              	mbedtls_mpi_inv_mod_fn:
 2282 0000 00000000 		.zero	4
 2283              		.section	.sbss.mbedtls_mpi_is_prime_ext_fn,"aw",@nobits
 2284              		.align	2
 2285              		.set	.LANCHOR71,. + 0
 2288              	mbedtls_mpi_is_prime_ext_fn:
 2289 0000 00000000 		.zero	4
 2290              		.section	.sbss.mbedtls_mpi_is_prime_fn,"aw",@nobits
 2291              		.align	2
 2292              		.set	.LANCHOR70,. + 0
 2295              	mbedtls_mpi_is_prime_fn:
 2296 0000 00000000 		.zero	4
 2297              		.section	.sbss.mbedtls_mpi_mod_int_fn,"aw",@nobits
 2298              		.align	2
 2299              		.set	.LANCHOR72,. + 0
 2302              	mbedtls_mpi_mod_int_fn:
 2303 0000 00000000 		.zero	4
 2304              		.section	.sbss.mbedtls_mpi_mod_mpi_fn,"aw",@nobits
 2305              		.align	2
 2306              		.set	.LANCHOR73,. + 0
 2309              	mbedtls_mpi_mod_mpi_fn:
 2310 0000 00000000 		.zero	4
 2311              		.section	.sbss.mbedtls_mpi_mul_int_fn,"aw",@nobits
 2312              		.align	2
 2313              		.set	.LANCHOR74,. + 0
 2316              	mbedtls_mpi_mul_int_fn:
 2317 0000 00000000 		.zero	4
 2318              		.section	.sbss.mbedtls_mpi_mul_mpi_fn,"aw",@nobits
 2319              		.align	2
 2320              		.set	.LANCHOR75,. + 0
 2323              	mbedtls_mpi_mul_mpi_fn:
 2324 0000 00000000 		.zero	4
 2325              		.section	.sbss.mbedtls_mpi_read_string_fn,"aw",@nobits
 2326              		.align	2
 2327              		.set	.LANCHOR76,. + 0
 2330              	mbedtls_mpi_read_string_fn:
 2331 0000 00000000 		.zero	4
 2332              		.section	.sbss.mbedtls_mpi_write_string_fn,"aw",@nobits
 2333              		.align	2
 2334              		.set	.LANCHOR77,. + 0
 2337              	mbedtls_mpi_write_string_fn:
 2338 0000 00000000 		.zero	4
 2339              		.section	.sbss.mbedtls_rsa_check_privkey_fn,"aw",@nobits
 2340              		.align	2
 2341              		.set	.LANCHOR78,. + 0
 2344              	mbedtls_rsa_check_privkey_fn:
 2345 0000 00000000 		.zero	4
 2346              		.section	.sbss.mbedtls_rsa_check_pub_priv_fn,"aw",@nobits
 2347              		.align	2
 2348              		.set	.LANCHOR79,. + 0
 2351              	mbedtls_rsa_check_pub_priv_fn:
 2352 0000 00000000 		.zero	4
 2353              		.section	.sbss.mbedtls_rsa_check_pubkey_fn,"aw",@nobits
 2354              		.align	2
 2355              		.set	.LANCHOR80,. + 0
 2358              	mbedtls_rsa_check_pubkey_fn:
 2359 0000 00000000 		.zero	4
 2360              		.section	.sbss.mbedtls_rsa_complete_fn,"aw",@nobits
 2361              		.align	2
 2362              		.set	.LANCHOR81,. + 0
 2365              	mbedtls_rsa_complete_fn:
 2366 0000 00000000 		.zero	4
 2367              		.section	.sbss.mbedtls_rsa_copy_fn,"aw",@nobits
 2368              		.align	2
 2369              		.set	.LANCHOR82,. + 0
 2372              	mbedtls_rsa_copy_fn:
 2373 0000 00000000 		.zero	4
 2374              		.section	.sbss.mbedtls_rsa_export_crt_fn,"aw",@nobits
 2375              		.align	2
 2376              		.set	.LANCHOR84,. + 0
 2379              	mbedtls_rsa_export_crt_fn:
 2380 0000 00000000 		.zero	4
 2381              		.section	.sbss.mbedtls_rsa_export_fn,"aw",@nobits
 2382              		.align	2
 2383              		.set	.LANCHOR83,. + 0
 2386              	mbedtls_rsa_export_fn:
 2387 0000 00000000 		.zero	4
 2388              		.section	.sbss.mbedtls_rsa_export_raw_fn,"aw",@nobits
 2389              		.align	2
 2390              		.set	.LANCHOR85,. + 0
 2393              	mbedtls_rsa_export_raw_fn:
 2394 0000 00000000 		.zero	4
 2395              		.section	.sbss.mbedtls_rsa_free_fn,"aw",@nobits
 2396              		.align	2
 2397              		.set	.LANCHOR86,. + 0
 2400              	mbedtls_rsa_free_fn:
 2401 0000 00000000 		.zero	4
 2402              		.section	.sbss.mbedtls_rsa_gen_key_fn,"aw",@nobits
 2403              		.align	2
 2404              		.set	.LANCHOR87,. + 0
 2407              	mbedtls_rsa_gen_key_fn:
 2408 0000 00000000 		.zero	4
 2409              		.section	.sbss.mbedtls_rsa_get_len_fn,"aw",@nobits
 2410              		.align	2
 2411              		.set	.LANCHOR88,. + 0
 2414              	mbedtls_rsa_get_len_fn:
 2415 0000 00000000 		.zero	4
 2416              		.section	.sbss.mbedtls_rsa_import_fn,"aw",@nobits
 2417              		.align	2
 2418              		.set	.LANCHOR89,. + 0
 2421              	mbedtls_rsa_import_fn:
 2422 0000 00000000 		.zero	4
 2423              		.section	.sbss.mbedtls_rsa_import_raw_fn,"aw",@nobits
 2424              		.align	2
 2425              		.set	.LANCHOR90,. + 0
 2428              	mbedtls_rsa_import_raw_fn:
 2429 0000 00000000 		.zero	4
 2430              		.section	.sbss.mbedtls_rsa_init_fn,"aw",@nobits
 2431              		.align	2
 2432              		.set	.LANCHOR91,. + 0
 2435              	mbedtls_rsa_init_fn:
 2436 0000 00000000 		.zero	4
 2437              		.section	.sbss.mbedtls_rsa_pkcs1_decrypt_fn,"aw",@nobits
 2438              		.align	2
 2439              		.set	.LANCHOR92,. + 0
 2442              	mbedtls_rsa_pkcs1_decrypt_fn:
 2443 0000 00000000 		.zero	4
 2444              		.section	.sbss.mbedtls_rsa_pkcs1_encrypt_fn,"aw",@nobits
 2445              		.align	2
 2446              		.set	.LANCHOR93,. + 0
 2449              	mbedtls_rsa_pkcs1_encrypt_fn:
 2450 0000 00000000 		.zero	4
 2451              		.section	.sbss.mbedtls_rsa_pkcs1_sign_fn,"aw",@nobits
 2452              		.align	2
 2453              		.set	.LANCHOR94,. + 0
 2456              	mbedtls_rsa_pkcs1_sign_fn:
 2457 0000 00000000 		.zero	4
 2458              		.section	.sbss.mbedtls_rsa_pkcs1_verify_fn,"aw",@nobits
 2459              		.align	2
 2460              		.set	.LANCHOR95,. + 0
 2463              	mbedtls_rsa_pkcs1_verify_fn:
 2464 0000 00000000 		.zero	4
 2465              		.section	.sbss.mbedtls_rsa_private_fn,"aw",@nobits
 2466              		.align	2
 2467              		.set	.LANCHOR96,. + 0
 2470              	mbedtls_rsa_private_fn:
 2471 0000 00000000 		.zero	4
 2472              		.section	.sbss.mbedtls_rsa_private_sw_fn,"aw",@nobits
 2473              		.align	2
 2474              		.set	.LANCHOR97,. + 0
 2477              	mbedtls_rsa_private_sw_fn:
 2478 0000 00000000 		.zero	4
 2479              		.section	.sbss.mbedtls_rsa_public_fn,"aw",@nobits
 2480              		.align	2
 2481              		.set	.LANCHOR98,. + 0
 2484              	mbedtls_rsa_public_fn:
 2485 0000 00000000 		.zero	4
 2486              		.section	.sbss.mbedtls_rsa_rsaes_oaep_decrypt_fn,"aw",@nobits
 2487              		.align	2
 2488              		.set	.LANCHOR99,. + 0
 2491              	mbedtls_rsa_rsaes_oaep_decrypt_fn:
 2492 0000 00000000 		.zero	4
 2493              		.section	.sbss.mbedtls_rsa_rsaes_oaep_encrypt_fn,"aw",@nobits
 2494              		.align	2
 2495              		.set	.LANCHOR100,. + 0
 2498              	mbedtls_rsa_rsaes_oaep_encrypt_fn:
 2499 0000 00000000 		.zero	4
 2500              		.section	.sbss.mbedtls_rsa_rsaes_pkcs1_v15_decrypt_fn,"aw",@nobits
 2501              		.align	2
 2502              		.set	.LANCHOR101,. + 0
 2505              	mbedtls_rsa_rsaes_pkcs1_v15_decrypt_fn:
 2506 0000 00000000 		.zero	4
 2507              		.section	.sbss.mbedtls_rsa_rsaes_pkcs1_v15_encrypt_fn,"aw",@nobits
 2508              		.align	2
 2509              		.set	.LANCHOR102,. + 0
 2512              	mbedtls_rsa_rsaes_pkcs1_v15_encrypt_fn:
 2513 0000 00000000 		.zero	4
 2514              		.section	.sbss.mbedtls_rsa_rsassa_pkcs1_v15_sign_fn,"aw",@nobits
 2515              		.align	2
 2516              		.set	.LANCHOR103,. + 0
 2519              	mbedtls_rsa_rsassa_pkcs1_v15_sign_fn:
 2520 0000 00000000 		.zero	4
 2521              		.section	.sbss.mbedtls_rsa_rsassa_pkcs1_v15_verify_fn,"aw",@nobits
 2522              		.align	2
 2523              		.set	.LANCHOR104,. + 0
 2526              	mbedtls_rsa_rsassa_pkcs1_v15_verify_fn:
 2527 0000 00000000 		.zero	4
 2528              		.section	.sbss.mbedtls_rsa_rsassa_pss_sign_fn,"aw",@nobits
 2529              		.align	2
 2530              		.set	.LANCHOR105,. + 0
 2533              	mbedtls_rsa_rsassa_pss_sign_fn:
 2534 0000 00000000 		.zero	4
 2535              		.section	.sbss.mbedtls_rsa_rsassa_pss_verify_ext_fn,"aw",@nobits
 2536              		.align	2
 2537              		.set	.LANCHOR107,. + 0
 2540              	mbedtls_rsa_rsassa_pss_verify_ext_fn:
 2541 0000 00000000 		.zero	4
 2542              		.section	.sbss.mbedtls_rsa_rsassa_pss_verify_fn,"aw",@nobits
 2543              		.align	2
 2544              		.set	.LANCHOR106,. + 0
 2547              	mbedtls_rsa_rsassa_pss_verify_fn:
 2548 0000 00000000 		.zero	4
 2549              		.section	.sbss.mbedtls_rsa_set_padding_fn,"aw",@nobits
 2550              		.align	2
 2551              		.set	.LANCHOR108,. + 0
 2554              	mbedtls_rsa_set_padding_fn:
 2555 0000 00000000 		.zero	4
 2556              		.section	.sbss.mbedtls_sha256_clone_fn,"aw",@nobits
 2557              		.align	2
 2558              		.set	.LANCHOR109,. + 0
 2561              	mbedtls_sha256_clone_fn:
 2562 0000 00000000 		.zero	4
 2563              		.section	.sbss.mbedtls_sha256_finish_fn,"aw",@nobits
 2564              		.align	2
 2565              		.set	.LANCHOR110,. + 0
 2568              	mbedtls_sha256_finish_fn:
 2569 0000 00000000 		.zero	4
 2570              		.section	.sbss.mbedtls_sha256_finish_ret_fn,"aw",@nobits
 2571              		.align	2
 2572              		.set	.LANCHOR111,. + 0
 2575              	mbedtls_sha256_finish_ret_fn:
 2576 0000 00000000 		.zero	4
 2577              		.section	.sbss.mbedtls_sha256_free_fn,"aw",@nobits
 2578              		.align	2
 2579              		.set	.LANCHOR112,. + 0
 2582              	mbedtls_sha256_free_fn:
 2583 0000 00000000 		.zero	4
 2584              		.section	.sbss.mbedtls_sha256_init_fn,"aw",@nobits
 2585              		.align	2
 2586              		.set	.LANCHOR113,. + 0
 2589              	mbedtls_sha256_init_fn:
 2590 0000 00000000 		.zero	4
 2591              		.section	.sbss.mbedtls_sha256_starts_fn,"aw",@nobits
 2592              		.align	2
 2593              		.set	.LANCHOR114,. + 0
 2596              	mbedtls_sha256_starts_fn:
 2597 0000 00000000 		.zero	4
 2598              		.section	.sbss.mbedtls_sha256_starts_ret_fn,"aw",@nobits
 2599              		.align	2
 2600              		.set	.LANCHOR115,. + 0
 2603              	mbedtls_sha256_starts_ret_fn:
 2604 0000 00000000 		.zero	4
 2605              		.section	.sbss.mbedtls_sha256_update_fn,"aw",@nobits
 2606              		.align	2
 2607              		.set	.LANCHOR116,. + 0
 2610              	mbedtls_sha256_update_fn:
 2611 0000 00000000 		.zero	4
 2612              		.section	.sbss.mbedtls_sha256_update_ret_fn,"aw",@nobits
 2613              		.align	2
 2614              		.set	.LANCHOR117,. + 0
 2617              	mbedtls_sha256_update_ret_fn:
 2618 0000 00000000 		.zero	4
 2619              		.text
 2620              	.Letext0:
 2621              		.file 2 "c:\\users\\stapi\\onedrive\\desktop\\gd32vw553\\embeddedbuilder_v1.4.7.26843\\tools\\nucl
 2622              		.file 3 "c:\\users\\stapi\\onedrive\\desktop\\gd32vw553\\embeddedbuilder_v1.4.7.26843\\tools\\nucl
 2623              		.file 4 "c:\\users\\stapi\\onedrive\\desktop\\gd32vw553\\embeddedbuilder_v1.4.7.26843\\tools\\nucl
 2624              		.file 5 "../../../../MSDK/plf/GD32VW55x_standard_peripheral/Include/gd32vw55x_hau.h"
 2625              		.file 6 "../../../../ROM-EXPORT/mbedtls-2.17.0-rom/include/mbedtls/md5.h"
 2626              		.file 7 "../../../../ROM-EXPORT/mbedtls-2.17.0-rom/include/mbedtls/sha256_alt.h"
 2627              		.file 8 "../../../../ROM-EXPORT/mbedtls-2.17.0-rom/include/mbedtls/md.h"
 2628              		.file 9 "../../../../ROM-EXPORT/mbedtls-2.17.0-rom/include/mbedtls/bignum.h"
 2629              		.file 10 "../../../../ROM-EXPORT/mbedtls-2.17.0-rom/include/mbedtls/ecp.h"
 2630              		.file 11 "../../../../ROM-EXPORT/mbedtls-2.17.0-rom/include/mbedtls/rsa.h"
 2631              		.file 12 "../../../../ROM-EXPORT/mbedtls-2.17.0-rom/include/mbedtls/ecdsa.h"
 2632              		.file 13 "../../../../ROM-EXPORT/bootloader/rom_export_mbedtls.h"
 2633              		.file 14 "../../../../ROM-EXPORT/mbedtls-2.17.0-rom/include/mbedtls/platform.h"
DEFINED SYMBOLS
                            *ABS*:0000000000000000 init_rom_symbol.c
C:\Users\stapi\AppData\Local\Temp\cckrLylG.s:13     .text.rom_symbol_init:0000000000000000 rom_symbol_init
C:\Users\stapi\AppData\Local\Temp\cckrLylG.s:17     .text.rom_symbol_init:0000000000000000 .L0 
C:\Users\stapi\AppData\Local\Temp\cckrLylG.s:18     .text.rom_symbol_init:0000000000000000 .L0 
C:\Users\stapi\AppData\Local\Temp\cckrLylG.s:19     .text.rom_symbol_init:0000000000000008 .L0 
C:\Users\stapi\AppData\Local\Temp\cckrLylG.s:20     .text.rom_symbol_init:0000000000000008 .L0 
C:\Users\stapi\AppData\Local\Temp\cckrLylG.s:21     .text.rom_symbol_init:0000000000000008 .L0 
C:\Users\stapi\AppData\Local\Temp\cckrLylG.s:22     .text.rom_symbol_init:0000000000000008 .L0 
C:\Users\stapi\AppData\Local\Temp\cckrLylG.s:23     .text.rom_symbol_init:0000000000000008 .L0 
C:\Users\stapi\AppData\Local\Temp\cckrLylG.s:24     .text.rom_symbol_init:0000000000000008 .L0 
C:\Users\stapi\AppData\Local\Temp\cckrLylG.s:25     .text.rom_symbol_init:0000000000000008 .L0 
C:\Users\stapi\AppData\Local\Temp\cckrLylG.s:26     .text.rom_symbol_init:0000000000000008 .L0 
C:\Users\stapi\AppData\Local\Temp\cckrLylG.s:27     .text.rom_symbol_init:0000000000000008 .L0 
C:\Users\stapi\AppData\Local\Temp\cckrLylG.s:28     .text.rom_symbol_init:0000000000000008 .L0 
C:\Users\stapi\AppData\Local\Temp\cckrLylG.s:29     .text.rom_symbol_init:0000000000000008 .L0 
C:\Users\stapi\AppData\Local\Temp\cckrLylG.s:30     .text.rom_symbol_init:0000000000000008 .L0 
C:\Users\stapi\AppData\Local\Temp\cckrLylG.s:31     .text.rom_symbol_init:0000000000000008 .L0 
C:\Users\stapi\AppData\Local\Temp\cckrLylG.s:32     .text.rom_symbol_init:0000000000000008 .L0 
C:\Users\stapi\AppData\Local\Temp\cckrLylG.s:36     .text.rom_symbol_init:0000000000000008 .L0 
C:\Users\stapi\AppData\Local\Temp\cckrLylG.s:37     .text.rom_symbol_init:0000000000000008 .L0 
C:\Users\stapi\AppData\Local\Temp\cckrLylG.s:38     .text.rom_symbol_init:0000000000000008 .L0 
C:\Users\stapi\AppData\Local\Temp\cckrLylG.s:44     .text.rom_symbol_init:0000000000000010 .L0 
C:\Users\stapi\AppData\Local\Temp\cckrLylG.s:45     .text.rom_symbol_init:0000000000000010 .L0 
C:\Users\stapi\AppData\Local\Temp\cckrLylG.s:46     .text.rom_symbol_init:0000000000000012 .L0 
C:\Users\stapi\AppData\Local\Temp\cckrLylG.s:48     .text.rom_symbol_init:0000000000000012 .L0 
C:\Users\stapi\AppData\Local\Temp\cckrLylG.s:51     .text.rom_symbol_init:000000000000001a .L0 
C:\Users\stapi\AppData\Local\Temp\cckrLylG.s:55     .text.rom_symbol_init:0000000000000026 .L0 
C:\Users\stapi\AppData\Local\Temp\cckrLylG.s:56     .text.rom_symbol_init:0000000000000026 .L0 
C:\Users\stapi\AppData\Local\Temp\cckrLylG.s:57     .text.rom_symbol_init:0000000000000026 .L0 
C:\Users\stapi\AppData\Local\Temp\cckrLylG.s:59     .text.rom_symbol_init:000000000000002a .L0 
C:\Users\stapi\AppData\Local\Temp\cckrLylG.s:61     .text.rom_symbol_init:000000000000002e .L0 
C:\Users\stapi\AppData\Local\Temp\cckrLylG.s:64     .text.rom_symbol_init:0000000000000036 .L0 
C:\Users\stapi\AppData\Local\Temp\cckrLylG.s:66     .text.rom_symbol_init:000000000000003a .L0 
C:\Users\stapi\AppData\Local\Temp\cckrLylG.s:68     .text.rom_symbol_init:000000000000003e .L0 
C:\Users\stapi\AppData\Local\Temp\cckrLylG.s:70     .text.rom_symbol_init:0000000000000042 .L0 
C:\Users\stapi\AppData\Local\Temp\cckrLylG.s:71     .text.rom_symbol_init:0000000000000042 .L0 
C:\Users\stapi\AppData\Local\Temp\cckrLylG.s:73     .text.rom_symbol_init:0000000000000046 .L0 
C:\Users\stapi\AppData\Local\Temp\cckrLylG.s:75     .text.rom_symbol_init:000000000000004a .L0 
C:\Users\stapi\AppData\Local\Temp\cckrLylG.s:77     .text.rom_symbol_init:000000000000004e .L0 
C:\Users\stapi\AppData\Local\Temp\cckrLylG.s:79     .text.rom_symbol_init:0000000000000052 .L0 
C:\Users\stapi\AppData\Local\Temp\cckrLylG.s:80     .text.rom_symbol_init:0000000000000052 .L0 
C:\Users\stapi\AppData\Local\Temp\cckrLylG.s:82     .text.rom_symbol_init:0000000000000056 .L0 
C:\Users\stapi\AppData\Local\Temp\cckrLylG.s:84     .text.rom_symbol_init:000000000000005a .L0 
C:\Users\stapi\AppData\Local\Temp\cckrLylG.s:86     .text.rom_symbol_init:000000000000005e .L0 
C:\Users\stapi\AppData\Local\Temp\cckrLylG.s:89     .text.rom_symbol_init:0000000000000066 .L0 
C:\Users\stapi\AppData\Local\Temp\cckrLylG.s:93     .text.rom_symbol_init:0000000000000072 .L0 
C:\Users\stapi\AppData\Local\Temp\cckrLylG.s:94     .text.rom_symbol_init:0000000000000072 .L0 
C:\Users\stapi\AppData\Local\Temp\cckrLylG.s:98     .text.rom_symbol_init:000000000000007e .L0 
C:\Users\stapi\AppData\Local\Temp\cckrLylG.s:99     .text.rom_symbol_init:000000000000007e .L0 
C:\Users\stapi\AppData\Local\Temp\cckrLylG.s:103    .text.rom_symbol_init:000000000000008a .L0 
C:\Users\stapi\AppData\Local\Temp\cckrLylG.s:104    .text.rom_symbol_init:000000000000008a .L0 
C:\Users\stapi\AppData\Local\Temp\cckrLylG.s:108    .text.rom_symbol_init:0000000000000096 .L0 
C:\Users\stapi\AppData\Local\Temp\cckrLylG.s:109    .text.rom_symbol_init:0000000000000096 .L0 
C:\Users\stapi\AppData\Local\Temp\cckrLylG.s:113    .text.rom_symbol_init:00000000000000a2 .L0 
C:\Users\stapi\AppData\Local\Temp\cckrLylG.s:114    .text.rom_symbol_init:00000000000000a2 .L0 
C:\Users\stapi\AppData\Local\Temp\cckrLylG.s:118    .text.rom_symbol_init:00000000000000ae .L0 
C:\Users\stapi\AppData\Local\Temp\cckrLylG.s:119    .text.rom_symbol_init:00000000000000ae .L0 
C:\Users\stapi\AppData\Local\Temp\cckrLylG.s:123    .text.rom_symbol_init:00000000000000ba .L0 
C:\Users\stapi\AppData\Local\Temp\cckrLylG.s:124    .text.rom_symbol_init:00000000000000ba .L0 
C:\Users\stapi\AppData\Local\Temp\cckrLylG.s:128    .text.rom_symbol_init:00000000000000c6 .L0 
C:\Users\stapi\AppData\Local\Temp\cckrLylG.s:129    .text.rom_symbol_init:00000000000000c6 .L0 
C:\Users\stapi\AppData\Local\Temp\cckrLylG.s:133    .text.rom_symbol_init:00000000000000d2 .L0 
C:\Users\stapi\AppData\Local\Temp\cckrLylG.s:134    .text.rom_symbol_init:00000000000000d2 .L0 
C:\Users\stapi\AppData\Local\Temp\cckrLylG.s:138    .text.rom_symbol_init:00000000000000de .L0 
C:\Users\stapi\AppData\Local\Temp\cckrLylG.s:139    .text.rom_symbol_init:00000000000000de .L0 
C:\Users\stapi\AppData\Local\Temp\cckrLylG.s:143    .text.rom_symbol_init:00000000000000ea .L0 
C:\Users\stapi\AppData\Local\Temp\cckrLylG.s:144    .text.rom_symbol_init:00000000000000ea .L0 
C:\Users\stapi\AppData\Local\Temp\cckrLylG.s:145    .text.rom_symbol_init:00000000000000ea .L0 
C:\Users\stapi\AppData\Local\Temp\cckrLylG.s:149    .text.rom_symbol_init:00000000000000f6 .L0 
C:\Users\stapi\AppData\Local\Temp\cckrLylG.s:153    .text.rom_symbol_init:0000000000000102 .L0 
C:\Users\stapi\AppData\Local\Temp\cckrLylG.s:157    .text.rom_symbol_init:000000000000010e .L0 
C:\Users\stapi\AppData\Local\Temp\cckrLylG.s:161    .text.rom_symbol_init:000000000000011a .L0 
C:\Users\stapi\AppData\Local\Temp\cckrLylG.s:165    .text.rom_symbol_init:0000000000000126 .L0 
C:\Users\stapi\AppData\Local\Temp\cckrLylG.s:169    .text.rom_symbol_init:0000000000000132 .L0 
C:\Users\stapi\AppData\Local\Temp\cckrLylG.s:171    .text.rom_symbol_init:0000000000000136 .L0 
C:\Users\stapi\AppData\Local\Temp\cckrLylG.s:174    .text.rom_symbol_init:000000000000013e .L0 
C:\Users\stapi\AppData\Local\Temp\cckrLylG.s:176    .text.rom_symbol_init:0000000000000142 .L0 
C:\Users\stapi\AppData\Local\Temp\cckrLylG.s:178    .text.rom_symbol_init:0000000000000146 .L0 
C:\Users\stapi\AppData\Local\Temp\cckrLylG.s:180    .text.rom_symbol_init:000000000000014a .L0 
C:\Users\stapi\AppData\Local\Temp\cckrLylG.s:181    .text.rom_symbol_init:000000000000014a .L0 
C:\Users\stapi\AppData\Local\Temp\cckrLylG.s:183    .text.rom_symbol_init:000000000000014e .L0 
C:\Users\stapi\AppData\Local\Temp\cckrLylG.s:185    .text.rom_symbol_init:0000000000000152 .L0 
C:\Users\stapi\AppData\Local\Temp\cckrLylG.s:187    .text.rom_symbol_init:0000000000000156 .L0 
C:\Users\stapi\AppData\Local\Temp\cckrLylG.s:189    .text.rom_symbol_init:000000000000015a .L0 
C:\Users\stapi\AppData\Local\Temp\cckrLylG.s:191    .text.rom_symbol_init:000000000000015e .L0 
C:\Users\stapi\AppData\Local\Temp\cckrLylG.s:193    .text.rom_symbol_init:0000000000000162 .L0 
C:\Users\stapi\AppData\Local\Temp\cckrLylG.s:195    .text.rom_symbol_init:0000000000000166 .L0 
C:\Users\stapi\AppData\Local\Temp\cckrLylG.s:197    .text.rom_symbol_init:000000000000016a .L0 
C:\Users\stapi\AppData\Local\Temp\cckrLylG.s:199    .text.rom_symbol_init:000000000000016e .L0 
C:\Users\stapi\AppData\Local\Temp\cckrLylG.s:201    .text.rom_symbol_init:0000000000000172 .L0 
C:\Users\stapi\AppData\Local\Temp\cckrLylG.s:203    .text.rom_symbol_init:0000000000000176 .L0 
C:\Users\stapi\AppData\Local\Temp\cckrLylG.s:204    .text.rom_symbol_init:0000000000000176 .L0 
C:\Users\stapi\AppData\Local\Temp\cckrLylG.s:205    .text.rom_symbol_init:0000000000000176 .L0 
C:\Users\stapi\AppData\Local\Temp\cckrLylG.s:206    .text.rom_symbol_init:0000000000000176 .L0 
C:\Users\stapi\AppData\Local\Temp\cckrLylG.s:207    .text.rom_symbol_init:0000000000000176 .L0 
C:\Users\stapi\AppData\Local\Temp\cckrLylG.s:208    .text.rom_symbol_init:0000000000000176 .L0 
C:\Users\stapi\AppData\Local\Temp\cckrLylG.s:209    .text.rom_symbol_init:0000000000000176 .L0 
C:\Users\stapi\AppData\Local\Temp\cckrLylG.s:210    .text.rom_symbol_init:0000000000000176 .L0 
C:\Users\stapi\AppData\Local\Temp\cckrLylG.s:211    .text.rom_symbol_init:0000000000000176 .L0 
C:\Users\stapi\AppData\Local\Temp\cckrLylG.s:212    .text.rom_symbol_init:0000000000000176 .L0 
C:\Users\stapi\AppData\Local\Temp\cckrLylG.s:214    .text.rom_symbol_init:000000000000017a .L0 
C:\Users\stapi\AppData\Local\Temp\cckrLylG.s:216    .text.rom_symbol_init:000000000000017e .L0 
C:\Users\stapi\AppData\Local\Temp\cckrLylG.s:218    .text.rom_symbol_init:0000000000000182 .L0 
C:\Users\stapi\AppData\Local\Temp\cckrLylG.s:220    .text.rom_symbol_init:0000000000000186 .L0 
C:\Users\stapi\AppData\Local\Temp\cckrLylG.s:222    .text.rom_symbol_init:000000000000018a .L0 
C:\Users\stapi\AppData\Local\Temp\cckrLylG.s:224    .text.rom_symbol_init:000000000000018e .L0 
C:\Users\stapi\AppData\Local\Temp\cckrLylG.s:226    .text.rom_symbol_init:0000000000000192 .L0 
C:\Users\stapi\AppData\Local\Temp\cckrLylG.s:228    .text.rom_symbol_init:0000000000000196 .L0 
C:\Users\stapi\AppData\Local\Temp\cckrLylG.s:230    .text.rom_symbol_init:000000000000019a .L0 
C:\Users\stapi\AppData\Local\Temp\cckrLylG.s:231    .text.rom_symbol_init:000000000000019a .L0 
C:\Users\stapi\AppData\Local\Temp\cckrLylG.s:232    .text.rom_symbol_init:000000000000019a .L0 
C:\Users\stapi\AppData\Local\Temp\cckrLylG.s:233    .text.rom_symbol_init:000000000000019a .L0 
C:\Users\stapi\AppData\Local\Temp\cckrLylG.s:234    .text.rom_symbol_init:000000000000019a .L0 
C:\Users\stapi\AppData\Local\Temp\cckrLylG.s:235    .text.rom_symbol_init:000000000000019a .L0 
C:\Users\stapi\AppData\Local\Temp\cckrLylG.s:237    .text.rom_symbol_init:000000000000019e .L0 
C:\Users\stapi\AppData\Local\Temp\cckrLylG.s:239    .text.rom_symbol_init:00000000000001a2 .L0 
C:\Users\stapi\AppData\Local\Temp\cckrLylG.s:241    .text.rom_symbol_init:00000000000001a6 .L0 
C:\Users\stapi\AppData\Local\Temp\cckrLylG.s:243    .text.rom_symbol_init:00000000000001aa .L0 
C:\Users\stapi\AppData\Local\Temp\cckrLylG.s:245    .text.rom_symbol_init:00000000000001ae .L0 
C:\Users\stapi\AppData\Local\Temp\cckrLylG.s:247    .text.rom_symbol_init:00000000000001b2 .L0 
C:\Users\stapi\AppData\Local\Temp\cckrLylG.s:249    .text.rom_symbol_init:00000000000001b6 .L0 
C:\Users\stapi\AppData\Local\Temp\cckrLylG.s:251    .text.rom_symbol_init:00000000000001ba .L0 
C:\Users\stapi\AppData\Local\Temp\cckrLylG.s:252    .text.rom_symbol_init:00000000000001ba .L0 
C:\Users\stapi\AppData\Local\Temp\cckrLylG.s:253    .text.rom_symbol_init:00000000000001ba .L0 
C:\Users\stapi\AppData\Local\Temp\cckrLylG.s:254    .text.rom_symbol_init:00000000000001ba .L0 
C:\Users\stapi\AppData\Local\Temp\cckrLylG.s:257    .text.rom_symbol_init:00000000000001c2 .L0 
C:\Users\stapi\AppData\Local\Temp\cckrLylG.s:258    .text.rom_symbol_init:00000000000001c2 .L0 
C:\Users\stapi\AppData\Local\Temp\cckrLylG.s:261    .text.rom_symbol_init:00000000000001ca .L0 
C:\Users\stapi\AppData\Local\Temp\cckrLylG.s:263    .text.rom_symbol_init:00000000000001ce .L0 
C:\Users\stapi\AppData\Local\Temp\cckrLylG.s:265    .text.rom_symbol_init:00000000000001d2 .L0 
C:\Users\stapi\AppData\Local\Temp\cckrLylG.s:266    .text.rom_symbol_init:00000000000001d2 .L0 
C:\Users\stapi\AppData\Local\Temp\cckrLylG.s:268    .text.rom_symbol_init:00000000000001d6 .L0 
C:\Users\stapi\AppData\Local\Temp\cckrLylG.s:270    .text.rom_symbol_init:00000000000001da .L0 
C:\Users\stapi\AppData\Local\Temp\cckrLylG.s:272    .text.rom_symbol_init:00000000000001de .L0 
C:\Users\stapi\AppData\Local\Temp\cckrLylG.s:273    .text.rom_symbol_init:00000000000001de .L0 
C:\Users\stapi\AppData\Local\Temp\cckrLylG.s:275    .text.rom_symbol_init:00000000000001e2 .L0 
C:\Users\stapi\AppData\Local\Temp\cckrLylG.s:277    .text.rom_symbol_init:00000000000001e6 .L0 
C:\Users\stapi\AppData\Local\Temp\cckrLylG.s:279    .text.rom_symbol_init:00000000000001ea .L0 
C:\Users\stapi\AppData\Local\Temp\cckrLylG.s:280    .text.rom_symbol_init:00000000000001ea .L0 
C:\Users\stapi\AppData\Local\Temp\cckrLylG.s:282    .text.rom_symbol_init:00000000000001ee .L0 
C:\Users\stapi\AppData\Local\Temp\cckrLylG.s:284    .text.rom_symbol_init:00000000000001f2 .L0 
C:\Users\stapi\AppData\Local\Temp\cckrLylG.s:286    .text.rom_symbol_init:00000000000001f6 .L0 
C:\Users\stapi\AppData\Local\Temp\cckrLylG.s:287    .text.rom_symbol_init:00000000000001f6 .L0 
C:\Users\stapi\AppData\Local\Temp\cckrLylG.s:289    .text.rom_symbol_init:00000000000001fa .L0 
C:\Users\stapi\AppData\Local\Temp\cckrLylG.s:291    .text.rom_symbol_init:00000000000001fe .L0 
C:\Users\stapi\AppData\Local\Temp\cckrLylG.s:293    .text.rom_symbol_init:0000000000000202 .L0 
C:\Users\stapi\AppData\Local\Temp\cckrLylG.s:294    .text.rom_symbol_init:0000000000000202 .L0 
C:\Users\stapi\AppData\Local\Temp\cckrLylG.s:296    .text.rom_symbol_init:0000000000000206 .L0 
C:\Users\stapi\AppData\Local\Temp\cckrLylG.s:298    .text.rom_symbol_init:000000000000020a .L0 
C:\Users\stapi\AppData\Local\Temp\cckrLylG.s:300    .text.rom_symbol_init:000000000000020e .L0 
C:\Users\stapi\AppData\Local\Temp\cckrLylG.s:301    .text.rom_symbol_init:000000000000020e .L0 
C:\Users\stapi\AppData\Local\Temp\cckrLylG.s:303    .text.rom_symbol_init:0000000000000212 .L0 
C:\Users\stapi\AppData\Local\Temp\cckrLylG.s:305    .text.rom_symbol_init:0000000000000216 .L0 
C:\Users\stapi\AppData\Local\Temp\cckrLylG.s:307    .text.rom_symbol_init:000000000000021a .L0 
C:\Users\stapi\AppData\Local\Temp\cckrLylG.s:308    .text.rom_symbol_init:000000000000021a .L0 
C:\Users\stapi\AppData\Local\Temp\cckrLylG.s:310    .text.rom_symbol_init:000000000000021e .L0 
C:\Users\stapi\AppData\Local\Temp\cckrLylG.s:312    .text.rom_symbol_init:0000000000000222 .L0 
C:\Users\stapi\AppData\Local\Temp\cckrLylG.s:314    .text.rom_symbol_init:0000000000000226 .L0 
C:\Users\stapi\AppData\Local\Temp\cckrLylG.s:315    .text.rom_symbol_init:0000000000000226 .L0 
C:\Users\stapi\AppData\Local\Temp\cckrLylG.s:318    .text.rom_symbol_init:000000000000022e .L0 
C:\Users\stapi\AppData\Local\Temp\cckrLylG.s:319    .text.rom_symbol_init:000000000000022e .L0 
C:\Users\stapi\AppData\Local\Temp\cckrLylG.s:322    .text.rom_symbol_init:0000000000000236 .L0 
C:\Users\stapi\AppData\Local\Temp\cckrLylG.s:324    .text.rom_symbol_init:000000000000023a .L0 
C:\Users\stapi\AppData\Local\Temp\cckrLylG.s:326    .text.rom_symbol_init:000000000000023e .L0 
C:\Users\stapi\AppData\Local\Temp\cckrLylG.s:327    .text.rom_symbol_init:000000000000023e .L0 
C:\Users\stapi\AppData\Local\Temp\cckrLylG.s:329    .text.rom_symbol_init:0000000000000242 .L0 
C:\Users\stapi\AppData\Local\Temp\cckrLylG.s:331    .text.rom_symbol_init:0000000000000246 .L0 
C:\Users\stapi\AppData\Local\Temp\cckrLylG.s:333    .text.rom_symbol_init:000000000000024a .L0 
C:\Users\stapi\AppData\Local\Temp\cckrLylG.s:334    .text.rom_symbol_init:000000000000024a .L0 
C:\Users\stapi\AppData\Local\Temp\cckrLylG.s:336    .text.rom_symbol_init:000000000000024e .L0 
C:\Users\stapi\AppData\Local\Temp\cckrLylG.s:338    .text.rom_symbol_init:0000000000000252 .L0 
C:\Users\stapi\AppData\Local\Temp\cckrLylG.s:340    .text.rom_symbol_init:0000000000000256 .L0 
C:\Users\stapi\AppData\Local\Temp\cckrLylG.s:341    .text.rom_symbol_init:0000000000000256 .L0 
C:\Users\stapi\AppData\Local\Temp\cckrLylG.s:343    .text.rom_symbol_init:000000000000025a .L0 
C:\Users\stapi\AppData\Local\Temp\cckrLylG.s:345    .text.rom_symbol_init:000000000000025e .L0 
C:\Users\stapi\AppData\Local\Temp\cckrLylG.s:347    .text.rom_symbol_init:0000000000000262 .L0 
C:\Users\stapi\AppData\Local\Temp\cckrLylG.s:348    .text.rom_symbol_init:0000000000000262 .L0 
C:\Users\stapi\AppData\Local\Temp\cckrLylG.s:350    .text.rom_symbol_init:0000000000000266 .L0 
C:\Users\stapi\AppData\Local\Temp\cckrLylG.s:352    .text.rom_symbol_init:000000000000026a .L0 
C:\Users\stapi\AppData\Local\Temp\cckrLylG.s:354    .text.rom_symbol_init:000000000000026e .L0 
C:\Users\stapi\AppData\Local\Temp\cckrLylG.s:355    .text.rom_symbol_init:000000000000026e .L0 
C:\Users\stapi\AppData\Local\Temp\cckrLylG.s:358    .text.rom_symbol_init:0000000000000276 .L0 
C:\Users\stapi\AppData\Local\Temp\cckrLylG.s:360    .text.rom_symbol_init:000000000000027a .L0 
C:\Users\stapi\AppData\Local\Temp\cckrLylG.s:362    .text.rom_symbol_init:000000000000027e .L0 
C:\Users\stapi\AppData\Local\Temp\cckrLylG.s:364    .text.rom_symbol_init:0000000000000282 .L0 
C:\Users\stapi\AppData\Local\Temp\cckrLylG.s:365    .text.rom_symbol_init:0000000000000282 .L0 
C:\Users\stapi\AppData\Local\Temp\cckrLylG.s:367    .text.rom_symbol_init:0000000000000286 .L0 
C:\Users\stapi\AppData\Local\Temp\cckrLylG.s:369    .text.rom_symbol_init:000000000000028a .L0 
C:\Users\stapi\AppData\Local\Temp\cckrLylG.s:371    .text.rom_symbol_init:000000000000028e .L0 
C:\Users\stapi\AppData\Local\Temp\cckrLylG.s:372    .text.rom_symbol_init:000000000000028e .L0 
C:\Users\stapi\AppData\Local\Temp\cckrLylG.s:374    .text.rom_symbol_init:0000000000000292 .L0 
C:\Users\stapi\AppData\Local\Temp\cckrLylG.s:376    .text.rom_symbol_init:0000000000000296 .L0 
C:\Users\stapi\AppData\Local\Temp\cckrLylG.s:378    .text.rom_symbol_init:000000000000029a .L0 
C:\Users\stapi\AppData\Local\Temp\cckrLylG.s:379    .text.rom_symbol_init:000000000000029a .L0 
C:\Users\stapi\AppData\Local\Temp\cckrLylG.s:381    .text.rom_symbol_init:000000000000029e .L0 
C:\Users\stapi\AppData\Local\Temp\cckrLylG.s:383    .text.rom_symbol_init:00000000000002a2 .L0 
C:\Users\stapi\AppData\Local\Temp\cckrLylG.s:385    .text.rom_symbol_init:00000000000002a6 .L0 
C:\Users\stapi\AppData\Local\Temp\cckrLylG.s:386    .text.rom_symbol_init:00000000000002a6 .L0 
C:\Users\stapi\AppData\Local\Temp\cckrLylG.s:388    .text.rom_symbol_init:00000000000002aa .L0 
C:\Users\stapi\AppData\Local\Temp\cckrLylG.s:390    .text.rom_symbol_init:00000000000002ae .L0 
C:\Users\stapi\AppData\Local\Temp\cckrLylG.s:392    .text.rom_symbol_init:00000000000002b2 .L0 
C:\Users\stapi\AppData\Local\Temp\cckrLylG.s:393    .text.rom_symbol_init:00000000000002b2 .L0 
C:\Users\stapi\AppData\Local\Temp\cckrLylG.s:395    .text.rom_symbol_init:00000000000002b6 .L0 
C:\Users\stapi\AppData\Local\Temp\cckrLylG.s:397    .text.rom_symbol_init:00000000000002ba .L0 
C:\Users\stapi\AppData\Local\Temp\cckrLylG.s:399    .text.rom_symbol_init:00000000000002be .L0 
C:\Users\stapi\AppData\Local\Temp\cckrLylG.s:400    .text.rom_symbol_init:00000000000002be .L0 
C:\Users\stapi\AppData\Local\Temp\cckrLylG.s:402    .text.rom_symbol_init:00000000000002c2 .L0 
C:\Users\stapi\AppData\Local\Temp\cckrLylG.s:404    .text.rom_symbol_init:00000000000002c6 .L0 
C:\Users\stapi\AppData\Local\Temp\cckrLylG.s:406    .text.rom_symbol_init:00000000000002ca .L0 
C:\Users\stapi\AppData\Local\Temp\cckrLylG.s:407    .text.rom_symbol_init:00000000000002ca .L0 
C:\Users\stapi\AppData\Local\Temp\cckrLylG.s:409    .text.rom_symbol_init:00000000000002ce .L0 
C:\Users\stapi\AppData\Local\Temp\cckrLylG.s:411    .text.rom_symbol_init:00000000000002d2 .L0 
C:\Users\stapi\AppData\Local\Temp\cckrLylG.s:413    .text.rom_symbol_init:00000000000002d6 .L0 
C:\Users\stapi\AppData\Local\Temp\cckrLylG.s:414    .text.rom_symbol_init:00000000000002d6 .L0 
C:\Users\stapi\AppData\Local\Temp\cckrLylG.s:416    .text.rom_symbol_init:00000000000002da .L0 
C:\Users\stapi\AppData\Local\Temp\cckrLylG.s:418    .text.rom_symbol_init:00000000000002de .L0 
C:\Users\stapi\AppData\Local\Temp\cckrLylG.s:420    .text.rom_symbol_init:00000000000002e2 .L0 
C:\Users\stapi\AppData\Local\Temp\cckrLylG.s:421    .text.rom_symbol_init:00000000000002e2 .L0 
C:\Users\stapi\AppData\Local\Temp\cckrLylG.s:423    .text.rom_symbol_init:00000000000002e6 .L0 
C:\Users\stapi\AppData\Local\Temp\cckrLylG.s:425    .text.rom_symbol_init:00000000000002ea .L0 
C:\Users\stapi\AppData\Local\Temp\cckrLylG.s:427    .text.rom_symbol_init:00000000000002ee .L0 
C:\Users\stapi\AppData\Local\Temp\cckrLylG.s:428    .text.rom_symbol_init:00000000000002ee .L0 
C:\Users\stapi\AppData\Local\Temp\cckrLylG.s:430    .text.rom_symbol_init:00000000000002f2 .L0 
C:\Users\stapi\AppData\Local\Temp\cckrLylG.s:432    .text.rom_symbol_init:00000000000002f6 .L0 
C:\Users\stapi\AppData\Local\Temp\cckrLylG.s:434    .text.rom_symbol_init:00000000000002fa .L0 
C:\Users\stapi\AppData\Local\Temp\cckrLylG.s:435    .text.rom_symbol_init:00000000000002fa .L0 
C:\Users\stapi\AppData\Local\Temp\cckrLylG.s:437    .text.rom_symbol_init:00000000000002fe .L0 
C:\Users\stapi\AppData\Local\Temp\cckrLylG.s:439    .text.rom_symbol_init:0000000000000302 .L0 
C:\Users\stapi\AppData\Local\Temp\cckrLylG.s:441    .text.rom_symbol_init:0000000000000306 .L0 
C:\Users\stapi\AppData\Local\Temp\cckrLylG.s:442    .text.rom_symbol_init:0000000000000306 .L0 
C:\Users\stapi\AppData\Local\Temp\cckrLylG.s:444    .text.rom_symbol_init:000000000000030a .L0 
C:\Users\stapi\AppData\Local\Temp\cckrLylG.s:447    .text.rom_symbol_init:0000000000000312 .L0 
C:\Users\stapi\AppData\Local\Temp\cckrLylG.s:448    .text.rom_symbol_init:0000000000000312 .L0 
C:\Users\stapi\AppData\Local\Temp\cckrLylG.s:452    .text.rom_symbol_init:000000000000031e .L0 
C:\Users\stapi\AppData\Local\Temp\cckrLylG.s:453    .text.rom_symbol_init:000000000000031e .L0 
C:\Users\stapi\AppData\Local\Temp\cckrLylG.s:457    .text.rom_symbol_init:000000000000032a .L0 
C:\Users\stapi\AppData\Local\Temp\cckrLylG.s:458    .text.rom_symbol_init:000000000000032a .L0 
C:\Users\stapi\AppData\Local\Temp\cckrLylG.s:463    .text.rom_symbol_init:000000000000033a .L0 
C:\Users\stapi\AppData\Local\Temp\cckrLylG.s:464    .text.rom_symbol_init:000000000000033a .L0 
C:\Users\stapi\AppData\Local\Temp\cckrLylG.s:468    .text.rom_symbol_init:0000000000000346 .L0 
C:\Users\stapi\AppData\Local\Temp\cckrLylG.s:469    .text.rom_symbol_init:0000000000000346 .L0 
C:\Users\stapi\AppData\Local\Temp\cckrLylG.s:474    .text.rom_symbol_init:0000000000000356 .L0 
C:\Users\stapi\AppData\Local\Temp\cckrLylG.s:475    .text.rom_symbol_init:0000000000000356 .L0 
C:\Users\stapi\AppData\Local\Temp\cckrLylG.s:477    .text.rom_symbol_init:000000000000035a .L0 
C:\Users\stapi\AppData\Local\Temp\cckrLylG.s:479    .text.rom_symbol_init:000000000000035e .L0 
C:\Users\stapi\AppData\Local\Temp\cckrLylG.s:481    .text.rom_symbol_init:0000000000000362 .L0 
C:\Users\stapi\AppData\Local\Temp\cckrLylG.s:483    .text.rom_symbol_init:0000000000000366 .L0 
C:\Users\stapi\AppData\Local\Temp\cckrLylG.s:486    .text.rom_symbol_init:000000000000036c .L0 
C:\Users\stapi\AppData\Local\Temp\cckrLylG.s:490    .text.rom_symbol_init:0000000000000378 .L0 
C:\Users\stapi\AppData\Local\Temp\cckrLylG.s:491    .text.rom_symbol_init:0000000000000378 .L0 
C:\Users\stapi\AppData\Local\Temp\cckrLylG.s:493    .text.rom_symbol_init:000000000000037c .L0 
C:\Users\stapi\AppData\Local\Temp\cckrLylG.s:495    .text.rom_symbol_init:0000000000000380 .L0 
C:\Users\stapi\AppData\Local\Temp\cckrLylG.s:498    .text.rom_symbol_init:0000000000000388 .L0 
C:\Users\stapi\AppData\Local\Temp\cckrLylG.s:500    .text.rom_symbol_init:000000000000038c .L0 
C:\Users\stapi\AppData\Local\Temp\cckrLylG.s:502    .text.rom_symbol_init:0000000000000390 .L0 
C:\Users\stapi\AppData\Local\Temp\cckrLylG.s:503    .text.rom_symbol_init:0000000000000390 .L0 
C:\Users\stapi\AppData\Local\Temp\cckrLylG.s:505    .text.rom_symbol_init:0000000000000394 .L0 
C:\Users\stapi\AppData\Local\Temp\cckrLylG.s:507    .text.rom_symbol_init:0000000000000398 .L0 
C:\Users\stapi\AppData\Local\Temp\cckrLylG.s:509    .text.rom_symbol_init:000000000000039c .L0 
C:\Users\stapi\AppData\Local\Temp\cckrLylG.s:510    .text.rom_symbol_init:000000000000039c .L0 
C:\Users\stapi\AppData\Local\Temp\cckrLylG.s:512    .text.rom_symbol_init:00000000000003a0 .L0 
C:\Users\stapi\AppData\Local\Temp\cckrLylG.s:514    .text.rom_symbol_init:00000000000003a4 .L0 
C:\Users\stapi\AppData\Local\Temp\cckrLylG.s:516    .text.rom_symbol_init:00000000000003a8 .L0 
C:\Users\stapi\AppData\Local\Temp\cckrLylG.s:517    .text.rom_symbol_init:00000000000003a8 .L0 
C:\Users\stapi\AppData\Local\Temp\cckrLylG.s:519    .text.rom_symbol_init:00000000000003ac .L0 
C:\Users\stapi\AppData\Local\Temp\cckrLylG.s:521    .text.rom_symbol_init:00000000000003b0 .L0 
C:\Users\stapi\AppData\Local\Temp\cckrLylG.s:523    .text.rom_symbol_init:00000000000003b4 .L0 
C:\Users\stapi\AppData\Local\Temp\cckrLylG.s:524    .text.rom_symbol_init:00000000000003b4 .L0 
C:\Users\stapi\AppData\Local\Temp\cckrLylG.s:526    .text.rom_symbol_init:00000000000003b8 .L0 
C:\Users\stapi\AppData\Local\Temp\cckrLylG.s:528    .text.rom_symbol_init:00000000000003bc .L0 
C:\Users\stapi\AppData\Local\Temp\cckrLylG.s:530    .text.rom_symbol_init:00000000000003c0 .L0 
C:\Users\stapi\AppData\Local\Temp\cckrLylG.s:531    .text.rom_symbol_init:00000000000003c0 .L0 
C:\Users\stapi\AppData\Local\Temp\cckrLylG.s:534    .text.rom_symbol_init:00000000000003c8 .L0 
C:\Users\stapi\AppData\Local\Temp\cckrLylG.s:536    .text.rom_symbol_init:00000000000003cc .L0 
C:\Users\stapi\AppData\Local\Temp\cckrLylG.s:538    .text.rom_symbol_init:00000000000003d0 .L0 
C:\Users\stapi\AppData\Local\Temp\cckrLylG.s:539    .text.rom_symbol_init:00000000000003d0 .L0 
C:\Users\stapi\AppData\Local\Temp\cckrLylG.s:541    .text.rom_symbol_init:00000000000003d4 .L0 
C:\Users\stapi\AppData\Local\Temp\cckrLylG.s:543    .text.rom_symbol_init:00000000000003d8 .L0 
C:\Users\stapi\AppData\Local\Temp\cckrLylG.s:545    .text.rom_symbol_init:00000000000003dc .L0 
C:\Users\stapi\AppData\Local\Temp\cckrLylG.s:546    .text.rom_symbol_init:00000000000003dc .L0 
C:\Users\stapi\AppData\Local\Temp\cckrLylG.s:548    .text.rom_symbol_init:00000000000003e0 .L0 
C:\Users\stapi\AppData\Local\Temp\cckrLylG.s:550    .text.rom_symbol_init:00000000000003e4 .L0 
C:\Users\stapi\AppData\Local\Temp\cckrLylG.s:552    .text.rom_symbol_init:00000000000003e8 .L0 
C:\Users\stapi\AppData\Local\Temp\cckrLylG.s:553    .text.rom_symbol_init:00000000000003e8 .L0 
C:\Users\stapi\AppData\Local\Temp\cckrLylG.s:555    .text.rom_symbol_init:00000000000003ec .L0 
C:\Users\stapi\AppData\Local\Temp\cckrLylG.s:557    .text.rom_symbol_init:00000000000003f0 .L0 
C:\Users\stapi\AppData\Local\Temp\cckrLylG.s:559    .text.rom_symbol_init:00000000000003f4 .L0 
C:\Users\stapi\AppData\Local\Temp\cckrLylG.s:560    .text.rom_symbol_init:00000000000003f4 .L0 
C:\Users\stapi\AppData\Local\Temp\cckrLylG.s:562    .text.rom_symbol_init:00000000000003f8 .L0 
C:\Users\stapi\AppData\Local\Temp\cckrLylG.s:564    .text.rom_symbol_init:00000000000003fc .L0 
C:\Users\stapi\AppData\Local\Temp\cckrLylG.s:566    .text.rom_symbol_init:0000000000000400 .L0 
C:\Users\stapi\AppData\Local\Temp\cckrLylG.s:567    .text.rom_symbol_init:0000000000000400 .L0 
C:\Users\stapi\AppData\Local\Temp\cckrLylG.s:570    .text.rom_symbol_init:0000000000000408 .L0 
C:\Users\stapi\AppData\Local\Temp\cckrLylG.s:572    .text.rom_symbol_init:000000000000040c .L0 
C:\Users\stapi\AppData\Local\Temp\cckrLylG.s:574    .text.rom_symbol_init:0000000000000410 .L0 
C:\Users\stapi\AppData\Local\Temp\cckrLylG.s:575    .text.rom_symbol_init:0000000000000410 .L0 
C:\Users\stapi\AppData\Local\Temp\cckrLylG.s:577    .text.rom_symbol_init:0000000000000414 .L0 
C:\Users\stapi\AppData\Local\Temp\cckrLylG.s:579    .text.rom_symbol_init:0000000000000418 .L0 
C:\Users\stapi\AppData\Local\Temp\cckrLylG.s:581    .text.rom_symbol_init:000000000000041c .L0 
C:\Users\stapi\AppData\Local\Temp\cckrLylG.s:582    .text.rom_symbol_init:000000000000041c .L0 
C:\Users\stapi\AppData\Local\Temp\cckrLylG.s:584    .text.rom_symbol_init:0000000000000420 .L0 
C:\Users\stapi\AppData\Local\Temp\cckrLylG.s:586    .text.rom_symbol_init:0000000000000424 .L0 
C:\Users\stapi\AppData\Local\Temp\cckrLylG.s:588    .text.rom_symbol_init:0000000000000428 .L0 
C:\Users\stapi\AppData\Local\Temp\cckrLylG.s:589    .text.rom_symbol_init:0000000000000428 .L0 
C:\Users\stapi\AppData\Local\Temp\cckrLylG.s:591    .text.rom_symbol_init:000000000000042c .L0 
C:\Users\stapi\AppData\Local\Temp\cckrLylG.s:593    .text.rom_symbol_init:0000000000000430 .L0 
C:\Users\stapi\AppData\Local\Temp\cckrLylG.s:595    .text.rom_symbol_init:0000000000000434 .L0 
C:\Users\stapi\AppData\Local\Temp\cckrLylG.s:596    .text.rom_symbol_init:0000000000000434 .L0 
C:\Users\stapi\AppData\Local\Temp\cckrLylG.s:599    .text.rom_symbol_init:000000000000043c .L0 
C:\Users\stapi\AppData\Local\Temp\cckrLylG.s:600    .text.rom_symbol_init:000000000000043c .L0 
C:\Users\stapi\AppData\Local\Temp\cckrLylG.s:602    .text.rom_symbol_init:0000000000000440 .L0 
C:\Users\stapi\AppData\Local\Temp\cckrLylG.s:604    .text.rom_symbol_init:0000000000000444 .L0 
C:\Users\stapi\AppData\Local\Temp\cckrLylG.s:606    .text.rom_symbol_init:0000000000000448 .L0 
C:\Users\stapi\AppData\Local\Temp\cckrLylG.s:607    .text.rom_symbol_init:0000000000000448 .L0 
C:\Users\stapi\AppData\Local\Temp\cckrLylG.s:610    .text.rom_symbol_init:0000000000000450 .L0 
C:\Users\stapi\AppData\Local\Temp\cckrLylG.s:611    .text.rom_symbol_init:0000000000000450 .L0 
C:\Users\stapi\AppData\Local\Temp\cckrLylG.s:613    .text.rom_symbol_init:0000000000000454 .L0 
C:\Users\stapi\AppData\Local\Temp\cckrLylG.s:615    .text.rom_symbol_init:0000000000000458 .L0 
C:\Users\stapi\AppData\Local\Temp\cckrLylG.s:617    .text.rom_symbol_init:000000000000045c .L0 
C:\Users\stapi\AppData\Local\Temp\cckrLylG.s:618    .text.rom_symbol_init:000000000000045c .L0 
C:\Users\stapi\AppData\Local\Temp\cckrLylG.s:621    .text.rom_symbol_init:0000000000000464 .L0 
C:\Users\stapi\AppData\Local\Temp\cckrLylG.s:622    .text.rom_symbol_init:0000000000000464 .L0 
C:\Users\stapi\AppData\Local\Temp\cckrLylG.s:624    .text.rom_symbol_init:0000000000000468 .L0 
C:\Users\stapi\AppData\Local\Temp\cckrLylG.s:627    .text.rom_symbol_init:0000000000000470 .L0 
C:\Users\stapi\AppData\Local\Temp\cckrLylG.s:628    .text.rom_symbol_init:0000000000000470 .L0 
C:\Users\stapi\AppData\Local\Temp\cckrLylG.s:631    .text.rom_symbol_init:0000000000000478 .L0 
C:\Users\stapi\AppData\Local\Temp\cckrLylG.s:633    .text.rom_symbol_init:000000000000047c .L0 
C:\Users\stapi\AppData\Local\Temp\cckrLylG.s:635    .text.rom_symbol_init:0000000000000480 .L0 
C:\Users\stapi\AppData\Local\Temp\cckrLylG.s:636    .text.rom_symbol_init:0000000000000480 .L0 
C:\Users\stapi\AppData\Local\Temp\cckrLylG.s:638    .text.rom_symbol_init:0000000000000484 .L0 
C:\Users\stapi\AppData\Local\Temp\cckrLylG.s:640    .text.rom_symbol_init:0000000000000486 .L0 
C:\Users\stapi\AppData\Local\Temp\cckrLylG.s:642    .text.rom_symbol_init:000000000000048a .L0 
C:\Users\stapi\AppData\Local\Temp\cckrLylG.s:644    .text.rom_symbol_init:000000000000048e .L0 
C:\Users\stapi\AppData\Local\Temp\cckrLylG.s:645    .text.rom_symbol_init:000000000000048e .L0 
C:\Users\stapi\AppData\Local\Temp\cckrLylG.s:648    .text.rom_symbol_init:0000000000000496 .L0 
C:\Users\stapi\AppData\Local\Temp\cckrLylG.s:649    .text.rom_symbol_init:0000000000000496 .L0 
C:\Users\stapi\AppData\Local\Temp\cckrLylG.s:651    .text.rom_symbol_init:000000000000049a .L0 
C:\Users\stapi\AppData\Local\Temp\cckrLylG.s:653    .text.rom_symbol_init:000000000000049e .L0 
C:\Users\stapi\AppData\Local\Temp\cckrLylG.s:655    .text.rom_symbol_init:00000000000004a2 .L0 
C:\Users\stapi\AppData\Local\Temp\cckrLylG.s:656    .text.rom_symbol_init:00000000000004a2 .L0 
C:\Users\stapi\AppData\Local\Temp\cckrLylG.s:659    .text.rom_symbol_init:00000000000004aa .L0 
C:\Users\stapi\AppData\Local\Temp\cckrLylG.s:660    .text.rom_symbol_init:00000000000004aa .L0 
C:\Users\stapi\AppData\Local\Temp\cckrLylG.s:664    .text.rom_symbol_init:00000000000004b6 .L0 
C:\Users\stapi\AppData\Local\Temp\cckrLylG.s:665    .text.rom_symbol_init:00000000000004b6 .L0 
C:\Users\stapi\AppData\Local\Temp\cckrLylG.s:670    .text.rom_symbol_init:00000000000004c6 .L0 
C:\Users\stapi\AppData\Local\Temp\cckrLylG.s:671    .text.rom_symbol_init:00000000000004c6 .L0 
C:\Users\stapi\AppData\Local\Temp\cckrLylG.s:675    .text.rom_symbol_init:00000000000004d2 .L0 
C:\Users\stapi\AppData\Local\Temp\cckrLylG.s:676    .text.rom_symbol_init:00000000000004d2 .L0 
C:\Users\stapi\AppData\Local\Temp\cckrLylG.s:680    .text.rom_symbol_init:00000000000004de .L0 
C:\Users\stapi\AppData\Local\Temp\cckrLylG.s:681    .text.rom_symbol_init:00000000000004de .L0 
C:\Users\stapi\AppData\Local\Temp\cckrLylG.s:685    .text.rom_symbol_init:00000000000004ea .L0 
C:\Users\stapi\AppData\Local\Temp\cckrLylG.s:686    .text.rom_symbol_init:00000000000004ea .L0 
C:\Users\stapi\AppData\Local\Temp\cckrLylG.s:688    .text.rom_symbol_init:00000000000004ee .L0 
C:\Users\stapi\AppData\Local\Temp\cckrLylG.s:691    .text.rom_symbol_init:00000000000004f6 .L0 
C:\Users\stapi\AppData\Local\Temp\cckrLylG.s:693    .text.rom_symbol_init:00000000000004fa .L0 
C:\Users\stapi\AppData\Local\Temp\cckrLylG.s:695    .text.rom_symbol_init:00000000000004fe .L0 
C:\Users\stapi\AppData\Local\Temp\cckrLylG.s:696    .text.rom_symbol_init:00000000000004fe .L0 
C:\Users\stapi\AppData\Local\Temp\cckrLylG.s:698    .text.rom_symbol_init:0000000000000502 .L0 
C:\Users\stapi\AppData\Local\Temp\cckrLylG.s:700    .text.rom_symbol_init:0000000000000506 .L0 
C:\Users\stapi\AppData\Local\Temp\cckrLylG.s:702    .text.rom_symbol_init:000000000000050a .L0 
C:\Users\stapi\AppData\Local\Temp\cckrLylG.s:704    .text.rom_symbol_init:000000000000050e .L0 
C:\Users\stapi\AppData\Local\Temp\cckrLylG.s:706    .text.rom_symbol_init:0000000000000512 .L0 
C:\Users\stapi\AppData\Local\Temp\cckrLylG.s:708    .text.rom_symbol_init:0000000000000516 .L0 
C:\Users\stapi\AppData\Local\Temp\cckrLylG.s:710    .text.rom_symbol_init:000000000000051a .L0 
C:\Users\stapi\AppData\Local\Temp\cckrLylG.s:712    .text.rom_symbol_init:000000000000051e .L0 
C:\Users\stapi\AppData\Local\Temp\cckrLylG.s:714    .text.rom_symbol_init:0000000000000522 .L0 
C:\Users\stapi\AppData\Local\Temp\cckrLylG.s:716    .text.rom_symbol_init:0000000000000526 .L0 
C:\Users\stapi\AppData\Local\Temp\cckrLylG.s:718    .text.rom_symbol_init:000000000000052a .L0 
C:\Users\stapi\AppData\Local\Temp\cckrLylG.s:720    .text.rom_symbol_init:000000000000052e .L0 
C:\Users\stapi\AppData\Local\Temp\cckrLylG.s:722    .text.rom_symbol_init:0000000000000532 .L0 
C:\Users\stapi\AppData\Local\Temp\cckrLylG.s:724    .text.rom_symbol_init:0000000000000536 .L0 
C:\Users\stapi\AppData\Local\Temp\cckrLylG.s:726    .text.rom_symbol_init:000000000000053a .L0 
C:\Users\stapi\AppData\Local\Temp\cckrLylG.s:728    .text.rom_symbol_init:000000000000053e .L0 
C:\Users\stapi\AppData\Local\Temp\cckrLylG.s:730    .text.rom_symbol_init:0000000000000542 .L0 
C:\Users\stapi\AppData\Local\Temp\cckrLylG.s:732    .text.rom_symbol_init:0000000000000546 .L0 
C:\Users\stapi\AppData\Local\Temp\cckrLylG.s:734    .text.rom_symbol_init:000000000000054a .L0 
C:\Users\stapi\AppData\Local\Temp\cckrLylG.s:736    .text.rom_symbol_init:000000000000054e .L0 
C:\Users\stapi\AppData\Local\Temp\cckrLylG.s:738    .text.rom_symbol_init:0000000000000552 .L0 
C:\Users\stapi\AppData\Local\Temp\cckrLylG.s:740    .text.rom_symbol_init:0000000000000556 .L0 
C:\Users\stapi\AppData\Local\Temp\cckrLylG.s:742    .text.rom_symbol_init:000000000000055a .L0 
C:\Users\stapi\AppData\Local\Temp\cckrLylG.s:744    .text.rom_symbol_init:000000000000055e .L0 
C:\Users\stapi\AppData\Local\Temp\cckrLylG.s:746    .text.rom_symbol_init:0000000000000562 .L0 
C:\Users\stapi\AppData\Local\Temp\cckrLylG.s:748    .text.rom_symbol_init:0000000000000566 .L0 
C:\Users\stapi\AppData\Local\Temp\cckrLylG.s:751    .text.rom_symbol_init:000000000000056e .L0 
C:\Users\stapi\AppData\Local\Temp\cckrLylG.s:754    .text.rom_symbol_init:0000000000000576 .L0 
C:\Users\stapi\AppData\Local\Temp\cckrLylG.s:756    .text.rom_symbol_init:000000000000057a .L0 
C:\Users\stapi\AppData\Local\Temp\cckrLylG.s:758    .text.rom_symbol_init:000000000000057e .L0 
C:\Users\stapi\AppData\Local\Temp\cckrLylG.s:760    .text.rom_symbol_init:0000000000000582 .L0 
C:\Users\stapi\AppData\Local\Temp\cckrLylG.s:762    .text.rom_symbol_init:0000000000000586 .L0 
C:\Users\stapi\AppData\Local\Temp\cckrLylG.s:764    .text.rom_symbol_init:000000000000058a .L0 
C:\Users\stapi\AppData\Local\Temp\cckrLylG.s:766    .text.rom_symbol_init:000000000000058e .L0 
C:\Users\stapi\AppData\Local\Temp\cckrLylG.s:768    .text.rom_symbol_init:0000000000000592 .L0 
C:\Users\stapi\AppData\Local\Temp\cckrLylG.s:770    .text.rom_symbol_init:0000000000000596 .L0 
C:\Users\stapi\AppData\Local\Temp\cckrLylG.s:772    .text.rom_symbol_init:000000000000059a .L0 
C:\Users\stapi\AppData\Local\Temp\cckrLylG.s:774    .text.rom_symbol_init:000000000000059e .L0 
C:\Users\stapi\AppData\Local\Temp\cckrLylG.s:776    .text.rom_symbol_init:00000000000005a2 .L0 
C:\Users\stapi\AppData\Local\Temp\cckrLylG.s:778    .text.rom_symbol_init:00000000000005a6 .L0 
C:\Users\stapi\AppData\Local\Temp\cckrLylG.s:780    .text.rom_symbol_init:00000000000005aa .L0 
C:\Users\stapi\AppData\Local\Temp\cckrLylG.s:782    .text.rom_symbol_init:00000000000005ae .L0 
C:\Users\stapi\AppData\Local\Temp\cckrLylG.s:785    .text.rom_symbol_init:00000000000005b6 .L0 
C:\Users\stapi\AppData\Local\Temp\cckrLylG.s:787    .text.rom_symbol_init:00000000000005ba .L0 
C:\Users\stapi\AppData\Local\Temp\cckrLylG.s:789    .text.rom_symbol_init:00000000000005be .L0 
C:\Users\stapi\AppData\Local\Temp\cckrLylG.s:790    .text.rom_symbol_init:00000000000005be .L0 
C:\Users\stapi\AppData\Local\Temp\cckrLylG.s:791    .text.rom_symbol_init:00000000000005be .L0 
C:\Users\stapi\AppData\Local\Temp\cckrLylG.s:792    .text.rom_symbol_init:00000000000005be .L0 
C:\Users\stapi\AppData\Local\Temp\cckrLylG.s:793    .text.rom_symbol_init:00000000000005be .L0 
C:\Users\stapi\AppData\Local\Temp\cckrLylG.s:794    .text.rom_symbol_init:00000000000005be .L0 
C:\Users\stapi\AppData\Local\Temp\cckrLylG.s:795    .text.rom_symbol_init:00000000000005be .L0 
C:\Users\stapi\AppData\Local\Temp\cckrLylG.s:796    .text.rom_symbol_init:00000000000005be .L0 
C:\Users\stapi\AppData\Local\Temp\cckrLylG.s:797    .text.rom_symbol_init:00000000000005be .L0 
C:\Users\stapi\AppData\Local\Temp\cckrLylG.s:798    .text.rom_symbol_init:00000000000005be .L0 
C:\Users\stapi\AppData\Local\Temp\cckrLylG.s:799    .text.rom_symbol_init:00000000000005be .L0 
C:\Users\stapi\AppData\Local\Temp\cckrLylG.s:800    .text.rom_symbol_init:00000000000005be .L0 
C:\Users\stapi\AppData\Local\Temp\cckrLylG.s:801    .text.rom_symbol_init:00000000000005be .L0 
C:\Users\stapi\AppData\Local\Temp\cckrLylG.s:802    .text.rom_symbol_init:00000000000005be .L0 
C:\Users\stapi\AppData\Local\Temp\cckrLylG.s:803    .text.rom_symbol_init:00000000000005be .L0 
C:\Users\stapi\AppData\Local\Temp\cckrLylG.s:804    .text.rom_symbol_init:00000000000005be .L0 
C:\Users\stapi\AppData\Local\Temp\cckrLylG.s:805    .text.rom_symbol_init:00000000000005be .L0 
C:\Users\stapi\AppData\Local\Temp\cckrLylG.s:807    .text.rom_symbol_init:00000000000005c2 .L0 
C:\Users\stapi\AppData\Local\Temp\cckrLylG.s:808    .text.rom_symbol_init:00000000000005c2 .L0 
C:\Users\stapi\AppData\Local\Temp\cckrLylG.s:811    .text.rom_symbol_init:00000000000005ca .L0 
C:\Users\stapi\AppData\Local\Temp\cckrLylG.s:813    .text.rom_symbol_init:00000000000005ce .L0 
C:\Users\stapi\AppData\Local\Temp\cckrLylG.s:815    .text.rom_symbol_init:00000000000005d2 .L0 
C:\Users\stapi\AppData\Local\Temp\cckrLylG.s:816    .text.rom_symbol_init:00000000000005d2 .L0 
C:\Users\stapi\AppData\Local\Temp\cckrLylG.s:819    .text.rom_symbol_init:00000000000005da .L0 
C:\Users\stapi\AppData\Local\Temp\cckrLylG.s:820    .text.rom_symbol_init:00000000000005da .L0 
C:\Users\stapi\AppData\Local\Temp\cckrLylG.s:824    .text.rom_symbol_init:00000000000005e6 .L0 
C:\Users\stapi\AppData\Local\Temp\cckrLylG.s:825    .text.rom_symbol_init:00000000000005e6 .L0 
C:\Users\stapi\AppData\Local\Temp\cckrLylG.s:829    .text.rom_symbol_init:00000000000005f2 .L0 
C:\Users\stapi\AppData\Local\Temp\cckrLylG.s:830    .text.rom_symbol_init:00000000000005f4 .L0 
C:\Users\stapi\AppData\Local\Temp\cckrLylG.s:831    .text.rom_symbol_init:00000000000005f4 .L0 
C:\Users\stapi\AppData\Local\Temp\cckrLylG.s:833    .text.rom_symbol_init:00000000000005fc .L0 
C:\Users\stapi\AppData\Local\Temp\cckrLylG.s:834    .text.rom_symbol_init:00000000000005fc .L0 
C:\Users\stapi\AppData\Local\Temp\cckrLylG.s:835    .text.rom_symbol_init:00000000000005fc .L0 
C:\Users\stapi\AppData\Local\Temp\cckrLylG.s:836    .text.rom_symbol_init:00000000000005fc .L0 
C:\Users\stapi\AppData\Local\Temp\cckrLylG.s:837    .text.rom_symbol_init:00000000000005fc .L0 
C:\Users\stapi\AppData\Local\Temp\cckrLylG.s:838    .text.rom_symbol_init:00000000000005fc .L0 
C:\Users\stapi\AppData\Local\Temp\cckrLylG.s:839    .text.rom_symbol_init:00000000000005fc .L0 
C:\Users\stapi\AppData\Local\Temp\cckrLylG.s:840    .text.rom_symbol_init:00000000000005fc .L0 
C:\Users\stapi\AppData\Local\Temp\cckrLylG.s:841    .text.rom_symbol_init:00000000000005fc .L0 
C:\Users\stapi\AppData\Local\Temp\cckrLylG.s:842    .text.rom_symbol_init:00000000000005fc .L0 
C:\Users\stapi\AppData\Local\Temp\cckrLylG.s:843    .text.rom_symbol_init:00000000000005fc .L0 
C:\Users\stapi\AppData\Local\Temp\cckrLylG.s:844    .text.rom_symbol_init:00000000000005fc .L0 
C:\Users\stapi\AppData\Local\Temp\cckrLylG.s:845    .text.rom_symbol_init:00000000000005fc .L0 
C:\Users\stapi\AppData\Local\Temp\cckrLylG.s:846    .text.rom_symbol_init:00000000000005fc .L0 
C:\Users\stapi\AppData\Local\Temp\cckrLylG.s:849    .text.rom_symbol_init:00000000000005fc .L0 
C:\Users\stapi\AppData\Local\Temp\cckrLylG.s:851    .text.rom_symbol_init:00000000000005fc .L0 
C:\Users\stapi\AppData\Local\Temp\cckrLylG.s:855    .text.rom_symbol_init:0000000000000608 .L0 
C:\Users\stapi\AppData\Local\Temp\cckrLylG.s:856    .text.rom_symbol_init:0000000000000608 .L0 
C:\Users\stapi\AppData\Local\Temp\cckrLylG.s:857    .text.rom_symbol_init:0000000000000608 .L0 
C:\Users\stapi\AppData\Local\Temp\cckrLylG.s:859    .text.rom_symbol_init:000000000000060c .L0 
C:\Users\stapi\AppData\Local\Temp\cckrLylG.s:861    .text.rom_symbol_init:0000000000000610 .L0 
C:\Users\stapi\AppData\Local\Temp\cckrLylG.s:864    .text.rom_symbol_init:0000000000000618 .L0 
C:\Users\stapi\AppData\Local\Temp\cckrLylG.s:866    .text.rom_symbol_init:000000000000061c .L0 
C:\Users\stapi\AppData\Local\Temp\cckrLylG.s:868    .text.rom_symbol_init:0000000000000620 .L0 
C:\Users\stapi\AppData\Local\Temp\cckrLylG.s:869    .text.rom_symbol_init:0000000000000620 .L0 
C:\Users\stapi\AppData\Local\Temp\cckrLylG.s:871    .text.rom_symbol_init:0000000000000624 .L0 
C:\Users\stapi\AppData\Local\Temp\cckrLylG.s:873    .text.rom_symbol_init:0000000000000628 .L0 
C:\Users\stapi\AppData\Local\Temp\cckrLylG.s:875    .text.rom_symbol_init:000000000000062c .L0 
C:\Users\stapi\AppData\Local\Temp\cckrLylG.s:876    .text.rom_symbol_init:000000000000062c .L0 
C:\Users\stapi\AppData\Local\Temp\cckrLylG.s:878    .text.rom_symbol_init:0000000000000630 .L0 
C:\Users\stapi\AppData\Local\Temp\cckrLylG.s:880    .text.rom_symbol_init:0000000000000634 .L0 
C:\Users\stapi\AppData\Local\Temp\cckrLylG.s:882    .text.rom_symbol_init:0000000000000638 .L0 
C:\Users\stapi\AppData\Local\Temp\cckrLylG.s:883    .text.rom_symbol_init:0000000000000638 .L0 
C:\Users\stapi\AppData\Local\Temp\cckrLylG.s:885    .text.rom_symbol_init:000000000000063c .L0 
C:\Users\stapi\AppData\Local\Temp\cckrLylG.s:887    .text.rom_symbol_init:0000000000000640 .L0 
C:\Users\stapi\AppData\Local\Temp\cckrLylG.s:889    .text.rom_symbol_init:0000000000000644 .L0 
C:\Users\stapi\AppData\Local\Temp\cckrLylG.s:890    .text.rom_symbol_init:0000000000000644 .L0 
C:\Users\stapi\AppData\Local\Temp\cckrLylG.s:892    .text.rom_symbol_init:0000000000000648 .L0 
C:\Users\stapi\AppData\Local\Temp\cckrLylG.s:894    .text.rom_symbol_init:000000000000064c .L0 
C:\Users\stapi\AppData\Local\Temp\cckrLylG.s:896    .text.rom_symbol_init:0000000000000650 .L0 
C:\Users\stapi\AppData\Local\Temp\cckrLylG.s:897    .text.rom_symbol_init:0000000000000650 .L0 
C:\Users\stapi\AppData\Local\Temp\cckrLylG.s:899    .text.rom_symbol_init:0000000000000654 .L0 
C:\Users\stapi\AppData\Local\Temp\cckrLylG.s:901    .text.rom_symbol_init:0000000000000658 .L0 
C:\Users\stapi\AppData\Local\Temp\cckrLylG.s:903    .text.rom_symbol_init:000000000000065c .L0 
C:\Users\stapi\AppData\Local\Temp\cckrLylG.s:904    .text.rom_symbol_init:000000000000065c .L0 
C:\Users\stapi\AppData\Local\Temp\cckrLylG.s:906    .text.rom_symbol_init:0000000000000660 .L0 
C:\Users\stapi\AppData\Local\Temp\cckrLylG.s:908    .text.rom_symbol_init:0000000000000664 .L0 
C:\Users\stapi\AppData\Local\Temp\cckrLylG.s:910    .text.rom_symbol_init:0000000000000668 .L0 
C:\Users\stapi\AppData\Local\Temp\cckrLylG.s:911    .text.rom_symbol_init:0000000000000668 .L0 
C:\Users\stapi\AppData\Local\Temp\cckrLylG.s:913    .text.rom_symbol_init:000000000000066c .L0 
C:\Users\stapi\AppData\Local\Temp\cckrLylG.s:915    .text.rom_symbol_init:0000000000000670 .L0 
C:\Users\stapi\AppData\Local\Temp\cckrLylG.s:917    .text.rom_symbol_init:0000000000000674 .L0 
C:\Users\stapi\AppData\Local\Temp\cckrLylG.s:918    .text.rom_symbol_init:0000000000000674 .L0 
C:\Users\stapi\AppData\Local\Temp\cckrLylG.s:920    .text.rom_symbol_init:0000000000000678 .L0 
C:\Users\stapi\AppData\Local\Temp\cckrLylG.s:922    .text.rom_symbol_init:000000000000067c .L0 
C:\Users\stapi\AppData\Local\Temp\cckrLylG.s:924    .text.rom_symbol_init:0000000000000680 .L0 
C:\Users\stapi\AppData\Local\Temp\cckrLylG.s:925    .text.rom_symbol_init:0000000000000680 .L0 
C:\Users\stapi\AppData\Local\Temp\cckrLylG.s:927    .text.rom_symbol_init:0000000000000684 .L0 
C:\Users\stapi\AppData\Local\Temp\cckrLylG.s:929    .text.rom_symbol_init:0000000000000688 .L0 
C:\Users\stapi\AppData\Local\Temp\cckrLylG.s:931    .text.rom_symbol_init:000000000000068c .L0 
C:\Users\stapi\AppData\Local\Temp\cckrLylG.s:932    .text.rom_symbol_init:000000000000068c .L0 
C:\Users\stapi\AppData\Local\Temp\cckrLylG.s:934    .text.rom_symbol_init:0000000000000690 .L0 
C:\Users\stapi\AppData\Local\Temp\cckrLylG.s:936    .text.rom_symbol_init:0000000000000694 .L0 
C:\Users\stapi\AppData\Local\Temp\cckrLylG.s:938    .text.rom_symbol_init:0000000000000698 .L0 
C:\Users\stapi\AppData\Local\Temp\cckrLylG.s:939    .text.rom_symbol_init:0000000000000698 .L0 
C:\Users\stapi\AppData\Local\Temp\cckrLylG.s:941    .text.rom_symbol_init:000000000000069c .L0 
C:\Users\stapi\AppData\Local\Temp\cckrLylG.s:943    .text.rom_symbol_init:00000000000006a0 .L0 
C:\Users\stapi\AppData\Local\Temp\cckrLylG.s:945    .text.rom_symbol_init:00000000000006a4 .L0 
C:\Users\stapi\AppData\Local\Temp\cckrLylG.s:946    .text.rom_symbol_init:00000000000006a4 .L0 
C:\Users\stapi\AppData\Local\Temp\cckrLylG.s:949    .text.rom_symbol_init:00000000000006ac .L0 
C:\Users\stapi\AppData\Local\Temp\cckrLylG.s:951    .text.rom_symbol_init:00000000000006b0 .L0 
C:\Users\stapi\AppData\Local\Temp\cckrLylG.s:953    .text.rom_symbol_init:00000000000006b4 .L0 
C:\Users\stapi\AppData\Local\Temp\cckrLylG.s:955    .text.rom_symbol_init:00000000000006b8 .L0 
C:\Users\stapi\AppData\Local\Temp\cckrLylG.s:956    .text.rom_symbol_init:00000000000006b8 .L0 
C:\Users\stapi\AppData\Local\Temp\cckrLylG.s:958    .text.rom_symbol_init:00000000000006bc .L0 
C:\Users\stapi\AppData\Local\Temp\cckrLylG.s:960    .text.rom_symbol_init:00000000000006c0 .L0 
C:\Users\stapi\AppData\Local\Temp\cckrLylG.s:962    .text.rom_symbol_init:00000000000006c4 .L0 
C:\Users\stapi\AppData\Local\Temp\cckrLylG.s:963    .text.rom_symbol_init:00000000000006c4 .L0 
C:\Users\stapi\AppData\Local\Temp\cckrLylG.s:965    .text.rom_symbol_init:00000000000006c8 .L0 
C:\Users\stapi\AppData\Local\Temp\cckrLylG.s:967    .text.rom_symbol_init:00000000000006cc .L0 
C:\Users\stapi\AppData\Local\Temp\cckrLylG.s:969    .text.rom_symbol_init:00000000000006d0 .L0 
C:\Users\stapi\AppData\Local\Temp\cckrLylG.s:971    .text.rom_symbol_init:00000000000006d4 .L0 
C:\Users\stapi\AppData\Local\Temp\cckrLylG.s:973    .text.rom_symbol_init:00000000000006d8 .L0 
C:\Users\stapi\AppData\Local\Temp\cckrLylG.s:975    .text.rom_symbol_init:00000000000006dc .L0 
C:\Users\stapi\AppData\Local\Temp\cckrLylG.s:977    .text.rom_symbol_init:00000000000006e0 .L0 
C:\Users\stapi\AppData\Local\Temp\cckrLylG.s:979    .text.rom_symbol_init:00000000000006e4 .L0 
C:\Users\stapi\AppData\Local\Temp\cckrLylG.s:981    .text.rom_symbol_init:00000000000006e8 .L0 
C:\Users\stapi\AppData\Local\Temp\cckrLylG.s:983    .text.rom_symbol_init:00000000000006ec .L0 
C:\Users\stapi\AppData\Local\Temp\cckrLylG.s:985    .text.rom_symbol_init:00000000000006f0 .L0 
C:\Users\stapi\AppData\Local\Temp\cckrLylG.s:987    .text.rom_symbol_init:00000000000006f4 .L0 
C:\Users\stapi\AppData\Local\Temp\cckrLylG.s:989    .text.rom_symbol_init:00000000000006f8 .L0 
C:\Users\stapi\AppData\Local\Temp\cckrLylG.s:991    .text.rom_symbol_init:00000000000006fc .L0 
C:\Users\stapi\AppData\Local\Temp\cckrLylG.s:993    .text.rom_symbol_init:0000000000000700 .L0 
C:\Users\stapi\AppData\Local\Temp\cckrLylG.s:995    .text.rom_symbol_init:0000000000000704 .L0 
C:\Users\stapi\AppData\Local\Temp\cckrLylG.s:997    .text.rom_symbol_init:0000000000000708 .L0 
C:\Users\stapi\AppData\Local\Temp\cckrLylG.s:999    .text.rom_symbol_init:000000000000070c .L0 
C:\Users\stapi\AppData\Local\Temp\cckrLylG.s:1001   .text.rom_symbol_init:0000000000000710 .L0 
C:\Users\stapi\AppData\Local\Temp\cckrLylG.s:1003   .text.rom_symbol_init:0000000000000714 .L0 
C:\Users\stapi\AppData\Local\Temp\cckrLylG.s:1005   .text.rom_symbol_init:0000000000000718 .L0 
C:\Users\stapi\AppData\Local\Temp\cckrLylG.s:1007   .text.rom_symbol_init:000000000000071c .L0 
C:\Users\stapi\AppData\Local\Temp\cckrLylG.s:1009   .text.rom_symbol_init:0000000000000720 .L0 
C:\Users\stapi\AppData\Local\Temp\cckrLylG.s:1011   .text.rom_symbol_init:0000000000000724 .L0 
C:\Users\stapi\AppData\Local\Temp\cckrLylG.s:1013   .text.rom_symbol_init:0000000000000728 .L0 
C:\Users\stapi\AppData\Local\Temp\cckrLylG.s:1015   .text.rom_symbol_init:000000000000072c .L0 
C:\Users\stapi\AppData\Local\Temp\cckrLylG.s:1017   .text.rom_symbol_init:0000000000000730 .L0 
C:\Users\stapi\AppData\Local\Temp\cckrLylG.s:1019   .text.rom_symbol_init:0000000000000734 .L0 
C:\Users\stapi\AppData\Local\Temp\cckrLylG.s:1021   .text.rom_symbol_init:0000000000000738 .L0 
C:\Users\stapi\AppData\Local\Temp\cckrLylG.s:1023   .text.rom_symbol_init:000000000000073c .L0 
C:\Users\stapi\AppData\Local\Temp\cckrLylG.s:1025   .text.rom_symbol_init:0000000000000740 .L0 
C:\Users\stapi\AppData\Local\Temp\cckrLylG.s:1027   .text.rom_symbol_init:0000000000000744 .L0 
C:\Users\stapi\AppData\Local\Temp\cckrLylG.s:1029   .text.rom_symbol_init:0000000000000748 .L0 
C:\Users\stapi\AppData\Local\Temp\cckrLylG.s:1031   .text.rom_symbol_init:000000000000074c .L0 
C:\Users\stapi\AppData\Local\Temp\cckrLylG.s:1033   .text.rom_symbol_init:0000000000000750 .L0 
C:\Users\stapi\AppData\Local\Temp\cckrLylG.s:1035   .text.rom_symbol_init:0000000000000754 .L0 
C:\Users\stapi\AppData\Local\Temp\cckrLylG.s:1037   .text.rom_symbol_init:0000000000000758 .L0 
C:\Users\stapi\AppData\Local\Temp\cckrLylG.s:1039   .text.rom_symbol_init:000000000000075c .L0 
C:\Users\stapi\AppData\Local\Temp\cckrLylG.s:1042   .text.rom_symbol_init:0000000000000764 .L0 
C:\Users\stapi\AppData\Local\Temp\cckrLylG.s:1044   .text.rom_symbol_init:0000000000000768 .L0 
C:\Users\stapi\AppData\Local\Temp\cckrLylG.s:1046   .text.rom_symbol_init:000000000000076c .L0 
C:\Users\stapi\AppData\Local\Temp\cckrLylG.s:1048   .text.rom_symbol_init:0000000000000770 .L0 
C:\Users\stapi\AppData\Local\Temp\cckrLylG.s:1050   .text.rom_symbol_init:0000000000000774 .L0 
C:\Users\stapi\AppData\Local\Temp\cckrLylG.s:1052   .text.rom_symbol_init:0000000000000778 .L0 
C:\Users\stapi\AppData\Local\Temp\cckrLylG.s:1056   .text.rom_symbol_init:0000000000000784 .L0 
C:\Users\stapi\AppData\Local\Temp\cckrLylG.s:1058   .text.rom_symbol_init:0000000000000786 .L0 
C:\Users\stapi\AppData\Local\Temp\cckrLylG.s:1060   .text.rom_symbol_init:000000000000078a .L0 
C:\Users\stapi\AppData\Local\Temp\cckrLylG.s:1062   .text.rom_symbol_init:000000000000078e .L0 
C:\Users\stapi\AppData\Local\Temp\cckrLylG.s:1064   .text.rom_symbol_init:0000000000000792 .L0 
C:\Users\stapi\AppData\Local\Temp\cckrLylG.s:1066   .text.rom_symbol_init:0000000000000796 .L0 
C:\Users\stapi\AppData\Local\Temp\cckrLylG.s:1068   .text.rom_symbol_init:000000000000079a .L0 
C:\Users\stapi\AppData\Local\Temp\cckrLylG.s:1070   .text.rom_symbol_init:000000000000079e .L0 
C:\Users\stapi\AppData\Local\Temp\cckrLylG.s:1072   .text.rom_symbol_init:00000000000007a2 .L0 
C:\Users\stapi\AppData\Local\Temp\cckrLylG.s:1073   .text.rom_symbol_init:00000000000007a2 .L0 
C:\Users\stapi\AppData\Local\Temp\cckrLylG.s:1074   .text.rom_symbol_init:00000000000007a2 .L0 
C:\Users\stapi\AppData\Local\Temp\cckrLylG.s:1075   .text.rom_symbol_init:00000000000007a2 .L0 
C:\Users\stapi\AppData\Local\Temp\cckrLylG.s:1076   .text.rom_symbol_init:00000000000007a2 .L0 
C:\Users\stapi\AppData\Local\Temp\cckrLylG.s:1077   .text.rom_symbol_init:00000000000007a2 .L0 
C:\Users\stapi\AppData\Local\Temp\cckrLylG.s:1078   .text.rom_symbol_init:00000000000007a2 .L0 
C:\Users\stapi\AppData\Local\Temp\cckrLylG.s:1079   .text.rom_symbol_init:00000000000007a2 .L0 
C:\Users\stapi\AppData\Local\Temp\cckrLylG.s:1081   .text.rom_symbol_init:00000000000007a6 .L0 
C:\Users\stapi\AppData\Local\Temp\cckrLylG.s:1085   .text.rom_symbol_init:00000000000007b2 .L0 
C:\Users\stapi\AppData\Local\Temp\cckrLylG.s:1086   .text.rom_symbol_init:00000000000007b2 .L0 
C:\Users\stapi\AppData\Local\Temp\cckrLylG.s:1087   .text.rom_symbol_init:00000000000007b2 .L0 
C:\Users\stapi\AppData\Local\Temp\cckrLylG.s:1088   .text.rom_symbol_init:00000000000007b2 .L0 
C:\Users\stapi\AppData\Local\Temp\cckrLylG.s:1089   .text.rom_symbol_init:00000000000007b2 .L0 
C:\Users\stapi\AppData\Local\Temp\cckrLylG.s:1090   .text.rom_symbol_init:00000000000007b2 .L0 
C:\Users\stapi\AppData\Local\Temp\cckrLylG.s:1091   .text.rom_symbol_init:00000000000007b2 .L0 
C:\Users\stapi\AppData\Local\Temp\cckrLylG.s:1092   .text.rom_symbol_init:00000000000007b2 .L0 
C:\Users\stapi\AppData\Local\Temp\cckrLylG.s:1093   .text.rom_symbol_init:00000000000007b2 .L0 
C:\Users\stapi\AppData\Local\Temp\cckrLylG.s:1094   .text.rom_symbol_init:00000000000007b2 .L0 
C:\Users\stapi\AppData\Local\Temp\cckrLylG.s:1095   .text.rom_symbol_init:00000000000007b2 .L0 
C:\Users\stapi\AppData\Local\Temp\cckrLylG.s:1096   .text.rom_symbol_init:00000000000007b2 .L0 
C:\Users\stapi\AppData\Local\Temp\cckrLylG.s:1098   .text.rom_symbol_init:00000000000007b6 .L0 
C:\Users\stapi\AppData\Local\Temp\cckrLylG.s:1100   .text.rom_symbol_init:00000000000007ba .L0 
C:\Users\stapi\AppData\Local\Temp\cckrLylG.s:1101   .text.rom_symbol_init:00000000000007ba .L0 
C:\Users\stapi\AppData\Local\Temp\cckrLylG.s:1103   .text.rom_symbol_init:00000000000007be .L0 
C:\Users\stapi\AppData\Local\Temp\cckrLylG.s:1105   .text.rom_symbol_init:00000000000007c2 .L0 
C:\Users\stapi\AppData\Local\Temp\cckrLylG.s:1107   .text.rom_symbol_init:00000000000007c6 .L0 
C:\Users\stapi\AppData\Local\Temp\cckrLylG.s:1108   .text.rom_symbol_init:00000000000007c6 .L0 
C:\Users\stapi\AppData\Local\Temp\cckrLylG.s:1110   .text.rom_symbol_init:00000000000007ca .L0 
C:\Users\stapi\AppData\Local\Temp\cckrLylG.s:1112   .text.rom_symbol_init:00000000000007ce .L0 
C:\Users\stapi\AppData\Local\Temp\cckrLylG.s:1114   .text.rom_symbol_init:00000000000007d2 .L0 
C:\Users\stapi\AppData\Local\Temp\cckrLylG.s:1115   .text.rom_symbol_init:00000000000007d2 .L0 
C:\Users\stapi\AppData\Local\Temp\cckrLylG.s:1117   .text.rom_symbol_init:00000000000007d6 .L0 
C:\Users\stapi\AppData\Local\Temp\cckrLylG.s:1119   .text.rom_symbol_init:00000000000007da .L0 
C:\Users\stapi\AppData\Local\Temp\cckrLylG.s:1121   .text.rom_symbol_init:00000000000007de .L0 
C:\Users\stapi\AppData\Local\Temp\cckrLylG.s:1122   .text.rom_symbol_init:00000000000007de .L0 
C:\Users\stapi\AppData\Local\Temp\cckrLylG.s:1124   .text.rom_symbol_init:00000000000007e2 .L0 
C:\Users\stapi\AppData\Local\Temp\cckrLylG.s:1126   .text.rom_symbol_init:00000000000007e6 .L0 
C:\Users\stapi\AppData\Local\Temp\cckrLylG.s:1128   .text.rom_symbol_init:00000000000007ea .L0 
C:\Users\stapi\AppData\Local\Temp\cckrLylG.s:1129   .text.rom_symbol_init:00000000000007ea .L0 
C:\Users\stapi\AppData\Local\Temp\cckrLylG.s:1131   .text.rom_symbol_init:00000000000007ee .L0 
C:\Users\stapi\AppData\Local\Temp\cckrLylG.s:1133   .text.rom_symbol_init:00000000000007f2 .L0 
C:\Users\stapi\AppData\Local\Temp\cckrLylG.s:1135   .text.rom_symbol_init:00000000000007f6 .L0 
C:\Users\stapi\AppData\Local\Temp\cckrLylG.s:1136   .text.rom_symbol_init:00000000000007f6 .L0 
C:\Users\stapi\AppData\Local\Temp\cckrLylG.s:1138   .text.rom_symbol_init:00000000000007fa .L0 
C:\Users\stapi\AppData\Local\Temp\cckrLylG.s:1140   .text.rom_symbol_init:00000000000007fe .L0 
C:\Users\stapi\AppData\Local\Temp\cckrLylG.s:1142   .text.rom_symbol_init:0000000000000802 .L0 
C:\Users\stapi\AppData\Local\Temp\cckrLylG.s:1143   .text.rom_symbol_init:0000000000000802 .L0 
C:\Users\stapi\AppData\Local\Temp\cckrLylG.s:1145   .text.rom_symbol_init:0000000000000806 .L0 
C:\Users\stapi\AppData\Local\Temp\cckrLylG.s:1147   .text.rom_symbol_init:000000000000080a .L0 
C:\Users\stapi\AppData\Local\Temp\cckrLylG.s:1149   .text.rom_symbol_init:000000000000080e .L0 
C:\Users\stapi\AppData\Local\Temp\cckrLylG.s:1150   .text.rom_symbol_init:000000000000080e .L0 
C:\Users\stapi\AppData\Local\Temp\cckrLylG.s:1152   .text.rom_symbol_init:0000000000000812 .L0 
C:\Users\stapi\AppData\Local\Temp\cckrLylG.s:1154   .text.rom_symbol_init:0000000000000816 .L0 
C:\Users\stapi\AppData\Local\Temp\cckrLylG.s:1156   .text.rom_symbol_init:000000000000081a .L0 
C:\Users\stapi\AppData\Local\Temp\cckrLylG.s:1157   .text.rom_symbol_init:000000000000081a .L0 
C:\Users\stapi\AppData\Local\Temp\cckrLylG.s:1160   .text.rom_symbol_init:0000000000000822 .L0 
C:\Users\stapi\AppData\Local\Temp\cckrLylG.s:1161   .text.rom_symbol_init:0000000000000822 .L0 
C:\Users\stapi\AppData\Local\Temp\cckrLylG.s:1164   .text.rom_symbol_init:000000000000082a .L0 
C:\Users\stapi\AppData\Local\Temp\cckrLylG.s:1166   .text.rom_symbol_init:000000000000082e .L0 
C:\Users\stapi\AppData\Local\Temp\cckrLylG.s:1168   .text.rom_symbol_init:0000000000000832 .L0 
C:\Users\stapi\AppData\Local\Temp\cckrLylG.s:1169   .text.rom_symbol_init:0000000000000832 .L0 
C:\Users\stapi\AppData\Local\Temp\cckrLylG.s:1171   .text.rom_symbol_init:0000000000000836 .L0 
C:\Users\stapi\AppData\Local\Temp\cckrLylG.s:1173   .text.rom_symbol_init:000000000000083a .L0 
C:\Users\stapi\AppData\Local\Temp\cckrLylG.s:1175   .text.rom_symbol_init:000000000000083e .L0 
C:\Users\stapi\AppData\Local\Temp\cckrLylG.s:1176   .text.rom_symbol_init:000000000000083e .L0 
C:\Users\stapi\AppData\Local\Temp\cckrLylG.s:1178   .text.rom_symbol_init:0000000000000842 .L0 
C:\Users\stapi\AppData\Local\Temp\cckrLylG.s:1180   .text.rom_symbol_init:0000000000000846 .L0 
C:\Users\stapi\AppData\Local\Temp\cckrLylG.s:1182   .text.rom_symbol_init:000000000000084a .L0 
C:\Users\stapi\AppData\Local\Temp\cckrLylG.s:1183   .text.rom_symbol_init:000000000000084a .L0 
C:\Users\stapi\AppData\Local\Temp\cckrLylG.s:1185   .text.rom_symbol_init:000000000000084e .L0 
C:\Users\stapi\AppData\Local\Temp\cckrLylG.s:1187   .text.rom_symbol_init:0000000000000852 .L0 
C:\Users\stapi\AppData\Local\Temp\cckrLylG.s:1189   .text.rom_symbol_init:0000000000000856 .L0 
C:\Users\stapi\AppData\Local\Temp\cckrLylG.s:1190   .text.rom_symbol_init:0000000000000856 .L0 
C:\Users\stapi\AppData\Local\Temp\cckrLylG.s:1192   .text.rom_symbol_init:000000000000085a .L0 
C:\Users\stapi\AppData\Local\Temp\cckrLylG.s:1194   .text.rom_symbol_init:000000000000085e .L0 
C:\Users\stapi\AppData\Local\Temp\cckrLylG.s:1196   .text.rom_symbol_init:0000000000000862 .L0 
C:\Users\stapi\AppData\Local\Temp\cckrLylG.s:1197   .text.rom_symbol_init:0000000000000862 .L0 
C:\Users\stapi\AppData\Local\Temp\cckrLylG.s:1200   .text.rom_symbol_init:000000000000086a .L0 
C:\Users\stapi\AppData\Local\Temp\cckrLylG.s:1202   .text.rom_symbol_init:000000000000086e .L0 
C:\Users\stapi\AppData\Local\Temp\cckrLylG.s:1204   .text.rom_symbol_init:0000000000000872 .L0 
C:\Users\stapi\AppData\Local\Temp\cckrLylG.s:1205   .text.rom_symbol_init:0000000000000872 .L0 
C:\Users\stapi\AppData\Local\Temp\cckrLylG.s:1207   .text.rom_symbol_init:0000000000000876 .L0 
C:\Users\stapi\AppData\Local\Temp\cckrLylG.s:1209   .text.rom_symbol_init:000000000000087a .L0 
C:\Users\stapi\AppData\Local\Temp\cckrLylG.s:1211   .text.rom_symbol_init:000000000000087e .L0 
C:\Users\stapi\AppData\Local\Temp\cckrLylG.s:1212   .text.rom_symbol_init:000000000000087e .L0 
C:\Users\stapi\AppData\Local\Temp\cckrLylG.s:1215   .text.rom_symbol_init:0000000000000886 .L0 
C:\Users\stapi\AppData\Local\Temp\cckrLylG.s:1216   .text.rom_symbol_init:0000000000000886 .L0 
C:\Users\stapi\AppData\Local\Temp\cckrLylG.s:1218   .text.rom_symbol_init:000000000000088a .L0 
C:\Users\stapi\AppData\Local\Temp\cckrLylG.s:1220   .text.rom_symbol_init:000000000000088e .L0 
C:\Users\stapi\AppData\Local\Temp\cckrLylG.s:1222   .text.rom_symbol_init:0000000000000892 .L0 
C:\Users\stapi\AppData\Local\Temp\cckrLylG.s:1223   .text.rom_symbol_init:0000000000000892 .L0 
C:\Users\stapi\AppData\Local\Temp\cckrLylG.s:1225   .text.rom_symbol_init:0000000000000896 .L0 
C:\Users\stapi\AppData\Local\Temp\cckrLylG.s:1227   .text.rom_symbol_init:000000000000089a .L0 
C:\Users\stapi\AppData\Local\Temp\cckrLylG.s:1229   .text.rom_symbol_init:000000000000089e .L0 
C:\Users\stapi\AppData\Local\Temp\cckrLylG.s:1230   .text.rom_symbol_init:000000000000089e .L0 
C:\Users\stapi\AppData\Local\Temp\cckrLylG.s:1233   .text.rom_symbol_init:00000000000008a6 .L0 
C:\Users\stapi\AppData\Local\Temp\cckrLylG.s:1234   .text.rom_symbol_init:00000000000008a6 .L0 
C:\Users\stapi\AppData\Local\Temp\cckrLylG.s:1238   .text.rom_symbol_init:00000000000008b2 .L0 
C:\Users\stapi\AppData\Local\Temp\cckrLylG.s:1239   .text.rom_symbol_init:00000000000008b2 .L0 
C:\Users\stapi\AppData\Local\Temp\cckrLylG.s:1244   .text.rom_symbol_init:00000000000008c2 .L0 
C:\Users\stapi\AppData\Local\Temp\cckrLylG.s:1245   .text.rom_symbol_init:00000000000008c2 .L0 
C:\Users\stapi\AppData\Local\Temp\cckrLylG.s:1249   .text.rom_symbol_init:00000000000008ce .L0 
C:\Users\stapi\AppData\Local\Temp\cckrLylG.s:1250   .text.rom_symbol_init:00000000000008ce .L0 
C:\Users\stapi\AppData\Local\Temp\cckrLylG.s:1254   .text.rom_symbol_init:00000000000008da .L0 
C:\Users\stapi\AppData\Local\Temp\cckrLylG.s:1255   .text.rom_symbol_init:00000000000008da .L0 
C:\Users\stapi\AppData\Local\Temp\cckrLylG.s:1259   .text.rom_symbol_init:00000000000008e6 .L0 
C:\Users\stapi\AppData\Local\Temp\cckrLylG.s:1260   .text.rom_symbol_init:00000000000008e6 .L0 
C:\Users\stapi\AppData\Local\Temp\cckrLylG.s:1263   .text.rom_symbol_init:00000000000008ee .L0 
C:\Users\stapi\AppData\Local\Temp\cckrLylG.s:1265   .text.rom_symbol_init:00000000000008f0 .L0 
C:\Users\stapi\AppData\Local\Temp\cckrLylG.s:1267   .text.rom_symbol_init:00000000000008f4 .L0 
C:\Users\stapi\AppData\Local\Temp\cckrLylG.s:1268   .text.rom_symbol_init:00000000000008f4 .L0 
C:\Users\stapi\AppData\Local\Temp\cckrLylG.s:1272   .text.rom_symbol_init:0000000000000900 .L0 
C:\Users\stapi\AppData\Local\Temp\cckrLylG.s:1273   .text.rom_symbol_init:0000000000000900 .L0 
C:\Users\stapi\AppData\Local\Temp\cckrLylG.s:1277   .text.rom_symbol_init:000000000000090c .L0 
C:\Users\stapi\AppData\Local\Temp\cckrLylG.s:1278   .text.rom_symbol_init:000000000000090c .L0 
C:\Users\stapi\AppData\Local\Temp\cckrLylG.s:1280   .text.rom_symbol_init:0000000000000910 .L0 
C:\Users\stapi\AppData\Local\Temp\cckrLylG.s:1283   .text.rom_symbol_init:0000000000000918 .L0 
C:\Users\stapi\AppData\Local\Temp\cckrLylG.s:1285   .text.rom_symbol_init:000000000000091c .L0 
C:\Users\stapi\AppData\Local\Temp\cckrLylG.s:1286   .text.rom_symbol_init:000000000000091c .L0 
C:\Users\stapi\AppData\Local\Temp\cckrLylG.s:1289   .text.rom_symbol_init:0000000000000924 .L0 
C:\Users\stapi\AppData\Local\Temp\cckrLylG.s:1291   .text.rom_symbol_init:0000000000000928 .L0 
C:\Users\stapi\AppData\Local\Temp\cckrLylG.s:1293   .text.rom_symbol_init:000000000000092c .L0 
C:\Users\stapi\AppData\Local\Temp\cckrLylG.s:1294   .text.rom_symbol_init:000000000000092c .L0 
C:\Users\stapi\AppData\Local\Temp\cckrLylG.s:1296   .text.rom_symbol_init:0000000000000930 .L0 
C:\Users\stapi\AppData\Local\Temp\cckrLylG.s:1299   .text.rom_symbol_init:0000000000000938 .L0 
C:\Users\stapi\AppData\Local\Temp\cckrLylG.s:1301   .text.rom_symbol_init:000000000000093c .L0 
C:\Users\stapi\AppData\Local\Temp\cckrLylG.s:1303   .text.rom_symbol_init:0000000000000940 .L0 
C:\Users\stapi\AppData\Local\Temp\cckrLylG.s:1304   .text.rom_symbol_init:0000000000000940 .L0 
C:\Users\stapi\AppData\Local\Temp\cckrLylG.s:1306   .text.rom_symbol_init:0000000000000944 .L0 
C:\Users\stapi\AppData\Local\Temp\cckrLylG.s:1308   .text.rom_symbol_init:0000000000000948 .L0 
C:\Users\stapi\AppData\Local\Temp\cckrLylG.s:1310   .text.rom_symbol_init:000000000000094c .L0 
C:\Users\stapi\AppData\Local\Temp\cckrLylG.s:1312   .text.rom_symbol_init:0000000000000950 .L0 
C:\Users\stapi\AppData\Local\Temp\cckrLylG.s:1314   .text.rom_symbol_init:0000000000000954 .L0 
C:\Users\stapi\AppData\Local\Temp\cckrLylG.s:1316   .text.rom_symbol_init:0000000000000958 .L0 
C:\Users\stapi\AppData\Local\Temp\cckrLylG.s:1318   .text.rom_symbol_init:000000000000095c .L0 
C:\Users\stapi\AppData\Local\Temp\cckrLylG.s:1320   .text.rom_symbol_init:0000000000000960 .L0 
C:\Users\stapi\AppData\Local\Temp\cckrLylG.s:1322   .text.rom_symbol_init:0000000000000964 .L0 
C:\Users\stapi\AppData\Local\Temp\cckrLylG.s:1324   .text.rom_symbol_init:0000000000000968 .L0 
C:\Users\stapi\AppData\Local\Temp\cckrLylG.s:1326   .text.rom_symbol_init:000000000000096c .L0 
C:\Users\stapi\AppData\Local\Temp\cckrLylG.s:1328   .text.rom_symbol_init:0000000000000970 .L0 
C:\Users\stapi\AppData\Local\Temp\cckrLylG.s:1330   .text.rom_symbol_init:0000000000000974 .L0 
C:\Users\stapi\AppData\Local\Temp\cckrLylG.s:1332   .text.rom_symbol_init:0000000000000978 .L0 
C:\Users\stapi\AppData\Local\Temp\cckrLylG.s:1335   .text.rom_symbol_init:0000000000000980 .L0 
C:\Users\stapi\AppData\Local\Temp\cckrLylG.s:1338   .text.rom_symbol_init:0000000000000988 .L0 
C:\Users\stapi\AppData\Local\Temp\cckrLylG.s:1340   .text.rom_symbol_init:000000000000098c .L0 
C:\Users\stapi\AppData\Local\Temp\cckrLylG.s:1342   .text.rom_symbol_init:0000000000000990 .L0 
C:\Users\stapi\AppData\Local\Temp\cckrLylG.s:1344   .text.rom_symbol_init:0000000000000994 .L0 
C:\Users\stapi\AppData\Local\Temp\cckrLylG.s:1346   .text.rom_symbol_init:0000000000000998 .L0 
C:\Users\stapi\AppData\Local\Temp\cckrLylG.s:1348   .text.rom_symbol_init:000000000000099c .L0 
C:\Users\stapi\AppData\Local\Temp\cckrLylG.s:1350   .text.rom_symbol_init:00000000000009a0 .L0 
C:\Users\stapi\AppData\Local\Temp\cckrLylG.s:1352   .text.rom_symbol_init:00000000000009a4 .L0 
C:\Users\stapi\AppData\Local\Temp\cckrLylG.s:1354   .text.rom_symbol_init:00000000000009a8 .L0 
C:\Users\stapi\AppData\Local\Temp\cckrLylG.s:1356   .text.rom_symbol_init:00000000000009ac .L0 
C:\Users\stapi\AppData\Local\Temp\cckrLylG.s:1358   .text.rom_symbol_init:00000000000009b0 .L0 
C:\Users\stapi\AppData\Local\Temp\cckrLylG.s:1360   .text.rom_symbol_init:00000000000009b4 .L0 
C:\Users\stapi\AppData\Local\Temp\cckrLylG.s:1362   .text.rom_symbol_init:00000000000009b8 .L0 
C:\Users\stapi\AppData\Local\Temp\cckrLylG.s:1365   .text.rom_symbol_init:00000000000009c0 .L0 
C:\Users\stapi\AppData\Local\Temp\cckrLylG.s:1367   .text.rom_symbol_init:00000000000009c4 .L0 
C:\Users\stapi\AppData\Local\Temp\cckrLylG.s:1369   .text.rom_symbol_init:00000000000009c8 .L0 
C:\Users\stapi\AppData\Local\Temp\cckrLylG.s:1370   .text.rom_symbol_init:00000000000009c8 .L0 
C:\Users\stapi\AppData\Local\Temp\cckrLylG.s:1371   .text.rom_symbol_init:00000000000009c8 .L0 
C:\Users\stapi\AppData\Local\Temp\cckrLylG.s:1372   .text.rom_symbol_init:00000000000009c8 .L0 
C:\Users\stapi\AppData\Local\Temp\cckrLylG.s:1373   .text.rom_symbol_init:00000000000009c8 .L0 
C:\Users\stapi\AppData\Local\Temp\cckrLylG.s:1374   .text.rom_symbol_init:00000000000009c8 .L0 
C:\Users\stapi\AppData\Local\Temp\cckrLylG.s:1375   .text.rom_symbol_init:00000000000009c8 .L0 
C:\Users\stapi\AppData\Local\Temp\cckrLylG.s:1376   .text.rom_symbol_init:00000000000009c8 .L0 
C:\Users\stapi\AppData\Local\Temp\cckrLylG.s:1377   .text.rom_symbol_init:00000000000009c8 .L0 
C:\Users\stapi\AppData\Local\Temp\cckrLylG.s:1378   .text.rom_symbol_init:00000000000009c8 .L0 
C:\Users\stapi\AppData\Local\Temp\cckrLylG.s:1379   .text.rom_symbol_init:00000000000009c8 .L0 
C:\Users\stapi\AppData\Local\Temp\cckrLylG.s:1380   .text.rom_symbol_init:00000000000009c8 .L0 
C:\Users\stapi\AppData\Local\Temp\cckrLylG.s:1382   .text.rom_symbol_init:00000000000009cc .L0 
C:\Users\stapi\AppData\Local\Temp\cckrLylG.s:1383   .text.rom_symbol_init:00000000000009cc .L0 
C:\Users\stapi\AppData\Local\Temp\cckrLylG.s:1387   .text.rom_symbol_init:00000000000009d8 .L0 
C:\Users\stapi\AppData\Local\Temp\cckrLylG.s:1388   .text.rom_symbol_init:00000000000009d8 .L0 
C:\Users\stapi\AppData\Local\Temp\cckrLylG.s:1391   .text.rom_symbol_init:00000000000009e0 .L0 
C:\Users\stapi\AppData\Local\Temp\cckrLylG.s:1393   .text.rom_symbol_init:00000000000009e4 .L0 
C:\Users\stapi\AppData\Local\Temp\cckrLylG.s:1395   .text.rom_symbol_init:00000000000009e8 .L0 
C:\Users\stapi\AppData\Local\Temp\cckrLylG.s:1396   .text.rom_symbol_init:00000000000009e8 .L0 
C:\Users\stapi\AppData\Local\Temp\cckrLylG.s:1398   .text.rom_symbol_init:00000000000009ec .L0 
C:\Users\stapi\AppData\Local\Temp\cckrLylG.s:1400   .text.rom_symbol_init:00000000000009f0 .L0 
C:\Users\stapi\AppData\Local\Temp\cckrLylG.s:1402   .text.rom_symbol_init:00000000000009f4 .L0 
C:\Users\stapi\AppData\Local\Temp\cckrLylG.s:1403   .text.rom_symbol_init:00000000000009f4 .L0 
C:\Users\stapi\AppData\Local\Temp\cckrLylG.s:1405   .text.rom_symbol_init:00000000000009f8 .L0 
C:\Users\stapi\AppData\Local\Temp\cckrLylG.s:1407   .text.rom_symbol_init:00000000000009fc .L0 
C:\Users\stapi\AppData\Local\Temp\cckrLylG.s:1409   .text.rom_symbol_init:0000000000000a00 .L0 
C:\Users\stapi\AppData\Local\Temp\cckrLylG.s:1410   .text.rom_symbol_init:0000000000000a00 .L0 
C:\Users\stapi\AppData\Local\Temp\cckrLylG.s:1412   .text.rom_symbol_init:0000000000000a04 .L0 
C:\Users\stapi\AppData\Local\Temp\cckrLylG.s:1414   .text.rom_symbol_init:0000000000000a08 .L0 
C:\Users\stapi\AppData\Local\Temp\cckrLylG.s:1416   .text.rom_symbol_init:0000000000000a0c .L0 
C:\Users\stapi\AppData\Local\Temp\cckrLylG.s:1417   .text.rom_symbol_init:0000000000000a0c .L0 
C:\Users\stapi\AppData\Local\Temp\cckrLylG.s:1419   .text.rom_symbol_init:0000000000000a10 .L0 
C:\Users\stapi\AppData\Local\Temp\cckrLylG.s:1421   .text.rom_symbol_init:0000000000000a14 .L0 
C:\Users\stapi\AppData\Local\Temp\cckrLylG.s:1423   .text.rom_symbol_init:0000000000000a18 .L0 
C:\Users\stapi\AppData\Local\Temp\cckrLylG.s:1424   .text.rom_symbol_init:0000000000000a18 .L0 
C:\Users\stapi\AppData\Local\Temp\cckrLylG.s:1426   .text.rom_symbol_init:0000000000000a1c .L0 
C:\Users\stapi\AppData\Local\Temp\cckrLylG.s:1428   .text.rom_symbol_init:0000000000000a20 .L0 
C:\Users\stapi\AppData\Local\Temp\cckrLylG.s:1430   .text.rom_symbol_init:0000000000000a24 .L0 
C:\Users\stapi\AppData\Local\Temp\cckrLylG.s:1431   .text.rom_symbol_init:0000000000000a24 .L0 
C:\Users\stapi\AppData\Local\Temp\cckrLylG.s:1433   .text.rom_symbol_init:0000000000000a28 .L0 
C:\Users\stapi\AppData\Local\Temp\cckrLylG.s:1435   .text.rom_symbol_init:0000000000000a2c .L0 
C:\Users\stapi\AppData\Local\Temp\cckrLylG.s:1437   .text.rom_symbol_init:0000000000000a30 .L0 
C:\Users\stapi\AppData\Local\Temp\cckrLylG.s:1438   .text.rom_symbol_init:0000000000000a30 .L0 
C:\Users\stapi\AppData\Local\Temp\cckrLylG.s:1440   .text.rom_symbol_init:0000000000000a34 .L0 
C:\Users\stapi\AppData\Local\Temp\cckrLylG.s:1442   .text.rom_symbol_init:0000000000000a38 .L0 
C:\Users\stapi\AppData\Local\Temp\cckrLylG.s:1444   .text.rom_symbol_init:0000000000000a3c .L0 
C:\Users\stapi\AppData\Local\Temp\cckrLylG.s:1445   .text.rom_symbol_init:0000000000000a3c .L0 
C:\Users\stapi\AppData\Local\Temp\cckrLylG.s:1447   .text.rom_symbol_init:0000000000000a40 .L0 
C:\Users\stapi\AppData\Local\Temp\cckrLylG.s:1449   .text.rom_symbol_init:0000000000000a44 .L0 
C:\Users\stapi\AppData\Local\Temp\cckrLylG.s:1451   .text.rom_symbol_init:0000000000000a48 .L0 
C:\Users\stapi\AppData\Local\Temp\cckrLylG.s:1452   .text.rom_symbol_init:0000000000000a48 .L0 
C:\Users\stapi\AppData\Local\Temp\cckrLylG.s:1454   .text.rom_symbol_init:0000000000000a4c .L0 
C:\Users\stapi\AppData\Local\Temp\cckrLylG.s:1456   .text.rom_symbol_init:0000000000000a50 .L0 
C:\Users\stapi\AppData\Local\Temp\cckrLylG.s:1458   .text.rom_symbol_init:0000000000000a54 .L0 
C:\Users\stapi\AppData\Local\Temp\cckrLylG.s:1459   .text.rom_symbol_init:0000000000000a54 .L0 
C:\Users\stapi\AppData\Local\Temp\cckrLylG.s:1461   .text.rom_symbol_init:0000000000000a58 .L0 
C:\Users\stapi\AppData\Local\Temp\cckrLylG.s:1464   .text.rom_symbol_init:0000000000000a60 .L0 
C:\Users\stapi\AppData\Local\Temp\cckrLylG.s:1465   .text.rom_symbol_init:0000000000000a60 .L0 
C:\Users\stapi\AppData\Local\Temp\cckrLylG.s:1469   .text.rom_symbol_init:0000000000000a6c .L0 
C:\Users\stapi\AppData\Local\Temp\cckrLylG.s:1470   .text.rom_symbol_init:0000000000000a6c .L0 
C:\Users\stapi\AppData\Local\Temp\cckrLylG.s:1474   .text.rom_symbol_init:0000000000000a78 .L0 
C:\Users\stapi\AppData\Local\Temp\cckrLylG.s:1475   .text.rom_symbol_init:0000000000000a78 .L0 
C:\Users\stapi\AppData\Local\Temp\cckrLylG.s:1479   .text.rom_symbol_init:0000000000000a84 .L0 
C:\Users\stapi\AppData\Local\Temp\cckrLylG.s:1480   .text.rom_symbol_init:0000000000000a84 .L0 
C:\Users\stapi\AppData\Local\Temp\cckrLylG.s:1484   .text.rom_symbol_init:0000000000000a90 .L0 
C:\Users\stapi\AppData\Local\Temp\cckrLylG.s:1485   .text.rom_symbol_init:0000000000000a90 .L0 
C:\Users\stapi\AppData\Local\Temp\cckrLylG.s:1490   .text.rom_symbol_init:0000000000000aa0 .L0 
C:\Users\stapi\AppData\Local\Temp\cckrLylG.s:1491   .text.rom_symbol_init:0000000000000aa0 .L0 
C:\Users\stapi\AppData\Local\Temp\cckrLylG.s:1493   .text.rom_symbol_init:0000000000000aa4 .L0 
C:\Users\stapi\AppData\Local\Temp\cckrLylG.s:1497   .text.rom_symbol_init:0000000000000ab0 .L0 
C:\Users\stapi\AppData\Local\Temp\cckrLylG.s:1498   .text.rom_symbol_init:0000000000000ab0 .L0 
C:\Users\stapi\AppData\Local\Temp\cckrLylG.s:1501   .text.rom_symbol_init:0000000000000ab8 .L0 
C:\Users\stapi\AppData\Local\Temp\cckrLylG.s:1503   .text.rom_symbol_init:0000000000000abc .L0 
C:\Users\stapi\AppData\Local\Temp\cckrLylG.s:1505   .text.rom_symbol_init:0000000000000ac0 .L0 
C:\Users\stapi\AppData\Local\Temp\cckrLylG.s:1506   .text.rom_symbol_init:0000000000000ac0 .L0 
C:\Users\stapi\AppData\Local\Temp\cckrLylG.s:1510   .text.rom_symbol_init:0000000000000acc .L0 
C:\Users\stapi\AppData\Local\Temp\cckrLylG.s:1511   .text.rom_symbol_init:0000000000000acc .L0 
C:\Users\stapi\AppData\Local\Temp\cckrLylG.s:1513   .text.rom_symbol_init:0000000000000ad0 .L0 
C:\Users\stapi\AppData\Local\Temp\cckrLylG.s:1516   .text.rom_symbol_init:0000000000000ad8 .L0 
C:\Users\stapi\AppData\Local\Temp\cckrLylG.s:1518   .text.rom_symbol_init:0000000000000adc .L0 
C:\Users\stapi\AppData\Local\Temp\cckrLylG.s:1520   .text.rom_symbol_init:0000000000000ae0 .L0 
C:\Users\stapi\AppData\Local\Temp\cckrLylG.s:1521   .text.rom_symbol_init:0000000000000ae0 .L0 
C:\Users\stapi\AppData\Local\Temp\cckrLylG.s:1523   .text.rom_symbol_init:0000000000000ae4 .L0 
C:\Users\stapi\AppData\Local\Temp\cckrLylG.s:1525   .text.rom_symbol_init:0000000000000ae8 .L0 
C:\Users\stapi\AppData\Local\Temp\cckrLylG.s:1527   .text.rom_symbol_init:0000000000000aec .L0 
C:\Users\stapi\AppData\Local\Temp\cckrLylG.s:1529   .text.rom_symbol_init:0000000000000af0 .L0 
C:\Users\stapi\AppData\Local\Temp\cckrLylG.s:1531   .text.rom_symbol_init:0000000000000af4 .L0 
C:\Users\stapi\AppData\Local\Temp\cckrLylG.s:1533   .text.rom_symbol_init:0000000000000af8 .L0 
C:\Users\stapi\AppData\Local\Temp\cckrLylG.s:1535   .text.rom_symbol_init:0000000000000afc .L0 
C:\Users\stapi\AppData\Local\Temp\cckrLylG.s:1537   .text.rom_symbol_init:0000000000000b00 .L0 
C:\Users\stapi\AppData\Local\Temp\cckrLylG.s:1539   .text.rom_symbol_init:0000000000000b04 .L0 
C:\Users\stapi\AppData\Local\Temp\cckrLylG.s:1541   .text.rom_symbol_init:0000000000000b08 .L0 
C:\Users\stapi\AppData\Local\Temp\cckrLylG.s:1543   .text.rom_symbol_init:0000000000000b0c .L0 
C:\Users\stapi\AppData\Local\Temp\cckrLylG.s:1545   .text.rom_symbol_init:0000000000000b10 .L0 
C:\Users\stapi\AppData\Local\Temp\cckrLylG.s:1547   .text.rom_symbol_init:0000000000000b14 .L0 
C:\Users\stapi\AppData\Local\Temp\cckrLylG.s:1549   .text.rom_symbol_init:0000000000000b18 .L0 
C:\Users\stapi\AppData\Local\Temp\cckrLylG.s:1551   .text.rom_symbol_init:0000000000000b1c .L0 
C:\Users\stapi\AppData\Local\Temp\cckrLylG.s:1553   .text.rom_symbol_init:0000000000000b20 .L0 
C:\Users\stapi\AppData\Local\Temp\cckrLylG.s:1555   .text.rom_symbol_init:0000000000000b24 .L0 
C:\Users\stapi\AppData\Local\Temp\cckrLylG.s:1558   .text.rom_symbol_init:0000000000000b2c .L0 
C:\Users\stapi\AppData\Local\Temp\cckrLylG.s:1561   .text.rom_symbol_init:0000000000000b34 .L0 
C:\Users\stapi\AppData\Local\Temp\cckrLylG.s:1563   .text.rom_symbol_init:0000000000000b38 .L0 
C:\Users\stapi\AppData\Local\Temp\cckrLylG.s:1565   .text.rom_symbol_init:0000000000000b3c .L0 
C:\Users\stapi\AppData\Local\Temp\cckrLylG.s:1567   .text.rom_symbol_init:0000000000000b40 .L0 
C:\Users\stapi\AppData\Local\Temp\cckrLylG.s:1569   .text.rom_symbol_init:0000000000000b44 .L0 
C:\Users\stapi\AppData\Local\Temp\cckrLylG.s:1571   .text.rom_symbol_init:0000000000000b48 .L0 
C:\Users\stapi\AppData\Local\Temp\cckrLylG.s:1574   .text.rom_symbol_init:0000000000000b50 .L0 
C:\Users\stapi\AppData\Local\Temp\cckrLylG.s:1577   .text.rom_symbol_init:0000000000000b58 .L0 
C:\Users\stapi\AppData\Local\Temp\cckrLylG.s:1579   .text.rom_symbol_init:0000000000000b5c .L0 
C:\Users\stapi\AppData\Local\Temp\cckrLylG.s:1581   .text.rom_symbol_init:0000000000000b60 .L0 
C:\Users\stapi\AppData\Local\Temp\cckrLylG.s:1583   .text.rom_symbol_init:0000000000000b64 .L0 
C:\Users\stapi\AppData\Local\Temp\cckrLylG.s:1585   .text.rom_symbol_init:0000000000000b68 .L0 
C:\Users\stapi\AppData\Local\Temp\cckrLylG.s:1587   .text.rom_symbol_init:0000000000000b6c .L0 
C:\Users\stapi\AppData\Local\Temp\cckrLylG.s:1589   .text.rom_symbol_init:0000000000000b70 .L0 
C:\Users\stapi\AppData\Local\Temp\cckrLylG.s:1591   .text.rom_symbol_init:0000000000000b74 .L0 
C:\Users\stapi\AppData\Local\Temp\cckrLylG.s:1593   .text.rom_symbol_init:0000000000000b78 .L0 
C:\Users\stapi\AppData\Local\Temp\cckrLylG.s:1595   .text.rom_symbol_init:0000000000000b7c .L0 
C:\Users\stapi\AppData\Local\Temp\cckrLylG.s:1597   .text.rom_symbol_init:0000000000000b80 .L0 
C:\Users\stapi\AppData\Local\Temp\cckrLylG.s:1599   .text.rom_symbol_init:0000000000000b84 .L0 
C:\Users\stapi\AppData\Local\Temp\cckrLylG.s:1601   .text.rom_symbol_init:0000000000000b88 .L0 
C:\Users\stapi\AppData\Local\Temp\cckrLylG.s:1603   .text.rom_symbol_init:0000000000000b8c .L0 
C:\Users\stapi\AppData\Local\Temp\cckrLylG.s:1605   .text.rom_symbol_init:0000000000000b90 .L0 
C:\Users\stapi\AppData\Local\Temp\cckrLylG.s:1607   .text.rom_symbol_init:0000000000000b94 .L0 
C:\Users\stapi\AppData\Local\Temp\cckrLylG.s:1609   .text.rom_symbol_init:0000000000000b98 .L0 
C:\Users\stapi\AppData\Local\Temp\cckrLylG.s:1611   .text.rom_symbol_init:0000000000000b9c .L0 
C:\Users\stapi\AppData\Local\Temp\cckrLylG.s:1613   .text.rom_symbol_init:0000000000000ba0 .L0 
C:\Users\stapi\AppData\Local\Temp\cckrLylG.s:1615   .text.rom_symbol_init:0000000000000ba4 .L0 
C:\Users\stapi\AppData\Local\Temp\cckrLylG.s:1617   .text.rom_symbol_init:0000000000000ba8 .L0 
C:\Users\stapi\AppData\Local\Temp\cckrLylG.s:1619   .text.rom_symbol_init:0000000000000bac .L0 
C:\Users\stapi\AppData\Local\Temp\cckrLylG.s:1620   .text.rom_symbol_init:0000000000000bac .L0 
C:\Users\stapi\AppData\Local\Temp\cckrLylG.s:1621   .text.rom_symbol_init:0000000000000bac .L0 
C:\Users\stapi\AppData\Local\Temp\cckrLylG.s:1622   .text.rom_symbol_init:0000000000000bac .L0 
C:\Users\stapi\AppData\Local\Temp\cckrLylG.s:1623   .text.rom_symbol_init:0000000000000bac .L0 
C:\Users\stapi\AppData\Local\Temp\cckrLylG.s:1624   .text.rom_symbol_init:0000000000000bac .L0 
C:\Users\stapi\AppData\Local\Temp\cckrLylG.s:1625   .text.rom_symbol_init:0000000000000bac .L0 
C:\Users\stapi\AppData\Local\Temp\cckrLylG.s:1626   .text.rom_symbol_init:0000000000000bac .L0 
C:\Users\stapi\AppData\Local\Temp\cckrLylG.s:1627   .text.rom_symbol_init:0000000000000bac .L0 
C:\Users\stapi\AppData\Local\Temp\cckrLylG.s:1628   .text.rom_symbol_init:0000000000000bac .L0 
C:\Users\stapi\AppData\Local\Temp\cckrLylG.s:1629   .text.rom_symbol_init:0000000000000bac .L0 
C:\Users\stapi\AppData\Local\Temp\cckrLylG.s:1630   .text.rom_symbol_init:0000000000000bac .L0 
C:\Users\stapi\AppData\Local\Temp\cckrLylG.s:1631   .text.rom_symbol_init:0000000000000bac .L0 
C:\Users\stapi\AppData\Local\Temp\cckrLylG.s:1632   .text.rom_symbol_init:0000000000000bac .L0 
C:\Users\stapi\AppData\Local\Temp\cckrLylG.s:1633   .text.rom_symbol_init:0000000000000bac .L0 
C:\Users\stapi\AppData\Local\Temp\cckrLylG.s:1634   .text.rom_symbol_init:0000000000000bac .L0 
C:\Users\stapi\AppData\Local\Temp\cckrLylG.s:1635   .text.rom_symbol_init:0000000000000bac .L0 
C:\Users\stapi\AppData\Local\Temp\cckrLylG.s:1636   .text.rom_symbol_init:0000000000000bac .L0 
C:\Users\stapi\AppData\Local\Temp\cckrLylG.s:1638   .text.rom_symbol_init:0000000000000bb0 .L0 
C:\Users\stapi\AppData\Local\Temp\cckrLylG.s:1639   .text.rom_symbol_init:0000000000000bb0 .L0 
C:\Users\stapi\AppData\Local\Temp\cckrLylG.s:1642   .text.rom_symbol_init:0000000000000bb8 .L0 
C:\Users\stapi\AppData\Local\Temp\cckrLylG.s:1644   .text.rom_symbol_init:0000000000000bbc .L0 
C:\Users\stapi\AppData\Local\Temp\cckrLylG.s:1646   .text.rom_symbol_init:0000000000000bc0 .L0 
C:\Users\stapi\AppData\Local\Temp\cckrLylG.s:1647   .text.rom_symbol_init:0000000000000bc0 .L0 
C:\Users\stapi\AppData\Local\Temp\cckrLylG.s:1650   .text.rom_symbol_init:0000000000000bc8 .L0 
C:\Users\stapi\AppData\Local\Temp\cckrLylG.s:1651   .text.rom_symbol_init:0000000000000bc8 .L0 
C:\Users\stapi\AppData\Local\Temp\cckrLylG.s:1655   .text.rom_symbol_init:0000000000000bd4 .L0 
C:\Users\stapi\AppData\Local\Temp\cckrLylG.s:1656   .text.rom_symbol_init:0000000000000bd6 .L0 
C:\Users\stapi\AppData\Local\Temp\cckrLylG.s:1658   .text.rom_symbol_init:0000000000000bde .L0 
C:\Users\stapi\AppData\Local\Temp\cckrLylG.s:1659   .text.rom_symbol_init:0000000000000bde .L0 
C:\Users\stapi\AppData\Local\Temp\cckrLylG.s:1660   .text.rom_symbol_init:0000000000000bde .L0 
C:\Users\stapi\AppData\Local\Temp\cckrLylG.s:1661   .text.rom_symbol_init:0000000000000bde .L0 
C:\Users\stapi\AppData\Local\Temp\cckrLylG.s:1662   .text.rom_symbol_init:0000000000000bde .L0 
C:\Users\stapi\AppData\Local\Temp\cckrLylG.s:1663   .text.rom_symbol_init:0000000000000bde .L0 
C:\Users\stapi\AppData\Local\Temp\cckrLylG.s:1664   .text.rom_symbol_init:0000000000000bde .L0 
C:\Users\stapi\AppData\Local\Temp\cckrLylG.s:1665   .text.rom_symbol_init:0000000000000bde .L0 
C:\Users\stapi\AppData\Local\Temp\cckrLylG.s:1666   .text.rom_symbol_init:0000000000000bde .L0 
C:\Users\stapi\AppData\Local\Temp\cckrLylG.s:1667   .text.rom_symbol_init:0000000000000bde .L0 
C:\Users\stapi\AppData\Local\Temp\cckrLylG.s:1668   .text.rom_symbol_init:0000000000000bde .L0 
C:\Users\stapi\AppData\Local\Temp\cckrLylG.s:1669   .text.rom_symbol_init:0000000000000bde .L0 
C:\Users\stapi\AppData\Local\Temp\cckrLylG.s:1670   .text.rom_symbol_init:0000000000000bde .L0 
C:\Users\stapi\AppData\Local\Temp\cckrLylG.s:1671   .text.rom_symbol_init:0000000000000bde .L0 
C:\Users\stapi\AppData\Local\Temp\cckrLylG.s:1672   .text.rom_symbol_init:0000000000000bde .L0 
C:\Users\stapi\AppData\Local\Temp\cckrLylG.s:2617   .sbss.mbedtls_sha256_update_ret_fn:0000000000000000 mbedtls_sha256_update_ret_fn
C:\Users\stapi\AppData\Local\Temp\cckrLylG.s:2610   .sbss.mbedtls_sha256_update_fn:0000000000000000 mbedtls_sha256_update_fn
C:\Users\stapi\AppData\Local\Temp\cckrLylG.s:2603   .sbss.mbedtls_sha256_starts_ret_fn:0000000000000000 mbedtls_sha256_starts_ret_fn
C:\Users\stapi\AppData\Local\Temp\cckrLylG.s:2596   .sbss.mbedtls_sha256_starts_fn:0000000000000000 mbedtls_sha256_starts_fn
C:\Users\stapi\AppData\Local\Temp\cckrLylG.s:2589   .sbss.mbedtls_sha256_init_fn:0000000000000000 mbedtls_sha256_init_fn
C:\Users\stapi\AppData\Local\Temp\cckrLylG.s:2582   .sbss.mbedtls_sha256_free_fn:0000000000000000 mbedtls_sha256_free_fn
C:\Users\stapi\AppData\Local\Temp\cckrLylG.s:2575   .sbss.mbedtls_sha256_finish_ret_fn:0000000000000000 mbedtls_sha256_finish_ret_fn
C:\Users\stapi\AppData\Local\Temp\cckrLylG.s:2568   .sbss.mbedtls_sha256_finish_fn:0000000000000000 mbedtls_sha256_finish_fn
C:\Users\stapi\AppData\Local\Temp\cckrLylG.s:2561   .sbss.mbedtls_sha256_clone_fn:0000000000000000 mbedtls_sha256_clone_fn
C:\Users\stapi\AppData\Local\Temp\cckrLylG.s:2554   .sbss.mbedtls_rsa_set_padding_fn:0000000000000000 mbedtls_rsa_set_padding_fn
C:\Users\stapi\AppData\Local\Temp\cckrLylG.s:2540   .sbss.mbedtls_rsa_rsassa_pss_verify_ext_fn:0000000000000000 mbedtls_rsa_rsassa_pss_verify_ext_fn
C:\Users\stapi\AppData\Local\Temp\cckrLylG.s:2547   .sbss.mbedtls_rsa_rsassa_pss_verify_fn:0000000000000000 mbedtls_rsa_rsassa_pss_verify_fn
C:\Users\stapi\AppData\Local\Temp\cckrLylG.s:2533   .sbss.mbedtls_rsa_rsassa_pss_sign_fn:0000000000000000 mbedtls_rsa_rsassa_pss_sign_fn
C:\Users\stapi\AppData\Local\Temp\cckrLylG.s:2526   .sbss.mbedtls_rsa_rsassa_pkcs1_v15_verify_fn:0000000000000000 mbedtls_rsa_rsassa_pkcs1_v15_verify_fn
C:\Users\stapi\AppData\Local\Temp\cckrLylG.s:2519   .sbss.mbedtls_rsa_rsassa_pkcs1_v15_sign_fn:0000000000000000 mbedtls_rsa_rsassa_pkcs1_v15_sign_fn
C:\Users\stapi\AppData\Local\Temp\cckrLylG.s:2512   .sbss.mbedtls_rsa_rsaes_pkcs1_v15_encrypt_fn:0000000000000000 mbedtls_rsa_rsaes_pkcs1_v15_encrypt_fn
C:\Users\stapi\AppData\Local\Temp\cckrLylG.s:2505   .sbss.mbedtls_rsa_rsaes_pkcs1_v15_decrypt_fn:0000000000000000 mbedtls_rsa_rsaes_pkcs1_v15_decrypt_fn
C:\Users\stapi\AppData\Local\Temp\cckrLylG.s:2498   .sbss.mbedtls_rsa_rsaes_oaep_encrypt_fn:0000000000000000 mbedtls_rsa_rsaes_oaep_encrypt_fn
C:\Users\stapi\AppData\Local\Temp\cckrLylG.s:2491   .sbss.mbedtls_rsa_rsaes_oaep_decrypt_fn:0000000000000000 mbedtls_rsa_rsaes_oaep_decrypt_fn
C:\Users\stapi\AppData\Local\Temp\cckrLylG.s:2484   .sbss.mbedtls_rsa_public_fn:0000000000000000 mbedtls_rsa_public_fn
C:\Users\stapi\AppData\Local\Temp\cckrLylG.s:2477   .sbss.mbedtls_rsa_private_sw_fn:0000000000000000 mbedtls_rsa_private_sw_fn
C:\Users\stapi\AppData\Local\Temp\cckrLylG.s:2470   .sbss.mbedtls_rsa_private_fn:0000000000000000 mbedtls_rsa_private_fn
C:\Users\stapi\AppData\Local\Temp\cckrLylG.s:2463   .sbss.mbedtls_rsa_pkcs1_verify_fn:0000000000000000 mbedtls_rsa_pkcs1_verify_fn
C:\Users\stapi\AppData\Local\Temp\cckrLylG.s:2456   .sbss.mbedtls_rsa_pkcs1_sign_fn:0000000000000000 mbedtls_rsa_pkcs1_sign_fn
C:\Users\stapi\AppData\Local\Temp\cckrLylG.s:2449   .sbss.mbedtls_rsa_pkcs1_encrypt_fn:0000000000000000 mbedtls_rsa_pkcs1_encrypt_fn
C:\Users\stapi\AppData\Local\Temp\cckrLylG.s:2442   .sbss.mbedtls_rsa_pkcs1_decrypt_fn:0000000000000000 mbedtls_rsa_pkcs1_decrypt_fn
C:\Users\stapi\AppData\Local\Temp\cckrLylG.s:2435   .sbss.mbedtls_rsa_init_fn:0000000000000000 mbedtls_rsa_init_fn
C:\Users\stapi\AppData\Local\Temp\cckrLylG.s:2428   .sbss.mbedtls_rsa_import_raw_fn:0000000000000000 mbedtls_rsa_import_raw_fn
C:\Users\stapi\AppData\Local\Temp\cckrLylG.s:2421   .sbss.mbedtls_rsa_import_fn:0000000000000000 mbedtls_rsa_import_fn
C:\Users\stapi\AppData\Local\Temp\cckrLylG.s:2414   .sbss.mbedtls_rsa_get_len_fn:0000000000000000 mbedtls_rsa_get_len_fn
C:\Users\stapi\AppData\Local\Temp\cckrLylG.s:2407   .sbss.mbedtls_rsa_gen_key_fn:0000000000000000 mbedtls_rsa_gen_key_fn
C:\Users\stapi\AppData\Local\Temp\cckrLylG.s:2400   .sbss.mbedtls_rsa_free_fn:0000000000000000 mbedtls_rsa_free_fn
C:\Users\stapi\AppData\Local\Temp\cckrLylG.s:2393   .sbss.mbedtls_rsa_export_raw_fn:0000000000000000 mbedtls_rsa_export_raw_fn
C:\Users\stapi\AppData\Local\Temp\cckrLylG.s:2379   .sbss.mbedtls_rsa_export_crt_fn:0000000000000000 mbedtls_rsa_export_crt_fn
C:\Users\stapi\AppData\Local\Temp\cckrLylG.s:2386   .sbss.mbedtls_rsa_export_fn:0000000000000000 mbedtls_rsa_export_fn
C:\Users\stapi\AppData\Local\Temp\cckrLylG.s:2372   .sbss.mbedtls_rsa_copy_fn:0000000000000000 mbedtls_rsa_copy_fn
C:\Users\stapi\AppData\Local\Temp\cckrLylG.s:2365   .sbss.mbedtls_rsa_complete_fn:0000000000000000 mbedtls_rsa_complete_fn
C:\Users\stapi\AppData\Local\Temp\cckrLylG.s:2358   .sbss.mbedtls_rsa_check_pubkey_fn:0000000000000000 mbedtls_rsa_check_pubkey_fn
C:\Users\stapi\AppData\Local\Temp\cckrLylG.s:2351   .sbss.mbedtls_rsa_check_pub_priv_fn:0000000000000000 mbedtls_rsa_check_pub_priv_fn
C:\Users\stapi\AppData\Local\Temp\cckrLylG.s:2344   .sbss.mbedtls_rsa_check_privkey_fn:0000000000000000 mbedtls_rsa_check_privkey_fn
C:\Users\stapi\AppData\Local\Temp\cckrLylG.s:2337   .sbss.mbedtls_mpi_write_string_fn:0000000000000000 mbedtls_mpi_write_string_fn
C:\Users\stapi\AppData\Local\Temp\cckrLylG.s:2330   .sbss.mbedtls_mpi_read_string_fn:0000000000000000 mbedtls_mpi_read_string_fn
C:\Users\stapi\AppData\Local\Temp\cckrLylG.s:2323   .sbss.mbedtls_mpi_mul_mpi_fn:0000000000000000 mbedtls_mpi_mul_mpi_fn
C:\Users\stapi\AppData\Local\Temp\cckrLylG.s:2316   .sbss.mbedtls_mpi_mul_int_fn:0000000000000000 mbedtls_mpi_mul_int_fn
C:\Users\stapi\AppData\Local\Temp\cckrLylG.s:2309   .sbss.mbedtls_mpi_mod_mpi_fn:0000000000000000 mbedtls_mpi_mod_mpi_fn
C:\Users\stapi\AppData\Local\Temp\cckrLylG.s:2302   .sbss.mbedtls_mpi_mod_int_fn:0000000000000000 mbedtls_mpi_mod_int_fn
C:\Users\stapi\AppData\Local\Temp\cckrLylG.s:2288   .sbss.mbedtls_mpi_is_prime_ext_fn:0000000000000000 mbedtls_mpi_is_prime_ext_fn
C:\Users\stapi\AppData\Local\Temp\cckrLylG.s:2295   .sbss.mbedtls_mpi_is_prime_fn:0000000000000000 mbedtls_mpi_is_prime_fn
C:\Users\stapi\AppData\Local\Temp\cckrLylG.s:2281   .sbss.mbedtls_mpi_inv_mod_fn:0000000000000000 mbedtls_mpi_inv_mod_fn
C:\Users\stapi\AppData\Local\Temp\cckrLylG.s:2274   .sbss.mbedtls_mpi_gen_prime_fn:0000000000000000 mbedtls_mpi_gen_prime_fn
C:\Users\stapi\AppData\Local\Temp\cckrLylG.s:2267   .sbss.mbedtls_mpi_gcd_fn:0000000000000000 mbedtls_mpi_gcd_fn
C:\Users\stapi\AppData\Local\Temp\cckrLylG.s:2260   .sbss.mbedtls_mpi_fill_random_fn:0000000000000000 mbedtls_mpi_fill_random_fn
C:\Users\stapi\AppData\Local\Temp\cckrLylG.s:2253   .sbss.mbedtls_mpi_exp_mod_sw_fn:0000000000000000 mbedtls_mpi_exp_mod_sw_fn
C:\Users\stapi\AppData\Local\Temp\cckrLylG.s:2246   .sbss.mbedtls_mpi_exp_mod_fn:0000000000000000 mbedtls_mpi_exp_mod_fn
C:\Users\stapi\AppData\Local\Temp\cckrLylG.s:2239   .sbss.mbedtls_mpi_div_mpi_fn:0000000000000000 mbedtls_mpi_div_mpi_fn
C:\Users\stapi\AppData\Local\Temp\cckrLylG.s:2232   .sbss.mbedtls_mpi_div_int_fn:0000000000000000 mbedtls_mpi_div_int_fn
C:\Users\stapi\AppData\Local\Temp\cckrLylG.s:2225   .sbss.mbedtls_md5_update_ret_fn:0000000000000000 mbedtls_md5_update_ret_fn
C:\Users\stapi\AppData\Local\Temp\cckrLylG.s:2218   .sbss.mbedtls_md5_update_fn:0000000000000000 mbedtls_md5_update_fn
C:\Users\stapi\AppData\Local\Temp\cckrLylG.s:2211   .sbss.mbedtls_md5_starts_ret_fn:0000000000000000 mbedtls_md5_starts_ret_fn
C:\Users\stapi\AppData\Local\Temp\cckrLylG.s:2204   .sbss.mbedtls_md5_starts_fn:0000000000000000 mbedtls_md5_starts_fn
C:\Users\stapi\AppData\Local\Temp\cckrLylG.s:2197   .sbss.mbedtls_md5_ret_fn:0000000000000000 mbedtls_md5_ret_fn
C:\Users\stapi\AppData\Local\Temp\cckrLylG.s:2190   .sbss.mbedtls_md5_process_fn:0000000000000000 mbedtls_md5_process_fn
C:\Users\stapi\AppData\Local\Temp\cckrLylG.s:2183   .sbss.mbedtls_md5_init_fn:0000000000000000 mbedtls_md5_init_fn
C:\Users\stapi\AppData\Local\Temp\cckrLylG.s:2176   .sbss.mbedtls_md5_free_fn:0000000000000000 mbedtls_md5_free_fn
C:\Users\stapi\AppData\Local\Temp\cckrLylG.s:2162   .sbss.mbedtls_md5_finish_ret_fn:0000000000000000 mbedtls_md5_finish_ret_fn
C:\Users\stapi\AppData\Local\Temp\cckrLylG.s:2155   .sbss.mbedtls_md5_finish_fn:0000000000000000 mbedtls_md5_finish_fn
C:\Users\stapi\AppData\Local\Temp\cckrLylG.s:2148   .sbss.mbedtls_md5_clone_fn:0000000000000000 mbedtls_md5_clone_fn
C:\Users\stapi\AppData\Local\Temp\cckrLylG.s:2169   .sbss.mbedtls_md5_fn:0000000000000000 mbedtls_md5_fn
C:\Users\stapi\AppData\Local\Temp\cckrLylG.s:2141   .sbss.mbedtls_internal_sha256_process_fn:0000000000000000 mbedtls_internal_sha256_process_fn
C:\Users\stapi\AppData\Local\Temp\cckrLylG.s:2134   .sbss.mbedtls_internal_md5_process_fn:0000000000000000 mbedtls_internal_md5_process_fn
C:\Users\stapi\AppData\Local\Temp\cckrLylG.s:2127   .sbss.mbedtls_ecp_tls_write_point_fn:0000000000000000 mbedtls_ecp_tls_write_point_fn
C:\Users\stapi\AppData\Local\Temp\cckrLylG.s:2120   .sbss.mbedtls_ecp_tls_write_group_fn:0000000000000000 mbedtls_ecp_tls_write_group_fn
C:\Users\stapi\AppData\Local\Temp\cckrLylG.s:2113   .sbss.mbedtls_ecp_tls_read_point_fn:0000000000000000 mbedtls_ecp_tls_read_point_fn
C:\Users\stapi\AppData\Local\Temp\cckrLylG.s:2106   .sbss.mbedtls_ecp_tls_read_group_id_fn:0000000000000000 mbedtls_ecp_tls_read_group_id_fn
C:\Users\stapi\AppData\Local\Temp\cckrLylG.s:2099   .sbss.mbedtls_ecp_tls_read_group_fn:0000000000000000 mbedtls_ecp_tls_read_group_fn
C:\Users\stapi\AppData\Local\Temp\cckrLylG.s:2092   .sbss.mbedtls_ecp_set_zero_fn:0000000000000000 mbedtls_ecp_set_zero_fn
C:\Users\stapi\AppData\Local\Temp\cckrLylG.s:2085   .sbss.mbedtls_ecp_point_write_binary_fn:0000000000000000 mbedtls_ecp_point_write_binary_fn
C:\Users\stapi\AppData\Local\Temp\cckrLylG.s:2078   .sbss.mbedtls_ecp_point_read_string_fn:0000000000000000 mbedtls_ecp_point_read_string_fn
C:\Users\stapi\AppData\Local\Temp\cckrLylG.s:2071   .sbss.mbedtls_ecp_point_read_binary_fn:0000000000000000 mbedtls_ecp_point_read_binary_fn
C:\Users\stapi\AppData\Local\Temp\cckrLylG.s:2064   .sbss.mbedtls_ecp_point_init_fn:0000000000000000 mbedtls_ecp_point_init_fn
C:\Users\stapi\AppData\Local\Temp\cckrLylG.s:2057   .sbss.mbedtls_ecp_point_free_fn:0000000000000000 mbedtls_ecp_point_free_fn
C:\Users\stapi\AppData\Local\Temp\cckrLylG.s:2050   .sbss.mbedtls_ecp_point_cmp_fn:0000000000000000 mbedtls_ecp_point_cmp_fn
C:\Users\stapi\AppData\Local\Temp\cckrLylG.s:2043   .sbss.mbedtls_ecp_muladd_restartable_fn:0000000000000000 mbedtls_ecp_muladd_restartable_fn
C:\Users\stapi\AppData\Local\Temp\cckrLylG.s:2036   .sbss.mbedtls_ecp_muladd_fn:0000000000000000 mbedtls_ecp_muladd_fn
C:\Users\stapi\AppData\Local\Temp\cckrLylG.s:2029   .sbss.mbedtls_ecp_mul_restartable_fn:0000000000000000 mbedtls_ecp_mul_restartable_fn
C:\Users\stapi\AppData\Local\Temp\cckrLylG.s:2022   .sbss.mbedtls_ecp_mul_fn:0000000000000000 mbedtls_ecp_mul_fn
C:\Users\stapi\AppData\Local\Temp\cckrLylG.s:2015   .sbss.mbedtls_ecp_keypair_init_fn:0000000000000000 mbedtls_ecp_keypair_init_fn
C:\Users\stapi\AppData\Local\Temp\cckrLylG.s:2008   .sbss.mbedtls_ecp_keypair_free_fn:0000000000000000 mbedtls_ecp_keypair_free_fn
C:\Users\stapi\AppData\Local\Temp\cckrLylG.s:2001   .sbss.mbedtls_ecp_is_zero_fn:0000000000000000 mbedtls_ecp_is_zero_fn
C:\Users\stapi\AppData\Local\Temp\cckrLylG.s:1994   .sbss.mbedtls_ecp_grp_id_list_fn:0000000000000000 mbedtls_ecp_grp_id_list_fn
C:\Users\stapi\AppData\Local\Temp\cckrLylG.s:1987   .sbss.mbedtls_ecp_group_init_fn:0000000000000000 mbedtls_ecp_group_init_fn
C:\Users\stapi\AppData\Local\Temp\cckrLylG.s:1980   .sbss.mbedtls_ecp_group_free_fn:0000000000000000 mbedtls_ecp_group_free_fn
C:\Users\stapi\AppData\Local\Temp\cckrLylG.s:1973   .sbss.mbedtls_ecp_group_copy_fn:0000000000000000 mbedtls_ecp_group_copy_fn
C:\Users\stapi\AppData\Local\Temp\cckrLylG.s:1966   .sbss.mbedtls_ecp_gen_privkey_fn:0000000000000000 mbedtls_ecp_gen_privkey_fn
C:\Users\stapi\AppData\Local\Temp\cckrLylG.s:1952   .sbss.mbedtls_ecp_gen_keypair_base_fn:0000000000000000 mbedtls_ecp_gen_keypair_base_fn
C:\Users\stapi\AppData\Local\Temp\cckrLylG.s:1959   .sbss.mbedtls_ecp_gen_keypair_fn:0000000000000000 mbedtls_ecp_gen_keypair_fn
C:\Users\stapi\AppData\Local\Temp\cckrLylG.s:1945   .sbss.mbedtls_ecp_gen_key_fn:0000000000000000 mbedtls_ecp_gen_key_fn
C:\Users\stapi\AppData\Local\Temp\cckrLylG.s:1938   .sbss.mbedtls_ecp_curve_list_fn:0000000000000000 mbedtls_ecp_curve_list_fn
C:\Users\stapi\AppData\Local\Temp\cckrLylG.s:1931   .sbss.mbedtls_ecp_curve_info_from_tls_id_fn:0000000000000000 mbedtls_ecp_curve_info_from_tls_id_fn
C:\Users\stapi\AppData\Local\Temp\cckrLylG.s:1924   .sbss.mbedtls_ecp_curve_info_from_name_fn:0000000000000000 mbedtls_ecp_curve_info_from_name_fn
C:\Users\stapi\AppData\Local\Temp\cckrLylG.s:1917   .sbss.mbedtls_ecp_curve_info_from_grp_id_fn:0000000000000000 mbedtls_ecp_curve_info_from_grp_id_fn
C:\Users\stapi\AppData\Local\Temp\cckrLylG.s:1910   .sbss.mbedtls_ecp_copy_fn:0000000000000000 mbedtls_ecp_copy_fn
C:\Users\stapi\AppData\Local\Temp\cckrLylG.s:1903   .sbss.mbedtls_ecp_check_pubkey_fn:0000000000000000 mbedtls_ecp_check_pubkey_fn
C:\Users\stapi\AppData\Local\Temp\cckrLylG.s:1896   .sbss.mbedtls_ecp_check_pub_priv_fn:0000000000000000 mbedtls_ecp_check_pub_priv_fn
C:\Users\stapi\AppData\Local\Temp\cckrLylG.s:1889   .sbss.mbedtls_ecp_check_privkey_fn:0000000000000000 mbedtls_ecp_check_privkey_fn
C:\Users\stapi\AppData\Local\Temp\cckrLylG.s:1882   .sbss.mbedtls_ecdsa_write_signature_restartable_fn:0000000000000000 mbedtls_ecdsa_write_signature_restartable_fn
C:\Users\stapi\AppData\Local\Temp\cckrLylG.s:1868   .sbss.mbedtls_ecdsa_write_signature_det_fn:0000000000000000 mbedtls_ecdsa_write_signature_det_fn
C:\Users\stapi\AppData\Local\Temp\cckrLylG.s:1875   .sbss.mbedtls_ecdsa_write_signature_fn:0000000000000000 mbedtls_ecdsa_write_signature_fn
C:\Users\stapi\AppData\Local\Temp\cckrLylG.s:1861   .sbss.mbedtls_ecdsa_verify_fn:0000000000000000 mbedtls_ecdsa_verify_fn
C:\Users\stapi\AppData\Local\Temp\cckrLylG.s:1847   .sbss.mbedtls_ecdsa_sign_det_fn:0000000000000000 mbedtls_ecdsa_sign_det_fn
C:\Users\stapi\AppData\Local\Temp\cckrLylG.s:1854   .sbss.mbedtls_ecdsa_sign_fn:0000000000000000 mbedtls_ecdsa_sign_fn
C:\Users\stapi\AppData\Local\Temp\cckrLylG.s:1840   .sbss.mbedtls_ecdsa_read_signature_restartable_fn:0000000000000000 mbedtls_ecdsa_read_signature_restartable_fn
C:\Users\stapi\AppData\Local\Temp\cckrLylG.s:1833   .sbss.mbedtls_ecdsa_read_signature_fn:0000000000000000 mbedtls_ecdsa_read_signature_fn
C:\Users\stapi\AppData\Local\Temp\cckrLylG.s:1826   .sbss.mbedtls_ecdsa_init_fn:0000000000000000 mbedtls_ecdsa_init_fn
C:\Users\stapi\AppData\Local\Temp\cckrLylG.s:1819   .sbss.mbedtls_ecdsa_genkey_fn:0000000000000000 mbedtls_ecdsa_genkey_fn
C:\Users\stapi\AppData\Local\Temp\cckrLylG.s:1812   .sbss.mbedtls_ecdsa_from_keypair_fn:0000000000000000 mbedtls_ecdsa_from_keypair_fn
C:\Users\stapi\AppData\Local\Temp\cckrLylG.s:1805   .sbss.mbedtls_ecdsa_free_fn:0000000000000000 mbedtls_ecdsa_free_fn
C:\Users\stapi\AppData\Local\Temp\cckrLylG.s:1798   .sbss.ecp_supported_curves:0000000000000000 ecp_supported_curves
C:\Users\stapi\AppData\Local\Temp\cckrLylG.s:1795   .sbss.ecp_supported_curves:0000000000000000 .LANCHOR0
C:\Users\stapi\AppData\Local\Temp\cckrLylG.s:1802   .sbss.mbedtls_ecdsa_free_fn:0000000000000000 .LANCHOR1
C:\Users\stapi\AppData\Local\Temp\cckrLylG.s:1809   .sbss.mbedtls_ecdsa_from_keypair_fn:0000000000000000 .LANCHOR2
C:\Users\stapi\AppData\Local\Temp\cckrLylG.s:1816   .sbss.mbedtls_ecdsa_genkey_fn:0000000000000000 .LANCHOR3
C:\Users\stapi\AppData\Local\Temp\cckrLylG.s:1823   .sbss.mbedtls_ecdsa_init_fn:0000000000000000 .LANCHOR4
C:\Users\stapi\AppData\Local\Temp\cckrLylG.s:1830   .sbss.mbedtls_ecdsa_read_signature_fn:0000000000000000 .LANCHOR5
C:\Users\stapi\AppData\Local\Temp\cckrLylG.s:1837   .sbss.mbedtls_ecdsa_read_signature_restartable_fn:0000000000000000 .LANCHOR6
C:\Users\stapi\AppData\Local\Temp\cckrLylG.s:1844   .sbss.mbedtls_ecdsa_sign_det_fn:0000000000000000 .LANCHOR8
C:\Users\stapi\AppData\Local\Temp\cckrLylG.s:1851   .sbss.mbedtls_ecdsa_sign_fn:0000000000000000 .LANCHOR7
C:\Users\stapi\AppData\Local\Temp\cckrLylG.s:1858   .sbss.mbedtls_ecdsa_verify_fn:0000000000000000 .LANCHOR9
C:\Users\stapi\AppData\Local\Temp\cckrLylG.s:1865   .sbss.mbedtls_ecdsa_write_signature_det_fn:0000000000000000 .LANCHOR11
C:\Users\stapi\AppData\Local\Temp\cckrLylG.s:1872   .sbss.mbedtls_ecdsa_write_signature_fn:0000000000000000 .LANCHOR10
C:\Users\stapi\AppData\Local\Temp\cckrLylG.s:1879   .sbss.mbedtls_ecdsa_write_signature_restartable_fn:0000000000000000 .LANCHOR12
C:\Users\stapi\AppData\Local\Temp\cckrLylG.s:1886   .sbss.mbedtls_ecp_check_privkey_fn:0000000000000000 .LANCHOR13
C:\Users\stapi\AppData\Local\Temp\cckrLylG.s:1893   .sbss.mbedtls_ecp_check_pub_priv_fn:0000000000000000 .LANCHOR14
C:\Users\stapi\AppData\Local\Temp\cckrLylG.s:1900   .sbss.mbedtls_ecp_check_pubkey_fn:0000000000000000 .LANCHOR15
C:\Users\stapi\AppData\Local\Temp\cckrLylG.s:1907   .sbss.mbedtls_ecp_copy_fn:0000000000000000 .LANCHOR16
C:\Users\stapi\AppData\Local\Temp\cckrLylG.s:1914   .sbss.mbedtls_ecp_curve_info_from_grp_id_fn:0000000000000000 .LANCHOR17
C:\Users\stapi\AppData\Local\Temp\cckrLylG.s:1921   .sbss.mbedtls_ecp_curve_info_from_name_fn:0000000000000000 .LANCHOR18
C:\Users\stapi\AppData\Local\Temp\cckrLylG.s:1928   .sbss.mbedtls_ecp_curve_info_from_tls_id_fn:0000000000000000 .LANCHOR19
C:\Users\stapi\AppData\Local\Temp\cckrLylG.s:1935   .sbss.mbedtls_ecp_curve_list_fn:0000000000000000 .LANCHOR20
C:\Users\stapi\AppData\Local\Temp\cckrLylG.s:1942   .sbss.mbedtls_ecp_gen_key_fn:0000000000000000 .LANCHOR21
C:\Users\stapi\AppData\Local\Temp\cckrLylG.s:1949   .sbss.mbedtls_ecp_gen_keypair_base_fn:0000000000000000 .LANCHOR23
C:\Users\stapi\AppData\Local\Temp\cckrLylG.s:1956   .sbss.mbedtls_ecp_gen_keypair_fn:0000000000000000 .LANCHOR22
C:\Users\stapi\AppData\Local\Temp\cckrLylG.s:1963   .sbss.mbedtls_ecp_gen_privkey_fn:0000000000000000 .LANCHOR24
C:\Users\stapi\AppData\Local\Temp\cckrLylG.s:1970   .sbss.mbedtls_ecp_group_copy_fn:0000000000000000 .LANCHOR25
C:\Users\stapi\AppData\Local\Temp\cckrLylG.s:1977   .sbss.mbedtls_ecp_group_free_fn:0000000000000000 .LANCHOR26
C:\Users\stapi\AppData\Local\Temp\cckrLylG.s:1984   .sbss.mbedtls_ecp_group_init_fn:0000000000000000 .LANCHOR27
C:\Users\stapi\AppData\Local\Temp\cckrLylG.s:1991   .sbss.mbedtls_ecp_grp_id_list_fn:0000000000000000 .LANCHOR28
C:\Users\stapi\AppData\Local\Temp\cckrLylG.s:1998   .sbss.mbedtls_ecp_is_zero_fn:0000000000000000 .LANCHOR29
C:\Users\stapi\AppData\Local\Temp\cckrLylG.s:2005   .sbss.mbedtls_ecp_keypair_free_fn:0000000000000000 .LANCHOR30
C:\Users\stapi\AppData\Local\Temp\cckrLylG.s:2012   .sbss.mbedtls_ecp_keypair_init_fn:0000000000000000 .LANCHOR31
C:\Users\stapi\AppData\Local\Temp\cckrLylG.s:2019   .sbss.mbedtls_ecp_mul_fn:0000000000000000 .LANCHOR32
C:\Users\stapi\AppData\Local\Temp\cckrLylG.s:2026   .sbss.mbedtls_ecp_mul_restartable_fn:0000000000000000 .LANCHOR33
C:\Users\stapi\AppData\Local\Temp\cckrLylG.s:2033   .sbss.mbedtls_ecp_muladd_fn:0000000000000000 .LANCHOR34
C:\Users\stapi\AppData\Local\Temp\cckrLylG.s:2040   .sbss.mbedtls_ecp_muladd_restartable_fn:0000000000000000 .LANCHOR35
C:\Users\stapi\AppData\Local\Temp\cckrLylG.s:2047   .sbss.mbedtls_ecp_point_cmp_fn:0000000000000000 .LANCHOR36
C:\Users\stapi\AppData\Local\Temp\cckrLylG.s:2054   .sbss.mbedtls_ecp_point_free_fn:0000000000000000 .LANCHOR37
C:\Users\stapi\AppData\Local\Temp\cckrLylG.s:2061   .sbss.mbedtls_ecp_point_init_fn:0000000000000000 .LANCHOR38
C:\Users\stapi\AppData\Local\Temp\cckrLylG.s:2068   .sbss.mbedtls_ecp_point_read_binary_fn:0000000000000000 .LANCHOR39
C:\Users\stapi\AppData\Local\Temp\cckrLylG.s:2075   .sbss.mbedtls_ecp_point_read_string_fn:0000000000000000 .LANCHOR40
C:\Users\stapi\AppData\Local\Temp\cckrLylG.s:2082   .sbss.mbedtls_ecp_point_write_binary_fn:0000000000000000 .LANCHOR41
C:\Users\stapi\AppData\Local\Temp\cckrLylG.s:2089   .sbss.mbedtls_ecp_set_zero_fn:0000000000000000 .LANCHOR42
C:\Users\stapi\AppData\Local\Temp\cckrLylG.s:2096   .sbss.mbedtls_ecp_tls_read_group_fn:0000000000000000 .LANCHOR43
C:\Users\stapi\AppData\Local\Temp\cckrLylG.s:2103   .sbss.mbedtls_ecp_tls_read_group_id_fn:0000000000000000 .LANCHOR44
C:\Users\stapi\AppData\Local\Temp\cckrLylG.s:2110   .sbss.mbedtls_ecp_tls_read_point_fn:0000000000000000 .LANCHOR45
C:\Users\stapi\AppData\Local\Temp\cckrLylG.s:2117   .sbss.mbedtls_ecp_tls_write_group_fn:0000000000000000 .LANCHOR46
C:\Users\stapi\AppData\Local\Temp\cckrLylG.s:2124   .sbss.mbedtls_ecp_tls_write_point_fn:0000000000000000 .LANCHOR47
C:\Users\stapi\AppData\Local\Temp\cckrLylG.s:2131   .sbss.mbedtls_internal_md5_process_fn:0000000000000000 .LANCHOR48
C:\Users\stapi\AppData\Local\Temp\cckrLylG.s:2138   .sbss.mbedtls_internal_sha256_process_fn:0000000000000000 .LANCHOR49
C:\Users\stapi\AppData\Local\Temp\cckrLylG.s:2145   .sbss.mbedtls_md5_clone_fn:0000000000000000 .LANCHOR51
C:\Users\stapi\AppData\Local\Temp\cckrLylG.s:2152   .sbss.mbedtls_md5_finish_fn:0000000000000000 .LANCHOR52
C:\Users\stapi\AppData\Local\Temp\cckrLylG.s:2159   .sbss.mbedtls_md5_finish_ret_fn:0000000000000000 .LANCHOR53
C:\Users\stapi\AppData\Local\Temp\cckrLylG.s:2166   .sbss.mbedtls_md5_fn:0000000000000000 .LANCHOR50
C:\Users\stapi\AppData\Local\Temp\cckrLylG.s:2173   .sbss.mbedtls_md5_free_fn:0000000000000000 .LANCHOR54
C:\Users\stapi\AppData\Local\Temp\cckrLylG.s:2180   .sbss.mbedtls_md5_init_fn:0000000000000000 .LANCHOR55
C:\Users\stapi\AppData\Local\Temp\cckrLylG.s:2187   .sbss.mbedtls_md5_process_fn:0000000000000000 .LANCHOR56
C:\Users\stapi\AppData\Local\Temp\cckrLylG.s:2194   .sbss.mbedtls_md5_ret_fn:0000000000000000 .LANCHOR57
C:\Users\stapi\AppData\Local\Temp\cckrLylG.s:2201   .sbss.mbedtls_md5_starts_fn:0000000000000000 .LANCHOR58
C:\Users\stapi\AppData\Local\Temp\cckrLylG.s:2208   .sbss.mbedtls_md5_starts_ret_fn:0000000000000000 .LANCHOR59
C:\Users\stapi\AppData\Local\Temp\cckrLylG.s:2215   .sbss.mbedtls_md5_update_fn:0000000000000000 .LANCHOR60
C:\Users\stapi\AppData\Local\Temp\cckrLylG.s:2222   .sbss.mbedtls_md5_update_ret_fn:0000000000000000 .LANCHOR61
C:\Users\stapi\AppData\Local\Temp\cckrLylG.s:2229   .sbss.mbedtls_mpi_div_int_fn:0000000000000000 .LANCHOR62
C:\Users\stapi\AppData\Local\Temp\cckrLylG.s:2236   .sbss.mbedtls_mpi_div_mpi_fn:0000000000000000 .LANCHOR63
C:\Users\stapi\AppData\Local\Temp\cckrLylG.s:2243   .sbss.mbedtls_mpi_exp_mod_fn:0000000000000000 .LANCHOR64
C:\Users\stapi\AppData\Local\Temp\cckrLylG.s:2250   .sbss.mbedtls_mpi_exp_mod_sw_fn:0000000000000000 .LANCHOR65
C:\Users\stapi\AppData\Local\Temp\cckrLylG.s:2257   .sbss.mbedtls_mpi_fill_random_fn:0000000000000000 .LANCHOR66
C:\Users\stapi\AppData\Local\Temp\cckrLylG.s:2264   .sbss.mbedtls_mpi_gcd_fn:0000000000000000 .LANCHOR67
C:\Users\stapi\AppData\Local\Temp\cckrLylG.s:2271   .sbss.mbedtls_mpi_gen_prime_fn:0000000000000000 .LANCHOR68
C:\Users\stapi\AppData\Local\Temp\cckrLylG.s:2278   .sbss.mbedtls_mpi_inv_mod_fn:0000000000000000 .LANCHOR69
C:\Users\stapi\AppData\Local\Temp\cckrLylG.s:2285   .sbss.mbedtls_mpi_is_prime_ext_fn:0000000000000000 .LANCHOR71
C:\Users\stapi\AppData\Local\Temp\cckrLylG.s:2292   .sbss.mbedtls_mpi_is_prime_fn:0000000000000000 .LANCHOR70
C:\Users\stapi\AppData\Local\Temp\cckrLylG.s:2299   .sbss.mbedtls_mpi_mod_int_fn:0000000000000000 .LANCHOR72
C:\Users\stapi\AppData\Local\Temp\cckrLylG.s:2306   .sbss.mbedtls_mpi_mod_mpi_fn:0000000000000000 .LANCHOR73
C:\Users\stapi\AppData\Local\Temp\cckrLylG.s:2313   .sbss.mbedtls_mpi_mul_int_fn:0000000000000000 .LANCHOR74
C:\Users\stapi\AppData\Local\Temp\cckrLylG.s:2320   .sbss.mbedtls_mpi_mul_mpi_fn:0000000000000000 .LANCHOR75
C:\Users\stapi\AppData\Local\Temp\cckrLylG.s:2327   .sbss.mbedtls_mpi_read_string_fn:0000000000000000 .LANCHOR76
C:\Users\stapi\AppData\Local\Temp\cckrLylG.s:2334   .sbss.mbedtls_mpi_write_string_fn:0000000000000000 .LANCHOR77
C:\Users\stapi\AppData\Local\Temp\cckrLylG.s:2341   .sbss.mbedtls_rsa_check_privkey_fn:0000000000000000 .LANCHOR78
C:\Users\stapi\AppData\Local\Temp\cckrLylG.s:2348   .sbss.mbedtls_rsa_check_pub_priv_fn:0000000000000000 .LANCHOR79
C:\Users\stapi\AppData\Local\Temp\cckrLylG.s:2355   .sbss.mbedtls_rsa_check_pubkey_fn:0000000000000000 .LANCHOR80
C:\Users\stapi\AppData\Local\Temp\cckrLylG.s:2362   .sbss.mbedtls_rsa_complete_fn:0000000000000000 .LANCHOR81
C:\Users\stapi\AppData\Local\Temp\cckrLylG.s:2369   .sbss.mbedtls_rsa_copy_fn:0000000000000000 .LANCHOR82
C:\Users\stapi\AppData\Local\Temp\cckrLylG.s:2376   .sbss.mbedtls_rsa_export_crt_fn:0000000000000000 .LANCHOR84
C:\Users\stapi\AppData\Local\Temp\cckrLylG.s:2383   .sbss.mbedtls_rsa_export_fn:0000000000000000 .LANCHOR83
C:\Users\stapi\AppData\Local\Temp\cckrLylG.s:2390   .sbss.mbedtls_rsa_export_raw_fn:0000000000000000 .LANCHOR85
C:\Users\stapi\AppData\Local\Temp\cckrLylG.s:2397   .sbss.mbedtls_rsa_free_fn:0000000000000000 .LANCHOR86
C:\Users\stapi\AppData\Local\Temp\cckrLylG.s:2404   .sbss.mbedtls_rsa_gen_key_fn:0000000000000000 .LANCHOR87
C:\Users\stapi\AppData\Local\Temp\cckrLylG.s:2411   .sbss.mbedtls_rsa_get_len_fn:0000000000000000 .LANCHOR88
C:\Users\stapi\AppData\Local\Temp\cckrLylG.s:2418   .sbss.mbedtls_rsa_import_fn:0000000000000000 .LANCHOR89
C:\Users\stapi\AppData\Local\Temp\cckrLylG.s:2425   .sbss.mbedtls_rsa_import_raw_fn:0000000000000000 .LANCHOR90
C:\Users\stapi\AppData\Local\Temp\cckrLylG.s:2432   .sbss.mbedtls_rsa_init_fn:0000000000000000 .LANCHOR91
C:\Users\stapi\AppData\Local\Temp\cckrLylG.s:2439   .sbss.mbedtls_rsa_pkcs1_decrypt_fn:0000000000000000 .LANCHOR92
C:\Users\stapi\AppData\Local\Temp\cckrLylG.s:2446   .sbss.mbedtls_rsa_pkcs1_encrypt_fn:0000000000000000 .LANCHOR93
C:\Users\stapi\AppData\Local\Temp\cckrLylG.s:2453   .sbss.mbedtls_rsa_pkcs1_sign_fn:0000000000000000 .LANCHOR94
C:\Users\stapi\AppData\Local\Temp\cckrLylG.s:2460   .sbss.mbedtls_rsa_pkcs1_verify_fn:0000000000000000 .LANCHOR95
C:\Users\stapi\AppData\Local\Temp\cckrLylG.s:2467   .sbss.mbedtls_rsa_private_fn:0000000000000000 .LANCHOR96
C:\Users\stapi\AppData\Local\Temp\cckrLylG.s:2474   .sbss.mbedtls_rsa_private_sw_fn:0000000000000000 .LANCHOR97
C:\Users\stapi\AppData\Local\Temp\cckrLylG.s:2481   .sbss.mbedtls_rsa_public_fn:0000000000000000 .LANCHOR98
C:\Users\stapi\AppData\Local\Temp\cckrLylG.s:2488   .sbss.mbedtls_rsa_rsaes_oaep_decrypt_fn:0000000000000000 .LANCHOR99
C:\Users\stapi\AppData\Local\Temp\cckrLylG.s:2495   .sbss.mbedtls_rsa_rsaes_oaep_encrypt_fn:0000000000000000 .LANCHOR100
C:\Users\stapi\AppData\Local\Temp\cckrLylG.s:2502   .sbss.mbedtls_rsa_rsaes_pkcs1_v15_decrypt_fn:0000000000000000 .LANCHOR101
C:\Users\stapi\AppData\Local\Temp\cckrLylG.s:2509   .sbss.mbedtls_rsa_rsaes_pkcs1_v15_encrypt_fn:0000000000000000 .LANCHOR102
C:\Users\stapi\AppData\Local\Temp\cckrLylG.s:2516   .sbss.mbedtls_rsa_rsassa_pkcs1_v15_sign_fn:0000000000000000 .LANCHOR103
C:\Users\stapi\AppData\Local\Temp\cckrLylG.s:2523   .sbss.mbedtls_rsa_rsassa_pkcs1_v15_verify_fn:0000000000000000 .LANCHOR104
C:\Users\stapi\AppData\Local\Temp\cckrLylG.s:2530   .sbss.mbedtls_rsa_rsassa_pss_sign_fn:0000000000000000 .LANCHOR105
C:\Users\stapi\AppData\Local\Temp\cckrLylG.s:2537   .sbss.mbedtls_rsa_rsassa_pss_verify_ext_fn:0000000000000000 .LANCHOR107
C:\Users\stapi\AppData\Local\Temp\cckrLylG.s:2544   .sbss.mbedtls_rsa_rsassa_pss_verify_fn:0000000000000000 .LANCHOR106
C:\Users\stapi\AppData\Local\Temp\cckrLylG.s:2551   .sbss.mbedtls_rsa_set_padding_fn:0000000000000000 .LANCHOR108
C:\Users\stapi\AppData\Local\Temp\cckrLylG.s:2558   .sbss.mbedtls_sha256_clone_fn:0000000000000000 .LANCHOR109
C:\Users\stapi\AppData\Local\Temp\cckrLylG.s:2565   .sbss.mbedtls_sha256_finish_fn:0000000000000000 .LANCHOR110
C:\Users\stapi\AppData\Local\Temp\cckrLylG.s:2572   .sbss.mbedtls_sha256_finish_ret_fn:0000000000000000 .LANCHOR111
C:\Users\stapi\AppData\Local\Temp\cckrLylG.s:2579   .sbss.mbedtls_sha256_free_fn:0000000000000000 .LANCHOR112
C:\Users\stapi\AppData\Local\Temp\cckrLylG.s:2586   .sbss.mbedtls_sha256_init_fn:0000000000000000 .LANCHOR113
C:\Users\stapi\AppData\Local\Temp\cckrLylG.s:2593   .sbss.mbedtls_sha256_starts_fn:0000000000000000 .LANCHOR114
C:\Users\stapi\AppData\Local\Temp\cckrLylG.s:2600   .sbss.mbedtls_sha256_starts_ret_fn:0000000000000000 .LANCHOR115
C:\Users\stapi\AppData\Local\Temp\cckrLylG.s:2607   .sbss.mbedtls_sha256_update_fn:0000000000000000 .LANCHOR116
C:\Users\stapi\AppData\Local\Temp\cckrLylG.s:2614   .sbss.mbedtls_sha256_update_ret_fn:0000000000000000 .LANCHOR117
C:\Users\stapi\AppData\Local\Temp\cckrLylG.s:1793   .text.rom_symbol_init:0000000000000bde .L0 
                     .debug_frame:0000000000000000 .L0 
C:\Users\stapi\AppData\Local\Temp\cckrLylG.s:848    .text.rom_symbol_init:00000000000005fc .L2
C:\Users\stapi\AppData\Local\Temp\cckrLylG.s:6066   .debug_abbrev:0000000000000000 .Ldebug_abbrev0
C:\Users\stapi\AppData\Local\Temp\cckrLylG.s:6981   .debug_str:0000000000001102 .LASF200
C:\Users\stapi\AppData\Local\Temp\cckrLylG.s:6627   .debug_str:00000000000000e1 .LASF201
C:\Users\stapi\AppData\Local\Temp\cckrLylG.s:6721   .debug_str:0000000000000500 .LASF202
C:\Users\stapi\AppData\Local\Temp\cckrLylG.s:6597   .debug_ranges:0000000000000000 .Ldebug_ranges0
C:\Users\stapi\AppData\Local\Temp\cckrLylG.s:6603   .debug_line:0000000000000000 .Ldebug_line0
C:\Users\stapi\AppData\Local\Temp\cckrLylG.s:6609   .debug_str:0000000000000010 .LASF2
C:\Users\stapi\AppData\Local\Temp\cckrLylG.s:6641   .debug_str:00000000000001fd .LASF0
C:\Users\stapi\AppData\Local\Temp\cckrLylG.s:6659   .debug_str:000000000000028a .LASF1
C:\Users\stapi\AppData\Local\Temp\cckrLylG.s:6617   .debug_str:0000000000000075 .LASF3
C:\Users\stapi\AppData\Local\Temp\cckrLylG.s:6869   .debug_str:0000000000000bf3 .LASF4
C:\Users\stapi\AppData\Local\Temp\cckrLylG.s:6879   .debug_str:0000000000000c5d .LASF5
C:\Users\stapi\AppData\Local\Temp\cckrLylG.s:6923   .debug_str:0000000000000e45 .LASF6
C:\Users\stapi\AppData\Local\Temp\cckrLylG.s:6761   .debug_str:0000000000000729 .LASF7
C:\Users\stapi\AppData\Local\Temp\cckrLylG.s:6789   .debug_str:0000000000000876 .LASF8
C:\Users\stapi\AppData\Local\Temp\cckrLylG.s:6683   .debug_str:000000000000037e .LASF9
C:\Users\stapi\AppData\Local\Temp\cckrLylG.s:6717   .debug_str:00000000000004db .LASF10
C:\Users\stapi\AppData\Local\Temp\cckrLylG.s:6743   .debug_str:0000000000000661 .LASF11
C:\Users\stapi\AppData\Local\Temp\cckrLylG.s:6657   .debug_str:000000000000027c .LASF12
C:\Users\stapi\AppData\Local\Temp\cckrLylG.s:6635   .debug_str:00000000000001aa .LASF13
C:\Users\stapi\AppData\Local\Temp\cckrLylG.s:6985   .debug_str:00000000000011ef .LASF14
C:\Users\stapi\AppData\Local\Temp\cckrLylG.s:6695   .debug_str:00000000000003f6 .LASF15
C:\Users\stapi\AppData\Local\Temp\cckrLylG.s:6867   .debug_str:0000000000000beb .LASF16
C:\Users\stapi\AppData\Local\Temp\cckrLylG.s:7013   .debug_str:000000000000134f .LASF17
C:\Users\stapi\AppData\Local\Temp\cckrLylG.s:6917   .debug_str:0000000000000e0f .LASF18
C:\Users\stapi\AppData\Local\Temp\cckrLylG.s:6737   .debug_str:0000000000000619 .LASF19
C:\Users\stapi\AppData\Local\Temp\cckrLylG.s:6711   .debug_str:00000000000004a3 .LASF20
C:\Users\stapi\AppData\Local\Temp\cckrLylG.s:6823   .debug_str:00000000000009e9 .LASF21
C:\Users\stapi\AppData\Local\Temp\cckrLylG.s:6877   .debug_str:0000000000000c50 .LASF22
C:\Users\stapi\AppData\Local\Temp\cckrLylG.s:6939   .debug_str:0000000000000ed5 .LASF23
C:\Users\stapi\AppData\Local\Temp\cckrLylG.s:6709   .debug_str:000000000000048f .LASF27
C:\Users\stapi\AppData\Local\Temp\cckrLylG.s:6785   .debug_str:0000000000000851 .LASF24
C:\Users\stapi\AppData\Local\Temp\cckrLylG.s:6679   .debug_str:000000000000035f .LASF25
C:\Users\stapi\AppData\Local\Temp\cckrLylG.s:6933   .debug_str:0000000000000e95 .LASF26
C:\Users\stapi\AppData\Local\Temp\cckrLylG.s:6953   .debug_str:0000000000000f8b .LASF28
C:\Users\stapi\AppData\Local\Temp\cckrLylG.s:6983   .debug_str:00000000000011e9 .LASF29
C:\Users\stapi\AppData\Local\Temp\cckrLylG.s:6685   .debug_str:0000000000000387 .LASF30
C:\Users\stapi\AppData\Local\Temp\cckrLylG.s:6771   .debug_str:00000000000007a1 .LASF31
C:\Users\stapi\AppData\Local\Temp\cckrLylG.s:6851   .debug_str:0000000000000b4c .LASF32
C:\Users\stapi\AppData\Local\Temp\cckrLylG.s:6941   .debug_str:0000000000000ef2 .LASF33
C:\Users\stapi\AppData\Local\Temp\cckrLylG.s:6875   .debug_str:0000000000000c41 .LASF34
C:\Users\stapi\AppData\Local\Temp\cckrLylG.s:6947   .debug_str:0000000000000f30 .LASF35
C:\Users\stapi\AppData\Local\Temp\cckrLylG.s:6745   .debug_str:0000000000000673 .LASF36
C:\Users\stapi\AppData\Local\Temp\cckrLylG.s:6801   .debug_str:00000000000008ee .LASF37
C:\Users\stapi\AppData\Local\Temp\cckrLylG.s:6859   .debug_str:0000000000000ba7 .LASF38
C:\Users\stapi\AppData\Local\Temp\cckrLylG.s:6945   .debug_str:0000000000000f1e .LASF39
C:\Users\stapi\AppData\Local\Temp\cckrLylG.s:6825   .debug_str:00000000000009f7 .LASF40
C:\Users\stapi\AppData\Local\Temp\cckrLylG.s:6755   .debug_str:00000000000006d6 .LASF41
C:\Users\stapi\AppData\Local\Temp\cckrLylG.s:6791   .debug_str:0000000000000880 .LASF42
C:\Users\stapi\AppData\Local\Temp\cckrLylG.s:6961   .debug_str:0000000000000ffe .LASF43
C:\Users\stapi\AppData\Local\Temp\cckrLylG.s:6863   .debug_str:0000000000000bd3 .LASF44
C:\Users\stapi\AppData\Local\Temp\cckrLylG.s:6651   .debug_str:0000000000000245 .LASF45
C:\Users\stapi\AppData\Local\Temp\cckrLylG.s:6671   .debug_str:0000000000000303 .LASF46
C:\Users\stapi\AppData\Local\Temp\cckrLylG.s:6723   .debug_str:000000000000057f .LASF47
C:\Users\stapi\AppData\Local\Temp\cckrLylG.s:6735   .debug_str:0000000000000600 .LASF48
C:\Users\stapi\AppData\Local\Temp\cckrLylG.s:6681   .debug_str:0000000000000365 .LASF49
C:\Users\stapi\AppData\Local\Temp\cckrLylG.s:6725   .debug_str:0000000000000598 .LASF50
C:\Users\stapi\AppData\Local\Temp\cckrLylG.s:6915   .debug_str:0000000000000df6 .LASF51
C:\Users\stapi\AppData\Local\Temp\cckrLylG.s:6799   .debug_str:00000000000008d7 .LASF52
C:\Users\stapi\AppData\Local\Temp\cckrLylG.s:6655   .debug_str:0000000000000265 .LASF53
C:\Users\stapi\AppData\Local\Temp\cckrLylG.s:6955   .debug_str:0000000000000fa2 .LASF54
C:\Users\stapi\AppData\Local\Temp\cckrLylG.s:6977   .debug_str:00000000000010c3 .LASF55
C:\Users\stapi\AppData\Local\Temp\cckrLylG.s:6767   .debug_str:0000000000000771 .LASF56
C:\Users\stapi\AppData\Local\Temp\cckrLylG.s:6765   .debug_str:0000000000000758 .LASF57
C:\Users\stapi\AppData\Local\Temp\cckrLylG.s:6921   .debug_str:0000000000000e2c .LASF58
C:\Users\stapi\AppData\Local\Temp\cckrLylG.s:6919   .debug_str:0000000000000e14 .LASF59
C:\Users\stapi\AppData\Local\Temp\cckrLylG.s:6793   .debug_str:0000000000000892 .LASF60
C:\Users\stapi\AppData\Local\Temp\cckrLylG.s:7007   .debug_str:0000000000001301 .LASF61
C:\Users\stapi\AppData\Local\Temp\cckrLylG.s:6865   .debug_str:0000000000000be4 .LASF62
C:\Users\stapi\AppData\Local\Temp\cckrLylG.s:6649   .debug_str:000000000000023e .LASF63
C:\Users\stapi\AppData\Local\Temp\cckrLylG.s:6705   .debug_str:0000000000000464 .LASF64
C:\Users\stapi\AppData\Local\Temp\cckrLylG.s:6751   .debug_str:00000000000006b7 .LASF65
C:\Users\stapi\AppData\Local\Temp\cckrLylG.s:6969   .debug_str:0000000000001058 .LASF66
C:\Users\stapi\AppData\Local\Temp\cckrLylG.s:6987   .debug_str:00000000000011f7 .LASF67
C:\Users\stapi\AppData\Local\Temp\cckrLylG.s:6841   .debug_str:0000000000000ac0 .LASF68
C:\Users\stapi\AppData\Local\Temp\cckrLylG.s:6729   .debug_str:00000000000005cb .LASF69
C:\Users\stapi\AppData\Local\Temp\cckrLylG.s:6927   .debug_str:0000000000000e69 .LASF70
C:\Users\stapi\AppData\Local\Temp\cckrLylG.s:6665   .debug_str:00000000000002cb .LASF71
C:\Users\stapi\AppData\Local\Temp\cckrLylG.s:6885   .debug_str:0000000000000c95 .LASF72
C:\Users\stapi\AppData\Local\Temp\cckrLylG.s:6645   .debug_str:0000000000000219 .LASF73
C:\Users\stapi\AppData\Local\Temp\cckrLylG.s:6815   .debug_str:00000000000009a6 .LASF74
C:\Users\stapi\AppData\Local\Temp\cckrLylG.s:6669   .debug_str:00000000000002eb .LASF80
C:\Users\stapi\AppData\Local\Temp\cckrLylG.s:6883   .debug_str:0000000000000c81 .LASF75
C:\Users\stapi\AppData\Local\Temp\cckrLylG.s:6653   .debug_str:0000000000000251 .LASF76
C:\Users\stapi\AppData\Local\Temp\cckrLylG.s:6605   .debug_str:0000000000000000 .LASF77
C:\Users\stapi\AppData\Local\Temp\cckrLylG.s:6607   .debug_str:0000000000000008 .LASF78
C:\Users\stapi\AppData\Local\Temp\cckrLylG.s:6713   .debug_str:00000000000004af .LASF79
C:\Users\stapi\AppData\Local\Temp\cckrLylG.s:6887   .debug_str:0000000000000c9c .LASF81
C:\Users\stapi\AppData\Local\Temp\cckrLylG.s:6631   .debug_str:000000000000017f .LASF82
C:\Users\stapi\AppData\Local\Temp\cckrLylG.s:6795   .debug_str:00000000000008a7 .LASF83
C:\Users\stapi\AppData\Local\Temp\cckrLylG.s:6647   .debug_str:0000000000000220 .LASF84
C:\Users\stapi\AppData\Local\Temp\cckrLylG.s:6675   .debug_str:000000000000032b .LASF85
C:\Users\stapi\AppData\Local\Temp\cckrLylG.s:6633   .debug_str:0000000000000194 .LASF86
C:\Users\stapi\AppData\Local\Temp\cckrLylG.s:6691   .debug_str:00000000000003c6 .LASF87
C:\Users\stapi\AppData\Local\Temp\cckrLylG.s:6871   .debug_str:0000000000000c01 .LASF88
C:\Users\stapi\AppData\Local\Temp\cckrLylG.s:6897   .debug_str:0000000000000d22 .LASF89
C:\Users\stapi\AppData\Local\Temp\cckrLylG.s:6819   .debug_str:00000000000009ca .LASF90
C:\Users\stapi\AppData\Local\Temp\cckrLylG.s:6963   .debug_str:000000000000100f .LASF91
C:\Users\stapi\AppData\Local\Temp\cckrLylG.s:6967   .debug_str:0000000000001037 .LASF92
C:\Users\stapi\AppData\Local\Temp\cckrLylG.s:6829   .debug_str:0000000000000a20 .LASF93
C:\Users\stapi\AppData\Local\Temp\cckrLylG.s:6845   .debug_str:0000000000000ae6 .LASF94
C:\Users\stapi\AppData\Local\Temp\cckrLylG.s:6943   .debug_str:0000000000000f01 .LASF95
C:\Users\stapi\AppData\Local\Temp\cckrLylG.s:6995   .debug_str:0000000000001254 .LASF96
C:\Users\stapi\AppData\Local\Temp\cckrLylG.s:6689   .debug_str:00000000000003aa .LASF97
C:\Users\stapi\AppData\Local\Temp\cckrLylG.s:7015   .debug_str:0000000000001358 .LASF98
C:\Users\stapi\AppData\Local\Temp\cckrLylG.s:6951   .debug_str:0000000000000f65 .LASF99
C:\Users\stapi\AppData\Local\Temp\cckrLylG.s:6971   .debug_str:000000000000106a .LASF100
C:\Users\stapi\AppData\Local\Temp\cckrLylG.s:6949   .debug_str:0000000000000f3f .LASF101
C:\Users\stapi\AppData\Local\Temp\cckrLylG.s:6719   .debug_str:00000000000004e6 .LASF102
C:\Users\stapi\AppData\Local\Temp\cckrLylG.s:6997   .debug_str:0000000000001272 .LASF103
C:\Users\stapi\AppData\Local\Temp\cckrLylG.s:6855   .debug_str:0000000000000b72 .LASF104
C:\Users\stapi\AppData\Local\Temp\cckrLylG.s:6839   .debug_str:0000000000000aa0 .LASF105
C:\Users\stapi\AppData\Local\Temp\cckrLylG.s:6895   .debug_str:0000000000000d07 .LASF106
C:\Users\stapi\AppData\Local\Temp\cckrLylG.s:6903   .debug_str:0000000000000d66 .LASF107
C:\Users\stapi\AppData\Local\Temp\cckrLylG.s:6805   .debug_str:000000000000091a .LASF108
C:\Users\stapi\AppData\Local\Temp\cckrLylG.s:6629   .debug_str:0000000000000165 .LASF109
C:\Users\stapi\AppData\Local\Temp\cckrLylG.s:6781   .debug_str:000000000000081a .LASF110
C:\Users\stapi\AppData\Local\Temp\cckrLylG.s:6975   .debug_str:00000000000010ac .LASF111
C:\Users\stapi\AppData\Local\Temp\cckrLylG.s:6677   .debug_str:0000000000000343 .LASF112
C:\Users\stapi\AppData\Local\Temp\cckrLylG.s:6935   .debug_str:0000000000000e9c .LASF113
C:\Users\stapi\AppData\Local\Temp\cckrLylG.s:6929   .debug_str:0000000000000e6e .LASF114
C:\Users\stapi\AppData\Local\Temp\cckrLylG.s:6991   .debug_str:000000000000121f .LASF115
C:\Users\stapi\AppData\Local\Temp\cckrLylG.s:6731   .debug_str:00000000000005d1 .LASF116
C:\Users\stapi\AppData\Local\Temp\cckrLylG.s:6707   .debug_str:000000000000046d .LASF117
C:\Users\stapi\AppData\Local\Temp\cckrLylG.s:6925   .debug_str:0000000000000e50 .LASF118
C:\Users\stapi\AppData\Local\Temp\cckrLylG.s:6667   .debug_str:00000000000002d1 .LASF119
C:\Users\stapi\AppData\Local\Temp\cckrLylG.s:6881   .debug_str:0000000000000c67 .LASF120
C:\Users\stapi\AppData\Local\Temp\cckrLylG.s:6813   .debug_str:0000000000000985 .LASF121
C:\Users\stapi\AppData\Local\Temp\cckrLylG.s:6777   .debug_str:00000000000007e2 .LASF122
C:\Users\stapi\AppData\Local\Temp\cckrLylG.s:7005   .debug_str:00000000000012df .LASF123
C:\Users\stapi\AppData\Local\Temp\cckrLylG.s:6611   .debug_str:0000000000000017 .LASF124
C:\Users\stapi\AppData\Local\Temp\cckrLylG.s:6957   .debug_str:0000000000000fb9 .LASF125
C:\Users\stapi\AppData\Local\Temp\cckrLylG.s:6999   .debug_str:0000000000001289 .LASF126
C:\Users\stapi\AppData\Local\Temp\cckrLylG.s:6973   .debug_str:000000000000108e .LASF127
C:\Users\stapi\AppData\Local\Temp\cckrLylG.s:6613   .debug_str:000000000000002f .LASF128
C:\Users\stapi\AppData\Local\Temp\cckrLylG.s:6639   .debug_str:00000000000001de .LASF129
C:\Users\stapi\AppData\Local\Temp\cckrLylG.s:6843   .debug_str:0000000000000ac6 .LASF130
C:\Users\stapi\AppData\Local\Temp\cckrLylG.s:6849   .debug_str:0000000000000b29 .LASF131
C:\Users\stapi\AppData\Local\Temp\cckrLylG.s:6643   .debug_str:000000000000020a .LASF132
C:\Users\stapi\AppData\Local\Temp\cckrLylG.s:6701   .debug_str:000000000000043b .LASF133
C:\Users\stapi\AppData\Local\Temp\cckrLylG.s:6847   .debug_str:0000000000000b13 .LASF134
C:\Users\stapi\AppData\Local\Temp\cckrLylG.s:6861   .debug_str:0000000000000bb9 .LASF135
C:\Users\stapi\AppData\Local\Temp\cckrLylG.s:6673   .debug_str:0000000000000317 .LASF136
C:\Users\stapi\AppData\Local\Temp\cckrLylG.s:6931   .debug_str:0000000000000e81 .LASF137
C:\Users\stapi\AppData\Local\Temp\cckrLylG.s:6621   .debug_str:0000000000000096 .LASF138
C:\Users\stapi\AppData\Local\Temp\cckrLylG.s:6831   .debug_str:0000000000000a45 .LASF139
C:\Users\stapi\AppData\Local\Temp\cckrLylG.s:6989   .debug_str:0000000000001209 .LASF140
C:\Users\stapi\AppData\Local\Temp\cckrLylG.s:6857   .debug_str:0000000000000b8d .LASF141
C:\Users\stapi\AppData\Local\Temp\cckrLylG.s:6993   .debug_str:000000000000123e .LASF142
C:\Users\stapi\AppData\Local\Temp\cckrLylG.s:6911   .debug_str:0000000000000dc5 .LASF143
C:\Users\stapi\AppData\Local\Temp\cckrLylG.s:6807   .debug_str:0000000000000934 .LASF144
C:\Users\stapi\AppData\Local\Temp\cckrLylG.s:6913   .debug_str:0000000000000ddf .LASF145
C:\Users\stapi\AppData\Local\Temp\cckrLylG.s:6899   .debug_str:0000000000000d38 .LASF146
C:\Users\stapi\AppData\Local\Temp\cckrLylG.s:6699   .debug_str:0000000000000421 .LASF147
C:\Users\stapi\AppData\Local\Temp\cckrLylG.s:6749   .debug_str:000000000000069c .LASF148
C:\Users\stapi\AppData\Local\Temp\cckrLylG.s:6809   .debug_str:000000000000094b .LASF149
C:\Users\stapi\AppData\Local\Temp\cckrLylG.s:6733   .debug_str:00000000000005e7 .LASF150
C:\Users\stapi\AppData\Local\Temp\cckrLylG.s:6779   .debug_str:0000000000000803 .LASF151
C:\Users\stapi\AppData\Local\Temp\cckrLylG.s:6773   .debug_str:00000000000007ae .LASF152
C:\Users\stapi\AppData\Local\Temp\cckrLylG.s:6783   .debug_str:0000000000000835 .LASF153
C:\Users\stapi\AppData\Local\Temp\cckrLylG.s:7003   .debug_str:00000000000012c8 .LASF154
C:\Users\stapi\AppData\Local\Temp\cckrLylG.s:6769   .debug_str:000000000000078a .LASF155
C:\Users\stapi\AppData\Local\Temp\cckrLylG.s:6907   .debug_str:0000000000000d96 .LASF156
C:\Users\stapi\AppData\Local\Temp\cckrLylG.s:7017   .debug_str:000000000000136c .LASF157
C:\Users\stapi\AppData\Local\Temp\cckrLylG.s:6687   .debug_str:000000000000038f .LASF158
C:\Users\stapi\AppData\Local\Temp\cckrLylG.s:6775   .debug_str:00000000000007c6 .LASF159
C:\Users\stapi\AppData\Local\Temp\cckrLylG.s:6637   .debug_str:00000000000001c1 .LASF160
C:\Users\stapi\AppData\Local\Temp\cckrLylG.s:7001   .debug_str:00000000000012aa .LASF161
C:\Users\stapi\AppData\Local\Temp\cckrLylG.s:6763   .debug_str:000000000000073c .LASF162
C:\Users\stapi\AppData\Local\Temp\cckrLylG.s:6909   .debug_str:0000000000000dad .LASF163
C:\Users\stapi\AppData\Local\Temp\cckrLylG.s:6833   .debug_str:0000000000000a58 .LASF164
C:\Users\stapi\AppData\Local\Temp\cckrLylG.s:6905   .debug_str:0000000000000d80 .LASF165
C:\Users\stapi\AppData\Local\Temp\cckrLylG.s:7011   .debug_str:0000000000001335 .LASF166
C:\Users\stapi\AppData\Local\Temp\cckrLylG.s:6727   .debug_str:00000000000005b1 .LASF167
C:\Users\stapi\AppData\Local\Temp\cckrLylG.s:6703   .debug_str:0000000000000450 .LASF168
C:\Users\stapi\AppData\Local\Temp\cckrLylG.s:6893   .debug_str:0000000000000cf0 .LASF169
C:\Users\stapi\AppData\Local\Temp\cckrLylG.s:6827   .debug_str:0000000000000a09 .LASF170
C:\Users\stapi\AppData\Local\Temp\cckrLylG.s:6853   .debug_str:0000000000000b5c .LASF171
C:\Users\stapi\AppData\Local\Temp\cckrLylG.s:6803   .debug_str:0000000000000900 .LASF172
C:\Users\stapi\AppData\Local\Temp\cckrLylG.s:6873   .debug_str:0000000000000c2d .LASF173
C:\Users\stapi\AppData\Local\Temp\cckrLylG.s:6937   .debug_str:0000000000000eb8 .LASF174
C:\Users\stapi\AppData\Local\Temp\cckrLylG.s:6661   .debug_str:0000000000000296 .LASF175
C:\Users\stapi\AppData\Local\Temp\cckrLylG.s:6797   .debug_str:00000000000008bd .LASF176
C:\Users\stapi\AppData\Local\Temp\cckrLylG.s:6757   .debug_str:00000000000006eb .LASF177
C:\Users\stapi\AppData\Local\Temp\cckrLylG.s:6837   .debug_str:0000000000000a89 .LASF178
C:\Users\stapi\AppData\Local\Temp\cckrLylG.s:6753   .debug_str:00000000000006bc .LASF179
C:\Users\stapi\AppData\Local\Temp\cckrLylG.s:6715   .debug_str:00000000000004c5 .LASF180
C:\Users\stapi\AppData\Local\Temp\cckrLylG.s:6697   .debug_str:00000000000003ff .LASF181
C:\Users\stapi\AppData\Local\Temp\cckrLylG.s:6759   .debug_str:0000000000000707 .LASF182
C:\Users\stapi\AppData\Local\Temp\cckrLylG.s:6811   .debug_str:000000000000095e .LASF183
C:\Users\stapi\AppData\Local\Temp\cckrLylG.s:6959   .debug_str:0000000000000fd7 .LASF184
C:\Users\stapi\AppData\Local\Temp\cckrLylG.s:6739   .debug_str:0000000000000625 .LASF185
C:\Users\stapi\AppData\Local\Temp\cckrLylG.s:6615   .debug_str:000000000000004e .LASF186
C:\Users\stapi\AppData\Local\Temp\cckrLylG.s:6787   .debug_str:0000000000000857 .LASF187
C:\Users\stapi\AppData\Local\Temp\cckrLylG.s:6889   .debug_str:0000000000000cb6 .LASF188
C:\Users\stapi\AppData\Local\Temp\cckrLylG.s:6979   .debug_str:00000000000010dd .LASF189
C:\Users\stapi\AppData\Local\Temp\cckrLylG.s:6625   .debug_str:00000000000000c6 .LASF190
C:\Users\stapi\AppData\Local\Temp\cckrLylG.s:6663   .debug_str:00000000000002b3 .LASF191
C:\Users\stapi\AppData\Local\Temp\cckrLylG.s:6891   .debug_str:0000000000000cd7 .LASF192
C:\Users\stapi\AppData\Local\Temp\cckrLylG.s:6835   .debug_str:0000000000000a6c .LASF193
C:\Users\stapi\AppData\Local\Temp\cckrLylG.s:6901   .debug_str:0000000000000d4f .LASF194
C:\Users\stapi\AppData\Local\Temp\cckrLylG.s:6741   .debug_str:000000000000064a .LASF195
C:\Users\stapi\AppData\Local\Temp\cckrLylG.s:6747   .debug_str:0000000000000683 .LASF196
C:\Users\stapi\AppData\Local\Temp\cckrLylG.s:6817   .debug_str:00000000000009ad .LASF197
C:\Users\stapi\AppData\Local\Temp\cckrLylG.s:6623   .debug_str:00000000000000ad .LASF198
C:\Users\stapi\AppData\Local\Temp\cckrLylG.s:7009   .debug_str:0000000000001318 .LASF199
C:\Users\stapi\AppData\Local\Temp\cckrLylG.s:6693   .debug_str:00000000000003e6 .LASF203
C:\Users\stapi\AppData\Local\Temp\cckrLylG.s:14     .text.rom_symbol_init:0000000000000000 .LFB376
C:\Users\stapi\AppData\Local\Temp\cckrLylG.s:1673   .text.rom_symbol_init:0000000000000bde .LFE376
C:\Users\stapi\AppData\Local\Temp\cckrLylG.s:6821   .debug_str:00000000000009e4 .LASF204
C:\Users\stapi\AppData\Local\Temp\cckrLylG.s:6555   .debug_loc:0000000000000000 .LLST0
C:\Users\stapi\AppData\Local\Temp\cckrLylG.s:34     .text.rom_symbol_init:0000000000000008 .LBB4
C:\Users\stapi\AppData\Local\Temp\cckrLylG.s:42     .text.rom_symbol_init:0000000000000010 .LBE4
C:\Users\stapi\AppData\Local\Temp\cckrLylG.s:53     .text.rom_symbol_init:0000000000000026 .LVL1
C:\Users\stapi\AppData\Local\Temp\cckrLylG.s:853    .text.rom_symbol_init:0000000000000608 .LVL3
C:\Users\stapi\AppData\Local\Temp\cckrLylG.s:6965   .debug_str:0000000000001027 .LASF205
C:\Users\stapi\AppData\Local\Temp\cckrLylG.s:6619   .debug_str:000000000000007f .LASF206
C:\Users\stapi\AppData\Local\Temp\cckrLylG.s:40     .text.rom_symbol_init:0000000000000010 .LVL0
C:\Users\stapi\AppData\Local\Temp\cckrLylG.s:847    .text.rom_symbol_init:00000000000005fc .LVL2
C:\Users\stapi\AppData\Local\Temp\cckrLylG.s:2635   .debug_info:0000000000000000 .Ldebug_info0

UNDEFINED SYMBOLS
__riscv_save_12
mbedtls_hwpka_flag_set
__riscv_restore_12
