   1              		.file	"init_rom_symbol.c"
   2              		.option nopic
   3              		.attribute arch, "rv32i2p0_m2p0_a2p0_f2p0_c2p0_b_p0p94"
   4              		.attribute unaligned_access, 0
   5              		.attribute stack_align, 16
   6              		.text
   7              	.Ltext0:
   8              		.cfi_sections	.debug_frame
   9              		.section	.text.rom_symbol_init,"ax",@progbits
  10              		.align	1
  11              		.globl	rom_symbol_init
  13              	rom_symbol_init:
  14              	.LFB376:
  15              		.file 1 "C:/Users/stapi/OneDrive/Desktop/GD32VW553/V1_MQTT_OK/GD32VW55X_Wifi_BLE_SDK/GD32VW55x_REL
   1:C:/Users/stapi/OneDrive/Desktop/GD32VW553/V1_MQTT_OK/GD32VW55X_Wifi_BLE_SDK/GD32VW55x_RELEASE_V1.0.2/MSDK/plf/src\init_rom_symbol.c **** /*!
   2:C:/Users/stapi/OneDrive/Desktop/GD32VW553/V1_MQTT_OK/GD32VW55X_Wifi_BLE_SDK/GD32VW55x_RELEASE_V1.0.2/MSDK/plf/src\init_rom_symbol.c ****     \file    init_rom_symbol.c
   3:C:/Users/stapi/OneDrive/Desktop/GD32VW553/V1_MQTT_OK/GD32VW55X_Wifi_BLE_SDK/GD32VW55x_RELEASE_V1.0.2/MSDK/plf/src\init_rom_symbol.c ****     \brief   Rom symbol init function for GD32VW55x SDK.
   4:C:/Users/stapi/OneDrive/Desktop/GD32VW553/V1_MQTT_OK/GD32VW55X_Wifi_BLE_SDK/GD32VW55x_RELEASE_V1.0.2/MSDK/plf/src\init_rom_symbol.c **** 
   5:C:/Users/stapi/OneDrive/Desktop/GD32VW553/V1_MQTT_OK/GD32VW55X_Wifi_BLE_SDK/GD32VW55x_RELEASE_V1.0.2/MSDK/plf/src\init_rom_symbol.c ****     \version 2023-07-20, V1.0.0, firmware for GD32VW55x
   6:C:/Users/stapi/OneDrive/Desktop/GD32VW553/V1_MQTT_OK/GD32VW55X_Wifi_BLE_SDK/GD32VW55x_RELEASE_V1.0.2/MSDK/plf/src\init_rom_symbol.c **** */
   7:C:/Users/stapi/OneDrive/Desktop/GD32VW553/V1_MQTT_OK/GD32VW55X_Wifi_BLE_SDK/GD32VW55x_RELEASE_V1.0.2/MSDK/plf/src\init_rom_symbol.c **** 
   8:C:/Users/stapi/OneDrive/Desktop/GD32VW553/V1_MQTT_OK/GD32VW55X_Wifi_BLE_SDK/GD32VW55x_RELEASE_V1.0.2/MSDK/plf/src\init_rom_symbol.c **** /*
   9:C:/Users/stapi/OneDrive/Desktop/GD32VW553/V1_MQTT_OK/GD32VW55X_Wifi_BLE_SDK/GD32VW55x_RELEASE_V1.0.2/MSDK/plf/src\init_rom_symbol.c ****     Copyright (c) 2023, GigaDevice Semiconductor Inc.
  10:C:/Users/stapi/OneDrive/Desktop/GD32VW553/V1_MQTT_OK/GD32VW55X_Wifi_BLE_SDK/GD32VW55x_RELEASE_V1.0.2/MSDK/plf/src\init_rom_symbol.c **** 
  11:C:/Users/stapi/OneDrive/Desktop/GD32VW553/V1_MQTT_OK/GD32VW55X_Wifi_BLE_SDK/GD32VW55x_RELEASE_V1.0.2/MSDK/plf/src\init_rom_symbol.c ****     Redistribution and use in source and binary forms, with or without modification,
  12:C:/Users/stapi/OneDrive/Desktop/GD32VW553/V1_MQTT_OK/GD32VW55X_Wifi_BLE_SDK/GD32VW55x_RELEASE_V1.0.2/MSDK/plf/src\init_rom_symbol.c **** are permitted provided that the following conditions are met:
  13:C:/Users/stapi/OneDrive/Desktop/GD32VW553/V1_MQTT_OK/GD32VW55X_Wifi_BLE_SDK/GD32VW55x_RELEASE_V1.0.2/MSDK/plf/src\init_rom_symbol.c **** 
  14:C:/Users/stapi/OneDrive/Desktop/GD32VW553/V1_MQTT_OK/GD32VW55X_Wifi_BLE_SDK/GD32VW55x_RELEASE_V1.0.2/MSDK/plf/src\init_rom_symbol.c ****     1. Redistributions of source code must retain the above copyright notice, this
  15:C:/Users/stapi/OneDrive/Desktop/GD32VW553/V1_MQTT_OK/GD32VW55X_Wifi_BLE_SDK/GD32VW55x_RELEASE_V1.0.2/MSDK/plf/src\init_rom_symbol.c ****        list of conditions and the following disclaimer.
  16:C:/Users/stapi/OneDrive/Desktop/GD32VW553/V1_MQTT_OK/GD32VW55X_Wifi_BLE_SDK/GD32VW55x_RELEASE_V1.0.2/MSDK/plf/src\init_rom_symbol.c ****     2. Redistributions in binary form must reproduce the above copyright notice,
  17:C:/Users/stapi/OneDrive/Desktop/GD32VW553/V1_MQTT_OK/GD32VW55X_Wifi_BLE_SDK/GD32VW55x_RELEASE_V1.0.2/MSDK/plf/src\init_rom_symbol.c ****        this list of conditions and the following disclaimer in the documentation
  18:C:/Users/stapi/OneDrive/Desktop/GD32VW553/V1_MQTT_OK/GD32VW55X_Wifi_BLE_SDK/GD32VW55x_RELEASE_V1.0.2/MSDK/plf/src\init_rom_symbol.c ****        and/or other materials provided with the distribution.
  19:C:/Users/stapi/OneDrive/Desktop/GD32VW553/V1_MQTT_OK/GD32VW55X_Wifi_BLE_SDK/GD32VW55x_RELEASE_V1.0.2/MSDK/plf/src\init_rom_symbol.c ****     3. Neither the name of the copyright holder nor the names of its contributors
  20:C:/Users/stapi/OneDrive/Desktop/GD32VW553/V1_MQTT_OK/GD32VW55X_Wifi_BLE_SDK/GD32VW55x_RELEASE_V1.0.2/MSDK/plf/src\init_rom_symbol.c ****        may be used to endorse or promote products derived from this software without
  21:C:/Users/stapi/OneDrive/Desktop/GD32VW553/V1_MQTT_OK/GD32VW55X_Wifi_BLE_SDK/GD32VW55x_RELEASE_V1.0.2/MSDK/plf/src\init_rom_symbol.c ****        specific prior written permission.
  22:C:/Users/stapi/OneDrive/Desktop/GD32VW553/V1_MQTT_OK/GD32VW55X_Wifi_BLE_SDK/GD32VW55x_RELEASE_V1.0.2/MSDK/plf/src\init_rom_symbol.c **** 
  23:C:/Users/stapi/OneDrive/Desktop/GD32VW553/V1_MQTT_OK/GD32VW55X_Wifi_BLE_SDK/GD32VW55x_RELEASE_V1.0.2/MSDK/plf/src\init_rom_symbol.c ****     THIS SOFTWARE IS PROVIDED BY THE COPYRIGHT HOLDERS AND CONTRIBUTORS "AS IS"
  24:C:/Users/stapi/OneDrive/Desktop/GD32VW553/V1_MQTT_OK/GD32VW55X_Wifi_BLE_SDK/GD32VW55x_RELEASE_V1.0.2/MSDK/plf/src\init_rom_symbol.c **** AND ANY EXPRESS OR IMPLIED WARRANTIES, INCLUDING, BUT NOT LIMITED TO, THE IMPLIED
  25:C:/Users/stapi/OneDrive/Desktop/GD32VW553/V1_MQTT_OK/GD32VW55X_Wifi_BLE_SDK/GD32VW55x_RELEASE_V1.0.2/MSDK/plf/src\init_rom_symbol.c **** WARRANTIES OF MERCHANTABILITY AND FITNESS FOR A PARTICULAR PURPOSE ARE DISCLAIMED.
  26:C:/Users/stapi/OneDrive/Desktop/GD32VW553/V1_MQTT_OK/GD32VW55X_Wifi_BLE_SDK/GD32VW55x_RELEASE_V1.0.2/MSDK/plf/src\init_rom_symbol.c **** IN NO EVENT SHALL THE COPYRIGHT HOLDER OR CONTRIBUTORS BE LIABLE FOR ANY DIRECT,
  27:C:/Users/stapi/OneDrive/Desktop/GD32VW553/V1_MQTT_OK/GD32VW55X_Wifi_BLE_SDK/GD32VW55x_RELEASE_V1.0.2/MSDK/plf/src\init_rom_symbol.c **** INDIRECT, INCIDENTAL, SPECIAL, EXEMPLARY, OR CONSEQUENTIAL DAMAGES (INCLUDING, BUT
  28:C:/Users/stapi/OneDrive/Desktop/GD32VW553/V1_MQTT_OK/GD32VW55X_Wifi_BLE_SDK/GD32VW55x_RELEASE_V1.0.2/MSDK/plf/src\init_rom_symbol.c **** NOT LIMITED TO, PROCUREMENT OF SUBSTITUTE GOODS OR SERVICES; LOSS OF USE, DATA, OR
  29:C:/Users/stapi/OneDrive/Desktop/GD32VW553/V1_MQTT_OK/GD32VW55X_Wifi_BLE_SDK/GD32VW55x_RELEASE_V1.0.2/MSDK/plf/src\init_rom_symbol.c **** PROFITS; OR BUSINESS INTERRUPTION) HOWEVER CAUSED AND ON ANY THEORY OF LIABILITY,
  30:C:/Users/stapi/OneDrive/Desktop/GD32VW553/V1_MQTT_OK/GD32VW55X_Wifi_BLE_SDK/GD32VW55x_RELEASE_V1.0.2/MSDK/plf/src\init_rom_symbol.c **** WHETHER IN CONTRACT, STRICT LIABILITY, OR TORT (INCLUDING NEGLIGENCE OR OTHERWISE)
  31:C:/Users/stapi/OneDrive/Desktop/GD32VW553/V1_MQTT_OK/GD32VW55X_Wifi_BLE_SDK/GD32VW55x_RELEASE_V1.0.2/MSDK/plf/src\init_rom_symbol.c **** ARISING IN ANY WAY OUT OF THE USE OF THIS SOFTWARE, EVEN IF ADVISED OF THE POSSIBILITY
  32:C:/Users/stapi/OneDrive/Desktop/GD32VW553/V1_MQTT_OK/GD32VW55X_Wifi_BLE_SDK/GD32VW55x_RELEASE_V1.0.2/MSDK/plf/src\init_rom_symbol.c **** OF SUCH DAMAGE.
  33:C:/Users/stapi/OneDrive/Desktop/GD32VW553/V1_MQTT_OK/GD32VW55X_Wifi_BLE_SDK/GD32VW55x_RELEASE_V1.0.2/MSDK/plf/src\init_rom_symbol.c **** */
  34:C:/Users/stapi/OneDrive/Desktop/GD32VW553/V1_MQTT_OK/GD32VW55X_Wifi_BLE_SDK/GD32VW55x_RELEASE_V1.0.2/MSDK/plf/src\init_rom_symbol.c **** #define EXTERN
  35:C:/Users/stapi/OneDrive/Desktop/GD32VW553/V1_MQTT_OK/GD32VW55X_Wifi_BLE_SDK/GD32VW55x_RELEASE_V1.0.2/MSDK/plf/src\init_rom_symbol.c **** #include "rom_export_mbedtls.h"
  36:C:/Users/stapi/OneDrive/Desktop/GD32VW553/V1_MQTT_OK/GD32VW55X_Wifi_BLE_SDK/GD32VW55x_RELEASE_V1.0.2/MSDK/plf/src\init_rom_symbol.c **** #include "gd32vw55x_rcu.h"
  37:C:/Users/stapi/OneDrive/Desktop/GD32VW553/V1_MQTT_OK/GD32VW55X_Wifi_BLE_SDK/GD32VW55x_RELEASE_V1.0.2/MSDK/plf/src\init_rom_symbol.c **** #ifndef EXEC_USING_STD_PRINTF
  38:C:/Users/stapi/OneDrive/Desktop/GD32VW553/V1_MQTT_OK/GD32VW55X_Wifi_BLE_SDK/GD32VW55x_RELEASE_V1.0.2/MSDK/plf/src\init_rom_symbol.c **** #include "dbg_print.h"
  39:C:/Users/stapi/OneDrive/Desktop/GD32VW553/V1_MQTT_OK/GD32VW55X_Wifi_BLE_SDK/GD32VW55x_RELEASE_V1.0.2/MSDK/plf/src\init_rom_symbol.c **** #endif
  40:C:/Users/stapi/OneDrive/Desktop/GD32VW553/V1_MQTT_OK/GD32VW55X_Wifi_BLE_SDK/GD32VW55x_RELEASE_V1.0.2/MSDK/plf/src\init_rom_symbol.c **** #include "app_cfg.h"
  41:C:/Users/stapi/OneDrive/Desktop/GD32VW553/V1_MQTT_OK/GD32VW55X_Wifi_BLE_SDK/GD32VW55x_RELEASE_V1.0.2/MSDK/plf/src\init_rom_symbol.c **** 
  42:C:/Users/stapi/OneDrive/Desktop/GD32VW553/V1_MQTT_OK/GD32VW55X_Wifi_BLE_SDK/GD32VW55x_RELEASE_V1.0.2/MSDK/plf/src\init_rom_symbol.c **** static uint8_t ana_version_get(void)
  43:C:/Users/stapi/OneDrive/Desktop/GD32VW553/V1_MQTT_OK/GD32VW55X_Wifi_BLE_SDK/GD32VW55x_RELEASE_V1.0.2/MSDK/plf/src\init_rom_symbol.c **** {
  44:C:/Users/stapi/OneDrive/Desktop/GD32VW553/V1_MQTT_OK/GD32VW55X_Wifi_BLE_SDK/GD32VW55x_RELEASE_V1.0.2/MSDK/plf/src\init_rom_symbol.c ****     return REG32(RCU + 0x00000138U);
  45:C:/Users/stapi/OneDrive/Desktop/GD32VW553/V1_MQTT_OK/GD32VW55X_Wifi_BLE_SDK/GD32VW55x_RELEASE_V1.0.2/MSDK/plf/src\init_rom_symbol.c **** }
  46:C:/Users/stapi/OneDrive/Desktop/GD32VW553/V1_MQTT_OK/GD32VW55X_Wifi_BLE_SDK/GD32VW55x_RELEASE_V1.0.2/MSDK/plf/src\init_rom_symbol.c **** 
  47:C:/Users/stapi/OneDrive/Desktop/GD32VW553/V1_MQTT_OK/GD32VW55X_Wifi_BLE_SDK/GD32VW55x_RELEASE_V1.0.2/MSDK/plf/src\init_rom_symbol.c **** void rom_symbol_init(void)
  48:C:/Users/stapi/OneDrive/Desktop/GD32VW553/V1_MQTT_OK/GD32VW55X_Wifi_BLE_SDK/GD32VW55x_RELEASE_V1.0.2/MSDK/plf/src\init_rom_symbol.c **** {
  16              		.loc 1 48 1
  17              		.cfi_startproc
  18 0000 17030000 		call	t0,__riscv_save_12
  18      E7020300 
  19              		.cfi_offset 27, -52
  20              		.cfi_offset 26, -48
  21              		.cfi_offset 25, -44
  22              		.cfi_offset 24, -40
  23              		.cfi_offset 23, -36
  24              		.cfi_offset 22, -32
  25              		.cfi_offset 21, -28
  26              		.cfi_offset 20, -24
  27              		.cfi_offset 19, -20
  28              		.cfi_offset 18, -16
  29              		.cfi_offset 9, -12
  30              		.cfi_offset 8, -8
  31              		.cfi_offset 1, -4
  32              		.cfi_def_cfa_offset 64
  49:C:/Users/stapi/OneDrive/Desktop/GD32VW553/V1_MQTT_OK/GD32VW55X_Wifi_BLE_SDK/GD32VW55x_RELEASE_V1.0.2/MSDK/plf/src\init_rom_symbol.c **** #ifdef CONFIG_ASIC_CUT_AUTO
  50:C:/Users/stapi/OneDrive/Desktop/GD32VW553/V1_MQTT_OK/GD32VW55X_Wifi_BLE_SDK/GD32VW55x_RELEASE_V1.0.2/MSDK/plf/src\init_rom_symbol.c ****     int acut = (ana_version_get() == 0) ? 1 : 0;
  33              		.loc 1 50 5
  34              	.LBB4:
  35              	.LBB5:
  44:C:/Users/stapi/OneDrive/Desktop/GD32VW553/V1_MQTT_OK/GD32VW55X_Wifi_BLE_SDK/GD32VW55x_RELEASE_V1.0.2/MSDK/plf/src\init_rom_symbol.c **** }
  36              		.loc 1 44 5
  44:C:/Users/stapi/OneDrive/Desktop/GD32VW553/V1_MQTT_OK/GD32VW55X_Wifi_BLE_SDK/GD32VW55x_RELEASE_V1.0.2/MSDK/plf/src\init_rom_symbol.c **** }
  37              		.loc 1 44 12 is_stmt 0
  38 0008 B7470240 		li	a5,1073889280
  39 000c 83A78793 		lw	a5,-1736(a5)
  40              	.LVL0:
  41              	.LBE5:
  42              	.LBE4:
  51:C:/Users/stapi/OneDrive/Desktop/GD32VW553/V1_MQTT_OK/GD32VW55X_Wifi_BLE_SDK/GD32VW55x_RELEASE_V1.0.2/MSDK/plf/src\init_rom_symbol.c **** 
  52:C:/Users/stapi/OneDrive/Desktop/GD32VW553/V1_MQTT_OK/GD32VW55X_Wifi_BLE_SDK/GD32VW55x_RELEASE_V1.0.2/MSDK/plf/src\init_rom_symbol.c ****     if (acut) {
  43              		.loc 1 52 5 is_stmt 1
  48:C:/Users/stapi/OneDrive/Desktop/GD32VW553/V1_MQTT_OK/GD32VW55X_Wifi_BLE_SDK/GD32VW55x_RELEASE_V1.0.2/MSDK/plf/src\init_rom_symbol.c **** #ifdef CONFIG_ASIC_CUT_AUTO
  44              		.loc 1 48 1 is_stmt 0
  45 0010 4111     		addi	sp,sp,-16
  46              		.cfi_def_cfa_offset 80
  47              		.loc 1 52 8
  48 0012 93F7F70F 		andi	a5,a5,0xff
  49 0016 6393075E 		bne	a5,zero,.L2
  53:C:/Users/stapi/OneDrive/Desktop/GD32VW553/V1_MQTT_OK/GD32VW55X_Wifi_BLE_SDK/GD32VW55x_RELEASE_V1.0.2/MSDK/plf/src\init_rom_symbol.c ****         mbedtls_hwpka_flag_set(0
  50              		.loc 1 53 9 is_stmt 1
  51 001a 13053007 		li	a0,115
  52 001e 97000000 		call	mbedtls_hwpka_flag_set
  52      E7800000 
  53              	.LVL1:
  54:C:/Users/stapi/OneDrive/Desktop/GD32VW553/V1_MQTT_OK/GD32VW55X_Wifi_BLE_SDK/GD32VW55x_RELEASE_V1.0.2/MSDK/plf/src\init_rom_symbol.c **** #ifndef CONFIG_NEED_RSA_4096
  55:C:/Users/stapi/OneDrive/Desktop/GD32VW553/V1_MQTT_OK/GD32VW55X_Wifi_BLE_SDK/GD32VW55x_RELEASE_V1.0.2/MSDK/plf/src\init_rom_symbol.c ****                             | MBEDTLS_HW_EXP_MOD
  56:C:/Users/stapi/OneDrive/Desktop/GD32VW553/V1_MQTT_OK/GD32VW55X_Wifi_BLE_SDK/GD32VW55x_RELEASE_V1.0.2/MSDK/plf/src\init_rom_symbol.c ****                             | MBEDTLS_HW_RSA_PRIVATE
  57:C:/Users/stapi/OneDrive/Desktop/GD32VW553/V1_MQTT_OK/GD32VW55X_Wifi_BLE_SDK/GD32VW55x_RELEASE_V1.0.2/MSDK/plf/src\init_rom_symbol.c ****                             | MBEDTLS_HW_MPI_MUL
  58:C:/Users/stapi/OneDrive/Desktop/GD32VW553/V1_MQTT_OK/GD32VW55X_Wifi_BLE_SDK/GD32VW55x_RELEASE_V1.0.2/MSDK/plf/src\init_rom_symbol.c ****  #endif /* CONFIG_NEED_RSA_4096 */
  59:C:/Users/stapi/OneDrive/Desktop/GD32VW553/V1_MQTT_OK/GD32VW55X_Wifi_BLE_SDK/GD32VW55x_RELEASE_V1.0.2/MSDK/plf/src\init_rom_symbol.c ****                             | MBEDTLS_HW_ECP_MUL
  60:C:/Users/stapi/OneDrive/Desktop/GD32VW553/V1_MQTT_OK/GD32VW55X_Wifi_BLE_SDK/GD32VW55x_RELEASE_V1.0.2/MSDK/plf/src\init_rom_symbol.c ****                             | MBEDTLS_HW_ECP_CHECK
  61:C:/Users/stapi/OneDrive/Desktop/GD32VW553/V1_MQTT_OK/GD32VW55X_Wifi_BLE_SDK/GD32VW55x_RELEASE_V1.0.2/MSDK/plf/src\init_rom_symbol.c ****                             );
  62:C:/Users/stapi/OneDrive/Desktop/GD32VW553/V1_MQTT_OK/GD32VW55X_Wifi_BLE_SDK/GD32VW55x_RELEASE_V1.0.2/MSDK/plf/src\init_rom_symbol.c ****     } else {
  63:C:/Users/stapi/OneDrive/Desktop/GD32VW553/V1_MQTT_OK/GD32VW55X_Wifi_BLE_SDK/GD32VW55x_RELEASE_V1.0.2/MSDK/plf/src\init_rom_symbol.c ****         mbedtls_hwpka_flag_set(0
  64:C:/Users/stapi/OneDrive/Desktop/GD32VW553/V1_MQTT_OK/GD32VW55X_Wifi_BLE_SDK/GD32VW55x_RELEASE_V1.0.2/MSDK/plf/src\init_rom_symbol.c **** #ifndef CONFIG_NEED_RSA_4096
  65:C:/Users/stapi/OneDrive/Desktop/GD32VW553/V1_MQTT_OK/GD32VW55X_Wifi_BLE_SDK/GD32VW55x_RELEASE_V1.0.2/MSDK/plf/src\init_rom_symbol.c ****                             | MBEDTLS_HW_EXP_MOD
  66:C:/Users/stapi/OneDrive/Desktop/GD32VW553/V1_MQTT_OK/GD32VW55X_Wifi_BLE_SDK/GD32VW55x_RELEASE_V1.0.2/MSDK/plf/src\init_rom_symbol.c ****                             | MBEDTLS_HW_RSA_PRIVATE
  67:C:/Users/stapi/OneDrive/Desktop/GD32VW553/V1_MQTT_OK/GD32VW55X_Wifi_BLE_SDK/GD32VW55x_RELEASE_V1.0.2/MSDK/plf/src\init_rom_symbol.c ****                             | MBEDTLS_HW_MPI_MUL
  68:C:/Users/stapi/OneDrive/Desktop/GD32VW553/V1_MQTT_OK/GD32VW55X_Wifi_BLE_SDK/GD32VW55x_RELEASE_V1.0.2/MSDK/plf/src\init_rom_symbol.c **** #endif /* CONFIG_NEED_RSA_4096 */
  69:C:/Users/stapi/OneDrive/Desktop/GD32VW553/V1_MQTT_OK/GD32VW55X_Wifi_BLE_SDK/GD32VW55x_RELEASE_V1.0.2/MSDK/plf/src\init_rom_symbol.c ****                             | MBEDTLS_HW_ECDSA_SIGN
  70:C:/Users/stapi/OneDrive/Desktop/GD32VW553/V1_MQTT_OK/GD32VW55X_Wifi_BLE_SDK/GD32VW55x_RELEASE_V1.0.2/MSDK/plf/src\init_rom_symbol.c ****                             | MBEDTLS_HW_ECDSA_VERIFY
  71:C:/Users/stapi/OneDrive/Desktop/GD32VW553/V1_MQTT_OK/GD32VW55X_Wifi_BLE_SDK/GD32VW55x_RELEASE_V1.0.2/MSDK/plf/src\init_rom_symbol.c ****                             | MBEDTLS_HW_ECP_MUL
  72:C:/Users/stapi/OneDrive/Desktop/GD32VW553/V1_MQTT_OK/GD32VW55X_Wifi_BLE_SDK/GD32VW55x_RELEASE_V1.0.2/MSDK/plf/src\init_rom_symbol.c ****                             | MBEDTLS_HW_ECP_CHECK
  73:C:/Users/stapi/OneDrive/Desktop/GD32VW553/V1_MQTT_OK/GD32VW55X_Wifi_BLE_SDK/GD32VW55x_RELEASE_V1.0.2/MSDK/plf/src\init_rom_symbol.c ****                             );
  74:C:/Users/stapi/OneDrive/Desktop/GD32VW553/V1_MQTT_OK/GD32VW55X_Wifi_BLE_SDK/GD32VW55x_RELEASE_V1.0.2/MSDK/plf/src\init_rom_symbol.c ****     }
  75:C:/Users/stapi/OneDrive/Desktop/GD32VW553/V1_MQTT_OK/GD32VW55X_Wifi_BLE_SDK/GD32VW55x_RELEASE_V1.0.2/MSDK/plf/src\init_rom_symbol.c **** 
  76:C:/Users/stapi/OneDrive/Desktop/GD32VW553/V1_MQTT_OK/GD32VW55X_Wifi_BLE_SDK/GD32VW55x_RELEASE_V1.0.2/MSDK/plf/src\init_rom_symbol.c ****     if (acut) {
  54              		.loc 1 76 5
  77:C:/Users/stapi/OneDrive/Desktop/GD32VW553/V1_MQTT_OK/GD32VW55X_Wifi_BLE_SDK/GD32VW55x_RELEASE_V1.0.2/MSDK/plf/src\init_rom_symbol.c **** #ifndef EXEC_USING_STD_PRINTF
  78:C:/Users/stapi/OneDrive/Desktop/GD32VW553/V1_MQTT_OK/GD32VW55X_Wifi_BLE_SDK/GD32VW55x_RELEASE_V1.0.2/MSDK/plf/src\init_rom_symbol.c ****         dbg_print(NOTICE, "Chip: GD32VW55x ACut\r\n");
  79:C:/Users/stapi/OneDrive/Desktop/GD32VW553/V1_MQTT_OK/GD32VW55X_Wifi_BLE_SDK/GD32VW55x_RELEASE_V1.0.2/MSDK/plf/src\init_rom_symbol.c **** #endif
  80:C:/Users/stapi/OneDrive/Desktop/GD32VW553/V1_MQTT_OK/GD32VW55X_Wifi_BLE_SDK/GD32VW55x_RELEASE_V1.0.2/MSDK/plf/src\init_rom_symbol.c ****         ecp_supported_curves = (mbedtls_ecp_curve_info *)0x0bf73eb8;
  55              		.loc 1 80 9
  56              		.loc 1 80 30 is_stmt 0
  57 0026 3745F70B 		li	a0,200753152
  81:C:/Users/stapi/OneDrive/Desktop/GD32VW553/V1_MQTT_OK/GD32VW55X_Wifi_BLE_SDK/GD32VW55x_RELEASE_V1.0.2/MSDK/plf/src\init_rom_symbol.c ****         mbedtls_ecdsa_free_fn = (void *)0x0bf715dc;
  58              		.loc 1 81 31
  59 002a 3713F70B 		li	t1,200740864
  80:C:/Users/stapi/OneDrive/Desktop/GD32VW553/V1_MQTT_OK/GD32VW55X_Wifi_BLE_SDK/GD32VW55x_RELEASE_V1.0.2/MSDK/plf/src\init_rom_symbol.c ****         mbedtls_ecdsa_free_fn = (void *)0x0bf715dc;
  60              		.loc 1 80 30
  61 002e 930285EB 		addi	t0,a0,-328
  62 0032 370E0000 		lui	t3,%hi(.LANCHOR0)
  82:C:/Users/stapi/OneDrive/Desktop/GD32VW553/V1_MQTT_OK/GD32VW55X_Wifi_BLE_SDK/GD32VW55x_RELEASE_V1.0.2/MSDK/plf/src\init_rom_symbol.c ****         mbedtls_ecdsa_from_keypair_fn = (void *)0x0bf7158a;
  83:C:/Users/stapi/OneDrive/Desktop/GD32VW553/V1_MQTT_OK/GD32VW55X_Wifi_BLE_SDK/GD32VW55x_RELEASE_V1.0.2/MSDK/plf/src\init_rom_symbol.c ****         mbedtls_ecdsa_genkey_fn = (void *)0x0bf7154c;
  84:C:/Users/stapi/OneDrive/Desktop/GD32VW553/V1_MQTT_OK/GD32VW55X_Wifi_BLE_SDK/GD32VW55x_RELEASE_V1.0.2/MSDK/plf/src\init_rom_symbol.c ****         mbedtls_ecdsa_init_fn = (void *)0x0bf715d8;
  85:C:/Users/stapi/OneDrive/Desktop/GD32VW553/V1_MQTT_OK/GD32VW55X_Wifi_BLE_SDK/GD32VW55x_RELEASE_V1.0.2/MSDK/plf/src\init_rom_symbol.c ****         mbedtls_ecdsa_read_signature_fn = (void *)0x0bf71546;
  86:C:/Users/stapi/OneDrive/Desktop/GD32VW553/V1_MQTT_OK/GD32VW55X_Wifi_BLE_SDK/GD32VW55x_RELEASE_V1.0.2/MSDK/plf/src\init_rom_symbol.c ****         mbedtls_ecdsa_read_signature_restartable_fn = (void *)0x0bf714a0;
  87:C:/Users/stapi/OneDrive/Desktop/GD32VW553/V1_MQTT_OK/GD32VW55X_Wifi_BLE_SDK/GD32VW55x_RELEASE_V1.0.2/MSDK/plf/src\init_rom_symbol.c ****         mbedtls_ecdsa_sign_fn = (void *)0x0bf70bca;
  88:C:/Users/stapi/OneDrive/Desktop/GD32VW553/V1_MQTT_OK/GD32VW55X_Wifi_BLE_SDK/GD32VW55x_RELEASE_V1.0.2/MSDK/plf/src\init_rom_symbol.c ****         mbedtls_ecdsa_sign_det_fn = (void *)0x0bf7108c;
  89:C:/Users/stapi/OneDrive/Desktop/GD32VW553/V1_MQTT_OK/GD32VW55X_Wifi_BLE_SDK/GD32VW55x_RELEASE_V1.0.2/MSDK/plf/src\init_rom_symbol.c ****         mbedtls_ecdsa_verify_fn = (void *)0x0bf71090;
  90:C:/Users/stapi/OneDrive/Desktop/GD32VW553/V1_MQTT_OK/GD32VW55X_Wifi_BLE_SDK/GD32VW55x_RELEASE_V1.0.2/MSDK/plf/src\init_rom_symbol.c ****         mbedtls_ecdsa_write_signature_fn = (void *)0x0bf71470;
  91:C:/Users/stapi/OneDrive/Desktop/GD32VW553/V1_MQTT_OK/GD32VW55X_Wifi_BLE_SDK/GD32VW55x_RELEASE_V1.0.2/MSDK/plf/src\init_rom_symbol.c ****         mbedtls_ecdsa_write_signature_det_fn = (void *)0x0bf71480;
  92:C:/Users/stapi/OneDrive/Desktop/GD32VW553/V1_MQTT_OK/GD32VW55X_Wifi_BLE_SDK/GD32VW55x_RELEASE_V1.0.2/MSDK/plf/src\init_rom_symbol.c ****         mbedtls_ecdsa_write_signature_restartable_fn = (void *)0x0bf713aa;
  93:C:/Users/stapi/OneDrive/Desktop/GD32VW553/V1_MQTT_OK/GD32VW55X_Wifi_BLE_SDK/GD32VW55x_RELEASE_V1.0.2/MSDK/plf/src\init_rom_symbol.c ****         mbedtls_ecp_check_privkey_fn = (void *)0x0bf72c3e;
  63              		.loc 1 93 38
  64 0036 3736F70B 		li	a2,200749056
  81:C:/Users/stapi/OneDrive/Desktop/GD32VW553/V1_MQTT_OK/GD32VW55X_Wifi_BLE_SDK/GD32VW55x_RELEASE_V1.0.2/MSDK/plf/src\init_rom_symbol.c ****         mbedtls_ecdsa_from_keypair_fn = (void *)0x0bf7158a;
  65              		.loc 1 81 31
  66 003a 930FC35D 		addi	t6,t1,1500
  80:C:/Users/stapi/OneDrive/Desktop/GD32VW553/V1_MQTT_OK/GD32VW55X_Wifi_BLE_SDK/GD32VW55x_RELEASE_V1.0.2/MSDK/plf/src\init_rom_symbol.c ****         mbedtls_ecdsa_free_fn = (void *)0x0bf715dc;
  67              		.loc 1 80 30
  68 003e 23205E00 		sw	t0,%lo(.LANCHOR0)(t3)
  81:C:/Users/stapi/OneDrive/Desktop/GD32VW553/V1_MQTT_OK/GD32VW55X_Wifi_BLE_SDK/GD32VW55x_RELEASE_V1.0.2/MSDK/plf/src\init_rom_symbol.c ****         mbedtls_ecdsa_from_keypair_fn = (void *)0x0bf7158a;
  69              		.loc 1 81 9 is_stmt 1
  81:C:/Users/stapi/OneDrive/Desktop/GD32VW553/V1_MQTT_OK/GD32VW55X_Wifi_BLE_SDK/GD32VW55x_RELEASE_V1.0.2/MSDK/plf/src\init_rom_symbol.c ****         mbedtls_ecdsa_from_keypair_fn = (void *)0x0bf7158a;
  70              		.loc 1 81 31 is_stmt 0
  71 0042 370E0000 		lui	t3,%hi(.LANCHOR1)
  94:C:/Users/stapi/OneDrive/Desktop/GD32VW553/V1_MQTT_OK/GD32VW55X_Wifi_BLE_SDK/GD32VW55x_RELEASE_V1.0.2/MSDK/plf/src\init_rom_symbol.c ****         mbedtls_ecp_check_pub_priv_fn = (void *)0x0bf73c8e;
  95:C:/Users/stapi/OneDrive/Desktop/GD32VW553/V1_MQTT_OK/GD32VW55X_Wifi_BLE_SDK/GD32VW55x_RELEASE_V1.0.2/MSDK/plf/src\init_rom_symbol.c ****         mbedtls_ecp_check_pubkey_fn = (void *)0x0bf72f6a;
  96:C:/Users/stapi/OneDrive/Desktop/GD32VW553/V1_MQTT_OK/GD32VW55X_Wifi_BLE_SDK/GD32VW55x_RELEASE_V1.0.2/MSDK/plf/src\init_rom_symbol.c ****         mbedtls_ecp_copy_fn = (void *)0x0bf72172;
  72              		.loc 1 96 29
  73 0046 B725F70B 		li	a1,200744960
  93:C:/Users/stapi/OneDrive/Desktop/GD32VW553/V1_MQTT_OK/GD32VW55X_Wifi_BLE_SDK/GD32VW55x_RELEASE_V1.0.2/MSDK/plf/src\init_rom_symbol.c ****         mbedtls_ecp_check_pub_priv_fn = (void *)0x0bf73c8e;
  74              		.loc 1 93 38
  75 004a 130FE6C3 		addi	t5,a2,-962
  81:C:/Users/stapi/OneDrive/Desktop/GD32VW553/V1_MQTT_OK/GD32VW55X_Wifi_BLE_SDK/GD32VW55x_RELEASE_V1.0.2/MSDK/plf/src\init_rom_symbol.c ****         mbedtls_ecdsa_from_keypair_fn = (void *)0x0bf7158a;
  76              		.loc 1 81 31
  77 004e 2320FE01 		sw	t6,%lo(.LANCHOR1)(t3)
  82:C:/Users/stapi/OneDrive/Desktop/GD32VW553/V1_MQTT_OK/GD32VW55X_Wifi_BLE_SDK/GD32VW55x_RELEASE_V1.0.2/MSDK/plf/src\init_rom_symbol.c ****         mbedtls_ecdsa_genkey_fn = (void *)0x0bf7154c;
  78              		.loc 1 82 9 is_stmt 1
  93:C:/Users/stapi/OneDrive/Desktop/GD32VW553/V1_MQTT_OK/GD32VW55X_Wifi_BLE_SDK/GD32VW55x_RELEASE_V1.0.2/MSDK/plf/src\init_rom_symbol.c ****         mbedtls_ecp_check_pub_priv_fn = (void *)0x0bf73c8e;
  79              		.loc 1 93 38 is_stmt 0
  80 0052 370E0000 		lui	t3,%hi(.LANCHOR13)
  81              		.loc 1 96 29
  82 0056 938E2517 		addi	t4,a1,370
  93:C:/Users/stapi/OneDrive/Desktop/GD32VW553/V1_MQTT_OK/GD32VW55X_Wifi_BLE_SDK/GD32VW55x_RELEASE_V1.0.2/MSDK/plf/src\init_rom_symbol.c ****         mbedtls_ecp_check_pub_priv_fn = (void *)0x0bf73c8e;
  83              		.loc 1 93 38
  84 005a 2320EE01 		sw	t5,%lo(.LANCHOR13)(t3)
  85              		.loc 1 96 29
  86 005e 370E0000 		lui	t3,%hi(.LANCHOR16)
  87 0062 2320DE01 		sw	t4,%lo(.LANCHOR16)(t3)
  82:C:/Users/stapi/OneDrive/Desktop/GD32VW553/V1_MQTT_OK/GD32VW55X_Wifi_BLE_SDK/GD32VW55x_RELEASE_V1.0.2/MSDK/plf/src\init_rom_symbol.c ****         mbedtls_ecdsa_genkey_fn = (void *)0x0bf7154c;
  88              		.loc 1 82 39
  89 0066 930EA358 		addi	t4,t1,1418
  90 006a 370E0000 		lui	t3,%hi(.LANCHOR2)
  91 006e 2320DE01 		sw	t4,%lo(.LANCHOR2)(t3)
  83:C:/Users/stapi/OneDrive/Desktop/GD32VW553/V1_MQTT_OK/GD32VW55X_Wifi_BLE_SDK/GD32VW55x_RELEASE_V1.0.2/MSDK/plf/src\init_rom_symbol.c ****         mbedtls_ecdsa_init_fn = (void *)0x0bf715d8;
  92              		.loc 1 83 9 is_stmt 1
  83:C:/Users/stapi/OneDrive/Desktop/GD32VW553/V1_MQTT_OK/GD32VW55X_Wifi_BLE_SDK/GD32VW55x_RELEASE_V1.0.2/MSDK/plf/src\init_rom_symbol.c ****         mbedtls_ecdsa_init_fn = (void *)0x0bf715d8;
  93              		.loc 1 83 33 is_stmt 0
  94 0072 930EC354 		addi	t4,t1,1356
  95 0076 370E0000 		lui	t3,%hi(.LANCHOR3)
  96 007a 2320DE01 		sw	t4,%lo(.LANCHOR3)(t3)
  84:C:/Users/stapi/OneDrive/Desktop/GD32VW553/V1_MQTT_OK/GD32VW55X_Wifi_BLE_SDK/GD32VW55x_RELEASE_V1.0.2/MSDK/plf/src\init_rom_symbol.c ****         mbedtls_ecdsa_read_signature_fn = (void *)0x0bf71546;
  97              		.loc 1 84 9 is_stmt 1
  84:C:/Users/stapi/OneDrive/Desktop/GD32VW553/V1_MQTT_OK/GD32VW55X_Wifi_BLE_SDK/GD32VW55x_RELEASE_V1.0.2/MSDK/plf/src\init_rom_symbol.c ****         mbedtls_ecdsa_read_signature_fn = (void *)0x0bf71546;
  98              		.loc 1 84 31 is_stmt 0
  99 007e 930E835D 		addi	t4,t1,1496
 100 0082 370E0000 		lui	t3,%hi(.LANCHOR4)
 101 0086 2320DE01 		sw	t4,%lo(.LANCHOR4)(t3)
  85:C:/Users/stapi/OneDrive/Desktop/GD32VW553/V1_MQTT_OK/GD32VW55X_Wifi_BLE_SDK/GD32VW55x_RELEASE_V1.0.2/MSDK/plf/src\init_rom_symbol.c ****         mbedtls_ecdsa_read_signature_restartable_fn = (void *)0x0bf714a0;
 102              		.loc 1 85 9 is_stmt 1
  85:C:/Users/stapi/OneDrive/Desktop/GD32VW553/V1_MQTT_OK/GD32VW55X_Wifi_BLE_SDK/GD32VW55x_RELEASE_V1.0.2/MSDK/plf/src\init_rom_symbol.c ****         mbedtls_ecdsa_read_signature_restartable_fn = (void *)0x0bf714a0;
 103              		.loc 1 85 41 is_stmt 0
 104 008a 930E6354 		addi	t4,t1,1350
 105 008e 370E0000 		lui	t3,%hi(.LANCHOR5)
 106 0092 2320DE01 		sw	t4,%lo(.LANCHOR5)(t3)
  86:C:/Users/stapi/OneDrive/Desktop/GD32VW553/V1_MQTT_OK/GD32VW55X_Wifi_BLE_SDK/GD32VW55x_RELEASE_V1.0.2/MSDK/plf/src\init_rom_symbol.c ****         mbedtls_ecdsa_sign_fn = (void *)0x0bf70bca;
 107              		.loc 1 86 9 is_stmt 1
  86:C:/Users/stapi/OneDrive/Desktop/GD32VW553/V1_MQTT_OK/GD32VW55X_Wifi_BLE_SDK/GD32VW55x_RELEASE_V1.0.2/MSDK/plf/src\init_rom_symbol.c ****         mbedtls_ecdsa_sign_fn = (void *)0x0bf70bca;
 108              		.loc 1 86 53 is_stmt 0
 109 0096 930E034A 		addi	t4,t1,1184
 110 009a 370E0000 		lui	t3,%hi(.LANCHOR6)
 111 009e 2320DE01 		sw	t4,%lo(.LANCHOR6)(t3)
  87:C:/Users/stapi/OneDrive/Desktop/GD32VW553/V1_MQTT_OK/GD32VW55X_Wifi_BLE_SDK/GD32VW55x_RELEASE_V1.0.2/MSDK/plf/src\init_rom_symbol.c ****         mbedtls_ecdsa_sign_det_fn = (void *)0x0bf7108c;
 112              		.loc 1 87 9 is_stmt 1
  87:C:/Users/stapi/OneDrive/Desktop/GD32VW553/V1_MQTT_OK/GD32VW55X_Wifi_BLE_SDK/GD32VW55x_RELEASE_V1.0.2/MSDK/plf/src\init_rom_symbol.c ****         mbedtls_ecdsa_sign_det_fn = (void *)0x0bf7108c;
 113              		.loc 1 87 31 is_stmt 0
 114 00a2 930EA3BC 		addi	t4,t1,-1078
 115 00a6 370E0000 		lui	t3,%hi(.LANCHOR7)
 116 00aa 2320DE01 		sw	t4,%lo(.LANCHOR7)(t3)
  88:C:/Users/stapi/OneDrive/Desktop/GD32VW553/V1_MQTT_OK/GD32VW55X_Wifi_BLE_SDK/GD32VW55x_RELEASE_V1.0.2/MSDK/plf/src\init_rom_symbol.c ****         mbedtls_ecdsa_verify_fn = (void *)0x0bf71090;
 117              		.loc 1 88 9 is_stmt 1
  88:C:/Users/stapi/OneDrive/Desktop/GD32VW553/V1_MQTT_OK/GD32VW55X_Wifi_BLE_SDK/GD32VW55x_RELEASE_V1.0.2/MSDK/plf/src\init_rom_symbol.c ****         mbedtls_ecdsa_verify_fn = (void *)0x0bf71090;
 118              		.loc 1 88 35 is_stmt 0
 119 00ae 930EC308 		addi	t4,t1,140
 120 00b2 370E0000 		lui	t3,%hi(.LANCHOR8)
 121 00b6 2320DE01 		sw	t4,%lo(.LANCHOR8)(t3)
  89:C:/Users/stapi/OneDrive/Desktop/GD32VW553/V1_MQTT_OK/GD32VW55X_Wifi_BLE_SDK/GD32VW55x_RELEASE_V1.0.2/MSDK/plf/src\init_rom_symbol.c ****         mbedtls_ecdsa_write_signature_fn = (void *)0x0bf71470;
 122              		.loc 1 89 9 is_stmt 1
  89:C:/Users/stapi/OneDrive/Desktop/GD32VW553/V1_MQTT_OK/GD32VW55X_Wifi_BLE_SDK/GD32VW55x_RELEASE_V1.0.2/MSDK/plf/src\init_rom_symbol.c ****         mbedtls_ecdsa_write_signature_fn = (void *)0x0bf71470;
 123              		.loc 1 89 33 is_stmt 0
 124 00ba 930E0309 		addi	t4,t1,144
 125 00be 370E0000 		lui	t3,%hi(.LANCHOR9)
 126 00c2 2320DE01 		sw	t4,%lo(.LANCHOR9)(t3)
  90:C:/Users/stapi/OneDrive/Desktop/GD32VW553/V1_MQTT_OK/GD32VW55X_Wifi_BLE_SDK/GD32VW55x_RELEASE_V1.0.2/MSDK/plf/src\init_rom_symbol.c ****         mbedtls_ecdsa_write_signature_det_fn = (void *)0x0bf71480;
 127              		.loc 1 90 9 is_stmt 1
  90:C:/Users/stapi/OneDrive/Desktop/GD32VW553/V1_MQTT_OK/GD32VW55X_Wifi_BLE_SDK/GD32VW55x_RELEASE_V1.0.2/MSDK/plf/src\init_rom_symbol.c ****         mbedtls_ecdsa_write_signature_det_fn = (void *)0x0bf71480;
 128              		.loc 1 90 42 is_stmt 0
 129 00c6 930E0347 		addi	t4,t1,1136
 130 00ca 370E0000 		lui	t3,%hi(.LANCHOR10)
 131 00ce 2320DE01 		sw	t4,%lo(.LANCHOR10)(t3)
  91:C:/Users/stapi/OneDrive/Desktop/GD32VW553/V1_MQTT_OK/GD32VW55X_Wifi_BLE_SDK/GD32VW55x_RELEASE_V1.0.2/MSDK/plf/src\init_rom_symbol.c ****         mbedtls_ecdsa_write_signature_restartable_fn = (void *)0x0bf713aa;
 132              		.loc 1 91 9 is_stmt 1
  91:C:/Users/stapi/OneDrive/Desktop/GD32VW553/V1_MQTT_OK/GD32VW55X_Wifi_BLE_SDK/GD32VW55x_RELEASE_V1.0.2/MSDK/plf/src\init_rom_symbol.c ****         mbedtls_ecdsa_write_signature_restartable_fn = (void *)0x0bf713aa;
 133              		.loc 1 91 46 is_stmt 0
 134 00d2 930E0348 		addi	t4,t1,1152
 135 00d6 370E0000 		lui	t3,%hi(.LANCHOR11)
 136 00da 2320DE01 		sw	t4,%lo(.LANCHOR11)(t3)
  92:C:/Users/stapi/OneDrive/Desktop/GD32VW553/V1_MQTT_OK/GD32VW55X_Wifi_BLE_SDK/GD32VW55x_RELEASE_V1.0.2/MSDK/plf/src\init_rom_symbol.c ****         mbedtls_ecp_check_privkey_fn = (void *)0x0bf72c3e;
 137              		.loc 1 92 9 is_stmt 1
  92:C:/Users/stapi/OneDrive/Desktop/GD32VW553/V1_MQTT_OK/GD32VW55X_Wifi_BLE_SDK/GD32VW55x_RELEASE_V1.0.2/MSDK/plf/src\init_rom_symbol.c ****         mbedtls_ecp_check_privkey_fn = (void *)0x0bf72c3e;
 138              		.loc 1 92 54 is_stmt 0
 139 00de 1303A33A 		addi	t1,t1,938
 140 00e2 370E0000 		lui	t3,%hi(.LANCHOR12)
 141 00e6 23206E00 		sw	t1,%lo(.LANCHOR12)(t3)
  93:C:/Users/stapi/OneDrive/Desktop/GD32VW553/V1_MQTT_OK/GD32VW55X_Wifi_BLE_SDK/GD32VW55x_RELEASE_V1.0.2/MSDK/plf/src\init_rom_symbol.c ****         mbedtls_ecp_check_pub_priv_fn = (void *)0x0bf73c8e;
 142              		.loc 1 93 9 is_stmt 1
  94:C:/Users/stapi/OneDrive/Desktop/GD32VW553/V1_MQTT_OK/GD32VW55X_Wifi_BLE_SDK/GD32VW55x_RELEASE_V1.0.2/MSDK/plf/src\init_rom_symbol.c ****         mbedtls_ecp_check_pubkey_fn = (void *)0x0bf72f6a;
 143              		.loc 1 94 9
  97:C:/Users/stapi/OneDrive/Desktop/GD32VW553/V1_MQTT_OK/GD32VW55X_Wifi_BLE_SDK/GD32VW55x_RELEASE_V1.0.2/MSDK/plf/src\init_rom_symbol.c ****         mbedtls_ecp_curve_info_from_grp_id_fn = (void *)0x0bf71f7e;
 144              		.loc 1 97 47 is_stmt 0
 145 00ea 138EE5F7 		addi	t3,a1,-130
 146 00ee 37030000 		lui	t1,%hi(.LANCHOR17)
 147 00f2 2320C301 		sw	t3,%lo(.LANCHOR17)(t1)
  98:C:/Users/stapi/OneDrive/Desktop/GD32VW553/V1_MQTT_OK/GD32VW55X_Wifi_BLE_SDK/GD32VW55x_RELEASE_V1.0.2/MSDK/plf/src\init_rom_symbol.c ****         mbedtls_ecp_curve_info_from_name_fn = (void *)0x0bf71fda;
 148              		.loc 1 98 45
 149 00f6 138EA5FD 		addi	t3,a1,-38
 150 00fa 37030000 		lui	t1,%hi(.LANCHOR18)
 151 00fe 2320C301 		sw	t3,%lo(.LANCHOR18)(t1)
  99:C:/Users/stapi/OneDrive/Desktop/GD32VW553/V1_MQTT_OK/GD32VW55X_Wifi_BLE_SDK/GD32VW55x_RELEASE_V1.0.2/MSDK/plf/src\init_rom_symbol.c ****         mbedtls_ecp_curve_info_from_tls_id_fn = (void *)0x0bf71faa;
 152              		.loc 1 99 47
 153 0102 138EA5FA 		addi	t3,a1,-86
 154 0106 37030000 		lui	t1,%hi(.LANCHOR19)
 155 010a 2320C301 		sw	t3,%lo(.LANCHOR19)(t1)
 100:C:/Users/stapi/OneDrive/Desktop/GD32VW553/V1_MQTT_OK/GD32VW55X_Wifi_BLE_SDK/GD32VW55x_RELEASE_V1.0.2/MSDK/plf/src\init_rom_symbol.c ****         mbedtls_ecp_curve_list_fn = (void *)0x0bf71f0a;
 156              		.loc 1 100 35
 157 010e 138EA5F0 		addi	t3,a1,-246
 158 0112 37030000 		lui	t1,%hi(.LANCHOR20)
 159 0116 2320C301 		sw	t3,%lo(.LANCHOR20)(t1)
 101:C:/Users/stapi/OneDrive/Desktop/GD32VW553/V1_MQTT_OK/GD32VW55X_Wifi_BLE_SDK/GD32VW55x_RELEASE_V1.0.2/MSDK/plf/src\init_rom_symbol.c ****         mbedtls_ecp_gen_key_fn = (void *)0x0bf73c48;
 102:C:/Users/stapi/OneDrive/Desktop/GD32VW553/V1_MQTT_OK/GD32VW55X_Wifi_BLE_SDK/GD32VW55x_RELEASE_V1.0.2/MSDK/plf/src\init_rom_symbol.c ****         mbedtls_ecp_gen_keypair_fn = (void *)0x0bf73c38;
 103:C:/Users/stapi/OneDrive/Desktop/GD32VW553/V1_MQTT_OK/GD32VW55X_Wifi_BLE_SDK/GD32VW55x_RELEASE_V1.0.2/MSDK/plf/src\init_rom_symbol.c ****         mbedtls_ecp_gen_keypair_base_fn = (void *)0x0bf73bdc;
 104:C:/Users/stapi/OneDrive/Desktop/GD32VW553/V1_MQTT_OK/GD32VW55X_Wifi_BLE_SDK/GD32VW55x_RELEASE_V1.0.2/MSDK/plf/src\init_rom_symbol.c ****         mbedtls_ecp_gen_privkey_fn = (void *)0x0bf72cbc;
 105:C:/Users/stapi/OneDrive/Desktop/GD32VW553/V1_MQTT_OK/GD32VW55X_Wifi_BLE_SDK/GD32VW55x_RELEASE_V1.0.2/MSDK/plf/src\init_rom_symbol.c ****         mbedtls_ecp_group_copy_fn = (void *)0x0bf721b0;
 160              		.loc 1 105 35
 161 011a 138E051B 		addi	t3,a1,432
 162 011e 37030000 		lui	t1,%hi(.LANCHOR25)
 163 0122 2320C301 		sw	t3,%lo(.LANCHOR25)(t1)
 106:C:/Users/stapi/OneDrive/Desktop/GD32VW553/V1_MQTT_OK/GD32VW55X_Wifi_BLE_SDK/GD32VW55x_RELEASE_V1.0.2/MSDK/plf/src\init_rom_symbol.c ****         mbedtls_ecp_group_free_fn = (void *)0x0bf720cc;
 164              		.loc 1 106 35
 165 0126 138EC50C 		addi	t3,a1,204
 166 012a 37030000 		lui	t1,%hi(.LANCHOR26)
 167 012e 2320C301 		sw	t3,%lo(.LANCHOR26)(t1)
  94:C:/Users/stapi/OneDrive/Desktop/GD32VW553/V1_MQTT_OK/GD32VW55X_Wifi_BLE_SDK/GD32VW55x_RELEASE_V1.0.2/MSDK/plf/src\init_rom_symbol.c ****         mbedtls_ecp_check_pubkey_fn = (void *)0x0bf72f6a;
 168              		.loc 1 94 39
 169 0132 130CE5C8 		addi	s8,a0,-882
 107:C:/Users/stapi/OneDrive/Desktop/GD32VW553/V1_MQTT_OK/GD32VW55X_Wifi_BLE_SDK/GD32VW55x_RELEASE_V1.0.2/MSDK/plf/src\init_rom_symbol.c ****         mbedtls_ecp_group_init_fn = (void *)0x0bf72044;
 170              		.loc 1 107 35
 171 0136 138E4504 		addi	t3,a1,68
 172 013a 37030000 		lui	t1,%hi(.LANCHOR27)
  94:C:/Users/stapi/OneDrive/Desktop/GD32VW553/V1_MQTT_OK/GD32VW55X_Wifi_BLE_SDK/GD32VW55x_RELEASE_V1.0.2/MSDK/plf/src\init_rom_symbol.c ****         mbedtls_ecp_check_pubkey_fn = (void *)0x0bf72f6a;
 173              		.loc 1 94 39
 174 013e B70B0000 		lui	s7,%hi(.LANCHOR14)
 175              		.loc 1 107 35
 176 0142 2320C301 		sw	t3,%lo(.LANCHOR27)(t1)
  94:C:/Users/stapi/OneDrive/Desktop/GD32VW553/V1_MQTT_OK/GD32VW55X_Wifi_BLE_SDK/GD32VW55x_RELEASE_V1.0.2/MSDK/plf/src\init_rom_symbol.c ****         mbedtls_ecp_check_pubkey_fn = (void *)0x0bf72f6a;
 177              		.loc 1 94 39
 178 0146 23A08B01 		sw	s8,%lo(.LANCHOR14)(s7)
  95:C:/Users/stapi/OneDrive/Desktop/GD32VW553/V1_MQTT_OK/GD32VW55X_Wifi_BLE_SDK/GD32VW55x_RELEASE_V1.0.2/MSDK/plf/src\init_rom_symbol.c ****         mbedtls_ecp_copy_fn = (void *)0x0bf72172;
 179              		.loc 1 95 9 is_stmt 1
 108:C:/Users/stapi/OneDrive/Desktop/GD32VW553/V1_MQTT_OK/GD32VW55X_Wifi_BLE_SDK/GD32VW55x_RELEASE_V1.0.2/MSDK/plf/src\init_rom_symbol.c ****         mbedtls_ecp_grp_id_list_fn = (void *)0x0bf71f32;
 180              		.loc 1 108 36 is_stmt 0
 181 014a 138E25F3 		addi	t3,a1,-206
 101:C:/Users/stapi/OneDrive/Desktop/GD32VW553/V1_MQTT_OK/GD32VW55X_Wifi_BLE_SDK/GD32VW55x_RELEASE_V1.0.2/MSDK/plf/src\init_rom_symbol.c ****         mbedtls_ecp_gen_keypair_fn = (void *)0x0bf73c38;
 182              		.loc 1 101 32
 183 014e 130C85C4 		addi	s8,a0,-952
  95:C:/Users/stapi/OneDrive/Desktop/GD32VW553/V1_MQTT_OK/GD32VW55X_Wifi_BLE_SDK/GD32VW55x_RELEASE_V1.0.2/MSDK/plf/src\init_rom_symbol.c ****         mbedtls_ecp_copy_fn = (void *)0x0bf72172;
 184              		.loc 1 95 37
 185 0152 930DA6F6 		addi	s11,a2,-150
 186              		.loc 1 108 36
 187 0156 37030000 		lui	t1,%hi(.LANCHOR28)
 101:C:/Users/stapi/OneDrive/Desktop/GD32VW553/V1_MQTT_OK/GD32VW55X_Wifi_BLE_SDK/GD32VW55x_RELEASE_V1.0.2/MSDK/plf/src\init_rom_symbol.c ****         mbedtls_ecp_gen_keypair_fn = (void *)0x0bf73c38;
 188              		.loc 1 101 32
 189 015a B70B0000 		lui	s7,%hi(.LANCHOR21)
  95:C:/Users/stapi/OneDrive/Desktop/GD32VW553/V1_MQTT_OK/GD32VW55X_Wifi_BLE_SDK/GD32VW55x_RELEASE_V1.0.2/MSDK/plf/src\init_rom_symbol.c ****         mbedtls_ecp_copy_fn = (void *)0x0bf72172;
 190              		.loc 1 95 37
 191 015e 370D0000 		lui	s10,%hi(.LANCHOR15)
 192              		.loc 1 108 36
 193 0162 2320C301 		sw	t3,%lo(.LANCHOR28)(t1)
 101:C:/Users/stapi/OneDrive/Desktop/GD32VW553/V1_MQTT_OK/GD32VW55X_Wifi_BLE_SDK/GD32VW55x_RELEASE_V1.0.2/MSDK/plf/src\init_rom_symbol.c ****         mbedtls_ecp_gen_keypair_fn = (void *)0x0bf73c38;
 194              		.loc 1 101 32
 195 0166 23A08B01 		sw	s8,%lo(.LANCHOR21)(s7)
 109:C:/Users/stapi/OneDrive/Desktop/GD32VW553/V1_MQTT_OK/GD32VW55X_Wifi_BLE_SDK/GD32VW55x_RELEASE_V1.0.2/MSDK/plf/src\init_rom_symbol.c ****         mbedtls_ecp_is_zero_fn = (void *)0x0bf728e4;
 110:C:/Users/stapi/OneDrive/Desktop/GD32VW553/V1_MQTT_OK/GD32VW55X_Wifi_BLE_SDK/GD32VW55x_RELEASE_V1.0.2/MSDK/plf/src\init_rom_symbol.c ****         mbedtls_ecp_keypair_free_fn = (void *)0x0bf7214c;
 196              		.loc 1 110 37
 197 016a 138EC514 		addi	t3,a1,332
 102:C:/Users/stapi/OneDrive/Desktop/GD32VW553/V1_MQTT_OK/GD32VW55X_Wifi_BLE_SDK/GD32VW55x_RELEASE_V1.0.2/MSDK/plf/src\init_rom_symbol.c ****         mbedtls_ecp_gen_keypair_base_fn = (void *)0x0bf73bdc;
 198              		.loc 1 102 36
 199 016e 130C85C3 		addi	s8,a0,-968
  95:C:/Users/stapi/OneDrive/Desktop/GD32VW553/V1_MQTT_OK/GD32VW55X_Wifi_BLE_SDK/GD32VW55x_RELEASE_V1.0.2/MSDK/plf/src\init_rom_symbol.c ****         mbedtls_ecp_copy_fn = (void *)0x0bf72172;
 200              		.loc 1 95 37
 201 0172 2320BD01 		sw	s11,%lo(.LANCHOR15)(s10)
  96:C:/Users/stapi/OneDrive/Desktop/GD32VW553/V1_MQTT_OK/GD32VW55X_Wifi_BLE_SDK/GD32VW55x_RELEASE_V1.0.2/MSDK/plf/src\init_rom_symbol.c ****         mbedtls_ecp_curve_info_from_grp_id_fn = (void *)0x0bf71f7e;
 202              		.loc 1 96 9 is_stmt 1
  97:C:/Users/stapi/OneDrive/Desktop/GD32VW553/V1_MQTT_OK/GD32VW55X_Wifi_BLE_SDK/GD32VW55x_RELEASE_V1.0.2/MSDK/plf/src\init_rom_symbol.c ****         mbedtls_ecp_curve_info_from_name_fn = (void *)0x0bf71fda;
 203              		.loc 1 97 9
  98:C:/Users/stapi/OneDrive/Desktop/GD32VW553/V1_MQTT_OK/GD32VW55X_Wifi_BLE_SDK/GD32VW55x_RELEASE_V1.0.2/MSDK/plf/src\init_rom_symbol.c ****         mbedtls_ecp_curve_info_from_tls_id_fn = (void *)0x0bf71faa;
 204              		.loc 1 98 9
  99:C:/Users/stapi/OneDrive/Desktop/GD32VW553/V1_MQTT_OK/GD32VW55X_Wifi_BLE_SDK/GD32VW55x_RELEASE_V1.0.2/MSDK/plf/src\init_rom_symbol.c ****         mbedtls_ecp_curve_list_fn = (void *)0x0bf71f0a;
 205              		.loc 1 99 9
 100:C:/Users/stapi/OneDrive/Desktop/GD32VW553/V1_MQTT_OK/GD32VW55X_Wifi_BLE_SDK/GD32VW55x_RELEASE_V1.0.2/MSDK/plf/src\init_rom_symbol.c ****         mbedtls_ecp_gen_key_fn = (void *)0x0bf73c48;
 206              		.loc 1 100 9
 101:C:/Users/stapi/OneDrive/Desktop/GD32VW553/V1_MQTT_OK/GD32VW55X_Wifi_BLE_SDK/GD32VW55x_RELEASE_V1.0.2/MSDK/plf/src\init_rom_symbol.c ****         mbedtls_ecp_gen_keypair_fn = (void *)0x0bf73c38;
 207              		.loc 1 101 9
 102:C:/Users/stapi/OneDrive/Desktop/GD32VW553/V1_MQTT_OK/GD32VW55X_Wifi_BLE_SDK/GD32VW55x_RELEASE_V1.0.2/MSDK/plf/src\init_rom_symbol.c ****         mbedtls_ecp_gen_keypair_base_fn = (void *)0x0bf73bdc;
 208              		.loc 1 102 9
 103:C:/Users/stapi/OneDrive/Desktop/GD32VW553/V1_MQTT_OK/GD32VW55X_Wifi_BLE_SDK/GD32VW55x_RELEASE_V1.0.2/MSDK/plf/src\init_rom_symbol.c ****         mbedtls_ecp_gen_privkey_fn = (void *)0x0bf72cbc;
 209              		.loc 1 103 9
 104:C:/Users/stapi/OneDrive/Desktop/GD32VW553/V1_MQTT_OK/GD32VW55X_Wifi_BLE_SDK/GD32VW55x_RELEASE_V1.0.2/MSDK/plf/src\init_rom_symbol.c ****         mbedtls_ecp_group_copy_fn = (void *)0x0bf721b0;
 210              		.loc 1 104 9
 211              		.loc 1 110 37 is_stmt 0
 212 0176 37030000 		lui	t1,%hi(.LANCHOR30)
 104:C:/Users/stapi/OneDrive/Desktop/GD32VW553/V1_MQTT_OK/GD32VW55X_Wifi_BLE_SDK/GD32VW55x_RELEASE_V1.0.2/MSDK/plf/src\init_rom_symbol.c ****         mbedtls_ecp_group_copy_fn = (void *)0x0bf721b0;
 213              		.loc 1 104 36
 214 017a 930DC6CB 		addi	s11,a2,-836
 102:C:/Users/stapi/OneDrive/Desktop/GD32VW553/V1_MQTT_OK/GD32VW55X_Wifi_BLE_SDK/GD32VW55x_RELEASE_V1.0.2/MSDK/plf/src\init_rom_symbol.c ****         mbedtls_ecp_gen_keypair_base_fn = (void *)0x0bf73bdc;
 215              		.loc 1 102 36
 216 017e B70B0000 		lui	s7,%hi(.LANCHOR22)
 104:C:/Users/stapi/OneDrive/Desktop/GD32VW553/V1_MQTT_OK/GD32VW55X_Wifi_BLE_SDK/GD32VW55x_RELEASE_V1.0.2/MSDK/plf/src\init_rom_symbol.c ****         mbedtls_ecp_group_copy_fn = (void *)0x0bf721b0;
 217              		.loc 1 104 36
 218 0182 370D0000 		lui	s10,%hi(.LANCHOR24)
 219              		.loc 1 110 37
 220 0186 2320C301 		sw	t3,%lo(.LANCHOR30)(t1)
 102:C:/Users/stapi/OneDrive/Desktop/GD32VW553/V1_MQTT_OK/GD32VW55X_Wifi_BLE_SDK/GD32VW55x_RELEASE_V1.0.2/MSDK/plf/src\init_rom_symbol.c ****         mbedtls_ecp_gen_keypair_base_fn = (void *)0x0bf73bdc;
 221              		.loc 1 102 36
 222 018a 23A08B01 		sw	s8,%lo(.LANCHOR22)(s7)
 111:C:/Users/stapi/OneDrive/Desktop/GD32VW553/V1_MQTT_OK/GD32VW55X_Wifi_BLE_SDK/GD32VW55x_RELEASE_V1.0.2/MSDK/plf/src\init_rom_symbol.c ****         mbedtls_ecp_keypair_init_fn = (void *)0x0bf720a2;
 223              		.loc 1 111 37
 224 018e 138E250A 		addi	t3,a1,162
 103:C:/Users/stapi/OneDrive/Desktop/GD32VW553/V1_MQTT_OK/GD32VW55X_Wifi_BLE_SDK/GD32VW55x_RELEASE_V1.0.2/MSDK/plf/src\init_rom_symbol.c ****         mbedtls_ecp_gen_privkey_fn = (void *)0x0bf72cbc;
 225              		.loc 1 103 41
 226 0192 130CC5BD 		addi	s8,a0,-1060
 104:C:/Users/stapi/OneDrive/Desktop/GD32VW553/V1_MQTT_OK/GD32VW55X_Wifi_BLE_SDK/GD32VW55x_RELEASE_V1.0.2/MSDK/plf/src\init_rom_symbol.c ****         mbedtls_ecp_group_copy_fn = (void *)0x0bf721b0;
 227              		.loc 1 104 36
 228 0196 2320BD01 		sw	s11,%lo(.LANCHOR24)(s10)
 105:C:/Users/stapi/OneDrive/Desktop/GD32VW553/V1_MQTT_OK/GD32VW55X_Wifi_BLE_SDK/GD32VW55x_RELEASE_V1.0.2/MSDK/plf/src\init_rom_symbol.c ****         mbedtls_ecp_group_free_fn = (void *)0x0bf720cc;
 229              		.loc 1 105 9 is_stmt 1
 106:C:/Users/stapi/OneDrive/Desktop/GD32VW553/V1_MQTT_OK/GD32VW55X_Wifi_BLE_SDK/GD32VW55x_RELEASE_V1.0.2/MSDK/plf/src\init_rom_symbol.c ****         mbedtls_ecp_group_init_fn = (void *)0x0bf72044;
 230              		.loc 1 106 9
 107:C:/Users/stapi/OneDrive/Desktop/GD32VW553/V1_MQTT_OK/GD32VW55X_Wifi_BLE_SDK/GD32VW55x_RELEASE_V1.0.2/MSDK/plf/src\init_rom_symbol.c ****         mbedtls_ecp_grp_id_list_fn = (void *)0x0bf71f32;
 231              		.loc 1 107 9
 108:C:/Users/stapi/OneDrive/Desktop/GD32VW553/V1_MQTT_OK/GD32VW55X_Wifi_BLE_SDK/GD32VW55x_RELEASE_V1.0.2/MSDK/plf/src\init_rom_symbol.c ****         mbedtls_ecp_is_zero_fn = (void *)0x0bf728e4;
 232              		.loc 1 108 9
 109:C:/Users/stapi/OneDrive/Desktop/GD32VW553/V1_MQTT_OK/GD32VW55X_Wifi_BLE_SDK/GD32VW55x_RELEASE_V1.0.2/MSDK/plf/src\init_rom_symbol.c ****         mbedtls_ecp_keypair_free_fn = (void *)0x0bf7214c;
 233              		.loc 1 109 9
 234              		.loc 1 111 37 is_stmt 0
 235 019a 37030000 		lui	t1,%hi(.LANCHOR31)
 109:C:/Users/stapi/OneDrive/Desktop/GD32VW553/V1_MQTT_OK/GD32VW55X_Wifi_BLE_SDK/GD32VW55x_RELEASE_V1.0.2/MSDK/plf/src\init_rom_symbol.c ****         mbedtls_ecp_keypair_free_fn = (void *)0x0bf7214c;
 236              		.loc 1 109 32
 237 019e 930D468E 		addi	s11,a2,-1820
 103:C:/Users/stapi/OneDrive/Desktop/GD32VW553/V1_MQTT_OK/GD32VW55X_Wifi_BLE_SDK/GD32VW55x_RELEASE_V1.0.2/MSDK/plf/src\init_rom_symbol.c ****         mbedtls_ecp_gen_privkey_fn = (void *)0x0bf72cbc;
 238              		.loc 1 103 41
 239 01a2 B70B0000 		lui	s7,%hi(.LANCHOR23)
 109:C:/Users/stapi/OneDrive/Desktop/GD32VW553/V1_MQTT_OK/GD32VW55X_Wifi_BLE_SDK/GD32VW55x_RELEASE_V1.0.2/MSDK/plf/src\init_rom_symbol.c ****         mbedtls_ecp_keypair_free_fn = (void *)0x0bf7214c;
 240              		.loc 1 109 32
 241 01a6 370D0000 		lui	s10,%hi(.LANCHOR29)
 242              		.loc 1 111 37
 243 01aa 2320C301 		sw	t3,%lo(.LANCHOR31)(t1)
 103:C:/Users/stapi/OneDrive/Desktop/GD32VW553/V1_MQTT_OK/GD32VW55X_Wifi_BLE_SDK/GD32VW55x_RELEASE_V1.0.2/MSDK/plf/src\init_rom_symbol.c ****         mbedtls_ecp_gen_privkey_fn = (void *)0x0bf72cbc;
 244              		.loc 1 103 41
 245 01ae 23A08B01 		sw	s8,%lo(.LANCHOR23)(s7)
 112:C:/Users/stapi/OneDrive/Desktop/GD32VW553/V1_MQTT_OK/GD32VW55X_Wifi_BLE_SDK/GD32VW55x_RELEASE_V1.0.2/MSDK/plf/src\init_rom_symbol.c ****         mbedtls_ecp_mul_fn = (void *)0x0bf73bd6;
 246              		.loc 1 112 28
 247 01b2 930C65BD 		addi	s9,a0,-1066
 109:C:/Users/stapi/OneDrive/Desktop/GD32VW553/V1_MQTT_OK/GD32VW55X_Wifi_BLE_SDK/GD32VW55x_RELEASE_V1.0.2/MSDK/plf/src\init_rom_symbol.c ****         mbedtls_ecp_keypair_free_fn = (void *)0x0bf7214c;
 248              		.loc 1 109 32
 249 01b6 2320BD01 		sw	s11,%lo(.LANCHOR29)(s10)
 110:C:/Users/stapi/OneDrive/Desktop/GD32VW553/V1_MQTT_OK/GD32VW55X_Wifi_BLE_SDK/GD32VW55x_RELEASE_V1.0.2/MSDK/plf/src\init_rom_symbol.c ****         mbedtls_ecp_keypair_init_fn = (void *)0x0bf720a2;
 250              		.loc 1 110 9 is_stmt 1
 111:C:/Users/stapi/OneDrive/Desktop/GD32VW553/V1_MQTT_OK/GD32VW55X_Wifi_BLE_SDK/GD32VW55x_RELEASE_V1.0.2/MSDK/plf/src\init_rom_symbol.c ****         mbedtls_ecp_mul_fn = (void *)0x0bf73bd6;
 251              		.loc 1 111 9
 252              		.loc 1 112 9
 253              		.loc 1 112 28 is_stmt 0
 254 01ba 370D0000 		lui	s10,%hi(.LANCHOR32)
 255 01be 23209D01 		sw	s9,%lo(.LANCHOR32)(s10)
 113:C:/Users/stapi/OneDrive/Desktop/GD32VW553/V1_MQTT_OK/GD32VW55X_Wifi_BLE_SDK/GD32VW55x_RELEASE_V1.0.2/MSDK/plf/src\init_rom_symbol.c ****         mbedtls_ecp_mul_restartable_fn = (void *)0x0bf73220;
 256              		.loc 1 113 9 is_stmt 1
 257              		.loc 1 113 40 is_stmt 0
 258 01c2 130D0622 		addi	s10,a2,544
 259 01c6 B70C0000 		lui	s9,%hi(.LANCHOR33)
 114:C:/Users/stapi/OneDrive/Desktop/GD32VW553/V1_MQTT_OK/GD32VW55X_Wifi_BLE_SDK/GD32VW55x_RELEASE_V1.0.2/MSDK/plf/src\init_rom_symbol.c ****         mbedtls_ecp_muladd_fn = (void *)0x0bf73e98;
 260              		.loc 1 114 31
 261 01ca 130C85E9 		addi	s8,a0,-360
 113:C:/Users/stapi/OneDrive/Desktop/GD32VW553/V1_MQTT_OK/GD32VW55X_Wifi_BLE_SDK/GD32VW55x_RELEASE_V1.0.2/MSDK/plf/src\init_rom_symbol.c ****         mbedtls_ecp_mul_restartable_fn = (void *)0x0bf73220;
 262              		.loc 1 113 40
 263 01ce 23A0AC01 		sw	s10,%lo(.LANCHOR33)(s9)
 264              		.loc 1 114 9 is_stmt 1
 265              		.loc 1 114 31 is_stmt 0
 266 01d2 370D0000 		lui	s10,%hi(.LANCHOR34)
 115:C:/Users/stapi/OneDrive/Desktop/GD32VW553/V1_MQTT_OK/GD32VW55X_Wifi_BLE_SDK/GD32VW55x_RELEASE_V1.0.2/MSDK/plf/src\init_rom_symbol.c ****         mbedtls_ecp_muladd_restartable_fn = (void *)0x0bf73e7c;
 267              		.loc 1 115 43
 268 01d6 930BC5E7 		addi	s7,a0,-388
 114:C:/Users/stapi/OneDrive/Desktop/GD32VW553/V1_MQTT_OK/GD32VW55X_Wifi_BLE_SDK/GD32VW55x_RELEASE_V1.0.2/MSDK/plf/src\init_rom_symbol.c ****         mbedtls_ecp_muladd_fn = (void *)0x0bf73e98;
 269              		.loc 1 114 31
 270 01da 23208D01 		sw	s8,%lo(.LANCHOR34)(s10)
 271              		.loc 1 115 9 is_stmt 1
 272              		.loc 1 115 43 is_stmt 0
 273 01de 370D0000 		lui	s10,%hi(.LANCHOR35)
 116:C:/Users/stapi/OneDrive/Desktop/GD32VW553/V1_MQTT_OK/GD32VW55X_Wifi_BLE_SDK/GD32VW55x_RELEASE_V1.0.2/MSDK/plf/src\init_rom_symbol.c ****         mbedtls_ecp_point_cmp_fn = (void *)0x0bf728fa;
 274              		.loc 1 116 34
 275 01e2 930CA68F 		addi	s9,a2,-1798
 115:C:/Users/stapi/OneDrive/Desktop/GD32VW553/V1_MQTT_OK/GD32VW55X_Wifi_BLE_SDK/GD32VW55x_RELEASE_V1.0.2/MSDK/plf/src\init_rom_symbol.c ****         mbedtls_ecp_muladd_restartable_fn = (void *)0x0bf73e7c;
 276              		.loc 1 115 43
 277 01e6 23207D01 		sw	s7,%lo(.LANCHOR35)(s10)
 278              		.loc 1 116 9 is_stmt 1
 279              		.loc 1 116 34 is_stmt 0
 280 01ea B70B0000 		lui	s7,%hi(.LANCHOR36)
 117:C:/Users/stapi/OneDrive/Desktop/GD32VW553/V1_MQTT_OK/GD32VW55X_Wifi_BLE_SDK/GD32VW55x_RELEASE_V1.0.2/MSDK/plf/src\init_rom_symbol.c ****         mbedtls_ecp_point_free_fn = (void *)0x0bf720c4;
 281              		.loc 1 117 35
 282 01ee 138B450C 		addi	s6,a1,196
 116:C:/Users/stapi/OneDrive/Desktop/GD32VW553/V1_MQTT_OK/GD32VW55X_Wifi_BLE_SDK/GD32VW55x_RELEASE_V1.0.2/MSDK/plf/src\init_rom_symbol.c ****         mbedtls_ecp_point_cmp_fn = (void *)0x0bf728fa;
 283              		.loc 1 116 34
 284 01f2 23A09B01 		sw	s9,%lo(.LANCHOR36)(s7)
 285              		.loc 1 117 9 is_stmt 1
 286              		.loc 1 117 35 is_stmt 0
 287 01f6 B70C0000 		lui	s9,%hi(.LANCHOR37)
 118:C:/Users/stapi/OneDrive/Desktop/GD32VW553/V1_MQTT_OK/GD32VW55X_Wifi_BLE_SDK/GD32VW55x_RELEASE_V1.0.2/MSDK/plf/src\init_rom_symbol.c ****         mbedtls_ecp_point_init_fn = (void *)0x0bf72022;
 288              		.loc 1 118 35
 289 01fa 938A2502 		addi	s5,a1,34
 117:C:/Users/stapi/OneDrive/Desktop/GD32VW553/V1_MQTT_OK/GD32VW55X_Wifi_BLE_SDK/GD32VW55x_RELEASE_V1.0.2/MSDK/plf/src\init_rom_symbol.c ****         mbedtls_ecp_point_free_fn = (void *)0x0bf720c4;
 290              		.loc 1 117 35
 291 01fe 23A06C01 		sw	s6,%lo(.LANCHOR37)(s9)
 292              		.loc 1 118 9 is_stmt 1
 293              		.loc 1 118 35 is_stmt 0
 294 0202 B70C0000 		lui	s9,%hi(.LANCHOR38)
 119:C:/Users/stapi/OneDrive/Desktop/GD32VW553/V1_MQTT_OK/GD32VW55X_Wifi_BLE_SDK/GD32VW55x_RELEASE_V1.0.2/MSDK/plf/src\init_rom_symbol.c ****         mbedtls_ecp_point_read_binary_fn = (void *)0x0bf72a54;
 295              		.loc 1 119 42
 296 0206 130C46A5 		addi	s8,a2,-1452
 118:C:/Users/stapi/OneDrive/Desktop/GD32VW553/V1_MQTT_OK/GD32VW55X_Wifi_BLE_SDK/GD32VW55x_RELEASE_V1.0.2/MSDK/plf/src\init_rom_symbol.c ****         mbedtls_ecp_point_init_fn = (void *)0x0bf72022;
 297              		.loc 1 118 35
 298 020a 23A05C01 		sw	s5,%lo(.LANCHOR38)(s9)
 299              		.loc 1 119 9 is_stmt 1
 300              		.loc 1 119 42 is_stmt 0
 301 020e B70A0000 		lui	s5,%hi(.LANCHOR39)
 120:C:/Users/stapi/OneDrive/Desktop/GD32VW553/V1_MQTT_OK/GD32VW55X_Wifi_BLE_SDK/GD32VW55x_RELEASE_V1.0.2/MSDK/plf/src\init_rom_symbol.c ****         mbedtls_ecp_point_read_string_fn = (void *)0x0bf72942;
 302              		.loc 1 120 42
 303 0212 130D2694 		addi	s10,a2,-1726
 119:C:/Users/stapi/OneDrive/Desktop/GD32VW553/V1_MQTT_OK/GD32VW55X_Wifi_BLE_SDK/GD32VW55x_RELEASE_V1.0.2/MSDK/plf/src\init_rom_symbol.c ****         mbedtls_ecp_point_read_binary_fn = (void *)0x0bf72a54;
 304              		.loc 1 119 42
 305 0216 23A08A01 		sw	s8,%lo(.LANCHOR39)(s5)
 306              		.loc 1 120 9 is_stmt 1
 307              		.loc 1 120 42 is_stmt 0
 308 021a B70A0000 		lui	s5,%hi(.LANCHOR40)
 121:C:/Users/stapi/OneDrive/Desktop/GD32VW553/V1_MQTT_OK/GD32VW55X_Wifi_BLE_SDK/GD32VW55x_RELEASE_V1.0.2/MSDK/plf/src\init_rom_symbol.c ****         mbedtls_ecp_point_write_binary_fn = (void *)0x0bf72986;
 309              		.loc 1 121 43
 310 021e 930B6698 		addi	s7,a2,-1658
 120:C:/Users/stapi/OneDrive/Desktop/GD32VW553/V1_MQTT_OK/GD32VW55X_Wifi_BLE_SDK/GD32VW55x_RELEASE_V1.0.2/MSDK/plf/src\init_rom_symbol.c ****         mbedtls_ecp_point_read_string_fn = (void *)0x0bf72942;
 311              		.loc 1 120 42
 312 0222 23A0AA01 		sw	s10,%lo(.LANCHOR40)(s5)
 313              		.loc 1 121 9 is_stmt 1
 314              		.loc 1 121 43 is_stmt 0
 315 0226 370D0000 		lui	s10,%hi(.LANCHOR41)
 316 022a 23207D01 		sw	s7,%lo(.LANCHOR41)(s10)
 122:C:/Users/stapi/OneDrive/Desktop/GD32VW553/V1_MQTT_OK/GD32VW55X_Wifi_BLE_SDK/GD32VW55x_RELEASE_V1.0.2/MSDK/plf/src\init_rom_symbol.c ****         mbedtls_ecp_set_zero_fn = (void *)0x0bf721b6;
 317              		.loc 1 122 9 is_stmt 1
 318              		.loc 1 122 33 is_stmt 0
 319 022e 9385651B 		addi	a1,a1,438
 320 0232 B70B0000 		lui	s7,%hi(.LANCHOR42)
 123:C:/Users/stapi/OneDrive/Desktop/GD32VW553/V1_MQTT_OK/GD32VW55X_Wifi_BLE_SDK/GD32VW55x_RELEASE_V1.0.2/MSDK/plf/src\init_rom_symbol.c ****         mbedtls_ecp_tls_read_group_fn = (void *)0x0bf72bc4;
 321              		.loc 1 123 39
 322 0236 130B46BC 		addi	s6,a2,-1084
 122:C:/Users/stapi/OneDrive/Desktop/GD32VW553/V1_MQTT_OK/GD32VW55X_Wifi_BLE_SDK/GD32VW55x_RELEASE_V1.0.2/MSDK/plf/src\init_rom_symbol.c ****         mbedtls_ecp_set_zero_fn = (void *)0x0bf721b6;
 323              		.loc 1 122 33
 324 023a 23A0BB00 		sw	a1,%lo(.LANCHOR42)(s7)
 325              		.loc 1 123 9 is_stmt 1
 326              		.loc 1 123 39 is_stmt 0
 327 023e B7050000 		lui	a1,%hi(.LANCHOR43)
 124:C:/Users/stapi/OneDrive/Desktop/GD32VW553/V1_MQTT_OK/GD32VW55X_Wifi_BLE_SDK/GD32VW55x_RELEASE_V1.0.2/MSDK/plf/src\init_rom_symbol.c ****         mbedtls_ecp_tls_read_group_id_fn = (void *)0x0bf72b5c;
 328              		.loc 1 124 42
 329 0242 930CC6B5 		addi	s9,a2,-1188
 123:C:/Users/stapi/OneDrive/Desktop/GD32VW553/V1_MQTT_OK/GD32VW55X_Wifi_BLE_SDK/GD32VW55x_RELEASE_V1.0.2/MSDK/plf/src\init_rom_symbol.c ****         mbedtls_ecp_tls_read_group_fn = (void *)0x0bf72bc4;
 330              		.loc 1 123 39
 331 0246 23A06501 		sw	s6,%lo(.LANCHOR43)(a1)
 332              		.loc 1 124 9 is_stmt 1
 333              		.loc 1 124 42 is_stmt 0
 334 024a B7050000 		lui	a1,%hi(.LANCHOR44)
 125:C:/Users/stapi/OneDrive/Desktop/GD32VW553/V1_MQTT_OK/GD32VW55X_Wifi_BLE_SDK/GD32VW55x_RELEASE_V1.0.2/MSDK/plf/src\init_rom_symbol.c ****         mbedtls_ecp_tls_read_point_fn = (void *)0x0bf72af2;
 335              		.loc 1 125 39
 336 024e 130C26AF 		addi	s8,a2,-1294
 124:C:/Users/stapi/OneDrive/Desktop/GD32VW553/V1_MQTT_OK/GD32VW55X_Wifi_BLE_SDK/GD32VW55x_RELEASE_V1.0.2/MSDK/plf/src\init_rom_symbol.c ****         mbedtls_ecp_tls_read_group_id_fn = (void *)0x0bf72b5c;
 337              		.loc 1 124 42
 338 0252 23A09501 		sw	s9,%lo(.LANCHOR44)(a1)
 339              		.loc 1 125 9 is_stmt 1
 340              		.loc 1 125 39 is_stmt 0
 341 0256 B7050000 		lui	a1,%hi(.LANCHOR45)
 126:C:/Users/stapi/OneDrive/Desktop/GD32VW553/V1_MQTT_OK/GD32VW55X_Wifi_BLE_SDK/GD32VW55x_RELEASE_V1.0.2/MSDK/plf/src\init_rom_symbol.c ****         mbedtls_ecp_tls_write_group_fn = (void *)0x0bf72be4;
 342              		.loc 1 126 40
 343 025a 930A46BE 		addi	s5,a2,-1052
 125:C:/Users/stapi/OneDrive/Desktop/GD32VW553/V1_MQTT_OK/GD32VW55X_Wifi_BLE_SDK/GD32VW55x_RELEASE_V1.0.2/MSDK/plf/src\init_rom_symbol.c ****         mbedtls_ecp_tls_read_point_fn = (void *)0x0bf72af2;
 344              		.loc 1 125 39
 345 025e 23A08501 		sw	s8,%lo(.LANCHOR45)(a1)
 346              		.loc 1 126 9 is_stmt 1
 347              		.loc 1 126 40 is_stmt 0
 348 0262 B7050000 		lui	a1,%hi(.LANCHOR46)
 127:C:/Users/stapi/OneDrive/Desktop/GD32VW553/V1_MQTT_OK/GD32VW55X_Wifi_BLE_SDK/GD32VW55x_RELEASE_V1.0.2/MSDK/plf/src\init_rom_symbol.c ****         mbedtls_ecp_tls_write_point_fn = (void *)0x0bf72b26;
 128:C:/Users/stapi/OneDrive/Desktop/GD32VW553/V1_MQTT_OK/GD32VW55X_Wifi_BLE_SDK/GD32VW55x_RELEASE_V1.0.2/MSDK/plf/src\init_rom_symbol.c ****         mbedtls_internal_md5_process_fn = (void *)0x0bf76912;
 349              		.loc 1 128 41
 350 0266 3777F70B 		li	a4,200765440
 126:C:/Users/stapi/OneDrive/Desktop/GD32VW553/V1_MQTT_OK/GD32VW55X_Wifi_BLE_SDK/GD32VW55x_RELEASE_V1.0.2/MSDK/plf/src\init_rom_symbol.c ****         mbedtls_ecp_tls_write_group_fn = (void *)0x0bf72be4;
 351              		.loc 1 126 40
 352 026a 23A05501 		sw	s5,%lo(.LANCHOR46)(a1)
 127:C:/Users/stapi/OneDrive/Desktop/GD32VW553/V1_MQTT_OK/GD32VW55X_Wifi_BLE_SDK/GD32VW55x_RELEASE_V1.0.2/MSDK/plf/src\init_rom_symbol.c ****         mbedtls_ecp_tls_write_point_fn = (void *)0x0bf72b26;
 353              		.loc 1 127 9 is_stmt 1
 127:C:/Users/stapi/OneDrive/Desktop/GD32VW553/V1_MQTT_OK/GD32VW55X_Wifi_BLE_SDK/GD32VW55x_RELEASE_V1.0.2/MSDK/plf/src\init_rom_symbol.c ****         mbedtls_ecp_tls_write_point_fn = (void *)0x0bf72b26;
 354              		.loc 1 127 40 is_stmt 0
 355 026e 130666B2 		addi	a2,a2,-1242
 356 0272 B7050000 		lui	a1,%hi(.LANCHOR47)
 129:C:/Users/stapi/OneDrive/Desktop/GD32VW553/V1_MQTT_OK/GD32VW55X_Wifi_BLE_SDK/GD32VW55x_RELEASE_V1.0.2/MSDK/plf/src\init_rom_symbol.c ****         mbedtls_internal_sha256_process_fn = (void *)0x0bf7674e;
 357              		.loc 1 129 44
 358 0276 B767F70B 		li	a5,200761344
 128:C:/Users/stapi/OneDrive/Desktop/GD32VW553/V1_MQTT_OK/GD32VW55X_Wifi_BLE_SDK/GD32VW55x_RELEASE_V1.0.2/MSDK/plf/src\init_rom_symbol.c ****         mbedtls_internal_sha256_process_fn = (void *)0x0bf7674e;
 359              		.loc 1 128 41
 360 027a 130A2791 		addi	s4,a4,-1774
 127:C:/Users/stapi/OneDrive/Desktop/GD32VW553/V1_MQTT_OK/GD32VW55X_Wifi_BLE_SDK/GD32VW55x_RELEASE_V1.0.2/MSDK/plf/src\init_rom_symbol.c ****         mbedtls_ecp_tls_write_point_fn = (void *)0x0bf72b26;
 361              		.loc 1 127 40
 362 027e 23A0C500 		sw	a2,%lo(.LANCHOR47)(a1)
 128:C:/Users/stapi/OneDrive/Desktop/GD32VW553/V1_MQTT_OK/GD32VW55X_Wifi_BLE_SDK/GD32VW55x_RELEASE_V1.0.2/MSDK/plf/src\init_rom_symbol.c ****         mbedtls_internal_sha256_process_fn = (void *)0x0bf7674e;
 363              		.loc 1 128 9 is_stmt 1
 128:C:/Users/stapi/OneDrive/Desktop/GD32VW553/V1_MQTT_OK/GD32VW55X_Wifi_BLE_SDK/GD32VW55x_RELEASE_V1.0.2/MSDK/plf/src\init_rom_symbol.c ****         mbedtls_internal_sha256_process_fn = (void *)0x0bf7674e;
 364              		.loc 1 128 41 is_stmt 0
 365 0282 37060000 		lui	a2,%hi(.LANCHOR48)
 366              		.loc 1 129 44
 367 0286 9389E774 		addi	s3,a5,1870
 128:C:/Users/stapi/OneDrive/Desktop/GD32VW553/V1_MQTT_OK/GD32VW55X_Wifi_BLE_SDK/GD32VW55x_RELEASE_V1.0.2/MSDK/plf/src\init_rom_symbol.c ****         mbedtls_internal_sha256_process_fn = (void *)0x0bf7674e;
 368              		.loc 1 128 41
 369 028a 23204601 		sw	s4,%lo(.LANCHOR48)(a2)
 370              		.loc 1 129 9 is_stmt 1
 371              		.loc 1 129 44 is_stmt 0
 372 028e 37060000 		lui	a2,%hi(.LANCHOR49)
 130:C:/Users/stapi/OneDrive/Desktop/GD32VW553/V1_MQTT_OK/GD32VW55X_Wifi_BLE_SDK/GD32VW55x_RELEASE_V1.0.2/MSDK/plf/src\init_rom_symbol.c ****         mbedtls_md5_fn = (void *)0x0bf7778e;
 373              		.loc 1 130 24
 374 0292 1309E778 		addi	s2,a4,1934
 129:C:/Users/stapi/OneDrive/Desktop/GD32VW553/V1_MQTT_OK/GD32VW55X_Wifi_BLE_SDK/GD32VW55x_RELEASE_V1.0.2/MSDK/plf/src\init_rom_symbol.c ****         mbedtls_internal_sha256_process_fn = (void *)0x0bf7674e;
 375              		.loc 1 129 44
 376 0296 23203601 		sw	s3,%lo(.LANCHOR49)(a2)
 377              		.loc 1 130 9 is_stmt 1
 378              		.loc 1 130 24 is_stmt 0
 379 029a 37060000 		lui	a2,%hi(.LANCHOR50)
 131:C:/Users/stapi/OneDrive/Desktop/GD32VW553/V1_MQTT_OK/GD32VW55X_Wifi_BLE_SDK/GD32VW55x_RELEASE_V1.0.2/MSDK/plf/src\init_rom_symbol.c ****         mbedtls_md5_clone_fn = (void *)0x0bf768a4;
 380              		.loc 1 131 30
 381 029e 9304478A 		addi	s1,a4,-1884
 130:C:/Users/stapi/OneDrive/Desktop/GD32VW553/V1_MQTT_OK/GD32VW55X_Wifi_BLE_SDK/GD32VW55x_RELEASE_V1.0.2/MSDK/plf/src\init_rom_symbol.c ****         mbedtls_md5_fn = (void *)0x0bf7778e;
 382              		.loc 1 130 24
 383 02a2 23202601 		sw	s2,%lo(.LANCHOR50)(a2)
 384              		.loc 1 131 9 is_stmt 1
 385              		.loc 1 131 30 is_stmt 0
 386 02a6 37060000 		lui	a2,%hi(.LANCHOR51)
 132:C:/Users/stapi/OneDrive/Desktop/GD32VW553/V1_MQTT_OK/GD32VW55X_Wifi_BLE_SDK/GD32VW55x_RELEASE_V1.0.2/MSDK/plf/src\init_rom_symbol.c ****         mbedtls_md5_finish_fn = (void *)0x0bf77758;
 387              		.loc 1 132 31
 388 02aa 13048775 		addi	s0,a4,1880
 131:C:/Users/stapi/OneDrive/Desktop/GD32VW553/V1_MQTT_OK/GD32VW55X_Wifi_BLE_SDK/GD32VW55x_RELEASE_V1.0.2/MSDK/plf/src\init_rom_symbol.c ****         mbedtls_md5_clone_fn = (void *)0x0bf768a4;
 389              		.loc 1 131 30
 390 02ae 23209600 		sw	s1,%lo(.LANCHOR51)(a2)
 391              		.loc 1 132 9 is_stmt 1
 392              		.loc 1 132 31 is_stmt 0
 393 02b2 37060000 		lui	a2,%hi(.LANCHOR52)
 133:C:/Users/stapi/OneDrive/Desktop/GD32VW553/V1_MQTT_OK/GD32VW55X_Wifi_BLE_SDK/GD32VW55x_RELEASE_V1.0.2/MSDK/plf/src\init_rom_symbol.c ****         mbedtls_md5_finish_ret_fn = (void *)0x0bf7765a;
 394              		.loc 1 133 35
 395 02b6 9303A765 		addi	t2,a4,1626
 132:C:/Users/stapi/OneDrive/Desktop/GD32VW553/V1_MQTT_OK/GD32VW55X_Wifi_BLE_SDK/GD32VW55x_RELEASE_V1.0.2/MSDK/plf/src\init_rom_symbol.c ****         mbedtls_md5_finish_fn = (void *)0x0bf77758;
 396              		.loc 1 132 31
 397 02ba 23208600 		sw	s0,%lo(.LANCHOR52)(a2)
 398              		.loc 1 133 9 is_stmt 1
 399              		.loc 1 133 35 is_stmt 0
 400 02be 37060000 		lui	a2,%hi(.LANCHOR53)
 134:C:/Users/stapi/OneDrive/Desktop/GD32VW553/V1_MQTT_OK/GD32VW55X_Wifi_BLE_SDK/GD32VW55x_RELEASE_V1.0.2/MSDK/plf/src\init_rom_symbol.c ****         mbedtls_md5_free_fn = (void *)0x0bf76898;
 401              		.loc 1 134 29
 402 02c2 93028789 		addi	t0,a4,-1896
 133:C:/Users/stapi/OneDrive/Desktop/GD32VW553/V1_MQTT_OK/GD32VW55X_Wifi_BLE_SDK/GD32VW55x_RELEASE_V1.0.2/MSDK/plf/src\init_rom_symbol.c ****         mbedtls_md5_finish_ret_fn = (void *)0x0bf7765a;
 403              		.loc 1 133 35
 404 02c6 23207600 		sw	t2,%lo(.LANCHOR53)(a2)
 405              		.loc 1 134 9 is_stmt 1
 406              		.loc 1 134 29 is_stmt 0
 407 02ca 37060000 		lui	a2,%hi(.LANCHOR54)
 135:C:/Users/stapi/OneDrive/Desktop/GD32VW553/V1_MQTT_OK/GD32VW55X_Wifi_BLE_SDK/GD32VW55x_RELEASE_V1.0.2/MSDK/plf/src\init_rom_symbol.c ****         mbedtls_md5_init_fn = (void *)0x0bf7688e;
 408              		.loc 1 135 29
 409 02ce 930FE788 		addi	t6,a4,-1906
 134:C:/Users/stapi/OneDrive/Desktop/GD32VW553/V1_MQTT_OK/GD32VW55X_Wifi_BLE_SDK/GD32VW55x_RELEASE_V1.0.2/MSDK/plf/src\init_rom_symbol.c ****         mbedtls_md5_free_fn = (void *)0x0bf76898;
 410              		.loc 1 134 29
 411 02d2 23205600 		sw	t0,%lo(.LANCHOR54)(a2)
 412              		.loc 1 135 9 is_stmt 1
 413              		.loc 1 135 29 is_stmt 0
 414 02d6 37060000 		lui	a2,%hi(.LANCHOR55)
 136:C:/Users/stapi/OneDrive/Desktop/GD32VW553/V1_MQTT_OK/GD32VW55X_Wifi_BLE_SDK/GD32VW55x_RELEASE_V1.0.2/MSDK/plf/src\init_rom_symbol.c ****         mbedtls_md5_process_fn = (void *)0x0bf77644;
 415              		.loc 1 136 32
 416 02da 130F4764 		addi	t5,a4,1604
 135:C:/Users/stapi/OneDrive/Desktop/GD32VW553/V1_MQTT_OK/GD32VW55X_Wifi_BLE_SDK/GD32VW55x_RELEASE_V1.0.2/MSDK/plf/src\init_rom_symbol.c ****         mbedtls_md5_init_fn = (void *)0x0bf7688e;
 417              		.loc 1 135 29
 418 02de 2320F601 		sw	t6,%lo(.LANCHOR55)(a2)
 419              		.loc 1 136 9 is_stmt 1
 420              		.loc 1 136 32 is_stmt 0
 421 02e2 37060000 		lui	a2,%hi(.LANCHOR56)
 137:C:/Users/stapi/OneDrive/Desktop/GD32VW553/V1_MQTT_OK/GD32VW55X_Wifi_BLE_SDK/GD32VW55x_RELEASE_V1.0.2/MSDK/plf/src\init_rom_symbol.c ****         mbedtls_md5_ret_fn = (void *)0x0bf7775c;
 422              		.loc 1 137 28
 423 02e6 930EC775 		addi	t4,a4,1884
 136:C:/Users/stapi/OneDrive/Desktop/GD32VW553/V1_MQTT_OK/GD32VW55X_Wifi_BLE_SDK/GD32VW55x_RELEASE_V1.0.2/MSDK/plf/src\init_rom_symbol.c ****         mbedtls_md5_process_fn = (void *)0x0bf77644;
 424              		.loc 1 136 32
 425 02ea 2320E601 		sw	t5,%lo(.LANCHOR56)(a2)
 426              		.loc 1 137 9 is_stmt 1
 427              		.loc 1 137 28 is_stmt 0
 428 02ee 37060000 		lui	a2,%hi(.LANCHOR57)
 138:C:/Users/stapi/OneDrive/Desktop/GD32VW553/V1_MQTT_OK/GD32VW55X_Wifi_BLE_SDK/GD32VW55x_RELEASE_V1.0.2/MSDK/plf/src\init_rom_symbol.c ****         mbedtls_md5_starts_fn = (void *)0x0bf768e0;
 429              		.loc 1 138 31
 430 02f2 130E078E 		addi	t3,a4,-1824
 137:C:/Users/stapi/OneDrive/Desktop/GD32VW553/V1_MQTT_OK/GD32VW55X_Wifi_BLE_SDK/GD32VW55x_RELEASE_V1.0.2/MSDK/plf/src\init_rom_symbol.c ****         mbedtls_md5_ret_fn = (void *)0x0bf7775c;
 431              		.loc 1 137 28
 432 02f6 2320D601 		sw	t4,%lo(.LANCHOR57)(a2)
 433              		.loc 1 138 9 is_stmt 1
 434              		.loc 1 138 31 is_stmt 0
 435 02fa 37060000 		lui	a2,%hi(.LANCHOR58)
 139:C:/Users/stapi/OneDrive/Desktop/GD32VW553/V1_MQTT_OK/GD32VW55X_Wifi_BLE_SDK/GD32VW55x_RELEASE_V1.0.2/MSDK/plf/src\init_rom_symbol.c ****         mbedtls_md5_starts_ret_fn = (void *)0x0bf768ac;
 436              		.loc 1 139 35
 437 02fe 1303C78A 		addi	t1,a4,-1876
 138:C:/Users/stapi/OneDrive/Desktop/GD32VW553/V1_MQTT_OK/GD32VW55X_Wifi_BLE_SDK/GD32VW55x_RELEASE_V1.0.2/MSDK/plf/src\init_rom_symbol.c ****         mbedtls_md5_starts_fn = (void *)0x0bf768e0;
 438              		.loc 1 138 31
 439 0302 2320C601 		sw	t3,%lo(.LANCHOR58)(a2)
 440              		.loc 1 139 9 is_stmt 1
 140:C:/Users/stapi/OneDrive/Desktop/GD32VW553/V1_MQTT_OK/GD32VW55X_Wifi_BLE_SDK/GD32VW55x_RELEASE_V1.0.2/MSDK/plf/src\init_rom_symbol.c ****         mbedtls_md5_update_fn = (void *)0x0bf77652;
 441              		.loc 1 140 31 is_stmt 0
 442 0306 B775F70B 		li	a1,200765440
 139:C:/Users/stapi/OneDrive/Desktop/GD32VW553/V1_MQTT_OK/GD32VW55X_Wifi_BLE_SDK/GD32VW55x_RELEASE_V1.0.2/MSDK/plf/src\init_rom_symbol.c ****         mbedtls_md5_starts_ret_fn = (void *)0x0bf768ac;
 443              		.loc 1 139 35
 444 030a 37060000 		lui	a2,%hi(.LANCHOR59)
 445 030e 23206600 		sw	t1,%lo(.LANCHOR59)(a2)
 446              		.loc 1 140 9 is_stmt 1
 447              		.loc 1 140 31 is_stmt 0
 448 0312 13842565 		addi	s0,a1,1618
 449 0316 37060000 		lui	a2,%hi(.LANCHOR60)
 450 031a 23208600 		sw	s0,%lo(.LANCHOR60)(a2)
 141:C:/Users/stapi/OneDrive/Desktop/GD32VW553/V1_MQTT_OK/GD32VW55X_Wifi_BLE_SDK/GD32VW55x_RELEASE_V1.0.2/MSDK/plf/src\init_rom_symbol.c ****         mbedtls_md5_update_ret_fn = (void *)0x0bf77648;
 451              		.loc 1 141 9 is_stmt 1
 452              		.loc 1 141 35 is_stmt 0
 453 031e 93858564 		addi	a1,a1,1608
 454 0322 37060000 		lui	a2,%hi(.LANCHOR61)
 455 0326 2320B600 		sw	a1,%lo(.LANCHOR61)(a2)
 142:C:/Users/stapi/OneDrive/Desktop/GD32VW553/V1_MQTT_OK/GD32VW55X_Wifi_BLE_SDK/GD32VW55x_RELEASE_V1.0.2/MSDK/plf/src\init_rom_symbol.c ****         mbedtls_mpi_div_int_fn = (void *)0x0bf6f20a;
 456              		.loc 1 142 9 is_stmt 1
 457              		.loc 1 142 32 is_stmt 0
 458 032a B7F5F60B 		li	a1,200732672
 459 032e 1384A520 		addi	s0,a1,522
 460 0332 37060000 		lui	a2,%hi(.LANCHOR62)
 461 0336 23208600 		sw	s0,%lo(.LANCHOR62)(a2)
 143:C:/Users/stapi/OneDrive/Desktop/GD32VW553/V1_MQTT_OK/GD32VW55X_Wifi_BLE_SDK/GD32VW55x_RELEASE_V1.0.2/MSDK/plf/src\init_rom_symbol.c ****         mbedtls_mpi_div_mpi_fn = (void *)0x0bf6ed1e;
 462              		.loc 1 143 9 is_stmt 1
 463              		.loc 1 143 32 is_stmt 0
 464 033a 1384E5D1 		addi	s0,a1,-738
 465 033e 37060000 		lui	a2,%hi(.LANCHOR63)
 466 0342 23208600 		sw	s0,%lo(.LANCHOR63)(a2)
 144:C:/Users/stapi/OneDrive/Desktop/GD32VW553/V1_MQTT_OK/GD32VW55X_Wifi_BLE_SDK/GD32VW55x_RELEASE_V1.0.2/MSDK/plf/src\init_rom_symbol.c ****         mbedtls_mpi_exp_mod_fn = (void *)0x0bf6fb5c;
 467              		.loc 1 144 9 is_stmt 1
 468              		.loc 1 144 32 is_stmt 0
 469 0346 3704F70B 		li	s0,200736768
 470 034a 9304C4B5 		addi	s1,s0,-1188
 471 034e 37060000 		lui	a2,%hi(.LANCHOR64)
 472 0352 23209600 		sw	s1,%lo(.LANCHOR64)(a2)
 145:C:/Users/stapi/OneDrive/Desktop/GD32VW553/V1_MQTT_OK/GD32VW55X_Wifi_BLE_SDK/GD32VW55x_RELEASE_V1.0.2/MSDK/plf/src\init_rom_symbol.c ****         mbedtls_mpi_exp_mod_sw_fn = (void *)0x0bf6f54c;
 473              		.loc 1 145 9 is_stmt 1
 146:C:/Users/stapi/OneDrive/Desktop/GD32VW553/V1_MQTT_OK/GD32VW55X_Wifi_BLE_SDK/GD32VW55x_RELEASE_V1.0.2/MSDK/plf/src\init_rom_symbol.c ****         mbedtls_mpi_fill_random_fn = (void *)0x0bf6fee4;
 147:C:/Users/stapi/OneDrive/Desktop/GD32VW553/V1_MQTT_OK/GD32VW55X_Wifi_BLE_SDK/GD32VW55x_RELEASE_V1.0.2/MSDK/plf/src\init_rom_symbol.c ****         mbedtls_mpi_gcd_fn = (void *)0x0bf6fcec;
 148:C:/Users/stapi/OneDrive/Desktop/GD32VW553/V1_MQTT_OK/GD32VW55X_Wifi_BLE_SDK/GD32VW55x_RELEASE_V1.0.2/MSDK/plf/src\init_rom_symbol.c ****         mbedtls_mpi_gen_prime_fn = (void *)0x0bf705e2;
 149:C:/Users/stapi/OneDrive/Desktop/GD32VW553/V1_MQTT_OK/GD32VW55X_Wifi_BLE_SDK/GD32VW55x_RELEASE_V1.0.2/MSDK/plf/src\init_rom_symbol.c ****         mbedtls_mpi_inv_mod_fn = (void *)0x0bf70212;
 150:C:/Users/stapi/OneDrive/Desktop/GD32VW553/V1_MQTT_OK/GD32VW55X_Wifi_BLE_SDK/GD32VW55x_RELEASE_V1.0.2/MSDK/plf/src\init_rom_symbol.c ****         mbedtls_mpi_is_prime_fn = (void *)0x0bf705d6;
 151:C:/Users/stapi/OneDrive/Desktop/GD32VW553/V1_MQTT_OK/GD32VW55X_Wifi_BLE_SDK/GD32VW55x_RELEASE_V1.0.2/MSDK/plf/src\init_rom_symbol.c ****         mbedtls_mpi_is_prime_ext_fn = (void *)0x0bf70534;
 152:C:/Users/stapi/OneDrive/Desktop/GD32VW553/V1_MQTT_OK/GD32VW55X_Wifi_BLE_SDK/GD32VW55x_RELEASE_V1.0.2/MSDK/plf/src\init_rom_symbol.c ****         mbedtls_mpi_mod_int_fn = (void *)0x0bf6f2d0;
 153:C:/Users/stapi/OneDrive/Desktop/GD32VW553/V1_MQTT_OK/GD32VW55X_Wifi_BLE_SDK/GD32VW55x_RELEASE_V1.0.2/MSDK/plf/src\init_rom_symbol.c ****         mbedtls_mpi_mod_mpi_fn = (void *)0x0bf6f234;
 154:C:/Users/stapi/OneDrive/Desktop/GD32VW553/V1_MQTT_OK/GD32VW55X_Wifi_BLE_SDK/GD32VW55x_RELEASE_V1.0.2/MSDK/plf/src\init_rom_symbol.c ****         mbedtls_mpi_mul_int_fn = (void *)0x0bf6ed04;
 155:C:/Users/stapi/OneDrive/Desktop/GD32VW553/V1_MQTT_OK/GD32VW55X_Wifi_BLE_SDK/GD32VW55x_RELEASE_V1.0.2/MSDK/plf/src\init_rom_symbol.c ****         mbedtls_mpi_mul_mpi_fn = (void *)0x0bf6ead6;
 156:C:/Users/stapi/OneDrive/Desktop/GD32VW553/V1_MQTT_OK/GD32VW55X_Wifi_BLE_SDK/GD32VW55x_RELEASE_V1.0.2/MSDK/plf/src\init_rom_symbol.c ****         mbedtls_mpi_read_string_fn = (void *)0x0bf6eaec;
 157:C:/Users/stapi/OneDrive/Desktop/GD32VW553/V1_MQTT_OK/GD32VW55X_Wifi_BLE_SDK/GD32VW55x_RELEASE_V1.0.2/MSDK/plf/src\init_rom_symbol.c ****         mbedtls_mpi_write_string_fn = (void *)0x0bf6f304;
 158:C:/Users/stapi/OneDrive/Desktop/GD32VW553/V1_MQTT_OK/GD32VW55X_Wifi_BLE_SDK/GD32VW55x_RELEASE_V1.0.2/MSDK/plf/src\init_rom_symbol.c ****         mbedtls_rsa_check_privkey_fn = (void *)0x0bf74972;
 159:C:/Users/stapi/OneDrive/Desktop/GD32VW553/V1_MQTT_OK/GD32VW55X_Wifi_BLE_SDK/GD32VW55x_RELEASE_V1.0.2/MSDK/plf/src\init_rom_symbol.c ****         mbedtls_rsa_check_pub_priv_fn = (void *)0x0bf74c08;
 160:C:/Users/stapi/OneDrive/Desktop/GD32VW553/V1_MQTT_OK/GD32VW55X_Wifi_BLE_SDK/GD32VW55x_RELEASE_V1.0.2/MSDK/plf/src\init_rom_symbol.c ****         mbedtls_rsa_check_pubkey_fn = (void *)0x0bf74910;
 161:C:/Users/stapi/OneDrive/Desktop/GD32VW553/V1_MQTT_OK/GD32VW55X_Wifi_BLE_SDK/GD32VW55x_RELEASE_V1.0.2/MSDK/plf/src\init_rom_symbol.c ****         mbedtls_rsa_complete_fn = (void *)0x0bf74490;
 474              		.loc 1 161 33 is_stmt 0
 475 0356 930F0549 		addi	t6,a0,1168
 162:C:/Users/stapi/OneDrive/Desktop/GD32VW553/V1_MQTT_OK/GD32VW55X_Wifi_BLE_SDK/GD32VW55x_RELEASE_V1.0.2/MSDK/plf/src\init_rom_symbol.c ****         mbedtls_rsa_copy_fn = (void *)0x0bf76132;
 163:C:/Users/stapi/OneDrive/Desktop/GD32VW553/V1_MQTT_OK/GD32VW55X_Wifi_BLE_SDK/GD32VW55x_RELEASE_V1.0.2/MSDK/plf/src\init_rom_symbol.c ****         mbedtls_rsa_export_fn = (void *)0x0bf74728;
 476              		.loc 1 163 31
 477 035a 930E8572 		addi	t4,a0,1832
 164:C:/Users/stapi/OneDrive/Desktop/GD32VW553/V1_MQTT_OK/GD32VW55X_Wifi_BLE_SDK/GD32VW55x_RELEASE_V1.0.2/MSDK/plf/src\init_rom_symbol.c ****         mbedtls_rsa_export_crt_fn = (void *)0x0bf7482a;
 165:C:/Users/stapi/OneDrive/Desktop/GD32VW553/V1_MQTT_OK/GD32VW55X_Wifi_BLE_SDK/GD32VW55x_RELEASE_V1.0.2/MSDK/plf/src\init_rom_symbol.c ****         mbedtls_rsa_export_raw_fn = (void *)0x0bf745f0;
 478              		.loc 1 165 35
 479 035e 1303055F 		addi	t1,a0,1520
 166:C:/Users/stapi/OneDrive/Desktop/GD32VW553/V1_MQTT_OK/GD32VW55X_Wifi_BLE_SDK/GD32VW55x_RELEASE_V1.0.2/MSDK/plf/src\init_rom_symbol.c ****         mbedtls_rsa_free_fn = (void *)0x0bf7623c;
 167:C:/Users/stapi/OneDrive/Desktop/GD32VW553/V1_MQTT_OK/GD32VW55X_Wifi_BLE_SDK/GD32VW55x_RELEASE_V1.0.2/MSDK/plf/src\init_rom_symbol.c ****         mbedtls_rsa_gen_key_fn = (void *)0x0bf749e2;
 168:C:/Users/stapi/OneDrive/Desktop/GD32VW553/V1_MQTT_OK/GD32VW55X_Wifi_BLE_SDK/GD32VW55x_RELEASE_V1.0.2/MSDK/plf/src\init_rom_symbol.c ****         mbedtls_rsa_get_len_fn = (void *)0x0bf7490c;
 169:C:/Users/stapi/OneDrive/Desktop/GD32VW553/V1_MQTT_OK/GD32VW55X_Wifi_BLE_SDK/GD32VW55x_RELEASE_V1.0.2/MSDK/plf/src\init_rom_symbol.c ****         mbedtls_rsa_import_fn = (void *)0x0bf74364;
 480              		.loc 1 169 31
 481 0362 130D4536 		addi	s10,a0,868
 170:C:/Users/stapi/OneDrive/Desktop/GD32VW553/V1_MQTT_OK/GD32VW55X_Wifi_BLE_SDK/GD32VW55x_RELEASE_V1.0.2/MSDK/plf/src\init_rom_symbol.c ****         mbedtls_rsa_import_raw_fn = (void *)0x0bf743f6;
 482              		.loc 1 170 35
 483 0366 1305653F 		addi	a0,a0,1014
 484 036a 2AC6     		sw	a0,12(sp)
 145:C:/Users/stapi/OneDrive/Desktop/GD32VW553/V1_MQTT_OK/GD32VW55X_Wifi_BLE_SDK/GD32VW55x_RELEASE_V1.0.2/MSDK/plf/src\init_rom_symbol.c ****         mbedtls_mpi_fill_random_fn = (void *)0x0bf6fee4;
 485              		.loc 1 145 35
 486 036c 9385C554 		addi	a1,a1,1356
 487 0370 37050000 		lui	a0,%hi(.LANCHOR65)
 488 0374 2320B500 		sw	a1,%lo(.LANCHOR65)(a0)
 146:C:/Users/stapi/OneDrive/Desktop/GD32VW553/V1_MQTT_OK/GD32VW55X_Wifi_BLE_SDK/GD32VW55x_RELEASE_V1.0.2/MSDK/plf/src\init_rom_symbol.c ****         mbedtls_mpi_gcd_fn = (void *)0x0bf6fcec;
 489              		.loc 1 146 9 is_stmt 1
 146:C:/Users/stapi/OneDrive/Desktop/GD32VW553/V1_MQTT_OK/GD32VW55X_Wifi_BLE_SDK/GD32VW55x_RELEASE_V1.0.2/MSDK/plf/src\init_rom_symbol.c ****         mbedtls_mpi_gcd_fn = (void *)0x0bf6fcec;
 490              		.loc 1 146 36 is_stmt 0
 491 0378 B705F70B 		li	a1,200736768
 144:C:/Users/stapi/OneDrive/Desktop/GD32VW553/V1_MQTT_OK/GD32VW55X_Wifi_BLE_SDK/GD32VW55x_RELEASE_V1.0.2/MSDK/plf/src\init_rom_symbol.c ****         mbedtls_mpi_exp_mod_sw_fn = (void *)0x0bf6f54c;
 492              		.loc 1 144 32
 493 037c B708F70B 		li	a7,200736768
 146:C:/Users/stapi/OneDrive/Desktop/GD32VW553/V1_MQTT_OK/GD32VW55X_Wifi_BLE_SDK/GD32VW55x_RELEASE_V1.0.2/MSDK/plf/src\init_rom_symbol.c ****         mbedtls_mpi_gcd_fn = (void *)0x0bf6fcec;
 494              		.loc 1 146 36
 495 0380 37050000 		lui	a0,%hi(.LANCHOR66)
 496 0384 938545EE 		addi	a1,a1,-284
 147:C:/Users/stapi/OneDrive/Desktop/GD32VW553/V1_MQTT_OK/GD32VW55X_Wifi_BLE_SDK/GD32VW55x_RELEASE_V1.0.2/MSDK/plf/src\init_rom_symbol.c ****         mbedtls_mpi_gen_prime_fn = (void *)0x0bf705e2;
 497              		.loc 1 147 28
 498 0388 138CC8CE 		addi	s8,a7,-788
 146:C:/Users/stapi/OneDrive/Desktop/GD32VW553/V1_MQTT_OK/GD32VW55X_Wifi_BLE_SDK/GD32VW55x_RELEASE_V1.0.2/MSDK/plf/src\init_rom_symbol.c ****         mbedtls_mpi_gcd_fn = (void *)0x0bf6fcec;
 499              		.loc 1 146 36
 500 038c 2320B500 		sw	a1,%lo(.LANCHOR66)(a0)
 147:C:/Users/stapi/OneDrive/Desktop/GD32VW553/V1_MQTT_OK/GD32VW55X_Wifi_BLE_SDK/GD32VW55x_RELEASE_V1.0.2/MSDK/plf/src\init_rom_symbol.c ****         mbedtls_mpi_gen_prime_fn = (void *)0x0bf705e2;
 501              		.loc 1 147 9 is_stmt 1
 147:C:/Users/stapi/OneDrive/Desktop/GD32VW553/V1_MQTT_OK/GD32VW55X_Wifi_BLE_SDK/GD32VW55x_RELEASE_V1.0.2/MSDK/plf/src\init_rom_symbol.c ****         mbedtls_mpi_gen_prime_fn = (void *)0x0bf705e2;
 502              		.loc 1 147 28 is_stmt 0
 503 0390 37050000 		lui	a0,%hi(.LANCHOR67)
 148:C:/Users/stapi/OneDrive/Desktop/GD32VW553/V1_MQTT_OK/GD32VW55X_Wifi_BLE_SDK/GD32VW55x_RELEASE_V1.0.2/MSDK/plf/src\init_rom_symbol.c ****         mbedtls_mpi_inv_mod_fn = (void *)0x0bf70212;
 504              		.loc 1 148 34
 505 0394 938B285E 		addi	s7,a7,1506
 147:C:/Users/stapi/OneDrive/Desktop/GD32VW553/V1_MQTT_OK/GD32VW55X_Wifi_BLE_SDK/GD32VW55x_RELEASE_V1.0.2/MSDK/plf/src\init_rom_symbol.c ****         mbedtls_mpi_gen_prime_fn = (void *)0x0bf705e2;
 506              		.loc 1 147 28
 507 0398 23208501 		sw	s8,%lo(.LANCHOR67)(a0)
 148:C:/Users/stapi/OneDrive/Desktop/GD32VW553/V1_MQTT_OK/GD32VW55X_Wifi_BLE_SDK/GD32VW55x_RELEASE_V1.0.2/MSDK/plf/src\init_rom_symbol.c ****         mbedtls_mpi_inv_mod_fn = (void *)0x0bf70212;
 508              		.loc 1 148 9 is_stmt 1
 148:C:/Users/stapi/OneDrive/Desktop/GD32VW553/V1_MQTT_OK/GD32VW55X_Wifi_BLE_SDK/GD32VW55x_RELEASE_V1.0.2/MSDK/plf/src\init_rom_symbol.c ****         mbedtls_mpi_inv_mod_fn = (void *)0x0bf70212;
 509              		.loc 1 148 34 is_stmt 0
 510 039c 37050000 		lui	a0,%hi(.LANCHOR68)
 149:C:/Users/stapi/OneDrive/Desktop/GD32VW553/V1_MQTT_OK/GD32VW55X_Wifi_BLE_SDK/GD32VW55x_RELEASE_V1.0.2/MSDK/plf/src\init_rom_symbol.c ****         mbedtls_mpi_is_prime_fn = (void *)0x0bf705d6;
 511              		.loc 1 149 32
 512 03a0 138B2821 		addi	s6,a7,530
 148:C:/Users/stapi/OneDrive/Desktop/GD32VW553/V1_MQTT_OK/GD32VW55X_Wifi_BLE_SDK/GD32VW55x_RELEASE_V1.0.2/MSDK/plf/src\init_rom_symbol.c ****         mbedtls_mpi_inv_mod_fn = (void *)0x0bf70212;
 513              		.loc 1 148 34
 514 03a4 23207501 		sw	s7,%lo(.LANCHOR68)(a0)
 149:C:/Users/stapi/OneDrive/Desktop/GD32VW553/V1_MQTT_OK/GD32VW55X_Wifi_BLE_SDK/GD32VW55x_RELEASE_V1.0.2/MSDK/plf/src\init_rom_symbol.c ****         mbedtls_mpi_is_prime_fn = (void *)0x0bf705d6;
 515              		.loc 1 149 9 is_stmt 1
 149:C:/Users/stapi/OneDrive/Desktop/GD32VW553/V1_MQTT_OK/GD32VW55X_Wifi_BLE_SDK/GD32VW55x_RELEASE_V1.0.2/MSDK/plf/src\init_rom_symbol.c ****         mbedtls_mpi_is_prime_fn = (void *)0x0bf705d6;
 516              		.loc 1 149 32 is_stmt 0
 517 03a8 37050000 		lui	a0,%hi(.LANCHOR69)
 150:C:/Users/stapi/OneDrive/Desktop/GD32VW553/V1_MQTT_OK/GD32VW55X_Wifi_BLE_SDK/GD32VW55x_RELEASE_V1.0.2/MSDK/plf/src\init_rom_symbol.c ****         mbedtls_mpi_is_prime_ext_fn = (void *)0x0bf70534;
 518              		.loc 1 150 33
 519 03ac 938A685D 		addi	s5,a7,1494
 149:C:/Users/stapi/OneDrive/Desktop/GD32VW553/V1_MQTT_OK/GD32VW55X_Wifi_BLE_SDK/GD32VW55x_RELEASE_V1.0.2/MSDK/plf/src\init_rom_symbol.c ****         mbedtls_mpi_is_prime_fn = (void *)0x0bf705d6;
 520              		.loc 1 149 32
 521 03b0 23206501 		sw	s6,%lo(.LANCHOR69)(a0)
 150:C:/Users/stapi/OneDrive/Desktop/GD32VW553/V1_MQTT_OK/GD32VW55X_Wifi_BLE_SDK/GD32VW55x_RELEASE_V1.0.2/MSDK/plf/src\init_rom_symbol.c ****         mbedtls_mpi_is_prime_ext_fn = (void *)0x0bf70534;
 522              		.loc 1 150 9 is_stmt 1
 150:C:/Users/stapi/OneDrive/Desktop/GD32VW553/V1_MQTT_OK/GD32VW55X_Wifi_BLE_SDK/GD32VW55x_RELEASE_V1.0.2/MSDK/plf/src\init_rom_symbol.c ****         mbedtls_mpi_is_prime_ext_fn = (void *)0x0bf70534;
 523              		.loc 1 150 33 is_stmt 0
 524 03b4 37050000 		lui	a0,%hi(.LANCHOR70)
 142:C:/Users/stapi/OneDrive/Desktop/GD32VW553/V1_MQTT_OK/GD32VW55X_Wifi_BLE_SDK/GD32VW55x_RELEASE_V1.0.2/MSDK/plf/src\init_rom_symbol.c ****         mbedtls_mpi_div_mpi_fn = (void *)0x0bf6ed1e;
 525              		.loc 1 142 32
 526 03b8 37F8F60B 		li	a6,200732672
 150:C:/Users/stapi/OneDrive/Desktop/GD32VW553/V1_MQTT_OK/GD32VW55X_Wifi_BLE_SDK/GD32VW55x_RELEASE_V1.0.2/MSDK/plf/src\init_rom_symbol.c ****         mbedtls_mpi_is_prime_ext_fn = (void *)0x0bf70534;
 527              		.loc 1 150 33
 528 03bc 23205501 		sw	s5,%lo(.LANCHOR70)(a0)
 151:C:/Users/stapi/OneDrive/Desktop/GD32VW553/V1_MQTT_OK/GD32VW55X_Wifi_BLE_SDK/GD32VW55x_RELEASE_V1.0.2/MSDK/plf/src\init_rom_symbol.c ****         mbedtls_mpi_mod_int_fn = (void *)0x0bf6f2d0;
 529              		.loc 1 151 9 is_stmt 1
 151:C:/Users/stapi/OneDrive/Desktop/GD32VW553/V1_MQTT_OK/GD32VW55X_Wifi_BLE_SDK/GD32VW55x_RELEASE_V1.0.2/MSDK/plf/src\init_rom_symbol.c ****         mbedtls_mpi_mod_int_fn = (void *)0x0bf6f2d0;
 530              		.loc 1 151 37 is_stmt 0
 531 03c0 93884853 		addi	a7,a7,1332
 532 03c4 37050000 		lui	a0,%hi(.LANCHOR71)
 152:C:/Users/stapi/OneDrive/Desktop/GD32VW553/V1_MQTT_OK/GD32VW55X_Wifi_BLE_SDK/GD32VW55x_RELEASE_V1.0.2/MSDK/plf/src\init_rom_symbol.c ****         mbedtls_mpi_mod_mpi_fn = (void *)0x0bf6f234;
 533              		.loc 1 152 32
 534 03c8 130A082D 		addi	s4,a6,720
 151:C:/Users/stapi/OneDrive/Desktop/GD32VW553/V1_MQTT_OK/GD32VW55X_Wifi_BLE_SDK/GD32VW55x_RELEASE_V1.0.2/MSDK/plf/src\init_rom_symbol.c ****         mbedtls_mpi_mod_int_fn = (void *)0x0bf6f2d0;
 535              		.loc 1 151 37
 536 03cc 23201501 		sw	a7,%lo(.LANCHOR71)(a0)
 152:C:/Users/stapi/OneDrive/Desktop/GD32VW553/V1_MQTT_OK/GD32VW55X_Wifi_BLE_SDK/GD32VW55x_RELEASE_V1.0.2/MSDK/plf/src\init_rom_symbol.c ****         mbedtls_mpi_mod_mpi_fn = (void *)0x0bf6f234;
 537              		.loc 1 152 9 is_stmt 1
 152:C:/Users/stapi/OneDrive/Desktop/GD32VW553/V1_MQTT_OK/GD32VW55X_Wifi_BLE_SDK/GD32VW55x_RELEASE_V1.0.2/MSDK/plf/src\init_rom_symbol.c ****         mbedtls_mpi_mod_mpi_fn = (void *)0x0bf6f234;
 538              		.loc 1 152 32 is_stmt 0
 539 03d0 37050000 		lui	a0,%hi(.LANCHOR72)
 153:C:/Users/stapi/OneDrive/Desktop/GD32VW553/V1_MQTT_OK/GD32VW55X_Wifi_BLE_SDK/GD32VW55x_RELEASE_V1.0.2/MSDK/plf/src\init_rom_symbol.c ****         mbedtls_mpi_mul_int_fn = (void *)0x0bf6ed04;
 540              		.loc 1 153 32
 541 03d4 93094823 		addi	s3,a6,564
 152:C:/Users/stapi/OneDrive/Desktop/GD32VW553/V1_MQTT_OK/GD32VW55X_Wifi_BLE_SDK/GD32VW55x_RELEASE_V1.0.2/MSDK/plf/src\init_rom_symbol.c ****         mbedtls_mpi_mod_mpi_fn = (void *)0x0bf6f234;
 542              		.loc 1 152 32
 543 03d8 23204501 		sw	s4,%lo(.LANCHOR72)(a0)
 153:C:/Users/stapi/OneDrive/Desktop/GD32VW553/V1_MQTT_OK/GD32VW55X_Wifi_BLE_SDK/GD32VW55x_RELEASE_V1.0.2/MSDK/plf/src\init_rom_symbol.c ****         mbedtls_mpi_mul_int_fn = (void *)0x0bf6ed04;
 544              		.loc 1 153 9 is_stmt 1
 153:C:/Users/stapi/OneDrive/Desktop/GD32VW553/V1_MQTT_OK/GD32VW55X_Wifi_BLE_SDK/GD32VW55x_RELEASE_V1.0.2/MSDK/plf/src\init_rom_symbol.c ****         mbedtls_mpi_mul_int_fn = (void *)0x0bf6ed04;
 545              		.loc 1 153 32 is_stmt 0
 546 03dc 37050000 		lui	a0,%hi(.LANCHOR73)
 154:C:/Users/stapi/OneDrive/Desktop/GD32VW553/V1_MQTT_OK/GD32VW55X_Wifi_BLE_SDK/GD32VW55x_RELEASE_V1.0.2/MSDK/plf/src\init_rom_symbol.c ****         mbedtls_mpi_mul_mpi_fn = (void *)0x0bf6ead6;
 547              		.loc 1 154 32
 548 03e0 130948D0 		addi	s2,a6,-764
 153:C:/Users/stapi/OneDrive/Desktop/GD32VW553/V1_MQTT_OK/GD32VW55X_Wifi_BLE_SDK/GD32VW55x_RELEASE_V1.0.2/MSDK/plf/src\init_rom_symbol.c ****         mbedtls_mpi_mul_int_fn = (void *)0x0bf6ed04;
 549              		.loc 1 153 32
 550 03e4 23203501 		sw	s3,%lo(.LANCHOR73)(a0)
 154:C:/Users/stapi/OneDrive/Desktop/GD32VW553/V1_MQTT_OK/GD32VW55X_Wifi_BLE_SDK/GD32VW55x_RELEASE_V1.0.2/MSDK/plf/src\init_rom_symbol.c ****         mbedtls_mpi_mul_mpi_fn = (void *)0x0bf6ead6;
 551              		.loc 1 154 9 is_stmt 1
 154:C:/Users/stapi/OneDrive/Desktop/GD32VW553/V1_MQTT_OK/GD32VW55X_Wifi_BLE_SDK/GD32VW55x_RELEASE_V1.0.2/MSDK/plf/src\init_rom_symbol.c ****         mbedtls_mpi_mul_mpi_fn = (void *)0x0bf6ead6;
 552              		.loc 1 154 32 is_stmt 0
 553 03e8 37050000 		lui	a0,%hi(.LANCHOR74)
 155:C:/Users/stapi/OneDrive/Desktop/GD32VW553/V1_MQTT_OK/GD32VW55X_Wifi_BLE_SDK/GD32VW55x_RELEASE_V1.0.2/MSDK/plf/src\init_rom_symbol.c ****         mbedtls_mpi_read_string_fn = (void *)0x0bf6eaec;
 554              		.loc 1 155 32
 555 03ec 930468AD 		addi	s1,a6,-1322
 154:C:/Users/stapi/OneDrive/Desktop/GD32VW553/V1_MQTT_OK/GD32VW55X_Wifi_BLE_SDK/GD32VW55x_RELEASE_V1.0.2/MSDK/plf/src\init_rom_symbol.c ****         mbedtls_mpi_mul_mpi_fn = (void *)0x0bf6ead6;
 556              		.loc 1 154 32
 557 03f0 23202501 		sw	s2,%lo(.LANCHOR74)(a0)
 155:C:/Users/stapi/OneDrive/Desktop/GD32VW553/V1_MQTT_OK/GD32VW55X_Wifi_BLE_SDK/GD32VW55x_RELEASE_V1.0.2/MSDK/plf/src\init_rom_symbol.c ****         mbedtls_mpi_read_string_fn = (void *)0x0bf6eaec;
 558              		.loc 1 155 9 is_stmt 1
 155:C:/Users/stapi/OneDrive/Desktop/GD32VW553/V1_MQTT_OK/GD32VW55X_Wifi_BLE_SDK/GD32VW55x_RELEASE_V1.0.2/MSDK/plf/src\init_rom_symbol.c ****         mbedtls_mpi_read_string_fn = (void *)0x0bf6eaec;
 559              		.loc 1 155 32 is_stmt 0
 560 03f4 37050000 		lui	a0,%hi(.LANCHOR75)
 157:C:/Users/stapi/OneDrive/Desktop/GD32VW553/V1_MQTT_OK/GD32VW55X_Wifi_BLE_SDK/GD32VW55x_RELEASE_V1.0.2/MSDK/plf/src\init_rom_symbol.c ****         mbedtls_rsa_check_privkey_fn = (void *)0x0bf74972;
 561              		.loc 1 157 37
 562 03f8 930D4830 		addi	s11,a6,772
 155:C:/Users/stapi/OneDrive/Desktop/GD32VW553/V1_MQTT_OK/GD32VW55X_Wifi_BLE_SDK/GD32VW55x_RELEASE_V1.0.2/MSDK/plf/src\init_rom_symbol.c ****         mbedtls_mpi_read_string_fn = (void *)0x0bf6eaec;
 563              		.loc 1 155 32
 564 03fc 23209500 		sw	s1,%lo(.LANCHOR75)(a0)
 156:C:/Users/stapi/OneDrive/Desktop/GD32VW553/V1_MQTT_OK/GD32VW55X_Wifi_BLE_SDK/GD32VW55x_RELEASE_V1.0.2/MSDK/plf/src\init_rom_symbol.c ****         mbedtls_mpi_write_string_fn = (void *)0x0bf6f304;
 565              		.loc 1 156 9 is_stmt 1
 156:C:/Users/stapi/OneDrive/Desktop/GD32VW553/V1_MQTT_OK/GD32VW55X_Wifi_BLE_SDK/GD32VW55x_RELEASE_V1.0.2/MSDK/plf/src\init_rom_symbol.c ****         mbedtls_mpi_write_string_fn = (void *)0x0bf6f304;
 566              		.loc 1 156 36 is_stmt 0
 567 0400 1308C8AE 		addi	a6,a6,-1300
 568 0404 37050000 		lui	a0,%hi(.LANCHOR76)
 158:C:/Users/stapi/OneDrive/Desktop/GD32VW553/V1_MQTT_OK/GD32VW55X_Wifi_BLE_SDK/GD32VW55x_RELEASE_V1.0.2/MSDK/plf/src\init_rom_symbol.c ****         mbedtls_rsa_check_pub_priv_fn = (void *)0x0bf74c08;
 569              		.loc 1 158 38
 570 0408 B756F70B 		li	a3,200757248
 156:C:/Users/stapi/OneDrive/Desktop/GD32VW553/V1_MQTT_OK/GD32VW55X_Wifi_BLE_SDK/GD32VW55x_RELEASE_V1.0.2/MSDK/plf/src\init_rom_symbol.c ****         mbedtls_mpi_write_string_fn = (void *)0x0bf6f304;
 571              		.loc 1 156 36
 572 040c 23200501 		sw	a6,%lo(.LANCHOR76)(a0)
 157:C:/Users/stapi/OneDrive/Desktop/GD32VW553/V1_MQTT_OK/GD32VW55X_Wifi_BLE_SDK/GD32VW55x_RELEASE_V1.0.2/MSDK/plf/src\init_rom_symbol.c ****         mbedtls_rsa_check_privkey_fn = (void *)0x0bf74972;
 573              		.loc 1 157 9 is_stmt 1
 157:C:/Users/stapi/OneDrive/Desktop/GD32VW553/V1_MQTT_OK/GD32VW55X_Wifi_BLE_SDK/GD32VW55x_RELEASE_V1.0.2/MSDK/plf/src\init_rom_symbol.c ****         mbedtls_rsa_check_privkey_fn = (void *)0x0bf74972;
 574              		.loc 1 157 37 is_stmt 0
 575 0410 37050000 		lui	a0,%hi(.LANCHOR77)
 158:C:/Users/stapi/OneDrive/Desktop/GD32VW553/V1_MQTT_OK/GD32VW55X_Wifi_BLE_SDK/GD32VW55x_RELEASE_V1.0.2/MSDK/plf/src\init_rom_symbol.c ****         mbedtls_rsa_check_pub_priv_fn = (void *)0x0bf74c08;
 576              		.loc 1 158 38
 577 0414 13842697 		addi	s0,a3,-1678
 157:C:/Users/stapi/OneDrive/Desktop/GD32VW553/V1_MQTT_OK/GD32VW55X_Wifi_BLE_SDK/GD32VW55x_RELEASE_V1.0.2/MSDK/plf/src\init_rom_symbol.c ****         mbedtls_rsa_check_privkey_fn = (void *)0x0bf74972;
 578              		.loc 1 157 37
 579 0418 2320B501 		sw	s11,%lo(.LANCHOR77)(a0)
 158:C:/Users/stapi/OneDrive/Desktop/GD32VW553/V1_MQTT_OK/GD32VW55X_Wifi_BLE_SDK/GD32VW55x_RELEASE_V1.0.2/MSDK/plf/src\init_rom_symbol.c ****         mbedtls_rsa_check_pub_priv_fn = (void *)0x0bf74c08;
 580              		.loc 1 158 9 is_stmt 1
 158:C:/Users/stapi/OneDrive/Desktop/GD32VW553/V1_MQTT_OK/GD32VW55X_Wifi_BLE_SDK/GD32VW55x_RELEASE_V1.0.2/MSDK/plf/src\init_rom_symbol.c ****         mbedtls_rsa_check_pub_priv_fn = (void *)0x0bf74c08;
 581              		.loc 1 158 38 is_stmt 0
 582 041c 37050000 		lui	a0,%hi(.LANCHOR78)
 159:C:/Users/stapi/OneDrive/Desktop/GD32VW553/V1_MQTT_OK/GD32VW55X_Wifi_BLE_SDK/GD32VW55x_RELEASE_V1.0.2/MSDK/plf/src\init_rom_symbol.c ****         mbedtls_rsa_check_pubkey_fn = (void *)0x0bf74910;
 583              		.loc 1 159 39
 584 0420 938386C0 		addi	t2,a3,-1016
 158:C:/Users/stapi/OneDrive/Desktop/GD32VW553/V1_MQTT_OK/GD32VW55X_Wifi_BLE_SDK/GD32VW55x_RELEASE_V1.0.2/MSDK/plf/src\init_rom_symbol.c ****         mbedtls_rsa_check_pub_priv_fn = (void *)0x0bf74c08;
 585              		.loc 1 158 38
 586 0424 23208500 		sw	s0,%lo(.LANCHOR78)(a0)
 159:C:/Users/stapi/OneDrive/Desktop/GD32VW553/V1_MQTT_OK/GD32VW55X_Wifi_BLE_SDK/GD32VW55x_RELEASE_V1.0.2/MSDK/plf/src\init_rom_symbol.c ****         mbedtls_rsa_check_pubkey_fn = (void *)0x0bf74910;
 587              		.loc 1 159 9 is_stmt 1
 159:C:/Users/stapi/OneDrive/Desktop/GD32VW553/V1_MQTT_OK/GD32VW55X_Wifi_BLE_SDK/GD32VW55x_RELEASE_V1.0.2/MSDK/plf/src\init_rom_symbol.c ****         mbedtls_rsa_check_pubkey_fn = (void *)0x0bf74910;
 588              		.loc 1 159 39 is_stmt 0
 589 0428 37050000 		lui	a0,%hi(.LANCHOR79)
 160:C:/Users/stapi/OneDrive/Desktop/GD32VW553/V1_MQTT_OK/GD32VW55X_Wifi_BLE_SDK/GD32VW55x_RELEASE_V1.0.2/MSDK/plf/src\init_rom_symbol.c ****         mbedtls_rsa_complete_fn = (void *)0x0bf74490;
 590              		.loc 1 160 37
 591 042c 93820691 		addi	t0,a3,-1776
 159:C:/Users/stapi/OneDrive/Desktop/GD32VW553/V1_MQTT_OK/GD32VW55X_Wifi_BLE_SDK/GD32VW55x_RELEASE_V1.0.2/MSDK/plf/src\init_rom_symbol.c ****         mbedtls_rsa_check_pubkey_fn = (void *)0x0bf74910;
 592              		.loc 1 159 39
 593 0430 23207500 		sw	t2,%lo(.LANCHOR79)(a0)
 160:C:/Users/stapi/OneDrive/Desktop/GD32VW553/V1_MQTT_OK/GD32VW55X_Wifi_BLE_SDK/GD32VW55x_RELEASE_V1.0.2/MSDK/plf/src\init_rom_symbol.c ****         mbedtls_rsa_complete_fn = (void *)0x0bf74490;
 594              		.loc 1 160 9 is_stmt 1
 160:C:/Users/stapi/OneDrive/Desktop/GD32VW553/V1_MQTT_OK/GD32VW55X_Wifi_BLE_SDK/GD32VW55x_RELEASE_V1.0.2/MSDK/plf/src\init_rom_symbol.c ****         mbedtls_rsa_complete_fn = (void *)0x0bf74490;
 595              		.loc 1 160 37 is_stmt 0
 596 0434 37050000 		lui	a0,%hi(.LANCHOR80)
 597 0438 23205500 		sw	t0,%lo(.LANCHOR80)(a0)
 161:C:/Users/stapi/OneDrive/Desktop/GD32VW553/V1_MQTT_OK/GD32VW55X_Wifi_BLE_SDK/GD32VW55x_RELEASE_V1.0.2/MSDK/plf/src\init_rom_symbol.c ****         mbedtls_rsa_copy_fn = (void *)0x0bf76132;
 598              		.loc 1 161 9 is_stmt 1
 161:C:/Users/stapi/OneDrive/Desktop/GD32VW553/V1_MQTT_OK/GD32VW55X_Wifi_BLE_SDK/GD32VW55x_RELEASE_V1.0.2/MSDK/plf/src\init_rom_symbol.c ****         mbedtls_rsa_copy_fn = (void *)0x0bf76132;
 599              		.loc 1 161 33 is_stmt 0
 600 043c 37050000 		lui	a0,%hi(.LANCHOR81)
 162:C:/Users/stapi/OneDrive/Desktop/GD32VW553/V1_MQTT_OK/GD32VW55X_Wifi_BLE_SDK/GD32VW55x_RELEASE_V1.0.2/MSDK/plf/src\init_rom_symbol.c ****         mbedtls_rsa_export_fn = (void *)0x0bf74728;
 601              		.loc 1 162 29
 602 0440 138F2713 		addi	t5,a5,306
 161:C:/Users/stapi/OneDrive/Desktop/GD32VW553/V1_MQTT_OK/GD32VW55X_Wifi_BLE_SDK/GD32VW55x_RELEASE_V1.0.2/MSDK/plf/src\init_rom_symbol.c ****         mbedtls_rsa_copy_fn = (void *)0x0bf76132;
 603              		.loc 1 161 33
 604 0444 2320F501 		sw	t6,%lo(.LANCHOR81)(a0)
 162:C:/Users/stapi/OneDrive/Desktop/GD32VW553/V1_MQTT_OK/GD32VW55X_Wifi_BLE_SDK/GD32VW55x_RELEASE_V1.0.2/MSDK/plf/src\init_rom_symbol.c ****         mbedtls_rsa_export_fn = (void *)0x0bf74728;
 605              		.loc 1 162 9 is_stmt 1
 162:C:/Users/stapi/OneDrive/Desktop/GD32VW553/V1_MQTT_OK/GD32VW55X_Wifi_BLE_SDK/GD32VW55x_RELEASE_V1.0.2/MSDK/plf/src\init_rom_symbol.c ****         mbedtls_rsa_export_fn = (void *)0x0bf74728;
 606              		.loc 1 162 29 is_stmt 0
 607 0448 37050000 		lui	a0,%hi(.LANCHOR82)
 608 044c 2320E501 		sw	t5,%lo(.LANCHOR82)(a0)
 163:C:/Users/stapi/OneDrive/Desktop/GD32VW553/V1_MQTT_OK/GD32VW55X_Wifi_BLE_SDK/GD32VW55x_RELEASE_V1.0.2/MSDK/plf/src\init_rom_symbol.c ****         mbedtls_rsa_export_crt_fn = (void *)0x0bf7482a;
 609              		.loc 1 163 9 is_stmt 1
 163:C:/Users/stapi/OneDrive/Desktop/GD32VW553/V1_MQTT_OK/GD32VW55X_Wifi_BLE_SDK/GD32VW55x_RELEASE_V1.0.2/MSDK/plf/src\init_rom_symbol.c ****         mbedtls_rsa_export_crt_fn = (void *)0x0bf7482a;
 610              		.loc 1 163 31 is_stmt 0
 611 0450 37050000 		lui	a0,%hi(.LANCHOR83)
 164:C:/Users/stapi/OneDrive/Desktop/GD32VW553/V1_MQTT_OK/GD32VW55X_Wifi_BLE_SDK/GD32VW55x_RELEASE_V1.0.2/MSDK/plf/src\init_rom_symbol.c ****         mbedtls_rsa_export_raw_fn = (void *)0x0bf745f0;
 612              		.loc 1 164 35
 613 0454 138EA682 		addi	t3,a3,-2006
 163:C:/Users/stapi/OneDrive/Desktop/GD32VW553/V1_MQTT_OK/GD32VW55X_Wifi_BLE_SDK/GD32VW55x_RELEASE_V1.0.2/MSDK/plf/src\init_rom_symbol.c ****         mbedtls_rsa_export_crt_fn = (void *)0x0bf7482a;
 614              		.loc 1 163 31
 615 0458 2320D501 		sw	t4,%lo(.LANCHOR83)(a0)
 164:C:/Users/stapi/OneDrive/Desktop/GD32VW553/V1_MQTT_OK/GD32VW55X_Wifi_BLE_SDK/GD32VW55x_RELEASE_V1.0.2/MSDK/plf/src\init_rom_symbol.c ****         mbedtls_rsa_export_raw_fn = (void *)0x0bf745f0;
 616              		.loc 1 164 9 is_stmt 1
 164:C:/Users/stapi/OneDrive/Desktop/GD32VW553/V1_MQTT_OK/GD32VW55X_Wifi_BLE_SDK/GD32VW55x_RELEASE_V1.0.2/MSDK/plf/src\init_rom_symbol.c ****         mbedtls_rsa_export_raw_fn = (void *)0x0bf745f0;
 617              		.loc 1 164 35 is_stmt 0
 618 045c 37050000 		lui	a0,%hi(.LANCHOR84)
 619 0460 2320C501 		sw	t3,%lo(.LANCHOR84)(a0)
 165:C:/Users/stapi/OneDrive/Desktop/GD32VW553/V1_MQTT_OK/GD32VW55X_Wifi_BLE_SDK/GD32VW55x_RELEASE_V1.0.2/MSDK/plf/src\init_rom_symbol.c ****         mbedtls_rsa_free_fn = (void *)0x0bf7623c;
 620              		.loc 1 165 9 is_stmt 1
 166:C:/Users/stapi/OneDrive/Desktop/GD32VW553/V1_MQTT_OK/GD32VW55X_Wifi_BLE_SDK/GD32VW55x_RELEASE_V1.0.2/MSDK/plf/src\init_rom_symbol.c ****         mbedtls_rsa_gen_key_fn = (void *)0x0bf749e2;
 621              		.loc 1 166 29 is_stmt 0
 622 0464 B765F70B 		li	a1,200761344
 165:C:/Users/stapi/OneDrive/Desktop/GD32VW553/V1_MQTT_OK/GD32VW55X_Wifi_BLE_SDK/GD32VW55x_RELEASE_V1.0.2/MSDK/plf/src\init_rom_symbol.c ****         mbedtls_rsa_free_fn = (void *)0x0bf7623c;
 623              		.loc 1 165 35
 624 0468 37050000 		lui	a0,%hi(.LANCHOR85)
 625 046c 23206500 		sw	t1,%lo(.LANCHOR85)(a0)
 166:C:/Users/stapi/OneDrive/Desktop/GD32VW553/V1_MQTT_OK/GD32VW55X_Wifi_BLE_SDK/GD32VW55x_RELEASE_V1.0.2/MSDK/plf/src\init_rom_symbol.c ****         mbedtls_rsa_gen_key_fn = (void *)0x0bf749e2;
 626              		.loc 1 166 9 is_stmt 1
 166:C:/Users/stapi/OneDrive/Desktop/GD32VW553/V1_MQTT_OK/GD32VW55X_Wifi_BLE_SDK/GD32VW55x_RELEASE_V1.0.2/MSDK/plf/src\init_rom_symbol.c ****         mbedtls_rsa_gen_key_fn = (void *)0x0bf749e2;
 627              		.loc 1 166 29 is_stmt 0
 628 0470 9385C523 		addi	a1,a1,572
 629 0474 37050000 		lui	a0,%hi(.LANCHOR86)
 167:C:/Users/stapi/OneDrive/Desktop/GD32VW553/V1_MQTT_OK/GD32VW55X_Wifi_BLE_SDK/GD32VW55x_RELEASE_V1.0.2/MSDK/plf/src\init_rom_symbol.c ****         mbedtls_rsa_get_len_fn = (void *)0x0bf7490c;
 630              		.loc 1 167 32
 631 0478 1386269E 		addi	a2,a3,-1566
 166:C:/Users/stapi/OneDrive/Desktop/GD32VW553/V1_MQTT_OK/GD32VW55X_Wifi_BLE_SDK/GD32VW55x_RELEASE_V1.0.2/MSDK/plf/src\init_rom_symbol.c ****         mbedtls_rsa_gen_key_fn = (void *)0x0bf749e2;
 632              		.loc 1 166 29
 633 047c 2320B500 		sw	a1,%lo(.LANCHOR86)(a0)
 167:C:/Users/stapi/OneDrive/Desktop/GD32VW553/V1_MQTT_OK/GD32VW55X_Wifi_BLE_SDK/GD32VW55x_RELEASE_V1.0.2/MSDK/plf/src\init_rom_symbol.c ****         mbedtls_rsa_get_len_fn = (void *)0x0bf7490c;
 634              		.loc 1 167 9 is_stmt 1
 167:C:/Users/stapi/OneDrive/Desktop/GD32VW553/V1_MQTT_OK/GD32VW55X_Wifi_BLE_SDK/GD32VW55x_RELEASE_V1.0.2/MSDK/plf/src\init_rom_symbol.c ****         mbedtls_rsa_get_len_fn = (void *)0x0bf7490c;
 635              		.loc 1 167 32 is_stmt 0
 636 0480 B7050000 		lui	a1,%hi(.LANCHOR87)
 637              		.loc 1 170 35
 638 0484 3245     		lw	a0,12(sp)
 168:C:/Users/stapi/OneDrive/Desktop/GD32VW553/V1_MQTT_OK/GD32VW55X_Wifi_BLE_SDK/GD32VW55x_RELEASE_V1.0.2/MSDK/plf/src\init_rom_symbol.c ****         mbedtls_rsa_import_fn = (void *)0x0bf74364;
 639              		.loc 1 168 32
 640 0486 938CC690 		addi	s9,a3,-1780
 167:C:/Users/stapi/OneDrive/Desktop/GD32VW553/V1_MQTT_OK/GD32VW55X_Wifi_BLE_SDK/GD32VW55x_RELEASE_V1.0.2/MSDK/plf/src\init_rom_symbol.c ****         mbedtls_rsa_get_len_fn = (void *)0x0bf7490c;
 641              		.loc 1 167 32
 642 048a 23A0C500 		sw	a2,%lo(.LANCHOR87)(a1)
 168:C:/Users/stapi/OneDrive/Desktop/GD32VW553/V1_MQTT_OK/GD32VW55X_Wifi_BLE_SDK/GD32VW55x_RELEASE_V1.0.2/MSDK/plf/src\init_rom_symbol.c ****         mbedtls_rsa_import_fn = (void *)0x0bf74364;
 643              		.loc 1 168 9 is_stmt 1
 168:C:/Users/stapi/OneDrive/Desktop/GD32VW553/V1_MQTT_OK/GD32VW55X_Wifi_BLE_SDK/GD32VW55x_RELEASE_V1.0.2/MSDK/plf/src\init_rom_symbol.c ****         mbedtls_rsa_import_fn = (void *)0x0bf74364;
 644              		.loc 1 168 32 is_stmt 0
 645 048e 37060000 		lui	a2,%hi(.LANCHOR88)
 646 0492 23209601 		sw	s9,%lo(.LANCHOR88)(a2)
 169:C:/Users/stapi/OneDrive/Desktop/GD32VW553/V1_MQTT_OK/GD32VW55X_Wifi_BLE_SDK/GD32VW55x_RELEASE_V1.0.2/MSDK/plf/src\init_rom_symbol.c ****         mbedtls_rsa_import_raw_fn = (void *)0x0bf743f6;
 647              		.loc 1 169 9 is_stmt 1
 169:C:/Users/stapi/OneDrive/Desktop/GD32VW553/V1_MQTT_OK/GD32VW55X_Wifi_BLE_SDK/GD32VW55x_RELEASE_V1.0.2/MSDK/plf/src\init_rom_symbol.c ****         mbedtls_rsa_import_raw_fn = (void *)0x0bf743f6;
 648              		.loc 1 169 31 is_stmt 0
 649 0496 37060000 		lui	a2,%hi(.LANCHOR89)
 171:C:/Users/stapi/OneDrive/Desktop/GD32VW553/V1_MQTT_OK/GD32VW55X_Wifi_BLE_SDK/GD32VW55x_RELEASE_V1.0.2/MSDK/plf/src\init_rom_symbol.c ****         mbedtls_rsa_init_fn = (void *)0x0bf748d4;
 650              		.loc 1 171 29
 651 049a B755F70B 		li	a1,200757248
 169:C:/Users/stapi/OneDrive/Desktop/GD32VW553/V1_MQTT_OK/GD32VW55X_Wifi_BLE_SDK/GD32VW55x_RELEASE_V1.0.2/MSDK/plf/src\init_rom_symbol.c ****         mbedtls_rsa_import_raw_fn = (void *)0x0bf743f6;
 652              		.loc 1 169 31
 653 049e 2320A601 		sw	s10,%lo(.LANCHOR89)(a2)
 170:C:/Users/stapi/OneDrive/Desktop/GD32VW553/V1_MQTT_OK/GD32VW55X_Wifi_BLE_SDK/GD32VW55x_RELEASE_V1.0.2/MSDK/plf/src\init_rom_symbol.c ****         mbedtls_rsa_init_fn = (void *)0x0bf748d4;
 654              		.loc 1 170 9 is_stmt 1
 170:C:/Users/stapi/OneDrive/Desktop/GD32VW553/V1_MQTT_OK/GD32VW55X_Wifi_BLE_SDK/GD32VW55x_RELEASE_V1.0.2/MSDK/plf/src\init_rom_symbol.c ****         mbedtls_rsa_init_fn = (void *)0x0bf748d4;
 655              		.loc 1 170 35 is_stmt 0
 656 04a2 37060000 		lui	a2,%hi(.LANCHOR90)
 657 04a6 2320A600 		sw	a0,%lo(.LANCHOR90)(a2)
 658              		.loc 1 171 9 is_stmt 1
 659              		.loc 1 171 29 is_stmt 0
 660 04aa 1385458D 		addi	a0,a1,-1836
 661 04ae 37060000 		lui	a2,%hi(.LANCHOR91)
 662 04b2 2320A600 		sw	a0,%lo(.LANCHOR91)(a2)
 172:C:/Users/stapi/OneDrive/Desktop/GD32VW553/V1_MQTT_OK/GD32VW55X_Wifi_BLE_SDK/GD32VW55x_RELEASE_V1.0.2/MSDK/plf/src\init_rom_symbol.c ****         mbedtls_rsa_pkcs1_decrypt_fn = (void *)0x0bf75a32;
 663              		.loc 1 172 9 is_stmt 1
 664              		.loc 1 172 38 is_stmt 0
 665 04b6 3765F70B 		li	a0,200761344
 666 04ba 130425A3 		addi	s0,a0,-1486
 667 04be 37060000 		lui	a2,%hi(.LANCHOR92)
 668 04c2 23208600 		sw	s0,%lo(.LANCHOR92)(a2)
 173:C:/Users/stapi/OneDrive/Desktop/GD32VW553/V1_MQTT_OK/GD32VW55X_Wifi_BLE_SDK/GD32VW55x_RELEASE_V1.0.2/MSDK/plf/src\init_rom_symbol.c ****         mbedtls_rsa_pkcs1_encrypt_fn = (void *)0x0bf75574;
 669              		.loc 1 173 9 is_stmt 1
 670              		.loc 1 173 38 is_stmt 0
 671 04c6 13844557 		addi	s0,a1,1396
 672 04ca 37060000 		lui	a2,%hi(.LANCHOR93)
 673 04ce 23208600 		sw	s0,%lo(.LANCHOR93)(a2)
 174:C:/Users/stapi/OneDrive/Desktop/GD32VW553/V1_MQTT_OK/GD32VW55X_Wifi_BLE_SDK/GD32VW55x_RELEASE_V1.0.2/MSDK/plf/src\init_rom_symbol.c ****         mbedtls_rsa_pkcs1_sign_fn = (void *)0x0bf75d64;
 674              		.loc 1 174 9 is_stmt 1
 675              		.loc 1 174 35 is_stmt 0
 676 04d2 130445D6 		addi	s0,a0,-668
 677 04d6 37060000 		lui	a2,%hi(.LANCHOR94)
 678 04da 23208600 		sw	s0,%lo(.LANCHOR94)(a2)
 175:C:/Users/stapi/OneDrive/Desktop/GD32VW553/V1_MQTT_OK/GD32VW55X_Wifi_BLE_SDK/GD32VW55x_RELEASE_V1.0.2/MSDK/plf/src\init_rom_symbol.c ****         mbedtls_rsa_pkcs1_verify_fn = (void *)0x0bf760d4;
 679              		.loc 1 175 9 is_stmt 1
 680              		.loc 1 175 37 is_stmt 0
 681 04de 1305450D 		addi	a0,a0,212
 682 04e2 37060000 		lui	a2,%hi(.LANCHOR95)
 683 04e6 2320A600 		sw	a0,%lo(.LANCHOR95)(a2)
 176:C:/Users/stapi/OneDrive/Desktop/GD32VW553/V1_MQTT_OK/GD32VW55X_Wifi_BLE_SDK/GD32VW55x_RELEASE_V1.0.2/MSDK/plf/src\init_rom_symbol.c ****         mbedtls_rsa_private_fn = (void *)0x0bf752ce;
 684              		.loc 1 176 9 is_stmt 1
 177:C:/Users/stapi/OneDrive/Desktop/GD32VW553/V1_MQTT_OK/GD32VW55X_Wifi_BLE_SDK/GD32VW55x_RELEASE_V1.0.2/MSDK/plf/src\init_rom_symbol.c ****         mbedtls_rsa_private_sw_fn = (void *)0x0bf74da8;
 178:C:/Users/stapi/OneDrive/Desktop/GD32VW553/V1_MQTT_OK/GD32VW55X_Wifi_BLE_SDK/GD32VW55x_RELEASE_V1.0.2/MSDK/plf/src\init_rom_symbol.c ****         mbedtls_rsa_public_fn = (void *)0x0bf74c50;
 685              		.loc 1 178 31 is_stmt 0
 686 04ea 938A06C5 		addi	s5,a3,-944
 176:C:/Users/stapi/OneDrive/Desktop/GD32VW553/V1_MQTT_OK/GD32VW55X_Wifi_BLE_SDK/GD32VW55x_RELEASE_V1.0.2/MSDK/plf/src\init_rom_symbol.c ****         mbedtls_rsa_private_fn = (void *)0x0bf752ce;
 687              		.loc 1 176 32
 688 04ee 1385E52C 		addi	a0,a1,718
 689 04f2 37060000 		lui	a2,%hi(.LANCHOR96)
 690              		.loc 1 178 31
 691 04f6 B70E0000 		lui	t4,%hi(.LANCHOR98)
 176:C:/Users/stapi/OneDrive/Desktop/GD32VW553/V1_MQTT_OK/GD32VW55X_Wifi_BLE_SDK/GD32VW55x_RELEASE_V1.0.2/MSDK/plf/src\init_rom_symbol.c ****         mbedtls_rsa_private_fn = (void *)0x0bf752ce;
 692              		.loc 1 176 32
 693 04fa 2320A600 		sw	a0,%lo(.LANCHOR96)(a2)
 177:C:/Users/stapi/OneDrive/Desktop/GD32VW553/V1_MQTT_OK/GD32VW55X_Wifi_BLE_SDK/GD32VW55x_RELEASE_V1.0.2/MSDK/plf/src\init_rom_symbol.c ****         mbedtls_rsa_private_sw_fn = (void *)0x0bf74da8;
 694              		.loc 1 177 9 is_stmt 1
 179:C:/Users/stapi/OneDrive/Desktop/GD32VW553/V1_MQTT_OK/GD32VW55X_Wifi_BLE_SDK/GD32VW55x_RELEASE_V1.0.2/MSDK/plf/src\init_rom_symbol.c ****         mbedtls_rsa_rsaes_oaep_decrypt_fn = (void *)0x0bf755a8;
 695              		.loc 1 179 43 is_stmt 0
 696 04fe 138A865A 		addi	s4,a3,1448
 178:C:/Users/stapi/OneDrive/Desktop/GD32VW553/V1_MQTT_OK/GD32VW55X_Wifi_BLE_SDK/GD32VW55x_RELEASE_V1.0.2/MSDK/plf/src\init_rom_symbol.c ****         mbedtls_rsa_rsaes_oaep_decrypt_fn = (void *)0x0bf755a8;
 697              		.loc 1 178 31
 698 0502 23A05E01 		sw	s5,%lo(.LANCHOR98)(t4)
 699              		.loc 1 179 43
 700 0506 B70E0000 		lui	t4,%hi(.LANCHOR99)
 180:C:/Users/stapi/OneDrive/Desktop/GD32VW553/V1_MQTT_OK/GD32VW55X_Wifi_BLE_SDK/GD32VW55x_RELEASE_V1.0.2/MSDK/plf/src\init_rom_symbol.c ****         mbedtls_rsa_rsaes_oaep_encrypt_fn = (void *)0x0bf752e2;
 701              		.loc 1 180 43
 702 050a 9389262E 		addi	s3,a3,738
 179:C:/Users/stapi/OneDrive/Desktop/GD32VW553/V1_MQTT_OK/GD32VW55X_Wifi_BLE_SDK/GD32VW55x_RELEASE_V1.0.2/MSDK/plf/src\init_rom_symbol.c ****         mbedtls_rsa_rsaes_oaep_decrypt_fn = (void *)0x0bf755a8;
 703              		.loc 1 179 43
 704 050e 23A04E01 		sw	s4,%lo(.LANCHOR99)(t4)
 705              		.loc 1 180 43
 706 0512 B70E0000 		lui	t4,%hi(.LANCHOR100)
 181:C:/Users/stapi/OneDrive/Desktop/GD32VW553/V1_MQTT_OK/GD32VW55X_Wifi_BLE_SDK/GD32VW55x_RELEASE_V1.0.2/MSDK/plf/src\init_rom_symbol.c ****         mbedtls_rsa_rsaes_pkcs1_v15_decrypt_fn = (void *)0x0bf757da;
 707              		.loc 1 181 48
 708 0516 1389A67D 		addi	s2,a3,2010
 180:C:/Users/stapi/OneDrive/Desktop/GD32VW553/V1_MQTT_OK/GD32VW55X_Wifi_BLE_SDK/GD32VW55x_RELEASE_V1.0.2/MSDK/plf/src\init_rom_symbol.c ****         mbedtls_rsa_rsaes_oaep_encrypt_fn = (void *)0x0bf752e2;
 709              		.loc 1 180 43
 710 051a 23A03E01 		sw	s3,%lo(.LANCHOR100)(t4)
 711              		.loc 1 181 48
 712 051e B70E0000 		lui	t4,%hi(.LANCHOR101)
 182:C:/Users/stapi/OneDrive/Desktop/GD32VW553/V1_MQTT_OK/GD32VW55X_Wifi_BLE_SDK/GD32VW55x_RELEASE_V1.0.2/MSDK/plf/src\init_rom_symbol.c ****         mbedtls_rsa_rsaes_pkcs1_v15_encrypt_fn = (void *)0x0bf75448;
 713              		.loc 1 182 48
 714 0522 93848644 		addi	s1,a3,1096
 181:C:/Users/stapi/OneDrive/Desktop/GD32VW553/V1_MQTT_OK/GD32VW55X_Wifi_BLE_SDK/GD32VW55x_RELEASE_V1.0.2/MSDK/plf/src\init_rom_symbol.c ****         mbedtls_rsa_rsaes_pkcs1_v15_decrypt_fn = (void *)0x0bf757da;
 715              		.loc 1 181 48
 716 0526 23A02E01 		sw	s2,%lo(.LANCHOR101)(t4)
 717              		.loc 1 182 48
 718 052a B70E0000 		lui	t4,%hi(.LANCHOR102)
 183:C:/Users/stapi/OneDrive/Desktop/GD32VW553/V1_MQTT_OK/GD32VW55X_Wifi_BLE_SDK/GD32VW55x_RELEASE_V1.0.2/MSDK/plf/src\init_rom_symbol.c ****         mbedtls_rsa_rsassa_pkcs1_v15_sign_fn = (void *)0x0bf75c56;
 719              		.loc 1 183 46
 720 052e 138467C5 		addi	s0,a5,-938
 182:C:/Users/stapi/OneDrive/Desktop/GD32VW553/V1_MQTT_OK/GD32VW55X_Wifi_BLE_SDK/GD32VW55x_RELEASE_V1.0.2/MSDK/plf/src\init_rom_symbol.c ****         mbedtls_rsa_rsaes_pkcs1_v15_encrypt_fn = (void *)0x0bf75448;
 721              		.loc 1 182 48
 722 0532 23A09E00 		sw	s1,%lo(.LANCHOR102)(t4)
 723              		.loc 1 183 46
 724 0536 B70E0000 		lui	t4,%hi(.LANCHOR103)
 184:C:/Users/stapi/OneDrive/Desktop/GD32VW553/V1_MQTT_OK/GD32VW55X_Wifi_BLE_SDK/GD32VW55x_RELEASE_V1.0.2/MSDK/plf/src\init_rom_symbol.c ****         mbedtls_rsa_rsassa_pkcs1_v15_verify_fn = (void *)0x0bf75fca;
 725              		.loc 1 184 48
 726 053a 9383A7FC 		addi	t2,a5,-54
 183:C:/Users/stapi/OneDrive/Desktop/GD32VW553/V1_MQTT_OK/GD32VW55X_Wifi_BLE_SDK/GD32VW55x_RELEASE_V1.0.2/MSDK/plf/src\init_rom_symbol.c ****         mbedtls_rsa_rsassa_pkcs1_v15_sign_fn = (void *)0x0bf75c56;
 727              		.loc 1 183 46
 728 053e 23A08E00 		sw	s0,%lo(.LANCHOR103)(t4)
 729              		.loc 1 184 48
 730 0542 B70E0000 		lui	t4,%hi(.LANCHOR104)
 185:C:/Users/stapi/OneDrive/Desktop/GD32VW553/V1_MQTT_OK/GD32VW55X_Wifi_BLE_SDK/GD32VW55x_RELEASE_V1.0.2/MSDK/plf/src\init_rom_symbol.c ****         mbedtls_rsa_rsassa_pss_sign_fn = (void *)0x0bf75a6c;
 731              		.loc 1 185 40
 732 0546 9382C7A6 		addi	t0,a5,-1428
 184:C:/Users/stapi/OneDrive/Desktop/GD32VW553/V1_MQTT_OK/GD32VW55X_Wifi_BLE_SDK/GD32VW55x_RELEASE_V1.0.2/MSDK/plf/src\init_rom_symbol.c ****         mbedtls_rsa_rsassa_pkcs1_v15_verify_fn = (void *)0x0bf75fca;
 733              		.loc 1 184 48
 734 054a 23A07E00 		sw	t2,%lo(.LANCHOR104)(t4)
 735              		.loc 1 185 40
 736 054e B70E0000 		lui	t4,%hi(.LANCHOR105)
 186:C:/Users/stapi/OneDrive/Desktop/GD32VW553/V1_MQTT_OK/GD32VW55X_Wifi_BLE_SDK/GD32VW55x_RELEASE_V1.0.2/MSDK/plf/src\init_rom_symbol.c ****         mbedtls_rsa_rsassa_pss_verify_fn = (void *)0x0bf75faa;
 737              		.loc 1 186 42
 738 0552 938FA7FA 		addi	t6,a5,-86
 185:C:/Users/stapi/OneDrive/Desktop/GD32VW553/V1_MQTT_OK/GD32VW55X_Wifi_BLE_SDK/GD32VW55x_RELEASE_V1.0.2/MSDK/plf/src\init_rom_symbol.c ****         mbedtls_rsa_rsassa_pss_sign_fn = (void *)0x0bf75a6c;
 739              		.loc 1 185 40
 740 0556 23A05E00 		sw	t0,%lo(.LANCHOR105)(t4)
 741              		.loc 1 186 42
 742 055a B70E0000 		lui	t4,%hi(.LANCHOR106)
 187:C:/Users/stapi/OneDrive/Desktop/GD32VW553/V1_MQTT_OK/GD32VW55X_Wifi_BLE_SDK/GD32VW55x_RELEASE_V1.0.2/MSDK/plf/src\init_rom_symbol.c ****         mbedtls_rsa_rsassa_pss_verify_ext_fn = (void *)0x0bf75d82;
 743              		.loc 1 187 46
 744 055e 138F27D8 		addi	t5,a5,-638
 186:C:/Users/stapi/OneDrive/Desktop/GD32VW553/V1_MQTT_OK/GD32VW55X_Wifi_BLE_SDK/GD32VW55x_RELEASE_V1.0.2/MSDK/plf/src\init_rom_symbol.c ****         mbedtls_rsa_rsassa_pss_verify_fn = (void *)0x0bf75faa;
 745              		.loc 1 186 42
 746 0562 23A0FE01 		sw	t6,%lo(.LANCHOR106)(t4)
 747              		.loc 1 187 46
 748 0566 B70E0000 		lui	t4,%hi(.LANCHOR107)
 749 056a 23A0EE01 		sw	t5,%lo(.LANCHOR107)(t4)
 188:C:/Users/stapi/OneDrive/Desktop/GD32VW553/V1_MQTT_OK/GD32VW55X_Wifi_BLE_SDK/GD32VW55x_RELEASE_V1.0.2/MSDK/plf/src\init_rom_symbol.c ****         mbedtls_rsa_set_padding_fn = (void *)0x0bf74902;
 750              		.loc 1 188 36
 751 056e 93862690 		addi	a3,a3,-1790
 752 0572 B70E0000 		lui	t4,%hi(.LANCHOR108)
 189:C:/Users/stapi/OneDrive/Desktop/GD32VW553/V1_MQTT_OK/GD32VW55X_Wifi_BLE_SDK/GD32VW55x_RELEASE_V1.0.2/MSDK/plf/src\init_rom_symbol.c ****         mbedtls_sha256_clone_fn = (void *)0x0bf767b0;
 753              		.loc 1 189 33
 754 0576 138E077B 		addi	t3,a5,1968
 188:C:/Users/stapi/OneDrive/Desktop/GD32VW553/V1_MQTT_OK/GD32VW55X_Wifi_BLE_SDK/GD32VW55x_RELEASE_V1.0.2/MSDK/plf/src\init_rom_symbol.c ****         mbedtls_rsa_set_padding_fn = (void *)0x0bf74902;
 755              		.loc 1 188 36
 756 057a 23A0DE00 		sw	a3,%lo(.LANCHOR108)(t4)
 757              		.loc 1 189 33
 758 057e B7060000 		lui	a3,%hi(.LANCHOR109)
 190:C:/Users/stapi/OneDrive/Desktop/GD32VW553/V1_MQTT_OK/GD32VW55X_Wifi_BLE_SDK/GD32VW55x_RELEASE_V1.0.2/MSDK/plf/src\init_rom_symbol.c ****         mbedtls_sha256_finish_fn = (void *)0x0bf7686a;
 759              		.loc 1 190 34
 760 0582 1303A786 		addi	t1,a4,-1942
 189:C:/Users/stapi/OneDrive/Desktop/GD32VW553/V1_MQTT_OK/GD32VW55X_Wifi_BLE_SDK/GD32VW55x_RELEASE_V1.0.2/MSDK/plf/src\init_rom_symbol.c ****         mbedtls_sha256_clone_fn = (void *)0x0bf767b0;
 761              		.loc 1 189 33
 762 0586 23A0C601 		sw	t3,%lo(.LANCHOR109)(a3)
 763              		.loc 1 190 34
 764 058a B7060000 		lui	a3,%hi(.LANCHOR110)
 191:C:/Users/stapi/OneDrive/Desktop/GD32VW553/V1_MQTT_OK/GD32VW55X_Wifi_BLE_SDK/GD32VW55x_RELEASE_V1.0.2/MSDK/plf/src\init_rom_symbol.c ****         mbedtls_sha256_finish_ret_fn = (void *)0x0bf76842;
 765              		.loc 1 191 38
 766 058e 93082784 		addi	a7,a4,-1982
 190:C:/Users/stapi/OneDrive/Desktop/GD32VW553/V1_MQTT_OK/GD32VW55X_Wifi_BLE_SDK/GD32VW55x_RELEASE_V1.0.2/MSDK/plf/src\init_rom_symbol.c ****         mbedtls_sha256_finish_fn = (void *)0x0bf7686a;
 767              		.loc 1 190 34
 768 0592 23A06600 		sw	t1,%lo(.LANCHOR110)(a3)
 769              		.loc 1 191 38
 770 0596 B7060000 		lui	a3,%hi(.LANCHOR111)
 192:C:/Users/stapi/OneDrive/Desktop/GD32VW553/V1_MQTT_OK/GD32VW55X_Wifi_BLE_SDK/GD32VW55x_RELEASE_V1.0.2/MSDK/plf/src\init_rom_symbol.c ****         mbedtls_sha256_free_fn = (void *)0x0bf7679e;
 771              		.loc 1 192 32
 772 059a 1388E779 		addi	a6,a5,1950
 191:C:/Users/stapi/OneDrive/Desktop/GD32VW553/V1_MQTT_OK/GD32VW55X_Wifi_BLE_SDK/GD32VW55x_RELEASE_V1.0.2/MSDK/plf/src\init_rom_symbol.c ****         mbedtls_sha256_finish_ret_fn = (void *)0x0bf76842;
 773              		.loc 1 191 38
 774 059e 23A01601 		sw	a7,%lo(.LANCHOR111)(a3)
 775              		.loc 1 192 32
 776 05a2 B7060000 		lui	a3,%hi(.LANCHOR112)
 193:C:/Users/stapi/OneDrive/Desktop/GD32VW553/V1_MQTT_OK/GD32VW55X_Wifi_BLE_SDK/GD32VW55x_RELEASE_V1.0.2/MSDK/plf/src\init_rom_symbol.c ****         mbedtls_sha256_init_fn = (void *)0x0bf7679a;
 777              		.loc 1 193 32
 778 05a6 1385A779 		addi	a0,a5,1946
 192:C:/Users/stapi/OneDrive/Desktop/GD32VW553/V1_MQTT_OK/GD32VW55X_Wifi_BLE_SDK/GD32VW55x_RELEASE_V1.0.2/MSDK/plf/src\init_rom_symbol.c ****         mbedtls_sha256_free_fn = (void *)0x0bf7679e;
 779              		.loc 1 192 32
 780 05aa 23A00601 		sw	a6,%lo(.LANCHOR112)(a3)
 177:C:/Users/stapi/OneDrive/Desktop/GD32VW553/V1_MQTT_OK/GD32VW55X_Wifi_BLE_SDK/GD32VW55x_RELEASE_V1.0.2/MSDK/plf/src\init_rom_symbol.c ****         mbedtls_rsa_public_fn = (void *)0x0bf74c50;
 781              		.loc 1 177 35
 782 05ae 37060000 		lui	a2,%hi(.LANCHOR97)
 783 05b2 938585DA 		addi	a1,a1,-600
 784              		.loc 1 193 32
 785 05b6 B7060000 		lui	a3,%hi(.LANCHOR113)
 177:C:/Users/stapi/OneDrive/Desktop/GD32VW553/V1_MQTT_OK/GD32VW55X_Wifi_BLE_SDK/GD32VW55x_RELEASE_V1.0.2/MSDK/plf/src\init_rom_symbol.c ****         mbedtls_rsa_public_fn = (void *)0x0bf74c50;
 786              		.loc 1 177 35
 787 05ba 2320B600 		sw	a1,%lo(.LANCHOR97)(a2)
 178:C:/Users/stapi/OneDrive/Desktop/GD32VW553/V1_MQTT_OK/GD32VW55X_Wifi_BLE_SDK/GD32VW55x_RELEASE_V1.0.2/MSDK/plf/src\init_rom_symbol.c ****         mbedtls_rsa_rsaes_oaep_decrypt_fn = (void *)0x0bf755a8;
 788              		.loc 1 178 9 is_stmt 1
 179:C:/Users/stapi/OneDrive/Desktop/GD32VW553/V1_MQTT_OK/GD32VW55X_Wifi_BLE_SDK/GD32VW55x_RELEASE_V1.0.2/MSDK/plf/src\init_rom_symbol.c ****         mbedtls_rsa_rsaes_oaep_encrypt_fn = (void *)0x0bf752e2;
 789              		.loc 1 179 9
 180:C:/Users/stapi/OneDrive/Desktop/GD32VW553/V1_MQTT_OK/GD32VW55X_Wifi_BLE_SDK/GD32VW55x_RELEASE_V1.0.2/MSDK/plf/src\init_rom_symbol.c ****         mbedtls_rsa_rsaes_pkcs1_v15_decrypt_fn = (void *)0x0bf757da;
 790              		.loc 1 180 9
 181:C:/Users/stapi/OneDrive/Desktop/GD32VW553/V1_MQTT_OK/GD32VW55X_Wifi_BLE_SDK/GD32VW55x_RELEASE_V1.0.2/MSDK/plf/src\init_rom_symbol.c ****         mbedtls_rsa_rsaes_pkcs1_v15_encrypt_fn = (void *)0x0bf75448;
 791              		.loc 1 181 9
 182:C:/Users/stapi/OneDrive/Desktop/GD32VW553/V1_MQTT_OK/GD32VW55X_Wifi_BLE_SDK/GD32VW55x_RELEASE_V1.0.2/MSDK/plf/src\init_rom_symbol.c ****         mbedtls_rsa_rsassa_pkcs1_v15_sign_fn = (void *)0x0bf75c56;
 792              		.loc 1 182 9
 183:C:/Users/stapi/OneDrive/Desktop/GD32VW553/V1_MQTT_OK/GD32VW55X_Wifi_BLE_SDK/GD32VW55x_RELEASE_V1.0.2/MSDK/plf/src\init_rom_symbol.c ****         mbedtls_rsa_rsassa_pkcs1_v15_verify_fn = (void *)0x0bf75fca;
 793              		.loc 1 183 9
 184:C:/Users/stapi/OneDrive/Desktop/GD32VW553/V1_MQTT_OK/GD32VW55X_Wifi_BLE_SDK/GD32VW55x_RELEASE_V1.0.2/MSDK/plf/src\init_rom_symbol.c ****         mbedtls_rsa_rsassa_pss_sign_fn = (void *)0x0bf75a6c;
 794              		.loc 1 184 9
 185:C:/Users/stapi/OneDrive/Desktop/GD32VW553/V1_MQTT_OK/GD32VW55X_Wifi_BLE_SDK/GD32VW55x_RELEASE_V1.0.2/MSDK/plf/src\init_rom_symbol.c ****         mbedtls_rsa_rsassa_pss_verify_fn = (void *)0x0bf75faa;
 795              		.loc 1 185 9
 186:C:/Users/stapi/OneDrive/Desktop/GD32VW553/V1_MQTT_OK/GD32VW55X_Wifi_BLE_SDK/GD32VW55x_RELEASE_V1.0.2/MSDK/plf/src\init_rom_symbol.c ****         mbedtls_rsa_rsassa_pss_verify_ext_fn = (void *)0x0bf75d82;
 796              		.loc 1 186 9
 187:C:/Users/stapi/OneDrive/Desktop/GD32VW553/V1_MQTT_OK/GD32VW55X_Wifi_BLE_SDK/GD32VW55x_RELEASE_V1.0.2/MSDK/plf/src\init_rom_symbol.c ****         mbedtls_rsa_set_padding_fn = (void *)0x0bf74902;
 797              		.loc 1 187 9
 188:C:/Users/stapi/OneDrive/Desktop/GD32VW553/V1_MQTT_OK/GD32VW55X_Wifi_BLE_SDK/GD32VW55x_RELEASE_V1.0.2/MSDK/plf/src\init_rom_symbol.c ****         mbedtls_sha256_clone_fn = (void *)0x0bf767b0;
 798              		.loc 1 188 9
 189:C:/Users/stapi/OneDrive/Desktop/GD32VW553/V1_MQTT_OK/GD32VW55X_Wifi_BLE_SDK/GD32VW55x_RELEASE_V1.0.2/MSDK/plf/src\init_rom_symbol.c ****         mbedtls_sha256_finish_fn = (void *)0x0bf7686a;
 799              		.loc 1 189 9
 190:C:/Users/stapi/OneDrive/Desktop/GD32VW553/V1_MQTT_OK/GD32VW55X_Wifi_BLE_SDK/GD32VW55x_RELEASE_V1.0.2/MSDK/plf/src\init_rom_symbol.c ****         mbedtls_sha256_finish_ret_fn = (void *)0x0bf76842;
 800              		.loc 1 190 9
 191:C:/Users/stapi/OneDrive/Desktop/GD32VW553/V1_MQTT_OK/GD32VW55X_Wifi_BLE_SDK/GD32VW55x_RELEASE_V1.0.2/MSDK/plf/src\init_rom_symbol.c ****         mbedtls_sha256_free_fn = (void *)0x0bf7679e;
 801              		.loc 1 191 9
 192:C:/Users/stapi/OneDrive/Desktop/GD32VW553/V1_MQTT_OK/GD32VW55X_Wifi_BLE_SDK/GD32VW55x_RELEASE_V1.0.2/MSDK/plf/src\init_rom_symbol.c ****         mbedtls_sha256_init_fn = (void *)0x0bf7679a;
 802              		.loc 1 192 9
 803              		.loc 1 193 9
 804              		.loc 1 193 32 is_stmt 0
 805 05be 23A0A600 		sw	a0,%lo(.LANCHOR113)(a3)
 194:C:/Users/stapi/OneDrive/Desktop/GD32VW553/V1_MQTT_OK/GD32VW55X_Wifi_BLE_SDK/GD32VW55x_RELEASE_V1.0.2/MSDK/plf/src\init_rom_symbol.c ****         mbedtls_sha256_starts_fn = (void *)0x0bf767e2;
 806              		.loc 1 194 9 is_stmt 1
 807              		.loc 1 194 34 is_stmt 0
 808 05c2 9385277E 		addi	a1,a5,2018
 809 05c6 B7060000 		lui	a3,%hi(.LANCHOR114)
 195:C:/Users/stapi/OneDrive/Desktop/GD32VW553/V1_MQTT_OK/GD32VW55X_Wifi_BLE_SDK/GD32VW55x_RELEASE_V1.0.2/MSDK/plf/src\init_rom_symbol.c ****         mbedtls_sha256_starts_ret_fn = (void *)0x0bf767b8;
 810              		.loc 1 195 38
 811 05ca 1386877B 		addi	a2,a5,1976
 194:C:/Users/stapi/OneDrive/Desktop/GD32VW553/V1_MQTT_OK/GD32VW55X_Wifi_BLE_SDK/GD32VW55x_RELEASE_V1.0.2/MSDK/plf/src\init_rom_symbol.c ****         mbedtls_sha256_starts_fn = (void *)0x0bf767e2;
 812              		.loc 1 194 34
 813 05ce 23A0B600 		sw	a1,%lo(.LANCHOR114)(a3)
 814              		.loc 1 195 9 is_stmt 1
 815              		.loc 1 195 38 is_stmt 0
 816 05d2 B7060000 		lui	a3,%hi(.LANCHOR115)
 817 05d6 23A0C600 		sw	a2,%lo(.LANCHOR115)(a3)
 196:C:/Users/stapi/OneDrive/Desktop/GD32VW553/V1_MQTT_OK/GD32VW55X_Wifi_BLE_SDK/GD32VW55x_RELEASE_V1.0.2/MSDK/plf/src\init_rom_symbol.c ****         mbedtls_sha256_update_fn = (void *)0x0bf76816;
 818              		.loc 1 196 9 is_stmt 1
 819              		.loc 1 196 34 is_stmt 0
 820 05da 13076781 		addi	a4,a4,-2026
 821 05de B7060000 		lui	a3,%hi(.LANCHOR116)
 822 05e2 23A0E600 		sw	a4,%lo(.LANCHOR116)(a3)
 197:C:/Users/stapi/OneDrive/Desktop/GD32VW553/V1_MQTT_OK/GD32VW55X_Wifi_BLE_SDK/GD32VW55x_RELEASE_V1.0.2/MSDK/plf/src\init_rom_symbol.c ****         mbedtls_sha256_update_ret_fn = (void *)0x0bf767e6;
 823              		.loc 1 197 9 is_stmt 1
 824              		.loc 1 197 38 is_stmt 0
 825 05e6 9387677E 		addi	a5,a5,2022
 826 05ea 37070000 		lui	a4,%hi(.LANCHOR117)
 827 05ee 2320F700 		sw	a5,%lo(.LANCHOR117)(a4)
 198:C:/Users/stapi/OneDrive/Desktop/GD32VW553/V1_MQTT_OK/GD32VW55X_Wifi_BLE_SDK/GD32VW55x_RELEASE_V1.0.2/MSDK/plf/src\init_rom_symbol.c ****     } else {
 199:C:/Users/stapi/OneDrive/Desktop/GD32VW553/V1_MQTT_OK/GD32VW55X_Wifi_BLE_SDK/GD32VW55x_RELEASE_V1.0.2/MSDK/plf/src\init_rom_symbol.c **** #ifndef EXEC_USING_STD_PRINTF
 200:C:/Users/stapi/OneDrive/Desktop/GD32VW553/V1_MQTT_OK/GD32VW55X_Wifi_BLE_SDK/GD32VW55x_RELEASE_V1.0.2/MSDK/plf/src\init_rom_symbol.c ****         dbg_print(NOTICE, "Chip: GD32VW55x\r\n");
 201:C:/Users/stapi/OneDrive/Desktop/GD32VW553/V1_MQTT_OK/GD32VW55X_Wifi_BLE_SDK/GD32VW55x_RELEASE_V1.0.2/MSDK/plf/src\init_rom_symbol.c **** #endif
 202:C:/Users/stapi/OneDrive/Desktop/GD32VW553/V1_MQTT_OK/GD32VW55X_Wifi_BLE_SDK/GD32VW55x_RELEASE_V1.0.2/MSDK/plf/src\init_rom_symbol.c ****         ecp_supported_curves = (mbedtls_ecp_curve_info *)0x0bf73a7c;
 203:C:/Users/stapi/OneDrive/Desktop/GD32VW553/V1_MQTT_OK/GD32VW55X_Wifi_BLE_SDK/GD32VW55x_RELEASE_V1.0.2/MSDK/plf/src\init_rom_symbol.c ****         mbedtls_ecdsa_free_fn = (void *)0x0bf71390;
 204:C:/Users/stapi/OneDrive/Desktop/GD32VW553/V1_MQTT_OK/GD32VW55X_Wifi_BLE_SDK/GD32VW55x_RELEASE_V1.0.2/MSDK/plf/src\init_rom_symbol.c ****         mbedtls_ecdsa_from_keypair_fn = (void *)0x0bf7133e;
 205:C:/Users/stapi/OneDrive/Desktop/GD32VW553/V1_MQTT_OK/GD32VW55X_Wifi_BLE_SDK/GD32VW55x_RELEASE_V1.0.2/MSDK/plf/src\init_rom_symbol.c ****         mbedtls_ecdsa_genkey_fn = (void *)0x0bf71300;
 206:C:/Users/stapi/OneDrive/Desktop/GD32VW553/V1_MQTT_OK/GD32VW55X_Wifi_BLE_SDK/GD32VW55x_RELEASE_V1.0.2/MSDK/plf/src\init_rom_symbol.c ****         mbedtls_ecdsa_init_fn = (void *)0x0bf7138c;
 207:C:/Users/stapi/OneDrive/Desktop/GD32VW553/V1_MQTT_OK/GD32VW55X_Wifi_BLE_SDK/GD32VW55x_RELEASE_V1.0.2/MSDK/plf/src\init_rom_symbol.c ****         mbedtls_ecdsa_read_signature_fn = (void *)0x0bf712fa;
 208:C:/Users/stapi/OneDrive/Desktop/GD32VW553/V1_MQTT_OK/GD32VW55X_Wifi_BLE_SDK/GD32VW55x_RELEASE_V1.0.2/MSDK/plf/src\init_rom_symbol.c ****         mbedtls_ecdsa_read_signature_restartable_fn = (void *)0x0bf71254;
 209:C:/Users/stapi/OneDrive/Desktop/GD32VW553/V1_MQTT_OK/GD32VW55X_Wifi_BLE_SDK/GD32VW55x_RELEASE_V1.0.2/MSDK/plf/src\init_rom_symbol.c ****         mbedtls_ecdsa_sign_fn = (void *)0x0bf70b6e;
 210:C:/Users/stapi/OneDrive/Desktop/GD32VW553/V1_MQTT_OK/GD32VW55X_Wifi_BLE_SDK/GD32VW55x_RELEASE_V1.0.2/MSDK/plf/src\init_rom_symbol.c ****         mbedtls_ecdsa_sign_det_fn = (void *)0x0bf70f2e;
 211:C:/Users/stapi/OneDrive/Desktop/GD32VW553/V1_MQTT_OK/GD32VW55X_Wifi_BLE_SDK/GD32VW55x_RELEASE_V1.0.2/MSDK/plf/src\init_rom_symbol.c ****         mbedtls_ecdsa_verify_fn = (void *)0x0bf70f32;
 212:C:/Users/stapi/OneDrive/Desktop/GD32VW553/V1_MQTT_OK/GD32VW55X_Wifi_BLE_SDK/GD32VW55x_RELEASE_V1.0.2/MSDK/plf/src\init_rom_symbol.c ****         mbedtls_ecdsa_write_signature_fn = (void *)0x0bf71224;
 213:C:/Users/stapi/OneDrive/Desktop/GD32VW553/V1_MQTT_OK/GD32VW55X_Wifi_BLE_SDK/GD32VW55x_RELEASE_V1.0.2/MSDK/plf/src\init_rom_symbol.c ****         mbedtls_ecdsa_write_signature_det_fn = (void *)0x0bf71234;
 214:C:/Users/stapi/OneDrive/Desktop/GD32VW553/V1_MQTT_OK/GD32VW55X_Wifi_BLE_SDK/GD32VW55x_RELEASE_V1.0.2/MSDK/plf/src\init_rom_symbol.c ****         mbedtls_ecdsa_write_signature_restartable_fn = (void *)0x0bf7115e;
 215:C:/Users/stapi/OneDrive/Desktop/GD32VW553/V1_MQTT_OK/GD32VW55X_Wifi_BLE_SDK/GD32VW55x_RELEASE_V1.0.2/MSDK/plf/src\init_rom_symbol.c ****         mbedtls_ecp_check_privkey_fn = (void *)0x0bf72a0e;
 216:C:/Users/stapi/OneDrive/Desktop/GD32VW553/V1_MQTT_OK/GD32VW55X_Wifi_BLE_SDK/GD32VW55x_RELEASE_V1.0.2/MSDK/plf/src\init_rom_symbol.c ****         mbedtls_ecp_check_pub_priv_fn = (void *)0x0bf73848;
 217:C:/Users/stapi/OneDrive/Desktop/GD32VW553/V1_MQTT_OK/GD32VW55X_Wifi_BLE_SDK/GD32VW55x_RELEASE_V1.0.2/MSDK/plf/src\init_rom_symbol.c ****         mbedtls_ecp_check_pubkey_fn = (void *)0x0bf72c78;
 218:C:/Users/stapi/OneDrive/Desktop/GD32VW553/V1_MQTT_OK/GD32VW55X_Wifi_BLE_SDK/GD32VW55x_RELEASE_V1.0.2/MSDK/plf/src\init_rom_symbol.c ****         mbedtls_ecp_copy_fn = (void *)0x0bf71f42;
 219:C:/Users/stapi/OneDrive/Desktop/GD32VW553/V1_MQTT_OK/GD32VW55X_Wifi_BLE_SDK/GD32VW55x_RELEASE_V1.0.2/MSDK/plf/src\init_rom_symbol.c ****         mbedtls_ecp_curve_info_from_grp_id_fn = (void *)0x0bf71d4e;
 220:C:/Users/stapi/OneDrive/Desktop/GD32VW553/V1_MQTT_OK/GD32VW55X_Wifi_BLE_SDK/GD32VW55x_RELEASE_V1.0.2/MSDK/plf/src\init_rom_symbol.c ****         mbedtls_ecp_curve_info_from_name_fn = (void *)0x0bf71daa;
 221:C:/Users/stapi/OneDrive/Desktop/GD32VW553/V1_MQTT_OK/GD32VW55X_Wifi_BLE_SDK/GD32VW55x_RELEASE_V1.0.2/MSDK/plf/src\init_rom_symbol.c ****         mbedtls_ecp_curve_info_from_tls_id_fn = (void *)0x0bf71d7a;
 222:C:/Users/stapi/OneDrive/Desktop/GD32VW553/V1_MQTT_OK/GD32VW55X_Wifi_BLE_SDK/GD32VW55x_RELEASE_V1.0.2/MSDK/plf/src\init_rom_symbol.c ****         mbedtls_ecp_curve_list_fn = (void *)0x0bf71cda;
 223:C:/Users/stapi/OneDrive/Desktop/GD32VW553/V1_MQTT_OK/GD32VW55X_Wifi_BLE_SDK/GD32VW55x_RELEASE_V1.0.2/MSDK/plf/src\init_rom_symbol.c ****         mbedtls_ecp_gen_key_fn = (void *)0x0bf73802;
 224:C:/Users/stapi/OneDrive/Desktop/GD32VW553/V1_MQTT_OK/GD32VW55X_Wifi_BLE_SDK/GD32VW55x_RELEASE_V1.0.2/MSDK/plf/src\init_rom_symbol.c ****         mbedtls_ecp_gen_keypair_fn = (void *)0x0bf737f2;
 225:C:/Users/stapi/OneDrive/Desktop/GD32VW553/V1_MQTT_OK/GD32VW55X_Wifi_BLE_SDK/GD32VW55x_RELEASE_V1.0.2/MSDK/plf/src\init_rom_symbol.c ****         mbedtls_ecp_gen_keypair_base_fn = (void *)0x0bf73796;
 226:C:/Users/stapi/OneDrive/Desktop/GD32VW553/V1_MQTT_OK/GD32VW55X_Wifi_BLE_SDK/GD32VW55x_RELEASE_V1.0.2/MSDK/plf/src\init_rom_symbol.c ****         mbedtls_ecp_gen_privkey_fn = (void *)0x0bf72a8c;
 227:C:/Users/stapi/OneDrive/Desktop/GD32VW553/V1_MQTT_OK/GD32VW55X_Wifi_BLE_SDK/GD32VW55x_RELEASE_V1.0.2/MSDK/plf/src\init_rom_symbol.c ****         mbedtls_ecp_group_copy_fn = (void *)0x0bf71f80;
 228:C:/Users/stapi/OneDrive/Desktop/GD32VW553/V1_MQTT_OK/GD32VW55X_Wifi_BLE_SDK/GD32VW55x_RELEASE_V1.0.2/MSDK/plf/src\init_rom_symbol.c ****         mbedtls_ecp_group_free_fn = (void *)0x0bf71e9c;
 229:C:/Users/stapi/OneDrive/Desktop/GD32VW553/V1_MQTT_OK/GD32VW55X_Wifi_BLE_SDK/GD32VW55x_RELEASE_V1.0.2/MSDK/plf/src\init_rom_symbol.c ****         mbedtls_ecp_group_init_fn = (void *)0x0bf71e14;
 230:C:/Users/stapi/OneDrive/Desktop/GD32VW553/V1_MQTT_OK/GD32VW55X_Wifi_BLE_SDK/GD32VW55x_RELEASE_V1.0.2/MSDK/plf/src\init_rom_symbol.c ****         mbedtls_ecp_grp_id_list_fn = (void *)0x0bf71d02;
 231:C:/Users/stapi/OneDrive/Desktop/GD32VW553/V1_MQTT_OK/GD32VW55X_Wifi_BLE_SDK/GD32VW55x_RELEASE_V1.0.2/MSDK/plf/src\init_rom_symbol.c ****         mbedtls_ecp_is_zero_fn = (void *)0x0bf726b4;
 232:C:/Users/stapi/OneDrive/Desktop/GD32VW553/V1_MQTT_OK/GD32VW55X_Wifi_BLE_SDK/GD32VW55x_RELEASE_V1.0.2/MSDK/plf/src\init_rom_symbol.c ****         mbedtls_ecp_keypair_free_fn = (void *)0x0bf71f1c;
 233:C:/Users/stapi/OneDrive/Desktop/GD32VW553/V1_MQTT_OK/GD32VW55X_Wifi_BLE_SDK/GD32VW55x_RELEASE_V1.0.2/MSDK/plf/src\init_rom_symbol.c ****         mbedtls_ecp_keypair_init_fn = (void *)0x0bf71e72;
 234:C:/Users/stapi/OneDrive/Desktop/GD32VW553/V1_MQTT_OK/GD32VW55X_Wifi_BLE_SDK/GD32VW55x_RELEASE_V1.0.2/MSDK/plf/src\init_rom_symbol.c ****         mbedtls_ecp_mul_fn = (void *)0x0bf73790;
 235:C:/Users/stapi/OneDrive/Desktop/GD32VW553/V1_MQTT_OK/GD32VW55X_Wifi_BLE_SDK/GD32VW55x_RELEASE_V1.0.2/MSDK/plf/src\init_rom_symbol.c ****         mbedtls_ecp_mul_restartable_fn = (void *)0x0bf72ebc;
 236:C:/Users/stapi/OneDrive/Desktop/GD32VW553/V1_MQTT_OK/GD32VW55X_Wifi_BLE_SDK/GD32VW55x_RELEASE_V1.0.2/MSDK/plf/src\init_rom_symbol.c ****         mbedtls_ecp_muladd_fn = (void *)0x0bf73a52;
 237:C:/Users/stapi/OneDrive/Desktop/GD32VW553/V1_MQTT_OK/GD32VW55X_Wifi_BLE_SDK/GD32VW55x_RELEASE_V1.0.2/MSDK/plf/src\init_rom_symbol.c ****         mbedtls_ecp_muladd_restartable_fn = (void *)0x0bf73a36;
 238:C:/Users/stapi/OneDrive/Desktop/GD32VW553/V1_MQTT_OK/GD32VW55X_Wifi_BLE_SDK/GD32VW55x_RELEASE_V1.0.2/MSDK/plf/src\init_rom_symbol.c ****         mbedtls_ecp_point_cmp_fn = (void *)0x0bf726ca;
 239:C:/Users/stapi/OneDrive/Desktop/GD32VW553/V1_MQTT_OK/GD32VW55X_Wifi_BLE_SDK/GD32VW55x_RELEASE_V1.0.2/MSDK/plf/src\init_rom_symbol.c ****         mbedtls_ecp_point_free_fn = (void *)0x0bf71e94;
 240:C:/Users/stapi/OneDrive/Desktop/GD32VW553/V1_MQTT_OK/GD32VW55X_Wifi_BLE_SDK/GD32VW55x_RELEASE_V1.0.2/MSDK/plf/src\init_rom_symbol.c ****         mbedtls_ecp_point_init_fn = (void *)0x0bf71df2;
 241:C:/Users/stapi/OneDrive/Desktop/GD32VW553/V1_MQTT_OK/GD32VW55X_Wifi_BLE_SDK/GD32VW55x_RELEASE_V1.0.2/MSDK/plf/src\init_rom_symbol.c ****         mbedtls_ecp_point_read_binary_fn = (void *)0x0bf72824;
 242:C:/Users/stapi/OneDrive/Desktop/GD32VW553/V1_MQTT_OK/GD32VW55X_Wifi_BLE_SDK/GD32VW55x_RELEASE_V1.0.2/MSDK/plf/src\init_rom_symbol.c ****         mbedtls_ecp_point_read_string_fn = (void *)0x0bf72712;
 243:C:/Users/stapi/OneDrive/Desktop/GD32VW553/V1_MQTT_OK/GD32VW55X_Wifi_BLE_SDK/GD32VW55x_RELEASE_V1.0.2/MSDK/plf/src\init_rom_symbol.c ****         mbedtls_ecp_point_write_binary_fn = (void *)0x0bf72756;
 244:C:/Users/stapi/OneDrive/Desktop/GD32VW553/V1_MQTT_OK/GD32VW55X_Wifi_BLE_SDK/GD32VW55x_RELEASE_V1.0.2/MSDK/plf/src\init_rom_symbol.c ****         mbedtls_ecp_set_zero_fn = (void *)0x0bf71f86;
 245:C:/Users/stapi/OneDrive/Desktop/GD32VW553/V1_MQTT_OK/GD32VW55X_Wifi_BLE_SDK/GD32VW55x_RELEASE_V1.0.2/MSDK/plf/src\init_rom_symbol.c ****         mbedtls_ecp_tls_read_group_fn = (void *)0x0bf72994;
 246:C:/Users/stapi/OneDrive/Desktop/GD32VW553/V1_MQTT_OK/GD32VW55X_Wifi_BLE_SDK/GD32VW55x_RELEASE_V1.0.2/MSDK/plf/src\init_rom_symbol.c ****         mbedtls_ecp_tls_read_group_id_fn = (void *)0x0bf7292c;
 247:C:/Users/stapi/OneDrive/Desktop/GD32VW553/V1_MQTT_OK/GD32VW55X_Wifi_BLE_SDK/GD32VW55x_RELEASE_V1.0.2/MSDK/plf/src\init_rom_symbol.c ****         mbedtls_ecp_tls_read_point_fn = (void *)0x0bf728c2;
 248:C:/Users/stapi/OneDrive/Desktop/GD32VW553/V1_MQTT_OK/GD32VW55X_Wifi_BLE_SDK/GD32VW55x_RELEASE_V1.0.2/MSDK/plf/src\init_rom_symbol.c ****         mbedtls_ecp_tls_write_group_fn = (void *)0x0bf729b4;
 249:C:/Users/stapi/OneDrive/Desktop/GD32VW553/V1_MQTT_OK/GD32VW55X_Wifi_BLE_SDK/GD32VW55x_RELEASE_V1.0.2/MSDK/plf/src\init_rom_symbol.c ****         mbedtls_ecp_tls_write_point_fn = (void *)0x0bf728f6;
 250:C:/Users/stapi/OneDrive/Desktop/GD32VW553/V1_MQTT_OK/GD32VW55X_Wifi_BLE_SDK/GD32VW55x_RELEASE_V1.0.2/MSDK/plf/src\init_rom_symbol.c ****         mbedtls_internal_md5_process_fn = (void *)0x0bf764d6;
 251:C:/Users/stapi/OneDrive/Desktop/GD32VW553/V1_MQTT_OK/GD32VW55X_Wifi_BLE_SDK/GD32VW55x_RELEASE_V1.0.2/MSDK/plf/src\init_rom_symbol.c ****         mbedtls_internal_sha256_process_fn = (void *)0x0bf76312;
 252:C:/Users/stapi/OneDrive/Desktop/GD32VW553/V1_MQTT_OK/GD32VW55X_Wifi_BLE_SDK/GD32VW55x_RELEASE_V1.0.2/MSDK/plf/src\init_rom_symbol.c ****         mbedtls_md5_fn = (void *)0x0bf77352;
 253:C:/Users/stapi/OneDrive/Desktop/GD32VW553/V1_MQTT_OK/GD32VW55X_Wifi_BLE_SDK/GD32VW55x_RELEASE_V1.0.2/MSDK/plf/src\init_rom_symbol.c ****         mbedtls_md5_clone_fn = (void *)0x0bf76468;
 254:C:/Users/stapi/OneDrive/Desktop/GD32VW553/V1_MQTT_OK/GD32VW55X_Wifi_BLE_SDK/GD32VW55x_RELEASE_V1.0.2/MSDK/plf/src\init_rom_symbol.c ****         mbedtls_md5_finish_fn = (void *)0x0bf7731c;
 255:C:/Users/stapi/OneDrive/Desktop/GD32VW553/V1_MQTT_OK/GD32VW55X_Wifi_BLE_SDK/GD32VW55x_RELEASE_V1.0.2/MSDK/plf/src\init_rom_symbol.c ****         mbedtls_md5_finish_ret_fn = (void *)0x0bf7721e;
 256:C:/Users/stapi/OneDrive/Desktop/GD32VW553/V1_MQTT_OK/GD32VW55X_Wifi_BLE_SDK/GD32VW55x_RELEASE_V1.0.2/MSDK/plf/src\init_rom_symbol.c ****         mbedtls_md5_free_fn = (void *)0x0bf7645c;
 257:C:/Users/stapi/OneDrive/Desktop/GD32VW553/V1_MQTT_OK/GD32VW55X_Wifi_BLE_SDK/GD32VW55x_RELEASE_V1.0.2/MSDK/plf/src\init_rom_symbol.c ****         mbedtls_md5_init_fn = (void *)0x0bf76452;
 258:C:/Users/stapi/OneDrive/Desktop/GD32VW553/V1_MQTT_OK/GD32VW55X_Wifi_BLE_SDK/GD32VW55x_RELEASE_V1.0.2/MSDK/plf/src\init_rom_symbol.c ****         mbedtls_md5_process_fn = (void *)0x0bf77208;
 259:C:/Users/stapi/OneDrive/Desktop/GD32VW553/V1_MQTT_OK/GD32VW55X_Wifi_BLE_SDK/GD32VW55x_RELEASE_V1.0.2/MSDK/plf/src\init_rom_symbol.c ****         mbedtls_md5_ret_fn = (void *)0x0bf77320;
 260:C:/Users/stapi/OneDrive/Desktop/GD32VW553/V1_MQTT_OK/GD32VW55X_Wifi_BLE_SDK/GD32VW55x_RELEASE_V1.0.2/MSDK/plf/src\init_rom_symbol.c ****         mbedtls_md5_starts_fn = (void *)0x0bf764a4;
 261:C:/Users/stapi/OneDrive/Desktop/GD32VW553/V1_MQTT_OK/GD32VW55X_Wifi_BLE_SDK/GD32VW55x_RELEASE_V1.0.2/MSDK/plf/src\init_rom_symbol.c ****         mbedtls_md5_starts_ret_fn = (void *)0x0bf76470;
 262:C:/Users/stapi/OneDrive/Desktop/GD32VW553/V1_MQTT_OK/GD32VW55X_Wifi_BLE_SDK/GD32VW55x_RELEASE_V1.0.2/MSDK/plf/src\init_rom_symbol.c ****         mbedtls_md5_update_fn = (void *)0x0bf77216;
 263:C:/Users/stapi/OneDrive/Desktop/GD32VW553/V1_MQTT_OK/GD32VW55X_Wifi_BLE_SDK/GD32VW55x_RELEASE_V1.0.2/MSDK/plf/src\init_rom_symbol.c ****         mbedtls_md5_update_ret_fn = (void *)0x0bf7720c;
 264:C:/Users/stapi/OneDrive/Desktop/GD32VW553/V1_MQTT_OK/GD32VW55X_Wifi_BLE_SDK/GD32VW55x_RELEASE_V1.0.2/MSDK/plf/src\init_rom_symbol.c ****         mbedtls_mpi_div_int_fn = (void *)0x0bf6f1c6;
 265:C:/Users/stapi/OneDrive/Desktop/GD32VW553/V1_MQTT_OK/GD32VW55X_Wifi_BLE_SDK/GD32VW55x_RELEASE_V1.0.2/MSDK/plf/src\init_rom_symbol.c ****         mbedtls_mpi_div_mpi_fn = (void *)0x0bf6ecda;
 266:C:/Users/stapi/OneDrive/Desktop/GD32VW553/V1_MQTT_OK/GD32VW55X_Wifi_BLE_SDK/GD32VW55x_RELEASE_V1.0.2/MSDK/plf/src\init_rom_symbol.c ****         mbedtls_mpi_exp_mod_fn = (void *)0x0bf6fb18;
 267:C:/Users/stapi/OneDrive/Desktop/GD32VW553/V1_MQTT_OK/GD32VW55X_Wifi_BLE_SDK/GD32VW55x_RELEASE_V1.0.2/MSDK/plf/src\init_rom_symbol.c ****         mbedtls_mpi_exp_mod_sw_fn = (void *)0x0bf6f508;
 268:C:/Users/stapi/OneDrive/Desktop/GD32VW553/V1_MQTT_OK/GD32VW55X_Wifi_BLE_SDK/GD32VW55x_RELEASE_V1.0.2/MSDK/plf/src\init_rom_symbol.c ****         mbedtls_mpi_fill_random_fn = (void *)0x0bf6fe86;
 269:C:/Users/stapi/OneDrive/Desktop/GD32VW553/V1_MQTT_OK/GD32VW55X_Wifi_BLE_SDK/GD32VW55x_RELEASE_V1.0.2/MSDK/plf/src\init_rom_symbol.c ****         mbedtls_mpi_gcd_fn = (void *)0x0bf6fc8e;
 270:C:/Users/stapi/OneDrive/Desktop/GD32VW553/V1_MQTT_OK/GD32VW55X_Wifi_BLE_SDK/GD32VW55x_RELEASE_V1.0.2/MSDK/plf/src\init_rom_symbol.c ****         mbedtls_mpi_gen_prime_fn = (void *)0x0bf70584;
 271:C:/Users/stapi/OneDrive/Desktop/GD32VW553/V1_MQTT_OK/GD32VW55X_Wifi_BLE_SDK/GD32VW55x_RELEASE_V1.0.2/MSDK/plf/src\init_rom_symbol.c ****         mbedtls_mpi_inv_mod_fn = (void *)0x0bf701b4;
 272:C:/Users/stapi/OneDrive/Desktop/GD32VW553/V1_MQTT_OK/GD32VW55X_Wifi_BLE_SDK/GD32VW55x_RELEASE_V1.0.2/MSDK/plf/src\init_rom_symbol.c ****         mbedtls_mpi_is_prime_fn = (void *)0x0bf70578   ;
 273:C:/Users/stapi/OneDrive/Desktop/GD32VW553/V1_MQTT_OK/GD32VW55X_Wifi_BLE_SDK/GD32VW55x_RELEASE_V1.0.2/MSDK/plf/src\init_rom_symbol.c ****         mbedtls_mpi_is_prime_ext_fn = (void *)0x0bf704d6;
 274:C:/Users/stapi/OneDrive/Desktop/GD32VW553/V1_MQTT_OK/GD32VW55X_Wifi_BLE_SDK/GD32VW55x_RELEASE_V1.0.2/MSDK/plf/src\init_rom_symbol.c ****         mbedtls_mpi_mod_int_fn = (void *)0x0bf6f28c;
 275:C:/Users/stapi/OneDrive/Desktop/GD32VW553/V1_MQTT_OK/GD32VW55X_Wifi_BLE_SDK/GD32VW55x_RELEASE_V1.0.2/MSDK/plf/src\init_rom_symbol.c ****         mbedtls_mpi_mod_mpi_fn = (void *)0x0bf6f1f0;
 276:C:/Users/stapi/OneDrive/Desktop/GD32VW553/V1_MQTT_OK/GD32VW55X_Wifi_BLE_SDK/GD32VW55x_RELEASE_V1.0.2/MSDK/plf/src\init_rom_symbol.c ****         mbedtls_mpi_mul_int_fn = (void *)0x0bf6ecc0;
 277:C:/Users/stapi/OneDrive/Desktop/GD32VW553/V1_MQTT_OK/GD32VW55X_Wifi_BLE_SDK/GD32VW55x_RELEASE_V1.0.2/MSDK/plf/src\init_rom_symbol.c ****         mbedtls_mpi_mul_mpi_fn = (void *)0x0bf6ea92;
 278:C:/Users/stapi/OneDrive/Desktop/GD32VW553/V1_MQTT_OK/GD32VW55X_Wifi_BLE_SDK/GD32VW55x_RELEASE_V1.0.2/MSDK/plf/src\init_rom_symbol.c ****         mbedtls_mpi_read_string_fn = (void *)0x0bf6eaa8;
 279:C:/Users/stapi/OneDrive/Desktop/GD32VW553/V1_MQTT_OK/GD32VW55X_Wifi_BLE_SDK/GD32VW55x_RELEASE_V1.0.2/MSDK/plf/src\init_rom_symbol.c ****         mbedtls_mpi_write_string_fn = (void *)0x0bf6f2c0;
 280:C:/Users/stapi/OneDrive/Desktop/GD32VW553/V1_MQTT_OK/GD32VW55X_Wifi_BLE_SDK/GD32VW55x_RELEASE_V1.0.2/MSDK/plf/src\init_rom_symbol.c ****         mbedtls_rsa_check_privkey_fn = (void *)0x0bf74536;
 281:C:/Users/stapi/OneDrive/Desktop/GD32VW553/V1_MQTT_OK/GD32VW55X_Wifi_BLE_SDK/GD32VW55x_RELEASE_V1.0.2/MSDK/plf/src\init_rom_symbol.c ****         mbedtls_rsa_check_pub_priv_fn = (void *)0x0bf747cc;
 282:C:/Users/stapi/OneDrive/Desktop/GD32VW553/V1_MQTT_OK/GD32VW55X_Wifi_BLE_SDK/GD32VW55x_RELEASE_V1.0.2/MSDK/plf/src\init_rom_symbol.c ****         mbedtls_rsa_check_pubkey_fn = (void *)0x0bf744d4;
 283:C:/Users/stapi/OneDrive/Desktop/GD32VW553/V1_MQTT_OK/GD32VW55X_Wifi_BLE_SDK/GD32VW55x_RELEASE_V1.0.2/MSDK/plf/src\init_rom_symbol.c ****         mbedtls_rsa_complete_fn = (void *)0x0bf74054;
 284:C:/Users/stapi/OneDrive/Desktop/GD32VW553/V1_MQTT_OK/GD32VW55X_Wifi_BLE_SDK/GD32VW55x_RELEASE_V1.0.2/MSDK/plf/src\init_rom_symbol.c ****         mbedtls_rsa_copy_fn = (void *)0x0bf75cf6;
 285:C:/Users/stapi/OneDrive/Desktop/GD32VW553/V1_MQTT_OK/GD32VW55X_Wifi_BLE_SDK/GD32VW55x_RELEASE_V1.0.2/MSDK/plf/src\init_rom_symbol.c ****         mbedtls_rsa_export_fn = (void *)0x0bf742ec;
 286:C:/Users/stapi/OneDrive/Desktop/GD32VW553/V1_MQTT_OK/GD32VW55X_Wifi_BLE_SDK/GD32VW55x_RELEASE_V1.0.2/MSDK/plf/src\init_rom_symbol.c ****         mbedtls_rsa_export_crt_fn = (void *)0x0bf743ee;
 287:C:/Users/stapi/OneDrive/Desktop/GD32VW553/V1_MQTT_OK/GD32VW55X_Wifi_BLE_SDK/GD32VW55x_RELEASE_V1.0.2/MSDK/plf/src\init_rom_symbol.c ****         mbedtls_rsa_export_raw_fn = (void *)0x0bf741b4;
 288:C:/Users/stapi/OneDrive/Desktop/GD32VW553/V1_MQTT_OK/GD32VW55X_Wifi_BLE_SDK/GD32VW55x_RELEASE_V1.0.2/MSDK/plf/src\init_rom_symbol.c ****         mbedtls_rsa_free_fn = (void *)0x0bf75e00;
 289:C:/Users/stapi/OneDrive/Desktop/GD32VW553/V1_MQTT_OK/GD32VW55X_Wifi_BLE_SDK/GD32VW55x_RELEASE_V1.0.2/MSDK/plf/src\init_rom_symbol.c ****         mbedtls_rsa_gen_key_fn = (void *)0x0bf745a6;
 290:C:/Users/stapi/OneDrive/Desktop/GD32VW553/V1_MQTT_OK/GD32VW55X_Wifi_BLE_SDK/GD32VW55x_RELEASE_V1.0.2/MSDK/plf/src\init_rom_symbol.c ****         mbedtls_rsa_get_len_fn = (void *)0x0bf744d0;
 291:C:/Users/stapi/OneDrive/Desktop/GD32VW553/V1_MQTT_OK/GD32VW55X_Wifi_BLE_SDK/GD32VW55x_RELEASE_V1.0.2/MSDK/plf/src\init_rom_symbol.c ****         mbedtls_rsa_import_fn = (void *)0x0bf73f28;
 292:C:/Users/stapi/OneDrive/Desktop/GD32VW553/V1_MQTT_OK/GD32VW55X_Wifi_BLE_SDK/GD32VW55x_RELEASE_V1.0.2/MSDK/plf/src\init_rom_symbol.c ****         mbedtls_rsa_import_raw_fn = (void *)0x0bf73fba;
 293:C:/Users/stapi/OneDrive/Desktop/GD32VW553/V1_MQTT_OK/GD32VW55X_Wifi_BLE_SDK/GD32VW55x_RELEASE_V1.0.2/MSDK/plf/src\init_rom_symbol.c ****         mbedtls_rsa_init_fn = (void *)0x0bf74498;
 294:C:/Users/stapi/OneDrive/Desktop/GD32VW553/V1_MQTT_OK/GD32VW55X_Wifi_BLE_SDK/GD32VW55x_RELEASE_V1.0.2/MSDK/plf/src\init_rom_symbol.c ****         mbedtls_rsa_pkcs1_decrypt_fn = (void *)0x0bf755f6;
 295:C:/Users/stapi/OneDrive/Desktop/GD32VW553/V1_MQTT_OK/GD32VW55X_Wifi_BLE_SDK/GD32VW55x_RELEASE_V1.0.2/MSDK/plf/src\init_rom_symbol.c ****         mbedtls_rsa_pkcs1_encrypt_fn = (void *)0x0bf75138;
 296:C:/Users/stapi/OneDrive/Desktop/GD32VW553/V1_MQTT_OK/GD32VW55X_Wifi_BLE_SDK/GD32VW55x_RELEASE_V1.0.2/MSDK/plf/src\init_rom_symbol.c ****         mbedtls_rsa_pkcs1_sign_fn = (void *)0x0bf75928;
 297:C:/Users/stapi/OneDrive/Desktop/GD32VW553/V1_MQTT_OK/GD32VW55X_Wifi_BLE_SDK/GD32VW55x_RELEASE_V1.0.2/MSDK/plf/src\init_rom_symbol.c ****         mbedtls_rsa_pkcs1_verify_fn = (void *)0x0bf75c98;
 298:C:/Users/stapi/OneDrive/Desktop/GD32VW553/V1_MQTT_OK/GD32VW55X_Wifi_BLE_SDK/GD32VW55x_RELEASE_V1.0.2/MSDK/plf/src\init_rom_symbol.c ****         mbedtls_rsa_private_fn = (void *)0x0bf74e92;
 299:C:/Users/stapi/OneDrive/Desktop/GD32VW553/V1_MQTT_OK/GD32VW55X_Wifi_BLE_SDK/GD32VW55x_RELEASE_V1.0.2/MSDK/plf/src\init_rom_symbol.c ****         mbedtls_rsa_private_sw_fn = (void *)0x0bf7496c;
 300:C:/Users/stapi/OneDrive/Desktop/GD32VW553/V1_MQTT_OK/GD32VW55X_Wifi_BLE_SDK/GD32VW55x_RELEASE_V1.0.2/MSDK/plf/src\init_rom_symbol.c ****         mbedtls_rsa_public_fn = (void *)0x0bf74814;
 301:C:/Users/stapi/OneDrive/Desktop/GD32VW553/V1_MQTT_OK/GD32VW55X_Wifi_BLE_SDK/GD32VW55x_RELEASE_V1.0.2/MSDK/plf/src\init_rom_symbol.c ****         mbedtls_rsa_rsaes_oaep_decrypt_fn = (void *)0x0bf7516c;
 302:C:/Users/stapi/OneDrive/Desktop/GD32VW553/V1_MQTT_OK/GD32VW55X_Wifi_BLE_SDK/GD32VW55x_RELEASE_V1.0.2/MSDK/plf/src\init_rom_symbol.c ****         mbedtls_rsa_rsaes_oaep_encrypt_fn = (void *)0x0bf74ea6;
 303:C:/Users/stapi/OneDrive/Desktop/GD32VW553/V1_MQTT_OK/GD32VW55X_Wifi_BLE_SDK/GD32VW55x_RELEASE_V1.0.2/MSDK/plf/src\init_rom_symbol.c ****         mbedtls_rsa_rsaes_pkcs1_v15_decrypt_fn = (void *)0x0bf7539e;
 304:C:/Users/stapi/OneDrive/Desktop/GD32VW553/V1_MQTT_OK/GD32VW55X_Wifi_BLE_SDK/GD32VW55x_RELEASE_V1.0.2/MSDK/plf/src\init_rom_symbol.c ****         mbedtls_rsa_rsaes_pkcs1_v15_encrypt_fn = (void *)0x0bf7500c;
 305:C:/Users/stapi/OneDrive/Desktop/GD32VW553/V1_MQTT_OK/GD32VW55X_Wifi_BLE_SDK/GD32VW55x_RELEASE_V1.0.2/MSDK/plf/src\init_rom_symbol.c ****         mbedtls_rsa_rsassa_pkcs1_v15_sign_fn = (void *)0x0bf7581a;
 306:C:/Users/stapi/OneDrive/Desktop/GD32VW553/V1_MQTT_OK/GD32VW55X_Wifi_BLE_SDK/GD32VW55x_RELEASE_V1.0.2/MSDK/plf/src\init_rom_symbol.c ****         mbedtls_rsa_rsassa_pkcs1_v15_verify_fn = (void *)0x0bf75b8e;
 307:C:/Users/stapi/OneDrive/Desktop/GD32VW553/V1_MQTT_OK/GD32VW55X_Wifi_BLE_SDK/GD32VW55x_RELEASE_V1.0.2/MSDK/plf/src\init_rom_symbol.c ****         mbedtls_rsa_rsassa_pss_sign_fn = (void *)0x0bf75630;
 308:C:/Users/stapi/OneDrive/Desktop/GD32VW553/V1_MQTT_OK/GD32VW55X_Wifi_BLE_SDK/GD32VW55x_RELEASE_V1.0.2/MSDK/plf/src\init_rom_symbol.c ****         mbedtls_rsa_rsassa_pss_verify_fn = (void *)0x0bf75b6e;
 309:C:/Users/stapi/OneDrive/Desktop/GD32VW553/V1_MQTT_OK/GD32VW55X_Wifi_BLE_SDK/GD32VW55x_RELEASE_V1.0.2/MSDK/plf/src\init_rom_symbol.c ****         mbedtls_rsa_rsassa_pss_verify_ext_fn = (void *)0x0bf75946;
 310:C:/Users/stapi/OneDrive/Desktop/GD32VW553/V1_MQTT_OK/GD32VW55X_Wifi_BLE_SDK/GD32VW55x_RELEASE_V1.0.2/MSDK/plf/src\init_rom_symbol.c ****         mbedtls_rsa_set_padding_fn = (void *)0x0bf744c6;
 311:C:/Users/stapi/OneDrive/Desktop/GD32VW553/V1_MQTT_OK/GD32VW55X_Wifi_BLE_SDK/GD32VW55x_RELEASE_V1.0.2/MSDK/plf/src\init_rom_symbol.c ****         mbedtls_sha256_clone_fn = (void *)0x0bf76374;
 312:C:/Users/stapi/OneDrive/Desktop/GD32VW553/V1_MQTT_OK/GD32VW55X_Wifi_BLE_SDK/GD32VW55x_RELEASE_V1.0.2/MSDK/plf/src\init_rom_symbol.c ****         mbedtls_sha256_finish_fn = (void *)0x0bf7642e;
 313:C:/Users/stapi/OneDrive/Desktop/GD32VW553/V1_MQTT_OK/GD32VW55X_Wifi_BLE_SDK/GD32VW55x_RELEASE_V1.0.2/MSDK/plf/src\init_rom_symbol.c ****         mbedtls_sha256_finish_ret_fn = (void *)0x0bf76406;
 314:C:/Users/stapi/OneDrive/Desktop/GD32VW553/V1_MQTT_OK/GD32VW55X_Wifi_BLE_SDK/GD32VW55x_RELEASE_V1.0.2/MSDK/plf/src\init_rom_symbol.c ****         mbedtls_sha256_free_fn = (void *)0x0bf76362;
 315:C:/Users/stapi/OneDrive/Desktop/GD32VW553/V1_MQTT_OK/GD32VW55X_Wifi_BLE_SDK/GD32VW55x_RELEASE_V1.0.2/MSDK/plf/src\init_rom_symbol.c ****         mbedtls_sha256_init_fn = (void *)0x0bf7635e;
 316:C:/Users/stapi/OneDrive/Desktop/GD32VW553/V1_MQTT_OK/GD32VW55X_Wifi_BLE_SDK/GD32VW55x_RELEASE_V1.0.2/MSDK/plf/src\init_rom_symbol.c ****         mbedtls_sha256_starts_fn = (void *)0x0bf763a6;
 317:C:/Users/stapi/OneDrive/Desktop/GD32VW553/V1_MQTT_OK/GD32VW55X_Wifi_BLE_SDK/GD32VW55x_RELEASE_V1.0.2/MSDK/plf/src\init_rom_symbol.c ****         mbedtls_sha256_starts_ret_fn = (void *)0x0bf7637c;
 318:C:/Users/stapi/OneDrive/Desktop/GD32VW553/V1_MQTT_OK/GD32VW55X_Wifi_BLE_SDK/GD32VW55x_RELEASE_V1.0.2/MSDK/plf/src\init_rom_symbol.c ****         mbedtls_sha256_update_fn = (void *)0x0bf763da;
 319:C:/Users/stapi/OneDrive/Desktop/GD32VW553/V1_MQTT_OK/GD32VW55X_Wifi_BLE_SDK/GD32VW55x_RELEASE_V1.0.2/MSDK/plf/src\init_rom_symbol.c ****         mbedtls_sha256_update_ret_fn = (void *)0x0bf763aa;
 320:C:/Users/stapi/OneDrive/Desktop/GD32VW553/V1_MQTT_OK/GD32VW55X_Wifi_BLE_SDK/GD32VW55x_RELEASE_V1.0.2/MSDK/plf/src\init_rom_symbol.c ****     }
 321:C:/Users/stapi/OneDrive/Desktop/GD32VW553/V1_MQTT_OK/GD32VW55X_Wifi_BLE_SDK/GD32VW55x_RELEASE_V1.0.2/MSDK/plf/src\init_rom_symbol.c **** #else
 322:C:/Users/stapi/OneDrive/Desktop/GD32VW553/V1_MQTT_OK/GD32VW55X_Wifi_BLE_SDK/GD32VW55x_RELEASE_V1.0.2/MSDK/plf/src\init_rom_symbol.c ****     mbedtls_hwpka_flag_set(0
 323:C:/Users/stapi/OneDrive/Desktop/GD32VW553/V1_MQTT_OK/GD32VW55X_Wifi_BLE_SDK/GD32VW55x_RELEASE_V1.0.2/MSDK/plf/src\init_rom_symbol.c ****                         | MBEDTLS_HW_EXP_MOD
 324:C:/Users/stapi/OneDrive/Desktop/GD32VW553/V1_MQTT_OK/GD32VW55X_Wifi_BLE_SDK/GD32VW55x_RELEASE_V1.0.2/MSDK/plf/src\init_rom_symbol.c ****                         | MBEDTLS_HW_RSA_PRIVATE
 325:C:/Users/stapi/OneDrive/Desktop/GD32VW553/V1_MQTT_OK/GD32VW55X_Wifi_BLE_SDK/GD32VW55x_RELEASE_V1.0.2/MSDK/plf/src\init_rom_symbol.c ****                         | MBEDTLS_HW_ECDSA_SIGN
 326:C:/Users/stapi/OneDrive/Desktop/GD32VW553/V1_MQTT_OK/GD32VW55X_Wifi_BLE_SDK/GD32VW55x_RELEASE_V1.0.2/MSDK/plf/src\init_rom_symbol.c ****                         | MBEDTLS_HW_ECDSA_VERIFY
 327:C:/Users/stapi/OneDrive/Desktop/GD32VW553/V1_MQTT_OK/GD32VW55X_Wifi_BLE_SDK/GD32VW55x_RELEASE_V1.0.2/MSDK/plf/src\init_rom_symbol.c ****                         | MBEDTLS_HW_ECP_MUL
 328:C:/Users/stapi/OneDrive/Desktop/GD32VW553/V1_MQTT_OK/GD32VW55X_Wifi_BLE_SDK/GD32VW55x_RELEASE_V1.0.2/MSDK/plf/src\init_rom_symbol.c ****                         | MBEDTLS_HW_ECP_CHECK
 329:C:/Users/stapi/OneDrive/Desktop/GD32VW553/V1_MQTT_OK/GD32VW55X_Wifi_BLE_SDK/GD32VW55x_RELEASE_V1.0.2/MSDK/plf/src\init_rom_symbol.c ****                         | MBEDTLS_HW_MPI_MUL);
 330:C:/Users/stapi/OneDrive/Desktop/GD32VW553/V1_MQTT_OK/GD32VW55X_Wifi_BLE_SDK/GD32VW55x_RELEASE_V1.0.2/MSDK/plf/src\init_rom_symbol.c **** #endif /* CONFIG_ASIC_CUT_AUTO */
 331:C:/Users/stapi/OneDrive/Desktop/GD32VW553/V1_MQTT_OK/GD32VW55X_Wifi_BLE_SDK/GD32VW55x_RELEASE_V1.0.2/MSDK/plf/src\init_rom_symbol.c **** }
 828              		.loc 1 331 1
 829 05f2 4101     		addi	sp,sp,16
 830              		.cfi_remember_state
 831              		.cfi_def_cfa_offset 0
 832 05f4 17030000 		tail	__riscv_restore_12
 832      67000300 
 833              		.cfi_restore 27
 834              		.cfi_restore 26
 835              		.cfi_restore 25
 836              		.cfi_restore 24
 837              		.cfi_restore 23
 838              		.cfi_restore 22
 839              		.cfi_restore 21
 840              		.cfi_restore 20
 841              		.cfi_restore 19
 842              		.cfi_restore 18
 843              		.cfi_restore 9
 844              		.cfi_restore 8
 845              		.cfi_restore 1
 846              		.cfi_def_cfa_offset -64
 847              	.LVL2:
 848              	.L2:
 849              		.cfi_restore_state
  63:C:/Users/stapi/OneDrive/Desktop/GD32VW553/V1_MQTT_OK/GD32VW55X_Wifi_BLE_SDK/GD32VW55x_RELEASE_V1.0.2/MSDK/plf/src\init_rom_symbol.c **** #ifndef CONFIG_NEED_RSA_4096
 850              		.loc 1 63 9 is_stmt 1
 851 05fc 1305F007 		li	a0,127
 852 0600 97000000 		call	mbedtls_hwpka_flag_set
 852      E7800000 
 853              	.LVL3:
  76:C:/Users/stapi/OneDrive/Desktop/GD32VW553/V1_MQTT_OK/GD32VW55X_Wifi_BLE_SDK/GD32VW55x_RELEASE_V1.0.2/MSDK/plf/src\init_rom_symbol.c **** #ifndef EXEC_USING_STD_PRINTF
 854              		.loc 1 76 5
 202:C:/Users/stapi/OneDrive/Desktop/GD32VW553/V1_MQTT_OK/GD32VW55X_Wifi_BLE_SDK/GD32VW55x_RELEASE_V1.0.2/MSDK/plf/src\init_rom_symbol.c ****         mbedtls_ecdsa_free_fn = (void *)0x0bf71390;
 855              		.loc 1 202 9
 202:C:/Users/stapi/OneDrive/Desktop/GD32VW553/V1_MQTT_OK/GD32VW55X_Wifi_BLE_SDK/GD32VW55x_RELEASE_V1.0.2/MSDK/plf/src\init_rom_symbol.c ****         mbedtls_ecdsa_free_fn = (void *)0x0bf71390;
 856              		.loc 1 202 30 is_stmt 0
 857 0608 3747F70B 		li	a4,200753152
 203:C:/Users/stapi/OneDrive/Desktop/GD32VW553/V1_MQTT_OK/GD32VW55X_Wifi_BLE_SDK/GD32VW55x_RELEASE_V1.0.2/MSDK/plf/src\init_rom_symbol.c ****         mbedtls_ecdsa_from_keypair_fn = (void *)0x0bf7133e;
 858              		.loc 1 203 31
 859 060c B715F70B 		li	a1,200740864
 202:C:/Users/stapi/OneDrive/Desktop/GD32VW553/V1_MQTT_OK/GD32VW55X_Wifi_BLE_SDK/GD32VW55x_RELEASE_V1.0.2/MSDK/plf/src\init_rom_symbol.c ****         mbedtls_ecdsa_free_fn = (void *)0x0bf71390;
 860              		.loc 1 202 30
 861 0610 1303C7A7 		addi	t1,a4,-1412
 862 0614 B7080000 		lui	a7,%hi(.LANCHOR0)
 203:C:/Users/stapi/OneDrive/Desktop/GD32VW553/V1_MQTT_OK/GD32VW55X_Wifi_BLE_SDK/GD32VW55x_RELEASE_V1.0.2/MSDK/plf/src\init_rom_symbol.c ****         mbedtls_ecdsa_from_keypair_fn = (void *)0x0bf7133e;
 863              		.loc 1 203 31
 864 0618 93820539 		addi	t0,a1,912
 202:C:/Users/stapi/OneDrive/Desktop/GD32VW553/V1_MQTT_OK/GD32VW55X_Wifi_BLE_SDK/GD32VW55x_RELEASE_V1.0.2/MSDK/plf/src\init_rom_symbol.c ****         mbedtls_ecdsa_free_fn = (void *)0x0bf71390;
 865              		.loc 1 202 30
 866 061c 23A06800 		sw	t1,%lo(.LANCHOR0)(a7)
 203:C:/Users/stapi/OneDrive/Desktop/GD32VW553/V1_MQTT_OK/GD32VW55X_Wifi_BLE_SDK/GD32VW55x_RELEASE_V1.0.2/MSDK/plf/src\init_rom_symbol.c ****         mbedtls_ecdsa_from_keypair_fn = (void *)0x0bf7133e;
 867              		.loc 1 203 9 is_stmt 1
 203:C:/Users/stapi/OneDrive/Desktop/GD32VW553/V1_MQTT_OK/GD32VW55X_Wifi_BLE_SDK/GD32VW55x_RELEASE_V1.0.2/MSDK/plf/src\init_rom_symbol.c ****         mbedtls_ecdsa_from_keypair_fn = (void *)0x0bf7133e;
 868              		.loc 1 203 31 is_stmt 0
 869 0620 B7080000 		lui	a7,%hi(.LANCHOR1)
 204:C:/Users/stapi/OneDrive/Desktop/GD32VW553/V1_MQTT_OK/GD32VW55X_Wifi_BLE_SDK/GD32VW55x_RELEASE_V1.0.2/MSDK/plf/src\init_rom_symbol.c ****         mbedtls_ecdsa_genkey_fn = (void *)0x0bf71300;
 870              		.loc 1 204 39
 871 0624 9383E533 		addi	t2,a1,830
 203:C:/Users/stapi/OneDrive/Desktop/GD32VW553/V1_MQTT_OK/GD32VW55X_Wifi_BLE_SDK/GD32VW55x_RELEASE_V1.0.2/MSDK/plf/src\init_rom_symbol.c ****         mbedtls_ecdsa_from_keypair_fn = (void *)0x0bf7133e;
 872              		.loc 1 203 31
 873 0628 23A05800 		sw	t0,%lo(.LANCHOR1)(a7)
 204:C:/Users/stapi/OneDrive/Desktop/GD32VW553/V1_MQTT_OK/GD32VW55X_Wifi_BLE_SDK/GD32VW55x_RELEASE_V1.0.2/MSDK/plf/src\init_rom_symbol.c ****         mbedtls_ecdsa_genkey_fn = (void *)0x0bf71300;
 874              		.loc 1 204 9 is_stmt 1
 204:C:/Users/stapi/OneDrive/Desktop/GD32VW553/V1_MQTT_OK/GD32VW55X_Wifi_BLE_SDK/GD32VW55x_RELEASE_V1.0.2/MSDK/plf/src\init_rom_symbol.c ****         mbedtls_ecdsa_genkey_fn = (void *)0x0bf71300;
 875              		.loc 1 204 39 is_stmt 0
 876 062c B7080000 		lui	a7,%hi(.LANCHOR2)
 205:C:/Users/stapi/OneDrive/Desktop/GD32VW553/V1_MQTT_OK/GD32VW55X_Wifi_BLE_SDK/GD32VW55x_RELEASE_V1.0.2/MSDK/plf/src\init_rom_symbol.c ****         mbedtls_ecdsa_init_fn = (void *)0x0bf7138c;
 877              		.loc 1 205 33
 878 0630 938E0530 		addi	t4,a1,768
 204:C:/Users/stapi/OneDrive/Desktop/GD32VW553/V1_MQTT_OK/GD32VW55X_Wifi_BLE_SDK/GD32VW55x_RELEASE_V1.0.2/MSDK/plf/src\init_rom_symbol.c ****         mbedtls_ecdsa_genkey_fn = (void *)0x0bf71300;
 879              		.loc 1 204 39
 880 0634 23A07800 		sw	t2,%lo(.LANCHOR2)(a7)
 205:C:/Users/stapi/OneDrive/Desktop/GD32VW553/V1_MQTT_OK/GD32VW55X_Wifi_BLE_SDK/GD32VW55x_RELEASE_V1.0.2/MSDK/plf/src\init_rom_symbol.c ****         mbedtls_ecdsa_init_fn = (void *)0x0bf7138c;
 881              		.loc 1 205 9 is_stmt 1
 205:C:/Users/stapi/OneDrive/Desktop/GD32VW553/V1_MQTT_OK/GD32VW55X_Wifi_BLE_SDK/GD32VW55x_RELEASE_V1.0.2/MSDK/plf/src\init_rom_symbol.c ****         mbedtls_ecdsa_init_fn = (void *)0x0bf7138c;
 882              		.loc 1 205 33 is_stmt 0
 883 0638 B7080000 		lui	a7,%hi(.LANCHOR3)
 206:C:/Users/stapi/OneDrive/Desktop/GD32VW553/V1_MQTT_OK/GD32VW55X_Wifi_BLE_SDK/GD32VW55x_RELEASE_V1.0.2/MSDK/plf/src\init_rom_symbol.c ****         mbedtls_ecdsa_read_signature_fn = (void *)0x0bf712fa;
 884              		.loc 1 206 31
 885 063c 138EC538 		addi	t3,a1,908
 205:C:/Users/stapi/OneDrive/Desktop/GD32VW553/V1_MQTT_OK/GD32VW55X_Wifi_BLE_SDK/GD32VW55x_RELEASE_V1.0.2/MSDK/plf/src\init_rom_symbol.c ****         mbedtls_ecdsa_init_fn = (void *)0x0bf7138c;
 886              		.loc 1 205 33
 887 0640 23A0D801 		sw	t4,%lo(.LANCHOR3)(a7)
 206:C:/Users/stapi/OneDrive/Desktop/GD32VW553/V1_MQTT_OK/GD32VW55X_Wifi_BLE_SDK/GD32VW55x_RELEASE_V1.0.2/MSDK/plf/src\init_rom_symbol.c ****         mbedtls_ecdsa_read_signature_fn = (void *)0x0bf712fa;
 888              		.loc 1 206 9 is_stmt 1
 206:C:/Users/stapi/OneDrive/Desktop/GD32VW553/V1_MQTT_OK/GD32VW55X_Wifi_BLE_SDK/GD32VW55x_RELEASE_V1.0.2/MSDK/plf/src\init_rom_symbol.c ****         mbedtls_ecdsa_read_signature_fn = (void *)0x0bf712fa;
 889              		.loc 1 206 31 is_stmt 0
 890 0644 B7080000 		lui	a7,%hi(.LANCHOR4)
 207:C:/Users/stapi/OneDrive/Desktop/GD32VW553/V1_MQTT_OK/GD32VW55X_Wifi_BLE_SDK/GD32VW55x_RELEASE_V1.0.2/MSDK/plf/src\init_rom_symbol.c ****         mbedtls_ecdsa_read_signature_restartable_fn = (void *)0x0bf71254;
 891              		.loc 1 207 41
 892 0648 1383A52F 		addi	t1,a1,762
 206:C:/Users/stapi/OneDrive/Desktop/GD32VW553/V1_MQTT_OK/GD32VW55X_Wifi_BLE_SDK/GD32VW55x_RELEASE_V1.0.2/MSDK/plf/src\init_rom_symbol.c ****         mbedtls_ecdsa_read_signature_fn = (void *)0x0bf712fa;
 893              		.loc 1 206 31
 894 064c 23A0C801 		sw	t3,%lo(.LANCHOR4)(a7)
 207:C:/Users/stapi/OneDrive/Desktop/GD32VW553/V1_MQTT_OK/GD32VW55X_Wifi_BLE_SDK/GD32VW55x_RELEASE_V1.0.2/MSDK/plf/src\init_rom_symbol.c ****         mbedtls_ecdsa_read_signature_restartable_fn = (void *)0x0bf71254;
 895              		.loc 1 207 9 is_stmt 1
 207:C:/Users/stapi/OneDrive/Desktop/GD32VW553/V1_MQTT_OK/GD32VW55X_Wifi_BLE_SDK/GD32VW55x_RELEASE_V1.0.2/MSDK/plf/src\init_rom_symbol.c ****         mbedtls_ecdsa_read_signature_restartable_fn = (void *)0x0bf71254;
 896              		.loc 1 207 41 is_stmt 0
 897 0650 B7080000 		lui	a7,%hi(.LANCHOR5)
 208:C:/Users/stapi/OneDrive/Desktop/GD32VW553/V1_MQTT_OK/GD32VW55X_Wifi_BLE_SDK/GD32VW55x_RELEASE_V1.0.2/MSDK/plf/src\init_rom_symbol.c ****         mbedtls_ecdsa_sign_fn = (void *)0x0bf70b6e;
 898              		.loc 1 208 53
 899 0654 93824525 		addi	t0,a1,596
 207:C:/Users/stapi/OneDrive/Desktop/GD32VW553/V1_MQTT_OK/GD32VW55X_Wifi_BLE_SDK/GD32VW55x_RELEASE_V1.0.2/MSDK/plf/src\init_rom_symbol.c ****         mbedtls_ecdsa_read_signature_restartable_fn = (void *)0x0bf71254;
 900              		.loc 1 207 41
 901 0658 23A06800 		sw	t1,%lo(.LANCHOR5)(a7)
 208:C:/Users/stapi/OneDrive/Desktop/GD32VW553/V1_MQTT_OK/GD32VW55X_Wifi_BLE_SDK/GD32VW55x_RELEASE_V1.0.2/MSDK/plf/src\init_rom_symbol.c ****         mbedtls_ecdsa_sign_fn = (void *)0x0bf70b6e;
 902              		.loc 1 208 9 is_stmt 1
 208:C:/Users/stapi/OneDrive/Desktop/GD32VW553/V1_MQTT_OK/GD32VW55X_Wifi_BLE_SDK/GD32VW55x_RELEASE_V1.0.2/MSDK/plf/src\init_rom_symbol.c ****         mbedtls_ecdsa_sign_fn = (void *)0x0bf70b6e;
 903              		.loc 1 208 53 is_stmt 0
 904 065c B7080000 		lui	a7,%hi(.LANCHOR6)
 209:C:/Users/stapi/OneDrive/Desktop/GD32VW553/V1_MQTT_OK/GD32VW55X_Wifi_BLE_SDK/GD32VW55x_RELEASE_V1.0.2/MSDK/plf/src\init_rom_symbol.c ****         mbedtls_ecdsa_sign_det_fn = (void *)0x0bf70f2e;
 905              		.loc 1 209 31
 906 0660 9383E5B6 		addi	t2,a1,-1170
 208:C:/Users/stapi/OneDrive/Desktop/GD32VW553/V1_MQTT_OK/GD32VW55X_Wifi_BLE_SDK/GD32VW55x_RELEASE_V1.0.2/MSDK/plf/src\init_rom_symbol.c ****         mbedtls_ecdsa_sign_fn = (void *)0x0bf70b6e;
 907              		.loc 1 208 53
 908 0664 23A05800 		sw	t0,%lo(.LANCHOR6)(a7)
 209:C:/Users/stapi/OneDrive/Desktop/GD32VW553/V1_MQTT_OK/GD32VW55X_Wifi_BLE_SDK/GD32VW55x_RELEASE_V1.0.2/MSDK/plf/src\init_rom_symbol.c ****         mbedtls_ecdsa_sign_det_fn = (void *)0x0bf70f2e;
 909              		.loc 1 209 9 is_stmt 1
 209:C:/Users/stapi/OneDrive/Desktop/GD32VW553/V1_MQTT_OK/GD32VW55X_Wifi_BLE_SDK/GD32VW55x_RELEASE_V1.0.2/MSDK/plf/src\init_rom_symbol.c ****         mbedtls_ecdsa_sign_det_fn = (void *)0x0bf70f2e;
 910              		.loc 1 209 31 is_stmt 0
 911 0668 B7080000 		lui	a7,%hi(.LANCHOR7)
 210:C:/Users/stapi/OneDrive/Desktop/GD32VW553/V1_MQTT_OK/GD32VW55X_Wifi_BLE_SDK/GD32VW55x_RELEASE_V1.0.2/MSDK/plf/src\init_rom_symbol.c ****         mbedtls_ecdsa_verify_fn = (void *)0x0bf70f32;
 912              		.loc 1 210 35
 913 066c 938EE5F2 		addi	t4,a1,-210
 209:C:/Users/stapi/OneDrive/Desktop/GD32VW553/V1_MQTT_OK/GD32VW55X_Wifi_BLE_SDK/GD32VW55x_RELEASE_V1.0.2/MSDK/plf/src\init_rom_symbol.c ****         mbedtls_ecdsa_sign_det_fn = (void *)0x0bf70f2e;
 914              		.loc 1 209 31
 915 0670 23A07800 		sw	t2,%lo(.LANCHOR7)(a7)
 210:C:/Users/stapi/OneDrive/Desktop/GD32VW553/V1_MQTT_OK/GD32VW55X_Wifi_BLE_SDK/GD32VW55x_RELEASE_V1.0.2/MSDK/plf/src\init_rom_symbol.c ****         mbedtls_ecdsa_verify_fn = (void *)0x0bf70f32;
 916              		.loc 1 210 9 is_stmt 1
 210:C:/Users/stapi/OneDrive/Desktop/GD32VW553/V1_MQTT_OK/GD32VW55X_Wifi_BLE_SDK/GD32VW55x_RELEASE_V1.0.2/MSDK/plf/src\init_rom_symbol.c ****         mbedtls_ecdsa_verify_fn = (void *)0x0bf70f32;
 917              		.loc 1 210 35 is_stmt 0
 918 0674 B7080000 		lui	a7,%hi(.LANCHOR8)
 211:C:/Users/stapi/OneDrive/Desktop/GD32VW553/V1_MQTT_OK/GD32VW55X_Wifi_BLE_SDK/GD32VW55x_RELEASE_V1.0.2/MSDK/plf/src\init_rom_symbol.c ****         mbedtls_ecdsa_write_signature_fn = (void *)0x0bf71224;
 919              		.loc 1 211 33
 920 0678 138E25F3 		addi	t3,a1,-206
 210:C:/Users/stapi/OneDrive/Desktop/GD32VW553/V1_MQTT_OK/GD32VW55X_Wifi_BLE_SDK/GD32VW55x_RELEASE_V1.0.2/MSDK/plf/src\init_rom_symbol.c ****         mbedtls_ecdsa_verify_fn = (void *)0x0bf70f32;
 921              		.loc 1 210 35
 922 067c 23A0D801 		sw	t4,%lo(.LANCHOR8)(a7)
 211:C:/Users/stapi/OneDrive/Desktop/GD32VW553/V1_MQTT_OK/GD32VW55X_Wifi_BLE_SDK/GD32VW55x_RELEASE_V1.0.2/MSDK/plf/src\init_rom_symbol.c ****         mbedtls_ecdsa_write_signature_fn = (void *)0x0bf71224;
 923              		.loc 1 211 9 is_stmt 1
 211:C:/Users/stapi/OneDrive/Desktop/GD32VW553/V1_MQTT_OK/GD32VW55X_Wifi_BLE_SDK/GD32VW55x_RELEASE_V1.0.2/MSDK/plf/src\init_rom_symbol.c ****         mbedtls_ecdsa_write_signature_fn = (void *)0x0bf71224;
 924              		.loc 1 211 33 is_stmt 0
 925 0680 B7080000 		lui	a7,%hi(.LANCHOR9)
 212:C:/Users/stapi/OneDrive/Desktop/GD32VW553/V1_MQTT_OK/GD32VW55X_Wifi_BLE_SDK/GD32VW55x_RELEASE_V1.0.2/MSDK/plf/src\init_rom_symbol.c ****         mbedtls_ecdsa_write_signature_det_fn = (void *)0x0bf71234;
 926              		.loc 1 212 42
 927 0684 13834522 		addi	t1,a1,548
 211:C:/Users/stapi/OneDrive/Desktop/GD32VW553/V1_MQTT_OK/GD32VW55X_Wifi_BLE_SDK/GD32VW55x_RELEASE_V1.0.2/MSDK/plf/src\init_rom_symbol.c ****         mbedtls_ecdsa_write_signature_fn = (void *)0x0bf71224;
 928              		.loc 1 211 33
 929 0688 23A0C801 		sw	t3,%lo(.LANCHOR9)(a7)
 212:C:/Users/stapi/OneDrive/Desktop/GD32VW553/V1_MQTT_OK/GD32VW55X_Wifi_BLE_SDK/GD32VW55x_RELEASE_V1.0.2/MSDK/plf/src\init_rom_symbol.c ****         mbedtls_ecdsa_write_signature_det_fn = (void *)0x0bf71234;
 930              		.loc 1 212 9 is_stmt 1
 212:C:/Users/stapi/OneDrive/Desktop/GD32VW553/V1_MQTT_OK/GD32VW55X_Wifi_BLE_SDK/GD32VW55x_RELEASE_V1.0.2/MSDK/plf/src\init_rom_symbol.c ****         mbedtls_ecdsa_write_signature_det_fn = (void *)0x0bf71234;
 931              		.loc 1 212 42 is_stmt 0
 932 068c B7080000 		lui	a7,%hi(.LANCHOR10)
 213:C:/Users/stapi/OneDrive/Desktop/GD32VW553/V1_MQTT_OK/GD32VW55X_Wifi_BLE_SDK/GD32VW55x_RELEASE_V1.0.2/MSDK/plf/src\init_rom_symbol.c ****         mbedtls_ecdsa_write_signature_restartable_fn = (void *)0x0bf7115e;
 933              		.loc 1 213 46
 934 0690 93824523 		addi	t0,a1,564
 212:C:/Users/stapi/OneDrive/Desktop/GD32VW553/V1_MQTT_OK/GD32VW55X_Wifi_BLE_SDK/GD32VW55x_RELEASE_V1.0.2/MSDK/plf/src\init_rom_symbol.c ****         mbedtls_ecdsa_write_signature_det_fn = (void *)0x0bf71234;
 935              		.loc 1 212 42
 936 0694 23A06800 		sw	t1,%lo(.LANCHOR10)(a7)
 213:C:/Users/stapi/OneDrive/Desktop/GD32VW553/V1_MQTT_OK/GD32VW55X_Wifi_BLE_SDK/GD32VW55x_RELEASE_V1.0.2/MSDK/plf/src\init_rom_symbol.c ****         mbedtls_ecdsa_write_signature_restartable_fn = (void *)0x0bf7115e;
 937              		.loc 1 213 9 is_stmt 1
 213:C:/Users/stapi/OneDrive/Desktop/GD32VW553/V1_MQTT_OK/GD32VW55X_Wifi_BLE_SDK/GD32VW55x_RELEASE_V1.0.2/MSDK/plf/src\init_rom_symbol.c ****         mbedtls_ecdsa_write_signature_restartable_fn = (void *)0x0bf7115e;
 938              		.loc 1 213 46 is_stmt 0
 939 0698 B7080000 		lui	a7,%hi(.LANCHOR11)
 215:C:/Users/stapi/OneDrive/Desktop/GD32VW553/V1_MQTT_OK/GD32VW55X_Wifi_BLE_SDK/GD32VW55x_RELEASE_V1.0.2/MSDK/plf/src\init_rom_symbol.c ****         mbedtls_ecp_check_pub_priv_fn = (void *)0x0bf73848;
 940              		.loc 1 215 38
 941 069c 3736F70B 		li	a2,200749056
 213:C:/Users/stapi/OneDrive/Desktop/GD32VW553/V1_MQTT_OK/GD32VW55X_Wifi_BLE_SDK/GD32VW55x_RELEASE_V1.0.2/MSDK/plf/src\init_rom_symbol.c ****         mbedtls_ecdsa_write_signature_restartable_fn = (void *)0x0bf7115e;
 942              		.loc 1 213 46
 943 06a0 23A05800 		sw	t0,%lo(.LANCHOR11)(a7)
 214:C:/Users/stapi/OneDrive/Desktop/GD32VW553/V1_MQTT_OK/GD32VW55X_Wifi_BLE_SDK/GD32VW55x_RELEASE_V1.0.2/MSDK/plf/src\init_rom_symbol.c ****         mbedtls_ecp_check_privkey_fn = (void *)0x0bf72a0e;
 944              		.loc 1 214 9 is_stmt 1
 214:C:/Users/stapi/OneDrive/Desktop/GD32VW553/V1_MQTT_OK/GD32VW55X_Wifi_BLE_SDK/GD32VW55x_RELEASE_V1.0.2/MSDK/plf/src\init_rom_symbol.c ****         mbedtls_ecp_check_privkey_fn = (void *)0x0bf72a0e;
 945              		.loc 1 214 54 is_stmt 0
 946 06a4 9385E515 		addi	a1,a1,350
 947 06a8 B7020000 		lui	t0,%hi(.LANCHOR12)
 218:C:/Users/stapi/OneDrive/Desktop/GD32VW553/V1_MQTT_OK/GD32VW55X_Wifi_BLE_SDK/GD32VW55x_RELEASE_V1.0.2/MSDK/plf/src\init_rom_symbol.c ****         mbedtls_ecp_curve_info_from_grp_id_fn = (void *)0x0bf71d4e;
 948              		.loc 1 218 29
 949 06ac B726F70B 		li	a3,200744960
 215:C:/Users/stapi/OneDrive/Desktop/GD32VW553/V1_MQTT_OK/GD32VW55X_Wifi_BLE_SDK/GD32VW55x_RELEASE_V1.0.2/MSDK/plf/src\init_rom_symbol.c ****         mbedtls_ecp_check_pub_priv_fn = (void *)0x0bf73848;
 950              		.loc 1 215 38
 951 06b0 930FE6A0 		addi	t6,a2,-1522
 214:C:/Users/stapi/OneDrive/Desktop/GD32VW553/V1_MQTT_OK/GD32VW55X_Wifi_BLE_SDK/GD32VW55x_RELEASE_V1.0.2/MSDK/plf/src\init_rom_symbol.c ****         mbedtls_ecp_check_privkey_fn = (void *)0x0bf72a0e;
 952              		.loc 1 214 54
 953 06b4 23A0B200 		sw	a1,%lo(.LANCHOR12)(t0)
 215:C:/Users/stapi/OneDrive/Desktop/GD32VW553/V1_MQTT_OK/GD32VW55X_Wifi_BLE_SDK/GD32VW55x_RELEASE_V1.0.2/MSDK/plf/src\init_rom_symbol.c ****         mbedtls_ecp_check_pub_priv_fn = (void *)0x0bf73848;
 954              		.loc 1 215 9 is_stmt 1
 215:C:/Users/stapi/OneDrive/Desktop/GD32VW553/V1_MQTT_OK/GD32VW55X_Wifi_BLE_SDK/GD32VW55x_RELEASE_V1.0.2/MSDK/plf/src\init_rom_symbol.c ****         mbedtls_ecp_check_pub_priv_fn = (void *)0x0bf73848;
 955              		.loc 1 215 38 is_stmt 0
 956 06b8 B7050000 		lui	a1,%hi(.LANCHOR13)
 218:C:/Users/stapi/OneDrive/Desktop/GD32VW553/V1_MQTT_OK/GD32VW55X_Wifi_BLE_SDK/GD32VW55x_RELEASE_V1.0.2/MSDK/plf/src\init_rom_symbol.c ****         mbedtls_ecp_curve_info_from_grp_id_fn = (void *)0x0bf71d4e;
 957              		.loc 1 218 29
 958 06bc 138F26F4 		addi	t5,a3,-190
 215:C:/Users/stapi/OneDrive/Desktop/GD32VW553/V1_MQTT_OK/GD32VW55X_Wifi_BLE_SDK/GD32VW55x_RELEASE_V1.0.2/MSDK/plf/src\init_rom_symbol.c ****         mbedtls_ecp_check_pub_priv_fn = (void *)0x0bf73848;
 959              		.loc 1 215 38
 960 06c0 23A0F501 		sw	t6,%lo(.LANCHOR13)(a1)
 216:C:/Users/stapi/OneDrive/Desktop/GD32VW553/V1_MQTT_OK/GD32VW55X_Wifi_BLE_SDK/GD32VW55x_RELEASE_V1.0.2/MSDK/plf/src\init_rom_symbol.c ****         mbedtls_ecp_check_pubkey_fn = (void *)0x0bf72c78;
 961              		.loc 1 216 9 is_stmt 1
 218:C:/Users/stapi/OneDrive/Desktop/GD32VW553/V1_MQTT_OK/GD32VW55X_Wifi_BLE_SDK/GD32VW55x_RELEASE_V1.0.2/MSDK/plf/src\init_rom_symbol.c ****         mbedtls_ecp_curve_info_from_grp_id_fn = (void *)0x0bf71d4e;
 962              		.loc 1 218 29 is_stmt 0
 963 06c4 B7050000 		lui	a1,%hi(.LANCHOR16)
 219:C:/Users/stapi/OneDrive/Desktop/GD32VW553/V1_MQTT_OK/GD32VW55X_Wifi_BLE_SDK/GD32VW55x_RELEASE_V1.0.2/MSDK/plf/src\init_rom_symbol.c ****         mbedtls_ecp_curve_info_from_name_fn = (void *)0x0bf71daa;
 964              		.loc 1 219 47
 965 06c8 938EE6D4 		addi	t4,a3,-690
 218:C:/Users/stapi/OneDrive/Desktop/GD32VW553/V1_MQTT_OK/GD32VW55X_Wifi_BLE_SDK/GD32VW55x_RELEASE_V1.0.2/MSDK/plf/src\init_rom_symbol.c ****         mbedtls_ecp_curve_info_from_grp_id_fn = (void *)0x0bf71d4e;
 966              		.loc 1 218 29
 967 06cc 23A0E501 		sw	t5,%lo(.LANCHOR16)(a1)
 219:C:/Users/stapi/OneDrive/Desktop/GD32VW553/V1_MQTT_OK/GD32VW55X_Wifi_BLE_SDK/GD32VW55x_RELEASE_V1.0.2/MSDK/plf/src\init_rom_symbol.c ****         mbedtls_ecp_curve_info_from_name_fn = (void *)0x0bf71daa;
 968              		.loc 1 219 47
 969 06d0 B7050000 		lui	a1,%hi(.LANCHOR17)
 220:C:/Users/stapi/OneDrive/Desktop/GD32VW553/V1_MQTT_OK/GD32VW55X_Wifi_BLE_SDK/GD32VW55x_RELEASE_V1.0.2/MSDK/plf/src\init_rom_symbol.c ****         mbedtls_ecp_curve_info_from_tls_id_fn = (void *)0x0bf71d7a;
 970              		.loc 1 220 45
 971 06d4 138EA6DA 		addi	t3,a3,-598
 219:C:/Users/stapi/OneDrive/Desktop/GD32VW553/V1_MQTT_OK/GD32VW55X_Wifi_BLE_SDK/GD32VW55x_RELEASE_V1.0.2/MSDK/plf/src\init_rom_symbol.c ****         mbedtls_ecp_curve_info_from_name_fn = (void *)0x0bf71daa;
 972              		.loc 1 219 47
 973 06d8 23A0D501 		sw	t4,%lo(.LANCHOR17)(a1)
 220:C:/Users/stapi/OneDrive/Desktop/GD32VW553/V1_MQTT_OK/GD32VW55X_Wifi_BLE_SDK/GD32VW55x_RELEASE_V1.0.2/MSDK/plf/src\init_rom_symbol.c ****         mbedtls_ecp_curve_info_from_tls_id_fn = (void *)0x0bf71d7a;
 974              		.loc 1 220 45
 975 06dc B7050000 		lui	a1,%hi(.LANCHOR18)
 221:C:/Users/stapi/OneDrive/Desktop/GD32VW553/V1_MQTT_OK/GD32VW55X_Wifi_BLE_SDK/GD32VW55x_RELEASE_V1.0.2/MSDK/plf/src\init_rom_symbol.c ****         mbedtls_ecp_curve_list_fn = (void *)0x0bf71cda;
 976              		.loc 1 221 47
 977 06e0 1383A6D7 		addi	t1,a3,-646
 220:C:/Users/stapi/OneDrive/Desktop/GD32VW553/V1_MQTT_OK/GD32VW55X_Wifi_BLE_SDK/GD32VW55x_RELEASE_V1.0.2/MSDK/plf/src\init_rom_symbol.c ****         mbedtls_ecp_curve_info_from_tls_id_fn = (void *)0x0bf71d7a;
 978              		.loc 1 220 45
 979 06e4 23A0C501 		sw	t3,%lo(.LANCHOR18)(a1)
 221:C:/Users/stapi/OneDrive/Desktop/GD32VW553/V1_MQTT_OK/GD32VW55X_Wifi_BLE_SDK/GD32VW55x_RELEASE_V1.0.2/MSDK/plf/src\init_rom_symbol.c ****         mbedtls_ecp_curve_list_fn = (void *)0x0bf71cda;
 980              		.loc 1 221 47
 981 06e8 B7050000 		lui	a1,%hi(.LANCHOR19)
 222:C:/Users/stapi/OneDrive/Desktop/GD32VW553/V1_MQTT_OK/GD32VW55X_Wifi_BLE_SDK/GD32VW55x_RELEASE_V1.0.2/MSDK/plf/src\init_rom_symbol.c ****         mbedtls_ecp_gen_key_fn = (void *)0x0bf73802;
 982              		.loc 1 222 35
 983 06ec 9388A6CD 		addi	a7,a3,-806
 221:C:/Users/stapi/OneDrive/Desktop/GD32VW553/V1_MQTT_OK/GD32VW55X_Wifi_BLE_SDK/GD32VW55x_RELEASE_V1.0.2/MSDK/plf/src\init_rom_symbol.c ****         mbedtls_ecp_curve_list_fn = (void *)0x0bf71cda;
 984              		.loc 1 221 47
 985 06f0 23A06500 		sw	t1,%lo(.LANCHOR19)(a1)
 222:C:/Users/stapi/OneDrive/Desktop/GD32VW553/V1_MQTT_OK/GD32VW55X_Wifi_BLE_SDK/GD32VW55x_RELEASE_V1.0.2/MSDK/plf/src\init_rom_symbol.c ****         mbedtls_ecp_gen_key_fn = (void *)0x0bf73802;
 986              		.loc 1 222 35
 987 06f4 B7050000 		lui	a1,%hi(.LANCHOR20)
 227:C:/Users/stapi/OneDrive/Desktop/GD32VW553/V1_MQTT_OK/GD32VW55X_Wifi_BLE_SDK/GD32VW55x_RELEASE_V1.0.2/MSDK/plf/src\init_rom_symbol.c ****         mbedtls_ecp_group_free_fn = (void *)0x0bf71e9c;
 988              		.loc 1 227 35
 989 06f8 938206F8 		addi	t0,a3,-128
 222:C:/Users/stapi/OneDrive/Desktop/GD32VW553/V1_MQTT_OK/GD32VW55X_Wifi_BLE_SDK/GD32VW55x_RELEASE_V1.0.2/MSDK/plf/src\init_rom_symbol.c ****         mbedtls_ecp_gen_key_fn = (void *)0x0bf73802;
 990              		.loc 1 222 35
 991 06fc 23A01501 		sw	a7,%lo(.LANCHOR20)(a1)
 227:C:/Users/stapi/OneDrive/Desktop/GD32VW553/V1_MQTT_OK/GD32VW55X_Wifi_BLE_SDK/GD32VW55x_RELEASE_V1.0.2/MSDK/plf/src\init_rom_symbol.c ****         mbedtls_ecp_group_free_fn = (void *)0x0bf71e9c;
 992              		.loc 1 227 35
 993 0700 B7050000 		lui	a1,%hi(.LANCHOR25)
 228:C:/Users/stapi/OneDrive/Desktop/GD32VW553/V1_MQTT_OK/GD32VW55X_Wifi_BLE_SDK/GD32VW55x_RELEASE_V1.0.2/MSDK/plf/src\init_rom_symbol.c ****         mbedtls_ecp_group_init_fn = (void *)0x0bf71e14;
 994              		.loc 1 228 35
 995 0704 938FC6E9 		addi	t6,a3,-356
 227:C:/Users/stapi/OneDrive/Desktop/GD32VW553/V1_MQTT_OK/GD32VW55X_Wifi_BLE_SDK/GD32VW55x_RELEASE_V1.0.2/MSDK/plf/src\init_rom_symbol.c ****         mbedtls_ecp_group_free_fn = (void *)0x0bf71e9c;
 996              		.loc 1 227 35
 997 0708 23A05500 		sw	t0,%lo(.LANCHOR25)(a1)
 228:C:/Users/stapi/OneDrive/Desktop/GD32VW553/V1_MQTT_OK/GD32VW55X_Wifi_BLE_SDK/GD32VW55x_RELEASE_V1.0.2/MSDK/plf/src\init_rom_symbol.c ****         mbedtls_ecp_group_init_fn = (void *)0x0bf71e14;
 998              		.loc 1 228 35
 999 070c B7050000 		lui	a1,%hi(.LANCHOR26)
 229:C:/Users/stapi/OneDrive/Desktop/GD32VW553/V1_MQTT_OK/GD32VW55X_Wifi_BLE_SDK/GD32VW55x_RELEASE_V1.0.2/MSDK/plf/src\init_rom_symbol.c ****         mbedtls_ecp_grp_id_list_fn = (void *)0x0bf71d02;
 1000              		.loc 1 229 35
 1001 0710 138F46E1 		addi	t5,a3,-492
 228:C:/Users/stapi/OneDrive/Desktop/GD32VW553/V1_MQTT_OK/GD32VW55X_Wifi_BLE_SDK/GD32VW55x_RELEASE_V1.0.2/MSDK/plf/src\init_rom_symbol.c ****         mbedtls_ecp_group_init_fn = (void *)0x0bf71e14;
 1002              		.loc 1 228 35
 1003 0714 23A0F501 		sw	t6,%lo(.LANCHOR26)(a1)
 229:C:/Users/stapi/OneDrive/Desktop/GD32VW553/V1_MQTT_OK/GD32VW55X_Wifi_BLE_SDK/GD32VW55x_RELEASE_V1.0.2/MSDK/plf/src\init_rom_symbol.c ****         mbedtls_ecp_grp_id_list_fn = (void *)0x0bf71d02;
 1004              		.loc 1 229 35
 1005 0718 B7050000 		lui	a1,%hi(.LANCHOR27)
 230:C:/Users/stapi/OneDrive/Desktop/GD32VW553/V1_MQTT_OK/GD32VW55X_Wifi_BLE_SDK/GD32VW55x_RELEASE_V1.0.2/MSDK/plf/src\init_rom_symbol.c ****         mbedtls_ecp_is_zero_fn = (void *)0x0bf726b4;
 1006              		.loc 1 230 36
 1007 071c 938E26D0 		addi	t4,a3,-766
 229:C:/Users/stapi/OneDrive/Desktop/GD32VW553/V1_MQTT_OK/GD32VW55X_Wifi_BLE_SDK/GD32VW55x_RELEASE_V1.0.2/MSDK/plf/src\init_rom_symbol.c ****         mbedtls_ecp_grp_id_list_fn = (void *)0x0bf71d02;
 1008              		.loc 1 229 35
 1009 0720 23A0E501 		sw	t5,%lo(.LANCHOR27)(a1)
 230:C:/Users/stapi/OneDrive/Desktop/GD32VW553/V1_MQTT_OK/GD32VW55X_Wifi_BLE_SDK/GD32VW55x_RELEASE_V1.0.2/MSDK/plf/src\init_rom_symbol.c ****         mbedtls_ecp_is_zero_fn = (void *)0x0bf726b4;
 1010              		.loc 1 230 36
 1011 0724 B7050000 		lui	a1,%hi(.LANCHOR28)
 231:C:/Users/stapi/OneDrive/Desktop/GD32VW553/V1_MQTT_OK/GD32VW55X_Wifi_BLE_SDK/GD32VW55x_RELEASE_V1.0.2/MSDK/plf/src\init_rom_symbol.c ****         mbedtls_ecp_keypair_free_fn = (void *)0x0bf71f1c;
 1012              		.loc 1 231 32
 1013 0728 138E466B 		addi	t3,a3,1716
 230:C:/Users/stapi/OneDrive/Desktop/GD32VW553/V1_MQTT_OK/GD32VW55X_Wifi_BLE_SDK/GD32VW55x_RELEASE_V1.0.2/MSDK/plf/src\init_rom_symbol.c ****         mbedtls_ecp_is_zero_fn = (void *)0x0bf726b4;
 1014              		.loc 1 230 36
 1015 072c 23A0D501 		sw	t4,%lo(.LANCHOR28)(a1)
 231:C:/Users/stapi/OneDrive/Desktop/GD32VW553/V1_MQTT_OK/GD32VW55X_Wifi_BLE_SDK/GD32VW55x_RELEASE_V1.0.2/MSDK/plf/src\init_rom_symbol.c ****         mbedtls_ecp_keypair_free_fn = (void *)0x0bf71f1c;
 1016              		.loc 1 231 32
 1017 0730 B7050000 		lui	a1,%hi(.LANCHOR29)
 232:C:/Users/stapi/OneDrive/Desktop/GD32VW553/V1_MQTT_OK/GD32VW55X_Wifi_BLE_SDK/GD32VW55x_RELEASE_V1.0.2/MSDK/plf/src\init_rom_symbol.c ****         mbedtls_ecp_keypair_init_fn = (void *)0x0bf71e72;
 1018              		.loc 1 232 37
 1019 0734 1383C6F1 		addi	t1,a3,-228
 231:C:/Users/stapi/OneDrive/Desktop/GD32VW553/V1_MQTT_OK/GD32VW55X_Wifi_BLE_SDK/GD32VW55x_RELEASE_V1.0.2/MSDK/plf/src\init_rom_symbol.c ****         mbedtls_ecp_keypair_free_fn = (void *)0x0bf71f1c;
 1020              		.loc 1 231 32
 1021 0738 23A0C501 		sw	t3,%lo(.LANCHOR29)(a1)
 217:C:/Users/stapi/OneDrive/Desktop/GD32VW553/V1_MQTT_OK/GD32VW55X_Wifi_BLE_SDK/GD32VW55x_RELEASE_V1.0.2/MSDK/plf/src\init_rom_symbol.c ****         mbedtls_ecp_copy_fn = (void *)0x0bf71f42;
 1022              		.loc 1 217 37
 1023 073c 930286C7 		addi	t0,a2,-904
 232:C:/Users/stapi/OneDrive/Desktop/GD32VW553/V1_MQTT_OK/GD32VW55X_Wifi_BLE_SDK/GD32VW55x_RELEASE_V1.0.2/MSDK/plf/src\init_rom_symbol.c ****         mbedtls_ecp_keypair_init_fn = (void *)0x0bf71e72;
 1024              		.loc 1 232 37
 1025 0740 B7050000 		lui	a1,%hi(.LANCHOR30)
 217:C:/Users/stapi/OneDrive/Desktop/GD32VW553/V1_MQTT_OK/GD32VW55X_Wifi_BLE_SDK/GD32VW55x_RELEASE_V1.0.2/MSDK/plf/src\init_rom_symbol.c ****         mbedtls_ecp_copy_fn = (void *)0x0bf71f42;
 1026              		.loc 1 217 37
 1027 0744 B70F0000 		lui	t6,%hi(.LANCHOR15)
 252:C:/Users/stapi/OneDrive/Desktop/GD32VW553/V1_MQTT_OK/GD32VW55X_Wifi_BLE_SDK/GD32VW55x_RELEASE_V1.0.2/MSDK/plf/src\init_rom_symbol.c ****         mbedtls_md5_clone_fn = (void *)0x0bf76468;
 1028              		.loc 1 252 24
 1029 0748 B77BF70B 		li	s7,200765440
 233:C:/Users/stapi/OneDrive/Desktop/GD32VW553/V1_MQTT_OK/GD32VW55X_Wifi_BLE_SDK/GD32VW55x_RELEASE_V1.0.2/MSDK/plf/src\init_rom_symbol.c ****         mbedtls_ecp_mul_fn = (void *)0x0bf73790;
 1030              		.loc 1 233 37
 1031 074c 938826E7 		addi	a7,a3,-398
 232:C:/Users/stapi/OneDrive/Desktop/GD32VW553/V1_MQTT_OK/GD32VW55X_Wifi_BLE_SDK/GD32VW55x_RELEASE_V1.0.2/MSDK/plf/src\init_rom_symbol.c ****         mbedtls_ecp_keypair_init_fn = (void *)0x0bf71e72;
 1032              		.loc 1 232 37
 1033 0750 23A06500 		sw	t1,%lo(.LANCHOR30)(a1)
 217:C:/Users/stapi/OneDrive/Desktop/GD32VW553/V1_MQTT_OK/GD32VW55X_Wifi_BLE_SDK/GD32VW55x_RELEASE_V1.0.2/MSDK/plf/src\init_rom_symbol.c ****         mbedtls_ecp_copy_fn = (void *)0x0bf71f42;
 1034              		.loc 1 217 37
 1035 0754 23A05F00 		sw	t0,%lo(.LANCHOR15)(t6)
 233:C:/Users/stapi/OneDrive/Desktop/GD32VW553/V1_MQTT_OK/GD32VW55X_Wifi_BLE_SDK/GD32VW55x_RELEASE_V1.0.2/MSDK/plf/src\init_rom_symbol.c ****         mbedtls_ecp_mul_fn = (void *)0x0bf73790;
 1036              		.loc 1 233 37
 1037 0758 B7050000 		lui	a1,%hi(.LANCHOR31)
 224:C:/Users/stapi/OneDrive/Desktop/GD32VW553/V1_MQTT_OK/GD32VW55X_Wifi_BLE_SDK/GD32VW55x_RELEASE_V1.0.2/MSDK/plf/src\init_rom_symbol.c ****         mbedtls_ecp_gen_keypair_base_fn = (void *)0x0bf73796;
 1038              		.loc 1 224 36
 1039 075c 9302267F 		addi	t0,a2,2034
 1040 0760 B70F0000 		lui	t6,%hi(.LANCHOR22)
 233:C:/Users/stapi/OneDrive/Desktop/GD32VW553/V1_MQTT_OK/GD32VW55X_Wifi_BLE_SDK/GD32VW55x_RELEASE_V1.0.2/MSDK/plf/src\init_rom_symbol.c ****         mbedtls_ecp_mul_fn = (void *)0x0bf73790;
 1041              		.loc 1 233 37
 1042 0764 23A01501 		sw	a7,%lo(.LANCHOR31)(a1)
 252:C:/Users/stapi/OneDrive/Desktop/GD32VW553/V1_MQTT_OK/GD32VW55X_Wifi_BLE_SDK/GD32VW55x_RELEASE_V1.0.2/MSDK/plf/src\init_rom_symbol.c ****         mbedtls_md5_clone_fn = (void *)0x0bf76468;
 1043              		.loc 1 252 24
 1044 0768 138E2B35 		addi	t3,s7,850
 254:C:/Users/stapi/OneDrive/Desktop/GD32VW553/V1_MQTT_OK/GD32VW55X_Wifi_BLE_SDK/GD32VW55x_RELEASE_V1.0.2/MSDK/plf/src\init_rom_symbol.c ****         mbedtls_md5_finish_ret_fn = (void *)0x0bf7721e;
 1045              		.loc 1 254 31
 1046 076c 9388CB31 		addi	a7,s7,796
 224:C:/Users/stapi/OneDrive/Desktop/GD32VW553/V1_MQTT_OK/GD32VW55X_Wifi_BLE_SDK/GD32VW55x_RELEASE_V1.0.2/MSDK/plf/src\init_rom_symbol.c ****         mbedtls_ecp_gen_keypair_base_fn = (void *)0x0bf73796;
 1047              		.loc 1 224 36
 1048 0770 23A05F00 		sw	t0,%lo(.LANCHOR22)(t6)
 263:C:/Users/stapi/OneDrive/Desktop/GD32VW553/V1_MQTT_OK/GD32VW55X_Wifi_BLE_SDK/GD32VW55x_RELEASE_V1.0.2/MSDK/plf/src\init_rom_symbol.c ****         mbedtls_mpi_div_int_fn = (void *)0x0bf6f1c6;
 1049              		.loc 1 263 35
 1050 0774 938BCB20 		addi	s7,s7,524
 225:C:/Users/stapi/OneDrive/Desktop/GD32VW553/V1_MQTT_OK/GD32VW55X_Wifi_BLE_SDK/GD32VW55x_RELEASE_V1.0.2/MSDK/plf/src\init_rom_symbol.c ****         mbedtls_ecp_gen_privkey_fn = (void *)0x0bf72a8c;
 1051              		.loc 1 225 41
 1052 0778 93026679 		addi	t0,a2,1942
 1053 077c B70F0000 		lui	t6,%hi(.LANCHOR23)
 1054 0780 23A05F00 		sw	t0,%lo(.LANCHOR23)(t6)
 263:C:/Users/stapi/OneDrive/Desktop/GD32VW553/V1_MQTT_OK/GD32VW55X_Wifi_BLE_SDK/GD32VW55x_RELEASE_V1.0.2/MSDK/plf/src\init_rom_symbol.c ****         mbedtls_mpi_div_int_fn = (void *)0x0bf6f1c6;
 1055              		.loc 1 263 35
 1056 0784 5EC6     		sw	s7,12(sp)
 226:C:/Users/stapi/OneDrive/Desktop/GD32VW553/V1_MQTT_OK/GD32VW55X_Wifi_BLE_SDK/GD32VW55x_RELEASE_V1.0.2/MSDK/plf/src\init_rom_symbol.c ****         mbedtls_ecp_group_copy_fn = (void *)0x0bf71f80;
 1057              		.loc 1 226 36
 1058 0786 9302C6A8 		addi	t0,a2,-1396
 216:C:/Users/stapi/OneDrive/Desktop/GD32VW553/V1_MQTT_OK/GD32VW55X_Wifi_BLE_SDK/GD32VW55x_RELEASE_V1.0.2/MSDK/plf/src\init_rom_symbol.c ****         mbedtls_ecp_check_pubkey_fn = (void *)0x0bf72c78;
 1059              		.loc 1 216 39
 1060 078a 130C8784 		addi	s8,a4,-1976
 226:C:/Users/stapi/OneDrive/Desktop/GD32VW553/V1_MQTT_OK/GD32VW55X_Wifi_BLE_SDK/GD32VW55x_RELEASE_V1.0.2/MSDK/plf/src\init_rom_symbol.c ****         mbedtls_ecp_group_copy_fn = (void *)0x0bf71f80;
 1061              		.loc 1 226 36
 1062 078e B70F0000 		lui	t6,%hi(.LANCHOR24)
 216:C:/Users/stapi/OneDrive/Desktop/GD32VW553/V1_MQTT_OK/GD32VW55X_Wifi_BLE_SDK/GD32VW55x_RELEASE_V1.0.2/MSDK/plf/src\init_rom_symbol.c ****         mbedtls_ecp_check_pubkey_fn = (void *)0x0bf72c78;
 1063              		.loc 1 216 39
 1064 0792 B70B0000 		lui	s7,%hi(.LANCHOR14)
 226:C:/Users/stapi/OneDrive/Desktop/GD32VW553/V1_MQTT_OK/GD32VW55X_Wifi_BLE_SDK/GD32VW55x_RELEASE_V1.0.2/MSDK/plf/src\init_rom_symbol.c ****         mbedtls_ecp_group_copy_fn = (void *)0x0bf71f80;
 1065              		.loc 1 226 36
 1066 0796 23A05F00 		sw	t0,%lo(.LANCHOR24)(t6)
 234:C:/Users/stapi/OneDrive/Desktop/GD32VW553/V1_MQTT_OK/GD32VW55X_Wifi_BLE_SDK/GD32VW55x_RELEASE_V1.0.2/MSDK/plf/src\init_rom_symbol.c ****         mbedtls_ecp_mul_restartable_fn = (void *)0x0bf72ebc;
 1067              		.loc 1 234 28
 1068 079a 930D0679 		addi	s11,a2,1936
 216:C:/Users/stapi/OneDrive/Desktop/GD32VW553/V1_MQTT_OK/GD32VW55X_Wifi_BLE_SDK/GD32VW55x_RELEASE_V1.0.2/MSDK/plf/src\init_rom_symbol.c ****         mbedtls_ecp_check_pubkey_fn = (void *)0x0bf72c78;
 1069              		.loc 1 216 39
 1070 079e 23A08B01 		sw	s8,%lo(.LANCHOR14)(s7)
 217:C:/Users/stapi/OneDrive/Desktop/GD32VW553/V1_MQTT_OK/GD32VW55X_Wifi_BLE_SDK/GD32VW55x_RELEASE_V1.0.2/MSDK/plf/src\init_rom_symbol.c ****         mbedtls_ecp_copy_fn = (void *)0x0bf71f42;
 1071              		.loc 1 217 9 is_stmt 1
 218:C:/Users/stapi/OneDrive/Desktop/GD32VW553/V1_MQTT_OK/GD32VW55X_Wifi_BLE_SDK/GD32VW55x_RELEASE_V1.0.2/MSDK/plf/src\init_rom_symbol.c ****         mbedtls_ecp_curve_info_from_grp_id_fn = (void *)0x0bf71d4e;
 1072              		.loc 1 218 9
 219:C:/Users/stapi/OneDrive/Desktop/GD32VW553/V1_MQTT_OK/GD32VW55X_Wifi_BLE_SDK/GD32VW55x_RELEASE_V1.0.2/MSDK/plf/src\init_rom_symbol.c ****         mbedtls_ecp_curve_info_from_name_fn = (void *)0x0bf71daa;
 1073              		.loc 1 219 9
 220:C:/Users/stapi/OneDrive/Desktop/GD32VW553/V1_MQTT_OK/GD32VW55X_Wifi_BLE_SDK/GD32VW55x_RELEASE_V1.0.2/MSDK/plf/src\init_rom_symbol.c ****         mbedtls_ecp_curve_info_from_tls_id_fn = (void *)0x0bf71d7a;
 1074              		.loc 1 220 9
 221:C:/Users/stapi/OneDrive/Desktop/GD32VW553/V1_MQTT_OK/GD32VW55X_Wifi_BLE_SDK/GD32VW55x_RELEASE_V1.0.2/MSDK/plf/src\init_rom_symbol.c ****         mbedtls_ecp_curve_list_fn = (void *)0x0bf71cda;
 1075              		.loc 1 221 9
 222:C:/Users/stapi/OneDrive/Desktop/GD32VW553/V1_MQTT_OK/GD32VW55X_Wifi_BLE_SDK/GD32VW55x_RELEASE_V1.0.2/MSDK/plf/src\init_rom_symbol.c ****         mbedtls_ecp_gen_key_fn = (void *)0x0bf73802;
 1076              		.loc 1 222 9
 223:C:/Users/stapi/OneDrive/Desktop/GD32VW553/V1_MQTT_OK/GD32VW55X_Wifi_BLE_SDK/GD32VW55x_RELEASE_V1.0.2/MSDK/plf/src\init_rom_symbol.c ****         mbedtls_ecp_gen_keypair_fn = (void *)0x0bf737f2;
 1077              		.loc 1 223 9
 234:C:/Users/stapi/OneDrive/Desktop/GD32VW553/V1_MQTT_OK/GD32VW55X_Wifi_BLE_SDK/GD32VW55x_RELEASE_V1.0.2/MSDK/plf/src\init_rom_symbol.c ****         mbedtls_ecp_mul_restartable_fn = (void *)0x0bf72ebc;
 1078              		.loc 1 234 28 is_stmt 0
 1079 07a2 370D0000 		lui	s10,%hi(.LANCHOR32)
 223:C:/Users/stapi/OneDrive/Desktop/GD32VW553/V1_MQTT_OK/GD32VW55X_Wifi_BLE_SDK/GD32VW55x_RELEASE_V1.0.2/MSDK/plf/src\init_rom_symbol.c ****         mbedtls_ecp_gen_keypair_fn = (void *)0x0bf737f2;
 1080              		.loc 1 223 32
 1081 07a6 130C2780 		addi	s8,a4,-2046
 1082 07aa B70B0000 		lui	s7,%hi(.LANCHOR21)
 1083 07ae 23A08B01 		sw	s8,%lo(.LANCHOR21)(s7)
 224:C:/Users/stapi/OneDrive/Desktop/GD32VW553/V1_MQTT_OK/GD32VW55X_Wifi_BLE_SDK/GD32VW55x_RELEASE_V1.0.2/MSDK/plf/src\init_rom_symbol.c ****         mbedtls_ecp_gen_keypair_base_fn = (void *)0x0bf73796;
 1084              		.loc 1 224 9 is_stmt 1
 225:C:/Users/stapi/OneDrive/Desktop/GD32VW553/V1_MQTT_OK/GD32VW55X_Wifi_BLE_SDK/GD32VW55x_RELEASE_V1.0.2/MSDK/plf/src\init_rom_symbol.c ****         mbedtls_ecp_gen_privkey_fn = (void *)0x0bf72a8c;
 1085              		.loc 1 225 9
 226:C:/Users/stapi/OneDrive/Desktop/GD32VW553/V1_MQTT_OK/GD32VW55X_Wifi_BLE_SDK/GD32VW55x_RELEASE_V1.0.2/MSDK/plf/src\init_rom_symbol.c ****         mbedtls_ecp_group_copy_fn = (void *)0x0bf71f80;
 1086              		.loc 1 226 9
 227:C:/Users/stapi/OneDrive/Desktop/GD32VW553/V1_MQTT_OK/GD32VW55X_Wifi_BLE_SDK/GD32VW55x_RELEASE_V1.0.2/MSDK/plf/src\init_rom_symbol.c ****         mbedtls_ecp_group_free_fn = (void *)0x0bf71e9c;
 1087              		.loc 1 227 9
 228:C:/Users/stapi/OneDrive/Desktop/GD32VW553/V1_MQTT_OK/GD32VW55X_Wifi_BLE_SDK/GD32VW55x_RELEASE_V1.0.2/MSDK/plf/src\init_rom_symbol.c ****         mbedtls_ecp_group_init_fn = (void *)0x0bf71e14;
 1088              		.loc 1 228 9
 229:C:/Users/stapi/OneDrive/Desktop/GD32VW553/V1_MQTT_OK/GD32VW55X_Wifi_BLE_SDK/GD32VW55x_RELEASE_V1.0.2/MSDK/plf/src\init_rom_symbol.c ****         mbedtls_ecp_grp_id_list_fn = (void *)0x0bf71d02;
 1089              		.loc 1 229 9
 230:C:/Users/stapi/OneDrive/Desktop/GD32VW553/V1_MQTT_OK/GD32VW55X_Wifi_BLE_SDK/GD32VW55x_RELEASE_V1.0.2/MSDK/plf/src\init_rom_symbol.c ****         mbedtls_ecp_is_zero_fn = (void *)0x0bf726b4;
 1090              		.loc 1 230 9
 231:C:/Users/stapi/OneDrive/Desktop/GD32VW553/V1_MQTT_OK/GD32VW55X_Wifi_BLE_SDK/GD32VW55x_RELEASE_V1.0.2/MSDK/plf/src\init_rom_symbol.c ****         mbedtls_ecp_keypair_free_fn = (void *)0x0bf71f1c;
 1091              		.loc 1 231 9
 232:C:/Users/stapi/OneDrive/Desktop/GD32VW553/V1_MQTT_OK/GD32VW55X_Wifi_BLE_SDK/GD32VW55x_RELEASE_V1.0.2/MSDK/plf/src\init_rom_symbol.c ****         mbedtls_ecp_keypair_init_fn = (void *)0x0bf71e72;
 1092              		.loc 1 232 9
 233:C:/Users/stapi/OneDrive/Desktop/GD32VW553/V1_MQTT_OK/GD32VW55X_Wifi_BLE_SDK/GD32VW55x_RELEASE_V1.0.2/MSDK/plf/src\init_rom_symbol.c ****         mbedtls_ecp_mul_fn = (void *)0x0bf73790;
 1093              		.loc 1 233 9
 234:C:/Users/stapi/OneDrive/Desktop/GD32VW553/V1_MQTT_OK/GD32VW55X_Wifi_BLE_SDK/GD32VW55x_RELEASE_V1.0.2/MSDK/plf/src\init_rom_symbol.c ****         mbedtls_ecp_mul_restartable_fn = (void *)0x0bf72ebc;
 1094              		.loc 1 234 9
 235:C:/Users/stapi/OneDrive/Desktop/GD32VW553/V1_MQTT_OK/GD32VW55X_Wifi_BLE_SDK/GD32VW55x_RELEASE_V1.0.2/MSDK/plf/src\init_rom_symbol.c ****         mbedtls_ecp_muladd_fn = (void *)0x0bf73a52;
 1095              		.loc 1 235 40 is_stmt 0
 1096 07b2 930CC6EB 		addi	s9,a2,-324
 234:C:/Users/stapi/OneDrive/Desktop/GD32VW553/V1_MQTT_OK/GD32VW55X_Wifi_BLE_SDK/GD32VW55x_RELEASE_V1.0.2/MSDK/plf/src\init_rom_symbol.c ****         mbedtls_ecp_mul_restartable_fn = (void *)0x0bf72ebc;
 1097              		.loc 1 234 28
 1098 07b6 2320BD01 		sw	s11,%lo(.LANCHOR32)(s10)
 235:C:/Users/stapi/OneDrive/Desktop/GD32VW553/V1_MQTT_OK/GD32VW55X_Wifi_BLE_SDK/GD32VW55x_RELEASE_V1.0.2/MSDK/plf/src\init_rom_symbol.c ****         mbedtls_ecp_muladd_fn = (void *)0x0bf73a52;
 1099              		.loc 1 235 9 is_stmt 1
 235:C:/Users/stapi/OneDrive/Desktop/GD32VW553/V1_MQTT_OK/GD32VW55X_Wifi_BLE_SDK/GD32VW55x_RELEASE_V1.0.2/MSDK/plf/src\init_rom_symbol.c ****         mbedtls_ecp_muladd_fn = (void *)0x0bf73a52;
 1100              		.loc 1 235 40 is_stmt 0
 1101 07ba 370D0000 		lui	s10,%hi(.LANCHOR33)
 236:C:/Users/stapi/OneDrive/Desktop/GD32VW553/V1_MQTT_OK/GD32VW55X_Wifi_BLE_SDK/GD32VW55x_RELEASE_V1.0.2/MSDK/plf/src\init_rom_symbol.c ****         mbedtls_ecp_muladd_restartable_fn = (void *)0x0bf73a36;
 1102              		.loc 1 236 31
 1103 07be 130C27A5 		addi	s8,a4,-1454
 235:C:/Users/stapi/OneDrive/Desktop/GD32VW553/V1_MQTT_OK/GD32VW55X_Wifi_BLE_SDK/GD32VW55x_RELEASE_V1.0.2/MSDK/plf/src\init_rom_symbol.c ****         mbedtls_ecp_muladd_fn = (void *)0x0bf73a52;
 1104              		.loc 1 235 40
 1105 07c2 23209D01 		sw	s9,%lo(.LANCHOR33)(s10)
 236:C:/Users/stapi/OneDrive/Desktop/GD32VW553/V1_MQTT_OK/GD32VW55X_Wifi_BLE_SDK/GD32VW55x_RELEASE_V1.0.2/MSDK/plf/src\init_rom_symbol.c ****         mbedtls_ecp_muladd_restartable_fn = (void *)0x0bf73a36;
 1106              		.loc 1 236 9 is_stmt 1
 236:C:/Users/stapi/OneDrive/Desktop/GD32VW553/V1_MQTT_OK/GD32VW55X_Wifi_BLE_SDK/GD32VW55x_RELEASE_V1.0.2/MSDK/plf/src\init_rom_symbol.c ****         mbedtls_ecp_muladd_restartable_fn = (void *)0x0bf73a36;
 1107              		.loc 1 236 31 is_stmt 0
 1108 07c6 B70C0000 		lui	s9,%hi(.LANCHOR34)
 237:C:/Users/stapi/OneDrive/Desktop/GD32VW553/V1_MQTT_OK/GD32VW55X_Wifi_BLE_SDK/GD32VW55x_RELEASE_V1.0.2/MSDK/plf/src\init_rom_symbol.c ****         mbedtls_ecp_point_cmp_fn = (void *)0x0bf726ca;
 1109              		.loc 1 237 43
 1110 07ca 930B67A3 		addi	s7,a4,-1482
 236:C:/Users/stapi/OneDrive/Desktop/GD32VW553/V1_MQTT_OK/GD32VW55X_Wifi_BLE_SDK/GD32VW55x_RELEASE_V1.0.2/MSDK/plf/src\init_rom_symbol.c ****         mbedtls_ecp_muladd_restartable_fn = (void *)0x0bf73a36;
 1111              		.loc 1 236 31
 1112 07ce 23A08C01 		sw	s8,%lo(.LANCHOR34)(s9)
 237:C:/Users/stapi/OneDrive/Desktop/GD32VW553/V1_MQTT_OK/GD32VW55X_Wifi_BLE_SDK/GD32VW55x_RELEASE_V1.0.2/MSDK/plf/src\init_rom_symbol.c ****         mbedtls_ecp_point_cmp_fn = (void *)0x0bf726ca;
 1113              		.loc 1 237 9 is_stmt 1
 237:C:/Users/stapi/OneDrive/Desktop/GD32VW553/V1_MQTT_OK/GD32VW55X_Wifi_BLE_SDK/GD32VW55x_RELEASE_V1.0.2/MSDK/plf/src\init_rom_symbol.c ****         mbedtls_ecp_point_cmp_fn = (void *)0x0bf726ca;
 1114              		.loc 1 237 43 is_stmt 0
 1115 07d2 370C0000 		lui	s8,%hi(.LANCHOR35)
 238:C:/Users/stapi/OneDrive/Desktop/GD32VW553/V1_MQTT_OK/GD32VW55X_Wifi_BLE_SDK/GD32VW55x_RELEASE_V1.0.2/MSDK/plf/src\init_rom_symbol.c ****         mbedtls_ecp_point_free_fn = (void *)0x0bf71e94;
 1116              		.loc 1 238 34
 1117 07d6 138BA66C 		addi	s6,a3,1738
 237:C:/Users/stapi/OneDrive/Desktop/GD32VW553/V1_MQTT_OK/GD32VW55X_Wifi_BLE_SDK/GD32VW55x_RELEASE_V1.0.2/MSDK/plf/src\init_rom_symbol.c ****         mbedtls_ecp_point_cmp_fn = (void *)0x0bf726ca;
 1118              		.loc 1 237 43
 1119 07da 23207C01 		sw	s7,%lo(.LANCHOR35)(s8)
 238:C:/Users/stapi/OneDrive/Desktop/GD32VW553/V1_MQTT_OK/GD32VW55X_Wifi_BLE_SDK/GD32VW55x_RELEASE_V1.0.2/MSDK/plf/src\init_rom_symbol.c ****         mbedtls_ecp_point_free_fn = (void *)0x0bf71e94;
 1120              		.loc 1 238 9 is_stmt 1
 238:C:/Users/stapi/OneDrive/Desktop/GD32VW553/V1_MQTT_OK/GD32VW55X_Wifi_BLE_SDK/GD32VW55x_RELEASE_V1.0.2/MSDK/plf/src\init_rom_symbol.c ****         mbedtls_ecp_point_free_fn = (void *)0x0bf71e94;
 1121              		.loc 1 238 34 is_stmt 0
 1122 07de B70B0000 		lui	s7,%hi(.LANCHOR36)
 239:C:/Users/stapi/OneDrive/Desktop/GD32VW553/V1_MQTT_OK/GD32VW55X_Wifi_BLE_SDK/GD32VW55x_RELEASE_V1.0.2/MSDK/plf/src\init_rom_symbol.c ****         mbedtls_ecp_point_init_fn = (void *)0x0bf71df2;
 1123              		.loc 1 239 35
 1124 07e2 938A46E9 		addi	s5,a3,-364
 238:C:/Users/stapi/OneDrive/Desktop/GD32VW553/V1_MQTT_OK/GD32VW55X_Wifi_BLE_SDK/GD32VW55x_RELEASE_V1.0.2/MSDK/plf/src\init_rom_symbol.c ****         mbedtls_ecp_point_free_fn = (void *)0x0bf71e94;
 1125              		.loc 1 238 34
 1126 07e6 23A06B01 		sw	s6,%lo(.LANCHOR36)(s7)
 239:C:/Users/stapi/OneDrive/Desktop/GD32VW553/V1_MQTT_OK/GD32VW55X_Wifi_BLE_SDK/GD32VW55x_RELEASE_V1.0.2/MSDK/plf/src\init_rom_symbol.c ****         mbedtls_ecp_point_init_fn = (void *)0x0bf71df2;
 1127              		.loc 1 239 9 is_stmt 1
 239:C:/Users/stapi/OneDrive/Desktop/GD32VW553/V1_MQTT_OK/GD32VW55X_Wifi_BLE_SDK/GD32VW55x_RELEASE_V1.0.2/MSDK/plf/src\init_rom_symbol.c ****         mbedtls_ecp_point_init_fn = (void *)0x0bf71df2;
 1128              		.loc 1 239 35 is_stmt 0
 1129 07ea 370B0000 		lui	s6,%hi(.LANCHOR37)
 240:C:/Users/stapi/OneDrive/Desktop/GD32VW553/V1_MQTT_OK/GD32VW55X_Wifi_BLE_SDK/GD32VW55x_RELEASE_V1.0.2/MSDK/plf/src\init_rom_symbol.c ****         mbedtls_ecp_point_read_binary_fn = (void *)0x0bf72824;
 1130              		.loc 1 240 35
 1131 07ee 138A26DF 		addi	s4,a3,-526
 239:C:/Users/stapi/OneDrive/Desktop/GD32VW553/V1_MQTT_OK/GD32VW55X_Wifi_BLE_SDK/GD32VW55x_RELEASE_V1.0.2/MSDK/plf/src\init_rom_symbol.c ****         mbedtls_ecp_point_init_fn = (void *)0x0bf71df2;
 1132              		.loc 1 239 35
 1133 07f2 23205B01 		sw	s5,%lo(.LANCHOR37)(s6)
 240:C:/Users/stapi/OneDrive/Desktop/GD32VW553/V1_MQTT_OK/GD32VW55X_Wifi_BLE_SDK/GD32VW55x_RELEASE_V1.0.2/MSDK/plf/src\init_rom_symbol.c ****         mbedtls_ecp_point_read_binary_fn = (void *)0x0bf72824;
 1134              		.loc 1 240 9 is_stmt 1
 240:C:/Users/stapi/OneDrive/Desktop/GD32VW553/V1_MQTT_OK/GD32VW55X_Wifi_BLE_SDK/GD32VW55x_RELEASE_V1.0.2/MSDK/plf/src\init_rom_symbol.c ****         mbedtls_ecp_point_read_binary_fn = (void *)0x0bf72824;
 1135              		.loc 1 240 35 is_stmt 0
 1136 07f6 B70A0000 		lui	s5,%hi(.LANCHOR38)
 241:C:/Users/stapi/OneDrive/Desktop/GD32VW553/V1_MQTT_OK/GD32VW55X_Wifi_BLE_SDK/GD32VW55x_RELEASE_V1.0.2/MSDK/plf/src\init_rom_symbol.c ****         mbedtls_ecp_point_read_string_fn = (void *)0x0bf72712;
 1137              		.loc 1 241 42
 1138 07fa 93094682 		addi	s3,a2,-2012
 240:C:/Users/stapi/OneDrive/Desktop/GD32VW553/V1_MQTT_OK/GD32VW55X_Wifi_BLE_SDK/GD32VW55x_RELEASE_V1.0.2/MSDK/plf/src\init_rom_symbol.c ****         mbedtls_ecp_point_read_binary_fn = (void *)0x0bf72824;
 1139              		.loc 1 240 35
 1140 07fe 23A04A01 		sw	s4,%lo(.LANCHOR38)(s5)
 241:C:/Users/stapi/OneDrive/Desktop/GD32VW553/V1_MQTT_OK/GD32VW55X_Wifi_BLE_SDK/GD32VW55x_RELEASE_V1.0.2/MSDK/plf/src\init_rom_symbol.c ****         mbedtls_ecp_point_read_string_fn = (void *)0x0bf72712;
 1141              		.loc 1 241 9 is_stmt 1
 241:C:/Users/stapi/OneDrive/Desktop/GD32VW553/V1_MQTT_OK/GD32VW55X_Wifi_BLE_SDK/GD32VW55x_RELEASE_V1.0.2/MSDK/plf/src\init_rom_symbol.c ****         mbedtls_ecp_point_read_string_fn = (void *)0x0bf72712;
 1142              		.loc 1 241 42 is_stmt 0
 1143 0802 370A0000 		lui	s4,%hi(.LANCHOR39)
 242:C:/Users/stapi/OneDrive/Desktop/GD32VW553/V1_MQTT_OK/GD32VW55X_Wifi_BLE_SDK/GD32VW55x_RELEASE_V1.0.2/MSDK/plf/src\init_rom_symbol.c ****         mbedtls_ecp_point_write_binary_fn = (void *)0x0bf72756;
 1144              		.loc 1 242 42
 1145 0806 13892671 		addi	s2,a3,1810
 241:C:/Users/stapi/OneDrive/Desktop/GD32VW553/V1_MQTT_OK/GD32VW55X_Wifi_BLE_SDK/GD32VW55x_RELEASE_V1.0.2/MSDK/plf/src\init_rom_symbol.c ****         mbedtls_ecp_point_read_string_fn = (void *)0x0bf72712;
 1146              		.loc 1 241 42
 1147 080a 23203A01 		sw	s3,%lo(.LANCHOR39)(s4)
 242:C:/Users/stapi/OneDrive/Desktop/GD32VW553/V1_MQTT_OK/GD32VW55X_Wifi_BLE_SDK/GD32VW55x_RELEASE_V1.0.2/MSDK/plf/src\init_rom_symbol.c ****         mbedtls_ecp_point_write_binary_fn = (void *)0x0bf72756;
 1148              		.loc 1 242 9 is_stmt 1
 242:C:/Users/stapi/OneDrive/Desktop/GD32VW553/V1_MQTT_OK/GD32VW55X_Wifi_BLE_SDK/GD32VW55x_RELEASE_V1.0.2/MSDK/plf/src\init_rom_symbol.c ****         mbedtls_ecp_point_write_binary_fn = (void *)0x0bf72756;
 1149              		.loc 1 242 42 is_stmt 0
 1150 080e B7090000 		lui	s3,%hi(.LANCHOR40)
 243:C:/Users/stapi/OneDrive/Desktop/GD32VW553/V1_MQTT_OK/GD32VW55X_Wifi_BLE_SDK/GD32VW55x_RELEASE_V1.0.2/MSDK/plf/src\init_rom_symbol.c ****         mbedtls_ecp_set_zero_fn = (void *)0x0bf71f86;
 1151              		.loc 1 243 43
 1152 0812 93846675 		addi	s1,a3,1878
 242:C:/Users/stapi/OneDrive/Desktop/GD32VW553/V1_MQTT_OK/GD32VW55X_Wifi_BLE_SDK/GD32VW55x_RELEASE_V1.0.2/MSDK/plf/src\init_rom_symbol.c ****         mbedtls_ecp_point_write_binary_fn = (void *)0x0bf72756;
 1153              		.loc 1 242 42
 1154 0816 23A02901 		sw	s2,%lo(.LANCHOR40)(s3)
 243:C:/Users/stapi/OneDrive/Desktop/GD32VW553/V1_MQTT_OK/GD32VW55X_Wifi_BLE_SDK/GD32VW55x_RELEASE_V1.0.2/MSDK/plf/src\init_rom_symbol.c ****         mbedtls_ecp_set_zero_fn = (void *)0x0bf71f86;
 1155              		.loc 1 243 9 is_stmt 1
 243:C:/Users/stapi/OneDrive/Desktop/GD32VW553/V1_MQTT_OK/GD32VW55X_Wifi_BLE_SDK/GD32VW55x_RELEASE_V1.0.2/MSDK/plf/src\init_rom_symbol.c ****         mbedtls_ecp_set_zero_fn = (void *)0x0bf71f86;
 1156              		.loc 1 243 43 is_stmt 0
 1157 081a 37090000 		lui	s2,%hi(.LANCHOR41)
 1158 081e 23209900 		sw	s1,%lo(.LANCHOR41)(s2)
 244:C:/Users/stapi/OneDrive/Desktop/GD32VW553/V1_MQTT_OK/GD32VW55X_Wifi_BLE_SDK/GD32VW55x_RELEASE_V1.0.2/MSDK/plf/src\init_rom_symbol.c ****         mbedtls_ecp_tls_read_group_fn = (void *)0x0bf72994;
 1159              		.loc 1 244 9 is_stmt 1
 244:C:/Users/stapi/OneDrive/Desktop/GD32VW553/V1_MQTT_OK/GD32VW55X_Wifi_BLE_SDK/GD32VW55x_RELEASE_V1.0.2/MSDK/plf/src\init_rom_symbol.c ****         mbedtls_ecp_tls_read_group_fn = (void *)0x0bf72994;
 1160              		.loc 1 244 33 is_stmt 0
 1161 0822 938666F8 		addi	a3,a3,-122
 1162 0826 B7040000 		lui	s1,%hi(.LANCHOR42)
 245:C:/Users/stapi/OneDrive/Desktop/GD32VW553/V1_MQTT_OK/GD32VW55X_Wifi_BLE_SDK/GD32VW55x_RELEASE_V1.0.2/MSDK/plf/src\init_rom_symbol.c ****         mbedtls_ecp_tls_read_group_id_fn = (void *)0x0bf7292c;
 1163              		.loc 1 245 39
 1164 082a 13044699 		addi	s0,a2,-1644
 244:C:/Users/stapi/OneDrive/Desktop/GD32VW553/V1_MQTT_OK/GD32VW55X_Wifi_BLE_SDK/GD32VW55x_RELEASE_V1.0.2/MSDK/plf/src\init_rom_symbol.c ****         mbedtls_ecp_tls_read_group_fn = (void *)0x0bf72994;
 1165              		.loc 1 244 33
 1166 082e 23A0D400 		sw	a3,%lo(.LANCHOR42)(s1)
 245:C:/Users/stapi/OneDrive/Desktop/GD32VW553/V1_MQTT_OK/GD32VW55X_Wifi_BLE_SDK/GD32VW55x_RELEASE_V1.0.2/MSDK/plf/src\init_rom_symbol.c ****         mbedtls_ecp_tls_read_group_id_fn = (void *)0x0bf7292c;
 1167              		.loc 1 245 9 is_stmt 1
 245:C:/Users/stapi/OneDrive/Desktop/GD32VW553/V1_MQTT_OK/GD32VW55X_Wifi_BLE_SDK/GD32VW55x_RELEASE_V1.0.2/MSDK/plf/src\init_rom_symbol.c ****         mbedtls_ecp_tls_read_group_id_fn = (void *)0x0bf7292c;
 1168              		.loc 1 245 39 is_stmt 0
 1169 0832 B7060000 		lui	a3,%hi(.LANCHOR43)
 246:C:/Users/stapi/OneDrive/Desktop/GD32VW553/V1_MQTT_OK/GD32VW55X_Wifi_BLE_SDK/GD32VW55x_RELEASE_V1.0.2/MSDK/plf/src\init_rom_symbol.c ****         mbedtls_ecp_tls_read_point_fn = (void *)0x0bf728c2;
 1170              		.loc 1 246 42
 1171 0836 9303C692 		addi	t2,a2,-1748
 245:C:/Users/stapi/OneDrive/Desktop/GD32VW553/V1_MQTT_OK/GD32VW55X_Wifi_BLE_SDK/GD32VW55x_RELEASE_V1.0.2/MSDK/plf/src\init_rom_symbol.c ****         mbedtls_ecp_tls_read_group_id_fn = (void *)0x0bf7292c;
 1172              		.loc 1 245 39
 1173 083a 23A08600 		sw	s0,%lo(.LANCHOR43)(a3)
 246:C:/Users/stapi/OneDrive/Desktop/GD32VW553/V1_MQTT_OK/GD32VW55X_Wifi_BLE_SDK/GD32VW55x_RELEASE_V1.0.2/MSDK/plf/src\init_rom_symbol.c ****         mbedtls_ecp_tls_read_point_fn = (void *)0x0bf728c2;
 1174              		.loc 1 246 9 is_stmt 1
 246:C:/Users/stapi/OneDrive/Desktop/GD32VW553/V1_MQTT_OK/GD32VW55X_Wifi_BLE_SDK/GD32VW55x_RELEASE_V1.0.2/MSDK/plf/src\init_rom_symbol.c ****         mbedtls_ecp_tls_read_point_fn = (void *)0x0bf728c2;
 1175              		.loc 1 246 42 is_stmt 0
 1176 083e B7060000 		lui	a3,%hi(.LANCHOR44)
 247:C:/Users/stapi/OneDrive/Desktop/GD32VW553/V1_MQTT_OK/GD32VW55X_Wifi_BLE_SDK/GD32VW55x_RELEASE_V1.0.2/MSDK/plf/src\init_rom_symbol.c ****         mbedtls_ecp_tls_write_group_fn = (void *)0x0bf729b4;
 1177              		.loc 1 247 39
 1178 0842 9302268C 		addi	t0,a2,-1854
 246:C:/Users/stapi/OneDrive/Desktop/GD32VW553/V1_MQTT_OK/GD32VW55X_Wifi_BLE_SDK/GD32VW55x_RELEASE_V1.0.2/MSDK/plf/src\init_rom_symbol.c ****         mbedtls_ecp_tls_read_point_fn = (void *)0x0bf728c2;
 1179              		.loc 1 246 42
 1180 0846 23A07600 		sw	t2,%lo(.LANCHOR44)(a3)
 247:C:/Users/stapi/OneDrive/Desktop/GD32VW553/V1_MQTT_OK/GD32VW55X_Wifi_BLE_SDK/GD32VW55x_RELEASE_V1.0.2/MSDK/plf/src\init_rom_symbol.c ****         mbedtls_ecp_tls_write_group_fn = (void *)0x0bf729b4;
 1181              		.loc 1 247 9 is_stmt 1
 247:C:/Users/stapi/OneDrive/Desktop/GD32VW553/V1_MQTT_OK/GD32VW55X_Wifi_BLE_SDK/GD32VW55x_RELEASE_V1.0.2/MSDK/plf/src\init_rom_symbol.c ****         mbedtls_ecp_tls_write_group_fn = (void *)0x0bf729b4;
 1182              		.loc 1 247 39 is_stmt 0
 1183 084a B7060000 		lui	a3,%hi(.LANCHOR45)
 248:C:/Users/stapi/OneDrive/Desktop/GD32VW553/V1_MQTT_OK/GD32VW55X_Wifi_BLE_SDK/GD32VW55x_RELEASE_V1.0.2/MSDK/plf/src\init_rom_symbol.c ****         mbedtls_ecp_tls_write_point_fn = (void *)0x0bf728f6;
 1184              		.loc 1 248 40
 1185 084e 930F469B 		addi	t6,a2,-1612
 247:C:/Users/stapi/OneDrive/Desktop/GD32VW553/V1_MQTT_OK/GD32VW55X_Wifi_BLE_SDK/GD32VW55x_RELEASE_V1.0.2/MSDK/plf/src\init_rom_symbol.c ****         mbedtls_ecp_tls_write_group_fn = (void *)0x0bf729b4;
 1186              		.loc 1 247 39
 1187 0852 23A05600 		sw	t0,%lo(.LANCHOR45)(a3)
 248:C:/Users/stapi/OneDrive/Desktop/GD32VW553/V1_MQTT_OK/GD32VW55X_Wifi_BLE_SDK/GD32VW55x_RELEASE_V1.0.2/MSDK/plf/src\init_rom_symbol.c ****         mbedtls_ecp_tls_write_point_fn = (void *)0x0bf728f6;
 1188              		.loc 1 248 9 is_stmt 1
 248:C:/Users/stapi/OneDrive/Desktop/GD32VW553/V1_MQTT_OK/GD32VW55X_Wifi_BLE_SDK/GD32VW55x_RELEASE_V1.0.2/MSDK/plf/src\init_rom_symbol.c ****         mbedtls_ecp_tls_write_point_fn = (void *)0x0bf728f6;
 1189              		.loc 1 248 40 is_stmt 0
 1190 0856 B7060000 		lui	a3,%hi(.LANCHOR46)
 250:C:/Users/stapi/OneDrive/Desktop/GD32VW553/V1_MQTT_OK/GD32VW55X_Wifi_BLE_SDK/GD32VW55x_RELEASE_V1.0.2/MSDK/plf/src\init_rom_symbol.c ****         mbedtls_internal_sha256_process_fn = (void *)0x0bf76312;
 1191              		.loc 1 250 41
 1192 085a B767F70B 		li	a5,200761344
 248:C:/Users/stapi/OneDrive/Desktop/GD32VW553/V1_MQTT_OK/GD32VW55X_Wifi_BLE_SDK/GD32VW55x_RELEASE_V1.0.2/MSDK/plf/src\init_rom_symbol.c ****         mbedtls_ecp_tls_write_point_fn = (void *)0x0bf728f6;
 1193              		.loc 1 248 40
 1194 085e 23A0F601 		sw	t6,%lo(.LANCHOR46)(a3)
 249:C:/Users/stapi/OneDrive/Desktop/GD32VW553/V1_MQTT_OK/GD32VW55X_Wifi_BLE_SDK/GD32VW55x_RELEASE_V1.0.2/MSDK/plf/src\init_rom_symbol.c ****         mbedtls_internal_md5_process_fn = (void *)0x0bf764d6;
 1195              		.loc 1 249 9 is_stmt 1
 249:C:/Users/stapi/OneDrive/Desktop/GD32VW553/V1_MQTT_OK/GD32VW55X_Wifi_BLE_SDK/GD32VW55x_RELEASE_V1.0.2/MSDK/plf/src\init_rom_symbol.c ****         mbedtls_internal_md5_process_fn = (void *)0x0bf764d6;
 1196              		.loc 1 249 40 is_stmt 0
 1197 0862 1306668F 		addi	a2,a2,-1802
 1198 0866 B7060000 		lui	a3,%hi(.LANCHOR47)
 250:C:/Users/stapi/OneDrive/Desktop/GD32VW553/V1_MQTT_OK/GD32VW55X_Wifi_BLE_SDK/GD32VW55x_RELEASE_V1.0.2/MSDK/plf/src\init_rom_symbol.c ****         mbedtls_internal_sha256_process_fn = (void *)0x0bf76312;
 1199              		.loc 1 250 41
 1200 086a 138F674D 		addi	t5,a5,1238
 249:C:/Users/stapi/OneDrive/Desktop/GD32VW553/V1_MQTT_OK/GD32VW55X_Wifi_BLE_SDK/GD32VW55x_RELEASE_V1.0.2/MSDK/plf/src\init_rom_symbol.c ****         mbedtls_internal_md5_process_fn = (void *)0x0bf764d6;
 1201              		.loc 1 249 40
 1202 086e 23A0C600 		sw	a2,%lo(.LANCHOR47)(a3)
 250:C:/Users/stapi/OneDrive/Desktop/GD32VW553/V1_MQTT_OK/GD32VW55X_Wifi_BLE_SDK/GD32VW55x_RELEASE_V1.0.2/MSDK/plf/src\init_rom_symbol.c ****         mbedtls_internal_sha256_process_fn = (void *)0x0bf76312;
 1203              		.loc 1 250 9 is_stmt 1
 250:C:/Users/stapi/OneDrive/Desktop/GD32VW553/V1_MQTT_OK/GD32VW55X_Wifi_BLE_SDK/GD32VW55x_RELEASE_V1.0.2/MSDK/plf/src\init_rom_symbol.c ****         mbedtls_internal_sha256_process_fn = (void *)0x0bf76312;
 1204              		.loc 1 250 41 is_stmt 0
 1205 0872 B7060000 		lui	a3,%hi(.LANCHOR48)
 251:C:/Users/stapi/OneDrive/Desktop/GD32VW553/V1_MQTT_OK/GD32VW55X_Wifi_BLE_SDK/GD32VW55x_RELEASE_V1.0.2/MSDK/plf/src\init_rom_symbol.c ****         mbedtls_md5_fn = (void *)0x0bf77352;
 1206              		.loc 1 251 44
 1207 0876 938E2731 		addi	t4,a5,786
 250:C:/Users/stapi/OneDrive/Desktop/GD32VW553/V1_MQTT_OK/GD32VW55X_Wifi_BLE_SDK/GD32VW55x_RELEASE_V1.0.2/MSDK/plf/src\init_rom_symbol.c ****         mbedtls_internal_sha256_process_fn = (void *)0x0bf76312;
 1208              		.loc 1 250 41
 1209 087a 23A0E601 		sw	t5,%lo(.LANCHOR48)(a3)
 251:C:/Users/stapi/OneDrive/Desktop/GD32VW553/V1_MQTT_OK/GD32VW55X_Wifi_BLE_SDK/GD32VW55x_RELEASE_V1.0.2/MSDK/plf/src\init_rom_symbol.c ****         mbedtls_md5_fn = (void *)0x0bf77352;
 1210              		.loc 1 251 9 is_stmt 1
 251:C:/Users/stapi/OneDrive/Desktop/GD32VW553/V1_MQTT_OK/GD32VW55X_Wifi_BLE_SDK/GD32VW55x_RELEASE_V1.0.2/MSDK/plf/src\init_rom_symbol.c ****         mbedtls_md5_fn = (void *)0x0bf77352;
 1211              		.loc 1 251 44 is_stmt 0
 1212 087e B7060000 		lui	a3,%hi(.LANCHOR49)
 1213 0882 23A0D601 		sw	t4,%lo(.LANCHOR49)(a3)
 252:C:/Users/stapi/OneDrive/Desktop/GD32VW553/V1_MQTT_OK/GD32VW55X_Wifi_BLE_SDK/GD32VW55x_RELEASE_V1.0.2/MSDK/plf/src\init_rom_symbol.c ****         mbedtls_md5_clone_fn = (void *)0x0bf76468;
 1214              		.loc 1 252 9 is_stmt 1
 252:C:/Users/stapi/OneDrive/Desktop/GD32VW553/V1_MQTT_OK/GD32VW55X_Wifi_BLE_SDK/GD32VW55x_RELEASE_V1.0.2/MSDK/plf/src\init_rom_symbol.c ****         mbedtls_md5_clone_fn = (void *)0x0bf76468;
 1215              		.loc 1 252 24 is_stmt 0
 1216 0886 B7060000 		lui	a3,%hi(.LANCHOR50)
 253:C:/Users/stapi/OneDrive/Desktop/GD32VW553/V1_MQTT_OK/GD32VW55X_Wifi_BLE_SDK/GD32VW55x_RELEASE_V1.0.2/MSDK/plf/src\init_rom_symbol.c ****         mbedtls_md5_finish_fn = (void *)0x0bf7731c;
 1217              		.loc 1 253 30
 1218 088a 13838746 		addi	t1,a5,1128
 252:C:/Users/stapi/OneDrive/Desktop/GD32VW553/V1_MQTT_OK/GD32VW55X_Wifi_BLE_SDK/GD32VW55x_RELEASE_V1.0.2/MSDK/plf/src\init_rom_symbol.c ****         mbedtls_md5_clone_fn = (void *)0x0bf76468;
 1219              		.loc 1 252 24
 1220 088e 23A0C601 		sw	t3,%lo(.LANCHOR50)(a3)
 253:C:/Users/stapi/OneDrive/Desktop/GD32VW553/V1_MQTT_OK/GD32VW55X_Wifi_BLE_SDK/GD32VW55x_RELEASE_V1.0.2/MSDK/plf/src\init_rom_symbol.c ****         mbedtls_md5_finish_fn = (void *)0x0bf7731c;
 1221              		.loc 1 253 9 is_stmt 1
 253:C:/Users/stapi/OneDrive/Desktop/GD32VW553/V1_MQTT_OK/GD32VW55X_Wifi_BLE_SDK/GD32VW55x_RELEASE_V1.0.2/MSDK/plf/src\init_rom_symbol.c ****         mbedtls_md5_finish_fn = (void *)0x0bf7731c;
 1222              		.loc 1 253 30 is_stmt 0
 1223 0892 B7060000 		lui	a3,%hi(.LANCHOR51)
 255:C:/Users/stapi/OneDrive/Desktop/GD32VW553/V1_MQTT_OK/GD32VW55X_Wifi_BLE_SDK/GD32VW55x_RELEASE_V1.0.2/MSDK/plf/src\init_rom_symbol.c ****         mbedtls_md5_free_fn = (void *)0x0bf7645c;
 1224              		.loc 1 255 35
 1225 0896 3774F70B 		li	s0,200765440
 253:C:/Users/stapi/OneDrive/Desktop/GD32VW553/V1_MQTT_OK/GD32VW55X_Wifi_BLE_SDK/GD32VW55x_RELEASE_V1.0.2/MSDK/plf/src\init_rom_symbol.c ****         mbedtls_md5_finish_fn = (void *)0x0bf7731c;
 1226              		.loc 1 253 30
 1227 089a 23A06600 		sw	t1,%lo(.LANCHOR51)(a3)
 254:C:/Users/stapi/OneDrive/Desktop/GD32VW553/V1_MQTT_OK/GD32VW55X_Wifi_BLE_SDK/GD32VW55x_RELEASE_V1.0.2/MSDK/plf/src\init_rom_symbol.c ****         mbedtls_md5_finish_ret_fn = (void *)0x0bf7721e;
 1228              		.loc 1 254 9 is_stmt 1
 254:C:/Users/stapi/OneDrive/Desktop/GD32VW553/V1_MQTT_OK/GD32VW55X_Wifi_BLE_SDK/GD32VW55x_RELEASE_V1.0.2/MSDK/plf/src\init_rom_symbol.c ****         mbedtls_md5_finish_ret_fn = (void *)0x0bf7721e;
 1229              		.loc 1 254 31 is_stmt 0
 1230 089e B7060000 		lui	a3,%hi(.LANCHOR52)
 1231 08a2 23A01601 		sw	a7,%lo(.LANCHOR52)(a3)
 255:C:/Users/stapi/OneDrive/Desktop/GD32VW553/V1_MQTT_OK/GD32VW55X_Wifi_BLE_SDK/GD32VW55x_RELEASE_V1.0.2/MSDK/plf/src\init_rom_symbol.c ****         mbedtls_md5_free_fn = (void *)0x0bf7645c;
 1232              		.loc 1 255 9 is_stmt 1
 255:C:/Users/stapi/OneDrive/Desktop/GD32VW553/V1_MQTT_OK/GD32VW55X_Wifi_BLE_SDK/GD32VW55x_RELEASE_V1.0.2/MSDK/plf/src\init_rom_symbol.c ****         mbedtls_md5_free_fn = (void *)0x0bf7645c;
 1233              		.loc 1 255 35 is_stmt 0
 1234 08a6 1306E421 		addi	a2,s0,542
 1235 08aa B7060000 		lui	a3,%hi(.LANCHOR53)
 1236 08ae 23A0C600 		sw	a2,%lo(.LANCHOR53)(a3)
 256:C:/Users/stapi/OneDrive/Desktop/GD32VW553/V1_MQTT_OK/GD32VW55X_Wifi_BLE_SDK/GD32VW55x_RELEASE_V1.0.2/MSDK/plf/src\init_rom_symbol.c ****         mbedtls_md5_init_fn = (void *)0x0bf76452;
 1237              		.loc 1 256 9 is_stmt 1
 256:C:/Users/stapi/OneDrive/Desktop/GD32VW553/V1_MQTT_OK/GD32VW55X_Wifi_BLE_SDK/GD32VW55x_RELEASE_V1.0.2/MSDK/plf/src\init_rom_symbol.c ****         mbedtls_md5_init_fn = (void *)0x0bf76452;
 1238              		.loc 1 256 29 is_stmt 0
 1239 08b2 3766F70B 		li	a2,200761344
 1240 08b6 9304C645 		addi	s1,a2,1116
 1241 08ba B7060000 		lui	a3,%hi(.LANCHOR54)
 1242 08be 23A09600 		sw	s1,%lo(.LANCHOR54)(a3)
 257:C:/Users/stapi/OneDrive/Desktop/GD32VW553/V1_MQTT_OK/GD32VW55X_Wifi_BLE_SDK/GD32VW55x_RELEASE_V1.0.2/MSDK/plf/src\init_rom_symbol.c ****         mbedtls_md5_process_fn = (void *)0x0bf77208;
 1243              		.loc 1 257 9 is_stmt 1
 257:C:/Users/stapi/OneDrive/Desktop/GD32VW553/V1_MQTT_OK/GD32VW55X_Wifi_BLE_SDK/GD32VW55x_RELEASE_V1.0.2/MSDK/plf/src\init_rom_symbol.c ****         mbedtls_md5_process_fn = (void *)0x0bf77208;
 1244              		.loc 1 257 29 is_stmt 0
 1245 08c2 93042645 		addi	s1,a2,1106
 1246 08c6 B7060000 		lui	a3,%hi(.LANCHOR55)
 1247 08ca 23A09600 		sw	s1,%lo(.LANCHOR55)(a3)
 258:C:/Users/stapi/OneDrive/Desktop/GD32VW553/V1_MQTT_OK/GD32VW55X_Wifi_BLE_SDK/GD32VW55x_RELEASE_V1.0.2/MSDK/plf/src\init_rom_symbol.c ****         mbedtls_md5_ret_fn = (void *)0x0bf77320;
 1248              		.loc 1 258 9 is_stmt 1
 258:C:/Users/stapi/OneDrive/Desktop/GD32VW553/V1_MQTT_OK/GD32VW55X_Wifi_BLE_SDK/GD32VW55x_RELEASE_V1.0.2/MSDK/plf/src\init_rom_symbol.c ****         mbedtls_md5_ret_fn = (void *)0x0bf77320;
 1249              		.loc 1 258 32 is_stmt 0
 1250 08ce 93048420 		addi	s1,s0,520
 1251 08d2 B7060000 		lui	a3,%hi(.LANCHOR56)
 1252 08d6 23A09600 		sw	s1,%lo(.LANCHOR56)(a3)
 259:C:/Users/stapi/OneDrive/Desktop/GD32VW553/V1_MQTT_OK/GD32VW55X_Wifi_BLE_SDK/GD32VW55x_RELEASE_V1.0.2/MSDK/plf/src\init_rom_symbol.c ****         mbedtls_md5_starts_fn = (void *)0x0bf764a4;
 1253              		.loc 1 259 9 is_stmt 1
 259:C:/Users/stapi/OneDrive/Desktop/GD32VW553/V1_MQTT_OK/GD32VW55X_Wifi_BLE_SDK/GD32VW55x_RELEASE_V1.0.2/MSDK/plf/src\init_rom_symbol.c ****         mbedtls_md5_starts_fn = (void *)0x0bf764a4;
 1254              		.loc 1 259 28 is_stmt 0
 1255 08da 93040432 		addi	s1,s0,800
 1256 08de B7060000 		lui	a3,%hi(.LANCHOR57)
 1257 08e2 23A09600 		sw	s1,%lo(.LANCHOR57)(a3)
 260:C:/Users/stapi/OneDrive/Desktop/GD32VW553/V1_MQTT_OK/GD32VW55X_Wifi_BLE_SDK/GD32VW55x_RELEASE_V1.0.2/MSDK/plf/src\init_rom_symbol.c ****         mbedtls_md5_starts_ret_fn = (void *)0x0bf76470;
 1258              		.loc 1 260 9 is_stmt 1
 260:C:/Users/stapi/OneDrive/Desktop/GD32VW553/V1_MQTT_OK/GD32VW55X_Wifi_BLE_SDK/GD32VW55x_RELEASE_V1.0.2/MSDK/plf/src\init_rom_symbol.c ****         mbedtls_md5_starts_ret_fn = (void *)0x0bf76470;
 1259              		.loc 1 260 31 is_stmt 0
 1260 08e6 9304464A 		addi	s1,a2,1188
 1261 08ea B7060000 		lui	a3,%hi(.LANCHOR58)
 263:C:/Users/stapi/OneDrive/Desktop/GD32VW553/V1_MQTT_OK/GD32VW55X_Wifi_BLE_SDK/GD32VW55x_RELEASE_V1.0.2/MSDK/plf/src\init_rom_symbol.c ****         mbedtls_mpi_div_int_fn = (void *)0x0bf6f1c6;
 1262              		.loc 1 263 35
 1263 08ee B24B     		lw	s7,12(sp)
 260:C:/Users/stapi/OneDrive/Desktop/GD32VW553/V1_MQTT_OK/GD32VW55X_Wifi_BLE_SDK/GD32VW55x_RELEASE_V1.0.2/MSDK/plf/src\init_rom_symbol.c ****         mbedtls_md5_starts_ret_fn = (void *)0x0bf76470;
 1264              		.loc 1 260 31
 1265 08f0 23A09600 		sw	s1,%lo(.LANCHOR58)(a3)
 261:C:/Users/stapi/OneDrive/Desktop/GD32VW553/V1_MQTT_OK/GD32VW55X_Wifi_BLE_SDK/GD32VW55x_RELEASE_V1.0.2/MSDK/plf/src\init_rom_symbol.c ****         mbedtls_md5_update_fn = (void *)0x0bf77216;
 1266              		.loc 1 261 9 is_stmt 1
 261:C:/Users/stapi/OneDrive/Desktop/GD32VW553/V1_MQTT_OK/GD32VW55X_Wifi_BLE_SDK/GD32VW55x_RELEASE_V1.0.2/MSDK/plf/src\init_rom_symbol.c ****         mbedtls_md5_update_fn = (void *)0x0bf77216;
 1267              		.loc 1 261 35 is_stmt 0
 1268 08f4 93040647 		addi	s1,a2,1136
 1269 08f8 B7060000 		lui	a3,%hi(.LANCHOR59)
 1270 08fc 23A09600 		sw	s1,%lo(.LANCHOR59)(a3)
 262:C:/Users/stapi/OneDrive/Desktop/GD32VW553/V1_MQTT_OK/GD32VW55X_Wifi_BLE_SDK/GD32VW55x_RELEASE_V1.0.2/MSDK/plf/src\init_rom_symbol.c ****         mbedtls_md5_update_ret_fn = (void *)0x0bf7720c;
 1271              		.loc 1 262 9 is_stmt 1
 262:C:/Users/stapi/OneDrive/Desktop/GD32VW553/V1_MQTT_OK/GD32VW55X_Wifi_BLE_SDK/GD32VW55x_RELEASE_V1.0.2/MSDK/plf/src\init_rom_symbol.c ****         mbedtls_md5_update_ret_fn = (void *)0x0bf7720c;
 1272              		.loc 1 262 31 is_stmt 0
 1273 0900 13046421 		addi	s0,s0,534
 1274 0904 B7060000 		lui	a3,%hi(.LANCHOR60)
 1275 0908 23A08600 		sw	s0,%lo(.LANCHOR60)(a3)
 263:C:/Users/stapi/OneDrive/Desktop/GD32VW553/V1_MQTT_OK/GD32VW55X_Wifi_BLE_SDK/GD32VW55x_RELEASE_V1.0.2/MSDK/plf/src\init_rom_symbol.c ****         mbedtls_mpi_div_int_fn = (void *)0x0bf6f1c6;
 1276              		.loc 1 263 9 is_stmt 1
 263:C:/Users/stapi/OneDrive/Desktop/GD32VW553/V1_MQTT_OK/GD32VW55X_Wifi_BLE_SDK/GD32VW55x_RELEASE_V1.0.2/MSDK/plf/src\init_rom_symbol.c ****         mbedtls_mpi_div_int_fn = (void *)0x0bf6f1c6;
 1277              		.loc 1 263 35 is_stmt 0
 1278 090c B7060000 		lui	a3,%hi(.LANCHOR61)
 264:C:/Users/stapi/OneDrive/Desktop/GD32VW553/V1_MQTT_OK/GD32VW55X_Wifi_BLE_SDK/GD32VW55x_RELEASE_V1.0.2/MSDK/plf/src\init_rom_symbol.c ****         mbedtls_mpi_div_mpi_fn = (void *)0x0bf6ecda;
 1279              		.loc 1 264 32
 1280 0910 37F4F60B 		li	s0,200732672
 1281 0914 37F5F60B 		li	a0,200732672
 263:C:/Users/stapi/OneDrive/Desktop/GD32VW553/V1_MQTT_OK/GD32VW55X_Wifi_BLE_SDK/GD32VW55x_RELEASE_V1.0.2/MSDK/plf/src\init_rom_symbol.c ****         mbedtls_mpi_div_int_fn = (void *)0x0bf6f1c6;
 1282              		.loc 1 263 35
 1283 0918 23A07601 		sw	s7,%lo(.LANCHOR61)(a3)
 264:C:/Users/stapi/OneDrive/Desktop/GD32VW553/V1_MQTT_OK/GD32VW55X_Wifi_BLE_SDK/GD32VW55x_RELEASE_V1.0.2/MSDK/plf/src\init_rom_symbol.c ****         mbedtls_mpi_div_mpi_fn = (void *)0x0bf6ecda;
 1284              		.loc 1 264 9 is_stmt 1
 264:C:/Users/stapi/OneDrive/Desktop/GD32VW553/V1_MQTT_OK/GD32VW55X_Wifi_BLE_SDK/GD32VW55x_RELEASE_V1.0.2/MSDK/plf/src\init_rom_symbol.c ****         mbedtls_mpi_div_mpi_fn = (void *)0x0bf6ecda;
 1285              		.loc 1 264 32 is_stmt 0
 1286 091c 9304641C 		addi	s1,s0,454
 1287 0920 B7060000 		lui	a3,%hi(.LANCHOR62)
 266:C:/Users/stapi/OneDrive/Desktop/GD32VW553/V1_MQTT_OK/GD32VW55X_Wifi_BLE_SDK/GD32VW55x_RELEASE_V1.0.2/MSDK/plf/src\init_rom_symbol.c ****         mbedtls_mpi_exp_mod_sw_fn = (void *)0x0bf6f508;
 1288              		.loc 1 266 32
 1289 0924 3708F70B 		li	a6,200736768
 264:C:/Users/stapi/OneDrive/Desktop/GD32VW553/V1_MQTT_OK/GD32VW55X_Wifi_BLE_SDK/GD32VW55x_RELEASE_V1.0.2/MSDK/plf/src\init_rom_symbol.c ****         mbedtls_mpi_div_mpi_fn = (void *)0x0bf6ecda;
 1290              		.loc 1 264 32
 1291 0928 23A09600 		sw	s1,%lo(.LANCHOR62)(a3)
 265:C:/Users/stapi/OneDrive/Desktop/GD32VW553/V1_MQTT_OK/GD32VW55X_Wifi_BLE_SDK/GD32VW55x_RELEASE_V1.0.2/MSDK/plf/src\init_rom_symbol.c ****         mbedtls_mpi_exp_mod_fn = (void *)0x0bf6fb18;
 1292              		.loc 1 265 9 is_stmt 1
 267:C:/Users/stapi/OneDrive/Desktop/GD32VW553/V1_MQTT_OK/GD32VW55X_Wifi_BLE_SDK/GD32VW55x_RELEASE_V1.0.2/MSDK/plf/src\init_rom_symbol.c ****         mbedtls_mpi_fill_random_fn = (void *)0x0bf6fe86;
 1293              		.loc 1 267 35 is_stmt 0
 1294 092c 130D8550 		addi	s10,a0,1288
 265:C:/Users/stapi/OneDrive/Desktop/GD32VW553/V1_MQTT_OK/GD32VW55X_Wifi_BLE_SDK/GD32VW55x_RELEASE_V1.0.2/MSDK/plf/src\init_rom_symbol.c ****         mbedtls_mpi_exp_mod_fn = (void *)0x0bf6fb18;
 1295              		.loc 1 265 32
 1296 0930 B7060000 		lui	a3,%hi(.LANCHOR63)
 1297 0934 1304A4CD 		addi	s0,s0,-806
 267:C:/Users/stapi/OneDrive/Desktop/GD32VW553/V1_MQTT_OK/GD32VW55X_Wifi_BLE_SDK/GD32VW55x_RELEASE_V1.0.2/MSDK/plf/src\init_rom_symbol.c ****         mbedtls_mpi_fill_random_fn = (void *)0x0bf6fe86;
 1298              		.loc 1 267 35
 1299 0938 B70D0000 		lui	s11,%hi(.LANCHOR65)
 265:C:/Users/stapi/OneDrive/Desktop/GD32VW553/V1_MQTT_OK/GD32VW55X_Wifi_BLE_SDK/GD32VW55x_RELEASE_V1.0.2/MSDK/plf/src\init_rom_symbol.c ****         mbedtls_mpi_exp_mod_fn = (void *)0x0bf6fb18;
 1300              		.loc 1 265 32
 1301 093c 23A08600 		sw	s0,%lo(.LANCHOR63)(a3)
 266:C:/Users/stapi/OneDrive/Desktop/GD32VW553/V1_MQTT_OK/GD32VW55X_Wifi_BLE_SDK/GD32VW55x_RELEASE_V1.0.2/MSDK/plf/src\init_rom_symbol.c ****         mbedtls_mpi_exp_mod_sw_fn = (void *)0x0bf6f508;
 1302              		.loc 1 266 9 is_stmt 1
 268:C:/Users/stapi/OneDrive/Desktop/GD32VW553/V1_MQTT_OK/GD32VW55X_Wifi_BLE_SDK/GD32VW55x_RELEASE_V1.0.2/MSDK/plf/src\init_rom_symbol.c ****         mbedtls_mpi_gcd_fn = (void *)0x0bf6fc8e;
 1303              		.loc 1 268 36 is_stmt 0
 1304 0940 930C68E8 		addi	s9,a6,-378
 267:C:/Users/stapi/OneDrive/Desktop/GD32VW553/V1_MQTT_OK/GD32VW55X_Wifi_BLE_SDK/GD32VW55x_RELEASE_V1.0.2/MSDK/plf/src\init_rom_symbol.c ****         mbedtls_mpi_fill_random_fn = (void *)0x0bf6fe86;
 1305              		.loc 1 267 35
 1306 0944 23A0AD01 		sw	s10,%lo(.LANCHOR65)(s11)
 268:C:/Users/stapi/OneDrive/Desktop/GD32VW553/V1_MQTT_OK/GD32VW55X_Wifi_BLE_SDK/GD32VW55x_RELEASE_V1.0.2/MSDK/plf/src\init_rom_symbol.c ****         mbedtls_mpi_gcd_fn = (void *)0x0bf6fc8e;
 1307              		.loc 1 268 36
 1308 0948 370D0000 		lui	s10,%hi(.LANCHOR66)
 269:C:/Users/stapi/OneDrive/Desktop/GD32VW553/V1_MQTT_OK/GD32VW55X_Wifi_BLE_SDK/GD32VW55x_RELEASE_V1.0.2/MSDK/plf/src\init_rom_symbol.c ****         mbedtls_mpi_gen_prime_fn = (void *)0x0bf70584;
 1309              		.loc 1 269 28
 1310 094c 130CE8C8 		addi	s8,a6,-882
 268:C:/Users/stapi/OneDrive/Desktop/GD32VW553/V1_MQTT_OK/GD32VW55X_Wifi_BLE_SDK/GD32VW55x_RELEASE_V1.0.2/MSDK/plf/src\init_rom_symbol.c ****         mbedtls_mpi_gcd_fn = (void *)0x0bf6fc8e;
 1311              		.loc 1 268 36
 1312 0950 23209D01 		sw	s9,%lo(.LANCHOR66)(s10)
 269:C:/Users/stapi/OneDrive/Desktop/GD32VW553/V1_MQTT_OK/GD32VW55X_Wifi_BLE_SDK/GD32VW55x_RELEASE_V1.0.2/MSDK/plf/src\init_rom_symbol.c ****         mbedtls_mpi_gen_prime_fn = (void *)0x0bf70584;
 1313              		.loc 1 269 28
 1314 0954 B70C0000 		lui	s9,%hi(.LANCHOR67)
 270:C:/Users/stapi/OneDrive/Desktop/GD32VW553/V1_MQTT_OK/GD32VW55X_Wifi_BLE_SDK/GD32VW55x_RELEASE_V1.0.2/MSDK/plf/src\init_rom_symbol.c ****         mbedtls_mpi_inv_mod_fn = (void *)0x0bf701b4;
 1315              		.loc 1 270 34
 1316 0958 930B4858 		addi	s7,a6,1412
 269:C:/Users/stapi/OneDrive/Desktop/GD32VW553/V1_MQTT_OK/GD32VW55X_Wifi_BLE_SDK/GD32VW55x_RELEASE_V1.0.2/MSDK/plf/src\init_rom_symbol.c ****         mbedtls_mpi_gen_prime_fn = (void *)0x0bf70584;
 1317              		.loc 1 269 28
 1318 095c 23A08C01 		sw	s8,%lo(.LANCHOR67)(s9)
 270:C:/Users/stapi/OneDrive/Desktop/GD32VW553/V1_MQTT_OK/GD32VW55X_Wifi_BLE_SDK/GD32VW55x_RELEASE_V1.0.2/MSDK/plf/src\init_rom_symbol.c ****         mbedtls_mpi_inv_mod_fn = (void *)0x0bf701b4;
 1319              		.loc 1 270 34
 1320 0960 370C0000 		lui	s8,%hi(.LANCHOR68)
 271:C:/Users/stapi/OneDrive/Desktop/GD32VW553/V1_MQTT_OK/GD32VW55X_Wifi_BLE_SDK/GD32VW55x_RELEASE_V1.0.2/MSDK/plf/src\init_rom_symbol.c ****         mbedtls_mpi_is_prime_fn = (void *)0x0bf70578   ;
 1321              		.loc 1 271 32
 1322 0964 130B481B 		addi	s6,a6,436
 270:C:/Users/stapi/OneDrive/Desktop/GD32VW553/V1_MQTT_OK/GD32VW55X_Wifi_BLE_SDK/GD32VW55x_RELEASE_V1.0.2/MSDK/plf/src\init_rom_symbol.c ****         mbedtls_mpi_inv_mod_fn = (void *)0x0bf701b4;
 1323              		.loc 1 270 34
 1324 0968 23207C01 		sw	s7,%lo(.LANCHOR68)(s8)
 271:C:/Users/stapi/OneDrive/Desktop/GD32VW553/V1_MQTT_OK/GD32VW55X_Wifi_BLE_SDK/GD32VW55x_RELEASE_V1.0.2/MSDK/plf/src\init_rom_symbol.c ****         mbedtls_mpi_is_prime_fn = (void *)0x0bf70578   ;
 1325              		.loc 1 271 32
 1326 096c B70B0000 		lui	s7,%hi(.LANCHOR69)
 272:C:/Users/stapi/OneDrive/Desktop/GD32VW553/V1_MQTT_OK/GD32VW55X_Wifi_BLE_SDK/GD32VW55x_RELEASE_V1.0.2/MSDK/plf/src\init_rom_symbol.c ****         mbedtls_mpi_is_prime_ext_fn = (void *)0x0bf704d6;
 1327              		.loc 1 272 33
 1328 0970 930A8857 		addi	s5,a6,1400
 271:C:/Users/stapi/OneDrive/Desktop/GD32VW553/V1_MQTT_OK/GD32VW55X_Wifi_BLE_SDK/GD32VW55x_RELEASE_V1.0.2/MSDK/plf/src\init_rom_symbol.c ****         mbedtls_mpi_is_prime_fn = (void *)0x0bf70578   ;
 1329              		.loc 1 271 32
 1330 0974 23A06B01 		sw	s6,%lo(.LANCHOR69)(s7)
 272:C:/Users/stapi/OneDrive/Desktop/GD32VW553/V1_MQTT_OK/GD32VW55X_Wifi_BLE_SDK/GD32VW55x_RELEASE_V1.0.2/MSDK/plf/src\init_rom_symbol.c ****         mbedtls_mpi_is_prime_ext_fn = (void *)0x0bf704d6;
 1331              		.loc 1 272 33
 1332 0978 370B0000 		lui	s6,%hi(.LANCHOR70)
 1333 097c 23205B01 		sw	s5,%lo(.LANCHOR70)(s6)
 273:C:/Users/stapi/OneDrive/Desktop/GD32VW553/V1_MQTT_OK/GD32VW55X_Wifi_BLE_SDK/GD32VW55x_RELEASE_V1.0.2/MSDK/plf/src\init_rom_symbol.c ****         mbedtls_mpi_mod_int_fn = (void *)0x0bf6f28c;
 1334              		.loc 1 273 37
 1335 0980 1308684D 		addi	a6,a6,1238
 1336 0984 B70A0000 		lui	s5,%hi(.LANCHOR71)
 274:C:/Users/stapi/OneDrive/Desktop/GD32VW553/V1_MQTT_OK/GD32VW55X_Wifi_BLE_SDK/GD32VW55x_RELEASE_V1.0.2/MSDK/plf/src\init_rom_symbol.c ****         mbedtls_mpi_mod_mpi_fn = (void *)0x0bf6f1f0;
 1337              		.loc 1 274 32
 1338 0988 130AC528 		addi	s4,a0,652
 273:C:/Users/stapi/OneDrive/Desktop/GD32VW553/V1_MQTT_OK/GD32VW55X_Wifi_BLE_SDK/GD32VW55x_RELEASE_V1.0.2/MSDK/plf/src\init_rom_symbol.c ****         mbedtls_mpi_mod_int_fn = (void *)0x0bf6f28c;
 1339              		.loc 1 273 37
 1340 098c 23A00A01 		sw	a6,%lo(.LANCHOR71)(s5)
 274:C:/Users/stapi/OneDrive/Desktop/GD32VW553/V1_MQTT_OK/GD32VW55X_Wifi_BLE_SDK/GD32VW55x_RELEASE_V1.0.2/MSDK/plf/src\init_rom_symbol.c ****         mbedtls_mpi_mod_mpi_fn = (void *)0x0bf6f1f0;
 1341              		.loc 1 274 32
 1342 0990 37080000 		lui	a6,%hi(.LANCHOR72)
 275:C:/Users/stapi/OneDrive/Desktop/GD32VW553/V1_MQTT_OK/GD32VW55X_Wifi_BLE_SDK/GD32VW55x_RELEASE_V1.0.2/MSDK/plf/src\init_rom_symbol.c ****         mbedtls_mpi_mul_int_fn = (void *)0x0bf6ecc0;
 1343              		.loc 1 275 32
 1344 0994 9309051F 		addi	s3,a0,496
 274:C:/Users/stapi/OneDrive/Desktop/GD32VW553/V1_MQTT_OK/GD32VW55X_Wifi_BLE_SDK/GD32VW55x_RELEASE_V1.0.2/MSDK/plf/src\init_rom_symbol.c ****         mbedtls_mpi_mod_mpi_fn = (void *)0x0bf6f1f0;
 1345              		.loc 1 274 32
 1346 0998 23204801 		sw	s4,%lo(.LANCHOR72)(a6)
 275:C:/Users/stapi/OneDrive/Desktop/GD32VW553/V1_MQTT_OK/GD32VW55X_Wifi_BLE_SDK/GD32VW55x_RELEASE_V1.0.2/MSDK/plf/src\init_rom_symbol.c ****         mbedtls_mpi_mul_int_fn = (void *)0x0bf6ecc0;
 1347              		.loc 1 275 32
 1348 099c 37080000 		lui	a6,%hi(.LANCHOR73)
 276:C:/Users/stapi/OneDrive/Desktop/GD32VW553/V1_MQTT_OK/GD32VW55X_Wifi_BLE_SDK/GD32VW55x_RELEASE_V1.0.2/MSDK/plf/src\init_rom_symbol.c ****         mbedtls_mpi_mul_mpi_fn = (void *)0x0bf6ea92;
 1349              		.loc 1 276 32
 1350 09a0 130905CC 		addi	s2,a0,-832
 275:C:/Users/stapi/OneDrive/Desktop/GD32VW553/V1_MQTT_OK/GD32VW55X_Wifi_BLE_SDK/GD32VW55x_RELEASE_V1.0.2/MSDK/plf/src\init_rom_symbol.c ****         mbedtls_mpi_mul_int_fn = (void *)0x0bf6ecc0;
 1351              		.loc 1 275 32
 1352 09a4 23203801 		sw	s3,%lo(.LANCHOR73)(a6)
 266:C:/Users/stapi/OneDrive/Desktop/GD32VW553/V1_MQTT_OK/GD32VW55X_Wifi_BLE_SDK/GD32VW55x_RELEASE_V1.0.2/MSDK/plf/src\init_rom_symbol.c ****         mbedtls_mpi_exp_mod_sw_fn = (void *)0x0bf6f508;
 1353              		.loc 1 266 32
 1354 09a8 3704F70B 		li	s0,200736768
 276:C:/Users/stapi/OneDrive/Desktop/GD32VW553/V1_MQTT_OK/GD32VW55X_Wifi_BLE_SDK/GD32VW55x_RELEASE_V1.0.2/MSDK/plf/src\init_rom_symbol.c ****         mbedtls_mpi_mul_mpi_fn = (void *)0x0bf6ea92;
 1355              		.loc 1 276 32
 1356 09ac 37080000 		lui	a6,%hi(.LANCHOR74)
 277:C:/Users/stapi/OneDrive/Desktop/GD32VW553/V1_MQTT_OK/GD32VW55X_Wifi_BLE_SDK/GD32VW55x_RELEASE_V1.0.2/MSDK/plf/src\init_rom_symbol.c ****         mbedtls_mpi_read_string_fn = (void *)0x0bf6eaa8;
 1357              		.loc 1 277 32
 1358 09b0 930425A9 		addi	s1,a0,-1390
 276:C:/Users/stapi/OneDrive/Desktop/GD32VW553/V1_MQTT_OK/GD32VW55X_Wifi_BLE_SDK/GD32VW55x_RELEASE_V1.0.2/MSDK/plf/src\init_rom_symbol.c ****         mbedtls_mpi_mul_mpi_fn = (void *)0x0bf6ea92;
 1359              		.loc 1 276 32
 1360 09b4 23202801 		sw	s2,%lo(.LANCHOR74)(a6)
 266:C:/Users/stapi/OneDrive/Desktop/GD32VW553/V1_MQTT_OK/GD32VW55X_Wifi_BLE_SDK/GD32VW55x_RELEASE_V1.0.2/MSDK/plf/src\init_rom_symbol.c ****         mbedtls_mpi_exp_mod_sw_fn = (void *)0x0bf6f508;
 1361              		.loc 1 266 32
 1362 09b8 B7060000 		lui	a3,%hi(.LANCHOR64)
 1363 09bc 130484B1 		addi	s0,s0,-1256
 277:C:/Users/stapi/OneDrive/Desktop/GD32VW553/V1_MQTT_OK/GD32VW55X_Wifi_BLE_SDK/GD32VW55x_RELEASE_V1.0.2/MSDK/plf/src\init_rom_symbol.c ****         mbedtls_mpi_read_string_fn = (void *)0x0bf6eaa8;
 1364              		.loc 1 277 32
 1365 09c0 37080000 		lui	a6,%hi(.LANCHOR75)
 266:C:/Users/stapi/OneDrive/Desktop/GD32VW553/V1_MQTT_OK/GD32VW55X_Wifi_BLE_SDK/GD32VW55x_RELEASE_V1.0.2/MSDK/plf/src\init_rom_symbol.c ****         mbedtls_mpi_exp_mod_sw_fn = (void *)0x0bf6f508;
 1366              		.loc 1 266 32
 1367 09c4 23A08600 		sw	s0,%lo(.LANCHOR64)(a3)
 267:C:/Users/stapi/OneDrive/Desktop/GD32VW553/V1_MQTT_OK/GD32VW55X_Wifi_BLE_SDK/GD32VW55x_RELEASE_V1.0.2/MSDK/plf/src\init_rom_symbol.c ****         mbedtls_mpi_fill_random_fn = (void *)0x0bf6fe86;
 1368              		.loc 1 267 9 is_stmt 1
 268:C:/Users/stapi/OneDrive/Desktop/GD32VW553/V1_MQTT_OK/GD32VW55X_Wifi_BLE_SDK/GD32VW55x_RELEASE_V1.0.2/MSDK/plf/src\init_rom_symbol.c ****         mbedtls_mpi_gcd_fn = (void *)0x0bf6fc8e;
 1369              		.loc 1 268 9
 269:C:/Users/stapi/OneDrive/Desktop/GD32VW553/V1_MQTT_OK/GD32VW55X_Wifi_BLE_SDK/GD32VW55x_RELEASE_V1.0.2/MSDK/plf/src\init_rom_symbol.c ****         mbedtls_mpi_gen_prime_fn = (void *)0x0bf70584;
 1370              		.loc 1 269 9
 270:C:/Users/stapi/OneDrive/Desktop/GD32VW553/V1_MQTT_OK/GD32VW55X_Wifi_BLE_SDK/GD32VW55x_RELEASE_V1.0.2/MSDK/plf/src\init_rom_symbol.c ****         mbedtls_mpi_inv_mod_fn = (void *)0x0bf701b4;
 1371              		.loc 1 270 9
 271:C:/Users/stapi/OneDrive/Desktop/GD32VW553/V1_MQTT_OK/GD32VW55X_Wifi_BLE_SDK/GD32VW55x_RELEASE_V1.0.2/MSDK/plf/src\init_rom_symbol.c ****         mbedtls_mpi_is_prime_fn = (void *)0x0bf70578   ;
 1372              		.loc 1 271 9
 272:C:/Users/stapi/OneDrive/Desktop/GD32VW553/V1_MQTT_OK/GD32VW55X_Wifi_BLE_SDK/GD32VW55x_RELEASE_V1.0.2/MSDK/plf/src\init_rom_symbol.c ****         mbedtls_mpi_is_prime_ext_fn = (void *)0x0bf704d6;
 1373              		.loc 1 272 9
 273:C:/Users/stapi/OneDrive/Desktop/GD32VW553/V1_MQTT_OK/GD32VW55X_Wifi_BLE_SDK/GD32VW55x_RELEASE_V1.0.2/MSDK/plf/src\init_rom_symbol.c ****         mbedtls_mpi_mod_int_fn = (void *)0x0bf6f28c;
 1374              		.loc 1 273 9
 274:C:/Users/stapi/OneDrive/Desktop/GD32VW553/V1_MQTT_OK/GD32VW55X_Wifi_BLE_SDK/GD32VW55x_RELEASE_V1.0.2/MSDK/plf/src\init_rom_symbol.c ****         mbedtls_mpi_mod_mpi_fn = (void *)0x0bf6f1f0;
 1375              		.loc 1 274 9
 275:C:/Users/stapi/OneDrive/Desktop/GD32VW553/V1_MQTT_OK/GD32VW55X_Wifi_BLE_SDK/GD32VW55x_RELEASE_V1.0.2/MSDK/plf/src\init_rom_symbol.c ****         mbedtls_mpi_mul_int_fn = (void *)0x0bf6ecc0;
 1376              		.loc 1 275 9
 276:C:/Users/stapi/OneDrive/Desktop/GD32VW553/V1_MQTT_OK/GD32VW55X_Wifi_BLE_SDK/GD32VW55x_RELEASE_V1.0.2/MSDK/plf/src\init_rom_symbol.c ****         mbedtls_mpi_mul_mpi_fn = (void *)0x0bf6ea92;
 1377              		.loc 1 276 9
 277:C:/Users/stapi/OneDrive/Desktop/GD32VW553/V1_MQTT_OK/GD32VW55X_Wifi_BLE_SDK/GD32VW55x_RELEASE_V1.0.2/MSDK/plf/src\init_rom_symbol.c ****         mbedtls_mpi_read_string_fn = (void *)0x0bf6eaa8;
 1378              		.loc 1 277 9
 277:C:/Users/stapi/OneDrive/Desktop/GD32VW553/V1_MQTT_OK/GD32VW55X_Wifi_BLE_SDK/GD32VW55x_RELEASE_V1.0.2/MSDK/plf/src\init_rom_symbol.c ****         mbedtls_mpi_read_string_fn = (void *)0x0bf6eaa8;
 1379              		.loc 1 277 32 is_stmt 0
 1380 09c8 23209800 		sw	s1,%lo(.LANCHOR75)(a6)
 278:C:/Users/stapi/OneDrive/Desktop/GD32VW553/V1_MQTT_OK/GD32VW55X_Wifi_BLE_SDK/GD32VW55x_RELEASE_V1.0.2/MSDK/plf/src\init_rom_symbol.c ****         mbedtls_mpi_write_string_fn = (void *)0x0bf6f2c0;
 1381              		.loc 1 278 9 is_stmt 1
 278:C:/Users/stapi/OneDrive/Desktop/GD32VW553/V1_MQTT_OK/GD32VW55X_Wifi_BLE_SDK/GD32VW55x_RELEASE_V1.0.2/MSDK/plf/src\init_rom_symbol.c ****         mbedtls_mpi_write_string_fn = (void *)0x0bf6f2c0;
 1382              		.loc 1 278 36 is_stmt 0
 1383 09cc 130485AA 		addi	s0,a0,-1368
 1384 09d0 37080000 		lui	a6,%hi(.LANCHOR76)
 1385 09d4 23208800 		sw	s0,%lo(.LANCHOR76)(a6)
 279:C:/Users/stapi/OneDrive/Desktop/GD32VW553/V1_MQTT_OK/GD32VW55X_Wifi_BLE_SDK/GD32VW55x_RELEASE_V1.0.2/MSDK/plf/src\init_rom_symbol.c ****         mbedtls_rsa_check_privkey_fn = (void *)0x0bf74536;
 1386              		.loc 1 279 9 is_stmt 1
 279:C:/Users/stapi/OneDrive/Desktop/GD32VW553/V1_MQTT_OK/GD32VW55X_Wifi_BLE_SDK/GD32VW55x_RELEASE_V1.0.2/MSDK/plf/src\init_rom_symbol.c ****         mbedtls_rsa_check_privkey_fn = (void *)0x0bf74536;
 1387              		.loc 1 279 37 is_stmt 0
 1388 09d8 1305052C 		addi	a0,a0,704
 1389 09dc 37080000 		lui	a6,%hi(.LANCHOR77)
 280:C:/Users/stapi/OneDrive/Desktop/GD32VW553/V1_MQTT_OK/GD32VW55X_Wifi_BLE_SDK/GD32VW55x_RELEASE_V1.0.2/MSDK/plf/src\init_rom_symbol.c ****         mbedtls_rsa_check_pub_priv_fn = (void *)0x0bf747cc;
 1390              		.loc 1 280 38
 1391 09e0 93036753 		addi	t2,a4,1334
 279:C:/Users/stapi/OneDrive/Desktop/GD32VW553/V1_MQTT_OK/GD32VW55X_Wifi_BLE_SDK/GD32VW55x_RELEASE_V1.0.2/MSDK/plf/src\init_rom_symbol.c ****         mbedtls_rsa_check_privkey_fn = (void *)0x0bf74536;
 1392              		.loc 1 279 37
 1393 09e4 2320A800 		sw	a0,%lo(.LANCHOR77)(a6)
 280:C:/Users/stapi/OneDrive/Desktop/GD32VW553/V1_MQTT_OK/GD32VW55X_Wifi_BLE_SDK/GD32VW55x_RELEASE_V1.0.2/MSDK/plf/src\init_rom_symbol.c ****         mbedtls_rsa_check_pub_priv_fn = (void *)0x0bf747cc;
 1394              		.loc 1 280 9 is_stmt 1
 280:C:/Users/stapi/OneDrive/Desktop/GD32VW553/V1_MQTT_OK/GD32VW55X_Wifi_BLE_SDK/GD32VW55x_RELEASE_V1.0.2/MSDK/plf/src\init_rom_symbol.c ****         mbedtls_rsa_check_pub_priv_fn = (void *)0x0bf747cc;
 1395              		.loc 1 280 38 is_stmt 0
 1396 09e8 37050000 		lui	a0,%hi(.LANCHOR78)
 281:C:/Users/stapi/OneDrive/Desktop/GD32VW553/V1_MQTT_OK/GD32VW55X_Wifi_BLE_SDK/GD32VW55x_RELEASE_V1.0.2/MSDK/plf/src\init_rom_symbol.c ****         mbedtls_rsa_check_pubkey_fn = (void *)0x0bf744d4;
 1397              		.loc 1 281 39
 1398 09ec 9302C77C 		addi	t0,a4,1996
 280:C:/Users/stapi/OneDrive/Desktop/GD32VW553/V1_MQTT_OK/GD32VW55X_Wifi_BLE_SDK/GD32VW55x_RELEASE_V1.0.2/MSDK/plf/src\init_rom_symbol.c ****         mbedtls_rsa_check_pub_priv_fn = (void *)0x0bf747cc;
 1399              		.loc 1 280 38
 1400 09f0 23207500 		sw	t2,%lo(.LANCHOR78)(a0)
 281:C:/Users/stapi/OneDrive/Desktop/GD32VW553/V1_MQTT_OK/GD32VW55X_Wifi_BLE_SDK/GD32VW55x_RELEASE_V1.0.2/MSDK/plf/src\init_rom_symbol.c ****         mbedtls_rsa_check_pubkey_fn = (void *)0x0bf744d4;
 1401              		.loc 1 281 9 is_stmt 1
 281:C:/Users/stapi/OneDrive/Desktop/GD32VW553/V1_MQTT_OK/GD32VW55X_Wifi_BLE_SDK/GD32VW55x_RELEASE_V1.0.2/MSDK/plf/src\init_rom_symbol.c ****         mbedtls_rsa_check_pubkey_fn = (void *)0x0bf744d4;
 1402              		.loc 1 281 39 is_stmt 0
 1403 09f4 37050000 		lui	a0,%hi(.LANCHOR79)
 282:C:/Users/stapi/OneDrive/Desktop/GD32VW553/V1_MQTT_OK/GD32VW55X_Wifi_BLE_SDK/GD32VW55x_RELEASE_V1.0.2/MSDK/plf/src\init_rom_symbol.c ****         mbedtls_rsa_complete_fn = (void *)0x0bf74054;
 1404              		.loc 1 282 37
 1405 09f8 930F474D 		addi	t6,a4,1236
 281:C:/Users/stapi/OneDrive/Desktop/GD32VW553/V1_MQTT_OK/GD32VW55X_Wifi_BLE_SDK/GD32VW55x_RELEASE_V1.0.2/MSDK/plf/src\init_rom_symbol.c ****         mbedtls_rsa_check_pubkey_fn = (void *)0x0bf744d4;
 1406              		.loc 1 281 39
 1407 09fc 23205500 		sw	t0,%lo(.LANCHOR79)(a0)
 282:C:/Users/stapi/OneDrive/Desktop/GD32VW553/V1_MQTT_OK/GD32VW55X_Wifi_BLE_SDK/GD32VW55x_RELEASE_V1.0.2/MSDK/plf/src\init_rom_symbol.c ****         mbedtls_rsa_complete_fn = (void *)0x0bf74054;
 1408              		.loc 1 282 9 is_stmt 1
 282:C:/Users/stapi/OneDrive/Desktop/GD32VW553/V1_MQTT_OK/GD32VW55X_Wifi_BLE_SDK/GD32VW55x_RELEASE_V1.0.2/MSDK/plf/src\init_rom_symbol.c ****         mbedtls_rsa_complete_fn = (void *)0x0bf74054;
 1409              		.loc 1 282 37 is_stmt 0
 1410 0a00 37050000 		lui	a0,%hi(.LANCHOR80)
 283:C:/Users/stapi/OneDrive/Desktop/GD32VW553/V1_MQTT_OK/GD32VW55X_Wifi_BLE_SDK/GD32VW55x_RELEASE_V1.0.2/MSDK/plf/src\init_rom_symbol.c ****         mbedtls_rsa_copy_fn = (void *)0x0bf75cf6;
 1411              		.loc 1 283 33
 1412 0a04 130F4705 		addi	t5,a4,84
 282:C:/Users/stapi/OneDrive/Desktop/GD32VW553/V1_MQTT_OK/GD32VW55X_Wifi_BLE_SDK/GD32VW55x_RELEASE_V1.0.2/MSDK/plf/src\init_rom_symbol.c ****         mbedtls_rsa_complete_fn = (void *)0x0bf74054;
 1413              		.loc 1 282 37
 1414 0a08 2320F501 		sw	t6,%lo(.LANCHOR80)(a0)
 283:C:/Users/stapi/OneDrive/Desktop/GD32VW553/V1_MQTT_OK/GD32VW55X_Wifi_BLE_SDK/GD32VW55x_RELEASE_V1.0.2/MSDK/plf/src\init_rom_symbol.c ****         mbedtls_rsa_copy_fn = (void *)0x0bf75cf6;
 1415              		.loc 1 283 9 is_stmt 1
 283:C:/Users/stapi/OneDrive/Desktop/GD32VW553/V1_MQTT_OK/GD32VW55X_Wifi_BLE_SDK/GD32VW55x_RELEASE_V1.0.2/MSDK/plf/src\init_rom_symbol.c ****         mbedtls_rsa_copy_fn = (void *)0x0bf75cf6;
 1416              		.loc 1 283 33 is_stmt 0
 1417 0a0c 37050000 		lui	a0,%hi(.LANCHOR81)
 284:C:/Users/stapi/OneDrive/Desktop/GD32VW553/V1_MQTT_OK/GD32VW55X_Wifi_BLE_SDK/GD32VW55x_RELEASE_V1.0.2/MSDK/plf/src\init_rom_symbol.c ****         mbedtls_rsa_export_fn = (void *)0x0bf742ec;
 1418              		.loc 1 284 29
 1419 0a10 938E67CF 		addi	t4,a5,-778
 283:C:/Users/stapi/OneDrive/Desktop/GD32VW553/V1_MQTT_OK/GD32VW55X_Wifi_BLE_SDK/GD32VW55x_RELEASE_V1.0.2/MSDK/plf/src\init_rom_symbol.c ****         mbedtls_rsa_copy_fn = (void *)0x0bf75cf6;
 1420              		.loc 1 283 33
 1421 0a14 2320E501 		sw	t5,%lo(.LANCHOR81)(a0)
 284:C:/Users/stapi/OneDrive/Desktop/GD32VW553/V1_MQTT_OK/GD32VW55X_Wifi_BLE_SDK/GD32VW55x_RELEASE_V1.0.2/MSDK/plf/src\init_rom_symbol.c ****         mbedtls_rsa_export_fn = (void *)0x0bf742ec;
 1422              		.loc 1 284 9 is_stmt 1
 284:C:/Users/stapi/OneDrive/Desktop/GD32VW553/V1_MQTT_OK/GD32VW55X_Wifi_BLE_SDK/GD32VW55x_RELEASE_V1.0.2/MSDK/plf/src\init_rom_symbol.c ****         mbedtls_rsa_export_fn = (void *)0x0bf742ec;
 1423              		.loc 1 284 29 is_stmt 0
 1424 0a18 37050000 		lui	a0,%hi(.LANCHOR82)
 285:C:/Users/stapi/OneDrive/Desktop/GD32VW553/V1_MQTT_OK/GD32VW55X_Wifi_BLE_SDK/GD32VW55x_RELEASE_V1.0.2/MSDK/plf/src\init_rom_symbol.c ****         mbedtls_rsa_export_crt_fn = (void *)0x0bf743ee;
 1425              		.loc 1 285 31
 1426 0a1c 130EC72E 		addi	t3,a4,748
 284:C:/Users/stapi/OneDrive/Desktop/GD32VW553/V1_MQTT_OK/GD32VW55X_Wifi_BLE_SDK/GD32VW55x_RELEASE_V1.0.2/MSDK/plf/src\init_rom_symbol.c ****         mbedtls_rsa_export_fn = (void *)0x0bf742ec;
 1427              		.loc 1 284 29
 1428 0a20 2320D501 		sw	t4,%lo(.LANCHOR82)(a0)
 285:C:/Users/stapi/OneDrive/Desktop/GD32VW553/V1_MQTT_OK/GD32VW55X_Wifi_BLE_SDK/GD32VW55x_RELEASE_V1.0.2/MSDK/plf/src\init_rom_symbol.c ****         mbedtls_rsa_export_crt_fn = (void *)0x0bf743ee;
 1429              		.loc 1 285 9 is_stmt 1
 285:C:/Users/stapi/OneDrive/Desktop/GD32VW553/V1_MQTT_OK/GD32VW55X_Wifi_BLE_SDK/GD32VW55x_RELEASE_V1.0.2/MSDK/plf/src\init_rom_symbol.c ****         mbedtls_rsa_export_crt_fn = (void *)0x0bf743ee;
 1430              		.loc 1 285 31 is_stmt 0
 1431 0a24 37050000 		lui	a0,%hi(.LANCHOR83)
 286:C:/Users/stapi/OneDrive/Desktop/GD32VW553/V1_MQTT_OK/GD32VW55X_Wifi_BLE_SDK/GD32VW55x_RELEASE_V1.0.2/MSDK/plf/src\init_rom_symbol.c ****         mbedtls_rsa_export_raw_fn = (void *)0x0bf741b4;
 1432              		.loc 1 286 35
 1433 0a28 1303E73E 		addi	t1,a4,1006
 285:C:/Users/stapi/OneDrive/Desktop/GD32VW553/V1_MQTT_OK/GD32VW55X_Wifi_BLE_SDK/GD32VW55x_RELEASE_V1.0.2/MSDK/plf/src\init_rom_symbol.c ****         mbedtls_rsa_export_crt_fn = (void *)0x0bf743ee;
 1434              		.loc 1 285 31
 1435 0a2c 2320C501 		sw	t3,%lo(.LANCHOR83)(a0)
 286:C:/Users/stapi/OneDrive/Desktop/GD32VW553/V1_MQTT_OK/GD32VW55X_Wifi_BLE_SDK/GD32VW55x_RELEASE_V1.0.2/MSDK/plf/src\init_rom_symbol.c ****         mbedtls_rsa_export_raw_fn = (void *)0x0bf741b4;
 1436              		.loc 1 286 9 is_stmt 1
 286:C:/Users/stapi/OneDrive/Desktop/GD32VW553/V1_MQTT_OK/GD32VW55X_Wifi_BLE_SDK/GD32VW55x_RELEASE_V1.0.2/MSDK/plf/src\init_rom_symbol.c ****         mbedtls_rsa_export_raw_fn = (void *)0x0bf741b4;
 1437              		.loc 1 286 35 is_stmt 0
 1438 0a30 37050000 		lui	a0,%hi(.LANCHOR84)
 287:C:/Users/stapi/OneDrive/Desktop/GD32VW553/V1_MQTT_OK/GD32VW55X_Wifi_BLE_SDK/GD32VW55x_RELEASE_V1.0.2/MSDK/plf/src\init_rom_symbol.c ****         mbedtls_rsa_free_fn = (void *)0x0bf75e00;
 1439              		.loc 1 287 35
 1440 0a34 9308471B 		addi	a7,a4,436
 286:C:/Users/stapi/OneDrive/Desktop/GD32VW553/V1_MQTT_OK/GD32VW55X_Wifi_BLE_SDK/GD32VW55x_RELEASE_V1.0.2/MSDK/plf/src\init_rom_symbol.c ****         mbedtls_rsa_export_raw_fn = (void *)0x0bf741b4;
 1441              		.loc 1 286 35
 1442 0a38 23206500 		sw	t1,%lo(.LANCHOR84)(a0)
 287:C:/Users/stapi/OneDrive/Desktop/GD32VW553/V1_MQTT_OK/GD32VW55X_Wifi_BLE_SDK/GD32VW55x_RELEASE_V1.0.2/MSDK/plf/src\init_rom_symbol.c ****         mbedtls_rsa_free_fn = (void *)0x0bf75e00;
 1443              		.loc 1 287 9 is_stmt 1
 287:C:/Users/stapi/OneDrive/Desktop/GD32VW553/V1_MQTT_OK/GD32VW55X_Wifi_BLE_SDK/GD32VW55x_RELEASE_V1.0.2/MSDK/plf/src\init_rom_symbol.c ****         mbedtls_rsa_free_fn = (void *)0x0bf75e00;
 1444              		.loc 1 287 35 is_stmt 0
 1445 0a3c 37050000 		lui	a0,%hi(.LANCHOR85)
 288:C:/Users/stapi/OneDrive/Desktop/GD32VW553/V1_MQTT_OK/GD32VW55X_Wifi_BLE_SDK/GD32VW55x_RELEASE_V1.0.2/MSDK/plf/src\init_rom_symbol.c ****         mbedtls_rsa_gen_key_fn = (void *)0x0bf745a6;
 1446              		.loc 1 288 29
 1447 0a40 138607E0 		addi	a2,a5,-512
 287:C:/Users/stapi/OneDrive/Desktop/GD32VW553/V1_MQTT_OK/GD32VW55X_Wifi_BLE_SDK/GD32VW55x_RELEASE_V1.0.2/MSDK/plf/src\init_rom_symbol.c ****         mbedtls_rsa_free_fn = (void *)0x0bf75e00;
 1448              		.loc 1 287 35
 1449 0a44 23201501 		sw	a7,%lo(.LANCHOR85)(a0)
 288:C:/Users/stapi/OneDrive/Desktop/GD32VW553/V1_MQTT_OK/GD32VW55X_Wifi_BLE_SDK/GD32VW55x_RELEASE_V1.0.2/MSDK/plf/src\init_rom_symbol.c ****         mbedtls_rsa_gen_key_fn = (void *)0x0bf745a6;
 1450              		.loc 1 288 9 is_stmt 1
 288:C:/Users/stapi/OneDrive/Desktop/GD32VW553/V1_MQTT_OK/GD32VW55X_Wifi_BLE_SDK/GD32VW55x_RELEASE_V1.0.2/MSDK/plf/src\init_rom_symbol.c ****         mbedtls_rsa_gen_key_fn = (void *)0x0bf745a6;
 1451              		.loc 1 288 29 is_stmt 0
 1452 0a48 37050000 		lui	a0,%hi(.LANCHOR86)
 289:C:/Users/stapi/OneDrive/Desktop/GD32VW553/V1_MQTT_OK/GD32VW55X_Wifi_BLE_SDK/GD32VW55x_RELEASE_V1.0.2/MSDK/plf/src\init_rom_symbol.c ****         mbedtls_rsa_get_len_fn = (void *)0x0bf744d0;
 1453              		.loc 1 289 32
 1454 0a4c 9306675A 		addi	a3,a4,1446
 288:C:/Users/stapi/OneDrive/Desktop/GD32VW553/V1_MQTT_OK/GD32VW55X_Wifi_BLE_SDK/GD32VW55x_RELEASE_V1.0.2/MSDK/plf/src\init_rom_symbol.c ****         mbedtls_rsa_gen_key_fn = (void *)0x0bf745a6;
 1455              		.loc 1 288 29
 1456 0a50 2320C500 		sw	a2,%lo(.LANCHOR86)(a0)
 289:C:/Users/stapi/OneDrive/Desktop/GD32VW553/V1_MQTT_OK/GD32VW55X_Wifi_BLE_SDK/GD32VW55x_RELEASE_V1.0.2/MSDK/plf/src\init_rom_symbol.c ****         mbedtls_rsa_get_len_fn = (void *)0x0bf744d0;
 1457              		.loc 1 289 9 is_stmt 1
 290:C:/Users/stapi/OneDrive/Desktop/GD32VW553/V1_MQTT_OK/GD32VW55X_Wifi_BLE_SDK/GD32VW55x_RELEASE_V1.0.2/MSDK/plf/src\init_rom_symbol.c ****         mbedtls_rsa_import_fn = (void *)0x0bf73f28;
 1458              		.loc 1 290 32 is_stmt 0
 1459 0a54 3745F70B 		li	a0,200753152
 289:C:/Users/stapi/OneDrive/Desktop/GD32VW553/V1_MQTT_OK/GD32VW55X_Wifi_BLE_SDK/GD32VW55x_RELEASE_V1.0.2/MSDK/plf/src\init_rom_symbol.c ****         mbedtls_rsa_get_len_fn = (void *)0x0bf744d0;
 1460              		.loc 1 289 32
 1461 0a58 37060000 		lui	a2,%hi(.LANCHOR87)
 1462 0a5c 2320D600 		sw	a3,%lo(.LANCHOR87)(a2)
 290:C:/Users/stapi/OneDrive/Desktop/GD32VW553/V1_MQTT_OK/GD32VW55X_Wifi_BLE_SDK/GD32VW55x_RELEASE_V1.0.2/MSDK/plf/src\init_rom_symbol.c ****         mbedtls_rsa_import_fn = (void *)0x0bf73f28;
 1463              		.loc 1 290 9 is_stmt 1
 290:C:/Users/stapi/OneDrive/Desktop/GD32VW553/V1_MQTT_OK/GD32VW55X_Wifi_BLE_SDK/GD32VW55x_RELEASE_V1.0.2/MSDK/plf/src\init_rom_symbol.c ****         mbedtls_rsa_import_fn = (void *)0x0bf73f28;
 1464              		.loc 1 290 32 is_stmt 0
 1465 0a60 1304054D 		addi	s0,a0,1232
 1466 0a64 B7060000 		lui	a3,%hi(.LANCHOR88)
 1467 0a68 23A08600 		sw	s0,%lo(.LANCHOR88)(a3)
 291:C:/Users/stapi/OneDrive/Desktop/GD32VW553/V1_MQTT_OK/GD32VW55X_Wifi_BLE_SDK/GD32VW55x_RELEASE_V1.0.2/MSDK/plf/src\init_rom_symbol.c ****         mbedtls_rsa_import_raw_fn = (void *)0x0bf73fba;
 1468              		.loc 1 291 9 is_stmt 1
 291:C:/Users/stapi/OneDrive/Desktop/GD32VW553/V1_MQTT_OK/GD32VW55X_Wifi_BLE_SDK/GD32VW55x_RELEASE_V1.0.2/MSDK/plf/src\init_rom_symbol.c ****         mbedtls_rsa_import_raw_fn = (void *)0x0bf73fba;
 1469              		.loc 1 291 31 is_stmt 0
 1470 0a6c 130485F2 		addi	s0,a0,-216
 1471 0a70 B7060000 		lui	a3,%hi(.LANCHOR89)
 1472 0a74 23A08600 		sw	s0,%lo(.LANCHOR89)(a3)
 292:C:/Users/stapi/OneDrive/Desktop/GD32VW553/V1_MQTT_OK/GD32VW55X_Wifi_BLE_SDK/GD32VW55x_RELEASE_V1.0.2/MSDK/plf/src\init_rom_symbol.c ****         mbedtls_rsa_init_fn = (void *)0x0bf74498;
 1473              		.loc 1 292 9 is_stmt 1
 292:C:/Users/stapi/OneDrive/Desktop/GD32VW553/V1_MQTT_OK/GD32VW55X_Wifi_BLE_SDK/GD32VW55x_RELEASE_V1.0.2/MSDK/plf/src\init_rom_symbol.c ****         mbedtls_rsa_init_fn = (void *)0x0bf74498;
 1474              		.loc 1 292 35 is_stmt 0
 1475 0a78 1304A5FB 		addi	s0,a0,-70
 1476 0a7c B7060000 		lui	a3,%hi(.LANCHOR90)
 1477 0a80 23A08600 		sw	s0,%lo(.LANCHOR90)(a3)
 293:C:/Users/stapi/OneDrive/Desktop/GD32VW553/V1_MQTT_OK/GD32VW55X_Wifi_BLE_SDK/GD32VW55x_RELEASE_V1.0.2/MSDK/plf/src\init_rom_symbol.c ****         mbedtls_rsa_pkcs1_decrypt_fn = (void *)0x0bf755f6;
 1478              		.loc 1 293 9 is_stmt 1
 293:C:/Users/stapi/OneDrive/Desktop/GD32VW553/V1_MQTT_OK/GD32VW55X_Wifi_BLE_SDK/GD32VW55x_RELEASE_V1.0.2/MSDK/plf/src\init_rom_symbol.c ****         mbedtls_rsa_pkcs1_decrypt_fn = (void *)0x0bf755f6;
 1479              		.loc 1 293 29 is_stmt 0
 1480 0a84 13058549 		addi	a0,a0,1176
 1481 0a88 B7060000 		lui	a3,%hi(.LANCHOR91)
 1482 0a8c 23A0A600 		sw	a0,%lo(.LANCHOR91)(a3)
 294:C:/Users/stapi/OneDrive/Desktop/GD32VW553/V1_MQTT_OK/GD32VW55X_Wifi_BLE_SDK/GD32VW55x_RELEASE_V1.0.2/MSDK/plf/src\init_rom_symbol.c ****         mbedtls_rsa_pkcs1_encrypt_fn = (void *)0x0bf75138;
 1483              		.loc 1 294 9 is_stmt 1
 294:C:/Users/stapi/OneDrive/Desktop/GD32VW553/V1_MQTT_OK/GD32VW55X_Wifi_BLE_SDK/GD32VW55x_RELEASE_V1.0.2/MSDK/plf/src\init_rom_symbol.c ****         mbedtls_rsa_pkcs1_encrypt_fn = (void *)0x0bf75138;
 1484              		.loc 1 294 38 is_stmt 0
 1485 0a90 3755F70B 		li	a0,200757248
 1486 0a94 1304655F 		addi	s0,a0,1526
 1487 0a98 B7060000 		lui	a3,%hi(.LANCHOR92)
 1488 0a9c 23A08600 		sw	s0,%lo(.LANCHOR92)(a3)
 295:C:/Users/stapi/OneDrive/Desktop/GD32VW553/V1_MQTT_OK/GD32VW55X_Wifi_BLE_SDK/GD32VW55x_RELEASE_V1.0.2/MSDK/plf/src\init_rom_symbol.c ****         mbedtls_rsa_pkcs1_sign_fn = (void *)0x0bf75928;
 1489              		.loc 1 295 9 is_stmt 1
 296:C:/Users/stapi/OneDrive/Desktop/GD32VW553/V1_MQTT_OK/GD32VW55X_Wifi_BLE_SDK/GD32VW55x_RELEASE_V1.0.2/MSDK/plf/src\init_rom_symbol.c ****         mbedtls_rsa_pkcs1_verify_fn = (void *)0x0bf75c98;
 1490              		.loc 1 296 35 is_stmt 0
 1491 0aa0 3766F70B 		li	a2,200761344
 295:C:/Users/stapi/OneDrive/Desktop/GD32VW553/V1_MQTT_OK/GD32VW55X_Wifi_BLE_SDK/GD32VW55x_RELEASE_V1.0.2/MSDK/plf/src\init_rom_symbol.c ****         mbedtls_rsa_pkcs1_sign_fn = (void *)0x0bf75928;
 1492              		.loc 1 295 38
 1493 0aa4 13048513 		addi	s0,a0,312
 1494 0aa8 B7060000 		lui	a3,%hi(.LANCHOR93)
 1495 0aac 23A08600 		sw	s0,%lo(.LANCHOR93)(a3)
 296:C:/Users/stapi/OneDrive/Desktop/GD32VW553/V1_MQTT_OK/GD32VW55X_Wifi_BLE_SDK/GD32VW55x_RELEASE_V1.0.2/MSDK/plf/src\init_rom_symbol.c ****         mbedtls_rsa_pkcs1_verify_fn = (void *)0x0bf75c98;
 1496              		.loc 1 296 9 is_stmt 1
 296:C:/Users/stapi/OneDrive/Desktop/GD32VW553/V1_MQTT_OK/GD32VW55X_Wifi_BLE_SDK/GD32VW55x_RELEASE_V1.0.2/MSDK/plf/src\init_rom_symbol.c ****         mbedtls_rsa_pkcs1_verify_fn = (void *)0x0bf75c98;
 1497              		.loc 1 296 35 is_stmt 0
 1498 0ab0 13048692 		addi	s0,a2,-1752
 1499 0ab4 B7060000 		lui	a3,%hi(.LANCHOR94)
 294:C:/Users/stapi/OneDrive/Desktop/GD32VW553/V1_MQTT_OK/GD32VW55X_Wifi_BLE_SDK/GD32VW55x_RELEASE_V1.0.2/MSDK/plf/src\init_rom_symbol.c ****         mbedtls_rsa_pkcs1_encrypt_fn = (void *)0x0bf75138;
 1500              		.loc 1 294 38
 1501 0ab8 B755F70B 		li	a1,200757248
 296:C:/Users/stapi/OneDrive/Desktop/GD32VW553/V1_MQTT_OK/GD32VW55X_Wifi_BLE_SDK/GD32VW55x_RELEASE_V1.0.2/MSDK/plf/src\init_rom_symbol.c ****         mbedtls_rsa_pkcs1_verify_fn = (void *)0x0bf75c98;
 1502              		.loc 1 296 35
 1503 0abc 23A08600 		sw	s0,%lo(.LANCHOR94)(a3)
 297:C:/Users/stapi/OneDrive/Desktop/GD32VW553/V1_MQTT_OK/GD32VW55X_Wifi_BLE_SDK/GD32VW55x_RELEASE_V1.0.2/MSDK/plf/src\init_rom_symbol.c ****         mbedtls_rsa_private_fn = (void *)0x0bf74e92;
 1504              		.loc 1 297 9 is_stmt 1
 297:C:/Users/stapi/OneDrive/Desktop/GD32VW553/V1_MQTT_OK/GD32VW55X_Wifi_BLE_SDK/GD32VW55x_RELEASE_V1.0.2/MSDK/plf/src\init_rom_symbol.c ****         mbedtls_rsa_private_fn = (void *)0x0bf74e92;
 1505              		.loc 1 297 37 is_stmt 0
 1506 0ac0 130686C9 		addi	a2,a2,-872
 1507 0ac4 B7060000 		lui	a3,%hi(.LANCHOR95)
 1508 0ac8 23A0C600 		sw	a2,%lo(.LANCHOR95)(a3)
 298:C:/Users/stapi/OneDrive/Desktop/GD32VW553/V1_MQTT_OK/GD32VW55X_Wifi_BLE_SDK/GD32VW55x_RELEASE_V1.0.2/MSDK/plf/src\init_rom_symbol.c ****         mbedtls_rsa_private_sw_fn = (void *)0x0bf7496c;
 1509              		.loc 1 298 9 is_stmt 1
 300:C:/Users/stapi/OneDrive/Desktop/GD32VW553/V1_MQTT_OK/GD32VW55X_Wifi_BLE_SDK/GD32VW55x_RELEASE_V1.0.2/MSDK/plf/src\init_rom_symbol.c ****         mbedtls_rsa_rsaes_oaep_decrypt_fn = (void *)0x0bf7516c;
 1510              		.loc 1 300 31 is_stmt 0
 1511 0acc 938A4581 		addi	s5,a1,-2028
 298:C:/Users/stapi/OneDrive/Desktop/GD32VW553/V1_MQTT_OK/GD32VW55X_Wifi_BLE_SDK/GD32VW55x_RELEASE_V1.0.2/MSDK/plf/src\init_rom_symbol.c ****         mbedtls_rsa_private_sw_fn = (void *)0x0bf7496c;
 1512              		.loc 1 298 32
 1513 0ad0 130625E9 		addi	a2,a0,-366
 1514 0ad4 B7060000 		lui	a3,%hi(.LANCHOR96)
 300:C:/Users/stapi/OneDrive/Desktop/GD32VW553/V1_MQTT_OK/GD32VW55X_Wifi_BLE_SDK/GD32VW55x_RELEASE_V1.0.2/MSDK/plf/src\init_rom_symbol.c ****         mbedtls_rsa_rsaes_oaep_decrypt_fn = (void *)0x0bf7516c;
 1515              		.loc 1 300 31
 1516 0ad8 B7020000 		lui	t0,%hi(.LANCHOR98)
 298:C:/Users/stapi/OneDrive/Desktop/GD32VW553/V1_MQTT_OK/GD32VW55X_Wifi_BLE_SDK/GD32VW55x_RELEASE_V1.0.2/MSDK/plf/src\init_rom_symbol.c ****         mbedtls_rsa_private_sw_fn = (void *)0x0bf7496c;
 1517              		.loc 1 298 32
 1518 0adc 23A0C600 		sw	a2,%lo(.LANCHOR96)(a3)
 299:C:/Users/stapi/OneDrive/Desktop/GD32VW553/V1_MQTT_OK/GD32VW55X_Wifi_BLE_SDK/GD32VW55x_RELEASE_V1.0.2/MSDK/plf/src\init_rom_symbol.c ****         mbedtls_rsa_public_fn = (void *)0x0bf74814;
 1519              		.loc 1 299 9 is_stmt 1
 301:C:/Users/stapi/OneDrive/Desktop/GD32VW553/V1_MQTT_OK/GD32VW55X_Wifi_BLE_SDK/GD32VW55x_RELEASE_V1.0.2/MSDK/plf/src\init_rom_symbol.c ****         mbedtls_rsa_rsaes_oaep_encrypt_fn = (void *)0x0bf74ea6;
 1520              		.loc 1 301 43 is_stmt 0
 1521 0ae0 138AC516 		addi	s4,a1,364
 300:C:/Users/stapi/OneDrive/Desktop/GD32VW553/V1_MQTT_OK/GD32VW55X_Wifi_BLE_SDK/GD32VW55x_RELEASE_V1.0.2/MSDK/plf/src\init_rom_symbol.c ****         mbedtls_rsa_rsaes_oaep_decrypt_fn = (void *)0x0bf7516c;
 1522              		.loc 1 300 31
 1523 0ae4 23A05201 		sw	s5,%lo(.LANCHOR98)(t0)
 301:C:/Users/stapi/OneDrive/Desktop/GD32VW553/V1_MQTT_OK/GD32VW55X_Wifi_BLE_SDK/GD32VW55x_RELEASE_V1.0.2/MSDK/plf/src\init_rom_symbol.c ****         mbedtls_rsa_rsaes_oaep_encrypt_fn = (void *)0x0bf74ea6;
 1524              		.loc 1 301 43
 1525 0ae8 B7020000 		lui	t0,%hi(.LANCHOR99)
 302:C:/Users/stapi/OneDrive/Desktop/GD32VW553/V1_MQTT_OK/GD32VW55X_Wifi_BLE_SDK/GD32VW55x_RELEASE_V1.0.2/MSDK/plf/src\init_rom_symbol.c ****         mbedtls_rsa_rsaes_pkcs1_v15_decrypt_fn = (void *)0x0bf7539e;
 1526              		.loc 1 302 43
 1527 0aec 938965EA 		addi	s3,a1,-346
 301:C:/Users/stapi/OneDrive/Desktop/GD32VW553/V1_MQTT_OK/GD32VW55X_Wifi_BLE_SDK/GD32VW55x_RELEASE_V1.0.2/MSDK/plf/src\init_rom_symbol.c ****         mbedtls_rsa_rsaes_oaep_encrypt_fn = (void *)0x0bf74ea6;
 1528              		.loc 1 301 43
 1529 0af0 23A04201 		sw	s4,%lo(.LANCHOR99)(t0)
 302:C:/Users/stapi/OneDrive/Desktop/GD32VW553/V1_MQTT_OK/GD32VW55X_Wifi_BLE_SDK/GD32VW55x_RELEASE_V1.0.2/MSDK/plf/src\init_rom_symbol.c ****         mbedtls_rsa_rsaes_pkcs1_v15_decrypt_fn = (void *)0x0bf7539e;
 1530              		.loc 1 302 43
 1531 0af4 B7020000 		lui	t0,%hi(.LANCHOR100)
 303:C:/Users/stapi/OneDrive/Desktop/GD32VW553/V1_MQTT_OK/GD32VW55X_Wifi_BLE_SDK/GD32VW55x_RELEASE_V1.0.2/MSDK/plf/src\init_rom_symbol.c ****         mbedtls_rsa_rsaes_pkcs1_v15_encrypt_fn = (void *)0x0bf7500c;
 1532              		.loc 1 303 48
 1533 0af8 1389E539 		addi	s2,a1,926
 302:C:/Users/stapi/OneDrive/Desktop/GD32VW553/V1_MQTT_OK/GD32VW55X_Wifi_BLE_SDK/GD32VW55x_RELEASE_V1.0.2/MSDK/plf/src\init_rom_symbol.c ****         mbedtls_rsa_rsaes_pkcs1_v15_decrypt_fn = (void *)0x0bf7539e;
 1534              		.loc 1 302 43
 1535 0afc 23A03201 		sw	s3,%lo(.LANCHOR100)(t0)
 303:C:/Users/stapi/OneDrive/Desktop/GD32VW553/V1_MQTT_OK/GD32VW55X_Wifi_BLE_SDK/GD32VW55x_RELEASE_V1.0.2/MSDK/plf/src\init_rom_symbol.c ****         mbedtls_rsa_rsaes_pkcs1_v15_encrypt_fn = (void *)0x0bf7500c;
 1536              		.loc 1 303 48
 1537 0b00 B7020000 		lui	t0,%hi(.LANCHOR101)
 304:C:/Users/stapi/OneDrive/Desktop/GD32VW553/V1_MQTT_OK/GD32VW55X_Wifi_BLE_SDK/GD32VW55x_RELEASE_V1.0.2/MSDK/plf/src\init_rom_symbol.c ****         mbedtls_rsa_rsassa_pkcs1_v15_sign_fn = (void *)0x0bf7581a;
 1538              		.loc 1 304 48
 1539 0b04 9384C500 		addi	s1,a1,12
 303:C:/Users/stapi/OneDrive/Desktop/GD32VW553/V1_MQTT_OK/GD32VW55X_Wifi_BLE_SDK/GD32VW55x_RELEASE_V1.0.2/MSDK/plf/src\init_rom_symbol.c ****         mbedtls_rsa_rsaes_pkcs1_v15_encrypt_fn = (void *)0x0bf7500c;
 1540              		.loc 1 303 48
 1541 0b08 23A02201 		sw	s2,%lo(.LANCHOR101)(t0)
 304:C:/Users/stapi/OneDrive/Desktop/GD32VW553/V1_MQTT_OK/GD32VW55X_Wifi_BLE_SDK/GD32VW55x_RELEASE_V1.0.2/MSDK/plf/src\init_rom_symbol.c ****         mbedtls_rsa_rsassa_pkcs1_v15_sign_fn = (void *)0x0bf7581a;
 1542              		.loc 1 304 48
 1543 0b0c B7020000 		lui	t0,%hi(.LANCHOR102)
 305:C:/Users/stapi/OneDrive/Desktop/GD32VW553/V1_MQTT_OK/GD32VW55X_Wifi_BLE_SDK/GD32VW55x_RELEASE_V1.0.2/MSDK/plf/src\init_rom_symbol.c ****         mbedtls_rsa_rsassa_pkcs1_v15_verify_fn = (void *)0x0bf75b8e;
 1544              		.loc 1 305 46
 1545 0b10 1384A781 		addi	s0,a5,-2022
 304:C:/Users/stapi/OneDrive/Desktop/GD32VW553/V1_MQTT_OK/GD32VW55X_Wifi_BLE_SDK/GD32VW55x_RELEASE_V1.0.2/MSDK/plf/src\init_rom_symbol.c ****         mbedtls_rsa_rsassa_pkcs1_v15_sign_fn = (void *)0x0bf7581a;
 1546              		.loc 1 304 48
 1547 0b14 23A09200 		sw	s1,%lo(.LANCHOR102)(t0)
 305:C:/Users/stapi/OneDrive/Desktop/GD32VW553/V1_MQTT_OK/GD32VW55X_Wifi_BLE_SDK/GD32VW55x_RELEASE_V1.0.2/MSDK/plf/src\init_rom_symbol.c ****         mbedtls_rsa_rsassa_pkcs1_v15_verify_fn = (void *)0x0bf75b8e;
 1548              		.loc 1 305 46
 1549 0b18 B7020000 		lui	t0,%hi(.LANCHOR103)
 306:C:/Users/stapi/OneDrive/Desktop/GD32VW553/V1_MQTT_OK/GD32VW55X_Wifi_BLE_SDK/GD32VW55x_RELEASE_V1.0.2/MSDK/plf/src\init_rom_symbol.c ****         mbedtls_rsa_rsassa_pss_sign_fn = (void *)0x0bf75630;
 1550              		.loc 1 306 48
 1551 0b1c 9383E7B8 		addi	t2,a5,-1138
 305:C:/Users/stapi/OneDrive/Desktop/GD32VW553/V1_MQTT_OK/GD32VW55X_Wifi_BLE_SDK/GD32VW55x_RELEASE_V1.0.2/MSDK/plf/src\init_rom_symbol.c ****         mbedtls_rsa_rsassa_pkcs1_v15_verify_fn = (void *)0x0bf75b8e;
 1552              		.loc 1 305 46
 1553 0b20 23A08200 		sw	s0,%lo(.LANCHOR103)(t0)
 306:C:/Users/stapi/OneDrive/Desktop/GD32VW553/V1_MQTT_OK/GD32VW55X_Wifi_BLE_SDK/GD32VW55x_RELEASE_V1.0.2/MSDK/plf/src\init_rom_symbol.c ****         mbedtls_rsa_rsassa_pss_sign_fn = (void *)0x0bf75630;
 1554              		.loc 1 306 48
 1555 0b24 B7020000 		lui	t0,%hi(.LANCHOR104)
 1556 0b28 23A07200 		sw	t2,%lo(.LANCHOR104)(t0)
 307:C:/Users/stapi/OneDrive/Desktop/GD32VW553/V1_MQTT_OK/GD32VW55X_Wifi_BLE_SDK/GD32VW55x_RELEASE_V1.0.2/MSDK/plf/src\init_rom_symbol.c ****         mbedtls_rsa_rsassa_pss_verify_fn = (void *)0x0bf75b6e;
 1557              		.loc 1 307 40
 1558 0b2c 93850563 		addi	a1,a1,1584
 1559 0b30 B7020000 		lui	t0,%hi(.LANCHOR105)
 308:C:/Users/stapi/OneDrive/Desktop/GD32VW553/V1_MQTT_OK/GD32VW55X_Wifi_BLE_SDK/GD32VW55x_RELEASE_V1.0.2/MSDK/plf/src\init_rom_symbol.c ****         mbedtls_rsa_rsassa_pss_verify_ext_fn = (void *)0x0bf75946;
 1560              		.loc 1 308 42
 1561 0b34 938FE7B6 		addi	t6,a5,-1170
 307:C:/Users/stapi/OneDrive/Desktop/GD32VW553/V1_MQTT_OK/GD32VW55X_Wifi_BLE_SDK/GD32VW55x_RELEASE_V1.0.2/MSDK/plf/src\init_rom_symbol.c ****         mbedtls_rsa_rsassa_pss_verify_fn = (void *)0x0bf75b6e;
 1562              		.loc 1 307 40
 1563 0b38 23A0B200 		sw	a1,%lo(.LANCHOR105)(t0)
 308:C:/Users/stapi/OneDrive/Desktop/GD32VW553/V1_MQTT_OK/GD32VW55X_Wifi_BLE_SDK/GD32VW55x_RELEASE_V1.0.2/MSDK/plf/src\init_rom_symbol.c ****         mbedtls_rsa_rsassa_pss_verify_ext_fn = (void *)0x0bf75946;
 1564              		.loc 1 308 42
 1565 0b3c B7050000 		lui	a1,%hi(.LANCHOR106)
 309:C:/Users/stapi/OneDrive/Desktop/GD32VW553/V1_MQTT_OK/GD32VW55X_Wifi_BLE_SDK/GD32VW55x_RELEASE_V1.0.2/MSDK/plf/src\init_rom_symbol.c ****         mbedtls_rsa_set_padding_fn = (void *)0x0bf744c6;
 1566              		.loc 1 309 46
 1567 0b40 138F6794 		addi	t5,a5,-1722
 308:C:/Users/stapi/OneDrive/Desktop/GD32VW553/V1_MQTT_OK/GD32VW55X_Wifi_BLE_SDK/GD32VW55x_RELEASE_V1.0.2/MSDK/plf/src\init_rom_symbol.c ****         mbedtls_rsa_rsassa_pss_verify_ext_fn = (void *)0x0bf75946;
 1568              		.loc 1 308 42
 1569 0b44 23A0F501 		sw	t6,%lo(.LANCHOR106)(a1)
 309:C:/Users/stapi/OneDrive/Desktop/GD32VW553/V1_MQTT_OK/GD32VW55X_Wifi_BLE_SDK/GD32VW55x_RELEASE_V1.0.2/MSDK/plf/src\init_rom_symbol.c ****         mbedtls_rsa_set_padding_fn = (void *)0x0bf744c6;
 1570              		.loc 1 309 46
 1571 0b48 B7050000 		lui	a1,%hi(.LANCHOR107)
 1572 0b4c 23A0E501 		sw	t5,%lo(.LANCHOR107)(a1)
 310:C:/Users/stapi/OneDrive/Desktop/GD32VW553/V1_MQTT_OK/GD32VW55X_Wifi_BLE_SDK/GD32VW55x_RELEASE_V1.0.2/MSDK/plf/src\init_rom_symbol.c ****         mbedtls_sha256_clone_fn = (void *)0x0bf76374;
 1573              		.loc 1 310 36
 1574 0b50 1307674C 		addi	a4,a4,1222
 1575 0b54 B7050000 		lui	a1,%hi(.LANCHOR108)
 311:C:/Users/stapi/OneDrive/Desktop/GD32VW553/V1_MQTT_OK/GD32VW55X_Wifi_BLE_SDK/GD32VW55x_RELEASE_V1.0.2/MSDK/plf/src\init_rom_symbol.c ****         mbedtls_sha256_finish_fn = (void *)0x0bf7642e;
 1576              		.loc 1 311 33
 1577 0b58 938E4737 		addi	t4,a5,884
 310:C:/Users/stapi/OneDrive/Desktop/GD32VW553/V1_MQTT_OK/GD32VW55X_Wifi_BLE_SDK/GD32VW55x_RELEASE_V1.0.2/MSDK/plf/src\init_rom_symbol.c ****         mbedtls_sha256_clone_fn = (void *)0x0bf76374;
